(dp1
S'friends'
p2
(lp3
(S'100000794810348'
S'Shivam Agarwal'
tp4
a(S'100002370455908'
S'Simran Singh'
tp5
a(S'100001613907779'
S'Shiva Bhattacharya'
tp6
a(S'100004185482084'
S'Nawab Aditya Singh'
tp7
a(S'100006436132224'
S'Palak Srivastava'
tp8
a(S'100000652148414'
S'Rajat Sharma'
tp9
a(S'100005345110498'
S'ZayShah Khan'
tp10
a(S'100003474992550'
S'Deepali Devgan Sharma'
tp11
a(S'100001525298528'
S'Agam Sharma'
tp12
a(S'100007506764345'
S'Lucky Sonker'
tp13
a(S'100004733130130'
S'Luvdeep Singh'
tp14
a(S'100002828623937'
S'Khushboo Pal'
tp15
a(S'100000277785587'
S'Amitabh Ranjan'
tp16
a(S'100002848058749'
S'Utsav Bajpai'
tp17
a(S'100002326495900'
S'Diwakar Mishra'
tp18
a(S'100000374179942'
S'Nitin Singh'
tp19
a(S'100008154849093'
S'Rehnuma Wali'
tp20
a(S'100005166407823'
S'Adit Sonker'
tp21
a(S'100001739921669'
S'Sadaf Haroon'
tp22
a(S'100003998571726'
S'Ketan Sonkar'
tp23
a(S'100001888975000'
S'Noorul Ansari'
tp24
a(S'100005037342797'
S'Ritik Sonkar'
tp25
a(S'100001578147071'
S'Deepanshu Gupta'
tp26
a(S'100002955566121'
S'Arbaaz Ansari'
tp27
a(S'100003610239755'
S"I\\u0131'em Fall\\u0131\\u0131\\u014bgfrom Da'he\\u0131\\u0131ghts \\u01fevheave\\u014b-ft'anzar"
tp28
a(S'100004482601422'
S'S\\u00e4ksh\\u00e3m S\\u00f8\\u00f1k\\u00e4r'
tp29
a(S'100002145784058'
S'Arsh Rehman'
tp30
a(S'100003706138578'
S'Faiz Khan'
tp31
a(S'100001407582370'
S'Gurpreet Kaur'
tp32
a(S'100000564366237'
S'Aryaman Srivastava'
tp33
a(S'100001234190824'
S'Haider Abbas'
tp34
a(S'100001453640020'
S'\\u00dcjjw\\u00e2l S\\u00f4\\u00f1k\\u00e0r'
tp35
a(S'100006622024476'
S'Sachin Gautam'
tp36
a(S'100005763394824'
S'Anamika Sonker'
tp37
a(S'100003027784015'
S'Nidhi Raghuvanshi'
tp38
a(S'100000793556607'
S'Aman Agarwal'
tp39
a(S'100002426238035'
S'Sohail Ansari'
tp40
a(S'100001011132309'
S'Abhijat Mishra'
tp41
a(S'100004918923260'
S'Sheebu Sonker'
tp42
a(S'100004324295221'
S'Pks Pintu'
tp43
a(S'100001182596999'
S'Saurabh Mishra'
tp44
a(S'100000645983808'
S'Sophia Chandra'
tp45
a(S'100004085537378'
S'Pranjal Deathby Crusing'
tp46
a(S'100000405592297'
S'Nawab Abdullah Jawed'
tp47
a(S'100002613810945'
S'Rehan Ahmad'
tp48
a(S'100002312470841'
S'Sameer Khan'
tp49
a(S'100000018448605'
S'Kashif Khan'
tp50
a(S'100000323698811'
S'M\\u00f4\\u0126d M\\u00fbj\\u00e2h\\u00edd'
tp51
a(S'100003587765393'
S'Mohd Owaish'
tp52
a(S'100002346821527'
S'Elisha Ojha'
tp53
a(S'100003602333841'
S'Hafsa Khan'
tp54
a(S'100000571161297'
S'Yash Maheshwari'
tp55
a(S'100004063521588'
S'Ankitesh Dhar Dwivedi'
tp56
a(S'100005197117111'
S'Altamash Ali Ansari'
tp57
a(S'100000842273750'
S'Vibhuti Sharma'
tp58
a(S'100002751456517'
S'Zeba Khan'
tp59
a(S'100003721844403'
S'Shantanu Awasthi'
tp60
a(S'100002739711366'
S'Ashwin Sonker'
tp61
a(S'100007056340441'
S'Pratyendra Singh'
tp62
a(S'100002307732083'
S'Sanskar Maheshwari'
tp63
a(S'100004049814018'
S'Abhinav Sahu'
tp64
a(S'100001800684540'
S'Chawdhary Honey Sonkar'
tp65
a(S'100001740545798'
S'Mohd Aqib'
tp66
a(S'100002481672265'
S'Rajat Gupta'
tp67
a(S'100002853158988'
S'Rashi Kesarwani'
tp68
a(S'100002844348238'
S'Piyush Dixit'
tp69
a(S'100002414081160'
S'Aarav Sonker'
tp70
a(S'100002631728408'
S'Shivam Rawat'
tp71
a(S'100002490040338'
S'Shreya Bhutani'
tp72
a(S'100000774423334'
p73
S'Vaibhav Singh'
tp74
a(S'100001155373686'
S'Mahak Mehrotra'
tp75
a(S'100002397948193'
S'Amna Hussain'
tp76
a(S'100008296304941'
S'Ketan Sonkar'
tp77
a(S'100000607501604'
S'Samarth Gupta'
tp78
a(S'100004588510117'
S'Amit Sonkar'
tp79
a(S'100004863732912'
S'Shiva Sonkar'
tp80
a(S'100001152033271'
S'Saransh Gupta'
tp81
a(S'100002306863297'
S'Jitendra Kumar'
tp82
a(S'100005507643091'
S'Ashwin Sonker'
tp83
a(S'100001252129992'
S'Siddhant Anand'
tp84
a(S'100005851507716'
S'Apeksha Awasthi'
tp85
a(S'100005209391143'
S'Wilbur Eric Barrow'
tp86
a(S'100002729076313'
S'Vatsala Shandilya Mishra'
tp87
a(S'100004678744647'
S'Soban Bakhtiar'
tp88
a(S'100008007400333'
S'Mohit Sonker'
tp89
a(S'100003602662982'
S'Ankit Kumar'
tp90
a(S'100000271063087'
S'Angelic Vartika Chowdhary'
tp91
a(S'100006401762452'
S'Shreeya Aggarwal'
tp92
a(S'100003090357321'
S'Faisal Khan'
tp93
a(S'100003794203282'
S'Ekta Agarwal'
tp94
a(S'100003961421413'
S'Aadi Stunting Str'
tp95
a(S'100000566140722'
S'Shubhi Kapoor'
tp96
a(S'100004253320815'
S'Shraddha Sonkar'
tp97
a(S'100002432738557'
S'Ishan Chandra'
tp98
a(S'100007264901691'
S'Suraj Dariyawadi'
tp99
a(S'100002323904588'
S'Rishabh Ulf Robin Vishwakarma'
tp100
a(S'100004568020061'
S'Shubham Sonker'
tp101
a(S'100003818034838'
S'Aina Sonker'
tp102
a(S'100002089127111'
S'Bal Krishan Tripathi'
tp103
a(S'100005205994071'
S'Sneha Dixit'
tp104
asS'id'
p105
S'100002736690766'
p106
sS'name'
p107
S'Ritik Sonker'
p108
s.