(dp1
S'friends'
p2
(lp3
(S'1129517077'
S'Shubham DoObi Oberoi'
tp4
a(S'1494736999'
S'Harsimran Singh'
tp5
a(S'1549986880'
S'Massimo Sgaramella'
tp6
a(S'1068408720'
S'Ankita Anand'
tp7
a(S'716662104'
S'Ankita Channa'
tp8
a(S'1529251349'
S'Raghav Khanna'
tp9
a(S'1479015328'
S'Jasveen Singh'
tp10
a(S'100001415482358'
S'Paulina Flasza'
tp11
a(S'1062608487'
S'Puleen Rehan'
tp12
a(S'100000923910024'
S'Jazzy B Karan'
tp13
a(S'1210124106'
S'Sukhleen Thapar'
tp14
a(S'1454857653'
S'Ankita Nawalakha'
tp15
a(S'100000227769887'
S'Anna Lech'
tp16
a(S'621900559'
S'Snigdha Chadha'
tp17
a(S'100000850758766'
S'Nata Lia'
tp18
a(S'1199739481'
p19
S'Kevin Robin'
tp20
a(S'100000090193539'
S'Agnieszka S\\u0142owik'
tp21
a(S'612894499'
p22
S'Mehak Sharma'
tp23
a(S'1275195968'
S'Sahil Arora'
tp24
a(S'1059980625'
S'Kanav Nangia'
tp25
a(S'508803651'
S'Yadvi Aggarwal'
tp26
a(S'1313229809'
S'Pragya Kain'
tp27
a(S'1022878700'
S'Merin John'
tp28
a(S'1179776277'
S'Ojus Bhanot'
tp29
a(S'100000657224757'
S'Shweta Gandas'
tp30
a(S'672787880'
p31
S'Numaan Matto'
tp32
a(S'797920219'
S'Kashni Channa'
tp33
a(S'654029573'
S'Sarthak Gaur'
tp34
a(S'555730510'
S'Disha Gaur'
tp35
a(S'1200626740'
S'Jovi Singh'
tp36
a(S'1248771808'
S'Antriksh Dadha'
tp37
a(S'807032976'
p38
S'Manika Batra'
tp39
a(S'1059329838'
S'Giulia Balice'
tp40
a(S'100000127422611'
S'Shivam Bhatia'
tp41
a(S'100002935007963'
S'Natalia Skrzypek'
tp42
a(S'1352253332'
S'Megha Sehrawat'
tp43
a(S'1038538839'
S'Ishaan Handa'
tp44
a(S'581954235'
S'Deepika Jain'
tp45
a(S'100000094858169'
S'Sambhav Raj'
tp46
a(S'1311397643'
S'Davin Paul'
tp47
a(S'576695293'
S'Antra Lodha'
tp48
a(S'584002083'
S'Manjot Munjal'
tp49
a(S'100000212253832'
S'Wiola Samek'
tp50
a(S'620866188'
S'Ujjwal Batla'
tp51
a(S'100007901826302'
S'Tarini Manhas'
tp52
a(S'1241481613'
p53
S'Reuben Das'
tp54
a(S'694522586'
S'Ishaan Agarwal'
tp55
a(S'1089196914'
p56
S'Lokesh Devraj'
tp57
a(S'1185097032'
p58
S'Siddhartho Chandra Bondhopadhaya'
tp59
a(S'1357071000'
p60
S'Simren Ohri'
tp61
a(S'589841351'
S'Divyangini Lal'
tp62
a(S'1061948667'
S'Prateek Katyal'
tp63
a(S'1461967391'
S'Garvita Sethi'
tp64
a(S'657502333'
S'Pulkit Mehta'
tp65
a(S'1038488628'
S'Karan Gill'
tp66
a(S'1151067127'
S'Nikhil Sharma'
tp67
a(S'642101277'
S'Pratit Rawat'
tp68
a(S'1360809164'
S'Arav Jain'
tp69
a(S'1467224658'
S'Jeffrey Selvaraju'
tp70
a(S'1369264392'
p71
S'Ankesh Masih Joy'
tp72
a(S'541040265'
p73
S'Aaron Dan Fernandes'
tp74
a(S'1073768612'
S'Luce Liberatori'
tp75
a(S'100000607690301'
S'Samar Singh'
tp76
a(S'669837075'
p77
S'Anmol Jalta'
tp78
a(S'651034222'
S'Rohit Singh'
tp79
a(S'1048768747'
S'Hanshal Nautiyal'
tp80
a(S'617260155'
p81
S'Saniya Bijlani'
tp82
a(S'651246697'
S'Brahmpal Singh'
tp83
a(S'1015799158'
S'Karan Kheterpal'
tp84
a(S'1094085962'
S'Saad Khalid'
tp85
a(S'1146558185'
p86
S'Saakshi Sethi'
tp87
a(S'100002866617581'
S'Beata Wymiata\\u0142ek'
tp88
a(S'1100565641'
S'Rahul Sharma'
tp89
a(S'1141427889'
p90
S'Dilpreet Singh \\u0a74'
tp91
a(S'1389186205'
S'Abhishruti Shrivastava'
tp92
a(S'1662647127'
S'Kai Sing'
tp93
a(S'599222186'
S'Sorabh Kochhar'
tp94
a(S'1005879556'
S'Ammar Ahmad'
tp95
a(S'1197934258'
S'Aabha Kathuria'
tp96
a(S'100000510474716'
S'Viren Singh'
tp97
a(S'1231513928'
S'Smriti Paul'
tp98
a(S'1421906050'
S'Viola Cesaretti'
tp99
a(S'712235412'
S'Ankit Lakhotia'
tp100
a(S'620490249'
S'Abhay DabLa Gautam'
tp101
a(S'1019399767'
S'Zamin Sheikh'
tp102
a(S'100000169682531'
S'Dhruv Mittal'
tp103
a(S'1258770624'
S'Sonali Dhandia'
tp104
a(S'563687839'
S'Arpeet Thethi'
tp105
a(S'100002692894553'
S'Wiktoria Gorzkowska'
tp106
a(S'1081815670'
S'Neharika Prakash'
tp107
a(S'1252797744'
p108
S'Deeksha Porwal'
tp109
a(S'1172027929'
S'Mayank Manocha'
tp110
a(S'1248464091'
S'Aanchal Kumarr'
tp111
a(S'1447224198'
S'Sanchay Sondhi'
tp112
a(S'677233936'
S'Joyeeta Kar'
tp113
a(S'514277738'
S'Yuvraj Sahni'
tp114
a(S'100003036378898'
S'Katarzyna Ku\\u015b'
tp115
a(S'543036486'
S'Federico Gregori'
tp116
a(S'542727162'
S'Giorgia Filippucci'
tp117
asS'id'
p118
S'100001026286199'
p119
sS'name'
p120
S'Sumit Singh'
p121
s.