(dp1
S'friends'
p2
(lp3
(S'100003676485110'
S'Devi Sri Indriani'
tp4
a(S'100003067255293'
S'Wildan Bachtiar'
tp5
a(S'100004397594172'
S'Epull Waatashiwa Dozoyoroshi Ku II'
tp6
a(S'100000964182531'
S'Adelia As-syifa Anastasya'
tp7
a(S'100004427559351'
S'Puetri Azah'
tp8
a(S'100000263359379'
S'Cici Antessa Dyatama'
tp9
a(S'100004615666486'
S'Nyla'
tp10
a(S'100003887361446'
S'Pingki Anggraeni'
tp11
a(S'100003509350980'
S'Nnassuetion Nasrul'
tp12
a(S'100004917935269'
S'Andy'
tp13
a(S'100003750317522'
S'Deasy Anggraini'
tp14
a(S'100006265864397'
S'Fadhilthe Axbar Wim Ganiaxzthesportz'
tp15
a(S'100006826292804'
S'Nadya Hipan'
tp16
a(S'100003464978356'
S'Andie Casper'
tp17
a(S'1243584488'
S'Gustipras Gorge'
tp18
a(S'100008341868784'
S'Devi Alviola Morena-merana'
tp19
a(S'100004656511684'
S'Ekhi Ae'
tp20
a(S'100006328266639'
S'Ratna Anisa'
tp21
a(S'100003862845737'
S'Morena Indovin Ojolali'
tp22
a(S'100004312901625'
S'Raiyhansyah'
tp23
a(S'100004760505503'
S'Widia Nengsih'
tp24
a(S'100000450827891'
S'Twoty Alwiah'
tp25
a(S'100006795035572'
S'Agustian Nugraha'
tp26
a(S'100005171292778'
S'M Aqil Samudra'
tp27
a(S'100000294585882'
S'Sagitarius Moon'
tp28
a(S'100002320124186'
S'Andy Binawas'
tp29
a(S'100004907645372'
S'Agung Permana'
tp30
a(S'100000561097418'
S'Aiyyu Shiechewxtaurus'
tp31
a(S'100000424280800'
S'Jeffrey Pastrana'
tp32
a(S'100006604173586'
S'Puji Ajaah'
tp33
a(S'100003645331657'
S'Lesmana Ndut'
tp34
a(S'100005594085091'
S'Amel Amaliyah'
tp35
a(S'100001089188623'
S'Vickie Sizchi Blockhkoks'
tp36
a(S'100003396091227'
S"Eliza ZhePoetry GenkceD'trilin"
tp37
a(S'100000130436975'
S'Yuanitta Nitha'
tp38
a(S'100008081382954'
S'Fifi Sari'
tp39
a(S'100004261713999'
S'Remon Grecia Palacio'
tp40
a(S'100004614095285'
S'Bagus Saziwo'
tp41
a(S'100005679641019'
S'Yonii Heriiaanto Part II'
tp42
a(S'100006225872165'
S'Sari Lestari'
tp43
a(S'100003325527971'
S'Wiwin Pecinta Majelis Rasulullah'
tp44
a(S'100005322459854'
S'Ismail Rastafara'
tp45
a(S'100003316006135'
S'Galih Oey Plathynum'
tp46
a(S'100004560181012'
S'Iwa Dika Nicotine'
tp47
a(S'100006701619471'
S'Ramadhan Ajaah'
tp48
a(S'100000357459579'
S'Agha Rastafara Casper'
tp49
a(S'100008300410463'
S'Fikar'
tp50
a(S'1721287192'
S'Asani Mulya'
tp51
a(S'1518460246'
S"Imam Purnomo La'mide"
tp52
a(S'100005864730887'
S'Iyan Febriyansyah'
tp53
a(S'100007499342747'
S'Usman Tahira'
tp54
a(S'100001662189409'
S'Dheacy Bintang Azure'
tp55
a(S'100005005426838'
S'Patrick Nichols'
tp56
a(S'100006184963708'
S'Emily Kalika Phailin'
tp57
a(S'100003657930764'
S'Shaim Mohammed Ajfer'
tp58
a(S'100004433772556'
S'HasaNna'
tp59
a(S'100004744652631'
S'Asep Budiyana'
tp60
a(S'100008357889176'
S'Dhe Boele'
tp61
a(S'100004660655197'
S'Helfansyah Putra Melayu'
tp62
a(S'100007920457633'
S'Princess Ayu'
tp63
a(S'100004251913543'
S'Kacici Dhiana Yhantiy'
tp64
a(S'100001601716975'
S'Anggy Nanda Safitri'
tp65
a(S'100005993476554'
S'Putra Pesona'
tp66
a(S'100005638627944'
S'Andri Guri Guri Nyoyy'
tp67
a(S'100001719681656'
S'Chalova RheinlovVer'
tp68
a(S'100003503597720'
S'Atye Lutfie'
tp69
a(S'100004603151341'
S'Anifnthu Finaciecwek Iankclalusetiamnunggumue'
tp70
a(S'100001165801079'
S'Shania Sunny Sweet'
tp71
a(S'100002243885366'
S'Rudi Heriana'
tp72
a(S'100006181536438'
S'Ayuni Imuzz'
tp73
a(S'100001474097315'
S'Arifin Stovia'
tp74
a(S'100001958553453'
S'Aprilia Dini'
tp75
a(S'100005454456502'
S'Achill Teaa'
tp76
a(S'100004626584793'
S'Charaf Hatimati'
tp77
a(S'100001530509248'
S'Santika Sarie'
tp78
a(S'100004463551995'
S'Renni Herliyani'
tp79
a(S'100006422868647'
S'Sipha Garz Suttisna'
tp80
a(S'100006730454315'
S'Shapoy Reza'
tp81
a(S'100003765222716'
S'Cici Beeb'
tp82
a(S'100008226812857'
S'Rendy Pitter'
tp83
asS'id'
p84
S'100005881876164'
p85
sS'name'
p86
S'Mar Shendi'
p87
s.