(dp1
S'name'
p2
S'Surendra Singh Bhadauria'
p3
sS'current_class'
p4
S'india'
p5
sS'home_class'
p6
Vagra, uttar pradesh, india
p7
sS'home_text'
p8
VAgra, Uttar Pradesh\u000aHometown
p9
sS'current_link'
p10
Vhttps://www.facebook.com/l.php?u=https%3A%2F%2Fwww.bing.com%2Fmaps%2Fdefault.aspx%3Fv%3D2%26pc%3DFACEBK%26mid%3D8100%26where1%3D27.180000509845%252C%2B78.019409179688%26name%3DAgra%252C%2BUttar%2BPradesh%26mkt%3Den-IN&h=eAQG6t3jS&s=1
p11
sS'home_link'
p12
Vhttps://www.facebook.com/l.php?u=https%3A%2F%2Fwww.bing.com%2Fmaps%2Fdefault.aspx%3Fv%3D2%26pc%3DFACEBK%26mid%3D8100%26where1%3D27.180000509845%252C%2B78.019409179688%26name%3DAgra%252C%2BUttar%2BPradesh%26mkt%3Den-IN&h=6AQHWjr0r&s=1
p13
sS'current_text'
p14
VAgra, Uttar Pradesh\u000aCurrent City
p15
sS'friends'
p16
(lp17
(S'100004038293370'
S'Jai Singh Shekhawat'
tp18
a(S'100001008973227'
S'Tushar Mohanty'
tp19
a(S'100003815615840'
S'Chirag Kotadiya'
tp20
a(S'100003176898051'
S'Jitendrkumar Baraiya'
tp21
a(S'100004651360504'
S'Neha Sharma'
tp22
a(S'100000119440134'
S'Hemant Kumar'
tp23
a(S'1762523644'
S'Kartikeya Pratap Singh Shrinet'
tp24
a(S'1767627217'
S'Rajan Pandey'
tp25
a(S'100005823515703'
S'Amrita Mukherjee Chatterjee'
tp26
a(S'100000756842480'
S'Shiv Naresh'
tp27
a(S'100000847946357'
S'Savita Mishra'
tp28
a(S'100003575210330'
S'Kumar Sales Rampur'
tp29
a(S'100002656526453'
S'Vivek Singh'
tp30
a(S'100006995078122'
S'Akhilesh Saxena'
tp31
a(S'100001751783023'
S'\\u0921\\u0949.\\u0927\\u0928\\u091e\\u094d\\u091c\\u092f \\u0938\\u093f\\u0902\\u0939'
tp32
a(S'100004068967680'
S'Ajay Khatri'
tp33
a(S'100006865924580'
S'\\u0932\\u0947\\u0916\\u0928\\u093f\\u092f\\u093e\\u0902 \\u0939\\u093f\\u0902\\u0926\\u0940'
tp34
a(S'100000038984197'
S'Deval Shastri'
tp35
a(S'100000992878018'
S'Ernestina Willis'
tp36
a(S'100003868803572'
S'Nikita Sharma'
tp37
a(S'100004297570332'
S'Maitri Thakur'
tp38
a(S'100000463928173'
S'Rajeev Ranjan Tiwari'
tp39
a(S'100005582827512'
S'C\\u00fbT\\u00ee\\u00ea P\\u00ee\\u00eb'
tp40
a(S'100003572663118'
S'Anjali Saxena'
tp41
a(S'100005372832232'
S'Priybrat Singh'
tp42
a(S'100000020161494'
S'Ashok Satyamev Jayate'
tp43
a(S'100000008862293'
S'Narendra Kumar Singh Sengar'
tp44
a(S'100005593152622'
S'Amlakant Mahto'
tp45
a(S'100005709753540'
S'Raju Rankawat'
tp46
a(S'1253653331'
S'Neeraj Sharma'
tp47
a(S'100006430482392'
S'Naveen Tuteja Raju'
tp48
a(S'100003798275102'
S'Ramkesh Yadav Poet'
tp49
a(S'100008019125993'
S'Singh Manju'
tp50
a(S'100007854553856'
S'Mohammad Nayeem'
tp51
a(S'100004042999908'
S'Arun Bothra'
tp52
a(S'100007607100066'
S'Rekha Dixit'
tp53
a(S'100000251646692'
S'Srini Vasan'
tp54
a(S'100003700563375'
S'Govind Dixit'
tp55
a(S'100001295675739'
S'Subhash Chandra'
tp56
a(S'100003307876782'
S'Ayodhya Shodh Sansthan'
tp57
a(S'100000111922518'
S'Pranjul Tomar'
tp58
a(S'100001036985432'
S'Pankaj Durgapal'
tp59
a(S'100007965698122'
S'Krishan Kanhaiya Ajency'
tp60
a(S'100003602897905'
S'Seema Malik'
tp61
a(S'100003988491027'
S'Alok Kumar'
tp62
a(S'100000802790207'
S'Arjun Singh'
tp63
a(S'100003251063641'
S'Sarojini Bisht'
tp64
a(S'100000492957361'
S'Yogesh Dixit'
tp65
a(S'100004039092990'
S'Omprakash Mathur'
tp66
a(S'100001789210223'
S'Sharma Shivani'
tp67
a(S'100002637176174'
S'Govind BloodDonor'
tp68
a(S'100002337535295'
S'RS Tak'
tp69
a(S'100001074516653'
S'Hemraj Tiwari'
tp70
a(S'100003204766732'
S'\\u0905\\u091c\\u092f \\u0927\\u093e\\u0930\\u093e\\u0923\\u093f\\u092f\\u093e'
tp71
a(S'100004280880746'
S'Ansee Anand'
tp72
a(S'100007999294770'
S'Kamlesh Mehta'
tp73
a(S'100002980482319'
S'Raj Singh'
tp74
a(S'100005022252996'
S'Omkar Jee'
tp75
a(S'100005216854483'
S'Archana Srivastava'
tp76
a(S'100005010125152'
S'Vinu Kumar'
tp77
a(S'1622975396'
S'Juthika Banerjee'
tp78
a(S'100002746602368'
S'Neetu Bhardwaj'
tp79
a(S'100005212422835'
S'Neera Jain'
tp80
a(S'100001270765709'
S'Sanjay Parashar Babloo'
tp81
a(S'100001198075143'
S'Sharad Kumar'
tp82
a(S'100002232133594'
S'Rakesh Tomar'
tp83
a(S'100000514228707'
S'Sangeeta Saxena'
tp84
a(S'100003943102335'
S'Virendra Sinha Ajnabi'
tp85
a(S'100004498563871'
S'Raajneetik Adda'
tp86
a(S'100003133512534'
S'Rahul Singh Padariya'
tp87
a(S'100000437606160'
S'Padma Vasudha Srinivasan'
tp88
a(S'100002018852487'
S'Kishore T Gowda'
tp89
a(S'100004293905443'
S'Mahfuzurrahman Adil'
tp90
a(S'100006830250109'
S'Surendar Nawal'
tp91
a(S'100004092894038'
S'Mamuni Chokrowati'
tp92
a(S'100008116000749'
S'Divine Vibes'
tp93
a(S'100002085627451'
S'Sanjay Singh'
tp94
a(S'100003975535489'
S'Pratibha Sharma'
tp95
a(S'100005245773305'
S'Suraj Kumar Sharma'
tp96
a(S'100006077104095'
S'Shah Shruti'
tp97
a(S'100008261435146'
S'Drrakesh Ranjan'
tp98
a(S'100006975965720'
S'Bandana Bishwas'
tp99
a(S'1739725373'
S'Pavan Kumar Rajavat'
tp100
a(S'100004527250422'
S'Reetu Singh Kundu'
tp101
a(S'100002651663927'
S'Sonu Singh'
tp102
a(S'100005086620645'
S'Harsh Agarwal'
tp103
a(S'100001203993371'
S'Atul Arora'
tp104
a(S'100003247626874'
S'Sudhir Kumar'
tp105
a(S'100006996520920'
S'\\u092e\\u094b\\u0939\\u093f\\u0928\\u0940 \\u092d\\u091f\\u094d\\u091f\\u093e\\u091a\\u093e\\u0930\\u094d\\u092f'
tp106
a(S'100003922222410'
S'Anand Swaroop Agnihotri'
tp107
a(S'100000150668203'
S'Sanjeev Mehta'
tp108
a(S'100001935442004'
S'Ojesh Agrawal'
tp109
a(S'822484763'
S'Dharmender Singh'
tp110
a(S'100003122546363'
S'\\u0930\\u093e\\u092e\\u0947\\u0936\\u094d\\u0935\\u0930 \\u0924\\u093f\\u0935\\u093e\\u0930\\u0940'
tp111
a(S'731757151'
S'RJ Simran Kohli'
tp112
a(S'100004398215549'
S'Afaq Hussain'
tp113
a(S'100005607631934'
S'Poonam Sant'
tp114
a(S'100001542707873'
S'Anita Bhadauria'
tp115
a(S'100004018374522'
S'Prem Singh Shekhawat'
tp116
a(S'683059505'
S'\\u0936\\u094d\\u0930\\u0935\\u0923 \\u0915\\u0941\\u092e\\u093e\\u0930 \\u0909\\u0930\\u094d\\u092e\\u0932\\u093f\\u092f\\u093e'
tp117
a(S'100003285470585'
S'Arun Kumar'
tp118
a(S'100001568904649'
S'Sandeep Nadkarni'
tp119
a(S'100004155843249'
S'Vinayita Yeeshu Shahjee'
tp120
a(S'100004690149027'
S'\\u092e\\u0939\\u0947\\u0936 \\u091a\\u0928\\u094d\\u0926\\u094d\\u0930 \\u0924\\u094d\\u0930\\u093f\\u092a\\u093e\\u0920\\u0940'
tp121
a(S'100005083122151'
S'Shashi Singh'
tp122
a(S'100001559489134'
S'Yogendra Shekhawat Tihawali'
tp123
a(S'100001384573303'
S'Jai Prakash Kardam'
tp124
a(S'100006001023139'
S'Nagma Khan'
tp125
a(S'100001274972029'
S'Amritlal Joshi'
tp126
a(S'100001475032830'
S'Mukesh Kumar Modi'
tp127
a(S'100002644776541'
S'Nirmal Paul'
tp128
a(S'100006805200443'
S'Kavi Sunil Parit'
tp129
a(S'100003102738489'
S'Daxesh Patel'
tp130
a(S'100006643770788'
S'Naseem Siddiqui'
tp131
a(S'100003514991521'
S'Sagarika Ghosh'
tp132
a(S'100005930886820'
S'Mohit Shamli'
tp133
a(S'100003254227426'
S'Aashish Soni'
tp134
a(S'100003973613596'
S'Ranjan Srivastava'
tp135
a(S'100004284512103'
S'Kambeshwar Mahadev Mandir Kamba'
tp136
a(S'100001254666184'
S'Lalit Sharma'
tp137
a(S'100000790019074'
S'Subhash Tholiya Shimla'
tp138
a(S'100004501771962'
S'Tarun Noval'
tp139
a(S'100002846690378'
S'Yogendrasinh Rathod'
tp140
a(S'100008158211983'
S'Babita Sinha'
tp141
a(S'100001273624128'
S'Shashi Kant Rai'
tp142
a(S'100002940282610'
S'\\u091c\\u092f\\u0947\\u0928\\u094d\\u0926\\u094d\\u0930 \\u092a\\u093e\\u0923\\u094d\\u0921\\u0947\\u092f \\u0932\\u0932\\u094d\\u0932\\u093e'
tp143
a(S'100003979946245'
S'\\u0986\\u09ae\\u09b0\\u09be \\u09b8\\u09ac\\u09be\\u0987 \\u09ac\\u09a8\\u09cd\\u09a7\\u09c1'
tp144
a(S'1234186160'
S'\\u092a\\u0935\\u0928 \\u091c\\u0948\\u0928'
tp145
a(S'100004187345027'
S'Kishore Roy'
tp146
a(S'100002842881183'
S'India Times'
tp147
a(S'100001107814528'
S'Ashok Tiwari'
tp148
a(S'100002691620820'
S'Nelida Yaeger'
tp149
a(S'100001624098593'
S'Vikram Singh Rajpurohit'
tp150
a(S'1136500590'
S'Shashi Shekhar'
tp151
a(S'100007047738130'
S'Shambhu Singh'
tp152
a(S'100004095312375'
S'Ias Aspirant'
tp153
a(S'100001320956408'
S'Manoranjan Kumar Tiwari'
tp154
a(S'1242351789'
S'Rajesh Katiyar'
tp155
a(S'100001485461261'
S'\\u0926\\u093f\\u0932\\u0940\\u092a \\u0930\\u093e\\u0935'
tp156
a(S'100007437606567'
S'Richa Sharma'
tp157
a(S'100002141224245'
S'Sn Jha'
tp158
a(S'100004531143220'
S'Sitaram Sharma Chetan'
tp159
a(S'100007832142131'
S'Prakash Jha'
tp160
a(S'100003686407486'
S'Rahul Khanna'
tp161
a(S'100003497875190'
S'Kripa Shankar Tiwari'
tp162
a(S'100002479781106'
S'Dilip Agarwal'
tp163
a(S'100002069632346'
S'Save Uttarakhand'
tp164
a(S'100001129846797'
S'Dada Avnish Mishra'
tp165
a(S'100005983831576'
S'Smita Benerji'
tp166
a(S'100004088779854'
S'Dinesh Pareek'
tp167
a(S'1425286142'
S'Vaibhav Kant Adarsh'
tp168
a(S'1807828717'
S'Gopal Prasad'
tp169
a(S'1425882646'
S'Santosh Singh Rathore'
tp170
a(S'100007061950558'
S'Sagar Suman'
tp171
a(S'100006348579229'
S'Sona Giri'
tp172
a(S'100006196923719'
S'Kavayitri Sunita Kamboj'
tp173
a(S'100004165895757'
S'Shyam S Saini II'
tp174
a(S'100000969106438'
S'\\u0939\\u093f\\u092e\\u093e\\u0902\\u0936\\u0941 \\u0930\\u093e\\u092f'
tp175
a(S'100002511714595'
S'\\u092e\\u0943\\u0926\\u0941\\u0932\\u093e \\u0936\\u0941\\u0915\\u094d\\u0932\\u093e'
tp176
a(S'100002517988015'
S'Sanjay Singh Chauhan'
tp177
a(S'100003709755070'
S'Kamal Kumar Dutta'
tp178
a(S'100006492360291'
S'Paras Nath Pandey'
tp179
a(S'100002240174079'
S'Anjesh Kumar'
tp180
a(S'100001595754785'
S'Kapil Joshi'
tp181
a(S'100001124080400'
S'Om Prakash Tiwari'
tp182
a(S'100001972826719'
S'Manoj Kumar'
tp183
a(S'100002835967744'
S'Karan Singh Dhamora'
tp184
a(S'100001478539331'
S'Rana Sangram'
tp185
a(S'100002620217803'
S'Neelima Bhola'
tp186
a(S'1153981790'
S'DrArvind Mishra'
tp187
a(S'100006550473447'
S'Priyaranjan Sinha'
tp188
a(S'100007515818766'
S'Dheerendra Singh Bhadauria'
tp189
a(S'100006514307354'
S'Neha Bisht'
tp190
a(S'100004831651816'
S'Kuldeep Bhagat'
tp191
a(S'1035459148'
S'Janiva Roy'
tp192
a(S'1448465556'
S'Anil K Jain'
tp193
a(S'100005707568445'
S'Arvind Kataria'
tp194
a(S'100004600866666'
S'Shivpratap Singh Bhadauria'
tp195
a(S'1740855906'
S'Archana Verma'
tp196
a(S'1114315040'
S'Vishnu Agrawal'
tp197
a(S'100004455548153'
S'Akshay Kumar'
tp198
a(S'100000864213908'
S'Archanaa Singh'
tp199
a(S'100000969057059'
S'Vikram Singh Bhati'
tp200
a(S'100003106006365'
S'Rakesh Singh'
tp201
a(S'100001159064857'
S'Harsh HC'
tp202
a(S'100007410398190'
S'Asha Chetri'
tp203
a(S'814810208'
S'Kaushalendra Chauhan'
tp204
a(S'100006668704305'
S'Rakesh Mishra'
tp205
a(S'1376233628'
S'Amar Agrawal'
tp206
a(S'100004836343658'
S'Bhagirath Shekhawat'
tp207
a(S'100007198962102'
S'Raj Kumari'
tp208
a(S'100004050944264'
S'Vinod Negi'
tp209
a(S'100004825380473'
S'Rakesh Jain Kakkaji'
tp210
a(S'100006766898741'
S'\\u0938\\u093f\\u0921 \\u092a\\u093e\\u0923\\u094d\\u0921\\u0947\\u092f'
tp211
a(S'100000988684180'
S'Choudhary Ajay'
tp212
a(S'100001203763384'
S'\\u0905\\u091c\\u0940\\u0924 \\u092f\\u093e\\u0926\\u0935'
tp213
a(S'100001580679150'
S'Dharmesh Adhvaryu'
tp214
a(S'100004519023968'
S'Risky Banna Rajputana'
tp215
a(S'100000604338833'
S'Pranal Bhunia'
tp216
a(S'100002571763153'
S'Narendra Kumar Thakur'
tp217
a(S'100002739233537'
S'Laxman Singh Chouhan'
tp218
a(S'100007450055027'
S'Arun Gorakhpuri'
tp219
a(S'100001759275289'
S'Bhavna Nayak'
tp220
a(S'100002992668065'
S'Geeta Pandey'
tp221
a(S'100007977514514'
S'Pramod Sharma'
tp222
a(S'100003370819725'
S'Freelancer Banarasi Rajesh'
tp223
a(S'100000126888122'
S'Neela Prasad'
tp224
a(S'100003472344366'
S'Er Pankaj Sharma Ji'
tp225
a(S'100003306041210'
S'Vimal Anand Trivedi'
tp226
a(S'1704055458'
S'Vikram Singh'
tp227
a(S'100000302716893'
S'Upendra Prasad'
tp228
a(S'100004015165759'
S'Yathaarth Pandey'
tp229
a(S'100003322038719'
S'Dinesh Rajput'
tp230
a(S'100000020519255'
S'Manpreet Kaur'
tp231
a(S'100002077971385'
S'Jeevan Kumar Chowdary'
tp232
a(S'100003855969635'
S'Sudheer Acharya'
tp233
a(S'100001022079547'
S'Aisyah Rini'
tp234
a(S'100008285982329'
S'Usha Kiran'
tp235
a(S'100003399895763'
S'\\u0928\\u0947\\u0924\\u0943\\u0924\\u094d\\u0935 \\u092a\\u094d\\u0930\\u0924\\u093f\\u092d\\u093e \\u0916\\u094b\\u091c'
tp236
a(S'100000777300242'
S'Himanshu Agarwal'
tp237
a(S'100006024490855'
S'Kanta Jabantu'
tp238
a(S'100001796062340'
S'Krishna Kant'
tp239
a(S'100004306321379'
S'GuNjan Mishra'
tp240
a(S'1347847139'
S'Deepak Singh Rajput'
tp241
a(S'100007728876626'
S'Manoj Shrivastava'
tp242
a(S'100004022665375'
S'Dharmesh Sanwaria'
tp243
a(S'100005863861477'
S'Noopur Chaturvedi'
tp244
a(S'100001785212078'
S'Mohit Kumar Pandey'
tp245
a(S'100001718427174'
S'Ramprakash Singhsengar'
tp246
a(S'100002416359225'
S'Manvendra Singh Bhadauriya'
tp247
a(S'100005513229919'
S'Aishwarya Ashok'
tp248
a(S'100004388552498'
S'Rajveer Singh'
tp249
a(S'100003308393204'
S'Sanjeev Sonker'
tp250
a(S'1102812959'
S'Narendra Singh Tomar Nst'
tp251
a(S'100001557814630'
S'Manoj Kumar Singh'
tp252
a(S'100004901709985'
S'Sunaharilal Verma Turant'
tp253
a(S'100000601387238'
S'Parupudi Satyavenkatavinodkumar'
tp254
a(S'100004216750334'
S'Simi Simran'
tp255
a(S'100005555013101'
S'Sukhpreet Satta'
tp256
a(S'100000749030845'
S'Sneha Roy'
tp257
a(S'100003793960189'
S'Kalavati Kalburgi'
tp258
a(S'100003552821377'
S'Irina Hockenjos'
tp259
a(S'100004087762231'
S'Amart Shoroom Trivediganj'
tp260
a(S'710824020'
S'Anil Singh'
tp261
a(S'100003289609510'
S'Gourav Bhadoria'
tp262
a(S'100001918458878'
S'Kamlesh Bhatt Kamal'
tp263
a(S'100004323249225'
S'Vikram Singh Chouhan'
tp264
a(S'100003601347810'
S'Shobha Agnihotri'
tp265
a(S'100000277952448'
S'Suresh Sangwan'
tp266
a(S'100003908798297'
S'Plant A Tree'
tp267
a(S'100003406521733'
S'\\u0915\\u0941\\u0932\\u0926\\u0940\\u092a \\u0915\\u0941\\u092e\\u093e\\u0930 \\u092e\\u093f\\u0936\\u094d\\u0930'
tp268
a(S'100002720804128'
S'Kamla Kumar'
tp269
a(S'100002781942446'
S'Rajendra Singh'
tp270
a(S'100004669662801'
S'Tilottama Jha'
tp271
a(S'100001890653175'
S'Yash Rajput'
tp272
a(S'100002662837828'
S'Rakesh Singh Bhadauria'
tp273
a(S'100005922730990'
S'Koyal Chaudhary'
tp274
a(S'100004058091885'
S'Sachin Niranjan Kejriwal'
tp275
a(S'100000146422790'
S'Suresh Panda'
tp276
a(S'100004947554037'
S'Bharatendra Bais'
tp277
a(S'100001319308630'
S'Anil Gupta'
tp278
a(S'100002664734779'
S'Er Anoop Pandey'
tp279
a(S'100003656583685'
S'Pramod Shukla'
tp280
a(S'100002110785073'
S'Bhola Nath Tyagi'
tp281
a(S'100005441054389'
S'Ashokkumar Shukla'
tp282
a(S'100001383750986'
S'Arun Kumar Mayank'
tp283
a(S'100004587913690'
S'Hindi Kavita'
tp284
a(S'100001864876057'
S'Sunita Dhaka'
tp285
a(S'1431515678'
S'Deepak Bhadoria'
tp286
a(S'100000292339223'
S'\\u0917\\u094b\\u092a\\u093e\\u0932 \\u0938\\u093f\\u0902\\u0939 \\u0928\\u0947\\u0917\\u0940'
tp287
a(S'100008119593737'
S'Riya Nandi'
tp288
a(S'100007413399030'
S'Ajay Gaur'
tp289
a(S'100005314992916'
S'Rajendra Kumar Jain'
tp290
a(S'100001234508645'
S'Meenu Vohra'
tp291
a(S'100007630656832'
S'Baku Jagdish'
tp292
a(S'100001579063025'
S'Mukesh Suresh Batham'
tp293
a(S'100006209884282'
S'Usha Deepak'
tp294
a(S'100006538836383'
S'Radhika Aapte'
tp295
a(S'100003340553767'
S'Ompal Sharma'
tp296
a(S'100001325299913'
S"\\u092a\\u094d\\u0930\\u0940\\u0924\\u093f '\\u0905\\u091c\\u094d\\u091e\\u093e\\u0924'"
tp297
a(S'100002668389262'
S'Santosh Rathore'
tp298
a(S'100004187645297'
S'Jitendergirdhar Insan'
tp299
a(S'100002093877614'
S'Manhar Chowhan'
tp300
a(S'100001253440057'
S'AdvManish Bhadauria'
tp301
a(S'100003264420492'
S'Vikram Singh Ranawat Mewar'
tp302
a(S'100003634418294'
S'Bhanu Sen'
tp303
a(S'100003836806685'
S'Ashok Jadaun'
tp304
a(S'100003529171499'
S'Congress Saharanpur'
tp305
a(S'100002382603040'
S'Rakesh Tandon'
tp306
a(S'100000101463228'
S'Madhu Sudan Muskara'
tp307
a(S'100007041973339'
S'Bhadwar Jan Kalyan Samite'
tp308
a(S'1061730179'
S'Rajesh Asthana Anant'
tp309
a(S'100001213036000'
S'Srilata N. Bharadwaj'
tp310
a(S'100008124878673'
S'Dr-Santosh Pandey'
tp311
a(S'100007213261435'
S'Vijaya Mishra'
tp312
a(S'100002498172071'
S'\\u0906\\u0915\\u093e\\u0901\\u0915\\u094d\\u0937\\u093e \\u0938\\u0947\\u0920'
tp313
a(S'100004403551143'
S'Virendra Gurjar Pachora'
tp314
a(S'100000890331113'
S'Siya Sai'
tp315
a(S'100002634000969'
S'Bine Grigel'
tp316
a(S'100002588196011'
S'Kamlesh Dwivedi'
tp317
a(S'100007596214883'
S'Nerissa Aleeza Afreen'
tp318
a(S'100000567991778'
S'Urmila Madhav'
tp319
a(S'100000843665855'
S'Kuldeep Singh Rathore'
tp320
a(S'100001947832597'
S'Virendra Singh Rawat'
tp321
a(S'100002498116776'
S'Alpana Jain'
tp322
a(S'100001819182497'
S'Kamal Char'
tp323
a(S'100003345109834'
S'Shubham Chauhan'
tp324
a(S'100003807436793'
S'Nishi Kant'
tp325
a(S'100004655953371'
S'Bhoxzchancell Buitizon'
tp326
a(S'100001321678563'
S'Ravikant Pathak'
tp327
a(S'100003348005612'
S'Anoop Raj Pandey'
tp328
a(S'100002658213454'
S'Preeti Gupta'
tp329
a(S'100003390185635'
S'Lalit Mohan'
tp330
a(S'100005537801652'
S'Cz Sura'
tp331
a(S'100006661954669'
S'Papri Sarkar'
tp332
a(S'100008031270715'
S'Kavita Dutta'
tp333
a(S'100002241034050'
S'Priyanka Pandey'
tp334
a(S'100006357493541'
S'A Tu Dard'
tp335
a(S'100006493374395'
S'Peoples Motivation'
tp336
a(S'100001418168871'
S'Tarun K. Soni Tanveer'
tp337
a(S'100000642550794'
S'Yogita Thamman Singh'
tp338
a(S'100003718109203'
S'Devendrasinh Kshtriya'
tp339
a(S'100005889791387'
S'Surekha Choudhary'
tp340
a(S'100000273708619'
S'Raman Kathuria'
tp341
a(S'100000102382474'
S'Devesh Singh'
tp342
a(S'1128789933'
S'Bhudeo Kushwaha'
tp343
a(S'100001959335451'
S'\\u0938\\u0941\\u0936\\u0940\\u0932\\u093e \\u0936\\u094d\\u092f\\u094b\\u0930\\u093e\\u0923'
tp344
a(S'682843148'
S'Varron Attrri'
tp345
a(S'100001466516855'
S'Sushil Kumar Singh'
tp346
a(S'1059065106'
S'Alok Ranjan'
tp347
a(S'100001693648723'
S'Sp Dogra'
tp348
a(S'100004963807484'
S'Aarman Malik'
tp349
a(S'100003327645068'
S'Krishna Kant Madhur'
tp350
a(S'1413498257'
S'\\u0930\\u093e\\u091c\\u0940\\u0935\\u0936\\u0902\\u0915\\u0930 \\u092e\\u093f\\u0936\\u094d\\u0930\\u093e \\u092c\\u0928\\u093e\\u0930\\u0938 \\u0935\\u093e\\u0932\\u0947'
tp351
a(S'100004335911622'
S'Renu Khushi Pari'
tp352
a(S'100001086598270'
S'Priya Singh'
tp353
a(S'100005108405273'
S'Rajesh Tiwari'
tp354
a(S'100000579644683'
S'Naveen Yadav'
tp355
a(S'100007527673197'
S'Happy Shappy'
tp356
a(S'100006764733741'
S'Nisha Rani Mahato'
tp357
a(S'1625959426'
S'\\u0938\\u0902\\u0927\\u094d\\u092f\\u093e \\u0938\\u093f\\u0902\\u0939'
tp358
a(S'100002803734565'
S'Kanubhai Baraiya'
tp359
a(S'100002980184749'
S'Sachin G\\u00e2\\u00f5\\u00f1k\\u00e1r'
tp360
a(S'100002846611063'
S'Raushan Singh'
tp361
a(S'100004432629082'
S'Parvinder Bhatia'
tp362
a(S'100001158471400'
S'Anil Garg'
tp363
a(S'100005237197736'
S'Mahendar Jain Kekri'
tp364
a(S'100002281461511'
S'Surjeet Kumar'
tp365
a(S'100003135089093'
S'Ravindra Bhadauriya'
tp366
a(S'1234302145'
S'Amit Sikarwar'
tp367
a(S'100002890011604'
S'Ramesh Rajbhar'
tp368
a(S'100002877866669'
S'Suraj Tripathi'
tp369
a(S'100001155035730'
S'Raviraj Patel'
tp370
a(S'100000714563908'
S'\\u0930\\u093e\\u0915\\u0947\\u0936 \\u0915\\u0941\\u092e\\u093e\\u0930 \\u0938\\u093f\\u0902\\u0939'
tp371
a(S'100001404303157'
S'Abhi Pandya'
tp372
a(S'100000151968079'
S'Bhartendu Mishra'
tp373
a(S'100002390412417'
S'Rajat Wadehra'
tp374
a(S'100001511043884'
S'Surya Prakash Semwal'
tp375
a(S'100003278462739'
S'Matadin Singh'
tp376
a(S'100006327304557'
S'J.c. Kamdar'
tp377
a(S'100002976533214'
S'Gajendra Singh Champawat'
tp378
a(S'100005069380774'
S'Amjad Ali'
tp379
a(S'100002768718992'
S'Masoom Ghaziabadi'
tp380
a(S'100002492908437'
S'Anupama Bajpai'
tp381
a(S'100006754483325'
S'Poonam Singh'
tp382
a(S'100000992698469'
S'Raghvendra Kr Dubey Ravi'
tp383
a(S'100001018276684'
S'Ramash Singh'
tp384
a(S'100002108173501'
S'Ajay Chahar'
tp385
a(S'1435412710'
S'Chetan Kranti'
tp386
a(S'100003124824825'
S'Jitendra Kumar Dubey'
tp387
a(S'100002460964457'
S'Manoj Merrut'
tp388
a(S'100004997560947'
S'Lakshmi Pandey'
tp389
a(S'100007211253564'
S'Sandeep Chauhan'
tp390
a(S'100004503491840'
S'Neerja Madhav'
tp391
a(S'1086772021'
S'Vivek Ranjan Shrivastava'
tp392
a(S'100006229512416'
S'Kavi Kamalesh Kumar Sharma'
tp393
a(S'100002398758393'
S'Prakanshu Kanaujiya'
tp394
a(S'100001241673347'
S'Jitendra Dixit'
tp395
a(S'100004915231769'
S'\\u0927\\u0940\\u0930\\u091c \\u0936\\u094d\\u0930\\u0940\\u0935\\u093e\\u0938\\u094d\\u0924\\u0935'
tp396
a(S'100002109620138'
S'Govind Singh Parmar'
tp397
a(S'100004433255086'
S'Archana Gupta'
tp398
a(S'100008078139562'
S'Neeru Mittal'
tp399
a(S'100002396635845'
S'Chavda Narendra'
tp400
a(S'100007432063547'
S'Sri Pramoad'
tp401
a(S'100005915679600'
S'Hiro Wadhwani'
tp402
a(S'100005684372955'
S'Saroj Naidu'
tp403
a(S'100000741909098'
S'Laxmi Parmar'
tp404
a(S'100001281365057'
S'Narendra Kumar Singh'
tp405
a(S'100006345881241'
S'Prgtisheel Lekhaksangh'
tp406
a(S'100002554001054'
S'Jai Karni Mata'
tp407
a(S'100003098200711'
S'Amit Bhadauria'
tp408
a(S'100003177038281'
S'Aneesa Kadri'
tp409
a(S'100000705948750'
S'Swami Ram Narayan Bharti'
tp410
a(S'100006414247322'
S'Web Spirent'
tp411
a(S'100002882895180'
S'Sagar Chavan'
tp412
a(S'100003142759944'
S'Ummed Singh Champawat'
tp413
a(S'100001248751018'
S'Paresh Pathak'
tp414
a(S'100003788674261'
S'Suman Parwati'
tp415
a(S'100003314781821'
S'Prabhakar Mishra'
tp416
a(S'100004673701293'
S'Sanjay Shrivastava'
tp417
a(S'100002537990935'
S'Priya Ranjan'
tp418
a(S'100001462673094'
S'Harish Sharma'
tp419
a(S'100000928832816'
S'Pushkar Misra'
tp420
a(S'100005380806017'
S'Virendra Sengar'
tp421
a(S'100003467411557'
S'Alok Singh'
tp422
a(S'100004696080131'
S'Pratighya Nath'
tp423
a(S'100004412677064'
S'Kantilal Jain'
tp424
a(S'100006349634618'
S'Ramya Roy'
tp425
a(S'100004168806744'
S'Jagdish Prasad Kushwaha'
tp426
a(S'100008230540068'
S'Neha Khanna'
tp427
a(S'100006998882374'
S'\\u0930\\u0935\\u093f\\u0915\\u093e\\u0928\\u094d\\u0924 \\u0936\\u0930\\u094d\\u092e\\u093e \\u0935\\u0948\\u0938\\u093e\\u0928\\u094d\\u0926\\u094d\\u0930'
tp428
a(S'100002041964799'
S'Kiran Bhakare'
tp429
a(S'100000855402701'
S'Neeloo Patni NeelPari'
tp430
a(S'100000477148697'
S'Reetu Bhadauria'
tp431
a(S'100000530083962'
S'Shivnath Singh'
tp432
a(S'100002676274891'
S'Abhishek Shukla'
tp433
a(S'100005169303293'
S'Rekha Joshi'
tp434
a(S'1538800559'
S'Jang Bahadur Singh'
tp435
a(S'100001483482535'
S'Lalit Joshi'
tp436
a(S'1541727014'
S'Aarti Sharma'
tp437
a(S'100002980922073'
S'Saroj Kumar Tewari'
tp438
a(S'100004123830153'
S'Uma Kant Sharma'
tp439
a(S'100006139324766'
S'Amit Kejriwal'
tp440
a(S'100005763093556'
S'\\u0936\\u0941\\u092d\\u092e \\u0924\\u094d\\u0930\\u093f\\u092a\\u093e\\u0920\\u0940 \\u0939\\u093f\\u0928\\u094d\\u0926\\u0942\\u0935\\u093e\\u0926\\u0940 \\u0936\\u0947\\u0930'
tp441
a(S'100000673930269'
S'Parveen Kumar'
tp442
a(S'1508853381'
S'Sanjay Kashilal Bhardwaj'
tp443
a(S'100003010599603'
S'Narayansingh Kachhawa'
tp444
a(S'100003707870116'
S'Gopal Jadawta'
tp445
a(S'100001306895237'
S'Reeta Pathak'
tp446
a(S'100003201811790'
S'Naina Sharma'
tp447
a(S'100005321472041'
S'Akhil Bhartiya Sahityalok'
tp448
a(S'100003227082020'
S'Rajesh Kumar Jain'
tp449
a(S'100001759346619'
S'Bk Shukla'
tp450
a(S'100001472328042'
S'Seema Gupta'
tp451
a(S'100001787180455'
S'Sanjoy Kumar Roy'
tp452
a(S'100004940323495'
S'Vikas Asati'
tp453
a(S'100000769743766'
S'Radhey Shyam Bandhu'
tp454
a(S'100004040416029'
S'Sandeep Singh Rathore'
tp455
a(S'100001201703315'
S'Ramesh Tripathi'
tp456
a(S'100003991204674'
S'Kamal Bisht'
tp457
a(S'100002999992198'
S'Surendra Yadav'
tp458
a(S'100003041452697'
S'\\u0905\\u0935\\u0936\\u0947\\u0937 \\u0915\\u0941\\u092e\\u093e\\u0930 \\u0935\\u093f\\u092e\\u0932'
tp459
a(S'100000968844290'
S'Sameer Satpalkar'
tp460
a(S'100005400817663'
S'Hemant Kumar'
tp461
a(S'100008262547993'
S'Val Soares'
tp462
a(S'1762530336'
S'Vandana Hira'
tp463
a(S'100000564128480'
S'Arbind Kumar Mishra'
tp464
a(S'100000101372382'
S'\\u0906\\u091a\\u093e\\u0930\\u094d\\u092f \\u0926\\u0947\\u0935\\u0947\\u0936 \\u0905\\u0935\\u0938\\u094d\\u0925\\u0940'
tp465
a(S'100004966322324'
S'Eva Shiva Infinita'
tp466
a(S'100002362788579'
S'Neera Areen Jain'
tp467
a(S'100003478661225'
S'Muthu Kumar Raja'
tp468
a(S'100007469893190'
S'Juhi Ekm'
tp469
a(S'100002303381097'
S'Priya Bansode'
tp470
a(S'100002394113617'
S'Arjun Sonkar'
tp471
a(S'100006473636915'
S'Rishi Saini'
tp472
a(S'100004787912564'
S'Priya Randive'
tp473
a(S'100007848758007'
S'Rahul Sen'
tp474
a(S'100000874931799'
S'\\u0938\\u0930\\u094b\\u091c \\u0938\\u093f\\u0902\\u0939'
tp475
a(S'100000244520435'
S'Navneet Pandey'
tp476
a(S'100003563274259'
S'Laxman Bnnasa Pardi'
tp477
a(S'100007262979587'
S'Raja Mahendra Aridaman Singh'
tp478
a(S'100003026975693'
S'Sandeep Meena'
tp479
a(S'100006325300653'
S'Shraddha Shah'
tp480
a(S'100003213080004'
S'Anant Batra'
tp481
a(S'100003321412606'
S'Pritendra Jangade'
tp482
a(S'100005791173092'
S'PK Mishra'
tp483
a(S'100001459144550'
S'Rakesh Mani Tripathi'
tp484
a(S'100003829973310'
S'Pintu Sharma'
tp485
a(S'100000466373330'
S'Deepti Sharma'
tp486
a(S'100002583870448'
S'Rowdy Vijay Singh Rathore'
tp487
a(S'100003113826312'
S'Akhilanand Pathak'
tp488
a(S'100002621644587'
S'Anil Maheshwari'
tp489
a(S'100003295211611'
S'Pradip Tiwari'
tp490
a(S'100004196103320'
S'Neha Gupta'
tp491
a(S'100005083115627'
S'Achala Nagar'
tp492
a(S'575744548'
S'Prabhakar Dwivedi'
tp493
a(S'100000239078604'
S'Tagrid Khan'
tp494
a(S'100000608625460'
S'Hem Prakash Agarwal'
tp495
a(S'100000193218737'
S'Vinay Singh'
tp496
a(S'100004333417576'
S'Chaya Shalini'
tp497
a(S'100004218003570'
S'Tejkesari Daily'
tp498
a(S'1615246179'
S'Sanjay Shepherd'
tp499
a(S'100005158963424'
S'Subhajit Bag'
tp500
a(S'100004269246776'
S'Susana Santos'
tp501
a(S'100003663289817'
S'\\u0913\\u092e \\u0928\\u0930\\u093e\\u092f\\u0928 \\u0926\\u0940\\u0915\\u094d\\u0937\\u093f\\u0924'
tp502
a(S'100007474511991'
S'Maya Singh'
tp503
a(S'100000913419481'
S'Anuj Singh'
tp504
a(S'100000830827058'
S'Pravesh Srivastava'
tp505
a(S'100001238261941'
S'Ramesh Singh Chauhan Kanpur'
tp506
a(S'100001523679575'
S'Mahesh Jaiswal'
tp507
a(S'100003840378736'
S'Vivek Pathak'
tp508
a(S'100004588267022'
S'Sudha Tiwari'
tp509
a(S'100001549850210'
S'Santosh Singh'
tp510
a(S'100007065663869'
S'Moumita Sen'
tp511
a(S'1378670696'
S'Satyam Singh Kanaujia'
tp512
a(S'1058447041'
S'Rajendra Kumar'
tp513
a(S'1388100284'
S'Sudhir Bunty Bonta Rawat'
tp514
a(S'100004643321785'
S'Samundra Shekhawat Thikana Jharli'
tp515
a(S'100005842201111'
S'Nidhi Pande'
tp516
a(S'100002171631158'
S'Ila Bajpai'
tp517
a(S'100003284844000'
S'Vishal Kumar'
tp518
a(S'100004967970909'
S'Anshu Singh'
tp519
a(S'100003848444627'
S'Taniya Khandelwal'
tp520
a(S'100003738654364'
S'Pawan Pandey'
tp521
a(S'100003629994956'
S'Sunita Singh Sisodia'
tp522
a(S'100002894720530'
S'Ksshukla Shukla'
tp523
a(S'100004419335104'
S'Gopal Anand'
tp524
a(S'100000783109384'
S'Navsancharsamachar Samachar'
tp525
a(S'100000027841316'
S'Bhairu Narayan Mathur'
tp526
a(S'100000730313227'
S'Rohit Kumar Meet'
tp527
a(S'100005522221639'
S'SD Mishra'
tp528
a(S'706625414'
S'Neela Guiness'
tp529
a(S'100005121757722'
S'Ravinder Kumar'
tp530
a(S'100002810916634'
S'Omee Bhargava'
tp531
a(S'100002487795641'
S'Priyanka Bhadauria'
tp532
a(S'100000048607627'
S'\\u0915\\u092e\\u0932\\u0947\\u0936 \\u092c\\u0902\\u0938\\u0932'
tp533
a(S'100003800759053'
S'Saroj Rajput'
tp534
a(S'100001652411537'
S'Anoop Pandey'
tp535
a(S'100004306505325'
S'Mahendra Kumawat Pardoli Bari'
tp536
a(S'100005403973128'
S'Anjani Tiwari'
tp537
a(S'100002308492262'
S'Madhuri G Nair'
tp538
a(S'100002063756654'
S'Shitanshu Kumar Tripathi'
tp539
a(S'100002569324362'
S'Devenderpal Singh'
tp540
a(S'100001008364216'
S'Shrikrishna Kachave'
tp541
a(S'100008022607014'
S'Nilam Singh'
tp542
a(S'100001530524112'
S'\\u0924\\u093e\\u0930\\u093e \\u091a\\u0928\\u094d\\u0926'
tp543
a(S'100001135067914'
S'Divya Shukla'
tp544
a(S'100002368653598'
S'Madan Mohan Ahuja'
tp545
a(S'100002005869085'
S'Dharmveer Rathore'
tp546
a(S'100001207217227'
S'Ugam Singh Rajpurohit'
tp547
a(S'100001852618885'
S'Lalchand Sharma'
tp548
a(S'100002647880642'
S'Rashmi Chaturvedi'
tp549
a(S'100004875642498'
S'Mirina Narrz'
tp550
a(S'1412300284'
S'Rajesh Kumar'
tp551
a(S'100003992035657'
S'Veena Singh'
tp552
a(S'100006042280586'
S'DrSony Pandey'
tp553
a(S'100003684972557'
S'Goel RajendraPrasad'
tp554
a(S'100002254724911'
S'Pratik Sankpal'
tp555
a(S'100006514663606'
S'Madhu Singh'
tp556
a(S'100002158861005'
S'Ashok Tripathi'
tp557
a(S'100002909069280'
S'Rupesh Saxena'
tp558
a(S'100002280093964'
S'Kavi Dm Mishra'
tp559
a(S'100003364793471'
S'Adv Devendra Bhadouria'
tp560
a(S'550829877'
S'Laxman Singh Dev'
tp561
a(S'100000874316553'
S'Rajendra Kr Varma'
tp562
a(S'100000075632681'
S'Shefali Pande'
tp563
a(S'100002028643703'
S'Puran Chand Khurana'
tp564
a(S'100001329185159'
S'Shyam Narayan Pathak'
tp565
a(S'100005141910508'
S'Heena Parekh'
tp566
a(S'100001620970178'
S'Amit Sahni'
tp567
a(S'100004963381711'
S'Nayan Bhuva'
tp568
a(S'100002781871378'
S'Kavi Dhurvendra Bhadauriya'
tp569
a(S'100001984597204'
S'Kunwar Chandrapal Shekhawat Prince'
tp570
a(S'100000776736830'
S'\\u092e\\u0939\\u0947\\u0902\\u0926\\u094d\\u0930 \\u0935\\u0930\\u094d\\u092e\\u093e'
tp571
a(S'560032192'
S'Alka Pathak'
tp572
a(S'100004865023252'
S'\\u0915\\u0941\\u092e\\u093e\\u0930 \\u0938\\u0902\\u091c\\u092f'
tp573
a(S'1049587803'
S'Ishani Devi Dase Miranda'
tp574
a(S'1796531242'
S'Guddo Dadi'
tp575
a(S'100003724065895'
S'Arvind Kumar'
tp576
a(S'100000181608981'
S'Astro Guide'
tp577
a(S'1477055905'
S'\\u0926\\u093f\\u0928\\u0947\\u0936\\u0930\\u093e\\u092f \\u0926\\u094d\\u0935\\u093f\\u0935\\u0947\\u0926\\u0940'
tp578
a(S'100002296610687'
S'Nakul Bizla'
tp579
a(S'1693016122'
S'Satya Patel'
tp580
a(S'100002726688703'
S'Pankaj Nyorana'
tp581
a(S'100004359611873'
S'Surjeet Kumar'
tp582
a(S'100000540781756'
S'Sanjay Munjal'
tp583
a(S'720006123'
S'Chandra Mauli Pandey'
tp584
a(S'100003201888237'
S'Sahitya Mantra India'
tp585
a(S'100003584092046'
S'Harsh Vyas'
tp586
a(S'100007853324549'
S'Sonia Singh'
tp587
a(S'100007179578325'
S'Pandu Bangaram'
tp588
a(S'100003446548042'
S'Rajshekhar Sharma'
tp589
a(S'100004636740121'
S'All Shivpuri'
tp590
a(S'100002479821944'
S'Dinesh Choudhary'
tp591
a(S'100006926202574'
S'Suresh Sharma'
tp592
a(S'100001610492264'
S'Arvind Chouhan'
tp593
a(S'100000853385012'
S'\\u0917\\u093f\\u0930\\u093f\\u091c\\u093e\\u0936\\u0902\\u0915\\u0930 \\u0936\\u0930\\u094d\\u092e\\u093e \\u092b\\u0948\\u0928\\u094d\\u0938 \\u0915\\u094d\\u0932\\u092c'
tp594
a(S'100003906283993'
S'Riya Gupta'
tp595
a(S'100008034150941'
S'Archana Sharma'
tp596
a(S'1666396434'
S'Diben Singh'
tp597
a(S'1242216630'
S'Yogish Krishna'
tp598
a(S'100006574110334'
S'Nepal Rajput'
tp599
a(S'100007726893450'
S'Hina Rashid'
tp600
a(S'100006575413637'
S'Priya Gupta'
tp601
a(S'100002724960605'
S'Arpita Joshi'
tp602
a(S'100001909464627'
S'Hameeda Shair Banu'
tp603
a(S'100008087708617'
S'Manisha Chauhan'
tp604
a(S'100001669361734'
S'Ataur Rahim Khan'
tp605
a(S'100003077430685'
S'\\u0938\\u093f\\u0926\\u094d\\u0927\\u093e\\u0930\\u094d\\u0925 \\u0938\\u093f\\u0902\\u0939'
tp606
a(S'100002355759676'
S'Prabhakar Verma'
tp607
a(S'100002465117274'
S'Suchitra Singh'
tp608
a(S'100006909639047'
S'Ashok Daheriya Ajad'
tp609
a(S'100006367864027'
S'Canela Love'
tp610
a(S'100001109276458'
S'Ravi Shankar'
tp611
a(S'100002430311261'
S'Vinay Kant Mishra'
tp612
a(S'100000385662473'
S'Mutiur Rahman Aziz'
tp613
a(S'100004152824607'
S'Ghusailal Leva'
tp614
a(S'100003962280494'
S'Ajay Kapoor'
tp615
a(S'100003021301718'
S'\\u092a\\u094d\\u0930\\u093e\\u0923\\u0935\\u0932\\u094d\\u0932\\u092d \\u0936\\u093e\\u0938\\u094d\\u0924\\u094d\\u0930\\u0940\\u091c\\u0940'
tp616
a(S'100003498757616'
S'Ramashankar Gupta'
tp617
a(S'100004043601773'
S'Dharam Pal Vishwakarma'
tp618
a(S'100002545547734'
S'Ashwani Sahu'
tp619
a(S'100003558597020'
S'Shivannd Ashutosh Rajak'
tp620
a(S'1363038081'
S'Madan Mohan Tiwari'
tp621
a(S'100000422269738'
S'Banbir Singh'
tp622
a(S'100001593648011'
S'Debojeet Laheri'
tp623
a(S'100001909516249'
S'Rosa Helena Rojas Barraza'
tp624
a(S'100004088514898'
S'Apni Khabar Sacchi Khabar'
tp625
a(S'100006547470961'
S'Rashi Ratan'
tp626
a(S'100002868275030'
S'Devesh Singh Bhadoriya'
tp627
a(S'100000311254997'
S'Kuldip Singh'
tp628
a(S'100005123800082'
S'Virender Sharma'
tp629
a(S'100004183844253'
S'Siniwali Sharma'
tp630
a(S'100004856442032'
S'\\u0936\\u092c\\u094d\\u0926\\u093e\\u0902\\u0915\\u0928 \\u0938\\u0902\\u092a\\u093e\\u0926\\u0915'
tp631
a(S'100004214433135'
S'Sapna Singh'
tp632
a(S'100006851611328'
S'Hukm Singh Bhati Bhanipura'
tp633
a(S'100000494263200'
S'Rasanidhi Trivedi'
tp634
a(S'100001444982129'
S'Manoj Kumar Bhattoa'
tp635
a(S'100003323932795'
S'Dharmveer Singh'
tp636
a(S'100004454200487'
S'Anil Rastogi'
tp637
a(S'100003395808953'
S'\\u0906\\u0926\\u0930\\u094d\\u0936 \\u0924\\u093f\\u0935\\u093e\\u0930\\u0940'
tp638
a(S'100000924637371'
S'Hareprakash Upadhyay'
tp639
a(S'100000606955467'
S'Prakash Narain Awasthi'
tp640
a(S'100004204963763'
S'Shauq Ansari'
tp641
a(S'100002078739761'
S'Sameer Rajpoot'
tp642
a(S'100002431508710'
S'Amit Swarnkar'
tp643
a(S'100000363726526'
S'Arjun Mehar'
tp644
a(S'100001545616113'
S'Surjeet Kumar'
tp645
a(S'100003562237130'
S'Varsha Singh'
tp646
a(S'100000192238337'
S'Anil Kumar'
tp647
a(S'1176273270'
S'Rajni Gupt'
tp648
a(S'100002470360520'
S'Sonu Jatav Indoriya'
tp649
a(S'100003652088008'
S'Sudhir Kewaliya'
tp650
a(S'100005082272098'
S'Kanti Shukla'
tp651
a(S'1702074937'
S'Rakshpal Singh Jasrotia'
tp652
a(S'100001238501524'
S'Deo Rajendra'
tp653
a(S'100001836334560'
S'Maghsingh Rathore'
tp654
a(S'100005054371272'
S'Anjalidevi Devi'
tp655
a(S'100000588914216'
S'Sri Ram'
tp656
a(S'832898008'
S'Anurag Nigam'
tp657
a(S'100005285972117'
S'Sita Shukla'
tp658
a(S'100002205458747'
S'Nawab Hussain Gauri'
tp659
a(S'100003288991889'
S'Paresh Joshi'
tp660
a(S'1268337832'
S'Poetry N Art'
tp661
a(S'100004007295345'
S'AN Ias Aspirant Bittu'
tp662
a(S'100004501602972'
S'Amit Raj Pandey'
tp663
a(S'100003303680736'
S'Manoj Sharma'
tp664
a(S'100003604825032'
S'Tumsa Day'
tp665
a(S'100001212414288'
S'Sufi Raina'
tp666
a(S'100004632335902'
S'Neelam Sharma'
tp667
a(S'1461655108'
S'Saurabh Shrivastava'
tp668
a(S'100002853683068'
S'Babykiran Kiran'
tp669
a(S'100000663331534'
S'\\u0905\\u0930\\u0941\\u0923\\u093e \\u0938\\u0915\\u094d\\u0938\\u0947\\u0928\\u093e'
tp670
a(S'100002582430528'
S'Anil Kumar'
tp671
a(S'100006993969446'
S'Sanjeev Nanda'
tp672
a(S'100003730755771'
S'Ramanuj Kumar'
tp673
a(S'100004099491057'
S'Arun Agrahari'
tp674
a(S'100000828872634'
S'Sunil Chandak'
tp675
a(S'100007849382392'
S'Sri Prakash Tewari'
tp676
a(S'100000571663287'
S'Madan Mohan Kashyap'
tp677
a(S'100000590197207'
S'Vipul Luckhnavi Bullet'
tp678
a(S'100004673711220'
S'Manoj Singh'
tp679
a(S'100002532115068'
S'Dk Pandey'
tp680
a(S'100002482827808'
S'Santosh Bajpai'
tp681
a(S'100004120231942'
S'Rashmi Barthwal'
tp682
a(S'100002838752680'
S'Mahipal Singh Rathore Lakhau'
tp683
a(S'100004226821018'
S'Achutha Menon'
tp684
a(S'100000864960915'
S'Rajurkar Raj'
tp685
a(S'100000320680300'
S'DrYogendra G Bhati'
tp686
a(S'100006927427340'
S'Meera Sharma'
tp687
a(S'100003829976232'
S'Kamalkant Sahoo'
tp688
a(S'100000317018992'
S'Meenakshi Choudhary'
tp689
a(S'100007320960822'
S'Cathy Young'
tp690
a(S'100002875703817'
S'Dharmendra Kumar Yoga'
tp691
a(S'100003039877077'
S'Batra Anil'
tp692
a(S'100003033832372'
S'\\u0932\\u093e\\u0932 \\u0926\\u0947\\u0935\\u0947\\u0928\\u094d\\u0926\\u094d\\u0930 \\u0938\\u093f\\u0902\\u0939 \\u091a\\u094c\\u0939\\u093e\\u0928'
tp693
a(S'100007190079739'
S'\\u0938\\u0940\\u092e\\u093e \\u0924\\u093f\\u0935\\u093e\\u0930\\u0940'
tp694
a(S'100003089554514'
S'Mayur Tandon'
tp695
a(S'100008036586157'
S'Pushpa Shukla'
tp696
a(S'100000847654928'
S'Anand Sp'
tp697
a(S'100002726676544'
S'Shripati Pandey'
tp698
a(S'100001543254865'
S'Manoj Kumar Srivastava'
tp699
a(S'100004660902732'
S'Prem Kumar'
tp700
a(S'100004637943558'
S'Awanish Sharma'
tp701
a(S'1148391931'
S'Salian Shashidhar'
tp702
a(S'100003147824824'
S'Bulbul Bose'
tp703
a(S'100003262234671'
S'\\u092c\\u093e\\u092c\\u093e \\u0915\\u093e\\u0928\\u092a\\u0941\\u0930\\u0940'
tp704
a(S'100003125877483'
S'Bala Prasad Patel'
tp705
a(S'100000404864077'
S'Sanjida Iqbal Nila'
tp706
a(S'100008312618688'
S'\\u0905\\u092f\\u0928 \\u092a\\u094d\\u0930\\u0915\\u093e\\u0936\\u0928'
tp707
a(S'100001682791549'
S'Satyendr Sengar'
tp708
a(S'100001429590983'
S'\\u0932\\u0916\\u0928 \\u092e\\u093f\\u0936\\u094d\\u0930'
tp709
a(S'100007834419007'
S'Pragati Sharma'
tp710
a(S'100003512322073'
S'Jangid Mahesh'
tp711
a(S'100002807478773'
S'Manav Subhash'
tp712
a(S'100002351000294'
S'Ajay Agyat'
tp713
a(S'100002164741609'
S'Kavi Ajatshatru'
tp714
a(S'100006114733601'
S'Kavyitri Sneh Bharti'
tp715
a(S'100003005757831'
S'Mohan Srivastava Poet'
tp716
a(S'1493364520'
S'Pragya Pande'
tp717
a(S'100000967816402'
S'Surendra Kumar Shukla Bhramar'
tp718
a(S'100005178244649'
S'Niharika Neelkamal Arora'
tp719
a(S'1158574876'
S'Jayprakash Manas'
tp720
a(S'698192931'
S'Himanshu Gandhi'
tp721
a(S'100001535960057'
S'Abhik Mitra'
tp722
a(S'100004009915225'
S'Shiva Goswami'
tp723
a(S'100004487864428'
S'Dinesh Singh Rao'
tp724
a(S'100002142594466'
S'Laxman Dass Bhawanani'
tp725
a(S'100001177687936'
S'Sampa Barua'
tp726
a(S'100005211462466'
S'Nand Kishore Sharma'
tp727
a(S'100003660771889'
S'\\u0aad\\u0acb\\u0aaa\\u0abe \\u0aac\\u0abe\\u0aaa\\u0abe'
tp728
a(S'100007942122025'
S'Vikram Singh Sointra'
tp729
a(S'100001450498414'
S'Sanjay Sharma Ujjain'
tp730
a(S'100007550315553'
S'Hukm Rajput Bhanipura'
tp731
a(S'100000136550401'
S'Om Parkash Trehan'
tp732
a(S'100000872592264'
S'Jayesh Kavadya'
tp733
a(S'100004886710550'
S'Yunus Khan'
tp734
a(S'100000601819237'
S'Pramila Sharma'
tp735
a(S'100004059965263'
S'Lalan Kumar'
tp736
a(S'100003634652441'
S'Ashok Tiwari'
tp737
a(S'100004608100395'
S'Rakesh Singh'
tp738
a(S'100005702044256'
S'Sudershan Chatrath'
tp739
a(S'100000599979375'
S'Ramkunwar Sharma Sharma'
tp740
a(S'100001722920167'
S'Raj Khurana'
tp741
a(S'100004844075644'
S'Jyoti S Prasad'
tp742
a(S'100000780177735'
S'Laxminarayan Joshi'
tp743
a(S'100004898260439'
S'Lalitha Mary'
tp744
a(S'100003704211675'
S'Radhika Singh'
tp745
a(S'100005625845067'
S'Hameeda Shaaira Bibbo Thakur'
tp746
a(S'100003669093314'
S'Shambhu Kumar'
tp747
a(S'100006397900633'
S'Rohit Nehra'
tp748
a(S'100000289970076'
S'Deepak Gahlot'
tp749
a(S'100006992680348'
S'Sufi Suryavanshi'
tp750
a(S'100003724177057'
S'Manisha Singh'
tp751
a(S'100000682107902'
S'Sunil Bhadauria'
tp752
a(S'100004663119642'
S'Satya Prakash Rathour'
tp753
a(S'676582730'
S'Snehansu Bhaduri'
tp754
a(S'100004886141526'
S'Kishor Soni Kaushal'
tp755
a(S'100004127171201'
S'Maykash Manoj'
tp756
a(S'100006683317885'
S'Jurekh Sarkar'
tp757
a(S'100004135085449'
S'Chitranjan Singh'
tp758
a(S'100003981919589'
S'Yaqoob Khatri'
tp759
a(S'100004298530883'
S'Pranav Kumar'
tp760
a(S'100002402500685'
S'Paul Singh'
tp761
a(S'100003622503760'
S'Durgesh Singh'
tp762
a(S'100004185844408'
S'CK Anand'
tp763
a(S'100001590084828'
S'Chaturvedi Sharad'
tp764
a(S'100002443955767'
S'Bhadra Dhokai'
tp765
a(S'100001530317619'
S'Amit Soni'
tp766
a(S'100002737190263'
S'Ravi Singh'
tp767
a(S'100004454945182'
S'Anju Gupta'
tp768
a(S'100005482595683'
S'\\u0939\\u093f\\u0928\\u094d\\u0926\\u0940 \\u0936\\u093e\\u092f\\u0930\\u0940'
tp769
a(S'100002596802547'
S'Anurag Prasad Srivastava'
tp770
a(S'100001691160290'
S'Praveen Srivastava'
tp771
a(S'100005039801983'
S'Satyakashi Chunar'
tp772
a(S'100004639358517'
S'Ramesh Ranjan Mishra'
tp773
a(S'100003208976748'
S'Meena Tandon'
tp774
a(S'100003464019861'
S'Devendra Pratap Singh Shekhawat'
tp775
a(S'100002771582339'
S'Bharat Singh'
tp776
a(S'100001353866925'
S'Geeta Pandey'
tp777
a(S'100004283293022'
S'Ratan Singh Moyana'
tp778
a(S'100004604922249'
S'Ramesh Singh Bisht'
tp779
a(S'100000786733535'
S'\\u0939\\u0941\\u0921\\u0926\\u0902\\u0917 \\u0939\\u093e\\u0938\\u094d\\u092f \\u0915\\u0935\\u093f \\u0938\\u092e\\u094d\\u092e\\u0932\\u0947\\u0928'
tp780
a(S'100001025789029'
S'Sangita Srivastav'
tp781
a(S'100004125243990'
S'Padariya Rahul'
tp782
a(S'100001582629770'
S'Vishal Tiwari'
tp783
a(S'100002526138118'
S'Burbak Bihari'
tp784
a(S'100000404001733'
S'Cathy Towne'
tp785
a(S'100002507120628'
S'Dheeraj Sethi'
tp786
a(S'100002211755544'
S'Shamsher S Tomar'
tp787
a(S'100003403141445'
S'Amod Shastri'
tp788
a(S'1670577206'
S'Yashwant Sinha'
tp789
a(S'100004228326232'
S'Tushar Kainth'
tp790
a(S'100003494144084'
S'Satyavan Upadhyay'
tp791
a(S'100005397031225'
S'Aakashwani Bhopal'
tp792
a(S'100002051630860'
S'Kishan Chaturvedi'
tp793
a(S'100003048349968'
S'Manu Singh'
tp794
a(S'708864164'
S'Divya Ruby'
tp795
a(S'100000616138088'
S'Sadhana Gaur Naini'
tp796
a(S'100001582682311'
S'Tarun Kumar Jain'
tp797
a(S'1068214183'
S'Girish C. Khosla'
tp798
a(S'100006649842201'
S'Satya Prakash Singh'
tp799
a(S'100001907022173'
S'\\u0936\\u093f\\u0935 \\u092c\\u0926\\u0928 \\u092f\\u093e\\u0926\\u0935'
tp800
a(S'100000840865842'
S'Anand Prabhu'
tp801
a(S'100004719672729'
S'Bharat Dhanwantari'
tp802
a(S'100004914961103'
S'Khushbu Jain Monu'
tp803
a(S'1306292047'
S'\\u091a\\u0902\\u0926\\u094d\\u0930\\u092a\\u093e\\u0932 \\u0938\\u093f\\u0902\\u0939'
tp804
a(S'100002710435830'
S'Cp Joshi'
tp805
a(S'100000492512414'
S'Ikbal Chowdhuri'
tp806
a(S'100006507453417'
S'\\u092a\\u094d\\u0930\\u0924\\u093f\\u092d\\u093e \\u092c\\u091a\\u093e\\u0913'
tp807
a(S'100004519093127'
S'Girish Pande'
tp808
a(S'100002488185657'
S'Naveen Jaishwal'
tp809
a(S'100004073364193'
S'Abha Setu Singh'
tp810
a(S'100003533868802'
S'\\u0908\\u0936\\u0940 \\u0906\\u0930\\u093e\\u0927\\u094d\\u092f\\u093e'
tp811
a(S'100000446293683'
S'Ramesh Bhattarai'
tp812
a(S'100001460713556'
S'Sharad Singh'
tp813
a(S'100002360750873'
S'Manoj Kumar'
tp814
a(S'100001557263222'
S'Arpana Singh Parashar'
tp815
a(S'100000570543562'
S'HS Kukreja'
tp816
a(S'100004869336084'
S'Kaviyatri Poonam Verma'
tp817
a(S'1284492712'
S'Mukesh Kumar Sinha'
tp818
a(S'100001393512301'
S'Tapos Kumar Basu'
tp819
a(S'100000308836773'
S'Pushpendra Singh Chandel'
tp820
a(S'100003021325019'
S'Prerna Preetam'
tp821
a(S'100005916216724'
S'Dinesh Rastogi'
tp822
a(S'100006534125972'
S'\\u091c\\u094d\\u092f\\u094b\\u0924\\u094d\\u0938\\u0928\\u093e \\u092d\\u093e\\u0930\\u0924\\u0940'
tp823
a(S'100003823283273'
S'Kamlesh Kumar Yadav'
tp824
a(S'100001641772342'
S'Nishant Mishra'
tp825
a(S'100002940876666'
S'Samantha Dass'
tp826
a(S'1317690400'
S'Purnima Sharma'
tp827
a(S'100007922863611'
S'Anita Sharma'
tp828
a(S'100001168538430'
S'Veena Guptatwo'
tp829
a(S'100006979934401'
S'Ridima Sharma'
tp830
a(S'100006642840247'
S'Raj Kashyap'
tp831
a(S'100004380934919'
S'Sunil Gupta'
tp832
a(S'100004766739952'
S'Sonalika Singh'
tp833
a(S'100003239220134'
S'Harbhajan Singh Deol'
tp834
a(S'661710790'
S'\\u0938\\u094d\\u0935\\u092a\\u094d\\u0928\\u093f\\u0932 \\u091c\\u0948\\u0928'
tp835
a(S'100003851029288'
S'Mahendrapratap Singh'
tp836
a(S'100002288156241'
S'Abhishek Kumar Mishra'
tp837
a(S'100007691076638'
S'Shanti Shanti'
tp838
a(S'100004615326144'
S'Neelu Neelakshi'
tp839
a(S'100001332486397'
S'Prabhakar Mishra'
tp840
a(S'100001918576524'
S'Vijay Pandey'
tp841
a(S'100000610076360'
S'Bharat Chablani'
tp842
a(S'100002437832737'
S'Mahipal Singh Chundawat Kameri'
tp843
a(S'100001007022020'
S'Ashok Kumar Vishwakarma'
tp844
a(S'100002711562063'
S'Surenddra Sarthak'
tp845
a(S'100006541240991'
S'Anshul Modi'
tp846
a(S'1295417111'
S'Hameeda Shaair Bibbo'
tp847
a(S'100001827616274'
S'Niraj Tyagi'
tp848
a(S'100000991516354'
S'Avi Tee'
tp849
a(S'100005355403243'
S'Uttar Pradesh'
tp850
a(S'100005027171772'
S'Haren Singh Shekhawat'
tp851
a(S'100005942531369'
S'Ashutosh Mishra'
tp852
a(S'100001879678280'
S'Kamal Char'
tp853
a(S'100001700705237'
S'Supriya Jhunjhunwala'
tp854
a(S'100001460753151'
S'Jai Prakash Bhatia'
tp855
a(S'100003301806295'
S'Gopal Krishna Shukla'
tp856
a(S'100001516615344'
S'Vivekanand Tripathi'
tp857
a(S'571528474'
S'Sonitha Singh'
tp858
a(S'100003051920009'
S'DrPushplata Adhiwaqta'
tp859
a(S'100002344732986'
S'Neelam Neelu'
tp860
a(S'100003640554899'
S'Shilpi Chaudhary'
tp861
a(S'100004692972263'
S'Satyakashi Gaurav'
tp862
a(S'100003129041160'
S'Manch Sahitya'
tp863
a(S'100008376694284'
S'Sanjay Singh'
tp864
a(S'100001351909825'
S'Yasmeen Kausar'
tp865
a(S'100000553433719'
S'\\u0938\\u0941\\u0927\\u093e \\u0909\\u092a\\u093e\\u0927\\u094d\\u092f\\u093e\\u092f'
tp866
a(S'1364922925'
S'Subhash Neerav'
tp867
a(S'100002017017538'
S'Rajesh Kumar'
tp868
a(S'100006010449041'
S'Nagesh Chaubey'
tp869
a(S'100006596014553'
S'Ravi Kumar'
tp870
a(S'100000698691921'
S'Tinku Naruka'
tp871
a(S'100003989667574'
S'Kavi Vivek Beghar'
tp872
a(S'100000510957660'
S'Pintu Chakraborty'
tp873
a(S'100007049113915'
S'Jaysurya Sharma'
tp874
a(S'100005060262161'
S'Ramashankar Prashad'
tp875
a(S'100002400285619'
S'Kavi Govind Rathi'
tp876
a(S'100000172598547'
S'\\u0921\\u0949. \\u0938\\u0930\\u094b\\u091c \\u0917\\u0941\\u092a\\u094d\\u0924\\u093e'
tp877
a(S'100000829371372'
S'Rohit Rajput'
tp878
a(S'100002141556074'
S'Mohan Krishan'
tp879
a(S'100008118062350'
S'Naorem Chaobhalsingh'
tp880
a(S'1214537647'
S'Neelam Madiratta'
tp881
a(S'100001673414942'
S'Vinita Surana'
tp882
a(S'100006487463103'
S'Gyani Jabalpuri'
tp883
a(S'100002941062973'
S'Manjeet Singh Avtar'
tp884
a(S'100005941301482'
S'Ashok Nautiyal'
tp885
a(S'100003541778250'
S'R.p. Sharma'
tp886
a(S'100003720411297'
S'Sundeep Chandna'
tp887
a(S'100005501521065'
S'Umesh Tripathi Kavi'
tp888
a(S'100003938112488'
S'Priya Thakur'
tp889
a(S'100001409564651'
S'Manish Jha'
tp890
a(S'100002234878576'
S'Aditya Raj Yadav'
tp891
a(S'100005443591693'
S'Neetusingh Bais II'
tp892
a(S'100003874784330'
S'Narendra Kumar Monga'
tp893
a(S'100003278809506'
S'Vijay Yadav'
tp894
a(S'100000495537701'
S'\\u0935\\u093e\\u0902\\u0917\\u094d\\u092e\\u092f \\u092a\\u094d\\u0930\\u0915\\u093e\\u0936\\u0928'
tp895
a(S'100000718992959'
S'Swaamee Aprtemaanandaa'
tp896
a(S'100004844495320'
S'Shivendra Bhadouriya'
tp897
a(S'100002910840625'
S'Rajeev Sharma'
tp898
a(S'1102162444'
S'Pramod Tambat'
tp899
a(S'100000676917575'
S'DrAalok Dayaram'
tp900
a(S'100002386552748'
S'Atul Joshi'
tp901
a(S'100004104006182'
S'Swati Srivastava'
tp902
a(S'586467189'
S'Sia Kumar'
tp903
a(S'1348562222'
S'Riyaz Hashmi'
tp904
a(S'100003809075822'
S'Beena Banjwal'
tp905
a(S'1441776860'
S'\\u092e\\u092f\\u0902\\u0915 \\u0924\\u093f\\u0935\\u093e\\u0930\\u0940'
tp906
a(S'100002824179539'
S'Dharmendra Gour Kodi'
tp907
a(S'100003196770289'
S'Anand Singh'
tp908
a(S'100003089627426'
S'Sanam Fayaz'
tp909
a(S'100003122470659'
S'Sujit Singh'
tp910
a(S'1322452603'
S'Dilip Awasthi'
tp911
a(S'100007898431988'
S'Kiran Singh'
tp912
a(S'100005065054587'
S'Shveta Batra'
tp913
a(S'100005250662400'
S'Manju Mishra'
tp914
a(S'100001109307740'
S'Harsha Shah'
tp915
a(S'100005023532231'
S'Bipin Raj'
tp916
a(S'100006705037236'
S'Gargi Chourasia'
tp917
a(S'100006819214449'
S'Dev Karan'
tp918
a(S'100001554353408'
S'\\u0921\\u0949 \\u0928\\u0940\\u0939\\u093e\\u0930\\u093f\\u0915\\u093e \\u0930\\u0936\\u094d\\u092e\\u093f'
tp919
a(S'100007329009945'
S'\\u092c\\u093f\\u0902\\u0927\\u094d\\u092f\\u093e \\u0928\\u093e\\u0907\\u0915'
tp920
a(S'100002165275761'
S'Varsha Sharma'
tp921
a(S'100006364899313'
S'Rashmi D Mishra'
tp922
a(S'100004141380101'
S'Krishna Singh'
tp923
a(S'100002373248720'
S'Ravindra Verma'
tp924
a(S'100002375758248'
S'Shailu Dubey'
tp925
a(S'100005796244340'
S'Panchayat Halchal'
tp926
a(S'100005978023562'
S'Rajendra Negi'
tp927
a(S'100000199525721'
S'Rajendra Singh'
tp928
a(S'100000813003662'
S'Arvind Mishra'
tp929
a(S'100007190851163'
S'Ritz Sen'
tp930
a(S'100002947223973'
S'Manmohan Lugariya'
tp931
a(S'100001786652518'
S'Snehdeep Singh'
tp932
a(S'100001345392603'
S'Hameeda Banu'
tp933
a(S'100000796026916'
S'Varsha Pathak Pandey'
tp934
a(S'100001803116572'
S'Sangeeta Kumari'
tp935
a(S'1470082326'
S'Devi Regininha'
tp936
a(S'1320069489'
S'Gurinder Gill'
tp937
a(S'100004065733142'
S'BiTtu KhAn'
tp938
a(S'100006518479634'
S'Moni Trivedi'
tp939
a(S'100004781379138'
S'Anil Aggarwal'
tp940
a(S'100006033134492'
S'Deepali Sharma'
tp941
a(S'100007921294295'
S'DM Etawah'
tp942
a(S'1392804883'
S'Gaurav Shukla'
tp943
a(S'100002660376053'
S'Pramila Arya'
tp944
a(S'100004577343554'
S'Lokesh Vats Chetan'
tp945
a(S'100002100775375'
S'Ravindra Kumar'
tp946
a(S'100003925954630'
S'Prashant Singh'
tp947
a(S'100004169164876'
S'Rj Raj Chaubey'
tp948
a(S'100004717928484'
S'\\u092c\\u0938 \\u092a\\u093e\\u0928\\u0940'
tp949
a(S'100008152477249'
S'Asif Khan Shayar Shayar'
tp950
a(S'100007990692062'
S'Sarbjit Singh'
tp951
a(S'1190913699'
S'Ashok Bhatia'
tp952
a(S'100008055459029'
S'Chouhan Rajusingh Bawrala'
tp953
a(S'100003101959169'
S'Bablu Sharma'
tp954
a(S'100001810214536'
S'Chhotu Sharma'
tp955
a(S'100005947143242'
S'Devraj Arora'
tp956
a(S'100001307636508'
S'Vikaash Chandrra'
tp957
a(S'100003324096103'
S'Rajendra Sharma'
tp958
a(S'100004896067871'
S'Alok Bhadauria'
tp959
a(S'100004219570150'
S'Brijesh Tripathi'
tp960
a(S'100007033812147'
S'Shivkarannath Bajpai'
tp961
a(S'100002539591683'
S'Bhaskar Thanki'
tp962
a(S'100001206247476'
S'Ray Chandra Kartik'
tp963
a(S'1270893033'
S'Saleem Akhter Siddiqui'
tp964
a(S'100001572398253'
S'Sarmishtha Mazumder'
tp965
a(S'100003149108221'
S'Roki Patel'
tp966
a(S'100001049675644'
S'Awanish Tripathi'
tp967
a(S'100001932705227'
S'K\\u00fc\\u00f1w\\u00e5r M\\u00e5\\u00e5n S\\u00ec\\u00f1gh'
tp968
a(S'1305265049'
S'Manoj Chhabra'
tp969
a(S'100004242035946'
S'Brajesh Kumar'
tp970
a(S'100001624506463'
S'Gorakhpuri Manju'
tp971
a(S'100006079924244'
S'Nitesh Kumar Gupta'
tp972
a(S'100002276550728'
S'Afzal Ahmad Malik'
tp973
a(S'100005796093581'
S'Poonam Tiwari'
tp974
a(S'100001602635173'
S'\\u0906\\u0926\\u093f\\u0924\\u094d\\u092f\\u092a\\u094d\\u0930\\u0924\\u093e\\u092a \\u0938\\u093f\\u0902\\u0939 \\u091a\\u094c\\u0939\\u093e\\u0928'
tp975
a(S'100000032696061'
S'Mukesh Kumar'
tp976
a(S'100001063081180'
S'Neelam Singh'
tp977
a(S'100001235759202'
S'Pankaj Kumar Singh'
tp978
a(S'100001653363856'
S'Rajkumar Lakhmani'
tp979
a(S'100002892056371'
S'Ganesh Tripathi Gagan'
tp980
a(S'100000669485109'
S'Ram Mohan Dubey'
tp981
a(S'100005816106419'
S'Kumar Ambuj'
tp982
a(S'100004525083493'
S'Surendra Singh'
tp983
a(S'100002830620560'
S'Ranjana Jaiswal'
tp984
a(S'100002502644724'
S'Brijnandan Verma'
tp985
a(S'100002633597148'
S'Matia Poonam'
tp986
a(S'100001503244030'
S'Koyal Chowdhury'
tp987
a(S'100001735543221'
S'Daisy Jaiswal'
tp988
a(S'100006762188479'
S'Daisy Jaiswal'
tp989
a(S'1613149108'
S'Varun Hira'
tp990
a(S'100003642470998'
S'Kumar Balram Agrawal'
tp991
a(S'100000123197096'
S'Winny Ho'
tp992
a(S'100003924276502'
S'Muskan Singh'
tp993
a(S'696502195'
S'Prakash Goyal'
tp994
a(S'100002505847462'
S'Sarah Khan'
tp995
a(S'100002026438284'
S'DrSaurabh Vats'
tp996
a(S'100000911758747'
S'Amol Salunkhe'
tp997
a(S'100004292371647'
S'Shaktiprava Mishra'
tp998
a(S'100002570142997'
S'Gagan Singh'
tp999
a(S'100005434988375'
S'Arjun Singh'
tp1000
a(S'100000259634479'
S'Upendra Thakur'
tp1001
a(S'100005868131404'
S'Nirupma Ashok'
tp1002
a(S'100001895302518'
S'Nisha Kulshreshtha'
tp1003
a(S'1799667728'
S'Sanjay Vishwakarma'
tp1004
a(S'100001130018575'
S'Sumit Singh'
tp1005
a(S'100007088823956'
S'Avni Bajaj'
tp1006
a(S'100000027897589'
S'Prem Narayan Dethliya'
tp1007
a(S'100003246615450'
S'Manoj Singh Dhakrey'
tp1008
a(S'100003520334665'
S'Ravi Prakash Sharma'
tp1009
a(S'100001461897369'
S'Drdinesh Pathak Shashi'
tp1010
a(S'100000479829739'
S'Mayur Sharma'
tp1011
a(S'100000638020997'
S'Suresh Sharma'
tp1012
a(S'100003162794791'
S'Shaziya Mir'
tp1013
a(S'100000826383506'
S'Roop Singh Chandel'
tp1014
a(S'100003124531958'
S'Gannayak Jee'
tp1015
a(S'100000093797900'
S'Sharma Buddhprakash'
tp1016
a(S'100007772375570'
S'Anna Rakesh Kushwaha'
tp1017
a(S'1441399973'
S'\\u0928\\u0935\\u092e\\u0940\\u0924'
tp1018
a(S'1204372899'
S'Ajay Shukla'
tp1019
a(S'100003367007947'
S'DrBrahm Anand Brahm'
tp1020
a(S'100001253386506'
S'M.l. Goyal'
tp1021
a(S'100000817695075'
S'\\u0935\\u093f\\u0935\\u0947\\u0915 \\u0905\\u0902\\u091c\\u0928 \\u0936\\u094d\\u0930\\u0940\\u0935\\u093e\\u0938\\u094d\\u0924\\u0935'
tp1022
a(S'1508044091'
S'Umesh Singh'
tp1023
a(S'100006478326253'
S'Premnpi India Shiv Kumar'
tp1024
a(S'100005132766253'
S'\\u0928\\u0940\\u0930\\u091c\\u093e \\u0939\\u0947\\u092e\\u0947\\u0928\\u094d\\u0926\\u094d\\u0930'
tp1025
a(S'791854913'
S'Ghanshyam Dass'
tp1026
a(S'100001280662166'
S'Anil Pandey'
tp1027
a(S'100003731544133'
S'Parveen Kumar'
tp1028
a(S'100000482133831'
S'Ranbir Pandey'
tp1029
a(S'100004307050850'
S'Sandeep Tanwar'
tp1030
a(S'100004316584124'
S'Vinod Verma'
tp1031
a(S'100000880642373'
S'Kunal Yadav'
tp1032
a(S'100004947933626'
S'Suruchi Sharma Singer'
tp1033
a(S'100001290635719'
S'\\u092a\\u094d\\u0930\\u094b. \\u0935\\u093f\\u0936\\u094d\\u0935\\u092e\\u094d\\u092d\\u0930 \\u0936\\u0941\\u0915\\u094d\\u0932'
tp1034
a(S'100003573708157'
S'Joy Soni Joy Bjp'
tp1035
a(S'100000826014793'
S'\\u0905\\u0924\\u0941\\u0932 \\u0915\\u0941\\u092e\\u093e\\u0930 \\u0938\\u093f\\u0902\\u0939'
tp1036
a(S'100003244272813'
S'Mahendra Bhamu Sikar'
tp1037
a(S'100007323450024'
S'Shivkumar Gupta'
tp1038
a(S'100004873236243'
S'\\u0905\\u0902\\u091c\\u0928\\u093e \\u091a\\u094c\\u0939\\u093e\\u0928 \\u0938\\u093f\\u0902\\u0939'
tp1039
a(S'100005285557915'
S'Aditya Sharma'
tp1040
a(S'100000322317384'
S'\\u0928\\u0935\\u0940\\u0928 \\u091a\\u0902\\u0926\\u094d\\u0930 \\u0932\\u094b\\u0939\\u0928\\u0940'
tp1041
a(S'100006295922753'
S'Rana Gupta'
tp1042
a(S'100006402760698'
S'Ilyaas Makhdoom'
tp1043
a(S'100004016757792'
S'Sudarshan Sahoo'
tp1044
a(S'100000670080081'
S'Dhananjay Kushwaha'
tp1045
a(S'100004086861345'
S'Neeta Sharma'
tp1046
a(S'1392513318'
S'\\u0928\\u0942\\u0924\\u0928 \\u092f\\u093e\\u0926\\u0935'
tp1047
a(S'1140532335'
S'Vikrant R. Pimpale'
tp1048
a(S'100004655444086'
S'Ramesh Upadhyay'
tp1049
a(S'100003114022551'
S'Dileep Singh Bhati Tejmalta'
tp1050
a(S'100005099144061'
S'Ghanshyam Das'
tp1051
a(S'100004524940632'
S'Rakesh Sharma'
tp1052
a(S'100002472364708'
S'Anurag Singh'
tp1053
a(S'100001327644315'
S'Alka Mishra'
tp1054
a(S'100004285682676'
S'\\u0915\\u0941\\u092e\\u0915\\u0941\\u092e \\u0936\\u0930\\u094d\\u092e\\u093e'
tp1055
a(S'100002502277404'
S'Indrapal Bhadauria'
tp1056
a(S'100007033590657'
S'Anjali Tiwari'
tp1057
a(S'100000934754814'
S'Ashish K. Mishra'
tp1058
a(S'100003201387526'
S'Aarthi Sunilbohara'
tp1059
a(S'100006470078166'
S'Sunny Jain'
tp1060
a(S'100003356170675'
S'Jagdish Sachan'
tp1061
a(S'100003659307046'
S'Deepshikha Sharma'
tp1062
a(S'100003844834350'
S'\\u0905\\u0902\\u0936\\u0941 \\u0930\\u0924\\u094d\\u0928\\u0947\\u0936 \\u0924\\u094d\\u0930\\u093f\\u092a\\u093e\\u0920\\u0940'
tp1063
a(S'100005922783625'
S'Rajeev Rachna Khare'
tp1064
a(S'100007939301587'
S'Nisha Kumar'
tp1065
a(S'100005269087558'
S'Jay Joshi'
tp1066
a(S'100002462200868'
S'Hansa J Jinjriya'
tp1067
a(S'100001423490629'
S'Zuber Qureshi'
tp1068
a(S'100003505615492'
S'Pradeep Ganwir'
tp1069
a(S'100003574168596'
S'Rahul Shivhare'
tp1070
a(S'100000508898134'
S'Nagarsevika Dr-Nayana Vasani'
tp1071
a(S'100001603422672'
S'Soniya Singh'
tp1072
a(S'100004047519388'
S'Ramakant Nigam'
tp1073
a(S'100001684475649'
S'Subhashini Ali'
tp1074
a(S'100004134039371'
S'Bhupendra Kumar Singh'
tp1075
a(S'100001729608162'
S'Thakur Raghav Singh'
tp1076
a(S'100001087176921'
S'Anil Srivastava'
tp1077
a(S'100001402653048'
S'KS Bhadoria'
tp1078
a(S'100002195296171'
S'Vikramjit Singh'
tp1079
a(S'100003110106738'
S'Harjeet Singh'
tp1080
a(S'100003647784571'
S'Sarita Sharma'
tp1081
a(S'100001138662061'
S'Ashutosh Patel'
tp1082
a(S'100003256431221'
S'Vidyasagar Choubey'
tp1083
a(S'100003467941966'
S'Anamika Chakraborty'
tp1084
a(S'100004949347342'
S'Vikas Gupta'
tp1085
a(S'100008387820805'
S'Obeid Ullah'
tp1086
a(S'100001190153327'
S'Shyam Vashishtha'
tp1087
a(S'100001387094520'
S'\\u0906\\u0926\\u093f\\u0924\\u094d\\u092f \\u092f\\u0926\\u0941\\u0935\\u0902\\u0936\\u0940 \\u0906\\u0926\\u093f\\u0924\\u094d\\u092f'
tp1088
a(S'100007682683276'
S'\\u092a\\u0942\\u0930\\u094d\\u0923\\u093f\\u092e\\u093e \\u0935\\u0930\\u094d\\u092e\\u0928'
tp1089
a(S'100002776502893'
S'Prashant Sharma'
tp1090
a(S'100003366840163'
S'Kavita Singh Suryavanshi'
tp1091
a(S'100003172640658'
S'Kumar Chennai'
tp1092
a(S'100000245970461'
S'Purshottam Keswani'
tp1093
a(S'100005327105045'
S'Kankar Saurabh Kankar'
tp1094
a(S'100003791214552'
S'Radheyshyam Bhartiya'
tp1095
a(S'1305583143'
S'Upasana Ghoshal'
tp1096
a(S'100001840173039'
S'Amit Yadav'
tp1097
a(S'100003744965064'
S'Umesh Sharma'
tp1098
a(S'100000986645838'
S'Sanjay Vir Gupta'
tp1099
a(S'100001105499083'
S'Geeta Sandeep Mahajan'
tp1100
a(S'100002160093083'
S'Rabindranath Das'
tp1101
a(S'100003255157210'
S'Kunwar Bhati'
tp1102
a(S'100002018084619'
S'Manmohan Sharma'
tp1103
a(S'100000956715066'
S'Siddharth Sharma'
tp1104
a(S'100007569343489'
S'Nisha Mishra'
tp1105
a(S'100001629455153'
S'Gagan Jha'
tp1106
a(S'100008241937241'
S'Lakhan Mishra'
tp1107
a(S'100001271530964'
S'Raghvendra Awasthi'
tp1108
a(S'100000919271500'
S'Priyanath Pathak'
tp1109
a(S'100001828172264'
S'Ashok Gehlot'
tp1110
a(S'100000628620658'
S'Sita Diya'
tp1111
a(S'100003220323688'
S'Ankit Mishra'
tp1112
a(S'100003184527792'
S'Udbhav Mishra'
tp1113
a(S'100003006442457'
S'Kulina Kumari'
tp1114
a(S'100007622021497'
S'Ashish Kumar'
tp1115
a(S'100000861388148'
S'Rama Bharti'
tp1116
a(S'100005185184623'
S'\\u0921\\u093e. \\u091c\\u092f \\u0936\\u0902\\u0915\\u0930 \\u0936\\u0941\\u0915\\u094d\\u0932'
tp1117
a(S'100003730616323'
S'Harimohan Rajpoot'
tp1118
a(S'100004077571007'
S'Binu Bhatnagar'
tp1119
a(S'100003309196862'
S'Naresh Namdev'
tp1120
a(S'100000405232840'
S'Sanjiv Batra'
tp1121
a(S'100000666868258'
S'Rama Sharma'
tp1122
a(S'100002326103034'
S'Sunil Kumar Ahirwar'
tp1123
a(S'100002438299974'
S'Jitendra Kori'
tp1124
a(S'1356920621'
S'Arvind Singh'
tp1125
a(S'1738495977'
S'Gaurav Bhadauria'
tp1126
a(S'100007013231771'
S'Padma Gupta'
tp1127
a(S'100002188147719'
S'Ashok Tripathi'
tp1128
a(S'100003501611311'
S'Jayesh Desai'
tp1129
a(S'100000406235628'
S'\\u0938\\u0941\\u0936\\u0940\\u0932 \\u092a\\u093e\\u0920\\u0915'
tp1130
a(S'100001894125623'
S'\\u092e\\u0939\\u0947\\u0936 \\u0938\\u093f\\u0902\\u0939'
tp1131
a(S'100003778786342'
S'Vivek Mishra'
tp1132
a(S'100001730045905'
S'Manju Singh'
tp1133
a(S'100007311005346'
S'\\u092a\\u094d\\u0930\\u0940\\u0924 \\u0905\\u0917\\u094d\\u0930\\u0935\\u093e\\u0932'
tp1134
a(S'100005670184967'
S'Chetan Shukla'
tp1135
a(S'100003570830739'
S'Manoj Upadhyay'
tp1136
a(S'100002506188170'
S'Rajendra Pathak'
tp1137
a(S'100001585284653'
S'Vijaya Mishra'
tp1138
a(S'100003035747656'
S'Vijay Pushpam Pathak'
tp1139
a(S'100001498362046'
S'Vineet Mishra'
tp1140
a(S'100000189479037'
S'Shastri Mukesh Kumar'
tp1141
a(S'1592253107'
S'Upendrasingh Bhadoriya'
tp1142
a(S'100004941931356'
S'Ashish Choudhary'
tp1143
a(S'100002602060725'
S'\\u0921\\u0949\\u0932\\u0940 \\u0905\\u0917\\u094d\\u0930\\u0935\\u093e\\u0932'
tp1144
a(S'1113542741'
S'Arun Mishra'
tp1145
a(S'100002046044460'
S'Sulakshana Datta'
tp1146
a(S'100005613362609'
S'Radhika Pramod Dubey'
tp1147
a(S'729576167'
S'Yogesh Samdarshi'
tp1148
a(S'100008390201534'
S'M.r. Oza'
tp1149
a(S'100004644162189'
S'Rahul Singh Tomar'
tp1150
a(S'100006396491386'
S'Sristi Gupta'
tp1151
a(S'100004765334562'
S'Ratan Lal Bengani'
tp1152
a(S'100001577340491'
S'\\u0921\\u0949. \\u0906\\u0932\\u094b\\u0915 \\u092e\\u093f\\u0936\\u094d\\u0930'
tp1153
a(S'100007954747348'
S'Geeta Arora'
tp1154
a(S'100000708158808'
S'Sharda Kant Sharma'
tp1155
a(S'100002207125150'
S'Pavankumar V Panibhate'
tp1156
a(S'100005474138220'
S'Emz Bal'
tp1157
a(S'100003188465652'
S'Ambarish Shukla'
tp1158
a(S'100005924255359'
S'Meenakshi Shukla'
tp1159
a(S'100006264247396'
S'Vimal Saini'
tp1160
a(S'100003537126390'
S'Gagandeep Singh'
tp1161
a(S'100001562996460'
S'Baban Prasad Mishra'
tp1162
a(S'100004040328752'
S'Smriti Sahgal'
tp1163
a(S'100005959686323'
S'Angel Puja'
tp1164
a(S'100002143367166'
S'Digvijay Singh Sikarwar'
tp1165
a(S'100001308534240'
S'Anamika Shukla'
tp1166
a(S'100006498962095'
S'Vivek Bogawar'
tp1167
a(S'100003508675148'
S'Puja Shukla'
tp1168
a(S'100000710535636'
S'Kundan Tiwari'
tp1169
a(S'100003542367525'
S'Pandit Awneesh Kumar Mishra'
tp1170
a(S'1632861469'
S'Abhinav Singh B'
tp1171
a(S'100002544754812'
S'Kulvinder Singh'
tp1172
a(S'100003516290087'
S'Deepika Dwivedi'
tp1173
a(S'100006395675688'
S'Singh Veena Vatsal'
tp1174
a(S'100002476164905'
S'Naveen Bansal'
tp1175
a(S'100001441666533'
S'Manoj Singh'
tp1176
a(S'100004072065187'
S'\\u0921\\u0949. \\u0939\\u0940\\u0930\\u093e\\u0932\\u093e\\u0932 \\u092a\\u094d\\u0930\\u091c\\u093e\\u092a\\u0924\\u093f'
tp1177
a(S'1759618263'
S'Akbar Khan'
tp1178
a(S'100002498307574'
S'Bharat Sharma'
tp1179
a(S'1835509357'
S'Somesh Chandra Kakar'
tp1180
a(S'100001071198209'
S'Burman Sanjeev'
tp1181
a(S'100003966286893'
S'Balveer Rathore Bhandari'
tp1182
a(S'100003583878576'
S'Sadah Bahar'
tp1183
a(S'100004378331514'
S'Anuja Sharma'
tp1184
a(S'1716510340'
S'Anup Joshi'
tp1185
a(S'100006189036172'
S'LK Pandya'
tp1186
a(S'1775142107'
S'\\u0938\\u0941\\u0930\\u0947\\u0936 \\u091a\\u094c\\u0927\\u0930\\u0940'
tp1187
a(S'100001610268982'
S'Nagpremi Prem'
tp1188
a(S'100003276498998'
S'Naresh Kumar'
tp1189
a(S'100002830291313'
S'Rahul Mishra'
tp1190
a(S'100002044376820'
S'Surendra Parihar'
tp1191
a(S'100006136363509'
S'Girijesh K Tripathi'
tp1192
a(S'100001114721350'
S'Sheela Dongre'
tp1193
a(S'100006118000412'
S'Rudra Rahul Jain'
tp1194
a(S'100001089424127'
S'Pooja Rani Singh'
tp1195
a(S'100004674883050'
S'Ashish Banerjee'
tp1196
a(S'100003841799029'
S'Akhil Sagar'
tp1197
a(S'100004092452275'
S'\\u0935\\u093f\\u0928\\u092f \\u0917\\u0941\\u092a\\u094d\\u0924\\u093e'
tp1198
a(S'1088842232'
S'Devmani Pandey'
tp1199
a(S'100001605999128'
S'\\u090b\\u0924\\u0941\\u092a\\u0930\\u094d\\u0923 \\u0926\\u0935\\u0947'
tp1200
a(S'100001358304748'
S'\\u0932\\u0915\\u094d\\u0937\\u094d\\u092e\\u0940\\u0915\\u093e\\u0902\\u0924 \\u092e\\u093f\\u0936\\u094d\\u0930'
tp1201
a(S'100005512067077'
S'Karena Das'
tp1202
a(S'1319499342'
S'Rajesh Kumari'
tp1203
a(S'100003523568678'
S'Bhagirath Shekhawat'
tp1204
a(S'100001684755272'
S'Priyanka Singh'
tp1205
a(S'100000843104011'
S'Sanjay Swaroop Saxena'
tp1206
a(S'100004197875940'
S'\\u0915\\u0935\\u093f \\u0930\\u092e\\u0947\\u0936 \\u0930\\u093e\\u091c'
tp1207
a(S'700734649'
S'Gyan Rajhans'
tp1208
a(S'100003390527292'
S'Jyotsna Saxena'
tp1209
a(S'566064611'
S'\\u0938\\u0942\\u0930\\u091c \\u092a\\u094d\\u0930\\u0915\\u093e\\u0936'
tp1210
a(S'100003237021382'
S'Kartar Singh'
tp1211
a(S'100006714038435'
S'Abhinav Gupta'
tp1212
a(S'100000859457786'
S'Meeta Singh'
tp1213
a(S'100000822854778'
S'Shailedra Khare'
tp1214
a(S'100003543378526'
S'Anil Biswal'
tp1215
a(S'100000067736257'
S'Shobha Shami'
tp1216
a(S'100003579786463'
S'Sukhveer Singh Bhadouriya'
tp1217
a(S'709391078'
S'Anup Sethi'
tp1218
a(S'100002186396529'
S'\\u0915\\u0941\\u0932\\u0926\\u0940\\u092a \\u0938\\u093f\\u0902\\u0939 \\u0930\\u093e\\u091c\\u093e\\u0935\\u0924'
tp1219
a(S'100008192733126'
S'Kavi Lekhak Rasat Garg'
tp1220
a(S'100000550152926'
S'Pawan Singh Rajawat'
tp1221
a(S'100001962928051'
S'Saira Abdulla'
tp1222
a(S'100004015975565'
S'Bhadauria Surendra'
tp1223
a(S'100003124974548'
S'Bikram Jar'
tp1224
a(S'100002538472355'
S'Om Prakash Chaudhary'
tp1225
a(S'100001775917571'
S'Saarika Singh'
tp1226
a(S'100003267192861'
S'Anil Khamparia'
tp1227
a(S'100003703521438'
S'Anil Kumar Punia'
tp1228
a(S'100000315701739'
S'Vijay Shankar Jha'
tp1229
a(S'100007098450415'
S'Surbhi Saxena Jogan'
tp1230
a(S'100001379210531'
S'ShashiKant Shashi'
tp1231
a(S'100004104910764'
S'Lkvishnu Kedia'
tp1232
a(S'100004084069261'
S'Sanjana Shukla'
tp1233
a(S'100006527678108'
S'Ankita Patel'
tp1234
a(S'1803091362'
S'Ritesh Verma'
tp1235
a(S'100002927195823'
S'Ranjana Kanti'
tp1236
a(S'100002335167071'
S'Sandeep Adlakha'
tp1237
a(S'100003998462055'
S'Pardeep Grover'
tp1238
a(S'100002761540188'
S'Kunwar Manjit Singh Bondgaon'
tp1239
a(S'1244149787'
S'\\u0938\\u094d\\u0935\\u093e\\u092e\\u0940 \\u0935\\u093f\\u0935\\u0947\\u0915\\u093e\\u0928\\u0928\\u094d\\u0926 \\u092a\\u0930\\u093f\\u0935\\u094d\\u0930\\u093e\\u091c\\u0915'
tp1240
a(S'100005488271276'
S'Mp Bhaskar'
tp1241
a(S'1482322647'
S'R.s. Shrivastava Shrivastava'
tp1242
a(S'100002609708535'
S'Shailesh Natubhai Patel'
tp1243
a(S'100000918313958'
S'Nitin Goyal'
tp1244
a(S'100002819093035'
S'DrHariom Panwar'
tp1245
a(S'1125322456'
S'Isht Deo Sankrityaayan'
tp1246
a(S'100001331105406'
S'\\u0915\\u093f\\u0930\\u0923 \\u0906\\u0930\\u094d\\u092f'
tp1247
a(S'100002443664497'
S'Jahnavi Suman'
tp1248
a(S'100000581754993'
S'Tiwari Keshav'
tp1249
a(S'100001731103478'
S'Vasundhara Purvi'
tp1250
a(S'100004462925975'
S'Suhana Chaubey'
tp1251
a(S'100003912987200'
S'Durga Mehrotra'
tp1252
a(S'100002621506165'
S'Ajay Chauhan'
tp1253
a(S'100002262393977'
S'Suman Kumar Singh'
tp1254
a(S'100006243454255'
S'Sarita Khare'
tp1255
a(S'100000512184326'
S'Pawan Talhan'
tp1256
a(S'100007446251259'
S'Vijendra Singh Bhadauiria'
tp1257
a(S'1320663138'
S'Amol Pratap Singh Sengar'
tp1258
a(S'543188665'
S'Sunita Shanoo'
tp1259
a(S'100003689816165'
S"\\u0935\\u093f\\u0936\\u094d\\u0935\\u091c\\u0940\\u0924 \\u0938\\u093f\\u0901\\u0939 \\u0938\\u093f\\u0938\\u094b\\u0926\\u093f\\u092f\\u093e '\\u091c\\u093f\\u0928\\u094d\\u0926\\u093e\\u0926\\u093f\\u0932'"
tp1260
a(S'100006250243391'
S'Vinod Kumar Bhatia'
tp1261
a(S'100002062632203'
S'Ashok Arora'
tp1262
a(S'625805562'
S'Preeti Singh'
tp1263
a(S'100004431247879'
S'Anand Soni'
tp1264
a(S'100000961291470'
S'Vijay Mishra'
tp1265
a(S'100006259922504'
S'\\u0915\\u0935\\u092f\\u093f\\u0924\\u094d\\u0930\\u0940 \\u0938\\u0930\\u093f\\u0924\\u093e \\u092c\\u093e\\u091c\\u092a\\u0947\\u0908'
tp1266
a(S'100002497952762'
S'Kamlesh Sohu'
tp1267
a(S'100000295090410'
S'Madhur Nagwan'
tp1268
a(S'100002269614893'
S'Shyam Dangi'
tp1269
a(S'100007438539233'
S'Rajesh Tiwari'
tp1270
a(S'100002198332629'
S'Er Kuldip Yadav'
tp1271
a(S'100005915078245'
S'Vijailakshmi Vibha'
tp1272
a(S'100002522886385'
S'Matin Shaikh'
tp1273
a(S'100003071515861'
S'Rajendra Shukla'
tp1274
a(S'1304911815'
S'Priya Darshni Keren'
tp1275
a(S'100003210577122'
S'Rajeev Singh Chandel'
tp1276
a(S'100006456238485'
S'Jwala Reddy'
tp1277
a(S'100004279740504'
S'Sukanya Mishra'
tp1278
a(S'100006751020603'
S'\\u0905.\\u092d\\u093e. \\u0939\\u093f\\u0902\\u0926\\u0940 \\u0935\\u093f\\u0915\\u093e\\u0938 \\u0938\\u0902\\u0938\\u094d\\u0925\\u093e'
tp1279
a(S'100004587601172'
S'Nitesh Sonu Mishra'
tp1280
a(S'100000035285944'
S'Manish Sri'
tp1281
a(S'100002501242235'
S'Soniya Pathak'
tp1282
a(S'100001681291706'
S'Bhagwan Shri Vishnu'
tp1283
a(S'100003037447457'
S'Ashish Shukla'
tp1284
a(S'100001842460457'
S'Rakesh K Tiwari'
tp1285
a(S'100001119435522'
S'Amitabh Vashist'
tp1286
a(S'100003317747178'
S'Shalini Khanna'
tp1287
a(S'100004472648611'
S'Kuldeep Singh Rathore'
tp1288
a(S'100007380071752'
S'Girraj Bhadoriya'
tp1289
a(S'100006507065025'
S'\\u092f\\u0925\\u093e\\u0935\\u0924 \\u092a\\u0924\\u094d\\u0930\\u093f\\u0915\\u093e'
tp1290
a(S'100002439764955'
S'Govind Singh'
tp1291
a(S'100002388642078'
S'Sushil Upadhyay'
tp1292
a(S'100004006172973'
S'Nirmala Pareek'
tp1293
a(S'1163582127'
S'Raveesh Jain'
tp1294
a(S'100001213030604'
S'Gyandeep Agnihotri'
tp1295
a(S'100005512632162'
S'Subhash Fageria'
tp1296
a(S'100002894899350'
S'Devendra Pratap Singh Rathore'
tp1297
a(S'100006481647407'
S'Rohini Pandey'
tp1298
a(S'100000561717273'
S'Zakir Hussein'
tp1299
a(S'100003628993058'
S'Manoj Rastogi'
tp1300
a(S'100003956869107'
S'Laxman Singh Jadon'
tp1301
a(S'100003297815308'
S'Amit Kumar Srivastava'
tp1302
a(S'100006589991503'
S'Gautami Pandey'
tp1303
a(S'100002078772643'
S'Bibhash Kumar Mishra'
tp1304
a(S'100005936913771'
S'Amir Shah Meeru'
tp1305
a(S'100004065741113'
S'Amit Dwivedi'
tp1306
a(S'100003170654255'
S'Seema Singh'
tp1307
a(S'100002384369260'
S'Thakur Yash Jadon'
tp1308
a(S'100006240794603'
S'Akash Bisht-The King'
tp1309
a(S'100003208455626'
S'Hanuman Singh Ranawat Mewar'
tp1310
a(S'100003713153772'
S'Dilip Bhatia'
tp1311
a(S'100003576779002'
S'Seema Singh'
tp1312
a(S'100002651288321'
S'Ritesh Kumar'
tp1313
a(S'100001965765311'
S'Krishan Kumar Arora'
tp1314
a(S'100003877956536'
S'Kavi Anil Shukla Amal'
tp1315
a(S'100006794372438'
S'Amit Dabariya'
tp1316
a(S'100003014906636'
S'Tejinder Gagan'
tp1317
a(S'100004468237519'
S'Ajitha Parvathy'
tp1318
a(S'100004993206672'
S'Dinesh Sonar'
tp1319
a(S'100004689931441'
S'Manoj Betab'
tp1320
a(S'100003532789699'
S'Mariamma Thomas Kanacherry'
tp1321
a(S'100007657953717'
S'Sabitha Raj'
tp1322
a(S'100001432987941'
S'Kavi Rajeev Bhadauria'
tp1323
a(S'100004065134189'
S'Devesh Awasthi'
tp1324
a(S'100006244394325'
S'Madhu Bhardwaj'
tp1325
a(S'100000882464520'
S'Sn Verma'
tp1326
a(S'100002758818767'
S'Sujata Choudhary'
tp1327
a(S'100001441468411'
S'Raj Shekhawat'
tp1328
a(S'100001595679537'
S'Ravi Kanoria'
tp1329
a(S'100003932656558'
S'Anuradha Prakashan'
tp1330
a(S'100004224611372'
S'A Real ID GKnowledge'
tp1331
a(S'100003986945285'
S'Seema Singh'
tp1332
a(S'100002441965575'
S'Sevak Ram Jangid'
tp1333
a(S'100001270670558'
S'Sarita Das'
tp1334
a(S'100003064417818'
S'Deepika Jain'
tp1335
a(S'100000178429074'
S'Richa Pandey'
tp1336
a(S'606055402'
S'Akanksha Chaudhary'
tp1337
a(S'100005258050159'
S'Ranjeet Kumar'
tp1338
a(S'100003672867284'
S'Hansa Amola'
tp1339
a(S'100006639341706'
S'Baybai Pardumn Tiwari'
tp1340
a(S'100007478473138'
S'\\u0930\\u093e\\u0928\\u0940 \\u092a\\u0915\\u094d\\u0937\\u093e\\u0932\\u093f\\u0915\\u093e \\u0938\\u093f\\u0902\\u0939'
tp1341
a(S'100002455746281'
S'Rajnikant Shukla'
tp1342
a(S'100005643423487'
S'Seema Singh'
tp1343
a(S'100002529506812'
S'Ghora Yogini II'
tp1344
a(S'100002144882864'
S'Pankaj Singh Bhadauria'
tp1345
a(S'100007677360596'
S'Saba Gul'
tp1346
a(S'100002780409905'
S'Yogendra Kumar Khanna'
tp1347
a(S'100003767768301'
S'Renu Roy'
tp1348
a(S'100005872535920'
S'Shashi Jain'
tp1349
a(S'100001239593601'
S'Kavi Adesh Agarwal Prakash'
tp1350
a(S'1444152256'
S'Shaleen Kumar Singh'
tp1351
a(S'100003862932266'
S"Harish Roger D'Cruz"
tp1352
a(S'100005395692012'
S'Charulata Naik'
tp1353
a(S'100004074611657'
S'Mridula Jha'
tp1354
a(S'100002984273119'
S'Pushpendra Singh Panwar ViraTansh'
tp1355
a(S'100006819182819'
S'Vinod Varier'
tp1356
a(S'100008033501313'
S'Raj Kumar Tripathi'
tp1357
a(S'100004722880194'
S'Durgesh Singh Panwar'
tp1358
a(S'100002439006566'
S'Chetan Itankar'
tp1359
a(S'100002997088636'
S'Om Prakash Singh'
tp1360
a(S'100002170860421'
S'Huma Khan'
tp1361
a(S'100001663353762'
S'Vivek Pandey'
tp1362
a(S'100004877742719'
S'\\u0938\\u094b\\u0928\\u092e \\u092a\\u093e\\u091f\\u0928\\u0940'
tp1363
a(S'100001798721348'
S'Digvijaysinhji Maharaul'
tp1364
a(S'100003811271466'
S'Deepak Sharma'
tp1365
a(S'100004386909488'
S'Hindustan Samachar'
tp1366
a(S'1804057596'
S'Pushpavant Sharma'
tp1367
a(S'100004251933711'
S'Surjeet Kumar'
tp1368
a(S'100003284423996'
S'Ummaid Singh Bhati'
tp1369
a(S'100002253879269'
S'Ajay Singh Rajawat'
tp1370
a(S'100000893925972'
S'Jasbir Singh'
tp1371
a(S'100002359616436'
S'Jitendra Singh Bhadauria'
tp1372
a(S'100003814437196'
S'Vikas Vicky Bhardwaj'
tp1373
a(S'1850757970'
S'Rajesh Raj'
tp1374
a(S'100003120298436'
S'Kuldeep Rathore'
tp1375
a(S'100006864489336'
S'Sunita Mehta'
tp1376
a(S'100002097160231'
S'Ghazalkar Sagar Anand'
tp1377
a(S'100002960132136'
S'Rajpal Singh'
tp1378
a(S'100003689510214'
S'Aprajeeta Banerjee'
tp1379
a(S'589436460'
S'Rajinder Singh Bhalla'
tp1380
a(S'550854227'
S'Manisha Joshi'
tp1381
a(S'100004753628989'
S'Neeraj Nirwal'
tp1382
a(S'100005348523189'
S'Seema Seema'
tp1383
a(S'100001452314146'
S'Sushil Yadav'
tp1384
a(S'100002201750616'
S'Dhiraj Sharma'
tp1385
a(S'100001403152934'
S'Atul Singh Gaharwar Rajput'
tp1386
a(S'1391227783'
S'Kunal Kaushik'
tp1387
a(S'100007318143366'
S'Sanjit Singh'
tp1388
a(S'100004178733340'
S'Atul Bhadouria'
tp1389
a(S'100002714672224'
S'Alpana Kanpurthird'
tp1390
a(S'100001827270794'
S'Pradeep Tiwari'
tp1391
a(S'100003892640121'
S'Sankalp Sidhant'
tp1392
a(S'100002245725571'
S'Mayank Bijendra Bhadauria'
tp1393
a(S'100000612522451'
S'Thakur Surendra Singh'
tp1394
a(S'100002302248540'
S'Shimbhu Singh Rathore Barjan'
tp1395
a(S'100001579772997'
S'\\u0930\\u093e\\u091c\\u0947\\u0902\\u0926\\u094d\\u0930 \\u0905\\u0935\\u0938\\u094d\\u0925\\u0940'
tp1396
a(S'100001600965700'
S'\\u0939\\u0930\\u093f \\u0936\\u0902\\u0915\\u0930 \\u092a\\u093e\\u0923\\u094d\\u0921\\u0947\\u092f'
tp1397
a(S'100001593051717'
S'\\u0905\\u0932\\u0915\\u093e \\u0917\\u0941\\u092a\\u094d\\u0924\\u093e'
tp1398
a(S'638181270'
S'Ranju Bhatia'
tp1399
a(S'100000117833150'
S'Dwivedi Sanjay'
tp1400
a(S'100003178745935'
S'Devi Singh Bhati'
tp1401
a(S'100002765079969'
S'Central Bank'
tp1402
a(S'1425252004'
S'Raakesh Sharma'
tp1403
a(S'100002626303454'
S'Sovan Mitra'
tp1404
a(S'100003808462244'
S'DrSarojini Tanhaa'
tp1405
a(S'100007302163144'
S'Sapna Sharma'
tp1406
a(S'100003749533341'
S'Patel Neha'
tp1407
a(S'100003002232769'
S'Shashi Kumar'
tp1408
a(S'100003044860248'
S'Chandan Rai'
tp1409
a(S'100003693807452'
S'Kalawanti Singh'
tp1410
a(S'100006552572141'
S'Author Sarik Khan'
tp1411
a(S'100000470412680'
S'Pruthvish Dave'
tp1412
a(S'100003044830557'
S'Sagar Shevkari'
tp1413
a(S'100001554279451'
S'Kalpana Tripathi Pant'
tp1414
a(S'100007221763075'
S'Kamayani Soni'
tp1415
a(S'100002889475619'
S'Bhupendra Gupta Agam'
tp1416
a(S'100005322519364'
S'Parmar Jagdish'
tp1417
a(S'100005192413800'
S'Sapna Gupta'
tp1418
a(S'100002491504067'
S'\\u0921\\u0949. \\u092a\\u094d\\u0930\\u0940\\u0924 \\u0905\\u0930\\u094b\\u095c\\u093e'
tp1419
a(S'1238018442'
S'Vivek Mishra'
tp1420
a(S'100005790700944'
S'Deepak Kumar Raj'
tp1421
a(S'100000807631208'
S'Prem Vartan'
tp1422
a(S'100001778419241'
S'Kaushalendra Dekate'
tp1423
a(S'100001275226040'
S'Deepesh Shukla'
tp1424
a(S'100002360859400'
S'Alankar Rastogi'
tp1425
a(S'100006420793320'
S'Amitesh Pandey'
tp1426
a(S'100003538269514'
S'Alveena Saeed'
tp1427
a(S'100001507846780'
S'Gajanand Bohra'
tp1428
a(S'100001702731865'
S'Mukesh Singh'
tp1429
a(S'100000200306838'
S'Anand Sharma'
tp1430
a(S'100006908953901'
S'\\u0938\\u093f\\u0926\\u094d\\u0927\\u092a\\u0940\\u0920 \\u0928\\u0902\\u0926\\u093e \\u0926\\u0947\\u0935\\u0940 \\u0928\\u094c\\u091f\\u0940'
tp1431
a(S'100007537600294'
S'Anika Khanna'
tp1432
a(S'100004874316802'
S'Suman Uttam Singh'
tp1433
a(S'100002625168466'
S'Sachin Bhaduriya'
tp1434
a(S'100007374035566'
S'Sopna Roy'
tp1435
a(S'100004415857889'
S'Vishnudeo Dwivedi'
tp1436
a(S'100004184289836'
S'Sanatnanand Maharishi'
tp1437
a(S'100005763990344'
S'Puspanjali P. Sharma'
tp1438
a(S'100007463851880'
S'\\u0906\\u092e \\u0906\\u0926\\u092e\\u0940 \\u092a\\u093e\\u0930\\u094d\\u091f\\u0940'
tp1439
a(S'100004944181712'
S'Kusum Lata Arya'
tp1440
a(S'100006510409253'
S'Man Singh Thakur'
tp1441
a(S'100000598181462'
S'Sanjeev Kumar'
tp1442
a(S'100004935332949'
S'Mahendra Singh'
tp1443
a(S'100003525548034'
S'Rajesh Singh'
tp1444
a(S'100004565351563'
S'Kavi Kishor'
tp1445
a(S'100002252094947'
S'Dp Sharma'
tp1446
a(S'100003617775914'
S'Angel Sharma'
tp1447
a(S'100005925784746'
S'Neelam Shukla'
tp1448
a(S'100005066411157'
S'Shree Hari'
tp1449
a(S'100002063101544'
S'Gupta Sanjay'
tp1450
a(S'100003927991686'
S'Ajay Kumar Rishi'
tp1451
a(S'100000092031083'
S'Chandan Pratihast'
tp1452
a(S'100002589621370'
S'Manjula Acharya'
tp1453
a(S'100002977337174'
S'Jyotish P. Mukunda Acharya'
tp1454
a(S'100006224766055'
S'Shivam Singh'
tp1455
a(S'100003899855182'
S'Mahesh Kumar Shukla'
tp1456
a(S'100003153699530'
S'Kunwar Hemendra Singh'
tp1457
a(S'100006843487910'
S'Nks Ngo'
tp1458
a(S'100006070837468'
S'Pooja Sagat'
tp1459
a(S'100004669839618'
S'Neha Sharma'
tp1460
a(S'100000198241778'
S'Rajendra Dubey'
tp1461
a(S'100002753249194'
S'Rahul RD Mehta'
tp1462
a(S'100004148734067'
S'Kunwar Vikram Singh Chandel'
tp1463
a(S'100004714026890'
S'Faiza Rana'
tp1464
a(S'100001673735722'
S'Yogesh Mishra'
tp1465
a(S'100002735752773'
S'Surya Singh'
tp1466
a(S'100007125104396'
S'\\u0917\\u093c\\u091c\\u093c\\u0932 \\u092e\\u0902\\u091a'
tp1467
a(S'100003348638705'
S'Vikas Singh'
tp1468
a(S'1156198076'
S"\\u0930\\u093e\\u091c\\u0947\\u0928\\u094d\\u0926\\u094d\\u0930 \\u0938\\u093f\\u0902\\u0939 \\u0915\\u0941\\u0901\\u0935\\u0930 '\\u092b\\u0930\\u093f\\u092f\\u093e\\u0926\\u0940'"
tp1469
a(S'100006634531137'
S'Shenoa China Mu\\u00f1oz'
tp1470
a(S'100002971869957'
S'Kunwar Bhawani Singh Naruka'
tp1471
a(S'100005845869300'
S'F.b. Journalist'
tp1472
a(S'100002923250170'
S'Daulat Singh Inda Gopalsar'
tp1473
a(S'100002213052544'
S'Mahesh Singh'
tp1474
a(S'100002315712172'
S'Kalabhai Jotva'
tp1475
a(S'100006812970422'
S'Swanimesh Raj'
tp1476
a(S'100002412517918'
S'Asha Sharma'
tp1477
a(S'100000417853731'
S'Amir Shabbir'
tp1478
a(S'100002947138752'
S'Shyam Singh Rana'
tp1479
a(S'100005464170607'
S'Amit Pundir'
tp1480
a(S'100004470451329'
S'Sandeep Hans Raj'
tp1481
a(S'100008250572154'
S'Shikha Saxena'
tp1482
a(S'100000387777085'
S'Satyasheel Srivastava'
tp1483
a(S'100008260082116'
S'Meera Mishra'
tp1484
a(S'100003180825633'
S'Barfaniswar Mahadev'
tp1485
a(S'100003012677358'
S'Adv Jaya Nair'
tp1486
a(S'100004529522873'
S'Ashu Himanshu Goel'
tp1487
a(S'100003628375072'
S'RN Singh'
tp1488
a(S'100001417661432'
S'Uma Chadha'
tp1489
a(S'100003281495138'
S'Jitendra Singh'
tp1490
a(S'100005549647673'
S'Ashok Alok'
tp1491
a(S'100003803330202'
S'Kumar Akumar'
tp1492
a(S'1499584111'
S'Vipan Kumar Ahuja'
tp1493
a(S'100004426991487'
S'Savit Shukla'
tp1494
a(S'100000152286180'
S'Arun Singh'
tp1495
a(S'100003309188885'
S'\\u0936\\u093f\\u0935\\u093e \\u0915\\u093e\\u0902\\u0924 \\u092e\\u093f\\u0936\\u094d\\u0930'
tp1496
a(S'100003259928693'
S'Sandeep Hans Raj'
tp1497
a(S'100002142928632'
S'Prem Lal Sharma'
tp1498
a(S'100000087615475'
S'Elis Kumara Djati'
tp1499
a(S'100003919861776'
S'Surendra Dubey'
tp1500
a(S'100001571991518'
S'Pawan Kumar Jain'
tp1501
a(S'100001203010602'
S'Rishabh Jain'
tp1502
a(S'100002161224132'
S'Sunil Verma'
tp1503
a(S'1101342564'
S'Ajay Agrawal'
tp1504
a(S'100004236722628'
S'Dharmendra Singh'
tp1505
a(S'100006040537106'
S'Er Dilesh Kumar Shukla'
tp1506
a(S'100007039026689'
S'Riya Dubey'
tp1507
a(S'100005336590358'
S'Bhaskar Sukla'
tp1508
a(S'100004568321053'
S'Nasib Patel'
tp1509
a(S'100005758021044'
S'Navin Tiwari'
tp1510
a(S'100007979167182'
S'Piu Sen'
tp1511
a(S'100006093938806'
S'\\u0938\\u0941\\u092e\\u093f\\u0924\\u093e \\u0924\\u094d\\u0930\\u093f\\u0935\\u0947\\u0926\\u0940 \\u0938\\u092b\\u093c\\u0940\\u0928\\u093e'
tp1512
a(S'100002824848290'
S'Surjeet Kumar'
tp1513
a(S'100003983561731'
S'Dhanesh Poddar'
tp1514
a(S'100007827399422'
S'Kavi Rajiv Raju'
tp1515
a(S'100003245787404'
S'Suneeta Saraf'
tp1516
a(S'100002087064088'
S'Rajesh Chawla'
tp1517
a(S'100001366385305'
S'Ashwini Kumar Purohit'
tp1518
a(S'100005391065897'
S'Shree Dhar Mishra'
tp1519
a(S'100008142392318'
S'Alka Setia'
tp1520
a(S'100008131837878'
S'Ganesh Nanhe'
tp1521
a(S'100001663320782'
S'Ravii Kumarr'
tp1522
a(S'100002325175542'
S'Ranjini Ghosh'
tp1523
a(S'100000753472164'
S'Ramendra Singh Astrobhadauria'
tp1524
a(S'100002789336400'
S'Jessi Rani'
tp1525
a(S'1320332775'
S'Jitendra Singh'
tp1526
a(S'100000112370408'
S'Varun Kumar Jaiswal'
tp1527
a(S'100007903570203'
S'Kabeer Ahmad'
tp1528
a(S'100003067438889'
S'Shyam Kumar Srivastava'
tp1529
a(S'100004670765250'
S'Literaturein India'
tp1530
a(S'100006840909495'
S'Dinesh Mishra'
tp1531
a(S'100003719027516'
S'Chandan Rathore'
tp1532
a(S'1352877197'
S'Rajnish Kant'
tp1533
a(S'100004840591722'
S'Surendrsingh Thakur'
tp1534
a(S'100003364568635'
S'Jai Prakash Roy'
tp1535
a(S'100003159183436'
S'RaJu Kumawat Nangal'
tp1536
a(S'100002025651615'
S'\\u0921\\u0940.\\u092a\\u0940. \\u0926\\u0941\\u092c\\u0947'
tp1537
a(S'100005498084405'
S'Prem Lata'
tp1538
a(S'100001398831869'
S'Shambhu Nath Pandey'
tp1539
a(S'642985390'
S'Sharad Rai'
tp1540
a(S'100000206803157'
S'Laxmi Narayan'
tp1541
a(S'100002606881040'
S'Shashikant Mishra'
tp1542
a(S'100002949694462'
S'Shipra Jain'
tp1543
a(S'100001511147392'
S'\\u091c\\u0917\\u0926\\u0940\\u0936 \\u092a\\u093e\\u0902\\u0921\\u0947\\u092f'
tp1544
a(S'100007307791449'
S'Sreeja Kumari'
tp1545
a(S'100007997890246'
S'Husna Bano'
tp1546
a(S'100004121141831'
S'Priety Singh Chauhan'
tp1547
a(S'100002659521949'
S'Lakshmi Kant Tripathi'
tp1548
a(S'100005916330509'
S'Anju Sharma'
tp1549
a(S'100004045190529'
S'Vimal Kumar'
tp1550
a(S'100003487721247'
S'Sunita Ghosh'
tp1551
a(S'100000545877511'
S'Sunny Hira'
tp1552
a(S'100003611565688'
S'Pooja Panchani'
tp1553
a(S'100000368328426'
S'Arvind Chaturved'
tp1554
a(S'100003262763995'
S'Harisingh Rathore'
tp1555
a(S'1755324702'
S'Darshan Baweja'
tp1556
a(S'100007548420299'
S'Biswajit Maity'
tp1557
a(S'100007808705963'
S'Chandana Sarkar'
tp1558
a(S'100002467850447'
S'Ashok Sharma'
tp1559
a(S'100005695325562'
S'Yashbhansingh Tomar'
tp1560
a(S'100007248187328'
S'Kamal Saxena'
tp1561
a(S'1693790183'
S'Pratik Maheshwari'
tp1562
a(S'100007579535298'
S'Anzar Pasha'
tp1563
a(S'100003282676736'
S'Rahul Gawree'
tp1564
a(S'100000733281158'
S'\\u0927\\u0902\\u0928\\u091c\\u092f \\u092e\\u093f\\u0936\\u094d\\u0930\\u093e'
tp1565
a(S'100001735272640'
S'Sandip Vashist'
tp1566
a(S'100005695146319'
S'Neetu Singh'
tp1567
a(S'100004248489304'
S'Sidharth Singh'
tp1568
a(S'100002768972703'
S'Balraj Mandad'
tp1569
a(S'100002714024103'
S'Shivani Chauhan'
tp1570
a(S'1757966072'
S'Amar Singh Rathore'
tp1571
a(S'100007957744361'
S'Vikash Mishra'
tp1572
a(S'100006893585400'
S'Narayan Singh Bika Sodhwali'
tp1573
a(S'100004595195740'
S'Anup Kumar Saxena'
tp1574
a(S'100006603941729'
S'Ramawati Sharma'
tp1575
a(S'100003114099865'
S'\\u0915\\u0941\\u0936\\u093e\\u0917\\u094d\\u0930 \\u092e\\u093f\\u0936\\u094d\\u0930'
tp1576
a(S'100006314677916'
S'Malek Mahmmad R'
tp1577
a(S'100003992520921'
S'\\u0915\\u0935\\u093f \\u0921\\u0949 \\u0928\\u0930\\u0947\\u0936 \\u0938\\u093e\\u0917\\u0930'
tp1578
a(S'100003971872680'
S'Negi Ji'
tp1579
a(S'100006812318788'
S'Mahendra Sharma'
tp1580
a(S'100005340492268'
S'Kripalu Shyam'
tp1581
a(S'100004086603735'
S'Kavita Gupta'
tp1582
a(S'100002664879455'
S'Subhra Bagchi'
tp1583
a(S'100004055179274'
S'Dalpat Singh Chouhan Bhata'
tp1584
a(S'100003155616406'
S'Ramesh Tripathi'
tp1585
a(S'100006916094073'
S'Anuradha Singh'
tp1586
a(S'100000116038696'
S'Padma Sharma'
tp1587
a(S'100002823408119'
S'\\u0930\\u093e\\u0939\\u0941\\u0932 \\u0938\\u093f\\u0902\\u0939 \\u092a\\u0930\\u092e\\u093e\\u0930'
tp1588
a(S'100001042623730'
S'Chainsingh Shekhawat'
tp1589
a(S'100000627610262'
S'JS Parmar'
tp1590
a(S'100002238458904'
S'Avdhesh Nigam'
tp1591
a(S'100000933922005'
S'Durgesh Verma'
tp1592
a(S'100004831302581'
S'\\u0939\\u093f\\u0902\\u0926\\u0940 \\u0938\\u092e\\u092f'
tp1593
a(S'100000728538218'
S'Pawan Nishant'
tp1594
a(S'1819497206'
S'Shailendra Khare'
tp1595
a(S'100000687231349'
S'Astroveda Bhadauria'
tp1596
a(S'100001279442333'
S'Ashok Moti'
tp1597
a(S'100001693989574'
S'Bk Sanjaykumar'
tp1598
a(S'100002369449724'
S'Anita Gautam'
tp1599
a(S'100006147012261'
S'Parna Dey'
tp1600
a(S'100000508281072'
S'Akash Tiwari'
tp1601
a(S'100006026528768'
S'Suma Mahindhar'
tp1602
a(S'100004216896791'
S'Raj Rajeshwar'
tp1603
a(S'100000996009855'
S'Raj Dubeuy'
tp1604
a(S'100005077330890'
S'Devendra Kumar'
tp1605
a(S'100003836231096'
S'Neetu Chouhan'
tp1606
a(S'100002246874687'
S'Reema Lamba'
tp1607
a(S'100004452150247'
S'Rekha Singh'
tp1608
a(S'100005446148104'
S'Alina Fatima'
tp1609
a(S'100006350911698'
S'\\u0915\\u0935\\u093f \\u092e\\u094b\\u0939\\u093f\\u0924 \\u092a\\u0942\\u0928\\u092b\\u0947\\u0930'
tp1610
a(S'100006662070375'
S'Etisri Mohapatra'
tp1611
a(S'100003456771528'
S'Amar Singh Rajpoot'
tp1612
a(S'100007389601277'
S'Syed Rokibul Islam'
tp1613
a(S'100001632206498'
S'DS Bhadauria'
tp1614
a(S'100000008972674'
S'Akhilesh Krishna Mohan'
tp1615
a(S'100001456261829'
S'Chaudhary Ashok'
tp1616
a(S'100003203047058'
S'Naveen Sharma'
tp1617
a(S'100002592020626'
S'Sanjay Salunke'
tp1618
a(S'100000478405296'
S'Sangita Vedia'
tp1619
a(S'100005643306709'
S'Rbs Pushkar'
tp1620
a(S'100005694191861'
S'Pooja Pandey'
tp1621
a(S'100005118400697'
S'Anirudh Sinha'
tp1622
a(S'100008040991713'
S'Tara Bisht'
tp1623
a(S'100002596925820'
S'Pawan Bharat Tiwari'
tp1624
a(S'100007659248983'
S'Yashbir Yadav'
tp1625
a(S'100001981978388'
S'Satish Shukla'
tp1626
a(S'100007361613529'
S'Maushmi Singh Rajput'
tp1627
a(S'1384497422'
S'Baadal Chaudhary'
tp1628
a(S'100008115403370'
S'Dushyant Kumar Sangrahalay'
tp1629
a(S'100002551548365'
S'Praveen Awashti'
tp1630
a(S'100001265422932'
S'Ghufran Sajid'
tp1631
a(S'1783964351'
S'Pooja Chaudhary'
tp1632
a(S'100003707466466'
S'Pawan Mishra'
tp1633
a(S'100003134140830'
S'Vikash Kumar'
tp1634
a(S'100002186513951'
S'\\u0905\\u092d\\u093f\\u0928\\u0935 \\u092c\\u093e\\u0932\\u092e\\u0928 \\u092a\\u0924\\u094d\\u0930\\u093f\\u0915\\u093e'
tp1635
a(S'100007231449121'
S'Dipeka Jha'
tp1636
a(S'100005887334519'
S'Poonam Don'
tp1637
asS'id'
p1638
S'100003330061541'
p1639
s.