(dp1
S'name'
p2
S'Satyajit Behuria'
p3
sS'current_class'
p4
S'india'
p5
sS'home_class'
p6
Vbhubaneshwar, odisha, india
p7
sS'home_text'
p8
VBhubaneswar, India\u000aHometown
p9
sS'current_link'
p10
Vhttps://www.facebook.com/l.php?u=https%3A%2F%2Fwww.bing.com%2Fmaps%2Fdefault.aspx%3Fv%3D2%26pc%3DFACEBK%26mid%3D8100%26where1%3D20.27000100784%252C%2B85.838928222656%26name%3DBhubaneswar%252C%2BIndia%26mkt%3Den-IN&h=OAQGc5-a4&s=1
p11
sS'home_link'
p12
Vhttps://www.facebook.com/l.php?u=https%3A%2F%2Fwww.bing.com%2Fmaps%2Fdefault.aspx%3Fv%3D2%26pc%3DFACEBK%26mid%3D8100%26where1%3D20.27000100784%252C%2B85.838928222656%26name%3DBhubaneswar%252C%2BIndia%26mkt%3Den-IN&h=nAQGTtK7j&s=1
p13
sS'current_text'
p14
VBhubaneswar, India\u000aCurrent City
p15
sS'friends'
p16
(lp17
(S'100001191491744'
S'Satyajit Behuria'
tp18
asS'id'
p19
S'100001191491744'
p20
s.