(dp1
S'friends'
p2
(lp3
(S'682834531'
S'Syed Aftab Ali Nizami'
tp4
a(S'1090240340'
S'Mazhar Hussain'
tp5
a(S'100002212071921'
p6
S'Haroon Ashraf'
tp7
a(S'100005450912050'
S'Afzaal Jutt'
tp8
a(S'100001004675376'
S'Bilal Jutt'
tp9
a(S'100001349009006'
S'Sangtarash Newspaper'
tp10
a(S'100002267682605'
p11
S'Farhan Qureshi'
tp12
a(S'100003996300050'
S'Lubna Khan'
tp13
a(S'637145487'
S'Waseem Ahmad'
tp14
a(S'1025535615'
p15
S'Arshad Hussain'
tp16
a(S'100001824326154'
p17
S'Malika Mnadeem'
tp18
a(S'100003587348193'
S'Manzoor Hussain'
tp19
a(S'100004551074123'
S'Rashid Shah'
tp20
a(S'100005469784142'
p21
S'Mehmood Malik'
tp22
a(S'100001672287422'
S'Niaz Lashari'
tp23
a(S'100002348358941'
S'Subay Banao Tahreek Pakistan'
tp24
a(S'100006587229304'
S'Usman Khan Bhatti'
tp25
a(S'100003377215490'
S'Mudawa Ngo'
tp26
a(S'100001072107813'
p27
S'Iqbal Ka Shaheen Qadir'
tp28
a(S'610414882'
S'Afridi King'
tp29
a(S'100007844910800'
S'Haji Naseebulla Khan Achakzai'
tp30
a(S'100000442203168'
p31
S'Khake Madina'
tp32
a(S'613221679'
S'Zahid Nawaz'
tp33
a(S'100003870838018'
S'Shuja Cheema'
tp34
a(S'100006996634673'
S'Ali Arab'
tp35
a(S'100008006738760'
S'Touqer Yasir'
tp36
a(S'100003151793452'
S'Alyan Ghumman'
tp37
a(S'100007280914790'
S'Eurotimes Belgium'
tp38
a(S'100008354496383'
S'Fast NewsPakistan'
tp39
a(S'100003773168288'
p40
S'Pak Serzameen Meri Jan'
tp41
a(S'100005841817557'
p42
S'Ali Rehman'
tp43
a(S'100007257492978'
S'Arfanews Pak'
tp44
a(S'100000277108872'
S'\\u0642\\u0648\\u0645\\u06cc \\u0622\\u0648\\u0627\\u0632'
tp45
a(S'100003833183085'
p46
S'Sehrish Alam'
tp47
a(S'1483233503'
p48
S'Hum Sab Ka Pakistan'
tp49
a(S'100002507854223'
p50
S'Umer Malik'
tp51
a(S'100000636130409'
S'Asad Awan'
tp52
a(S'100005607039292'
S"Pakistan People's Alliance-Fariha"
tp53
a(S'781565550'
S'Abdul Mateen Khan'
tp54
a(S'100000524638883'
S'Kashif Latif'
tp55
a(S'100000746836812'
S'Munawar Sabir'
tp56
a(S'100003858684547'
S'Adam Qadir Buksh'
tp57
a(S'100002495323207'
S'Khizar Hayat'
tp58
a(S'100000154407338'
S'Saifullah Syed'
tp59
a(S'100003139617312'
p60
S'Muhammad Husnain'
tp61
a(S'754551644'
p62
S'Adil Shahid'
tp63
a(S'100003232078514'
p64
S'Jehanzeb Gondal'
tp65
a(S'100000903247118'
p66
S'Fakhre Pakistan'
tp67
a(S'100004260399275'
p68
S'Saniya Anum'
tp69
a(S'100001571998853'
S'Syed Nazim Ali Nizami'
tp70
a(S'100003239213978'
S'Rukh Ch'
tp71
a(S'598984031'
S'Aamir Riaz Toto'
tp72
a(S'100000208062147'
p73
S'Time To Capture India'
tp74
a(S'100006109657912'
S'Mohammad Farooq'
tp75
a(S'100002479485417'
p76
S'Aashir Munir'
tp77
a(S'1121391114'
S'Aamirvaqeel Minhas'
tp78
a(S'100004746554255'
p79
S'Bol Pakistan Bol'
tp80
a(S'100002600226393'
S'Syed Shahrukh Shah'
tp81
a(S'100002213193765'
p82
S'Waseem Hussain'
tp83
a(S'100002927333185'
p84
S'Gumnaam Spahi'
tp85
a(S'100004455460985'
p86
S'Rabia Baloch'
tp87
a(S'1379581886'
S'Wasim Saleem'
tp88
a(S'100004341369602'
S'Mehar Naseer Ahmad Chaudhary'
tp89
a(S'100003652115805'
S'Shamshad Khan Ghori'
tp90
a(S'100003791608053'
S'Niatpac Meean'
tp91
a(S'100004567983653'
S'Khan Fahad Khan'
tp92
a(S'612480263'
p93
S'Scheherryaarr Sajid'
tp94
a(S'100000268756151'
S'Bbc Urdu'
tp95
a(S'100005146327710'
p96
S'Chaudhry Luqman'
tp97
a(S'100000803163907'
S'Muhammad Asif Ullah Khan'
tp98
a(S'100008031064728'
S'Arif Shahzad'
tp99
a(S'100006109842448'
p100
S'Awaz E Pakistan'
tp101
a(S'100005739455864'
p102
S'Asif Mansoor'
tp103
a(S'100008368540324'
S'Sahafat Islamabad'
tp104
a(S'100008018646412'
S'Gazi Abu Talha'
tp105
a(S'100008270312368'
S'Sarwat Ppm'
tp106
a(S'100007985284985'
S'Zara Baloch'
tp107
a(S'100004046320034'
S'Mukhtar Ahmed'
tp108
a(S'100006071230998'
S'\\u00d4\\u00f1\\u00ea M\\u00e5\\u00f1 \\u00c5rm\\u00fd'
tp109
a(S'1231071564'
S'Momina Imran'
tp110
a(S'100005730131573'
p111
S'Nasir Shams Khatak'
tp112
a(S'100000196620468'
S'Sarwar Nisar'
tp113
a(S'100004733071359'
S'Bol Aaj'
tp114
a(S'100003900370422'
S'Qaiser Mehmood'
tp115
a(S'100001669544920'
p116
S'Ashraf Nawaz'
tp117
a(S'1174222699'
S'Salman Sheik'
tp118
a(S'100006695680832'
p119
S'Hamid Qureshi'
tp120
a(S'100001827898337'
p121
S'Mujtaba Ahmed'
tp122
a(S'100008259392378'
S'JatrophaBiodiesel Forumpakistan'
tp123
a(S'100006485805215'
p124
S'Iffi Sheikh'
tp125
a(S'100000579922983'
p126
S'Fuaad Alawi'
tp127
a(S'100002940986703'
S'Hafeez Tabassum'
tp128
a(S'100003874886283'
p129
S'Mehar Ali Hassan'
tp130
a(S'100004614461317'
p131
S'Mir Jan'
tp132
a(S'100005070371142'
S'Faisal Awan'
tp133
a(S'1356885427'
S'Rana Muhammad Sharif Sajid'
tp134
a(S'100004009855403'
p135
S'Abrar Bhai'
tp136
a(S'100001831655785'
S'Lahore Ki Awaz'
tp137
a(S'100003909556698'
S'Mudawa Ngo Karachi'
tp138
asS'id'
p139
S'100000979062472'
p140
sS'name'
p141
S'Hamid Qureshi'
p142
s.