(dp1
S'friends'
p2
(lp3
(S'100000978641102'
S'\\u8449\\u8ed2\\u5ef7'
tp4
a(S'100003038321446'
S'Sani Yadav'
tp5
a(S'1705106704'
S'Shivam Kotwal'
tp6
a(S'1756918370'
S'Lakshit Singh Rawat'
tp7
a(S'1002413866'
S'Khare Ojas'
tp8
a(S'100000322251628'
S'Aronn Angelo Rosales Noel'
tp9
a(S'100000703018397'
S'Ayush Rai'
tp10
a(S'100002611122296'
S'Samuel Thangluai'
tp11
a(S'1690546504'
S'Apoorv Chetan'
tp12
a(S'1838943911'
S'Harman Kour'
tp13
a(S'100003064206752'
S'Shakti Singh Arya'
tp14
a(S'100000642283684'
S'Nishi Pandey'
tp15
a(S'1702591038'
S'Yadvendra Pal Singh'
tp16
a(S'100006554889595'
S'Li Able'
tp17
a(S'100007433440330'
S'Sam  Peng'
tp18
a(S'100006271661620'
S'Satish Barthwal'
tp19
a(S'100002734546767'
S'Somya Ohri'
tp20
a(S'1745587305'
S'Sambit Mohanty'
tp21
a(S'100001300032771'
S'Sajal Agarwal'
tp22
a(S'100000037643074'
S'Arnav Behera'
tp23
a(S'100000637920880'
S'Wani Adnan'
tp24
a(S'1328145572'
S'Anurag Banerjee'
tp25
a(S'100003959722031'
S'Ashvatth Verma'
tp26
a(S'100000005582640'
S'Kaushik Barman'
tp27
a(S'701538760'
S'Damla Ozdalga'
tp28
a(S'1809210907'
S'Syed Jaasirah Syedain'
tp29
a(S'1304161362'
S'Karan Gupta'
tp30
a(S'1845837419'
S'Ruchin Dwivedi'
tp31
a(S'100001193796282'
S'Devanuj Duara'
tp32
a(S'100001057303598'
S'Hamra Assyaima'
tp33
a(S'100002107220011'
S'Showtaro Kakizoe'
tp34
a(S'100001466359046'
S'Vaibhav Singh Chauhan'
tp35
a(S'100004350031614'
S'Robin John'
tp36
a(S'100001011335572'
S'Ashwin Gupta'
tp37
a(S'100000069098863'
S'Cyril Thomas'
tp38
a(S'100000316223775'
S'Raghav Rastogi'
tp39
a(S'100001453812837'
S'Ren Jie'
tp40
a(S'1304212681'
S'Ahmed H. Abd-El Rahman'
tp41
a(S'827309501'
S'Smriti Tripathi'
tp42
a(S'100003829266121'
S'Ajeet Tevatiya'
tp43
a(S'100001818137499'
S'Adithya Murali'
tp44
a(S'100003162711845'
S'Kinna Lam'
tp45
a(S'832474924'
S'Salaar Pirzada'
tp46
a(S'100000050921608'
S'Shubham Ruhela'
tp47
a(S'100003845250798'
S'Satwik Prabhu'
tp48
a(S'100001242238362'
S'Shivam Dixit'
tp49
a(S'100001422910479'
S'Ashish Mamgain'
tp50
a(S'1341105196'
S'Natia Karchava'
tp51
a(S'100001107777762'
p52
S'Souvik Biswas'
tp53
a(S'1264708135'
S'Saiket Talukdar'
tp54
a(S'100000692065691'
S'Kartik Gupta'
tp55
a(S'100000376114948'
S'Richa Mridul Srivastava'
tp56
a(S'803745827'
S'Avnika Jain'
tp57
a(S'100003663829100'
S'Divya Kundu'
tp58
a(S'1050888663'
S'Meenakshi Semwal'
tp59
a(S'643929160'
S'Adem Derinel'
tp60
a(S'1773296751'
S'Alok Menime Sharma'
tp61
a(S'100004587464116'
S'Narendra Choudhary'
tp62
a(S'100004233400678'
S'Ankit Dhanuka'
tp63
a(S'100006568179459'
S'Ye Hongzhou'
tp64
a(S'1648480473'
S'Mihan Ali'
tp65
a(S'1129119922'
S'Ashwin Lingaiah'
tp66
a(S'100000934338364'
S'Jordan Kinchum Tshering Namchu'
tp67
a(S'1834753019'
S'Hamza Afzal Khattak'
tp68
a(S'100000968165727'
S'Pritam Sankar Roychaudhuri'
tp69
a(S'100001171958828'
S'Basit Malik'
tp70
a(S'100002199897581'
S'Mihir Gupta'
tp71
a(S'100003320893725'
S'Eman Mohamed'
tp72
a(S'100000528335672'
S'Prayug Koirala'
tp73
a(S'100001331125105'
S'Arpit Tyagi'
tp74
a(S'1335949729'
S'Mohammad Anas Khan'
tp75
a(S'1402460207'
S'Saumya Dwivedi'
tp76
a(S'100008368118292'
S'Rajiv Gerald Pereira'
tp77
a(S'100000340818541'
S'Sagar Shubham'
tp78
a(S'1098813843'
S'Faraz Talha'
tp79
a(S'100005629600435'
S'Utkarsh Paarolia'
tp80
a(S'662030109'
S'Arima Bhatnagar'
tp81
a(S'1201299484'
S'Sudhir Pratap Singh Charan'
tp82
a(S'1849403534'
p83
S'Sanchit Sabhlok'
tp84
a(S'747908465'
S'Jyoti Prokash Biswas'
tp85
a(S'100002062073368'
S'Le Thanh Nhan'
tp86
a(S'100006537398544'
S'Tomomi  Kitade'
tp87
a(S'100004285687786'
S'Xinyuan Ma'
tp88
a(S'100000937744057'
S'Rajula Srivastava'
tp89
a(S'1023147759'
S'Kush Tripathi'
tp90
a(S'100001007823268'
S'Junya Sakurada'
tp91
a(S'100003693284527'
S'Theresa John Mangalath'
tp92
a(S'702251169'
S"Leroy Leo D'Souza"
tp93
a(S'100003813036504'
S'Remi  Kurata'
tp94
a(S'679642341'
S'Nikita Tejaswi Agnihotri'
tp95
a(S'100001059912619'
S'Raja Pandit'
tp96
a(S'100002848204733'
S'Merab Malishava'
tp97
a(S'100000928515927'
S'Emeritus Fadli Escobar'
tp98
a(S'100001238755770'
S'Zain Zubair'
tp99
a(S'100001093637987'
S'Maitraiyee Tiwari'
tp100
a(S'100000176245228'
S'Kaisarbek Omirzakhov'
tp101
a(S'1103001687'
S'Ajit Deshpande'
tp102
a(S'1168369468'
S'Omkar Kulkarni'
tp103
a(S'100000098349148'
S'Jamika Roque'
tp104
a(S'1731262971'
S'Mahnoor Sherazi'
tp105
a(S'1062266461'
S'Vinayak Aditya Singh'
tp106
a(S'100000240667927'
S'Rishi Chandani'
tp107
a(S'100001097787369'
S'Dipankar Gupta'
tp108
a(S'100001621527459'
S'Aritra Ghosh'
tp109
a(S'100001336967577'
S'Debayan Saha'
tp110
a(S'100001224360992'
S'Prakhar Sahu'
tp111
a(S'658057813'
S'Anushri Misra'
tp112
a(S'1337460254'
S'Mitali Poovayya'
tp113
a(S'100002270411937'
S'Rajeev Ghotar'
tp114
a(S'100005630703479'
S'Akiko Baba'
tp115
a(S'100001044305525'
S'Vaibhav Sinha'
tp116
a(S'100003461626260'
S'Motaram Jaat'
tp117
a(S'100000468052146'
S'Sosei Suzuki'
tp118
a(S'100001066887323'
S'Satyajit Gargori'
tp119
a(S'100000940023830'
S'Apoorv Sahay'
tp120
a(S'1850530321'
S'Marc Nath'
tp121
a(S'100002452672393'
S'Fazal Abbas Rizvi'
tp122
a(S'100001242734263'
S'Manas Raghuvanshi'
tp123
a(S'100003946359089'
S'Rajpal Luhaniwal'
tp124
a(S'1546855966'
S'Wali Hasan Rizvi'
tp125
a(S'100006491599448'
S'Shiho Kasai'
tp126
a(S'100000722529762'
S'Tanya Sharma'
tp127
a(S'100004129420334'
S'Kunal Yadav'
tp128
a(S'100000485837345'
S'Yashab Abbas'
tp129
a(S'100004122223178'
S'Rahul Dev'
tp130
a(S'597933121'
S'Abel Thayil'
tp131
a(S'100002173765340'
S'Tarun Sharma'
tp132
a(S'100001524481406'
S'Mohammed Abdul Quddus'
tp133
a(S'1241481613'
S'Reuben Das'
tp134
a(S'100000045652066'
S'Sonali Verma'
tp135
a(S'1196513350'
S'Vibhor Kapoor'
tp136
a(S'100002245687470'
S'Aditya Guha'
tp137
a(S'100004366412846'
S'Atima Shahi'
tp138
a(S'100002679478660'
S'Nitesh K. Mahlawat'
tp139
a(S'100005965212994'
S'Douglas  Zhang'
tp140
a(S'1023910858'
S'Kirtan Padh'
tp141
a(S'100001699698590'
S'Naman Tandon'
tp142
a(S'100001816047972'
S'Abhinav Baruah'
tp143
a(S'100006767885669'
S'Aditya Bhalla'
tp144
a(S'1405596835'
S'Tanisha Gupta'
tp145
a(S'100003341682315'
S'Yeon Jae  Kim'
tp146
a(S'719336539'
S'Vijaydeep Nagar'
tp147
a(S'100003775470137'
S'Gaurish Kant Shukla'
tp148
a(S'100000985400391'
S'Ayush Mehrotra'
tp149
a(S'100000150896699'
S'Kodai Minoura'
tp150
a(S'100007846711689'
S'Rachna Mishra'
tp151
a(S'1636857588'
S'Sung-Hyun Melonie Kim'
tp152
a(S'100000950946531'
S'Aviral Singh'
tp153
a(S'100004107336413'
S'Juhi Prasad'
tp154
a(S'1023416591'
S'Kanako Matsui'
tp155
a(S'100001988937930'
S'Chandrima Attri'
tp156
a(S'100003038951439'
S'Rohit Kumar'
tp157
a(S'612236172'
S'Mihir Kshir\\u00e9'
tp158
a(S'100001063891756'
S'Anshul Jindal'
tp159
a(S'100001049270359'
S'Mayank Bahadur Srivastava'
tp160
a(S'100000992422074'
S'Arnav Mohan'
tp161
a(S'100002640823344'
S'Deepak Kumar'
tp162
a(S'100001813786619'
S'Vishvender Dahiya'
tp163
a(S'545048072'
S'Prabhat Chatterjee'
tp164
a(S'100004220857878'
S'Rahul Kahler'
tp165
a(S'100002572389930'
S'Dipesh Kapil'
tp166
a(S'100001339593375'
S'Tejaswi Agnihotri'
tp167
a(S'100001607964265'
S'Raj Shekhar'
tp168
a(S'100000770972887'
S'Ron Vasya Vainshtein'
tp169
a(S'100000819827328'
S'Matthew Harcourt-Cooze'
tp170
a(S'1149478077'
S'Osman Rabbani'
tp171
a(S'100000144161227'
S'Tabish Jamal Bari'
tp172
a(S'1021654941'
S'Kishalay De'
tp173
a(S'100004034423986'
S'Ankur David Barrow'
tp174
a(S'531983727'
S'Jhooma Barthwal'
tp175
a(S'100000520807705'
S'Jongjun Lee'
tp176
a(S'548344709'
S'Raghav Dahuja'
tp177
a(S'100000922063314'
S'Anant Ram Mishra'
tp178
a(S'100000010498308'
S'Saif Rashid'
tp179
a(S'100001129147471'
S'Richa Panigrahi'
tp180
a(S'1780696499'
S'Saim Shujaat'
tp181
a(S'100006524349795'
S'Kana Yamamoto'
tp182
a(S'1645640382'
p183
S'Arjoonn Sharma'
tp184
a(S'100001083222641'
S'Madhul Trehan'
tp185
a(S'100002758578321'
S'Nimish Sharma'
tp186
a(S'100000332472637'
S'Sambodhi Sarkar'
tp187
a(S'1169466043'
S'Alisha Mobin'
tp188
a(S'100002090266942'
S'Diptaishik Choudhury'
tp189
a(S'100001451976068'
S'Hiroki Fukuda'
tp190
a(S'100001018947070'
S'Jatin Gajwani'
tp191
a(S'755552944'
S'Vikramaditya Singh'
tp192
a(S'100000979880835'
S'Ananta Joshi'
tp193
a(S'777776601'
S'Hiu Tung Tang'
tp194
a(S'744686099'
S'Ella Levinson'
tp195
a(S'706494303'
S'Ravi Gangal'
tp196
a(S'1470974740'
S'Kaito Ogiyama'
tp197
a(S'100001750260728'
S'Rishav Acharya'
tp198
a(S'100000169334300'
S'Jayant Istefanus Dharamjit'
tp199
a(S'100000581614662'
S'Abhinav Kumar'
tp200
a(S'100001001623991'
S'Kabyashree Sonowal'
tp201
a(S'100000955654931'
S'Vinayak Tewari'
tp202
a(S'1672677132'
S'Annu Malhotra'
tp203
a(S'100001040621014'
S'Abhimanyu Dhanda'
tp204
a(S'748497389'
S'Amil Bhatnagar'
tp205
a(S'1670814886'
S'Kriti Rastogi'
tp206
a(S'100002276390746'
S'Kokoro Tanihara'
tp207
a(S'1139761508'
S'Kumar Saumya'
tp208
a(S'100004989547636'
S'Aanchal Tiwari'
tp209
a(S'100000462738327'
S'Krishan Bishnoi'
tp210
a(S'1312204917'
S'Ribhav Pande'
tp211
a(S'100004040742358'
S'Aditendra Singh Chandel'
tp212
a(S'100003804879148'
S'Nikita Gupta'
tp213
a(S'100001896350154'
S'Joshua Drawbaugh'
tp214
a(S'1301229032'
S'Abhishek Bansal'
tp215
a(S'100000784786261'
S'Mishty Ray'
tp216
a(S'100002200782195'
S'Priya Arora'
tp217
a(S'100001063677102'
S'Sukrit Joshi'
tp218
a(S'100005918442478'
S'Raushan  Serikzhan'
tp219
a(S'523600817'
S'Bharat Bajaj Radix'
tp220
a(S'100003474711557'
S'Navdeep Sangwan'
tp221
a(S'1052973838'
S'Akshat Dwivedi'
tp222
a(S'100000017431622'
S'Tuhin Al-Imran'
tp223
a(S'1189750762'
S'Raghuvanshraj Saxena'
tp224
a(S'100000729152522'
S'Vidushi Agnihotri Chopra'
tp225
a(S'100006436637887'
S'Shri Ram'
tp226
a(S'100001740771789'
S'Tahir J Wani'
tp227
a(S'100000977829585'
S'Dhanraj Karel'
tp228
a(S'100000539031731'
S'Amaan Ahmad'
tp229
a(S'100001641160459'
S'Sudhanshu Singh Panwar'
tp230
a(S'100003670816812'
S'Swati Nigam'
tp231
a(S'100000078507383'
S'Swaviman Acharya'
tp232
a(S'100002334584246'
S'Samikshya Shrestha'
tp233
a(S'100001304534040'
S'Yuki Sekimori'
tp234
a(S'100002507078563'
S'Palak Agarwal'
tp235
a(S'1158685420'
S'Tanman Chaudhary'
tp236
a(S'100002935686759'
S'Bhupender Rathee'
tp237
a(S'100002403431652'
S'Kopal Dixit'
tp238
a(S'100000622956548'
S'Gagan Mahajan'
tp239
a(S'100000225223430'
S'Shivang Jha'
tp240
a(S'100004177770137'
S'Ankan Biswas'
tp241
a(S'100002618266627'
S'Ravinder Gulia'
tp242
a(S'100000593254449'
S'Parichay Mazumdar'
tp243
a(S'1636386248'
S'Shourya Awasthi'
tp244
a(S'100006470980163'
p245
S'Sohitri Ghosh'
tp246
a(S'100001095133061'
S'Isaac George Varghese'
tp247
a(S'625371904'
S'Pranav Gupta'
tp248
a(S'100001496123410'
S'Varun Shukla'
tp249
a(S'100000344934307'
S'Aayush Shukla'
tp250
a(S'100006842013679'
S'Tanya Sharma'
tp251
a(S'731848530'
S'Shruthi Ravindranath'
tp252
a(S'1697036325'
S'Ayush Agrawal'
tp253
a(S'1527039767'
S'Adithya Rajagopalan'
tp254
a(S'1071133000'
S'Yashi Singh'
tp255
a(S'684271591'
S'Rashi Lal'
tp256
a(S'100006656042092'
S'Xiang Gao'
tp257
a(S'1246042688'
S'Abdullah Reza'
tp258
a(S'100004607346576'
S'Akanksha Sinha'
tp259
a(S'100000067600638'
S'Mihir Kumar'
tp260
a(S'100006878554498'
S'Ayush Daryani'
tp261
a(S'100000836100942'
S'Dipti Roy'
tp262
a(S'100000717552078'
S'Rishav Mitra'
tp263
a(S'100001868386624'
S'Pranay Rastogi'
tp264
a(S'100000706667599'
S'Linnaeus Cruz'
tp265
a(S'100001910659470'
S'Snigdha Shukla'
tp266
a(S'100001284943791'
S'Mahnoor Malik'
tp267
a(S'100001164333203'
S'Dhruv Singhal'
tp268
a(S'100003003608068'
S'Shubhankar Tomar'
tp269
a(S'100001660282961'
S'Rajashik Tarafder'
tp270
a(S'1844620697'
S'Ayushee Mishra'
tp271
a(S'100000729759879'
S'Jeffrey Mathews'
tp272
a(S'1624092635'
S'Akash Verma'
tp273
a(S'1837492658'
S'Mukund Marodia'
tp274
a(S'100000141917210'
S'Shubham Gupta'
tp275
a(S'1451606630'
S'Sanchit Kapoor'
tp276
a(S'100000114999355'
S'Michelle Noble'
tp277
a(S'100001803875036'
S'Anh Tu\\u1ea5n Nguy\\u1ec5n'
tp278
a(S'100001460682059'
S'Pooja Manish'
tp279
a(S'100000057314562'
S'Prince Sunil Thomas'
tp280
a(S'100001259192242'
S'Kartik Rastogi'
tp281
a(S'100002527440425'
S'Deepak Chauhan'
tp282
a(S'100000132322591'
S'Or Naim'
tp283
a(S'100001352867068'
S'Viidush Srivastava'
tp284
a(S'1013815559'
S'Sunil Issar'
tp285
a(S'100000259300173'
S'David Martyn Vinluan'
tp286
a(S'1176842977'
S'Akshat Tandon'
tp287
a(S'100001224951429'
S'Sehba Aisha Iqbal'
tp288
a(S'100005363316502'
S'Rusiru Gambheera'
tp289
a(S'100003903872603'
S'Rhine Samajdar'
tp290
a(S'100000831402059'
S'\\u0627\\u062d\\u0645\\u062f \\u062d\\u0633\\u0628 \\u0627\\u0644\\u0644\\u0647'
tp291
a(S'100001585959116'
S'Puneet Chaudhary'
tp292
a(S'100002063331302'
S'Anjali Godyal'
tp293
a(S'1217208100'
S'Atyansh Jaiswal'
tp294
a(S'100004623853577'
S'Kaustubh Singh'
tp295
a(S'100000934188551'
S'Varunesh Chandra'
tp296
a(S'1645482384'
S'Dinidu Perera'
tp297
a(S'100004002299056'
S'Devang Srivastava'
tp298
a(S'100000306532962'
S'Shreshth Mishra'
tp299
a(S'100003030923787'
S'Ashish Sengar'
tp300
a(S'100004236704238'
S'Pragati Mishra'
tp301
a(S'100005100304836'
S'Anmol Virmani'
tp302
a(S'100003857840768'
S'Aakash Khurana'
tp303
a(S'220900122'
S'Prashant Bajpayee'
tp304
a(S'100001703958525'
S'Gandhi Study Circle'
tp305
a(S'100000519587260'
S'Piyush Khattar'
tp306
a(S'100001619042704'
S'Siddharth Pillai'
tp307
a(S'1319134637'
S'Ishan Taneja'
tp308
a(S'100001738034025'
S'Rajat Sarda'
tp309
a(S'100002257516932'
S'Sheryl Ding'
tp310
a(S'100002660655416'
S'Prakhar Srivastava'
tp311
a(S'1840311729'
S'Nishith Panigrahi'
tp312
a(S'1314388254'
S'Umang Gosain'
tp313
a(S'100004606053755'
S'Vaibhav Srivastava'
tp314
a(S'100002679945488'
S'Siddhant Saraswat'
tp315
a(S'100000215784669'
S'Pee Kay Dee'
tp316
a(S'100001307441728'
S'\\uc815\\ub3c4\\ud658'
tp317
a(S'100000219369283'
S'Anurag Dwivedi'
tp318
a(S'1593084569'
S'Sachu Sanil Chemmalakuzhy'
tp319
a(S'100002287993659'
S'Vivek Sharma'
tp320
a(S'100000153820553'
S'Mayank Sharma'
tp321
a(S'100002072603174'
S'Karan S Rajwar'
tp322
asS'id'
p323
S'100006484982593'
p324
sS'name'
p325
S'Ananya Mishra'
p326
s.