(dp1
S'friends'
p2
(lp3
(S'100008052639901'
S'Priya Jain'
tp4
a(S'100004649344835'
S'Dancer Abhishekh Dubey'
tp5
a(S'100003389712616'
S'Tanya Verma'
tp6
a(S'100007291811878'
S'Anand Kumar'
tp7
a(S'100006404133604'
S'Rakesh Samadder'
tp8
a(S'100007783294791'
S'Zeeshan Irasna'
tp9
a(S'100005552850216'
S'Shakti Sehrawat'
tp10
a(S'100005456351912'
S'Prit Kumar'
tp11
a(S'100004392849389'
S'Amit Kumar'
tp12
a(S'100008124634964'
S'Priya Rani'
tp13
a(S'100006501810848'
S'Angel Pihu'
tp14
a(S'100008271612635'
S'Niharika Kumari'
tp15
a(S'100004651961691'
S'Neha Ansari'
tp16
a(S'100005091217999'
S'Anjali Kumari'
tp17
a(S'100005573196467'
S'Pihu Kumari'
tp18
a(S'100008179864798'
S'Kriya Sharma'
tp19
a(S'100004442103035'
S'Ragini Sharma'
tp20
a(S'100005208158495'
S'Chavi Gupta'
tp21
a(S'100004355377704'
S'Shreya Roy'
tp22
a(S'100004881282507'
S'Kundan Kumar'
tp23
a(S'100004033910210'
S'Ruby Goyal'
tp24
a(S'100006004152968'
S'Krishna Raj'
tp25
a(S'100001528708506'
S'Radhika Shinde'
tp26
a(S'100004883730185'
S'Zoya Khan'
tp27
a(S'100006461960456'
S'Rishi Raj'
tp28
a(S'100006603133991'
S'Ravi Kumar'
tp29
a(S'100006817204946'
S'Shrdha Singh'
tp30
a(S'100006269923786'
S'Sameer Gupta'
tp31
a(S'100003266726812'
S'Rinku Singh'
tp32
a(S'100003564747764'
S'Saurav Bharti'
tp33
a(S'100003222035135'
S'Siya Sharma'
tp34
a(S'100006788734005'
S'Priyanka Negi'
tp35
a(S'100008273258484'
S'Sonika Choudhary'
tp36
a(S'100005712003810'
S'Salma Khan'
tp37
a(S'100005446980494'
S'Aaush Aaush Yadav'
tp38
a(S'100007955020939'
S'Krishna Arya'
tp39
a(S'100003727419862'
S'Komal Patel'
tp40
a(S'100006760599062'
S'Priya Agrawal'
tp41
a(S'100005153620250'
S'Priyanshu Mukesh'
tp42
a(S'100005784878703'
S'Manjeet Singh'
tp43
a(S'100008332871997'
S'Prashant Santwani'
tp44
a(S'100003879581992'
S'Vibhuti Singh'
tp45
a(S'100007884333944'
S'Rupendra Yadav'
tp46
a(S'100004765239869'
S'Aalok Raj'
tp47
a(S'100005695140449'
S'Neha Joshi'
tp48
a(S'100003194164436'
S'Richa Sharma'
tp49
a(S'100005157880007'
S'Angel Vernika'
tp50
a(S'100004007246549'
S'Ritika Sharma'
tp51
a(S'100007760317367'
S'Poja Rana'
tp52
a(S'100008152872360'
S'Anjali Kumari'
tp53
a(S'100005049763551'
S'Arun Sharma'
tp54
a(S'100008291174378'
S'Priya Sharma'
tp55
a(S'100007395039480'
S'Surendra Veer Kumar'
tp56
a(S'100008057610389'
S'Suman Verma'
tp57
a(S'100003989937555'
S'Shweta Kumari'
tp58
a(S'100006774976912'
S'Shama Qureshi'
tp59
a(S'100008046791877'
S'Mansi Sinha'
tp60
a(S'100007738778526'
S'Suman Gupta'
tp61
a(S'100005625848096'
S'Akash Gupta'
tp62
a(S'100006254742438'
S'Sameeksha Verma'
tp63
a(S'100004969980563'
S'Riya Sharma'
tp64
a(S'100003382455535'
S'Nigaar Khan'
tp65
a(S'100006892750829'
S'Rohit Kumar Gupta'
tp66
a(S'100004857935439'
S'Priyanka Priya'
tp67
a(S'100004393415916'
S'Nidhi Agarwal'
tp68
a(S'100005319484285'
S'Pooja Sharma'
tp69
a(S'100006973836277'
S'Anushka Verma'
tp70
a(S'100007698970709'
S'Md Imtiyaz'
tp71
a(S'100005782380354'
S'Pawan Kumar'
tp72
a(S'100007441626494'
S'Ambika Bulbul'
tp73
a(S'100006754060191'
S'Peehu Angel'
tp74
a(S'100006957761768'
S'Neha Sarma'
tp75
a(S'100003813682781'
S'Gudiya Chauhan'
tp76
a(S'100002275226596'
S'Priya Kumari'
tp77
a(S'100002508100954'
S'Priyanka Singh'
tp78
a(S'100005367454168'
S'Shurti Bhatla'
tp79
a(S'100007920331906'
S'Moni Kumari'
tp80
a(S'100005757996509'
S'Priyanka Kumari'
tp81
a(S'100008150432322'
S'Sonia Jain'
tp82
a(S'100008217844386'
S'Sunita Yadav'
tp83
a(S'100007705326449'
S'Vishweet Kumar'
tp84
a(S'100004665696286'
S'Roo Smith'
tp85
a(S'100001981749654'
S'Rohit Gupta'
tp86
a(S'100007397851335'
S'Ankita Sharma'
tp87
a(S'100006380858955'
S'Kamini Kumari'
tp88
a(S'100006750123560'
S'Isaan Raj'
tp89
a(S'100003231436518'
S'Nisha Sharma'
tp90
a(S'100005168740643'
S'Md Sajid Ali'
tp91
a(S'100005954791946'
S'Vishal Gupta'
tp92
a(S'100006270432095'
S'Mohit Kumar'
tp93
a(S'100007943310941'
S'Annu Jatav'
tp94
a(S'100002573384590'
S'Komal Patel'
tp95
a(S'100005863417415'
S'Aasika Kumari'
tp96
a(S'100002643442151'
S'Ankita Sharma'
tp97
a(S'100007552146588'
S'Kunal Yadav'
tp98
a(S'100006717759455'
S'Rohit Rajput'
tp99
a(S'100006149491932'
S'Radhika Sharma'
tp100
a(S'100003366214468'
S'Vikram Kumar'
tp101
a(S'100006944013433'
S'Sahil Chhl'
tp102
a(S'100003404251588'
S'Divya Sharma'
tp103
a(S'100003619654260'
S'Kavita Ramnauth'
tp104
a(S'100007980213638'
S'Aarohi Varma'
tp105
a(S'100008083622773'
S'Giriraju Giri'
tp106
a(S'100003311656326'
S'Bablu Paswan'
tp107
a(S'100005056599888'
S'Fiza Ansari'
tp108
a(S'100002405412437'
S'Priya Modanwal'
tp109
a(S'100003678568973'
S'Swati Kumari'
tp110
a(S'100003302444817'
S'P\\u00fbj\\u00e3 D\\u00e3s'
tp111
a(S'100003972130629'
S'Anggi Herni Baeclah'
tp112
a(S'100004358554481'
S'Nimanthi Oshadi'
tp113
a(S'100005543043199'
S'Shruti Yadav'
tp114
a(S'100007204323612'
S'Devendra Rana'
tp115
a(S'100006108871836'
S'Sahil Srivastava'
tp116
a(S'100003727447140'
S'Soni Priya'
tp117
a(S'100007427374014'
S'Deepak S Kumar'
tp118
a(S'100008206271113'
S'Anita Yadav'
tp119
a(S'100003994719127'
S'Sneha Patil'
tp120
a(S'100007279151922'
S'Anand Kumar'
tp121
a(S'100008116983877'
S'Puja Singh'
tp122
a(S'100007144327580'
S'Rahul Kumar'
tp123
a(S'100004074222013'
S'Lovely Kumari'
tp124
a(S'100004191840547'
S'Sweta Kumari'
tp125
a(S'100005281752878'
S'Nitesh Kumar'
tp126
a(S'100006031812258'
S'Suraj Yadav'
tp127
a(S'100002819180106'
S'Deepali Jain'
tp128
a(S'100003196115541'
S'Vinit Kumar Chourasia'
tp129
a(S'100008033075713'
S'Priyanka Rai'
tp130
a(S'100004031989361'
S'Prashant Semwal'
tp131
a(S'100004455903904'
S'Kundan Gupta'
tp132
a(S'100004882209034'
S'Rahul Gupta'
tp133
a(S'100003513383605'
S'Priya Gupta'
tp134
a(S'100005442572302'
S'Zoya Khan'
tp135
a(S'100007361108049'
S'Santosh Veer'
tp136
a(S'100008338489419'
S'Sanjeev Yadav'
tp137
a(S'100007987866414'
S'Sruti Singh'
tp138
a(S'100006658357709'
S'Priyanka Sharma'
tp139
a(S'100002472096473'
S'Sahil Kumar'
tp140
a(S'100002241910935'
S'Roshni Jain'
tp141
a(S'100003327735981'
S'Sonu Kumar'
tp142
a(S'100003451670684'
S'Neha Sharma'
tp143
a(S'100004668883596'
S'Saurav Gupta'
tp144
a(S'100007986007500'
S'Pintu Kumar'
tp145
a(S'100008374570358'
S'Aradhya Sinh'
tp146
a(S'100005057532030'
S'Neha Dubey'
tp147
a(S'100006277929854'
S'Joya Singh'
tp148
a(S'100001560262464'
S'Raj Kushwaha'
tp149
a(S'100007985553301'
S'Roshni Fuley'
tp150
a(S'100003362180272'
S'Alisha Khan'
tp151
a(S'100007503727061'
S'Swati Singh'
tp152
a(S'100004064024054'
S'Anamika Raj'
tp153
a(S'100004497364766'
S'AnuPam Kashyap'
tp154
a(S'100007193613225'
S'Charu Latha'
tp155
a(S'100007738715390'
S'Rimpi Nath'
tp156
a(S'100005573381471'
S'Pooja Singh'
tp157
a(S'100007745350154'
S'Neha Sharma'
tp158
a(S'100004453300500'
S'Deepika Kumari'
tp159
a(S'100001440739747'
S'Gupta Rahulucky'
tp160
a(S'100008207825216'
S'Poonam Yadav'
tp161
a(S'100008117922613'
S'Piya Joshi'
tp162
a(S'100002742441661'
S'Rahul Raj'
tp163
a(S'100006971559972'
S'Anjana Gupta'
tp164
a(S'100007396500972'
S'Piya Diwakar'
tp165
a(S'100006479291562'
S'Anushka Mehta'
tp166
a(S'100004771808495'
S'Purushotam Kumar'
tp167
a(S'100007905840122'
S'Sneha Arora'
tp168
a(S'100004007706963'
S'Aisha Pinky'
tp169
a(S'100008003378405'
S'Vishwanath Singh'
tp170
a(S'100007945477189'
S'Deepanjali Sahoo'
tp171
a(S'100006809103773'
S'Anand Raj'
tp172
a(S'100004106274937'
S'Ayesha Khanna'
tp173
a(S'100005322250823'
S'Raushan Kumar'
tp174
a(S'100003871247837'
S'Komal Arora'
tp175
a(S'100007904020073'
S'Neha Pandey'
tp176
a(S'100004794066517'
S'Jitendra Sinha'
tp177
a(S'100003718284361'
S'Beena K Krishnan'
tp178
a(S'100007853526821'
S'Anjali Kumari'
tp179
a(S'100004871408723'
S'Kavita Sharma'
tp180
a(S'100005137931894'
S'Sheetal Bhardwaj'
tp181
a(S'100006948013529'
S'Dolly Priya'
tp182
a(S'100002118601987'
S'\\u00c2n\\u00e2nd \\u015eh\\u00e1rm\\u00e4'
tp183
a(S'100004700136807'
S'Shrishty Kumari'
tp184
a(S'100006274626505'
S'Surbhi Singh'
tp185
a(S'100006738544743'
S'Payal Sinha'
tp186
a(S'100003984842297'
S'Amrita Sharma'
tp187
a(S'100002543273244'
S'Shruti Singh'
tp188
a(S'100005579230888'
S'Sneha Sinha'
tp189
a(S'100006138093156'
S'Mithali Raj'
tp190
a(S'100004310672142'
S'Nilani Chathurika'
tp191
a(S'100007916975108'
S'Pritish D Rox'
tp192
a(S'100007794282277'
S'Nitish Sharma'
tp193
a(S'100008084713770'
S'Khushboo Yadav'
tp194
a(S'100007297842494'
S'Suchit Gupta'
tp195
a(S'100003311874696'
S'Karan Verma'
tp196
a(S'100008062443053'
S'Neha Yadav'
tp197
a(S'100005608958731'
S'Naina Arya'
tp198
a(S'100006672396431'
S'Siksha Sinha'
tp199
a(S'100003666553684'
S'Dipak Upadhyay'
tp200
a(S'100006216852989'
S'Deepak Kumar'
tp201
a(S'100006417610601'
S'Rahul Kumar'
tp202
a(S'100007988924535'
S'Sakshi Jha'
tp203
a(S'100004015781452'
S'Kajal Patel'
tp204
a(S'100001527456802'
S'Anupam Kashyap'
tp205
a(S'100005250220651'
S'Payal Bhardwaj'
tp206
a(S'100004648870706'
S'Shikha Yadav'
tp207
a(S'100004478585889'
S'Priya Priya'
tp208
a(S'100006468214819'
S'Kishor Raj'
tp209
a(S'100002835084341'
S'Yushan Hasith'
tp210
a(S'100008172494025'
S'Janvi Jadhav'
tp211
a(S'100008099703974'
S'Neha Gupta'
tp212
a(S'100003100969390'
S'Varinder Singh'
tp213
a(S'100007184107318'
S'Vandna Kumari'
tp214
a(S'100007979226199'
S'Megha Mol'
tp215
a(S'100004264450418'
S'Kavya Sen'
tp216
a(S'100003711945946'
S'Shweta Sharma'
tp217
a(S'100007961946027'
S'Puja Kumari'
tp218
a(S'100006661891481'
S'Bhupendra Yadav'
tp219
a(S'100002994649412'
S'Raman Agrawal'
tp220
a(S'100003921838348'
S'Aakash Kumar'
tp221
a(S'100006005888669'
S'Raj Rakshit Waahi'
tp222
a(S'100006687642935'
S'Payal Shakya'
tp223
a(S'100008279192392'
S'Vinod Yadav'
tp224
a(S'100006274663613'
S'Aniket Kumar Gupta'
tp225
a(S'100006176017203'
S'Rishu Parmar'
tp226
a(S'100006400326509'
S'M\\u00eagh\\u00e5 J\\u00e5\\u00ef\\u00f1'
tp227
a(S'100008252045649'
S'Shweta Sharma'
tp228
a(S'100007752968691'
S'Jairam Kumar'
tp229
a(S'100008141281699'
S'Sampa Roy'
tp230
a(S'100003634605007'
S'Abhi Agarwal'
tp231
a(S'100004442380418'
S'Nishirita Agarwal'
tp232
a(S'100008156619698'
S'Jaydip Ojha'
tp233
a(S'100007962546501'
S'Parinita Chatterjee'
tp234
a(S'100002692319213'
S'Sonukumar Gupta'
tp235
a(S'100007616201772'
S'Pooja Singh'
tp236
a(S'100005377876063'
S'Isha Dewal'
tp237
a(S'100006004751696'
S'Aakash Singh'
tp238
a(S'100008155478876'
S'Aman Dubey'
tp239
a(S'100004465650875'
S'Ishita Jain'
tp240
a(S'100003275272795'
S'Dhiraj Singh'
tp241
a(S'100008242893218'
S'Sonu Kumar'
tp242
a(S'100007724250296'
S'Ramya Devi'
tp243
a(S'100006275911924'
S'Akansha Singh'
tp244
a(S'100005982253854'
S'Mayank Raj'
tp245
a(S'100006307085574'
S'Rani Kumari'
tp246
a(S'100005454967142'
S'Raja Kumar'
tp247
a(S'100006882190871'
S'Yash Gupta'
tp248
a(S'100004773850677'
S'Neha Singh'
tp249
a(S'100004857005604'
S'Rohit Rocking'
tp250
a(S'100003618256741'
S'Ayushi Singh'
tp251
a(S'100005793304475'
S'Misti Mishra'
tp252
a(S'100004027020150'
S'Deepa Kumari'
tp253
a(S'100003485135668'
S'Sikandar Paul'
tp254
a(S'100007856104881'
S'Missamrita Gupta'
tp255
a(S'100008252704468'
S'Ronit Roy'
tp256
a(S'100004856946764'
S'Om Tambe'
tp257
a(S'100005460935364'
S'Pooja Kumari'
tp258
a(S'100005129434912'
S'Manish Kumar'
tp259
a(S'100007561472601'
S'Vikas Yadav'
tp260
a(S'100000752351204'
S'Nida Pasha'
tp261
a(S'100008234525873'
S'Angel Rimi'
tp262
a(S'100005408191166'
S'Riya Raj Yadav'
tp263
a(S'100003249669383'
S'Sonam Priya'
tp264
a(S'100006672941509'
S'Sonali Singh'
tp265
a(S'100007527665234'
S'Poonam Singh'
tp266
a(S'100004381304247'
S'Shruti Sharma'
tp267
a(S'100008000073586'
S'Khusboo Singh'
tp268
a(S'100002449058350'
S'Prakash Aryan'
tp269
a(S'100004640466624'
S'Chandan Kumar Chankya'
tp270
a(S'100007935247031'
S'Khushboo Patel'
tp271
a(S'100006430284444'
S'Anjali Singh'
tp272
a(S'100006216513962'
S'Ruchi Sharma'
tp273
a(S'100003235923183'
S'Riya Singh'
tp274
a(S'100007590132780'
S'Aaditya Dhanraj'
tp275
a(S'100007996418589'
S'Ajeetabh Singh'
tp276
a(S'100004087471625'
S'Rishikesh Rajput'
tp277
a(S'100006412842526'
S'Komol Roy'
tp278
a(S'100003579263532'
S'Saroj Kumar Das'
tp279
a(S'100003850763599'
S'Suraj Indwar'
tp280
a(S'100004723724568'
S'Arushi Sinha'
tp281
a(S'100006709265128'
S'Sorhave Singh Chouhan'
tp282
a(S'100007926300328'
S'Poonam Kumari'
tp283
a(S'100007792124060'
S'Varsha Kumari Kumari'
tp284
a(S'100007677793587'
S'Priya Pandey'
tp285
a(S'100003517118476'
S'Angle Ankita'
tp286
a(S'100004441534181'
S'Sneha Sharma'
tp287
a(S'100004203183981'
S'Naina Singh'
tp288
a(S'100005658524598'
S'Aatish Singhaniya'
tp289
a(S'100002470933343'
S'Anshu Agarwal'
tp290
a(S'100002646513117'
S'Nancy Gupta'
tp291
a(S'100004688916107'
S'Puja Kumari'
tp292
a(S'100004276710804'
S'Prity Sinha'
tp293
a(S'100003900926158'
S'Rohit Gupta'
tp294
a(S'100007680728796'
S'Sonam Gupta'
tp295
a(S'100007622551736'
S'Arjun Kumar'
tp296
a(S'100007724080370'
S'Ravikumar Verma'
tp297
a(S'100007704810675'
S'Muskan Jain'
tp298
asS'id'
p299
S'100004787821656'
p300
sS'name'
p301
S'Kishor Kumar'
p302
s.