(dp1
S'name'
p2
S'Yogesh Panghal'
p3
sS'current_class'
p4
S'india'
p5
sS'home_class'
p6
Vbhiwani, haryana, india
p7
sS'home_text'
p8
VBhiwani\u000aHometown
p9
sS'current_link'
p10
Vhttps://www.facebook.com/l.php?u=https%3A%2F%2Fwww.bing.com%2Fmaps%2Fdefault.aspx%3Fv%3D2%26pc%3DFACEBK%26mid%3D8100%26where1%3D28.613900916609%252C%2B77.207794189453%26name%3DNew%2BDelhi%252C%2BIndia%26mkt%3Den-IN&h=OAQGc5-a4&s=1
p11
sS'home_link'
p12
Vhttps://www.facebook.com/l.php?u=https%3A%2F%2Fwww.bing.com%2Fmaps%2Fdefault.aspx%3Fv%3D2%26pc%3DFACEBK%26mid%3D8100%26where1%3D28.780000825207%252C%2B76.129760742188%26name%3DBhiwani%26mkt%3Den-IN&h=3AQF2uSAv&s=1
p13
sS'current_text'
p14
VNew Delhi, India\u000aCurrent City
p15
sS'friends'
p16
(lp17
(S'100000079426641'
S'Yatin Wadhwa'
tp18
a(S'100006055759045'
S'Ajay Jakhar'
tp19
a(S'100002489906974'
S'Him Gujran'
tp20
a(S'100003102364207'
S'Sarvesh Gaur'
tp21
a(S'100001868165820'
S'Sanket Tanwar'
tp22
a(S'100002477931516'
S'Sandeep Dhillon'
tp23
a(S'100004042193651'
S'Tushar Kakkar'
tp24
a(S'100002056030486'
S'Abhishek Singh'
tp25
a(S'100007951927323'
S'Juli Patasahani'
tp26
a(S'100003448913053'
S'Tribhuvan Bahuguna'
tp27
a(S'100000350978457'
S'Ashish Kumar'
tp28
a(S'100005739789016'
S'Karan Kumar'
tp29
a(S'100002016039440'
S'Rajput Londa'
tp30
a(S'100002561572327'
S'Aarti Tanwar'
tp31
a(S'100002966554266'
S'Komal Aggarwal'
tp32
a(S'1089855684'
S'Shahrookh Khan'
tp33
a(S'100000557994646'
S'Amit Thebr'
tp34
a(S'100004250594269'
S'Sakshi Garg'
tp35
a(S'100000798965406'
S'Kuldeep Bansal'
tp36
a(S'100000933096700'
S'Avantika Rohatgi'
tp37
a(S'100004058573710'
S'Manisha Garg'
tp38
a(S'100002913554406'
S'Gaurav Yadav'
tp39
a(S'567976723'
S'Mayank Modi'
tp40
a(S'631903503'
S'Srestha Dutta'
tp41
a(S'100001618994407'
S'Pinky Singh'
tp42
a(S'100001565771527'
S'Karishma Gupta'
tp43
a(S'100003314482901'
S'Asha Lakra'
tp44
a(S'100002197882620'
S'Ajay Singhmar'
tp45
a(S'100007014731988'
S'Mouna Reffas'
tp46
a(S'100001064778074'
S'Madan Reddy'
tp47
a(S'100002415457242'
S'Gaurav Andani'
tp48
a(S'100002540233125'
S'Mahesh Singh'
tp49
a(S'100003206410242'
S'Deepa Gandhi'
tp50
a(S'100000098604177'
S'Mandeep Singh Anand \\u0a74'
tp51
a(S'100001610138272'
S'Amol Dhaytadak'
tp52
a(S'100002898776714'
S'Akshita Aggarwal'
tp53
a(S'100002534522733'
S'Rohit Cool'
tp54
a(S'100000968705808'
S'Utsav Mehra'
tp55
a(S'100001989894007'
S'Ankur Dhull'
tp56
a(S'100001627007168'
S'Faaiq Murtaza'
tp57
a(S'100003311208475'
S'Sakshi Shukla'
tp58
a(S'100002145233951'
S'Deepak Sethi'
tp59
a(S'100002052321666'
S'Priyanka Chauhan'
tp60
a(S'1479151743'
S'Lakshay Mehta'
tp61
a(S'100002320522909'
S'Bhuvan Chawla'
tp62
a(S'637923159'
S'Naveen Harchand'
tp63
a(S'100000355599211'
S'Ayushi Nain'
tp64
a(S'100002983277104'
S'Yogesh Payala'
tp65
a(S'100002575704174'
S'Harshit Karwa'
tp66
a(S'100001862812480'
S'Tarun Aggarwal'
tp67
a(S'100003643735126'
S'Manish Panghal'
tp68
a(S'100005878356087'
S'Nikhil Prakash'
tp69
a(S'100002377880465'
S'Rahul Mehta'
tp70
a(S'100000702074075'
S'Puneet Mittal'
tp71
a(S'100002489672874'
S'Rohit Yadav'
tp72
a(S'100002122985332'
S'Ajay PJ'
tp73
a(S'100002382404340'
S'Manoj Bhardwaj'
tp74
a(S'1170511822'
S'Abirami Abi'
tp75
a(S'100001012160474'
S'Pankaj Roy'
tp76
a(S'100001903135950'
S'Abhishek Sharma Asri'
tp77
a(S'100001862414049'
S'Yogender Singh Shekhawat'
tp78
a(S'100001609432404'
S'Kamlesh Singh'
tp79
a(S'100003389681174'
S'Suman Dhillon'
tp80
a(S'1757694753'
S'Anuj Kumar'
tp81
a(S'100000911013072'
S'Sanchit Goyal'
tp82
a(S'100000241416780'
S'Lokesh Singh'
tp83
a(S'100000967842644'
S'Nishtha Dhamija'
tp84
a(S'100000178032705'
S'Rahul Sehgal'
tp85
a(S'100002471371731'
S'Hirok Das'
tp86
a(S'100004240211443'
S'Shobha Sharma'
tp87
a(S'100004351720115'
S'Manish Jaiswal'
tp88
a(S'100000520254389'
S'Shubham Jangra'
tp89
a(S'100002410313324'
S'Suraj Patel'
tp90
a(S'100002436755383'
S'Kanika Agarwal'
tp91
a(S'100004291721400'
S'Maninder Rehsi'
tp92
a(S'100000555002947'
S'Rajat Gupta'
tp93
a(S'100004220460604'
S'Vandita Awasthi'
tp94
a(S'100001100968182'
S'Sandeep Mor'
tp95
a(S'100001278019353'
S'Cadet Arjun Hooda'
tp96
a(S'100001029395003'
S'Ajay Yadav'
tp97
a(S'100002551933156'
S'Rajat Banga'
tp98
a(S'1303891899'
S'Ishan Mohan'
tp99
a(S'100001940721245'
S'Shivjeet Singh'
tp100
a(S'100002689585414'
S'Aru Shi'
tp101
a(S'100001623002146'
S'Horesh Sharma'
tp102
a(S'100002465472100'
S'Pavanesh Sharma'
tp103
a(S'100002596838582'
S'Mudit KaLra'
tp104
a(S'100001172352479'
S'Harsha Hooda'
tp105
a(S'100002579557636'
S'Aamit Parmar'
tp106
a(S'100002072680591'
S'Abhishek Singh'
tp107
a(S'100001633669453'
S'Gurpreet Singh'
tp108
a(S'100002093631505'
S'Akshay Jhalani'
tp109
a(S'536774087'
S'Armanur Rahman'
tp110
a(S'100004053507631'
S'Aina Aggarwal'
tp111
a(S'100000643497993'
S'Shiva Athwal'
tp112
a(S'100001217978728'
S'Sonia Mehta'
tp113
a(S'100001421810150'
S'Gaurav Wadhwa'
tp114
a(S'100003618951355'
S'Thirunavu Karasu'
tp115
a(S'100002447657115'
S'Ratnesh Ojha'
tp116
a(S'100004213291983'
S'Shweta Baisoya'
tp117
a(S'100001203280766'
S'Anand Kumar'
tp118
a(S'100002485288018'
S'Monika Singh'
tp119
a(S'100002529993889'
S'Nandini Mehta'
tp120
a(S'100000008372029'
S'Zara Fazal Shahdad'
tp121
a(S'100002860420640'
S'Asmita Chandra'
tp122
a(S'100002473273550'
S'Rahul Banga'
tp123
a(S'100002641513178'
S'Ishu Grewal'
tp124
a(S'100000266810464'
S'Sreelesh Athamkavil'
tp125
a(S'100002538937923'
S'Royal Rocky Jangra'
tp126
a(S'703938150'
S'Pranjal Bothra'
tp127
a(S'100001740079019'
S'Yash Kadian'
tp128
a(S'100004051895997'
S'Gaurav Rakheja'
tp129
a(S'100005300581191'
S'Sushmita Sarkar'
tp130
a(S'100002203440291'
S'Sarbjit Singh'
tp131
a(S'100000424823275'
S'Lihas Samual'
tp132
a(S'100000243697146'
S'Prateek Prabhakar'
tp133
a(S'100003925654640'
S'Priti Jha'
tp134
a(S'100006855643390'
S'Rahul Rajput'
tp135
a(S'100002537609163'
S'Abul Faiz'
tp136
a(S'100002366599695'
S'Manav Mehta'
tp137
a(S'1371525018'
S'Prema Paramasivan'
tp138
a(S'100003659410775'
S'Samiksha Tanwar'
tp139
a(S'100001202995101'
S'Vikas Hooda'
tp140
a(S'100001570975796'
S'Gaurav Rakheja'
tp141
a(S'100002498641020'
S'Ashish Cool'
tp142
a(S'100006545378816'
S'Priyanka Bisht'
tp143
a(S'100003470144644'
S'Ajay Sharma'
tp144
a(S'100001356824053'
S'Somia Singh'
tp145
a(S'1674845585'
S'Kamal Kant Tikania'
tp146
a(S'100001965215729'
S'Vinay Udar'
tp147
a(S'100002675294707'
S'Shivraj Bhardwaj'
tp148
a(S'100002421841735'
S'Ayushi Mehta'
tp149
a(S'1172851816'
S'Nilamangai Narasimhan'
tp150
a(S'100001848083620'
S'Harsh Parmar'
tp151
a(S'100000590871257'
S'Juhi Sharma'
tp152
a(S'100006521523891'
S'Subham Gupta'
tp153
a(S'1851552083'
S'Ayush Mehra'
tp154
a(S'100001328393705'
S'Trilok Aryan'
tp155
a(S'1332030969'
S'Nama Singh'
tp156
a(S'100005089533423'
S'Ksweety Kumari'
tp157
a(S'100001320631908'
S'Aakash Aggarwal'
tp158
a(S'100001262663617'
S'Navdeep Singh Hunjan'
tp159
a(S'100003327914405'
S'Manish Kumar'
tp160
a(S'1134350542'
S'Lakshya Singh KHatana'
tp161
a(S'100004506667804'
S'Sinu Angel'
tp162
a(S'100002365615078'
S'Lovely Thiru'
tp163
a(S'100002458030801'
S'Dipakz Thapa Magarzz'
tp164
a(S'100001403851736'
S'Nakul Sharma'
tp165
a(S'100000401552570'
S'Ankit Saraf'
tp166
a(S'100001759683912'
S'Anshul Yadav'
tp167
a(S'100002232212828'
S'Sonica Khera'
tp168
a(S'100001054025249'
S'Sandeep Rajput'
tp169
a(S'100005243622187'
S'Sagar Chandalia'
tp170
a(S'100001304837654'
S'Neha Verma'
tp171
a(S'100002116268488'
S'Rochak Bansal'
tp172
a(S'100004102420252'
S'Manish Kumar'
tp173
a(S'1272493210'
S'\\u0928\\u093f\\u0916\\u093f\\u0932 \\u092a\\u094d\\u0930\\u0915\\u093e\\u0936'
tp174
a(S'100001302398070'
S'RraAjuu Ttoray Sharma Lb'
tp175
a(S'100001315130289'
S'Siddhant Sharda'
tp176
a(S'100002387359730'
S'Vivek Shekhar Rao'
tp177
a(S'1605792792'
S'Subin Rajesh'
tp178
a(S'100002567468204'
S'Vinod Talu'
tp179
a(S'100002109775550'
S'Akshit Aggarwal'
tp180
a(S'100001263760352'
S'Arihant Jain'
tp181
a(S'100000939540733'
S'Arun Nehra'
tp182
a(S'100001446189267'
S'Ankita Ghosh'
tp183
a(S'100001763173543'
S'Mrinal Doley'
tp184
a(S'100001460566614'
S'Jitendra Singh'
tp185
a(S'100000644239434'
S'Akash Mehandiratta'
tp186
a(S'100002050627723'
S'Hemant Dhawan'
tp187
a(S'100001608143263'
S'Rahul Sangwan'
tp188
a(S'100002070613182'
S'Tarun Bhambhani'
tp189
a(S'100002090753546'
S'Bijay Prasad'
tp190
a(S'100001104998337'
S'Shashank Dixit'
tp191
a(S'100002420315977'
S'Sitanshu Soni'
tp192
a(S'100004352044500'
S'Tarun Bhambhani'
tp193
a(S'100001643650970'
S'Rahul Yadav'
tp194
a(S'100001074505245'
S'Aditya Singh Rawat'
tp195
a(S'100005898463552'
S'Ruchika Sharma'
tp196
a(S'100002415519793'
S'Tamanna Tyagi'
tp197
a(S'100002491848029'
S'Sandeep Gujjar'
tp198
a(S'100002496314306'
S'Ashish Kumar'
tp199
a(S'100000560491795'
S'Vibhor Bhardwaj Sharma'
tp200
a(S'100003768073596'
S'Kaili Roy'
tp201
a(S'100002093435116'
S'Tanmay Raghuwanshi'
tp202
a(S'100000079793046'
S'Shashi Ciddharth'
tp203
a(S'100001409571068'
S'Vishal Singh'
tp204
a(S'100001669303894'
S'Aakash Sarkar'
tp205
a(S'1590958353'
S'Avesh Gaur'
tp206
a(S'100000950333287'
S'Aniket Jagdale'
tp207
a(S'100000010763248'
S'Deepanshu Nihalani'
tp208
a(S'100004075504930'
S'Abhishek Arya'
tp209
a(S'100000686894675'
S'Pranav Sharma'
tp210
a(S'100003573654961'
S'Joginder Jainth'
tp211
a(S'100002071840108'
S'Chinu Kaushik'
tp212
a(S'100001007098616'
S'Ayushi Singh'
tp213
a(S'100001149873646'
S'R Rohit Sheoran'
tp214
a(S'100000878474186'
S'Pratyush Devliyal'
tp215
a(S'100002948458754'
S'Ritika Saraf'
tp216
a(S'100001988391934'
S'Suriyamoon Santosh'
tp217
a(S'100003774272964'
S'Kanika Kashyap'
tp218
a(S'100001640945562'
S'Kartikay Talwar'
tp219
a(S'100001475562615'
S'Vibhuti Sharma'
tp220
a(S'100000522569012'
S'Sahil Dhariwal'
tp221
a(S'100004644331162'
S'Gourav Mehta'
tp222
a(S'100002422083932'
S'Akshay Jakhar'
tp223
a(S'100004478881748'
S'Ratnesh Kumar'
tp224
a(S'100001035568475'
S'Sumit Yadav'
tp225
a(S'100002969887633'
S'Sandeep Veer Gurjar'
tp226
a(S'1796905972'
S'Ankesh Maheshwari'
tp227
a(S'100001285273121'
S'Manav Sharma'
tp228
a(S'100002201006969'
S'Ravin Rajput'
tp229
a(S'100002307949917'
S'Arjun Yadav'
tp230
a(S'100002599328442'
S'Sudip Tirkey'
tp231
a(S'100004049274420'
S'Deepak Sethi'
tp232
a(S'100004329090071'
S'Chandan Kumar Shah'
tp233
a(S'100002721810837'
S'Virender Singhania'
tp234
a(S'100000580089151'
S'Madhu Meena'
tp235
a(S'100002466229292'
S'Seerat Zaroo'
tp236
a(S'100000710518182'
S'Praveen Kumar Singh'
tp237
a(S'100001348451801'
S'Ajay Dubey'
tp238
a(S'100001978755421'
S'Pradeep Khichi'
tp239
a(S'100000766132444'
S'Ankit Boora Jaat'
tp240
a(S'100002328011251'
S'Aman Chauhan'
tp241
a(S'100004473247832'
S'Sanchit Goyal'
tp242
a(S'100000586588391'
S'Shaina Warikoo'
tp243
a(S'100001295195696'
S'Neha Chauhan'
tp244
a(S'100002124558947'
S'Basant Kundu'
tp245
a(S'100001818423506'
S'Kshitij Dhamija'
tp246
a(S'100003762910164'
S'Yuvraj Singh'
tp247
a(S'100005869002472'
S'Tejasvini Parmar'
tp248
a(S'100002306064740'
S'Rahul Mehta'
tp249
a(S'100000279434716'
S'Sreelaj Athamkavil'
tp250
a(S'1133294207'
S'Chhavi Saxena'
tp251
a(S'100001609643217'
S'Anuj Lefty Sharma'
tp252
a(S'100002779734834'
S'Pratik Jain'
tp253
a(S'100000046844568'
S'Jhanvi Saxena'
tp254
a(S'100001372863896'
S'Abhishek Hans'
tp255
a(S'100003012286704'
S'Sanket Tanwar'
tp256
a(S'100002359794447'
S'Sudhir Thakur'
tp257
a(S'100001677988786'
S'Lokendra Singh'
tp258
a(S'100002400250244'
S'Sanjay Bhoria'
tp259
a(S'100000625532055'
S'Sunny Namwal'
tp260
a(S'100002138923679'
S'Umang Sharma'
tp261
a(S'100002399510662'
S'Amit Tokas'
tp262
a(S'100001914392908'
S'Ankush Raj'
tp263
a(S'100001682110152'
S'Aakash Sapra'
tp264
a(S'100003089441814'
S'Mohnish Verma'
tp265
a(S'100002242946365'
S'Aastha Paliwal'
tp266
a(S'100001841270186'
S'Prateek Tiwari'
tp267
a(S'100000054083195'
S'Narender Panghal'
tp268
a(S'100000942744467'
S'Akhilesh Bhardwaj'
tp269
a(S'100004039071895'
S'Angel Anjee'
tp270
a(S'1666951304'
S'Sourabh Mehta'
tp271
a(S'100003657594116'
S'Sagarika Bansal'
tp272
a(S'100003938236689'
S'Raghav Verma'
tp273
a(S'100002997784774'
S'Abhishek Mamgain'
tp274
a(S'100001155037592'
S'Akshay Sharma'
tp275
a(S'100001643485257'
S'Sandeep Lamba'
tp276
a(S'100001436633642'
S'Karan Madaan'
tp277
a(S'100001802882908'
S'New Kathuriya'
tp278
a(S'100001459331997'
S'Sandeep Panghal'
tp279
a(S'100001158991737'
S'Arun Kumar'
tp280
a(S'100003290947178'
S'Pramod Singh Tanwar'
tp281
a(S'100002381538348'
S'Prince Banga'
tp282
a(S'100001258237071'
S'Ajeyshwar Dayal'
tp283
a(S'100003562874768'
S'Shailja Parihar'
tp284
a(S'100001959926962'
S'Garima Agarwal'
tp285
a(S'100002206284746'
S'Jyoti Brahma'
tp286
a(S'100002236046227'
S'Devesh Joshi'
tp287
a(S'100002922938602'
S'Yogesh Parmar'
tp288
a(S'100002893502591'
S'Sudhanshu Singh'
tp289
a(S'100001020499859'
S'Shruti Subramanian'
tp290
a(S'100002351922077'
S'JItu Yadav'
tp291
a(S'100004183058236'
S'Ravindar Singh'
tp292
a(S'100001007550712'
S'Dipender Thapa'
tp293
a(S'100000208471964'
S'Harshita Gupta'
tp294
a(S'100002763192731'
S'Rohit Matth'
tp295
a(S'100002234290237'
S'Shaleen Sheoran'
tp296
a(S'100003255751858'
S'Ombir Sharma'
tp297
a(S'100004007410284'
S'Debdoot Hansda'
tp298
a(S'100002273688773'
S'Deepika Gaur'
tp299
a(S'100001372922595'
S'Naresh Khatwani'
tp300
a(S'100002954824312'
S'Nishi Moda'
tp301
a(S'100001816758175'
S'Sandeep Dahal'
tp302
a(S'100002209384875'
S'Hitesh Mehta'
tp303
a(S'1352617819'
S'Vignesh Wiki'
tp304
a(S'100004755303955'
S'Er RJ'
tp305
a(S'100001230897556'
S'Meena Tak'
tp306
a(S'100004414625162'
S'Gopal Saini'
tp307
a(S'100001834445251'
S'Ketan Jain'
tp308
a(S'100002577626452'
S'Yatish Sachdev'
tp309
a(S'100000663876750'
S'Ashish Sahni'
tp310
a(S'100003175952826'
S'Rohit Yadav'
tp311
a(S'100004046271693'
S'Angana Patel'
tp312
a(S'100002444962445'
S'Dailogi Tau'
tp313
a(S'100002743230550'
S'Parmod Tanwar'
tp314
a(S'100003344004074'
S'Vikash Bhaker'
tp315
a(S'100001328076564'
S'Avdhesh Narayan Pal'
tp316
a(S'100006206373707'
S'Pawan Chhabra'
tp317
a(S'100004014350379'
S'Shubham Sachdeva'
tp318
a(S'1155618964'
S'Geetika Golani'
tp319
a(S'1388301801'
S'Praveen Kumar Rana'
tp320
a(S'100000527090202'
S'Aishwarya Sharma'
tp321
a(S'100001571630919'
S'Anand Shah'
tp322
a(S'100001898504320'
S'Aarya Setu'
tp323
a(S'100002598561920'
S'Muniza Akhtar'
tp324
a(S'100002230670612'
S'Himanshu Kumar'
tp325
a(S'100004028185374'
S'Surender Singh'
tp326
a(S'100001908262477'
S'Suraj Kumar'
tp327
a(S'100000054280486'
S'Dhruv Panwar'
tp328
a(S'100001543651911'
S'Vineet Sinha'
tp329
a(S'100002786780527'
S'Ravish Masta'
tp330
a(S'749187280'
S'Harsh Vardhan'
tp331
a(S'100001690698166'
S'Bhavya Gupta'
tp332
a(S'100002326560036'
S'Kavita Gemini'
tp333
a(S'100002291393565'
S'Vijay Poonia'
tp334
a(S'100000310539078'
S'Jeba Kibeon'
tp335
a(S'100003663608844'
S'Vaishali Sharda'
tp336
a(S'100002075441879'
S'Deepak Jangra'
tp337
a(S'100002751754000'
S'Manav Sharma'
tp338
a(S'1105844272'
S'Manoj Purohit'
tp339
a(S'100002481456743'
S'Mandeep Jakhar'
tp340
a(S'100002502476313'
S'Vikas Yadav'
tp341
a(S'100002370001834'
S'Amit Kumar Singh'
tp342
a(S'1741880669'
S'Ashat Mehta'
tp343
a(S'100002032452656'
S'Vivek Pahel'
tp344
a(S'100002712760745'
S'Love Raheja'
tp345
a(S'100000552926059'
S'Dhananjay Giriraj'
tp346
a(S'100001638333926'
S'Rohit Sheoran'
tp347
a(S'100001903176611'
S'Vipin Sharma'
tp348
a(S'100002962157861'
S'Sakshi Sharma'
tp349
a(S'100001414318226'
S'Manish Panghal'
tp350
a(S'100002475453404'
S'Akshay Narwal'
tp351
a(S'100001025390159'
S'Vinay Kathuria'
tp352
a(S'100000361777696'
S'Akashdeep Lakhlan'
tp353
a(S'100002426970973'
S'Akshita Aggarwal'
tp354
a(S'1409093206'
S'Dheeraj Bhatia'
tp355
a(S'100002567653760'
S'Amit Siwach'
tp356
a(S'1128662831'
S'K Sahil Rajput'
tp357
a(S'100000374194708'
S'Piyush Pareta'
tp358
a(S'100002186387988'
S'Met\\u00e1licos Bhaskar'
tp359
a(S'100002301991510'
S'Preeti Malik'
tp360
a(S'100001578902371'
S'JaMy Sharvan'
tp361
a(S'100001109940331'
S'Vakas Khan'
tp362
a(S'100002203385008'
S'Jasmine Verma'
tp363
a(S'100004109107047'
S'Neha Gushain'
tp364
a(S'100000844538551'
S'Shivam Yadav'
tp365
a(S'100002241732116'
S'M\\u00e4nik\\u00e4 Arora'
tp366
a(S'100003245813681'
S'Tarandeep Singh'
tp367
a(S'100002520648321'
S'Anmol Sharma'
tp368
a(S'100002488868137'
S'Nikhil Prakash'
tp369
a(S'100002042791383'
S'Laufsang Lama'
tp370
a(S'100001860562690'
S'Bhavesh Lamba'
tp371
a(S'100000593528837'
S'Ankush Singh'
tp372
a(S'100002458122230'
S'Himanshu Sharma'
tp373
a(S'100002029553884'
S'Ranjan Saryal'
tp374
a(S'100001179876168'
S'Rajat Jasuja'
tp375
a(S'100000591553626'
S'Virender Kumar Shahrawat'
tp376
a(S'100001171555297'
S'Rohit Kumar'
tp377
a(S'655966863'
S'Shantanu Sinha'
tp378
a(S'100001018977634'
S'Kunal Dikshit'
tp379
a(S'1722178502'
S'Shahabuddin Saifi'
tp380
a(S'100001821232800'
S'Anurag Kennedy'
tp381
a(S'100002817087167'
S'Shubham Singh Sai'
tp382
a(S'100002359473467'
S'Akshay Meena'
tp383
a(S'100002327637659'
S'Vivek Sangwan'
tp384
a(S'100001650024180'
S'Shivraj Bhardwaj'
tp385
a(S'100001127284501'
S'Ravi Pawar'
tp386
a(S'100000688894098'
S'Aadi Jangir'
tp387
a(S'100000641620964'
S'Chama Agarwal'
tp388
a(S'100003059693187'
S'Deepak Kumar'
tp389
a(S'100000019360098'
S'Himakshi Joshi'
tp390
a(S'1416646340'
S'Apoorv Singhal'
tp391
a(S'100000815316542'
S'Manish Singh'
tp392
a(S'100000175321906'
S'Kavya Bhatnagar'
tp393
a(S'100002386772298'
S'Vinod Thakur'
tp394
a(S'100002812297287'
S'Neeraj Rawat'
tp395
a(S'100004261773389'
S'Ritesh Sarkar'
tp396
a(S'100002677107867'
S'Maddy Sam'
tp397
asS'id'
p398
S'100001182610502'
p399
s.