(dp1
S'friends'
p2
(lp3
(S'100005591682539'
S'Anna Kownacka'
tp4
a(S'100005348947869'
S'Tytanowy Cz\\u0142owiek'
tp5
a(S'100002098328787'
S'Joanna Pa\\u0142ka'
tp6
a(S'1638811095'
S'Mats Loocura'
tp7
a(S'100000615090624'
S'Jozef Gniazdowski'
tp8
a(S'100000367736305'
S'Mircea Simion'
tp9
a(S'100000652286228'
S'Joel Espinoza'
tp10
a(S'100003387885002'
S'Noelia Cardozo'
tp11
a(S'100000358194039'
S'AphRyl Zhodiak'
tp12
a(S'1652436088'
S'Luis Foti'
tp13
a(S'100004092692769'
S'Maria Kaczmarek'
tp14
a(S'100000486688241'
S'Sergio Ricardo Rodrigues'
tp15
a(S'100001313260018'
S'Urszula Wasilewska'
tp16
a(S'100001872013318'
S'Rafa\\u0142 \\u015aciborski'
tp17
a(S'100005763185379'
S'Asia Mazur'
tp18
a(S'100003046806459'
S'Batuhan Aslan'
tp19
a(S'100001649886350'
S'Patrycja Paulina Janiec'
tp20
a(S'100005743304152'
S'Szymon Skibi\\u0144ski'
tp21
a(S'1086464377'
S'Manuel Antonio Rivas Portillo'
tp22
a(S'100001297648795'
S'Jarek Kowalski'
tp23
a(S'100000614965551'
S'Matei Marian'
tp24
a(S'100001617236370'
S'Murat Sanli'
tp25
a(S'100001738248468'
S'Robert Markiewicz'
tp26
a(S'100000865608541'
S'Sandra Peterson'
tp27
a(S'100002699520265'
S'Wojciech Jacek Laskowski'
tp28
a(S'100001219659095'
S'Danuta Kukla'
tp29
a(S'726299674'
S'Helen Ferreccio Mairata'
tp30
a(S'100000939145188'
S'Batik Leisure Indonesia'
tp31
a(S'100002228054377'
S'Gabrysia Konkel'
tp32
a(S'100002020671084'
S'Angelika Schulz'
tp33
a(S'100001791052152'
S'Beata Agata Kierzek'
tp34
a(S'1026912576'
S'Agnese Podborska'
tp35
a(S'100000025331403'
S'Fabiana Cavalcante'
tp36
a(S'100002032133146'
S'Ma\\u0142gorzata St\\u0119pie\\u0144'
tp37
a(S'100000735592417'
S'Krzysztof Stachowiak'
tp38
a(S'1656754005'
S'Ericelda Chinchilla Corrales'
tp39
a(S'100002711543919'
S'Krzysztof Kwiatkowski'
tp40
a(S'100003249829203'
S'Edyta Mudlaff'
tp41
a(S'100000557278129'
S'Rozalie Sailly'
tp42
a(S'100000501336211'
S'Katarzyna Dworak'
tp43
a(S'100001036435803'
S'Krystyna Putz'
tp44
a(S'100000611823004'
S'Alexander Gerlach'
tp45
a(S'100001039907012'
S'Iza Kolbusz'
tp46
a(S'100001396490459'
S'Sylwester J\\u00f3zwiak'
tp47
a(S'1420453672'
S'Wanderson Andrei Da Rocha Santos'
tp48
a(S'100000932209599'
S'Rafal Kaczmarek'
tp49
a(S'100004925379933'
S'Sabina Kantor'
tp50
a(S'100001351446918'
S'Magdalena Godlewska'
tp51
a(S'100002392926434'
S'Luci Ceausu'
tp52
a(S'100003976170425'
S'Jacek Sepski'
tp53
a(S'767914135'
S'Tammy Mabry Smith Zidek'
tp54
a(S'100001485386401'
S'Marzanna Mokrzycka'
tp55
a(S'100001792235511'
S'Dorota \\u0141uczy\\u0144ska'
tp56
a(S'100002884544957'
S'Maria Gaszkowska'
tp57
a(S'100001250224809'
S'Marzena Wasilewska'
tp58
a(S'100000443078569'
S'Maria Eliza Corr\\u00eaa'
tp59
a(S'100000911943217'
S'Carlos A Moreno'
tp60
a(S'100001211787743'
S'Ramesh Kumar'
tp61
a(S'100000798047427'
S'Alin Florin Murgu'
tp62
a(S'100000357919208'
S'Fabio Cerretani'
tp63
a(S'100003165929101'
S'Jacek Skuter Paw\\u0142owski'
tp64
a(S'100000355054463'
S'Petcof Daniela'
tp65
a(S'100000932725223'
S'Krystyna Szymura'
tp66
a(S'100000745063106'
S'Raul Ugal Lop'
tp67
a(S'1845477823'
S'Toh Min Jean'
tp68
a(S'100001862446240'
S'Agnieszka Sitek'
tp69
a(S'100004083200884'
S'Monika Michalska'
tp70
a(S'100002249838186'
S'Madzia Sefery\\u0144ska'
tp71
a(S'100004023336280'
S'Olga Soroka'
tp72
a(S'100002053432432'
S'Stefania Archetti'
tp73
a(S'100001041530242'
S'\\u0141ucja Pieczy\\u0144ska'
tp74
a(S'1596507355'
S'Laura Bichi'
tp75
a(S'100000242682063'
S'Nina Neagoe'
tp76
a(S'100002634345271'
S'Karolina Kasprzyk'
tp77
a(S'1790990884'
S'Gabriela Quiroz'
tp78
a(S'1439931986'
S'Gosia Karwalska'
tp79
a(S'100000371013823'
S'Wiola Wasilewska'
tp80
a(S'100002119538864'
S'Krzysztof Piwowarczyk'
tp81
a(S'100000776139106'
S'Otzofszky Raul'
tp82
a(S'100000460884508'
S'Gosia \\u0141opusza\\u0144ska'
tp83
a(S'1554623700'
S'Yusuf \\u00d6zdemir'
tp84
a(S'100002172529607'
S'Paulisia Paulus Paulcia'
tp85
a(S'100000985324793'
S'NeDy Andrei'
tp86
a(S'100000883476538'
S'Ewa Jarosz'
tp87
asS'id'
p88
S'100005634873907'
p89
sS'name'
p90
S'Robert Koz\\u0142owski'
p91
s.