(dp1
S'friends'
p2
(lp3
(S'100001017541481'
S'Pritom Bharali'
tp4
a(S'100003929642854'
S'Suraj Jain'
tp5
a(S'100002500502852'
S'Riyan Singhania'
tp6
asS'id'
p7
S'100001017541481'
p8
sS'name'
p9
S'Pritom Bharali'
p10
s.