(dp1
S'name'
p2
S'Mudassir R\\u00f8\\u00e7k\\u00ear'
p3
sS'current_class'
p4
S'pakistan'
p5
sS'home_class'
p6
Vlahore, pakistan
p7
sS'home_text'
p8
VLahore, Pakistan\u000aHometown
p9
sS'current_link'
p10
Vhttps://www.facebook.com/l.php?u=https%3A%2F%2Fwww.bing.com%2Fmaps%2Fdefault.aspx%3Fv%3D2%26pc%3DFACEBK%26mid%3D8100%26where1%3D29.369700743377%252C%2B47.977294921875%26name%3DKuwait%2BCity%26mkt%3Den-IN&h=mAQFWdodt&s=1
p11
sS'home_link'
p12
Vhttps://www.facebook.com/l.php?u=https%3A%2F%2Fwww.bing.com%2Fmaps%2Fdefault.aspx%3Fv%3D2%26pc%3DFACEBK%26mid%3D8100%26where1%3D31.549700669186%252C%2B74.343109130859%26name%3DLahore%252C%2BPakistan%26mkt%3Den-IN&h=4AQFsGlXF&s=1
p13
sS'current_text'
p14
VKuwait City\u000aCurrent City
p15
sS'friends'
p16
(lp17
(S'100005853181105'
S'Mudassir R\\u00f8\\u00e7k\\u00ear'
tp18
a(S'100007315000254'
S'Ch Asim Raza'
tp19
asS'id'
p20
S'100005853181105'
p21
s.