(dp1
S'friends'
p2
(lp3
(S'657653886'
S'Piyush Agarwal'
tp4
a(S'100003467941966'
S'Anamika Chakraborty'
tp5
a(S'533668633'
p6
S'Nivir Shivputra'
tp7
a(S'653432911'
S'Katyayn Ravindra'
tp8
a(S'1080024992'
S'Chetan Kashyap'
tp9
a(S'100000779060150'
p10
S'Sahitya Akademi'
tp11
a(S'744365884'
S'Devashish Prasoon'
tp12
a(S'711145262'
S'Je Vin'
tp13
a(S'625135916'
S'Girish N Pande'
tp14
a(S'1093972438'
S'Vijay Prabhakar Nagarkar'
tp15
a(S'100001545476222'
S'Yogendra Kumar Lalla'
tp16
a(S'649735497'
S'Anil Janvijay'
tp17
a(S'1014554014'
p18
S'Sanjay Swadesh'
tp19
a(S'569010798'
S'Rajesh Mittal'
tp20
a(S'100000731917589'
S'Prabhat Prakashan'
tp21
a(S'620799522'
S'Kavita Vachaknavee'
tp22
a(S'1053280362'
S'Ranvijay Singh Satyaketu'
tp23
a(S'532022174'
S'Paranjoy Guha Thakurta'
tp24
a(S'755435891'
S'Omprakash Dani'
tp25
a(S'1151961905'
S'Sandeep Meel'
tp26
a(S'613441302'
S'Abha Nivsarkar Mondhe'
tp27
a(S'1038602224'
S'Ashish Singh Dadwal'
tp28
a(S'100001575016613'
S'Mool Chandra Gautam'
tp29
a(S'724353563'
S'Sayeed Ayub'
tp30
a(S'746291615'
S'Rajeshwar Vashistha'
tp31
a(S'1013663516'
S'Masijeevi Hindi'
tp32
a(S'1010629554'
p33
S'\\u0930\\u0935\\u093f \\u0936\\u0902\\u0915\\u0930'
tp34
a(S'100005950800124'
S'\\u0909\\u092e\\u0947\\u0936 \\u091a\\u0928\\u094d\\u0926\\u094d\\u0930 \\u0938\\u093f\\u0930\\u0938\\u0935\\u093e\\u0930\\u0940'
tp35
a(S'715473055'
S'Piyush Agarwal'
tp36
a(S'1106632510'
S'Anil Verma'
tp37
a(S'100003652088008'
S'Sudhir Kewaliya'
tp38
a(S'719601377'
S'Srijan Shilpi'
tp39
a(S'606655859'
S'Bhavik Siddhpura'
tp40
a(S'1125322456'
S'Isht Deo Sankrityaayan'
tp41
a(S'1156895008'
S'\\u092a\\u094d\\u0930\\u0947\\u092e \\u091c\\u0928\\u092e\\u0947\\u091c\\u092f'
tp42
a(S'623487783'
S'Sanjay Kanti Seth'
tp43
a(S'1047988970'
S'Sanjiv Thomas'
tp44
a(S'765598897'
S'Mahfooz Ali'
tp45
a(S'100003207369411'
S'Pathak Kewal Krishan Pathak'
tp46
a(S'100004376738623'
S'Naveen Neer'
tp47
a(S'1020411941'
S'Desh Nirmohi'
tp48
a(S'828865767'
S'Vilas Govind Dharap'
tp49
a(S'1086772021'
S'Vivek Ranjan Shrivastava'
tp50
a(S'100002657574419'
p51
S'Hindi Sahitya'
tp52
a(S'100002758818767'
S'Sujata Choudhary'
tp53
a(S'1063291874'
S'\\u0905\\u092d\\u093f\\u0928\\u0935 \\u0936\\u0941\\u0915\\u094d\\u0932'
tp54
a(S'563753866'
S'DrZakir Ali Rajnish'
tp55
a(S'100002925566737'
S'Mohd Moosa Khan Ashant'
tp56
a(S'100001561233987'
S'Ajay Kumar'
tp57
a(S'100004223946405'
S'Ashok Kumar Jyoti'
tp58
a(S'716067321'
S'Ashok Gupta'
tp59
a(S'1161884317'
S'Satyawan Tarar'
tp60
a(S'569449839'
p61
S'Ravindra Ranjan'
tp62
a(S'100003976459597'
S'Sadakanchha Hindi Journal'
tp63
a(S'100002630346351'
S'Shashi Kant Pathak'
tp64
a(S'671651250'
S'Vinaye \\u0935\\u093f\\u0928\\u092f Goodary'
tp65
a(S'100003494913547'
S'Sushil Kumar'
tp66
a(S'593757490'
S'Abhay K. Kumar'
tp67
a(S'1158574876'
S'Jayprakash Manas'
tp68
a(S'100004674486018'
S'Nemichand Pooniya Pali'
tp69
a(S'608898691'
S'\\u092c\\u093e\\u0938\\u0941 \\u091c\\u094b\\u0936\\u0940'
tp70
a(S'1041035894'
S'Sudhir Saxena Sudhi'
tp71
a(S'558004299'
S'Vikash Vaibhav'
tp72
a(S'1097449809'
S'Neeru Aseem'
tp73
a(S'729576167'
S'Yogesh Samdarshi'
tp74
a(S'1141281931'
S'Suryakumar Pandey'
tp75
a(S'100001736209306'
S'Sushil Siddharth'
tp76
a(S'688461812'
p77
S'Girish Mishra'
tp78
a(S'730049334'
S'Manisha Kulshreshtha'
tp79
a(S'697001199'
S'Gulshan \\u0917\\u0941\\u0932\\u0936\\u0928 Sooklall'
tp80
a(S'530983347'
S'Arpit Jain'
tp81
a(S'100001069495880'
S'Rashmi'
p82
tp83
a(S'1018717445'
S'Kumar Mukul'
tp84
a(S'100004519093127'
S'Girish Pande'
tp85
a(S'541612738'
S'Ajay Kumar'
tp86
a(S'100001460713556'
S'Sharad Singh'
tp87
a(S'100003944745535'
S'Arun Kumar Pandey'
tp88
a(S'809089473'
S'Jagmohan Chopta'
tp89
a(S'663680697'
S'Bholanath Goyal'
tp90
a(S'791854913'
S'Ghanshyam Dass'
tp91
asS'id'
p92
S'100003756997497'
p93
sS'name'
p94
S'Sahitya Amrit'
p95
s.