(dp1
S'friends'
p2
(lp3
(S'100004211581170'
S'Karishma Kaushik'
tp4
a(S'100003038321446'
S'Sani Yadav'
tp5
a(S'100003663829100'
S'Divya Kundu'
tp6
a(S'100002502803021'
S'Ravinder Rana'
tp7
a(S'100005123801157'
S'Ashu Tosh'
tp8
a(S'100002061466562'
S'Monika Mittal'
tp9
a(S'100000235884227'
S'Amit Rana'
tp10
a(S'100003710161175'
S'Abhishek Varshney'
tp11
a(S'100005517665128'
S'Keshav Sharma'
tp12
a(S'100000564733073'
S'Manish Sharma'
tp13
a(S'100004010605020'
S'Aanchal Mann'
tp14
a(S'100001984403870'
S'Shruti Gupta'
tp15
a(S'100000593998522'
S'Priya Chhabra'
tp16
a(S'100002603063382'
S'Ridham Gill'
tp17
a(S'100002152004397'
S'Munish Maan'
tp18
a(S'100000868749694'
S'Jatin Mann'
tp19
a(S'100001451155182'
S'Vibhu Rana'
tp20
a(S'100004972928545'
S'Sourabh Sharma'
tp21
a(S'100001840000389'
S'Anuj Saini'
tp22
a(S'100002471570516'
S'Himanshu Dhania'
tp23
a(S'100001684171795'
S'G\\u00e4g\\u00e4\\u00f1 M\\u00e4d\\u00e4\\u00e4\\u00f1'
tp24
a(S'100002189864035'
S'Rahul Rathor'
tp25
a(S'100002990574226'
S'Charles Wilfred'
tp26
a(S'100001703780292'
S'Nash Sore'
tp27
a(S'1327779213'
S'Shruti Sethi'
tp28
a(S'1668459153'
S'Roy Joseph'
tp29
a(S'100007278818301'
S'Amardeep Sharma'
tp30
a(S'1304161362'
S'Karan Gupta'
tp31
a(S'100006508861085'
S'Vandana Saini'
tp32
a(S'100007278459444'
S'Rohit Verma'
tp33
a(S'100006486072985'
S'Kiran Maan'
tp34
a(S'100003737520583'
S'Mohit MaNn'
tp35
a(S'100001163989000'
S'Manish Sharma'
tp36
a(S'100008073398190'
S'Shivam Kaushik'
tp37
a(S'100002641251955'
S'BaLihar MaAn'
tp38
a(S'100003977314943'
S'Nischay Hunter'
tp39
a(S'100002877570659'
S'Arsh Sharma'
tp40
a(S'100006477667565'
S'Ashish Mann'
tp41
a(S'100002192036046'
S'Mehrab Ul Haque'
tp42
a(S'100001426004039'
S'Aisha Sharma'
tp43
a(S'100006247294530'
S'Rinku Mann'
tp44
a(S'100002635728603'
S'Girjesh Singh'
tp45
a(S'100002687427708'
S'Abby Damien'
tp46
a(S'100000050921608'
S'Shubham Ruhela'
tp47
a(S'100002650946137'
S'Sushil Kumar'
tp48
a(S'100005034278743'
S'Mukul Sharma'
tp49
a(S'100002526906239'
S'ChanDan Cool'
tp50
a(S'100003093159210'
S'Himalaya Sharma'
tp51
a(S'100002436199604'
S"Nishchay Michael's"
tp52
a(S'100001703958525'
S'Gandhi Study Circle'
tp53
a(S'100005861294210'
S'Gaurrav Misra'
tp54
a(S'803745827'
S'Avnika Jain'
tp55
a(S'100003752445649'
S'Lokesh Khatri'
tp56
a(S'100001973988189'
S'Abhinav Tripathi'
tp57
a(S'100002566865165'
S'Shashank Smarty'
tp58
a(S'100001019921983'
S'Ashwani Dubey'
tp59
a(S'100001155650016'
S'Mansi Rohilla'
tp60
a(S'100004368935524'
S'Ritu Dabas'
tp61
a(S'100003387242124'
S'Virat Saini'
tp62
a(S'100002940665784'
S'Hemanshu Mudgal'
tp63
a(S'100000934338364'
S'Jordan Kinchum Tshering Namchu'
tp64
a(S'100001808748214'
S'Achraj Gupta'
tp65
a(S'100002810265413'
S'Akashdeep Saini'
tp66
a(S'100004604473254'
S'Percals Jhon'
tp67
a(S'100003983797156'
S'Nitish Mann'
tp68
a(S'100002682184545'
S'Kunal Mehta'
tp69
a(S'100004661462918'
S'Nishant Sharma'
tp70
a(S'100002663880755'
S'Rana Ranaji'
tp71
a(S'100001254853571'
S'Manish Vashisht'
tp72
a(S'100001257485213'
S'Sonali Saini'
tp73
a(S'100001692144395'
S'Sagar Rana'
tp74
a(S'100002152753301'
S'Jai Singh'
tp75
a(S'548344709'
S'Raghav Dahuja'
tp76
a(S'100002619578343'
S'Sagar Khorwal'
tp77
a(S'100003485311740'
S'Deepak Phougat'
tp78
a(S'100001148024832'
S'Harry Singh Rana'
tp79
a(S'100002108087946'
S'Shruti Singh'
tp80
a(S'100001762021150'
S'Rishabh Saxena'
tp81
a(S'1670294981'
S'Sandeep Sharma'
tp82
a(S'100003765677918'
S'Himanshu Dhania'
tp83
a(S'100002552283244'
S'Prince Gautam'
tp84
a(S'100007280497531'
S'Sakshi Kaushik'
tp85
a(S'100003284168807'
S'Amar Sharma'
tp86
a(S'100000356527202'
S'Tanushree Sharma'
tp87
a(S'100002209866040'
S'Charles Wilfred'
tp88
a(S'100002604767313'
S'Rahul Chandel'
tp89
a(S'100000455429347'
S'Anshu Mann'
tp90
a(S'100002122605297'
S'Rahul Rana Bjym'
tp91
a(S'100003274256602'
S'Anshul Dhania'
tp92
a(S'100004069630394'
S'Happy Sharma'
tp93
a(S'100003188763702'
S'Akash Deep Saini'
tp94
a(S'100002516984528'
S'Rahul Mudgal'
tp95
a(S'100002600108852'
S'Abhishek Shek'
tp96
a(S'100002204831869'
S'Prateek Gautam'
tp97
a(S'100001037440074'
S'Abhishek Rana'
tp98
a(S'1645640382'
p99
S'Arjoonn Sharma'
tp100
a(S'100001374466752'
S'Ayush Ydv'
tp101
a(S'100002437564740'
S'Ashish Tyagi'
tp102
a(S'1337460254'
S'Mitali Poovayya'
tp103
a(S'100002270411937'
S'Rajeev Ghotar'
tp104
a(S'100004513178534'
S'Vikas Sharma'
tp105
a(S'100004056671708'
S'Gaurav Rana'
tp106
a(S'100001669321654'
S'Rohan Vashist'
tp107
a(S'100002206790553'
S'Vaishali Kaushik'
tp108
a(S'100002907900890'
S'Ashish Vashist'
tp109
a(S'100002014644163'
S'Hemant Rana'
tp110
a(S'100006236733613'
S'Mohit Shimar'
tp111
a(S'100001373508180'
S'Saurabh Suryavanshi'
tp112
a(S'100004115294554'
S'Parvinder Rana Veela Jaat'
tp113
a(S'100000722529762'
S'Tanya Sharma'
tp114
a(S'100004122223178'
S'Rahul Dev'
tp115
a(S'100003151852637'
S'Mani Bhaskar'
tp116
a(S'100005707712307'
S'Sonu Chhillar'
tp117
a(S'100002618078175'
S'Mohit Sharma'
tp118
a(S'100002462035748'
S'Justin Rocketman'
tp119
a(S'100001683880835'
S'Mohit Parcha'
tp120
a(S'100007633774208'
S'Pankaj Mudgal'
tp121
a(S'100001468658739'
S'Ashish Saini'
tp122
a(S'100001515636244'
S'Anirudh Singh'
tp123
a(S'100001627981274'
S'Rajesh Prasad'
tp124
a(S'100002369037464'
S'Anil Verma'
tp125
a(S'100002979331729'
S'Manisha Sharma'
tp126
a(S'100002913363864'
S'M\\u00e4\\u00ff\\u00e4\\u00f1k R\\u00e1\\u00f1\\u00e0'
tp127
a(S'1409597903'
S'Galina Rana'
tp128
a(S'100003243116146'
S'Aelric Rana'
tp129
a(S'100001188650195'
S'Govind Bhardwaj'
tp130
a(S'100004150293918'
S'Rahul Mudgil'
tp131
a(S'100003772998772'
S'Vikrant Singh'
tp132
a(S'100003775470137'
S'Gaurish Kant Shukla'
tp133
a(S'100003062156847'
S'Praveen Dahiya'
tp134
a(S'100000622956548'
S'Gagan Mahajan'
tp135
a(S'100006042192318'
S'Jagmohan Singh'
tp136
a(S'100005562164390'
S'Vikas Sharma'
tp137
a(S'100001658063580'
S'Troy Bolton'
tp138
a(S'1805622215'
S'Ankit Urs Forevr'
tp139
a(S'100002722909208'
S'Kiran Roy'
tp140
a(S'100000558729548'
S'Hardeep Dahiya'
tp141
a(S'100002636486540'
S'Kamal Kumar'
tp142
a(S'100007737523498'
S'Mohit Saini'
tp143
a(S'100003542795602'
S'Angel Deep'
tp144
a(S'100001449984442'
S'Navdeep Gaur'
tp145
a(S'100001968935312'
S'Navin Sharma'
tp146
a(S'100000973872178'
S'Shailendra Kharwal'
tp147
a(S'100002211714059'
S'Preeti Rao'
tp148
a(S'100003281105417'
S'Ashish Vats'
tp149
a(S'100001074193433'
S'Sachin Rana'
tp150
a(S'100002074381752'
S'Shikha Sharma'
tp151
a(S'100002454813721'
S'Ketan Rana'
tp152
a(S'100001190935953'
S'Shubu Mann'
tp153
a(S'100002271253137'
S'Ashlesha Singh'
tp154
a(S'100001616557358'
S'Kajol Mathur'
tp155
a(S'100002377555546'
S'Rocking Dikshant'
tp156
a(S'100006294520003'
S'Rajvir Saini'
tp157
a(S'100001307526914'
S'Rohit Sharma'
tp158
a(S'100002645262923'
S'Naina Batra'
tp159
a(S'1672677132'
S'Annu Malhotra'
tp160
a(S'100003004496321'
S'James Thomas'
tp161
a(S'100001915647610'
S'Ankita Maheshwari'
tp162
a(S'100006452916376'
S'\\u00c4tul Sh\\u00e4rm\\u00e5'
tp163
a(S'100002054421985'
S'Kajal Lakhera'
tp164
a(S'100004681629801'
S'Prince Tyagi'
tp165
a(S'100008313005376'
S'Nidhish Mann'
tp166
a(S'100002864085725'
S'Seema Rana'
tp167
a(S'100000588662219'
S'Shubham Rolend'
tp168
a(S'100004663505459'
S'Prithvi Singh'
tp169
a(S'100001583120158'
S'Rakesh Bhardwaj'
tp170
a(S'100003103552238'
S'Nischay Sharma'
tp171
a(S'100002978472303'
S'Ankit Kumar'
tp172
a(S'100002673592011'
S'Shivam Gupta'
tp173
a(S'100003658960919'
S'Roshan Oraon'
tp174
a(S'100001968680090'
S'Honey Singh'
tp175
a(S'100002516749072'
S'Abhimanyu Rana'
tp176
a(S'100007841618300'
S'Achu Bhardwaj'
tp177
a(S'100000462738327'
S'Krishan Bishnoi'
tp178
a(S'1312204917'
S'Ribhav Pande'
tp179
a(S'100002918911737'
S'Deepanshu Rohilla'
tp180
a(S'100000264711777'
S'Ankit J \\u00dfeck'
tp181
a(S'100002200782195'
S'Priya Arora'
tp182
a(S'100001063677102'
S'Sukrit Joshi'
tp183
a(S'100004097370428'
S'Karishma Kaushik'
tp184
a(S'100002660655416'
S'Prakhar Srivastava'
tp185
a(S'100000939402883'
S'Vipin Sharma'
tp186
a(S'100001362626325'
S'Gaurav Kaushik'
tp187
a(S'100002956371366'
S'Nikhil Sachdeva'
tp188
a(S'100002589502891'
S'Himanshu Aggarwal'
tp189
a(S'100006300244578'
S'Vishal Kaushik'
tp190
a(S'100001641160459'
S'Sudhanshu Singh Panwar'
tp191
a(S'100002133505788'
S'Jaswant Rathor'
tp192
a(S'100003837205615'
S'Kartik Mann'
tp193
a(S'100003176026685'
S'Vinay Rana'
tp194
a(S'100003512528545'
S'Praveen Rana'
tp195
a(S'100000944104079'
S'Aakash Risky Jatt'
tp196
a(S'100003186219712'
S'Pawan Kumar'
tp197
a(S'100002493211116'
S'Himanshu Mann'
tp198
a(S'100002442718791'
S'Vipin Rana'
tp199
a(S'1636386248'
S'Shourya Awasthi'
tp200
a(S'100002363750574'
S'Shrishti Verma'
tp201
a(S'100000247338521'
S'KrRish RaNa'
tp202
a(S'100004044406615'
S'Sagar Kundu'
tp203
a(S'100003076522710'
S'Dhirender Rana'
tp204
a(S'100002944325753'
S'Pallavi Sanan'
tp205
a(S'100001839060991'
S'Priya Gupta'
tp206
a(S'100003163930225'
S'Vishal Gangirwal'
tp207
a(S'100003804734744'
S'Dishant Chauhan'
tp208
a(S'100006484982593'
S'Ananya Mishra'
tp209
a(S'100002399198648'
S'Sawan Tyagi'
tp210
a(S'100002027343499'
S'Praveen Rana'
tp211
a(S'100004399417586'
S'Pawan Kr'
tp212
a(S'100001588470382'
S'Nivesh Chauhan'
tp213
a(S'100002141455798'
S'Dinesh Rana'
tp214
a(S'100000067600638'
S'Mihir Kumar'
tp215
a(S'100005135941767'
S'Sagar Mann'
tp216
a(S'100002136635277'
S'Diksha Agrawal'
tp217
a(S'100006465131376'
S'Jyoti Bhardwaj'
tp218
a(S'100007292228178'
S'Mohit Saini'
tp219
a(S'100002955766896'
S'Rohit Kumar Pal'
tp220
a(S'100001613454245'
S'Vishu Chaudhary'
tp221
a(S'100002591579129'
S'Arvind Rana'
tp222
a(S'100005697061128'
S'Rahul Kaushik'
tp223
a(S'100001052109969'
S'Mohit Kumar'
tp224
a(S'100000032747853'
S'Kovid Parkash Mudgal'
tp225
a(S'100002378454144'
S'Tannu Mann'
tp226
a(S'100001964573304'
S'Gourav Rss Dwivedi'
tp227
a(S'100007564920975'
S'Tarun Kumar'
tp228
a(S'100000911004939'
S'Vinit Sharma'
tp229
a(S'100000633649402'
S'George Joseph'
tp230
a(S'100003158100711'
S'Sangeeta Bhardwaj'
tp231
a(S'100006457509391'
S'Kritika Kaushik'
tp232
a(S'100003812533910'
S'Karishma Kaushik'
tp233
a(S'100003763481270'
S'Keshav Sharma'
tp234
a(S'100002244007500'
S'Harry Obrian'
tp235
a(S'100003376460309'
S'Rinku Mann'
tp236
a(S'100003017340351'
S'Ujjwal Rana'
tp237
a(S'100002610137692'
S'Shally Arora'
tp238
a(S'100006054518024'
S'Vineet Vats'
tp239
a(S'100007463341741'
S'Monica Mann'
tp240
a(S'100002381648735'
S'Vishal Mann'
tp241
a(S'100004236704238'
S'Pragati Mishra'
tp242
a(S'100002602344787'
S'Viney Sharma'
tp243
a(S'100002567783640'
S'Sanjeev Mann'
tp244
a(S'100003347658099'
S'Vikas Sharma'
tp245
a(S'100000775229233'
S'Hunny Rohilla'
tp246
a(S'100006349481120'
S'Sanjeev Mann'
tp247
a(S'100002282484146'
S'Sandeep Shrma'
tp248
a(S'100002690418903'
S'Mohit Bhardwaj'
tp249
a(S'100001825505984'
S'Harsh Gaur'
tp250
a(S'100000294718753'
S'Nisha Arora'
tp251
a(S'100001532543330'
S'Tanisha Sharma'
tp252
a(S'100003145535953'
S'Sunny Gupta'
tp253
a(S'100002464355574'
S'Manish Kumar'
tp254
asS'id'
p255
S'100002173765340'
p256
sS'name'
p257
S'Tarun Sharma'
p258
s.