(dp1
S'friends'
p2
(lp3
(S'100004048582934'
S'Vipin Mishra'
tp4
a(S'100001810666790'
p5
S'Radhe Krishan'
tp6
a(S'100001173275383'
S'Rajesh Mishra'
tp7
a(S'1820942579'
S'Prem Chandra Tewari'
tp8
a(S'100005800803860'
S'Anuradha Sharma'
tp9
a(S'100000764367921'
S'Manish Kandpal'
tp10
a(S'100002312225958'
S'Bhaskar Singh'
tp11
a(S'100002171058233'
S'Subhash Singh'
tp12
a(S'100004310674326'
S'Rajendra Prasad Mishra'
tp13
a(S'100004444090090'
S'Dilip Nigam'
tp14
a(S'1580944642'
S'Anshumali Misra'
tp15
a(S'100004102490734'
S'Shiv Gaur'
tp16
a(S'100003562830381'
S'Abhishek Tandon'
tp17
a(S'100003852086954'
S'Dksinha Sinha'
tp18
a(S'100003284421955'
S'Sunil Kumar'
tp19
a(S'219047'
S'Avesh Dixit'
tp20
a(S'1521618965'
S'Bhavesh Kumar Gupta'
tp21
a(S'100001413241720'
S'Rajkumar Rawat'
tp22
a(S'100001567004291'
S'Ugra Nath'
tp23
a(S'100001596351090'
S'Rahul Agnihotri'
tp24
a(S'1304245323'
S'Bhupendra Singh'
tp25
a(S'1208701487'
S'Abdullah Rahman'
tp26
a(S'100001376767512'
S'Pradeep Pandey'
tp27
a(S'100001321478154'
S'K.b. Singh'
tp28
a(S'100006866141210'
S'Dinesh Kumar'
tp29
a(S'1052650784'
S'Dheerendra B Singh'
tp30
a(S'100001050118080'
S'Anoop Srivastava'
tp31
a(S'100002418901046'
S'R.k. Paul'
tp32
a(S'100001434082690'
S'Mohan Mishra'
tp33
a(S'100003811446253'
S'Arvind Shukla'
tp34
a(S'100002399420558'
S'DrRajesh Yadav'
tp35
a(S'669660115'
S'Himanshu Mahapatra'
tp36
a(S'100001632191606'
S'Awani Karn'
tp37
a(S'100001926009336'
S'Abhilash Tripathi'
tp38
a(S'100003277100126'
S'Harpal Singh'
tp39
a(S'100003742911865'
p40
S'Ved Parkash'
tp41
a(S'100002837959467'
S'Kushi Srivastava'
tp42
a(S'100001168293288'
S'Sunil Kaushal'
tp43
a(S'100002511411556'
S'Krishanpalsingh Dinker'
tp44
a(S'1248730847'
S'Rajshekhar Mishra'
tp45
a(S'100002423637753'
S'Manas Raj Tiwari'
tp46
a(S'100000517315916'
S'Pramod Kumar Sharma'
tp47
a(S'100001111863925'
S'Pawan Toon'
tp48
a(S'100002391829938'
S'Pramod Kumar'
tp49
a(S'100001956518145'
S'Sanjit Verma'
tp50
a(S'100005113592365'
S'Moloy Das'
tp51
a(S'100003937385409'
S'Deepak Khatri'
tp52
a(S'100002908974452'
S'Raj Kumar'
tp53
a(S'100003747016520'
S'Prabhat Kumar Tiwari'
tp54
a(S'617570974'
S'Aman Sinha'
tp55
a(S'1074652902'
S'Arun Chandra Roy'
tp56
a(S'100003892305198'
S'Paramjeet Yadav'
tp57
a(S'547063087'
S'Ravi Bhushan'
tp58
a(S'100003301434116'
S'Gyanchand Pal'
tp59
a(S'100000299553525'
S'Shiv Gaur'
tp60
a(S'1065539686'
S'Mayank Agnihotri'
tp61
a(S'100000096473531'
S'Shashi Bhushan'
tp62
a(S'100000432872931'
S'Pankaj Kumar'
tp63
a(S'1280701710'
S'Sanjay Kumar Tiwari'
tp64
a(S'100001594531521'
p65
S'Manoj Aswal'
tp66
a(S'1055872817'
S'Shailendra Kpc Maurya'
tp67
a(S'100004465210669'
S'Padamkant Shukla'
tp68
a(S'1679059639'
S'Ajeet Singh'
tp69
a(S'100002160116471'
S'Shashi Prakash Pandey'
tp70
a(S'554032625'
S'Cartoonist Irfan'
tp71
a(S'100002819142669'
S'Lal Babu Prasad'
tp72
a(S'100002201847221'
S'Sanjay Kumar'
tp73
a(S'100003343368746'
S'Sita Kant Mishra'
tp74
a(S'1847928588'
S'Arvind Kumar Pandey'
tp75
a(S'100001853492135'
S'Bharat Singh'
tp76
a(S'100000109022421'
S'Nikhil Saxena'
tp77
a(S'100000430010289'
S'Arun Kumar N V'
tp78
a(S'100000427545600'
S'Aakash Devra'
tp79
a(S'1363987711'
S'Raghubir Sharma'
tp80
a(S'1467398103'
S'Girijesh Tiwari'
tp81
a(S'100002430286770'
S'Satyamurti Nagesh'
tp82
a(S'100002280442988'
S'Rajendra Singh'
tp83
a(S'100002031548823'
S'Abhyudaya Shukla'
tp84
a(S'1055753764'
S'Gyan Dutt Pandey'
tp85
a(S'100002037124673'
S'Krishna Kumar Pandey'
tp86
a(S'100001899765482'
S'Kartik Saini'
tp87
a(S'100002700169915'
S'Sunila Sabharwal'
tp88
a(S'100004392821673'
S'Shabdavali New Delhi'
tp89
a(S'100000237233381'
S'Arunesha Kulshreshtha'
tp90
a(S'100005921132181'
S'Csols Ta'
tp91
a(S'100003149855593'
S'Bhadu Mandal'
tp92
a(S'100000686323353'
S'Sarwar Alam'
tp93
a(S'1496779050'
S'Deepak Panjwani'
tp94
a(S'1028190398'
S'Vinay Singh'
tp95
a(S'100002212113273'
S'Hl Razdan'
tp96
a(S'100001554431145'
S'Ravindra Nath Shukla'
tp97
a(S'100001304563970'
S'Sidhartha Shukla'
tp98
a(S'100002107697181'
S'Parmanand Arya'
tp99
a(S'100006332923521'
p100
S'Raj Mishra'
tp101
a(S'100001150471278'
S'Navin Toppo'
tp102
a(S'100002496999795'
S'Rakesh Malik'
tp103
a(S'100003577093102'
S'Dinesh Kumar'
tp104
a(S'100002446313997'
S'Atul Srivastava'
tp105
a(S'100001265021175'
S'Dilip Sinha'
tp106
a(S'100001700854591'
S'Rakesh Mohan'
tp107
a(S'1315560661'
S'Vimal Kaul'
tp108
a(S'100001798931424'
S'Jagdish Kinjalk'
tp109
a(S'100000396242441'
S'Arvind Shukla'
tp110
a(S'100000110746934'
S'Piyush Mittal'
tp111
a(S'767419803'
S'Jhumka Bhattacharya'
tp112
a(S'1164907388'
S'Nitin Kumar Singh'
tp113
a(S'100001633549470'
S'Purnendu Kant'
tp114
a(S'100002526241030'
S'Kr Jaips'
tp115
a(S'1061591172'
S'Tushar Mukarji'
tp116
a(S'100003911917640'
S'Seema Soni'
tp117
a(S'100001368678520'
S'Chantibabu Murthy'
tp118
a(S'100001652794254'
S'Pulkesh Sharma'
tp119
a(S'647373902'
S'D.S. Rawat'
tp120
a(S'100001361343529'
p121
S'Sandeep Kaviraj'
tp122
a(S'100001122416141'
S'Raja Chatterjee'
tp123
a(S'786845933'
S'Vishal Singh'
tp124
a(S'100002466276465'
S'Lts Sachinkapoor'
tp125
a(S'100005262874065'
S'Ashwani Singh'
tp126
a(S'100001307107474'
S'Kreative Kartik'
tp127
a(S'100002014281570'
S'Pankaj Srivastava'
tp128
a(S'100001909378051'
S'Sameer Sanjay Misra'
tp129
a(S'100002851430483'
S'Sanjeela Yadav'
tp130
a(S'1042359372'
S'Anu Mishra'
tp131
a(S'100000773449592'
S'Indradeo Tiwari'
tp132
a(S'100002919167274'
S'Pankaj Rathore'
tp133
a(S'100000500241681'
S'Puneet Magan'
tp134
a(S'100001898749019'
S'Sanjay Pratap Singh'
tp135
a(S'100000507036750'
S'Arvind Kumar'
tp136
a(S'1656654056'
S'Sandipan Singh'
tp137
a(S'100002262843241'
S'Rp Tiwari'
tp138
a(S'100002583123554'
S'Tapasraj Tewari'
tp139
a(S'764414769'
S'Rituraj Gupta'
tp140
a(S'100001151928495'
S'Nicholas Xalxo'
tp141
a(S'100004017712608'
S'Rajnish Pandey'
tp142
a(S'100001491651943'
S'Udai Pratap Singh'
tp143
a(S'100001211787743'
S'Ramesh Kumar'
tp144
a(S'100004034446773'
S'Dinesh Singh'
tp145
a(S'100000675499842'
S'Rajesh Singh'
tp146
a(S'100000251414416'
S'Ramesh Srivastava'
tp147
a(S'100001579772997'
S'\\u0930\\u093e\\u091c\\u0947\\u0902\\u0926\\u094d\\u0930 \\u0905\\u0935\\u0938\\u094d\\u0925\\u0940'
tp148
a(S'1580286418'
S'Sumit Saxena'
tp149
a(S'100002446930028'
S'Rajeev Mishra'
tp150
a(S'100006440965749'
S'Shri Rock'
tp151
a(S'100006138965066'
S'Anil Lakhani'
tp152
a(S'100000538954354'
S'Shashi Kant Singh'
tp153
a(S'100003837454694'
S'David Kumar'
tp154
a(S'100002659345607'
S'Ramanuj Gautam'
tp155
a(S'100001418040006'
S'Umesh Jaiswal'
tp156
a(S'100002813488919'
S'Sushil Bhushan'
tp157
a(S'100004030549281'
S'Prateek Mishra'
tp158
a(S'1110121132'
S'Balvinder Singh'
tp159
a(S'100003042436701'
S'Raajeev Misra'
tp160
a(S'100003120980109'
S'Manoj Joshi'
tp161
a(S'100003257354893'
S'Dinesh Kant Tripathi'
tp162
a(S'1020718001'
S'Nishant Mishra'
tp163
a(S'100003338106814'
S'Nitin Kapoor'
tp164
a(S'100001104440577'
S'Shailendra Dixit'
tp165
a(S'100001054227995'
S'Bhim Singh'
tp166
a(S'100003796113288'
p167
S'Archana Kukreja'
tp168
a(S'1676391163'
S'Amit Singh'
tp169
a(S'100003168807940'
S'Ashish Rastogi'
tp170
a(S'1316256786'
S'Rakesh Pandey'
tp171
a(S'581564321'
S'Arun Kumar'
tp172
a(S'1590670799'
S'Kumar Radharaman'
tp173
a(S'1287720708'
S'Sudhanshu Saxena'
tp174
a(S'100001337236927'
S'Harsh Mishra'
tp175
a(S'100005905297168'
S'Suneel Pal'
tp176
a(S'100001412164941'
S'Munna Kumar'
tp177
a(S'1169946582'
S'Surya Prakash'
tp178
a(S'100001796162212'
S'Anil Rai'
tp179
a(S'100002142382906'
S'Neeraj Srivastava'
tp180
a(S'100002474826571'
S'Kulbhushan Malhotra'
tp181
a(S'100002798054547'
S'Abhay Prakash Mall'
tp182
a(S'100003182251497'
S'Kalpana Misra'
tp183
a(S'100001947202006'
S'Sanat Jain'
tp184
a(S'100002898856841'
S'Harish Jain'
tp185
asS'id'
p186
S'100002560398358'
p187
sS'name'
p188
S'Ashis Katyayan'
p189
s.