(dp1
S'friends'
p2
(lp3
(S'100001154973594'
S'Madhu Kiran'
tp4
a(S'1577682773'
S'Fathima Faikha Khan'
tp5
a(S'1235758553'
S'Shino Abraham'
tp6
a(S'100001283156657'
S'Raju Mallappa'
tp7
a(S'1134319215'
S'Prithi Sridharan'
tp8
a(S'100004015205152'
S'Zynah Hajar'
tp9
a(S'1656709734'
S'Abrar Ahmed'
tp10
a(S'1704303993'
S'Manjit Hari'
tp11
a(S'100000158522012'
S'Pramukh Sandela'
tp12
a(S'100000031248139'
S'Adnaan Khan'
tp13
a(S'774500583'
S'Amit Punjabi'
tp14
a(S'1210503556'
S'Karun Krishna'
tp15
a(S'1679902397'
S'Ruman AHmed'
tp16
a(S'1170393088'
S'Mariam Shariff'
tp17
a(S'100000506083887'
S'Mervin Jason'
tp18
a(S'100000004047019'
S'Dishanth Jain'
tp19
a(S'1732453920'
S'Anoop Samuel'
tp20
a(S'100004097677593'
S'Aparna Vijayan'
tp21
a(S'1280987486'
S'Deeksha Dayaghan Shanbhag'
tp22
a(S'1241850630'
S'Keerthy Sreenivasan'
tp23
a(S'734317099'
S'Sandeep Baynes'
tp24
a(S'1592320569'
S'Deepesh Sondagar'
tp25
a(S'1228418272'
S'Gayathri Uma Maheswari'
tp26
a(S'1804502908'
S'Gideon Jayaneson'
tp27
a(S'1651557833'
S'Thrishala Jayachandra'
tp28
a(S'1672281039'
S'Jasmi Mary'
tp29
a(S'100002044689199'
S'Akcent Taher'
tp30
a(S'100002771132477'
S'Khushi Jain'
tp31
a(S'1348022611'
S'Umar Farooq'
tp32
a(S'1154575059'
S'Annson Ninan'
tp33
a(S'830724692'
S'Shivang Ram'
tp34
a(S'1205348063'
S'Nikhil Ag'
tp35
a(S'1439880920'
S'Akshay Sivakumar'
tp36
a(S'100000448078605'
S'Ashhar Kamaal'
tp37
a(S'1405818916'
S'Meera Chithirappaavai'
tp38
a(S'1762022087'
S'Ayesha Siddiqua'
tp39
a(S'1613870588'
S'Asheel Raj'
tp40
a(S'100003655700888'
S'Burn Benji'
tp41
a(S'1524886882'
S'Disha Paraj'
tp42
a(S'1571682540'
S'Jagmeet Chawla'
tp43
a(S'100000137911725'
S'Syed Shadab'
tp44
a(S'100004064986701'
S'Ayesha Sultana'
tp45
a(S'100005489803263'
S'Julie Pearl Sharon'
tp46
a(S'1422721519'
S'Basirat Amir'
tp47
a(S'1576966071'
S'Christina Nikitha'
tp48
a(S'100000358554194'
S'Pranita Sandela'
tp49
a(S'1084707737'
S'Jawad Furqan'
tp50
a(S'1320023029'
S'Jawwad Ahmed'
tp51
a(S'1449397352'
S'Gladys Gnanodayam'
tp52
a(S'1465241689'
S'Vijay Chacko'
tp53
a(S'1560327806'
S'Amala Anil'
tp54
a(S'1495464878'
S'Nicky Siga'
tp55
a(S'100001248226456'
S'Akshaya Balan'
tp56
a(S'100001588800285'
S'Ajith Madhusoodanan'
tp57
a(S'1263634048'
S"Tresseta Lauretta D'cruz"
tp58
a(S'1156561053'
S'Akshaya Murali'
tp59
a(S'100001489987984'
S'Shaik Mansoor'
tp60
a(S'595720116'
S'Karishma Mohinani'
tp61
a(S'1579714579'
S'Abrar Hyder'
tp62
a(S'1718550925'
S'Afia Lodi'
tp63
a(S'1063522775'
S'Fazila Khan'
tp64
a(S'1292266364'
S'Nirmala Shreyas'
tp65
a(S'1823808316'
S'Jags Singh'
tp66
a(S'1801680462'
S'Fabiha Iman'
tp67
a(S'798157234'
S'Neha Soman'
tp68
a(S'1555719506'
S'Ajay Srinivasan'
tp69
a(S'1620640452'
S'Zoya Ayoz'
tp70
a(S'1294376994'
S'Rohit Shetty'
tp71
a(S'100000583407355'
S'Karthik Anand'
tp72
a(S'100000000307665'
S'Dina Asghar'
tp73
a(S'1613486058'
S'Mervin Nirmal John'
tp74
a(S'1181112240'
S'Rakshit Bysani'
tp75
a(S'1401358227'
S'Asif Baig'
tp76
a(S'100000041058944'
S'Evita Smith'
tp77
a(S'1356260786'
S'Gnanesh Jayraj'
tp78
a(S'1009397488'
S'Alisha Pearl Miranda'
tp79
a(S'1780033039'
S'Hrishikesh Suresh'
tp80
a(S'1062686601'
S'Tahira Khan'
tp81
a(S'1667881538'
S'Deeba Ayeesha'
tp82
a(S'100003109354494'
S'Abu Suffyan'
tp83
a(S'100000296666064'
S'Arpitha Atchutuni'
tp84
a(S'1841516838'
S'Safeer Ahmed'
tp85
a(S'721103937'
S'Aishwarya Anil Kumar'
tp86
a(S'100000253735337'
S'Emaad Abousher'
tp87
a(S'100000769713263'
S'Rayan Mohammed'
tp88
a(S'694789548'
S'Kalyani Sundararajan'
tp89
a(S'1828697109'
S'Joseph Daniel'
tp90
a(S'100001114634270'
S'Zoya Habiba'
tp91
a(S'1507647894'
S'Prashanth PJ Roxx'
tp92
a(S'1337460254'
p93
S'Mitali Poovayya'
tp94
a(S'1190841469'
S'Madine Muhammed'
tp95
a(S'1385238535'
S'Ruhi Akram'
tp96
a(S'100000139037090'
S'Fateh Arshed Mohammed'
tp97
a(S'686159324'
S'Alisha Lewis'
tp98
a(S'1107087846'
S'Rayan Amir'
tp99
a(S'1440924494'
S'Tanya Bhalla'
tp100
a(S'1646661923'
S'Zuhaib Ahmed'
tp101
a(S'1290674263'
S'Shashank Stuart'
tp102
a(S'100000891122208'
S'Sri Harsha N N'
tp103
a(S'100000648490866'
S'Aeji Lee'
tp104
asS'id'
p105
S'100000309245518'
p106
sS'name'
p107
S'Ayesha Sultana'
p108
s.