(dp1
S'friends'
p2
(lp3
(S'512185697'
S'Mustafa Raofi'
tp4
a(S'723417353'
S'Saleem Ata'
tp5
a(S'600966409'
S'Habib Balkhi'
tp6
a(S'1279045653'
S'Ehssan Qiam'
tp7
a(S'1031842978'
S'Sahar Bari'
tp8
a(S'667281888'
S'Leo Here'
tp9
a(S'1142176208'
S'Assad Zmarai'
tp10
a(S'790315897'
S'Mansoor Ghazi'
tp11
a(S'529632976'
S'Khalid Rameen Mohamadi'
tp12
a(S'1207069902'
S'Sam Samimi'
tp13
a(S'709873121'
S'Hamed Qaderi'
tp14
a(S'532274047'
S'S Sajid Yousafzai'
tp15
a(S'1148633076'
S'Yawar Yawari'
tp16
a(S'506390521'
S'Shivam Vij'
tp17
a(S'1290846355'
S'\\u0622\\u064a\\u0622\\u062f \\u0645\\u062d\\u0645\\u062f'
tp18
a(S'698901073'
S'Sayeed Ahmad Qani'
tp19
a(S'844819058'
S'Mohammad Ali Sarwari'
tp20
a(S'1259809457'
S'Sabir Taimoor'
tp21
a(S'1095891557'
S'Tamanna Roashan'
tp22
a(S'1266205186'
S'\\u062e\\u0631\\u0627\\u0633\\u0627\\u0646 \\u0628\\u0632\\u0631\\u06af'
tp23
a(S'1148275866'
S'Arian Yaqubi'
tp24
a(S'580154930'
S'Abdul Malik Niazi'
tp25
a(S'1276463391'
S'Shagufta Shaheen'
tp26
a(S'671377714'
S'Asif Maroof'
tp27
a(S'1239578297'
S'Aaria Jamshid'
tp28
a(S'619001290'
S'Naveed Russal'
tp29
a(S'1109585469'
S'Siawash Dada'
tp30
a(S'1244386807'
S'Afghan Videos'
tp31
a(S'1063956426'
S'Saeed Kiamanesh'
tp32
a(S'633478651'
S'Shahid Khan'
tp33
a(S'721187328'
S'Amjad Ali Shah'
tp34
a(S'728000453'
S'Baseer Safi'
tp35
a(S'1128745556'
S'Mustafa Qazi'
tp36
a(S'537914583'
S'Osman Osmany'
tp37
a(S'626872057'
S'Tanveer Ahmed'
tp38
a(S'682600718'
S'Ahmad Tamim'
tp39
a(S'834469768'
S'Aziz-Ahmad Fard'
tp40
a(S'692209462'
S'Abdul Ahad Talash'
tp41
a(S'515293418'
S'Abdul Ghaffar Nazari'
tp42
a(S'743668666'
S'Afghan Ryahan'
tp43
a(S'1303704141'
S'Mehdi Kiamanesh'
tp44
a(S'627777939'
S'Ruby Yaqoot'
tp45
a(S'557543022'
S'Murid Shafaq'
tp46
a(S'523937036'
S'Afghan Friend'
tp47
a(S'659806830'
S'Ahmad Jan Habibi'
tp48
a(S'665146498'
S'\\u06a9\\u06cc\\u0648\\u0645\\u0631\\u062b \\u0622\\u0631\\u0634'
tp49
a(S'1279926976'
S'Rohullah Nasimi'
tp50
a(S'1009152105'
S'Fareda Nasr'
tp51
a(S'680758264'
S'\\u062d\\u0636\\u0631\\u062a \\u0638\\u0631\\u06cc\\u0641\\u06cc'
tp52
a(S'709586087'
S'Baktash Shirzada'
tp53
a(S'619685830'
S'Abdul Wakil Wadan'
tp54
a(S'100002085311776'
S'Mena Mangal'
tp55
a(S'695981230'
S'Zeshan Khan'
tp56
a(S'517864470'
S'Wahed Abawi'
tp57
a(S'705775487'
S'Humayun Meskinyar'
tp58
a(S'1311093251'
S'Asim Riaz'
tp59
a(S'720293422'
S'Farhad Ghafoor'
tp60
a(S'627410140'
S'\\u0410\\u043c\\u0430\\u043d \\u042e\\u0441\\u0435\\u0444\\u0438'
tp61
a(S'568230765'
S'Wajed B-boi Tck'
tp62
a(S'1070154414'
S'Maroof Walizada Achekzai'
tp63
a(S'1264673168'
S'Mohammad Shapoor Gul Malikzai'
tp64
a(S'1081040097'
S'Maria Ayar'
tp65
a(S'776877248'
S'Jamshid Rahguzar'
tp66
a(S'544649481'
S'Wajeed Bangash'
tp67
a(S'1083755100'
S'Edrees Syaawash'
tp68
a(S'1242822165'
S'Noorullah Aziz'
tp69
a(S'1249492331'
S'Massihullah Abdul Rahman Rahmani'
tp70
a(S'1152472891'
S'Pakhtun Zalmay'
tp71
a(S'1241004499'
S'Sompron Inthachod'
tp72
a(S'1143052445'
S'Omid Jan'
tp73
a(S'1230486708'
S'Hoshang Bahar'
tp74
a(S'1010203402'
S'Emal Poya'
tp75
a(S'762255143'
S'Mustafa Asifi'
tp76
a(S'1232757419'
S'Hamid Khan'
tp77
a(S'1098932553'
S'Shahid Pervaiz'
tp78
a(S'703560736'
S'Mustafa Farzad'
tp79
a(S'1200750605'
S'Tuna Han'
tp80
a(S'543702331'
S'Qais Ahmad'
tp81
a(S'1287102228'
S'\\u06a9\\u062c \\u0628\\u0634\\u06cc\\u0646 \\u0631\\u0627\\u0633\\u062a \\u0628\\u06af\\u0648'
tp82
a(S'759531940'
S'Nawid Haidari'
tp83
a(S'1057441611'
S'Marwan Tolah'
tp84
a(S'587023991'
S'Noorahman Mayar'
tp85
a(S'1187855550'
S'Malali Afghan'
tp86
a(S'714265733'
S'Basir Bakhshi'
tp87
a(S'698623696'
S'Ahmad Hussein Enayat'
tp88
a(S'559966240'
S'Fan Club Melodi'
tp89
a(S'1264354313'
S'Mahtab Zamini'
tp90
a(S'1082313247'
S'Jonty Ali'
tp91
a(S'1169751765'
S'Nawroz Rateb'
tp92
a(S'1005167059'
S'Homauyn Kamgar'
tp93
a(S'1057501495'
S'Bashir Hamidi'
tp94
a(S'1062593111'
S'Mursal Jalali'
tp95
a(S'1181880626'
S'Mohammad Asif Agah'
tp96
a(S'1185378481'
S'Iman-tv Afghan'
tp97
a(S'1020511167'
S'\\u063a\\u064a\\u0648\\u0631 \\u0643\\u0647\\u0632\\u0627\\u062f'
tp98
a(S'553172931'
S'Samira Wardak'
tp99
a(S'1046949093'
S'Sobair Wardak'
tp100
a(S'1237661144'
S'King Ghaznawi'
tp101
a(S'742019054'
S'Tahir Qadiry'
tp102
asS'id'
p103
S'100001766153497'
p104
sS'name'
p105
S'\\u0635\\u0631\\u0641 \\u0644\\u0628\\u062e\\u0646\\u062f'
p106
s.