(dp1
S'friends'
p2
(lp3
(S'100000724776191'
S'Rahim Khan'
tp4
a(S'100001259924893'
S'Ziau Sidiki'
tp5
a(S'100003261323338'
S'Sidiqi Abdulqayoom'
tp6
a(S'100003291483792'
S'Afg Afghan'
tp7
a(S'100002832100099'
S'Imane Youssra'
tp8
a(S'100002557805625'
S'Omeraz Deded Jones'
tp9
a(S'100000619566836'
S'Laiba Arif'
tp10
a(S'100001104126062'
S'Fazalrabi Mohmand'
tp11
a(S'1313500690'
S'Luis Oswaldo Henr\\u00edquez Gonz\\u00e1lez-Carrazzoni'
tp12
a(S'1772393597'
S'Khushal Ahmadzai'
tp13
a(S'100001001152132'
S'Matin Darwishi'
tp14
a(S'100003616893329'
S'Hameed Wakill'
tp15
a(S'100000624212981'
S'Abubakar Sidiqi'
tp16
a(S'1270310268'
S'Maria-Raluca Marginean'
tp17
a(S'100004907765419'
S'Mapi Ciao'
tp18
a(S'100003643317678'
S'Maria Elisabetta Pani'
tp19
a(S'100001675962296'
S'Delawev Afg'
tp20
a(S'100005827080064'
S'Abdul Mohmand'
tp21
a(S'1564462943'
S'Abdullah Afg Wajeh'
tp22
a(S'100000959688814'
S'Barbara Snarska'
tp23
a(S'100005141354419'
S'\\u041c\\u0430\\u0448\\u0430 \\u0421\\u0432\\u044b\\u0440\\u0438\\u0434\\u0435\\u043d\\u043a\\u043e'
tp24
a(S'635824093'
S'Filiz \\u00c7al\\u0131\\u015fkan \\u00d6cal'
tp25
a(S'100003314216958'
S'Almas Mohmand'
tp26
a(S'100003087991024'
S'Gul Akbar'
tp27
a(S'100001680049642'
S'Haji Folad Ahmadzai'
tp28
a(S'100001623926253'
S'Babor Ahmadzai'
tp29
a(S'100000599709503'
S'Zamaray Adel'
tp30
a(S'1733262332'
S'Noor Khawajah'
tp31
a(S'100005223841488'
S'Nadia Jana'
tp32
a(S'100001237662125'
S'Kamal Khan'
tp33
a(S'100003457402370'
S'Zoheb Khan'
tp34
a(S'100004393750571'
S'Almas Ahmadzai'
tp35
a(S'100000954593704'
S'Malik Hemat'
tp36
a(S'100005588681029'
S'Samandar Momand'
tp37
a(S'100002271222707'
S'Nasim Asimi'
tp38
a(S'100004583893016'
S'Annie Qurratulain Majeed'
tp39
a(S'100000454569688'
S'Wali Akber Sidiqi'
tp40
a(S'100002166996536'
S'Taimur Khan'
tp41
a(S'100002314537898'
S'Sonia Arabzada'
tp42
a(S'100004137756353'
S'Himat Khosty'
tp43
a(S'1366152862'
S'Francesco Patern\\u00f2 Castello'
tp44
a(S'100001275910162'
S'Esmat Mohsini'
tp45
a(S'100005019098305'
S'Tina Mina'
tp46
a(S'100000697115781'
S'Noor Zaman Akakhil'
tp47
a(S'100002925880081'
S'Manija Hamidi'
tp48
a(S'100005370904294'
S'Maiwand Ahmadzai'
tp49
a(S'100003780251436'
S'Sadullah Mohmand'
tp50
a(S'100004622704663'
S'Ruby Mjk'
tp51
a(S'100001767860709'
S'Mariam Zohra'
tp52
a(S'100001634601410'
S'Amir Nawaz'
tp53
a(S'100002192185563'
S'Wazir Sadiqi'
tp54
a(S'100002085311776'
S'Mena Mangal'
tp55
a(S'100001841989498'
S'Aschkan Talebian'
tp56
a(S'100002862058666'
S'Ahmadshah Noori'
tp57
a(S'100001948866516'
S'Sajjad Khan'
tp58
a(S'100001879614477'
S'Ibrar Travels Tours'
tp59
a(S'100001874407023'
S'Hamed Jan'
tp60
a(S'8213303'
S'Kat Verceglio'
tp61
a(S'100000478238845'
S'Mohammad Khan'
tp62
a(S'100005010031419'
S'Bilal Khan'
tp63
a(S'100005859458445'
S'Ameer Folad'
tp64
a(S'100002201851661'
S'Zakaria Akbari'
tp65
a(S'100001529733521'
S'Hayatullah Momand'
tp66
a(S'100003288422625'
S'Bhoxz Marvin Pacauro'
tp67
a(S'100004851636913'
S'Khan Akmal'
tp68
a(S'100000821737660'
S'Asalak Ghandolak'
tp69
a(S'100000123025604'
S'Vanessa Muti'
tp70
a(S'621089021'
S'Obaid Afghan'
tp71
a(S'100001445989393'
S'Samira Norri'
tp72
a(S'100005916902129'
S'Asya Aysa'
tp73
a(S'100002128113975'
S'Sharaf Pathan Sediqi'
tp74
a(S'100004184974251'
S'Naeem Mohmand'
tp75
a(S'100002358272548'
S'Farha Raqeeb Farha Raqeeb'
tp76
a(S'100001405707998'
S'Rabani Kalhoro'
tp77
a(S'100005675881582'
S'Adriana Fernandez'
tp78
a(S'100003336849586'
S'Hamza Khan'
tp79
a(S'100000824715475'
S'Madiha El Haddad'
tp80
a(S'100002257915040'
S'Atta Ullah Kahn'
tp81
a(S'100000766240187'
S'Kamran Khan'
tp82
a(S'100005525162954'
S'Yasmin Khan'
tp83
a(S'100000324066994'
S'Ahmad Ali Ahmad HW'
tp84
a(S'100001598728790'
S'N\\u00eddia F\\u00e9lix'
tp85
a(S'100004760438152'
S'Nadia Tufick Sultani'
tp86
a(S'100002128254499'
S'Maiwand Ahmadzai'
tp87
a(S'100002296981861'
S'Mike Bitterlich'
tp88
a(S'100000811944574'
S'Mohammad Yahya A'
tp89
a(S'100001692847611'
S'Kut Isin Eren'
tp90
a(S'100005063404582'
S'Karaar Sabary'
tp91
a(S'100002914992397'
S'Gulakbar Akbar'
tp92
a(S'100008061945178'
S'Fazila Sedigi'
tp93
a(S'100002134419267'
S'PriNces FiZa'
tp94
a(S'100005145283322'
S'Saidakbar Sidiqi'
tp95
a(S'100003738388957'
S'Jamil Tahit'
tp96
a(S'100001100940561'
S'Meerwais Ahmadzai'
tp97
a(S'100001491427543'
S'Ahsan Mohmand'
tp98
a(S'100001626430438'
S'Mhmmad Sh Hw'
tp99
a(S'100003884774989'
S'Hamid Azizi'
tp100
a(S'100000133486221'
S'Khalid Khan'
tp101
a(S'1796592044'
S'Alessandra Morelli'
tp102
a(S'100000749205635'
S'Gul Akbar Sadiqi'
tp103
asS'id'
p104
S'100001043165995'
p105
sS'name'
p106
S'Jamil Tahir'
p107
s.