(dp1
S'friends'
p2
(lp3
(S'100000318602189'
S'Jan Muhammad Safi'
tp4
a(S'100002389564141'
p5
S'\\u0632\\u0644\\u0645\\u06cc \\u0627\\u0634\\u0646\\u0627'
tp6
a(S'100003661921363'
S'Abdullah Jan Bawari'
tp7
a(S'100003709620328'
S'\\u067e\\u0633\\u0631\\u0644\\u06cc \\u06a9\\u0644\\u062a\\u0648\\u0631\\u064a \\u067c\\u0648\\u0644\\u0646\\u0647 \\u06a9\\u0646\\u062f\\u0648\\u0632'
tp8
a(S'100002650563456'
S'Baryal Danesh'
tp9
a(S'100000963280693'
S'Abdul Rahman Kamal'
tp10
a(S'100006972520044'
S'Qaseem Shams Nazari'
tp11
a(S'100002347646824'
S'Khan Mohammad Shirzad'
tp12
a(S'100002054773643'
S'Ahmadwali Yousufzai'
tp13
a(S'100004856401163'
S'Sulyman Khan'
tp14
a(S'100000508245933'
S'Mirwais Ahmadzai'
tp15
a(S'1541155649'
S'Sartaj Panah Khan'
tp16
a(S'100002105499344'
S'\\u0631\\u0641\\u06cc\\u0639 \\u0627\\u0644\\u0644\\u0647 \\u062f\\u0648\\u0644\\u062a \\u0632\\u06cc'
tp17
a(S'100008302957899'
S'Bashir Sahibzada'
tp18
a(S'100002085311776'
p19
S'Mena Mangal'
tp20
a(S'1166077017'
p21
S'Sayed Niamatullah Sayer'
tp22
a(S'100005928483305'
S'Aman Qurishi'
tp23
a(S'1550422144'
S'Noor Ahmad Hamid'
tp24
a(S'632423591'
p25
S'Baaz Abid'
tp26
a(S'100006057218124'
S'Imran Aziz'
tp27
a(S'100003496633402'
S'Wiar Baryalai'
tp28
a(S'100006610565027'
S'Sultan Nazry'
tp29
a(S'100005239654665'
S'Aziz Elham'
tp30
a(S'100003620564746'
S'Abdul Basir Sahaak'
tp31
a(S'100003090330668'
p32
S'Irshad Raghand'
tp33
a(S'100007230510148'
S'\\u0627\\u0648\\u0631\\u0627\\u0646\\u0648\\u0633 \\u0633\\u062d\\u0631'
tp34
a(S'100001728790151'
S'Niaz Mohammad Omari'
tp35
a(S'702694772'
p36
S'Nazir Ahmad Nazir'
tp37
a(S'100006421321885'
S'\\u0645\\u06cc\\u0631\\u0648\\u0644\\u06cc \\u0641\\u0631\\u0647\\u0627\\u062f'
tp38
a(S'100000585103036'
S'Shamshad Omar'
tp39
a(S'100000718199142'
S'Moneeb Rahman'
tp40
a(S'100003702255993'
S'Ghulam Haider Haider'
tp41
a(S'100004571700497'
S'Habibullah Zaland'
tp42
a(S'100007812120630'
S'Rasul Ghulam'
tp43
a(S'100001482308921'
p44
S'Nisar Ahmad Ahmadi'
tp45
a(S'100003900815078'
S'Farid Bazger'
tp46
a(S'100004056499100'
S'Ziaulhaq Amarkhil'
tp47
a(S'100003582216245'
S'Mohammad Roze Muhtaj'
tp48
a(S'100000504892239'
p49
S'\\u0645\\u062d\\u0645\\u0648\\u062f \\u0633\\u0639\\u06cc\\u062f'
tp50
a(S'100001115860712'
S'Khayal Saifullah'
tp51
a(S'1823671448'
S'\\u0639\\u062b\\u0645\\u0627\\u0646 \\u0627\\u0641\\u0636\\u0644\\u064a'
tp52
a(S'100003480957139'
S'Halim Fidai'
tp53
a(S'563779463'
p54
S'Matiullah Abid'
tp55
a(S'100002391281321'
S'Humayoon Babur'
tp56
a(S'100000400628911'
S'Sarferaz Sargand'
tp57
a(S'100004513029450'
S'Mtawab Mdi'
tp58
a(S'100004451982645'
S'Abdullah Sherzai'
tp59
a(S'100003024151487'
S'Ibrahim Nasar'
tp60
a(S'100001134880916'
S'Ebtihaj Obaidi'
tp61
a(S'565544937'
S'Gulrahim Niazman'
tp62
a(S'1312646939'
p63
S'Adam Khan Serat'
tp64
a(S'1332945582'
S'Muhammad Arif'
tp65
a(S'100002612282977'
S'\\u0639\\u0628\\u062f\\u0627\\u0644\\u0631\\u062d\\u0645\\u0646 \\u0627\\u0644\\u0641\\u0636\\u0644\\u064a'
tp66
a(S'100000501455424'
p67
S'Hijratullah Ekhtyar'
tp68
a(S'100006612214819'
S'Esmail Kaliwal'
tp69
a(S'564729892'
S'Inayat Ullah Kakar'
tp70
a(S'100005694156489'
S'Farooq Dedar'
tp71
a(S'1619126786'
p72
S'Zabihullah Ehsas'
tp73
a(S'100001501812244'
p74
S'Zohair Zohair'
tp75
a(S'100003785857553'
S'Aminulhaq Sial'
tp76
a(S'100000877433247'
S'Sulaiman Sargar'
tp77
a(S'100001217322095'
p78
S'Zainullah Shaheedzoy'
tp79
a(S'100002296637961'
p80
S'Razmal Zaman'
tp81
a(S'100000049682649'
p82
S'\\u0631\\u0627\\u0632 \\u0645\\u062d\\u0645\\u062f \\u0631\\u0627\\u0632'
tp83
a(S'100002466055337'
S'Abdul Basir Sabawoon'
tp84
a(S'100001194865129'
p85
S'Rahat Gul Ziarmal'
tp86
a(S'100001672183150'
S'Mushtaq Liwal'
tp87
a(S'100001152915609'
S'Emal Marwand'
tp88
a(S'100003628892444'
S'Bashir Omer'
tp89
a(S'100001104535021'
S'Naeem Akbari'
tp90
a(S'100004605185148'
S'Abdullah Sahil'
tp91
a(S'100002240560762'
p92
S'\\u0634\\u0631\\u0631 \\u0633\\u0627\\u067e\\u064a'
tp93
a(S'100001042693987'
p94
S'\\u062e\\u0648\\u0634\\u0627\\u0644 \\u062e\\u0644\\u064a\\u0644'
tp95
a(S'100002056841792'
S'Zabihullah Ihsas'
tp96
a(S'100003281360758'
p97
S'Waak Jawed'
tp98
a(S'100002141613543'
S'Abdulbasir Rashidee'
tp99
a(S'100004788759214'
S'Khalid Momand'
tp100
a(S'100003111610990'
p101
S'Majeed Qarar'
tp102
a(S'100001403398151'
p103
S'\\u062d\\u0628\\u06cc\\u0628 \\u0627\\u0644\\u0644\\u0647 \\u0627\\u06a9\\u0628\\u0631\\u064a'
tp104
asS'id'
p105
S'100000030883265'
p106
sS'name'
p107
S'Ezatullah Pamir'
p108
s.