(dp1
S'friends'
p2
(lp3
(S'100003773355118'
S'Aman Jaswal'
tp4
a(S'100002933389459'
S'Anshul Chauhan'
tp5
a(S'100001643866614'
S'Ramaling Hundekar'
tp6
a(S'100003482659862'
S'Pavithran Pavi'
tp7
a(S'100003852730513'
S'Neha Goyal'
tp8
a(S'100007745047043'
S'Varun Arora'
tp9
a(S'100000130058951'
S'Sachin Satheendran'
tp10
a(S'100001756916773'
S'Ghanshyam Chauhan'
tp11
a(S'1807404755'
S'Mano Sandesh'
tp12
a(S'100004080904364'
S'Akhilesh Rawat'
tp13
a(S'100007357062005'
S'Gaurav Srivastava'
tp14
a(S'100002375996520'
S'Neeraj Pant'
tp15
a(S'100002186706324'
S'Madhukar K Madhav'
tp16
a(S'100002434906996'
S'Ajit Pandey'
tp17
a(S'100001508047219'
S'Vishesh Pandey'
tp18
a(S'100002186351685'
S'Muhammad Riyas A'
tp19
a(S'613722042'
S'Shubham Munjal'
tp20
a(S'100002706590975'
S'Mahipal Gurjar'
tp21
a(S'100001672968754'
S'Gyaneshwar Jha'
tp22
a(S'100001705912510'
S'Muhammed Sadiq'
tp23
a(S'100002893435103'
S'Ashish Subba'
tp24
a(S'100000903627503'
S'Gurumayum Robert Daniel'
tp25
a(S'100001882494016'
S'Swastik Sanyal'
tp26
a(S'1538077257'
S'Harsh Chaudhary'
tp27
a(S'100004271587688'
S'Deepak K Ramachandran'
tp28
a(S'100004291955881'
S'Vaishak Raj'
tp29
a(S'100002042577689'
S'Dattatray Shinde'
tp30
a(S'100005028420195'
S'Sujithra Surendran'
tp31
a(S'100002346503565'
S'Arun Sharma'
tp32
a(S'100003136382074'
S'Aaditya Kumar'
tp33
a(S'100002543935067'
S'Subhash Kanjiramkulam'
tp34
a(S'100005671147214'
S'Khader N Khader'
tp35
a(S'100002462889889'
S'AbhIshek SaHa'
tp36
a(S'100003042130614'
S'Nilesh Rathod'
tp37
a(S'100001944728257'
S'Gajanan B. Phuke'
tp38
a(S'100002028763011'
S'Santosh Yadav'
tp39
a(S'100000259226226'
S'Ashish Sharma'
tp40
a(S'1106122748'
S'Ayush Maan'
tp41
a(S'100001130641098'
S'Annu Yaduvanshi'
tp42
a(S'100002402167436'
S'Deepak Kashyap'
tp43
a(S'100006016653024'
S'Sanjay Kumar'
tp44
a(S'100002280377052'
S'Anurag Gupta'
tp45
a(S'100005133312237'
S'Sooraj Naduvathu N'
tp46
a(S'100001712902540'
S'Harshit Sudan'
tp47
a(S'100001986135492'
S'Rishabh Garg'
tp48
a(S'100006439993606'
S'Yogendra Choudhary'
tp49
a(S'100002528958211'
S'Tarun Tanwar'
tp50
a(S'100003391182699'
S'Aftab Khan'
tp51
a(S'100002418266599'
S'Ankit Singh'
tp52
a(S'100001812411024'
S'Ujjwal Gupta'
tp53
a(S'100001544060853'
S'Abhisek Tripathy'
tp54
a(S'100002763351034'
S'Vivek Paharwar'
tp55
a(S'100001371540577'
S'Vinod Chauhan'
tp56
a(S'100003811786453'
S'Faze Edh'
tp57
a(S'1561703883'
S'Jazib Zafar'
tp58
a(S'100000821271824'
S'Sadam Sharma Hanjabam'
tp59
a(S'100005049542341'
S'Dhanyasree K Rajagopal'
tp60
a(S'100002757846290'
S'Juvell George'
tp61
a(S'100003612962883'
S'Ravi Shankar'
tp62
a(S'100002314670628'
S'Ajay Kumar'
tp63
a(S'100000728862133'
S'Ravi Boli'
tp64
a(S'100006174875608'
S'Avanthika Sasankan'
tp65
a(S'100001394323769'
S'Arun Chopra'
tp66
a(S'100001114324055'
S'Yogesh Jamloki'
tp67
a(S'100003270676748'
S'Lakshya Mandovra'
tp68
a(S'1751513833'
S'Reynold George'
tp69
a(S'100001612937902'
S'Amir Hashmi'
tp70
a(S'100000092432605'
S'Maysun James Kochery'
tp71
a(S'100002451796787'
S'Sonu Tariyal'
tp72
a(S'100002283724823'
S'Gaurav Pandey'
tp73
a(S'100002029251797'
S'Nikhil Mandovra'
tp74
a(S'100003724170059'
S'Ajil Aji'
tp75
a(S'100002271936200'
S'Vishnu Narayanan'
tp76
a(S'100001400232066'
S'Rajib Das'
tp77
a(S'100002441915292'
S'Gautam Kumar Sona'
tp78
a(S'100004559197140'
S'Debashish Sahoo'
tp79
a(S'100004601131635'
S'Anubhav Singh'
tp80
a(S'100002419950422'
S'Sumit Manderna'
tp81
a(S'100003611064302'
S'Sushant Gulati'
tp82
a(S'100002464184577'
S'Lokesh Loki'
tp83
a(S'100001903805561'
S'Prateek Srivastava'
tp84
a(S'100001511651783'
S'Bilal Ahmed'
tp85
a(S'100002891957396'
S'Abhishek Rawat'
tp86
a(S'100001137682855'
S'Pareeth Cm'
tp87
a(S'100001213531104'
p88
S'Shubham Tripathi'
tp89
a(S'100002959970785'
S'Rahul Ranjan'
tp90
a(S'100003072981303'
S'Anubhav Pandey'
tp91
a(S'100001325534762'
S'Ishraque Raza'
tp92
a(S'100003966590759'
S'Nivya J Thengumpallil'
tp93
a(S'100003776751599'
S'Muhsina Rizwana'
tp94
a(S'100003987759396'
S'Sijo John'
tp95
a(S'100003327946967'
S'Darshan D Squared'
tp96
a(S'1519032505'
S'Kanika Saxena'
tp97
a(S'100002824415191'
S'Lintu Thomas'
tp98
a(S'100002808140549'
S'Sanjeev Kr Pal'
tp99
a(S'100002847588590'
S'Vishnu JS'
tp100
a(S'793678890'
S'Raghav Kaushal'
tp101
a(S'100000906745326'
S'Karun K Jayaraj'
tp102
a(S'100001992651490'
S'Hariom Srivastav'
tp103
a(S'100002616738394'
S'Pawan Kumar Patel'
tp104
asS'id'
p105
S'100002518074068'
p106
sS'name'
p107
S'Aman Kumar'
p108
s.