(dp1
S'friends'
p2
(lp3
(S'100003814874548'
S'Prem Anand Prem'
tp4
a(S'100001614543498'
S'Shant Muni Bidkar Mahanubhav'
tp5
a(S'100002641964518'
S'Prit Sawant'
tp6
a(S'100001464162326'
S'Govind Dalvi'
tp7
a(S'100004151556706'
S'Sagar Da Mumbai'
tp8
a(S'100002656781301'
S'Loveleen Rawal'
tp9
a(S'100004738542675'
S'Gopal Mahanubhav'
tp10
a(S'100003245374607'
S'Kiran Barade'
tp11
a(S'100004530032594'
S'Bhashkar Nilakanthrao Khobragade'
tp12
a(S'100005759562804'
S'Pooja Hitesh Bidkar'
tp13
a(S'100005107690274'
S'Bobby Sethi'
tp14
a(S'100002181542120'
S'Pala Pallan'
tp15
a(S'100002545677058'
S'Shyam Gawade'
tp16
a(S'100003395556710'
S'Mahanubhav Nishkaam Seva'
tp17
a(S'100005080808078'
S'Panchkrushna Mitra Mandal Uswad'
tp18
a(S'504217594'
S'Amit Sethi'
tp19
a(S'100002069894061'
S'Sukhdev Muine Punjabi Dadaji'
tp20
a(S'100002184115519'
S'Rashmi Malhotra'
tp21
a(S'100004531720093'
S'\\u092e\\u0939\\u093e\\u0928\\u0941\\u092d\\u093e\\u0935 \\u0907\\u0902\\u0926\\u094c\\u0930'
tp22
a(S'100005791117012'
S'Mahanubhav Aashram Satara'
tp23
a(S'100003055321306'
S'Krishna Mandir Lingampally'
tp24
a(S'100005265481574'
S'\\u0936\\u094d\\u0930\\u0940\\u0915\\u0943\\u0937\\u094d\\u0923 \\u0917\\u094d\\u0930\\u0941\\u092a \\u0928\\u0947\\u0930\\u0942\\u0933 \\u0928\\u0935\\u0940'
tp25
a(S'100003112326260'
S'Abhi Halshikar'
tp26
a(S'100002506873773'
S'Shri Krushna Mitra Mandal'
tp27
a(S'100000011722432'
S'Yatin Chaudhari'
tp28
a(S'100000850680555'
S'Rahul Anand'
tp29
a(S'100003280274994'
S'Sagar Wagh'
tp30
a(S'100001192214749'
S'Ashok Trehan'
tp31
a(S'1044099005'
S'Sunita Sethi'
tp32
a(S'100002472613551'
S'Ashu Movies'
tp33
a(S'100001378445227'
S'Nanaware Sanjay'
tp34
a(S'100003861325105'
S'Panditraj Kanheraj'
tp35
a(S'100003961384707'
S'Rajni Sharma'
tp36
a(S'100003578516470'
S'Tejas Juwatkar'
tp37
a(S'100002008341768'
p38
S'Pooja Khurana'
tp39
a(S'100001957131249'
S'Anshul Bakshi'
tp40
a(S'100004402631379'
S'Krushnadas Punjabi'
tp41
a(S'100000656308386'
S'Arvind Negi'
tp42
a(S'100003985963878'
S'Mahanubhav Dharam'
tp43
a(S'100002599108532'
S'Shri Krishan Mandir Kurukshetra'
tp44
a(S'100003851971812'
S'Mahanubhav Navnirman Sena'
tp45
a(S'100004363752198'
S'Raj Bidkar'
tp46
a(S'100000824389978'
S'Girish Kumar'
tp47
a(S'1348955415'
S'Mukesh Kumar Sethi'
tp48
a(S'100004204121109'
S'Seema Chutani'
tp49
a(S'100003603234908'
S'Gopal Dada Panjabi'
tp50
a(S'100004056644174'
S'Aakanshu Choudhary'
tp51
a(S'100001842283606'
S'Raj Sethi'
tp52
a(S'100001312124986'
S'Kapil Passi'
tp53
a(S'100005133373796'
p54
S'Veena Sawhney'
tp55
a(S'100001659343172'
S'Deepak Rao'
tp56
a(S'100002457645592'
S'Krimu Prabhakar'
tp57
a(S'100005018323939'
S'Rahul Vishwambhare Kasar'
tp58
a(S'100002286441641'
S'Shukdev Punjabi Phagwara'
tp59
a(S'100005178634449'
S'M A Shastri Aradhya'
tp60
a(S'100000426645683'
S'Chander Gulati'
tp61
a(S'100006201244678'
S'Krish Punjabi'
tp62
a(S'100001636143928'
S'Chetan N Kapate'
tp63
asS'id'
p64
S'100003760227063'
p65
sS'name'
p66
S'Aarti Khurana'
p67
s.