(dp1
S'name'
p2
S'Nikhil Choudhary'
p3
sS'current_class'
p4
S'india'
p5
sS'current_link'
p6
Vhttps://www.facebook.com/l.php?u=https%3A%2F%2Fwww.bing.com%2Fmaps%2Fdefault.aspx%3Fv%3D2%26pc%3DFACEBK%26mid%3D8100%26where1%3D28.610000412388%252C%2B77.229766845703%26name%3DDelhi%252C%2BIndia%26mkt%3Den-IN&h=sAQH_VT0j&s=1
p7
sS'current_text'
p8
VDelhi, India\u000aCurrent City
p9
sS'friends'
p10
(lp11
(S'100002410240997'
S'Sanjay Sah'
tp12
a(S'100000468823739'
S'BV Gopinath'
tp13
a(S'100001640150793'
S'Amit Upadhyay'
tp14
a(S'100002987261816'
S'Binod Kumar'
tp15
a(S'819757523'
S'Rajiv Kumar Mahajan'
tp16
a(S'100000820762320'
S'Jk Mishra'
tp17
a(S'1093090176'
S'Aman Dhari Sinha'
tp18
a(S'1281622114'
S'Santosh Kumar'
tp19
a(S'555812484'
S'Sanjay Bahadur'
tp20
a(S'648533945'
S'Ashley Nagpal'
tp21
a(S'1053350442'
S'Pratip Banerji'
tp22
a(S'1216435107'
S'Rajeev Ranade'
tp23
a(S'565603649'
S'Anand Jha'
tp24
a(S'100002904670562'
S'Satish Goyal'
tp25
a(S'1626159715'
S'Anurag Sahay'
tp26
a(S'100007313765117'
S'Jitendra Narain'
tp27
a(S'1064547969'
S'Amitabh Kumar'
tp28
a(S'100000331966789'
S'Shriyani Sharma'
tp29
a(S'755222878'
S'Gagan Barman'
tp30
a(S'688072801'
S'Sameer Sharma'
tp31
a(S'1465966631'
S'Sunil Bajpai'
tp32
a(S'678921450'
S'Mini Verma'
tp33
a(S'100002588226238'
S'Ishtiyaque Ahmed'
tp34
a(S'100000280374252'
S'Anand Upadhyay'
tp35
a(S'1807790056'
S'Manoj Joshi'
tp36
a(S'100001238804568'
S'Medisetti Tirumala Kumar'
tp37
a(S'1494454259'
S'Prabir Jha'
tp38
a(S'100000639538112'
S'Shiv Sachdeva'
tp39
a(S'1712168681'
S'Rabindra Nath Tagore'
tp40
a(S'100001047951102'
S'Kailash Dar'
tp41
a(S'1118079820'
S'Arvind Singh'
tp42
a(S'510693315'
S'Harsh Prakash'
tp43
a(S'737813854'
S'Suraj Kumar'
tp44
a(S'1195195098'
S'Braj K. Mishra'
tp45
a(S'100001009489515'
S'Arshad Kaka'
tp46
a(S'1656585573'
S'Ashish Joshi'
tp47
a(S'756885030'
S'Vivek Jaiswal'
tp48
a(S'1044641886'
S'Krishna Kishore Jasthi'
tp49
a(S'1446657574'
S'Deepak Saha'
tp50
a(S'1270953810'
S'Prashant Singh'
tp51
a(S'546582362'
S'Daniel Ghaznavi'
tp52
a(S'100003620520621'
S'Mohit Upadhyay'
tp53
a(S'547910030'
S'Manoj Kumar Singh'
tp54
a(S'1275533714'
S'Samridhi Sharma'
tp55
a(S'1559344045'
S'Dilip Verma'
tp56
a(S'809957877'
S'Meenakshi Upadhyay Sharma'
tp57
a(S'100007126321908'
S'Brajesh Kumar Singh'
tp58
a(S'100002481129160'
S'Rajiv Pasari'
tp59
a(S'100001716978167'
S'Anil Kumar Saini'
tp60
a(S'100000089901198'
S'Madnesh Kumar Mishra'
tp61
a(S'1609927202'
S'Sanjay Puri'
tp62
a(S'724163872'
S'Sanjiv Singh'
tp63
a(S'100000593772952'
S'Shyamsundar Keshkamat'
tp64
a(S'1261705541'
S'Sabihur Rahman'
tp65
a(S'702903459'
S'Arijit Dutta'
tp66
a(S'745357672'
S'Sujay Jha'
tp67
a(S'780843935'
S'Ashish Abrol'
tp68
a(S'100000553515392'
S'Kavita Tiwary'
tp69
a(S'1438047944'
S'Amrish Bedi'
tp70
a(S'1207910600'
S'Shiv Sewak'
tp71
a(S'100000085527402'
S'Mahesh Jalan'
tp72
a(S'1102218592'
S'Kulvant Dhillon'
tp73
a(S'1103385524'
S'Rajender Pal Singh'
tp74
a(S'100000385705663'
S'Sanjay Kumar'
tp75
a(S'100000126657856'
S'Md Mohsin Alam'
tp76
a(S'655809884'
S'Ravichandran Ramasamy'
tp77
a(S'100002448528845'
S'Archana Choudhary'
tp78
a(S'100000315953083'
S'Mona Mohanty'
tp79
a(S'1710761905'
S'Ashok Kumar Tripathi'
tp80
a(S'1462392028'
S'Padma Lochan'
tp81
a(S'698023600'
S'Rajul Kulshreshtha'
tp82
a(S'605740371'
S'Shrimi Sharma'
tp83
a(S'780190706'
S'Ram Mohan Tiwari'
tp84
a(S'1200016663'
S'Ishaan Upadhyay'
tp85
a(S'100005224299770'
S'Alok Srivastava'
tp86
a(S'1797933616'
S'Gayatri Kanti'
tp87
a(S'1496400927'
S'Shyam Benupani'
tp88
a(S'100000477841995'
S'Vivek Ojha'
tp89
a(S'684104354'
S'Asit Singh'
tp90
a(S'826595625'
S'Ashish Kaul'
tp91
a(S'1577889574'
S'Ajay Pandey'
tp92
a(S'1067468685'
S'Prasenjit K. Basu'
tp93
a(S'530658478'
S'Arindam Shahi'
tp94
a(S'1341792719'
S'Vijay Shankar Tiwary'
tp95
a(S'734608651'
S'Anadee Nath Misshra'
tp96
a(S'1205814760'
S'Sanjiv Shankar'
tp97
a(S'1333057179'
S'Murali Dhar Madhur'
tp98
a(S'1222959180'
S'Suresh Yadav'
tp99
a(S'100000029738134'
S'Saurabh Sobti'
tp100
a(S'789468621'
S'Arun S Bhatnagar'
tp101
a(S'100006091536066'
S'Ratan Singh'
tp102
a(S'1782388698'
S'Sushant Tewary'
tp103
a(S'545576983'
S'Aniruddha Bonnerjee'
tp104
a(S'100002844725088'
S'Abhay Mohan Jha'
tp105
a(S'100000043624732'
S'Madhulika Singh'
tp106
a(S'1498907959'
S'Ramesh Ruia'
tp107
a(S'1052958592'
S'Adarsh Modi'
tp108
a(S'100000538479222'
S'Sudeshna Priyadarshini'
tp109
asS'id'
p110
S'100000591004974'
p111
s.