(dp1
S'friends'
p2
(lp3
(S'100006511724479'
S'Ashraf Khan'
tp4
a(S'100007298293924'
S'Ishaq Lashre'
tp5
a(S'100006710979178'
S'Shahzad Khan'
tp6
a(S'100004588894263'
S'Asim Khan'
tp7
a(S'100006897427152'
S'Mureed Hussain Musafir'
tp8
a(S'100007419578634'
S'\\u0633\\u0631\\u0627\\u0626\\u06cc\\u06a9\\u06cc \\u0631\\u0646\\u06af'
tp9
a(S'100008381311475'
S'Allha Ditta'
tp10
a(S'100007078954853'
S'Ramzanfida Dasti'
tp11
a(S'100005154811895'
S'Sirf Ali'
tp12
a(S'100008291919112'
S'Akbar Khan Jindani'
tp13
a(S'100005580901027'
S'Mngrotha Hanif'
tp14
a(S'100008208215755'
S'Imran Jarwar'
tp15
a(S'100007477271793'
S'Ramzan Khan Khirani'
tp16
a(S'100008115364890'
S'Abdulmajeed Bhundani'
tp17
a(S'100006673841379'
S'Abid Hussain Khosa'
tp18
a(S'100004879992752'
S'Huma Ali'
tp19
a(S'100008103253742'
S'Irfan Khosa Irfan Khosa'
tp20
a(S'100008093679662'
S'\\u0627\\u064a\\u0648\\u0628 \\u0633\\u0627\\u063a\\u0631'
tp21
a(S'100008066352054'
S'Ramzan Jarwar'
tp22
a(S'100007623370736'
S'Hanif Khan Khan'
tp23
a(S'100004386974012'
S'Nadir Aslam Leghari'
tp24
a(S'100008305743659'
S'Muzammil Khan'
tp25
a(S'100004903605089'
S'Sabir Jarwar'
tp26
a(S'100006995050603'
S'Abdul Wakeel'
tp27
a(S'100008308087950'
S'Nasr Ullah Lashari'
tp28
a(S'100005994154878'
S'Basheer Khan'
tp29
a(S'100006089895399'
S'Munawar Khan Khosa'
tp30
a(S'100007984210905'
S'Assia Nawaz'
tp31
a(S'100007543506231'
S'Iqbal Khan'
tp32
a(S'100008283614713'
S'Ramzan Sinjrani'
tp33
a(S'100007974549164'
S'\\ufee3\\ufeb8\\ufe98\\ufe8e\\ufed5 \\ufe8d\\ufea3\\ufee4\\ufeaa \\ufee3\\ufeb8\\ufe98\\ufe8e\\ufed5 \\ufe8d\\ufea3\\ufee4\\ufeaa'
tp34
a(S'100007188990325'
S'Zulfqar Chandia Saraiki'
tp35
a(S'100007478625541'
S'Hafeez Khosa'
tp36
a(S'100008197658438'
S'Bilal Kossa'
tp37
a(S'100006793866670'
S'Saraikistan Democraticparty'
tp38
a(S'100008048251845'
S'Munir Hussain Jarwar'
tp39
a(S'100003508405177'
S'Saghar Khan'
tp40
a(S'100007148138411'
S'Saghar Riaz'
tp41
a(S'100007968403754'
S'Sabir Hussain Jendani Khosa'
tp42
a(S'100008029123291'
S'Muhammad Nawaz'
tp43
a(S'100008267598561'
S'Singer Ramzan Bewas'
tp44
a(S'100008065904006'
S'Ameirbaksh Pakistanziladiraghazikhan Thahzilchattisarin Mozachahilchan'
tp45
a(S'100008299939410'
S'Aness Jarwar'
tp46
a(S'100007770814234'
S'Khan Khan'
tp47
a(S'100008253613896'
S'Navas Jarwar'
tp48
a(S'100004338128000'
S'Iqra Niazi'
tp49
a(S'100008348374154'
S'Abidkhan Jarwar'
tp50
a(S'100004716428574'
S'Zawar Hussain Bhutta'
tp51
a(S'100007995107830'
S'Fayyaz Hussain'
tp52
a(S'100008046572074'
S'Zeshan Idrees'
tp53
a(S'100008063191809'
S'Imtiaz Hussain'
tp54
a(S'100008204827622'
S'Gulam Yaseen'
tp55
a(S'100008186530209'
S'Shahbaz Khosa'
tp56
a(S'100007886681860'
S'Mujahid Hussain'
tp57
a(S'100008006677370'
S'Gulshar Pak'
tp58
a(S'100007564448255'
S'M Sarfraz Khosa'
tp59
a(S'100007321381045'
S'Khaleel Blouch'
tp60
a(S'100007089664840'
S'Muskan Khan'
tp61
a(S'100006846876540'
S'Nadeem Khan Lound'
tp62
a(S'100008338146092'
S'Kashif Kalo'
tp63
a(S'100008147131523'
S'Juma Khan'
tp64
a(S'100005097944374'
S'Riaz Anbar Sraiki Shair'
tp65
a(S'100007505112544'
S'Riaz Hussan'
tp66
a(S'100008256693407'
S'Ajmal Sajid Singer'
tp67
a(S'100006340295164'
S'Daud Buzdar'
tp68
a(S'100005255193454'
S'\\u062e\\u0627\\u0644\\u062f \\u062d\\u0633\\u06cc\\u0646'
tp69
a(S'100005179890444'
S'Singer Ramzan Bewas'
tp70
a(S'100008165796193'
S'Muhammad Zubair'
tp71
a(S'100008145210374'
S'\\u0635\\u0627\\u0626\\u0645\\u0647 \\u0648\\u0641\\u0627'
tp72
a(S'100007085856474'
S'\\u0100m\\u012br D\\u00e5st\\u012b'
tp73
a(S'100008104631099'
S'Asad Ghafar'
tp74
a(S'100007613258044'
S'Amir Aziz'
tp75
a(S'100008246710565'
S'Munawar Hussain Khosa'
tp76
a(S'100008212080252'
S'Amir Khan'
tp77
a(S'100008384856745'
S'Sabirdasti Dasti'
tp78
a(S'100007007259966'
S'Javed Malik'
tp79
a(S'100006661060190'
S'Sabir Hussain'
tp80
a(S'100007847311683'
S'Ejaz Ahmad'
tp81
a(S'100007759031403'
S'Saeed Ahamed'
tp82
a(S'100008045826048'
S'Hasnan Khan'
tp83
a(S'100008122860598'
S'Chakar Khosa'
tp84
a(S'100003983779385'
S'Asim Hussain'
tp85
a(S'100007972801431'
S'Abdul Majeed'
tp86
a(S'100004727108404'
S'Sagir Kashmir Khosa'
tp87
a(S'100008193331992'
S'\\u0635\\u0627\\u0628\\u0631 \\u062d\\u0633\\u064a\\u0646 \\u0628\\u0644\\u0648\\u0634'
tp88
a(S'100007918230632'
S'Saif Ullah Saif Ullah'
tp89
a(S'100007635041101'
S'Faiz Khosa'
tp90
a(S'100008208454119'
S'Altaf Jarwar'
tp91
a(S'100003495204311'
S'Hameed Khan'
tp92
a(S'100003546070458'
S'Imran Seyal'
tp93
a(S'100007462814529'
S'Sehzaad Bloch'
tp94
a(S'100006475827139'
S'Tahir Khan'
tp95
a(S'100008269297508'
S'Muhammad Arshad Arshad Bhutta'
tp96
a(S'100005533784847'
S'Fiaz Dste'
tp97
a(S'100001778998961'
S'Ghulam Yaseen'
tp98
a(S'100007697915761'
S'Abid Khan'
tp99
a(S'100007709083429'
S'Sabir Atta'
tp100
a(S'100007819691752'
S'Dilawar Lighari'
tp101
a(S'100008388694360'
S'M Rafiq Malik Areeba'
tp102
asS'id'
p103
S'100008196578910'
p104
sS'name'
p105
S'Riaz Khan'
p106
s.