(dp1
S'friends'
p2
(lp3
(S'100006918464369'
S'Nayeb Najrabi'
tp4
a(S'100003166073737'
S'En Malang Shah Mobariz'
tp5
a(S'100003983382032'
S'Ahmad Jawid'
tp6
a(S'100001210655480'
S'Ihsanullah Sediq'
tp7
a(S'100005298153150'
S'Lotful Rahman Hemat'
tp8
a(S'100003540612739'
S'Dawatuniversity Engineeringdepartment'
tp9
a(S'100004428817523'
S'Saeedullah Arghandiwal'
tp10
a(S'100001663440811'
S'Abdul Hafiz Sadeqi'
tp11
a(S'100001895307489'
S'Ahmad Yama Ghaznavi'
tp12
a(S'100003765975448'
S'Lutfullah Omarkhil'
tp13
a(S'100003819217163'
S'Ahmad Khalid Mubariz'
tp14
a(S'100002967549835'
S'Shafiq Jami'
tp15
a(S'100001056301267'
S'Naseeb Matoonwal'
tp16
a(S'100000327829245'
S'Mohammad Nabi Eisakhil'
tp17
a(S'100001677284171'
S'Naeem Wardak'
tp18
a(S'100002611735792'
S'\\u0627\\u0646\\u062c\\u0645\\u0646 \\u062c\\u0648\\u0627\\u0646\\u0627\\u0646 \\u063a\\u0632\\u0646\\u0647'
tp19
a(S'100002524304591'
S'Zabi Khan'
tp20
a(S'100002533726740'
S'Hayat Tkal'
tp21
a(S'100006967656822'
S'Aziz Amiry'
tp22
a(S'100007753325308'
S'Mirwais Melatyar'
tp23
a(S'100005787630551'
S'\\u0627\\u0645\\u06cc\\u0646 \\u0627\\u0645\\u06cc\\u0646 \\u062c\\u0627\\u0646'
tp24
a(S'100001526301802'
S'\\u0646\\u0648\\u0631\\u06cc \\u064a\\u0648\\u0627\\u0632\\u064a'
tp25
a(S'100005305234413'
S'Obidullah Ibrahimkhil'
tp26
a(S'702694772'
S'Nazir Ahmad Nazir'
tp27
a(S'1328651153'
S'Abdul Saboor Nasir Nasir'
tp28
a(S'100007691670376'
S'Rahmatullah Usmani'
tp29
a(S'100004616162988'
S'Amin Noorzahi'
tp30
a(S'100004931323628'
S'Nooruddin Jalali'
tp31
a(S'100007398063904'
S'Eng Arfan Aryan'
tp32
a(S'100002673092877'
S'Haschem Afghaner'
tp33
a(S'100005061729938'
S'Eng M Saleem Aryan'
tp34
a(S'100002441468506'
S'Adnan Shinwari'
tp35
a(S'100002436712741'
S'Freshta Ahmadi'
tp36
a(S'100004721223714'
S'Eng Sultani'
tp37
a(S'100001921334772'
S'Aminullah Himat'
tp38
a(S'100003283514228'
S'Nilab Sahar'
tp39
a(S'100003743396418'
S'Reza Qanbari'
tp40
a(S'100000942360659'
S'Iqbal Iqbal Safi'
tp41
a(S'100003364195159'
S'Abdullah Hanafi'
tp42
a(S'100003104427427'
S'Qasimkhan Sahil'
tp43
a(S'513374602'
S'\\u0645\\u062d\\u0645\\u062f\\u0627\\u0644\\u0644\\u0647 \\u06a9\\u0645\\u0627\\u0644'
tp44
a(S'100003485232161'
S'Asim Wafa'
tp45
a(S'100000103653441'
S'Mehfooz Sheikh'
tp46
a(S'100006183242909'
S'Gulistan Rasoolzai'
tp47
a(S'100008008114625'
S'Qasim Tanha'
tp48
a(S'100000332155585'
S'Speen Storee Mustafa Noorzai'
tp49
a(S'100007597482240'
S'Hamidkhan Darwesh'
tp50
a(S'100003888326257'
S'\\u0633\\u0647\\u06cc\\u0644 \\u0648\\u0631\\u062f\\u06ab'
tp51
a(S'100002233057392'
S'King Wali Afghan'
tp52
a(S'100004747350413'
S'Farhad Khaliqi'
tp53
a(S'100007061287026'
S'\\u0645\\u06cc\\u0631\\u0632\\u0627\\u0645\\u062d\\u0645\\u062f \\u0628\\u0644\\u0648'
tp54
a(S'100000954042087'
S'Mahboob Rahman Faisal'
tp55
a(S'100003557098804'
S'Nazeef Fardous'
tp56
a(S'100004794043108'
S'Shukrodeen Oreakhil'
tp57
a(S'100006573543382'
S'EngGullistan Haidari'
tp58
a(S'100003667871506'
S'Nematullah Asim'
tp59
a(S'100007326882035'
S'Rafi Afghan'
tp60
a(S'100008310274706'
S'Behman Ahmad'
tp61
a(S'100004180710956'
S'Mohammad Naeem Akbari'
tp62
a(S'100007513478191'
S'Rahmatullah Usmani'
tp63
a(S'100001071615026'
S'Farid Ahmad Darmel'
tp64
a(S'100002294828342'
S'Pakhtoon Zwan'
tp65
a(S'100004763138614'
S'Mohammad Zamir Karimi'
tp66
a(S'100003507417144'
S'Wahidullah Sahibzai'
tp67
a(S'100001295752175'
S'Najeebullah Baheer'
tp68
a(S'100001445880676'
S'Eng Ahmad Khalid Ahrar'
tp69
a(S'100001755864137'
S'Maiwand Mirwais'
tp70
a(S'100005001283064'
S'Ghazimohammad Andar'
tp71
a(S'100000644592149'
S'Abid Elmi'
tp72
a(S'100003716486498'
S'Mohammad Naeem Wardak'
tp73
a(S'100001080204915'
S'Nazir Sofizada'
tp74
a(S'100000021122148'
S'Raees Ahmadzai'
tp75
a(S'100007966982428'
S'\\u06cc\\u0639\\u0642\\u0648\\u0628 \\u062e\\u0631\\u0648\\u067c\\u06cc'
tp76
a(S'579997822'
S'Qudratullah Andar Sultani'
tp77
a(S'100006226840837'
S'SayadRahman Assad'
tp78
a(S'100002228198910'
S'Nasrat Miakhail'
tp79
a(S'100003507727240'
S'Rohullah Usmani'
tp80
a(S'100007487678734'
S'\\ufea3\\ufb91\\ufee4\\ufe96 \\ufea7\\ufe8e\\ufee5'
tp81
a(S'100008323532832'
S'He Zbullah Moiny Kakar'
tp82
a(S'100006722437496'
S'Atta Muhammad Kharoti'
tp83
a(S'100003792514030'
S'Rahmatullah Hakimee'
tp84
a(S'100007952557985'
S'Fazalghani Amiri'
tp85
a(S'100004699565623'
S'Asadullah Mostamand'
tp86
a(S'100003490138650'
S'Abdullah Turialay'
tp87
a(S'100004350607233'
S'Atal Andar'
tp88
a(S'100005057593547'
S'Mohibullah Hashimi'
tp89
a(S'100007889711190'
S'Khalid Elahi'
tp90
a(S'100003514300139'
S'Zarialay Nasery'
tp91
a(S'1258504581'
S'Kabir Khan'
tp92
a(S'100005706162925'
S'Mohammad Tariq Saqeb'
tp93
a(S'100002178948001'
S'Zabihullah Saad'
tp94
a(S'100001439801307'
S'M\\u00ea\\u00efrS\\u00e3h\\u00eeb Z P\\u00e5kt\\u00ee\\u00e3w\\u00e1\\u013c'
tp95
a(S'100003002393427'
p96
S'Hamid Hassan'
tp97
a(S'100006761432321'
S'Eng Ziauddin Ahmadi'
tp98
a(S'100004386330205'
S'Wais Haidary'
tp99
a(S'100002962887358'
S'Sameer Sadiqi'
tp100
a(S'100001074619842'
S'Saifullah Lakanhkhail'
tp101
a(S'100004904319983'
S'Aqa Mohammad'
tp102
a(S'100003093369272'
S'\\u0639\\u0632\\u062a \\u0627\\u0644\\u0644\\u0647 \\u0639\\u0645\\u0631\\u0627\\u0646\\u062e\\u06cc\\u0644'
tp103
a(S'100000053739166'
S'Syed Jillani Jallan'
tp104
a(S'100007193413813'
S'Hazratshah Zhwand'
tp105
a(S'100007858298107'
S'Amiri Afghan'
tp106
a(S'100007784319993'
S'Eng Khwaja Seyar Faqiri'
tp107
a(S'100007651443069'
S'Haider Khan'
tp108
a(S'100003160968903'
S'\\u062d\\u0627\\u0645\\u062f \\u06a9\\u0631\\u0632\\u06cc'
tp109
a(S'100003405161161'
S'Farzad Shah'
tp110
a(S'100006963549499'
S'Noor Babarzai'
tp111
a(S'100000730689855'
S'Aminullah Sabawon'
tp112
a(S'701648494'
S'Mhohammad Arif Yosufi'
tp113
a(S'100006383622021'
S'Zabihullah Ferooz'
tp114
a(S'100003043443854'
S'Jahanyar Haazullah'
tp115
a(S'100001699700183'
S'Asadullah Fazli'
tp116
a(S'100002261439880'
S'Matiullah Mutmain'
tp117
a(S'100000971686337'
S'Abdull Qadir Forotan Faquire'
tp118
a(S'100002768885975'
S'Ab Khaliq Karimi'
tp119
a(S'100002468124495'
S'Farid Akhtarzai Andar'
tp120
a(S'100004156988313'
S'Edris Hayatullahi'
tp121
a(S'100004151104730'
S'M Omer Hanifi'
tp122
a(S'100000984542100'
S'Sayed Faridullah Muzzammil'
tp123
a(S'100004351204854'
S'Nasratullah Awab Sardarzai'
tp124
a(S'100004385252005'
S'Satar Sahar Mangal'
tp125
a(S'100002736498777'
S'Eng Abdul Wahab Hematyar'
tp126
a(S'100005847490426'
S'Jan M Saber'
tp127
a(S'100002399461990'
S'Mojib Rahman'
tp128
a(S'100003167102207'
S'Ahmadullah Usmani'
tp129
a(S'100002241011481'
S'\\u0639\\u0628\\u062f\\u0627\\u0644\\u0631\\u062d\\u064a\\u0645 \\u0645\\u06cc\\u0646\\u0647 \\u0648\\u0627\\u0644'
tp130
a(S'100003109400158'
S'Mohammad Qurban Haqjo'
tp131
a(S'100000631979035'
S'Ahmad Jawid Latifzai'
tp132
a(S'100003894147428'
S'Muslim Pashton'
tp133
a(S'100001475380762'
S'Abdul Hasham Nasari'
tp134
a(S'100006735732032'
S'Nazif Omar'
tp135
a(S'100003603592540'
S'Sediqullah Rahimi'
tp136
a(S'100002085311776'
S'Mena Mangal'
tp137
a(S'100004917787721'
S'Sahil Samim'
tp138
a(S'100001501812244'
S'Zohair Zohair'
tp139
a(S'100005082344571'
S'Sabeel Khan'
tp140
a(S'100006327733892'
S'Eng M Farid Ramaky'
tp141
a(S'100007808502352'
S'Abdullha Umar'
tp142
a(S'100001333152937'
S'Israrullah Naseri'
tp143
a(S'100002958746056'
S'\\u0631\\u0645\\u0636\\u0627\\u0646 \\u0628\\u0634\\u0631 \\u062f\\u0648\\u0633\\u062a'
tp144
a(S'100006625292432'
S'Zabiullah Mujahidmal'
tp145
a(S'100008371386106'
S'Mohammad Aslam Nasrat'
tp146
a(S'100003010706524'
S'Zmarialay Nasery'
tp147
a(S'100000084972316'
S'Fazal Raheem Fazal Amarkhil'
tp148
a(S'100004731044481'
S'Nomanullah Abid'
tp149
a(S'100004731701764'
S'Shafiqullah Akbary Ibrahimkhil'
tp150
a(S'100003480957139'
S'Halim Fidai'
tp151
a(S'100005854776612'
S'Ahmad Jawid Ansari'
tp152
a(S'100002868409312'
S'Afghan Pasoon'
tp153
a(S'100006335851574'
S'Mzaher Nazare'
tp154
a(S'100007284278416'
S'Haidar Khan Sabir'
tp155
a(S'100004030704328'
S'Raiullah Rafi'
tp156
a(S'100003318009225'
S'Sorush Alemi'
tp157
a(S'100002173596358'
S'Khalil Arghistani'
tp158
a(S'100003346445371'
S'Afghan Atal'
tp159
a(S'100000660222046'
S'Hassan Khan Katawazai'
tp160
a(S'100006779611570'
S'Habibrahman Rahmani'
tp161
a(S'100001330954916'
S'Safi Ullah Jan Utmanzai'
tp162
a(S'100004688285879'
S'Parhar King'
tp163
a(S'100005445884286'
S'Noor Ahmad Uon'
tp164
a(S'100004160071639'
S'Sayed Hussain Sadaat'
tp165
a(S'100002972927200'
S'Laghman Cricket'
tp166
a(S'100005217001755'
S'Niamatullah Zafarzai'
tp167
a(S'100003067818289'
S'Noorulbassar Sahil'
tp168
a(S'100003338570360'
S'Abdul Qayoom Hotak'
tp169
a(S'100004243543957'
S'Tariq Abid'
tp170
a(S'100003458488069'
S'Shafiqullah Mazloomyar'
tp171
a(S'100006048573608'
S'Haroon Aria Bakhshe'
tp172
a(S'100003644318815'
S'Junaid Kharoti'
tp173
a(S'100003565207114'
S'Maryam Ahmadi'
tp174
a(S'100002082381373'
S'Samiullah Mahal'
tp175
a(S'100005763552318'
S'Asadullah Humraz'
tp176
a(S'100001925052374'
S'Waheedullah Asmati'
tp177
a(S'100000961724630'
S'Mohammad Aslam Nasrat'
tp178
a(S'100003360038391'
S'Khawry AbdulRahman'
tp179
a(S'100003529986944'
S'Aaref Rowshan'
tp180
a(S'100002017790797'
S'Saifullah Sahel'
tp181
a(S'100003610010950'
S'Atta Muhammad Kharoti'
tp182
a(S'100006227766917'
S'Lutfurrahman Rahmani'
tp183
a(S'100004500726704'
S'\\u0627\\u0633\\u062a\\u0627\\u062f \\u06cc\\u0627\\u0633\\u0631'
tp184
a(S'100003152859215'
S'Khosrow Ahmadi'
tp185
a(S'100000070763213'
S'Sayeed Abas'
tp186
a(S'100000354307186'
S'Ahmad Walid Noori'
tp187
a(S'100004357354102'
S'Ahmad Jawaid Ansari'
tp188
a(S'100002052426322'
S'Anwar Ihsan'
tp189
a(S'100005816469413'
S'Qayoom Usmani'
tp190
a(S'100004030458601'
S'Said Rahman Assad'
tp191
a(S'100004441658016'
S'Samiullah Mohammadi'
tp192
a(S'100000117422770'
S'Zakeria Shnizai'
tp193
a(S'100004304195010'
S'Musa Essazi'
tp194
a(S'100007917930467'
S'Faizani Loonai'
tp195
a(S'100007512990193'
S'Zabihullah Ferooz'
tp196
a(S'100005240083102'
S'Hidayat Khalqe Sab'
tp197
a(S'100006986383211'
S'Ajab Khan'
tp198
a(S'100001693734535'
S'Saleem Shah Rahimzai'
tp199
a(S'100005178877054'
S'\\u067e\\u0631\\u0648\\u0641\\u06cc\\u0633\\u0648\\u0631 \\u0627\\u0646\\u062c\\u06cc\\u0646\\u0631 \\u0639\\u0627\\u0644\\u0645\\u06cc'
tp200
a(S'100000068049131'
S'Rahimullah Basam'
tp201
a(S'100008267648195'
S'Najeebullah Habibi'
tp202
a(S'100003566853877'
S'\\u0630\\u0647\\u0631\\u0627 \\u0627\\u0633\\u062a\\u0627\\u0644\\u0641\\u06cc'
tp203
a(S'1274501670'
S'\\u0627\\u0628\\u0648 \\u062c\\u0627\\u0648\\u06cc\\u062f \\u06a9\\u067c\\u0648\\u0627\\u0632\\u06cc'
tp204
a(S'100001970882824'
S'Mushfiq Asadullah'
tp205
a(S'100000888961975'
S'Saboor Wardak'
tp206
a(S'100002799055640'
S'Liaqat Gulzar'
tp207
a(S'100005875981154'
S'Mohammadullah Adel'
tp208
a(S'100007861357349'
S'\\u0646\\u0639\\u0645\\u062a \\u0627\\u0644\\u0644\\u0647 \\u0634\\u06cc\\u0646\\u0648\\u0627\\u0631\\u06cc'
tp209
a(S'100005523037750'
S'Khwaj Andar'
tp210
a(S'100001842787793'
S'Hela Nazo'
tp211
a(S'100000746400344'
S'Mohmad Shezad Mohmadi'
tp212
a(S'100007100020728'
S'Rozy Khan Hamidi'
tp213
a(S'100003058930757'
S'Ghazi Andar'
tp214
a(S'100002311279735'
S'\\u062f\\u0627\\u06a9\\u062a\\u0631 \\u0646\\u062c\\u06cc\\u0628 \\u0627\\u0644\\u0644\\u0647'
tp215
a(S'100003900283340'
S'Ab Wakil Yousofzoi'
tp216
a(S'100001479946666'
S'Mirwais Arghandiwal'
tp217
a(S'100001782746075'
S'Shair Khan Khayyam'
tp218
a(S'100003795603039'
S'\\u0646\\u0635\\u06cc\\u0631 \\u0633\\u0644\\u0637\\u0627\\u0646 \\u0632\\u0648\\u06cc'
tp219
a(S'100002441673812'
S'\\u0645\\u0632\\u0645\\u0644 \\u0633\\u0627\\u062f\\u0627\\u062a'
tp220
a(S'1777911109'
S'Khalilullah Mayar'
tp221
a(S'100004780092729'
S'Fazalrahim Shams'
tp222
a(S'100001295184075'
S'Haqyar Kharoti'
tp223
a(S'100003591788876'
S'Rahmatullah Alikhale'
tp224
a(S'100002660893175'
S'Allahnoor Shinwari'
tp225
a(S'100005040450905'
S'Riaz Ghirat'
tp226
a(S'100000959853997'
S'Eng Burhanudin'
tp227
a(S'100005224900707'
S'Jalaludin Afghan'
tp228
a(S'100001228209310'
S'Rizwanullah Sharafat'
tp229
a(S'590060161'
S'Kamal Khan'
tp230
a(S'1600744795'
S'Abdullah Moqori'
tp231
a(S'100005111174486'
S'Jalaludin Afghan'
tp232
a(S'100003070865701'
S'Mahdi Tokhi'
tp233
a(S'100003036084911'
S'\\u0628\\u0644\\u0627\\u0644 \\u0648\\u0631\\u062f\\u06ab'
tp234
a(S'100007556050269'
S'\\u06cc\\u0639\\u0642\\u0648\\u0628 \\u062e\\u0631\\u0648\\u0679\\u06cc'
tp235
a(S'100004661501534'
S'Mohammad Amin Anwari'
tp236
a(S'100001827065356'
S'Mirwais Andar'
tp237
a(S'100000185608617'
S'Abdul Hadi Dareez'
tp238
a(S'100007720445000'
S'Azmatullah Anwari'
tp239
a(S'100005641687014'
S'Jawid Nabizada'
tp240
a(S'100002240560762'
S'\\u0634\\u0631\\u0631 \\u0633\\u0627\\u067e\\u064a'
tp241
a(S'100006646566706'
S'Abdulhalim Halimi'
tp242
a(S'100003938584986'
S'Mohammad Khalid Kamall'
tp243
a(S'100004183443028'
S'Farhad Qaliqi'
tp244
a(S'100004658612012'
S'Hikmat Jan Abasin'
tp245
a(S'100004396327141'
S'Hameed Tariq'
tp246
a(S'100006147992328'
S'MT Saqeb'
tp247
a(S'100007760642698'
S'Ahmad Shah'
tp248
a(S'100003176207862'
S'Mojahid Belal'
tp249
a(S'100007078119477'
S'Saima Tajak'
tp250
a(S'100000935444814'
S'\\u0645\\u062e\\u062a\\u0627\\u0631 \\u0627\\u062d\\u0645\\u062f \\u0627\\u062d\\u0633\\u0627\\u0646'
tp251
a(S'100001897658473'
S'Kareem Khan Sabaray'
tp252
a(S'100003524002037'
S'Naqeebullah Mayar'
tp253
a(S'100002321244696'
S'Nasir Ahmad Sattari'
tp254
a(S'100004823708020'
S'Saiad Afghan'
tp255
a(S'1219924522'
S'Farhad Shojaei'
tp256
a(S'100000428006292'
S'Zalmai Islam'
tp257
a(S'100001575197867'
S'Ahmad Paiman'
tp258
a(S'100000839521170'
S'Najibrahman Rahmany'
tp259
a(S'100002617749723'
S'Nangarhar Cricket'
tp260
a(S'100003506568541'
S'\\u0634\\u0647\\u064a\\u062f \\u062f\\u0627\\u0643\\u062a\\u0631 \\u0646\\u062c\\u064a\\u0628 \\u0627\\u0644\\u0644\\u0647'
tp261
a(S'100004794493313'
S'Nasir Ahmad Mayar'
tp262
a(S'100000500773863'
S'Noorullah Arifi'
tp263
a(S'100006512251100'
S'\\u0645\\u0642\\u0631 \\u0627\\u0646\\u06a9\\u0634\\u0627\\u0641\\u06cc \\u0634\\u0648\\u0631\\u0627'
tp264
a(S'100007495452235'
S'M Hamid Omari'
tp265
a(S'100004725069050'
S'Nasir Ahmad Sahil'
tp266
a(S'100000208811795'
S'Abaseen Khan Durrani'
tp267
a(S'100000617889318'
S'Zabulwal Kakar'
tp268
a(S'100007908244864'
S'Mohamd Jan Auobi'
tp269
a(S'100002569354623'
S'Abdul Shakoor Nasrat'
tp270
a(S'100003329093782'
S'Riaz Saqib'
tp271
a(S'100003792482670'
S'Dawood Rasooli'
tp272
a(S'100002519177017'
S'Ahmad Wali Sarhadi'
tp273
a(S'100003836637830'
S'Jalaludin Jalal'
tp274
a(S'100002604164172'
S'Shir Hasan Wardak'
tp275
a(S'100001380733839'
S'\\u062f\\u062a\\u0648\\u062d\\u06cc\\u062f \\u062f\\u0639\\u0648\\u062a'
tp276
a(S'100003913674987'
S'Matiullah Rishtin'
tp277
a(S'100002428386628'
S'Abdulalim Noori'
tp278
a(S'100005318074478'
S'Inamullah Saddiq'
tp279
a(S'100003926030185'
S'Bilal Tokhi'
tp280
a(S'100006516106886'
S'Abdullah Azizi'
tp281
a(S'100003289035868'
S'Abdul Karim Khurram'
tp282
a(S'100003813026607'
S'Mohammad Dawood Mokhles'
tp283
a(S'100005226037448'
S'Samiullah Farahi'
tp284
a(S'100007751532516'
S'Ubidullah Ibrahimkhil'
tp285
a(S'100004653546642'
S'Rahim Gul Mayar'
tp286
a(S'100002865168607'
S'Asad Ullah Wafa'
tp287
a(S'100000980973245'
S'Hamidullah Waizy'
tp288
a(S'100006093871530'
S'Habibrahman Mayar'
tp289
a(S'100004794181097'
S'Mahfoz Ahmad'
tp290
a(S'100004501447684'
S'Mustafa Oria'
tp291
a(S'100004455211666'
S'Ahmadshah Lakankhail Andar'
tp292
a(S'100006567461714'
S'Faizani Loonai'
tp293
a(S'100005230901889'
S'Wafiullah Hakimi'
tp294
a(S'100002039286490'
S'Badam Gul KaKar'
tp295
a(S'100001305512894'
S'Eng Shahzadah Asim'
tp296
a(S'100007969356864'
S'AhmadReshad Noorzahi'
tp297
a(S'100002988336225'
S'Sayadrahman Assad'
tp298
a(S'100006626017425'
S'Samiullah Kamrani'
tp299
a(S'100001704716142'
S'Sami Wahdat'
tp300
a(S'100002082033409'
S'Mohammad Ulah'
tp301
a(S'100003046560956'
S'Nazir Sofizada'
tp302
a(S'100007721799028'
S'Islamudin Sarwari'
tp303
a(S'100004920331205'
S'Hayatullah Koshan'
tp304
a(S'100001314068025'
S'\\u00d1\\u00f8\\u00f8r W\\u00e2l\\u00ee Z\\u00e4dr\\u00e4n'
tp305
a(S'100002949876898'
S'Nasirahmad Sahil'
tp306
a(S'100005065235509'
S'Hafizullah Ahmadzai'
tp307
a(S'100002022522366'
S'Haroon Khpalwak'
tp308
a(S'100005422296066'
S'Fazlwahid Farooqzai'
tp309
a(S'100003884767077'
S'Walasi Khan'
tp310
a(S'100004600385089'
S'Ahmad Javed Sultani'
tp311
a(S'100007301381574'
S'Nasratullah Slimankhil'
tp312
a(S'100003190048150'
S'Mustafa Shahab'
tp313
a(S'100000182400790'
S'Najib Ullah Rahmati'
tp314
a(S'100001018510818'
S'Naseer Sedeqi'
tp315
a(S'100005712582445'
S'Hazrat Omar Kamal'
tp316
a(S'100001560113503'
S'Noorullah Zadran'
tp317
a(S'100007069446461'
S'Sayer Kakar'
tp318
a(S'1322329467'
S'Raofi Qais'
tp319
a(S'100004488637027'
S'Arash Arya'
tp320
a(S'100000462578587'
S'Yousof Joya'
tp321
a(S'100002140062738'
S'Esmat Ziaye'
tp322
a(S'100004758214222'
S'M Tariq Thaqeb'
tp323
a(S'100005694339610'
S'Eng Fazalrahim Shams'
tp324
a(S'100003258227787'
S'Emal Faizi'
tp325
a(S'100008117289546'
S'Imran Khan Khan'
tp326
a(S'100001041200593'
S'Mirwais Ashraf'
tp327
a(S'100005113808560'
S'Redigule Muzamil'
tp328
a(S'100005265991717'
S'Feda Mohammad'
tp329
a(S'100000611410796'
S'Hasti Gul Abed'
tp330
a(S'100002122132080'
S'Zia Hamidyar'
tp331
a(S'100004498083591'
S'Najib Alikhil'
tp332
a(S'100002808947666'
S'Paiman Khan'
tp333
asS'id'
p334
S'100000180056766'
p335
sS'name'
p336
S'Najeebullah Afghan'
p337
s.