(dp1
S'name'
p2
S'Begh Anayat'
p3
sS'current_class'
p4
Vsrinagar
p5
sS'home_class'
p6
Vsopore
p7
sS'home_text'
p8
VSopor, Jammu And Kashmir, India\u000aHometown
p9
sS'current_link'
p10
Vhttps://www.facebook.com/l.php?u=https%3A%2F%2Fwww.bing.com%2Fmaps%2Fdefault.aspx%3Fv%3D2%26pc%3DFACEBK%26mid%3D8100%26where1%3D34.08969994235%252C%2B74.789428710938%26name%3DSrinagar%252C%2BJammu%2Band%2BKashmir%26mkt%3Den-IN&h=MAQFBoRrd&s=1
p11
sS'home_link'
p12
Vhttps://www.facebook.com/l.php?u=https%3A%2F%2Fwww.bing.com%2Fmaps%2Fdefault.aspx%3Fv%3D2%26pc%3DFACEBK%26mid%3D8100%26where1%3D34.300000523153%252C%2B74.46533203125%26name%3DSopor%252C%2BJammu%2BAnd%2BKashmir%252C%2BIndia%26mkt%3Den-IN&h=XAQHdl2QS&s=1
p13
sS'current_text'
p14
VSrinagar, Jammu and Kashmir\u000aCurrent City
p15
sS'friends'
p16
(lp17
(S'100007338155909'
S'Rais Khan'
tp18
a(S'100008214216487'
S'Monika Sharma'
tp19
a(S'100008015262513'
S'Sana Khan'
tp20
a(S'100007820310096'
S'Priya Sharma'
tp21
a(S'100007937674760'
S'Nadia Khan'
tp22
a(S'100007943794463'
S'Anidri'
tp23
a(S'100002470704333'
S'Sahil Shukla'
tp24
a(S'100008354013015'
S'Muskan Hayaat'
tp25
a(S'100004320372749'
S'Mukul Jain'
tp26
a(S'100008304915005'
S'Salma Aftab'
tp27
a(S'100005301846884'
S'Sana Khan'
tp28
a(S'100008009585950'
S'Asma Shah'
tp29
a(S'100007716698899'
S'Muskaan Khan'
tp30
a(S'100008174353795'
S'Shaista Jan'
tp31
a(S'100002948461063'
S'Anna Maria'
tp32
a(S'100007851785287'
S'Monika Sharma'
tp33
a(S'100005583241130'
S'Lany Mark'
tp34
a(S'100007071391439'
S'Zara Khan'
tp35
a(S'100006917803336'
S'Fadli Los Blancos'
tp36
a(S'100008188620945'
S'Muskan Jan'
tp37
a(S'100008332478441'
S'Miraj Ansari'
tp38
a(S'100008195828085'
S'Rabia Khan'
tp39
a(S'100003926548886'
S'Manpreet Kaur'
tp40
a(S'100003739042350'
S'Abdullah Shah'
tp41
a(S'100008385961424'
S'Afreen Khan'
tp42
a(S'100002557588749'
S'Arjun Singh'
tp43
a(S'100004463500954'
S'Fulmaya Rana'
tp44
a(S'100004088957521'
S'Harwinder Ramana'
tp45
a(S'100008147794035'
S'Zoya Khan'
tp46
a(S'100005903612202'
S'Haider Khan'
tp47
a(S'100008211971475'
S'Laiba Shah'
tp48
a(S'100008158358939'
S'Shanza Fakat'
tp49
asS'id'
p50
S'100008279017062'
p51
s.