(dp1
S'friends'
p2
(lp3
(S'100002197441770'
S'Sraddheya Gurung'
tp4
a(S'100001403278182'
S'Trapti Jain'
tp5
a(S'555812484'
S'Sanjay Bahadur'
tp6
a(S'100000259168968'
S'Muskan Jain'
tp7
a(S'100003690243303'
S'Swastik Gupta'
tp8
a(S'753332513'
S'Subhrajit Kar'
tp9
a(S'100001373075981'
S'Medhavu Shah'
tp10
a(S'100001793597458'
S'Savi D\\u00fc\\u00e3'
tp11
a(S'100000578967870'
S'Tencho Sherpa'
tp12
a(S'100001781944922'
S'Chittish Pasbola'
tp13
a(S'100004570694178'
S'Diwankar Agrawal'
tp14
a(S'100002395037636'
S'Aparna Tandon'
tp15
a(S'100001347988589'
S'Hugo Belperron'
tp16
a(S'100000301600632'
S'Neha Kala'
tp17
a(S'100005237349320'
S'Prince Tandukar'
tp18
a(S'100000556719211'
S'Amaan Aslam'
tp19
a(S'100003243321619'
S'Tenzin Yonden'
tp20
a(S'100003782658158'
S'Dwiimiidh Daga'
tp21
a(S'100004062082233'
S'Yash Gupta'
tp22
a(S'100005375791579'
S'Ashita Roongta'
tp23
a(S'100001545202724'
S'Devansh Maheshwari'
tp24
a(S'100005346279005'
S'Harira Lim'
tp25
a(S'100000643292920'
S'Suryansh Bagla'
tp26
a(S'100002189712648'
S'Manvika Goyal'
tp27
a(S'100003114261712'
S'Arvan Gurung'
tp28
a(S'100001794923945'
S'Andy J Allen'
tp29
a(S'1813243650'
S'Sanjay Narain'
tp30
a(S'100000726709476'
S'Laveena Narain'
tp31
a(S'100000216188150'
S'Prakriti Mehrotra'
tp32
a(S'100003655881021'
S'Shubhangi Jindal'
tp33
a(S'100005033529500'
S'Akhiyarul Ghani'
tp34
a(S'1474743116'
S'Vanshika Gupta'
tp35
a(S'100003168085140'
S'Navya Gupta'
tp36
a(S'100002333218863'
S'Harshit Narain'
tp37
a(S'100004241315881'
S'Mohit Khatri'
tp38
a(S'100004005224275'
S'Ishita Kanodia'
tp39
a(S'1417434693'
S'Minakshi Agarwal'
tp40
a(S'100003090007386'
S'Roshan Singh Thakuri'
tp41
a(S'100000898250483'
S'Ambika Agrawal'
tp42
a(S'672278128'
S'Sanjay Pasbola'
tp43
a(S'100001291517227'
S'Navishta Arif'
tp44
a(S'100001404004539'
S'Megha Chand'
tp45
a(S'100002628302974'
S'Divyarth Verma'
tp46
a(S'100000606770620'
S'V\\u0131\\u00d0\\u0131t Thakk\\u00e4\\u0159'
tp47
a(S'100002586998960'
S'Nivea Gupta'
tp48
a(S'100004682197035'
S'Sagar Khatri'
tp49
a(S'100004944370872'
S'Akhiyarul Ghani'
tp50
a(S'100003864325222'
S'Kritika Maheshwari'
tp51
a(S'100002135860629'
S'Knors Aamps'
tp52
a(S'100003317992428'
S'Katharina Ammann'
tp53
a(S'100001939359098'
S'Smita Tandon'
tp54
a(S'100006050794905'
S'Udai Narain'
tp55
a(S'758208915'
S'Kaz Pasbola'
tp56
a(S'100005070097780'
S'Dhanvi Dugar'
tp57
a(S'749248763'
S'Tvesha Bahadur'
tp58
a(S'100001517488108'
S'Paranjay Agarwal'
tp59
a(S'100004919049681'
S'Yashaswee Shah'
tp60
a(S'100000117583077'
S'Sneha Shakya'
tp61
a(S'100004584150429'
S'Pranay Sethia'
tp62
a(S'100004131186555'
S'Aradhya Jain'
tp63
a(S'100005644953101'
S'Nom Bom'
tp64
a(S'100000168634507'
S'Rajan Narayan'
tp65
a(S'100000190538384'
S'Vagissha Khanna'
tp66
a(S'100002876277569'
S'Aryan Narula'
tp67
a(S'100001354069399'
S'Radhika Adukia'
tp68
a(S'584551187'
S'Bina Kala'
tp69
a(S'100002084583784'
S'Indu Narain'
tp70
a(S'100002006286330'
S'Sarangel Lim'
tp71
a(S'100003905706550'
S'Vanshika Maheshwari'
tp72
a(S'100001490947265'
S'Vansh Singh'
tp73
a(S'100001349757091'
S'Alia Imran'
tp74
a(S'100003683706761'
S'Aakriti Scarlett'
tp75
a(S'100005948081567'
S'Vaibhav Jain'
tp76
a(S'100002949911776'
S'Shalini Agrawal'
tp77
a(S'100003253858515'
S'Kshitij Gupta'
tp78
a(S'100003666802012'
S'Aditi Agarwal'
tp79
a(S'100000679003040'
S'Ishaan Gupta'
tp80
a(S'100000484093589'
S'Shefali Agarwal'
tp81
a(S'100000958822794'
S'Rohan Adukia'
tp82
a(S'100002275547805'
S'Dhruv Garg'
tp83
a(S'100000965918966'
S'Raghav Roongta'
tp84
a(S'100003973320290'
S'Kritika Sharma'
tp85
a(S'100002281277835'
S'Ashita Roongta'
tp86
a(S'100005744023451'
S'Navya Garg'
tp87
a(S'100000943525707'
S'Arnav Bikram Shah'
tp88
a(S'100005999978735'
S'Ed Lucas'
tp89
a(S'100005616938727'
S'Vasu Gaur'
tp90
a(S'100004741055121'
S'Akhiyarul Ghani'
tp91
a(S'1509792450'
S'Kirti Agarwal Pasbola'
tp92
a(S'100001121013312'
S'Vedika Princess Agarwal'
tp93
a(S'1510212659'
S'Ajay Pasbola'
tp94
a(S'100002220139507'
S'Siddhi Gupta'
tp95
a(S'100001206560861'
S'Lina Ashar'
tp96
a(S'100003489493399'
S'Anushka Mehrotra'
tp97
a(S'100000970655933'
S'ArAdhya JAin'
tp98
a(S'100003641810961'
S'Shreyas Agrawal'
tp99
a(S'100004285962194'
S'Khushaal Akhtar'
tp100
a(S'1076793951'
S'Nishmanya Bahadur'
tp101
a(S'100000112386350'
S'Anupama Garg'
tp102
a(S'100001886434837'
S'Daga Yajwin'
tp103
a(S'100003101041902'
S'Ghalib Khan'
tp104
a(S'100002692729941'
S'Rishabh Goyal'
tp105
a(S'100002948932538'
S'Parth Jain'
tp106
a(S'855275220'
S'Nidhi Narain'
tp107
asS'id'
p108
S'100004158995122'
p109
sS'name'
p110
S'Gauri Pasbola'
p111
s.