(dp1
S'name'
p2
S'Nouman Khan'
p3
sS'current_class'
p4
S'pakistan'
p5
sS'home_class'
p6
Vakora khattak, pakistan
p7
sS'home_text'
p8
VAkora Khattak, Khyber Pakhtunkhwa, Pakistan\u000aHometown
p9
sS'current_link'
p10
Vhttps://www.facebook.com/l.php?u=https%3A%2F%2Fwww.bing.com%2Fmaps%2Fdefault.aspx%3Fv%3D2%26pc%3DFACEBK%26mid%3D8100%26where1%3D34.015300347902%252C%2B71.974182128906%26name%3DNowshera%26mkt%3Den-IN&h=8AQFN85pf&s=1
p11
sS'home_link'
p12
Vhttps://www.facebook.com/l.php?u=https%3A%2F%2Fwww.bing.com%2Fmaps%2Fdefault.aspx%3Fv%3D2%26pc%3DFACEBK%26mid%3D8100%26where1%3D33.994200182096%252C%2B72.143096923828%26name%3DAkora%2BKhattak%252C%2BKhyber%2BPakhtunkhwa%252C%2BPakistan%26mkt%3Den-IN&h=aAQEOkmmA&s=1
p13
sS'current_text'
p14
VNowshera\u000aCurrent City
p15
sS'friends'
p16
(lp17
(S'100003198887854'
S'Ritu Arora'
tp18
a(S'100002906152073'
p19
S'Nouman Khan'
tp20
asS'id'
p21
g19
s.