(dp1
S'friends'
p2
(lp3
(S'100004520410234'
S'Rajesh Gupta'
tp4
a(S'100002281654074'
S'Sahil Sharma'
tp5
a(S'100004756842841'
S'Malkeet Singh'
tp6
a(S'100003988913467'
S'Imbersile Charak'
tp7
a(S'100004578901850'
S'Riya Gupta'
tp8
a(S'100004515633265'
S'Jaspreet Singh'
tp9
a(S'100004729742091'
S'Rajan Singh'
tp10
a(S'100005679330877'
S'Vicky Sharma'
tp11
a(S'100005873584693'
S'Inderjeet Singh'
tp12
a(S'100004663350286'
S'Angel Kour'
tp13
a(S'100005452964492'
S'Angel Muskaan'
tp14
a(S'100003236831586'
S'Arif Khan'
tp15
a(S'100004224874386'
S'Harish Sharma'
tp16
a(S'100002879472978'
S'Varun Verma'
tp17
a(S'100002873842599'
S'Wajahat Ahmed Sheikh'
tp18
a(S'100003646826657'
S'Rohit Sharma'
tp19
a(S'100003831713615'
S'Sandeep Sharma'
tp20
a(S'100007073828433'
S'Ov Hamdani'
tp21
a(S'100002415188553'
S'Sunny Sharma'
tp22
a(S'100003694784880'
S'Rajan Sharma'
tp23
a(S'100002471000596'
S'\\u00c5j\\u00c5x \\u00c5N\\u00f9'
tp24
a(S'100004067385313'
S'Sunny Khajuria'
tp25
a(S'100004348532996'
S'Amandeep Singh'
tp26
a(S'100003062567767'
S'Prabjyot Kour'
tp27
a(S'100004291960889'
S'Krish Meet Singh'
tp28
a(S'100005891106416'
S'Anamika Sharma'
tp29
a(S'100003394999320'
S'Syed Allhy Naqvi'
tp30
a(S'100004748051745'
S'Surjeet Singh'
tp31
a(S'100005529060949'
S'Irfan Aziz'
tp32
a(S'100005291767707'
S'Rajveer Singh'
tp33
a(S'100004777452139'
S'Manpeet Kour'
tp34
a(S'100005077901769'
S'Rajinder Singh'
tp35
a(S'100005794865162'
S'Sahil Sharma'
tp36
a(S'100004299035086'
S'Rustam Ali'
tp37
a(S'100004559131879'
S'Sahil Sharma'
tp38
a(S'100007692967205'
S'Ravinder Singh'
tp39
a(S'100008136520940'
S'Rajveer Singh'
tp40
a(S'100004399301299'
S'Anil Mahi'
tp41
a(S'100005760662690'
S'K\\u00e2r\\u00e2n V\\u00ea\\u00ear'
tp42
a(S'100006524550790'
S'Lucky Singh'
tp43
a(S'100004910318082'
S'Gagan Deep Singh'
tp44
a(S'100003572963594'
S'Ajit Singh'
tp45
a(S'100004407490642'
S'Sumit Sharma'
tp46
a(S'100004330771939'
S'Farooq Ahmed'
tp47
a(S'100004613441596'
S'Babneet Rissem'
tp48
a(S'100004461790529'
S'Thomas Sahota'
tp49
a(S'100004672811655'
S'Deepak Sharma'
tp50
a(S'100007021056569'
S'Rahul Singh Sangra'
tp51
a(S'100004858950483'
S'Pa W An'
tp52
a(S'100004559854567'
S'Arjun Sharma'
tp53
a(S'100004598163827'
S'Harsh Sharma'
tp54
a(S'100004204632708'
S'Gagan Deep Singh'
tp55
a(S'100003950404663'
S'Imtiaz Ahmed'
tp56
a(S'100003109194691'
S'Sunny Singh'
tp57
a(S'100001659235394'
S'Pawandeep Singh Baghi'
tp58
a(S'100004711355307'
S'Rohit Kumar'
tp59
a(S'100002602698127'
S'Khalid Ali'
tp60
asS'id'
p61
S'100003062567767'
p62
sS'name'
p63
S'Prabjyot Kour'
p64
s.