(dp1
S'friends'
p2
(lp3
(S'1428100130'
S'Sayesha Gupta'
tp4
a(S'1001316862'
S'Karanvir Singh'
tp5
a(S'1645640382'
S'Arjoonn Sharma'
tp6
a(S'1228423052'
S'Kashish Gajrawala'
tp7
a(S'100000181865114'
S'Rishabh Thakur'
tp8
a(S'1031662520'
S'ROhan Sharma'
tp9
a(S'738201763'
S'Rohan Bhutani'
tp10
a(S'1058206833'
S'Avnish Rana'
tp11
a(S'100001503260763'
S'Dhruv Rawat'
tp12
asS'id'
p13
S'100006152652607'
p14
sS'name'
p15
S'Rrohan Gupta'
p16
s.