(dp1
S'friends'
p2
(lp3
(S'100007914912483'
S'Angel Amna'
tp4
a(S'100007859287379'
S'\\u09b8\\u09be\\u09ac\\u09bf\\u09b9\\u09be \\u09b8\\u09cd\\u09a8\\u09bf\\u0997\\u09cd\\u09a7\\u09be'
tp5
a(S'100004945990720'
S'MohammadFahim Rasuly'
tp6
a(S'100003905919941'
S'Anushka Jain'
tp7
a(S'100008329862679'
S'Farid Khosti'
tp8
a(S'100007793082074'
S'\\u0627\\u0646\\u062c\\u0645\\u0646 \\u062c\\u0648\\u0627\\u0646\\u0627\\u0646 \\u067e\\u0631\\u0648\\u0627\\u0646 \\u063a\\u0648\\u0631\\u0628\\u0646\\u062f'
tp9
a(S'100007633115173'
S'Kamila Bawer'
tp10
a(S'100008030020190'
S'Raihana Ahmadi'
tp11
a(S'100008008532711'
S'Mozzammel Mojumder'
tp12
a(S'100007901258359'
S'Saima Arain Arain'
tp13
a(S'100008017507410'
S'Tamanna Akter'
tp14
a(S'100000748867765'
S'Atiq Safi'
tp15
a(S'100007764759294'
S'Tamanna Aktar'
tp16
a(S'100007992872949'
S'\\u0627\\u0646\\u062a\\u062e\\u0627\\u0628 \\u0627\\u0641\\u063a\\u0627\\u0646\\u0633\\u062a\\u0627\\u0646'
tp17
a(S'100007843263672'
S'Khadija Sadat'
tp18
a(S'100008034432040'
S'Rukhsar Amiri'
tp19
a(S'100007968903255'
S'Suraya Ritu'
tp20
a(S'100003078384295'
S'Hashim Khan'
tp21
a(S'100001622484367'
S'Shahadt Hosen Suvo'
tp22
a(S'100008108165702'
S'\\u0681\\u0648\\u0627\\u0646 \\u0634\\u0627\\u0639\\u0631\\u0627\\u0646'
tp23
a(S'100007942814425'
S'Marialyn Samosa'
tp24
a(S'100007881816797'
S'Kaihan Dastyar'
tp25
a(S'100008258647923'
S'Hela Zaland'
tp26
a(S'100002085311776'
S'Mena Mangal'
tp27
a(S'100008084343760'
S'Wahida SN'
tp28
a(S'100006359654522'
S'\\u0622\\u0631\\u0645\\u0627\\u0646\\u06cc \\u0645\\u0633\\u0627\\u0641\\u0631'
tp29
a(S'100007991342847'
S'Waanu Jeclnahay Wariyasha Sanadka'
tp30
a(S'100006543276040'
S'Ariba Sayyed'
tp31
a(S'100008033580163'
S'Firoz Alam Sha Idea'
tp32
a(S'100007739823862'
S'Nayan Choudary'
tp33
a(S'100008075317505'
S'\\u0648\\u0643\\u0645\\u0647 \\u0648\\u0641\\u0627'
tp34
a(S'100007803333820'
S'Aminullh Amini'
tp35
a(S'100006766754245'
S'Shawkat Afghan Zazai'
tp36
a(S'100003625647260'
S'\\u0645\\u062d\\u0628\\u062a \\u0645\\u064a\\u0646\\u0647'
tp37
asS'id'
p38
S'100008006915976'
p39
sS'name'
p40
S'Shkolla Barekzai'
p41
s.