(dp1
S'friends'
p2
(lp3
(S'100000899772992'
S'Gaurav Anand'
tp4
a(S'100003309017789'
S'Choudhury Rakesh Mishra'
tp5
a(S'100003520986193'
S'Priya Singh'
tp6
a(S'100005306561746'
S'Ankit Admiter'
tp7
a(S'100001426004039'
S'Aisha Sharma'
tp8
a(S'100003201009893'
S'Aditi Verma'
tp9
a(S'100005816073795'
S'Deepak Singh'
tp10
a(S'100002871927859'
S'Swathi Annie'
tp11
a(S'100000647587158'
S'Sherya Shetty'
tp12
a(S'100001454695499'
S'Vimal Kumar'
tp13
a(S'100002616770256'
S'Vivek Tiwari'
tp14
a(S'100002672046262'
S'Survi Singh'
tp15
a(S'100004017434546'
S'Shruti Sinha'
tp16
a(S'100002485446896'
S'Neha Srivastava'
tp17
a(S'100003580266272'
S'Anmol Sajan'
tp18
a(S'100003441985724'
S'Neeraj Devilz'
tp19
a(S'100003523663390'
S'Prince Kr Singh'
tp20
a(S'100002995726838'
S'Fardina Jahan'
tp21
a(S'100003290780982'
S'Amit Kumar'
tp22
a(S'100001391915392'
S'Sandeep Kumar'
tp23
a(S'100005641532029'
S'Ankur Rajput'
tp24
a(S'100003265234119'
S'Alpana Singh'
tp25
a(S'100002743270064'
S'Naveen Sharma'
tp26
a(S'100003485163321'
S'Munna Supari'
tp27
a(S'100002755266336'
S'Anshu Giri'
tp28
a(S'100001111381019'
S'Awani Bhushan'
tp29
a(S'100003283749385'
S'Aditya Kumar'
tp30
a(S'100004045609359'
S'Bhupendra Kumar Sahu'
tp31
a(S'100002757328232'
S'Pankaj Saini'
tp32
a(S'100003303981350'
S'Sunny Raj'
tp33
a(S'100001744544548'
S'Sahil Shekhar'
tp34
a(S'100002863483447'
S'Sanjana Singh'
tp35
a(S'100005145152070'
S'Riya Sinha'
tp36
a(S'100002888914369'
S'Sunidhi Singh'
tp37
a(S'100003677904143'
S'Swarna Kashyap'
tp38
a(S'100002471093076'
S'Rohit Singh'
tp39
a(S'100004134727910'
S'Anand Araya'
tp40
a(S'100003407329979'
S'Kaushal Singh'
tp41
a(S'100003145198971'
S'Kaatupoochi Jack'
tp42
a(S'100006953834626'
S'Swarup Das'
tp43
a(S'100001450097615'
S'Arvind Kumar'
tp44
a(S'100002898869150'
S'Sweta Tiwari'
tp45
a(S'100002530522598'
S'Tiya Bhattacharjee'
tp46
a(S'100003828531738'
S'Kriya Rajput'
tp47
a(S'100003115380211'
S'Zafar Chauhan'
tp48
a(S'100003304315267'
S'Aisha Sharma'
tp49
a(S'100002613594202'
S'Subhash Chandra'
tp50
a(S'1548204622'
S'Abhinav Kumar Sinha'
tp51
a(S'100002761399391'
S'Ganesh Mahato'
tp52
a(S'100003157313938'
S'Saniya Garg'
tp53
a(S'100003816154577'
S'Ravi Kumar'
tp54
a(S'100003260106414'
S'RaVv Casanova'
tp55
a(S'100003345068887'
S'Rashmi Singh'
tp56
a(S'100002394733402'
S'Noussaa RanKat'
tp57
a(S'100003181446732'
S'Amit Kumar Singh'
tp58
a(S'100001515686182'
S'Sswarup Das'
tp59
a(S'100003322416209'
S'Aditya Raj'
tp60
a(S'100005154546504'
S'Nadaan Parinda'
tp61
a(S'100002151223112'
S'Amrita Roy'
tp62
a(S'100003134714191'
S'Jude Anojan'
tp63
a(S'100002263323020'
S'\\u0935\\u093f\\u0915\\u093e\\u0936 \\u0936\\u0930\\u094d\\u092e\\u093e'
tp64
a(S'100003173371948'
S'Anjlina Kumari'
tp65
a(S'100003532261004'
S'Preeti Arora'
tp66
a(S'100003501144483'
S'Pooja Singh'
tp67
a(S'100002897928236'
S'Sami Bin Jaffar'
tp68
a(S'100001983992773'
S'Jitendra Kumar'
tp69
a(S'100003316279568'
S'Shubham Shekhar'
tp70
a(S'100003291215962'
S'Er Surendra Regar'
tp71
a(S'100004975117074'
S'Aayush Singh'
tp72
a(S'100001680765839'
S'Shamille Sze'
tp73
a(S'100005053242888'
S'Alex Sahil'
tp74
a(S'100003302255413'
S'Prabhakar Pks'
tp75
a(S'100001948282414'
S'Amit Solanki'
tp76
a(S'100003234530056'
S'Rahul Kumar'
tp77
a(S'100002829713443'
S'Pintu Kumar'
tp78
a(S'100003099259541'
S'Praveen Kumar'
tp79
a(S'100003471126052'
S'Pankaj Singh'
tp80
a(S'100003205800272'
S'Anish Kumar'
tp81
a(S'100005106635409'
S'Vikram Singh Rathore'
tp82
a(S'100002329884946'
S'Samrat Srivastava'
tp83
a(S'100002636095212'
S'Rajanish Chandra'
tp84
a(S'100002336903242'
S'Rajani Sinha'
tp85
a(S'100002432863502'
S'Rishi Raj'
tp86
a(S'100002860203569'
S'Dinesh Singh'
tp87
a(S'100004543154596'
S'Innoccent Shaitan'
tp88
a(S'100001641510204'
S'Niraj Sinha'
tp89
a(S'100002037903639'
S'Pratik Arya'
tp90
a(S'100003566526401'
S'Aishwarya Sudhir'
tp91
a(S'100002767328445'
S'Sourav Kumar'
tp92
a(S'100003132457005'
S'Ritu Raj Roy'
tp93
a(S'100003047503797'
S'Mahela Jeyawardene'
tp94
a(S'100003147463859'
S'Priya Kumari'
tp95
a(S'100001677674067'
S'Pratik Adarsh'
tp96
a(S'100003158147645'
S'Virat Gupta'
tp97
a(S'100002823318185'
S'Angel Annu Singh'
tp98
a(S'100002984221985'
S'Abhinav Raj Rai'
tp99
a(S'100004770571282'
S'Nitesh Singh'
tp100
a(S'100002422551114'
S'Rohit Raj'
tp101
a(S'100003525208143'
S'Mohit Srk'
tp102
a(S'100002616085969'
S'Steven Smith'
tp103
a(S'100002050113935'
S'Ranbir Love'
tp104
a(S'100003279002474'
S'Anita Kapoor'
tp105
a(S'100003184041598'
S'Rehana Singh'
tp106
a(S'100003893116984'
S'Kumar Ujjwal'
tp107
a(S'100001610921815'
S'Priyanshu Rathaur'
tp108
a(S'100001288749883'
S'Kanika Kulshrestha'
tp109
a(S'100000112163832'
S'Pooja Kumari'
tp110
a(S'100004129478552'
S'Nihla Sherin'
tp111
a(S'100003265121194'
S'Atul Priyadarshi'
tp112
a(S'100003277824810'
S'Saurav Raj'
tp113
a(S'100002334033528'
S'Ratan Kumar'
tp114
a(S'100002886833065'
S'Sudhakar Kumar'
tp115
a(S'100001752553114'
S'Pereira Zina'
tp116
a(S'100003498433813'
S'Piyush Kumar Singh'
tp117
a(S'100003015886874'
S'Vishal Srivastava'
tp118
a(S'100002207302410'
S'Shubham Parashar'
tp119
a(S'100003593345533'
S'Rahul Raushan'
tp120
a(S'100003284948482'
S'Chanda Maurya'
tp121
a(S'100002903169237'
S'Ravi Soni'
tp122
a(S'100002679647063'
S'Shubham Krishna'
tp123
a(S'100002974878335'
S'Vishwajeet Kumar'
tp124
a(S'100001732002228'
S'Prajjwal OJha'
tp125
a(S'100003717883039'
S'Prabhat Singh'
tp126
a(S'100000070215138'
S'Nikita Verma'
tp127
a(S'100003479809545'
S'Ranjan Raj'
tp128
a(S'100002784896305'
S'Mridul Shekhar'
tp129
a(S'100003295624221'
S'Sunita Jyoti'
tp130
a(S'100002475764327'
S'Praveen Shekhar'
tp131
a(S'100002855781750'
S'Amrita Sinha'
tp132
a(S'100004234988018'
S'Niraj Sinha'
tp133
a(S'100003734119228'
S'Tusshar Rai'
tp134
a(S'100002929108199'
S'Dhruv Kumar Singh'
tp135
a(S'100000820355480'
S'Vivek Singh Chauhan'
tp136
a(S'100001937070703'
S'Adarsh Suri'
tp137
a(S'100002665346696'
S'Shubham Sharma'
tp138
a(S'100003814150858'
S'Suhani Sinha'
tp139
a(S'100006772269549'
S'P Kr Rai'
tp140
a(S'100002352862551'
S'Ankit Arya'
tp141
a(S'100002908524933'
S'Koly Chowdury'
tp142
a(S'100003880553442'
S'Harshit Kalal'
tp143
a(S'100002782170413'
S'Ujjawal Bihari'
tp144
a(S'100002651847951'
S'Rajeev Kumar'
tp145
a(S'100003061415256'
S'Preety Singh'
tp146
a(S'100002615776747'
S'Kashish Kachich'
tp147
a(S'100000833372410'
S'Manish Ayushman'
tp148
a(S'100005713831990'
S'Bala Jee'
tp149
a(S'100002271026185'
S'Sweeti Sinha'
tp150
a(S'100003022228521'
S'Kumar Aatish'
tp151
a(S'100003028597554'
S'Manish Sharma'
tp152
a(S'100004164759805'
S'Rohit Kumar Gupta'
tp153
a(S'100001855634987'
S'Prabhat Niraj'
tp154
a(S'100003373963286'
S'Ritesh Singh'
tp155
a(S'100002362825932'
S'Bishnu Shankar Pandey'
tp156
a(S'100002402151312'
S'Abhishek Ranjan'
tp157
a(S'100004287761862'
S'Abhinandan Kumar Abhinandan Raj'
tp158
a(S'100003158156738'
S'Nj Jain'
tp159
a(S'100002701591242'
S'Aditya Raj'
tp160
a(S'100002685440244'
S'Descent Rajeev'
tp161
a(S'100002272275818'
S'Manish Kumar'
tp162
a(S'100002285368419'
S'Saloni Jain'
tp163
a(S'100003379410280'
S'Aditya Raj'
tp164
a(S'100003393225354'
S'Alok Tiwari'
tp165
a(S'100003179153704'
S'Manish Raj'
tp166
a(S'1609428426'
S'Kushagra Srivastava'
tp167
a(S'100002812950056'
S'\\u0b95\\u0ba9\\u0bbf \\u0b9c\\u0bbf\\u0bb2\\u0bcd\\u0bb2\\u0bbe'
tp168
a(S'100003265306431'
S'Navya Kumari'
tp169
a(S'100004391047605'
S'Prashant Pratap'
tp170
a(S'100002490993955'
S'Preeti Shah'
tp171
a(S'100002101765782'
S'Kanak Priya'
tp172
a(S'100002192910389'
S'Gaurav Raj'
tp173
a(S'100003270062733'
S'Praveen Kumar'
tp174
a(S'100002867425702'
S'Kumar Abhinav'
tp175
a(S'100003264440805'
S'Divya Mahajan'
tp176
a(S'100001138141575'
S'Lalisa Lalis Alis'
tp177
a(S'100005550161364'
S"Aryan D'souza"
tp178
a(S'100002092938217'
S'Pooja Singh'
tp179
a(S'100000276537775'
S'Fadlun Zulsika Loleh'
tp180
a(S'100003380256323'
S'Aditya Raj'
tp181
a(S'100003549063591'
S'Ajay Kumar'
tp182
a(S'100003097120697'
S'Rajeev Ranjan'
tp183
a(S'100001639552135'
S'Cul ViShal SiNgh'
tp184
a(S'100001803969224'
S'Ranjan Kumar'
tp185
a(S'100002879865353'
S'Shalini Lohia'
tp186
a(S'100000824618531'
S'Ravi Ranjan'
tp187
a(S'100002468428318'
S'Jaypal Kumar'
tp188
a(S'100002745472408'
S'Vraj Patel'
tp189
a(S'100003319432619'
S'Rock Ravi'
tp190
a(S'100003040069484'
S'Suraj Bacardi'
tp191
a(S'100003915978389'
S'Nikita Parate'
tp192
a(S'100003305584509'
S'Preety Srivastava'
tp193
a(S'100000136319326'
S'Kamaran Alam'
tp194
a(S'100003295302155'
S'Saruchi Kumari'
tp195
a(S'100002622943404'
S'Abhishek Shandilya'
tp196
a(S'100002725476762'
S'Mahesh Parihar'
tp197
a(S'100002670623952'
S'Anjali Pranjal'
tp198
a(S'100002006752344'
S'Aayush Raj Kashyap'
tp199
a(S'100002488917773'
S'Sandeep Agrawal'
tp200
a(S'100004221009508'
S'Rahul Raj'
tp201
a(S'100003275823801'
S'Shivdatt Pandey'
tp202
a(S'100003253036976'
S'Subham Singh'
tp203
a(S'100004161879802'
S'Saurabh Raj'
tp204
a(S'100005837405843'
S'Vishant Rayan'
tp205
a(S'100002993866548'
S'Komal Kumari'
tp206
a(S'100006457270022'
S'John Ghosh'
tp207
a(S'100001725549347'
S'Yogesh Mishra'
tp208
a(S'100002988523049'
S'Reena Patel'
tp209
a(S'100003039748481'
S'Rabail Qayyum'
tp210
a(S'100002788350104'
S'Prashant Kumar Shahi'
tp211
a(S'100003083198215'
S'Ranbir Cool'
tp212
a(S'100004176006580'
S'Aman Ranjan'
tp213
a(S'100003226562688'
S'Shubham Kumar'
tp214
a(S'100003181881063'
S'Naeem Momin'
tp215
a(S'100003703751895'
S'Aadiya Singh'
tp216
a(S'100003477978714'
S'R\\u00ee\\u015bh\\u00ee P\\u00e1\\u00f1ch\\u00e2\\u0142'
tp217
a(S'100001830323522'
S'Ajay Singh'
tp218
a(S'100004193080673'
S'Indra Kumar'
tp219
a(S'1039384844'
S'Afeef Ahmed'
tp220
a(S'100003612258044'
S'Suryakant Yadav'
tp221
a(S'100003025109320'
S'Eira Mehata'
tp222
a(S'100003111952415'
S'Manish Singh'
tp223
a(S'100002380594999'
S'Riya Singh'
tp224
a(S'100003211330622'
S'Deepa Kumari'
tp225
a(S'100003374356113'
S'Shivam Aggarwl'
tp226
a(S'100002822478342'
S'Rajat Sen'
tp227
a(S'100002940951997'
S'Shashank Shekhar'
tp228
a(S'100001758624533'
S'Pintu Kumar Yadav'
tp229
a(S'100003451670684'
S'Neha Sharma'
tp230
a(S'100003921865994'
S'Salman Khan'
tp231
a(S'100003133028154'
S'Dilip Ghogale'
tp232
a(S'100003934134336'
S'Swati Sinha'
tp233
a(S'100003318537874'
S'Uncensored Ranbir'
tp234
a(S'100002461686184'
S'M\\u00f8h\\u012b\\u021b \\u011e\\u00e8h\\u013a\\u0151t'
tp235
a(S'100002472192977'
S'Farhana Akter Nishi'
tp236
a(S'100003396205433'
S'Himanshu Kattyy'
tp237
asS'id'
p238
S'100002014534514'
p239
sS'name'
p240
S'Aayush Sinha'
p241
s.