(dp1
S'friends'
p2
(lp3
(S'100005760781318'
S'Ravi Hande'
tp4
a(S'100006778059821'
S'Atul Yadav'
tp5
a(S'100002572624854'
S'Sameer Shaikh'
tp6
a(S'100002762752459'
S'Sachin Khandve'
tp7
a(S'100008148450364'
S'Marcos Perez'
tp8
a(S'100007409225639'
S'Akash Kamble'
tp9
a(S'100006796116691'
S'Sujata Patil'
tp10
a(S'100006617402351'
S'\\u0917\\u094b\\u091f\\u094d\\u092f\\u093e \\u092d\\u093e\\u090a \\u0925\\u094b\\u0930\\u0935\\u0947 \\u092a\\u093e'
tp11
a(S'100006719521621'
S'\\u0938\\u0902\\u0915\\u0947\\u0924\\u092d\\u093e\\u090a \\u092d\\u094b\\u0902\\u0921\\u0935\\u0947'
tp12
a(S'100006912489525'
S'Yogesh Pawar'
tp13
a(S'100006273636904'
S'Nikhil Patel'
tp14
a(S'100005071604479'
S'Avinash Dada Devkar'
tp15
a(S'100005066652915'
S'Pravin Burde'
tp16
asS'id'
p17
S'100002762752459'
p18
sS'name'
p19
S'Sachin Khandve'
p20
s.