(dp1
S'friends'
p2
(lp3
(S'100003322736577'
S'S\\u00e3\\u00e7h\\u00ee\\u00f1 \\u00d0\\u00e4r\\u00ec\\u00f1g \\u00d0\\u00fbk\\u00e8s'
tp4
a(S'100007667311953'
S'Angel Mathurawala'
tp5
asS'id'
p6
S'100003322736577'
p7
sS'name'
p8
S'S\\u00e3\\u00e7h\\u00ee\\u00f1 \\u00d0\\u00e4r\\u00ec\\u00f1g \\u00d0\\u00fbk\\u00e8s'
p9
s.