(dp1
S'friends'
p2
(lp3
(S'649772176'
S'\\u0930\\u093e\\u0939\\u0941\\u0932 \\u0926\\u0947\\u0935'
tp4
a(S'100006218103172'
S'Seema Sharma'
tp5
a(S'100000606164639'
S'Devendra N Sharma'
tp6
asS'id'
p7
S'100000606164639'
p8
sS'name'
p9
S'Devendra N Sharma'
p10
s.