(dp1
S'name'
p2
S'Medisetti Tirumala Kumar'
p3
sS'current_class'
p4
S'india'
p5
sS'home_class'
p6
Vrajahmundry, andhra pradesh, india
p7
sS'home_text'
p8
VRajahmundry\u000aHometown
p9
sS'current_link'
p10
Vhttps://www.facebook.com/l.php?u=https%3A%2F%2Fwww.bing.com%2Fmaps%2Fdefault.aspx%3Fv%3D2%26pc%3DFACEBK%26mid%3D8100%26where1%3D12.983300614779%252C%2B77.582702636719%26name%3DBangalore%252C%2BIndia%26mkt%3Den-IN&h=MAQFBoRrd&s=1
p11
sS'home_link'
p12
Vhttps://www.facebook.com/l.php?u=https%3A%2F%2Fwww.bing.com%2Fmaps%2Fdefault.aspx%3Fv%3D2%26pc%3DFACEBK%26mid%3D8100%26where1%3D16.983301118071%252C%2B81.7822265625%26name%3DRajahmundry%26mkt%3Den-IN&h=3AQF2uSAv&s=1
p13
sS'current_text'
p14
VBangalore, India\u000aCurrent City
p15
sS'friends'
p16
(lp17
(S'1807790056'
S'Manoj Joshi'
tp18
a(S'588742124'
S'Princy Singla'
tp19
a(S'560492947'
S'Anoop Singh'
tp20
a(S'5744345'
S'Ravi Kiran'
tp21
a(S'1490490599'
S'Rahul Navin'
tp22
a(S'531783746'
S'Vimal Anand'
tp23
a(S'100000468823739'
S'BV Gopinath'
tp24
a(S'100005624472251'
S'Preeta Harit'
tp25
a(S'100003074843522'
S'Kolakaluri Enoch'
tp26
a(S'100000593772952'
S'Shyamsundar Keshkamat'
tp27
a(S'566448852'
S'Debjyoti Das'
tp28
a(S'538042931'
S'Abhishek Dev'
tp29
a(S'572793560'
S'Zakir Thomas'
tp30
a(S'1090457076'
S'Susie Varghese'
tp31
a(S'1496400927'
S'Shyam Benupani'
tp32
a(S'1818756885'
S'Karunakara Rao Dasari'
tp33
a(S'564780179'
S'Deepti Chandola'
tp34
a(S'1340746858'
S'Urvashi Saxena'
tp35
a(S'780843935'
S'Ashish Abrol'
tp36
a(S'1111564440'
S'Saurabh Deshpande'
tp37
a(S'100006807906721'
S'Madhu Panchadi'
tp38
a(S'601463147'
S'Amit Jain'
tp39
a(S'599547716'
S'Neha Thakur'
tp40
a(S'572009446'
S'Geetinder Mann'
tp41
a(S'1358205707'
S'Uma Venkatesan'
tp42
a(S'599540204'
S'Satish Meriga'
tp43
a(S'558104628'
S'Anil Anand'
tp44
a(S'555812484'
S'Sanjay Bahadur'
tp45
a(S'1577889574'
S'Ajay Pandey'
tp46
a(S'600197005'
S'Pradeep Singh Gautam'
tp47
a(S'538653987'
S'Sumit Kaur'
tp48
a(S'561958136'
S'Vikas Singh'
tp49
a(S'567708456'
S'Shishir Srivastava'
tp50
a(S'561431554'
S'Sudhanshu Dhar Mishra'
tp51
a(S'100001512615192'
S'Supraja Venkatesan'
tp52
a(S'100000405043117'
S'Kamal Yadav'
tp53
a(S'536020276'
S'Vishwas Munde'
tp54
a(S'613347122'
S'Vinay Kumar Singh'
tp55
a(S'1497690573'
S'Sanjeev Sharma'
tp56
a(S'100000134262963'
S'Sandeep Rathod'
tp57
a(S'594639254'
S'Yashwant Kumar'
tp58
a(S'573032079'
S'Shravan Gotru'
tp59
a(S'526063521'
S'Rohit Kumar'
tp60
a(S'1205814760'
S'Sanjiv Shankar'
tp61
a(S'100001369383460'
S'Sridhar Pidatala'
tp62
a(S'1268415419'
S'Sangeeta Singh'
tp63
a(S'619743429'
S'Shahnawaz Ul Rahman'
tp64
a(S'621279088'
S'Avikal Manu'
tp65
a(S'1052958592'
S'Adarsh Modi'
tp66
a(S'1508636113'
S'Sunita Billa'
tp67
a(S'509030016'
S'Karthik Manickam'
tp68
a(S'596321182'
S'Rupesh Agrawal'
tp69
a(S'1573886560'
S'Jhansi Lakshmi Ravala'
tp70
a(S'1587991248'
S'Virendra Ojha'
tp71
a(S'789468621'
S'Arun S Bhatnagar'
tp72
a(S'574502956'
S'Samir Tekriwal'
tp73
a(S'100000126657856'
S'Md Mohsin Alam'
tp74
a(S'565673289'
S'Rajni Rani Roy'
tp75
a(S'100001963035825'
S'Gm Doss'
tp76
a(S'1766557411'
S'Siva Sankar'
tp77
a(S'551783830'
S'Swapna Devireddy'
tp78
a(S'557919759'
S'Rakesh Bhaskar'
tp79
a(S'100000394166644'
S'Veerappalam Mahalingam'
tp80
a(S'100000091487098'
S'Prasada Murthy Bandaru'
tp81
a(S'100002523043072'
S'Rajanikant Gupta'
tp82
a(S'100002448528845'
S'Archana Choudhary'
tp83
a(S'598196215'
S'Satyasai Rath'
tp84
a(S'688072801'
S'Sameer Sharma'
tp85
a(S'525373777'
S'Sita Shrivastava'
tp86
a(S'1044549593'
S'Akunuru Sitarama Rao'
tp87
a(S'100000280374252'
S'Anand Upadhyay'
tp88
a(S'1427071599'
S'Ashok Bal'
tp89
a(S'678921450'
S'Mini Verma'
tp90
a(S'514932887'
S'Riddhi Dassani'
tp91
a(S'1415598660'
S'Sunil Ojha'
tp92
a(S'619897533'
S'Srinivas Khanna'
tp93
a(S'100002588226238'
S'Ishtiyaque Ahmed'
tp94
a(S'100001713910273'
S'Pallavi Akurathi Ias'
tp95
a(S'626625930'
S'Lakhavath Suresh'
tp96
a(S'544448003'
S'Ajay Mankotia'
tp97
asS'id'
p98
S'100001238804568'
p99
s.