(dp1
S'friends'
p2
(lp3
(S'100001659910826'
S'Shivani Arora'
tp4
a(S'100002493096271'
S'Vijay Kumar Paul'
tp5
a(S'100001031900365'
S'Shuchita Gulati'
tp6
a(S'100004234721567'
S'Shilpa Gupta'
tp7
a(S'1667882977'
S'Surabhi Bagai'
tp8
a(S'100002288912910'
S'Rashi Dass'
tp9
a(S'1165958006'
S'Chirag Grover'
tp10
a(S'100006262724211'
S'Lakshay Yadav'
tp11
a(S'686593640'
S'Sunny Anand'
tp12
a(S'100004502107465'
S'Barkha Kapoor'
tp13
a(S'100004898533153'
S'Payal Rawat'
tp14
a(S'100001531742856'
S'Kauser Jahan'
tp15
a(S'1118787024'
S'Aliya Imran Khan'
tp16
a(S'100002551292086'
S'Iqr\\u00e3 Amee\\u00f1'
tp17
a(S'100000911312328'
S'Fiza Sheikh'
tp18
a(S'100000456901298'
S'Piyush Arora'
tp19
a(S'100003116035086'
S'Manish Arora'
tp20
a(S'100005957141796'
S'Surabhi Kaur Sudan'
tp21
a(S'100003342776961'
S'Himanshi Jain'
tp22
a(S'100001405005642'
S'Kritika Sharma'
tp23
a(S'100002452371537'
S'Afsheen Mirza'
tp24
a(S'100004756270527'
S'Ekta Kapoor'
tp25
a(S'100005898672642'
S'Tayyaba Inam'
tp26
a(S'100003937903797'
S'Barkha Kapoor'
tp27
a(S'1363091849'
S'Amit Sharma'
tp28
a(S'1767892077'
S'Vikas Malhotra'
tp29
a(S'100000407926624'
S'Sana Baig'
tp30
a(S'100000827908490'
S'Zaara Khan'
tp31
a(S'100001328563733'
S'Kshitij Goel'
tp32
a(S'100008385185253'
S'Vivek Kataria'
tp33
a(S'100002451374751'
S'Divya Raina'
tp34
a(S'100001409316774'
S'Dolly Arora'
tp35
a(S'100004403617522'
S'Tanvi Nagpal'
tp36
a(S'100002945087577'
S'Fca Akash Maheshwari'
tp37
a(S'100003969945268'
S'Neha Sahni'
tp38
a(S'100002079087362'
S'Anju Nagpal'
tp39
a(S'1633689480'
S'Kumar Vikram'
tp40
a(S'100004101077421'
S'Garima Anand'
tp41
a(S'100002650558702'
S'Shilpi Arora'
tp42
a(S'100002554278662'
S'Himanshi Jain'
tp43
a(S'100000214869689'
S'Prayasha Jain'
tp44
a(S'100003916454814'
S'Himani Tyagi'
tp45
a(S'100001445037143'
S'R\\u00eeT\\u00eek\\u00e0 G\\u00faPt\\u00e0'
tp46
a(S'100006827978996'
S'Garima Khandelwal'
tp47
a(S'100005349674537'
S'Meenakshi Nijhawan'
tp48
a(S'100000555027736'
S'Aditi Verma'
tp49
a(S'100002670916631'
S'Divya Sehgal'
tp50
a(S'100008074056534'
S'Aanchal Kapoor'
tp51
a(S'100001204645941'
S'Sharad Singhal'
tp52
a(S'100000675960018'
S'Vishakha Wasan'
tp53
a(S'100003013528308'
S'Love Choudhary'
tp54
a(S'100000226258992'
S'Kapila Gautam'
tp55
a(S'100001991852243'
S'Priya Suri'
tp56
a(S'100001379774800'
S'Richa Agrawal'
tp57
a(S'100005968395937'
S'Neha Manocha'
tp58
a(S'100001095622411'
S'Krati Gupta'
tp59
a(S'100005133373796'
S'Veena Sawhney'
tp60
a(S'100002472077904'
S'Srishti Jain'
tp61
a(S'100002343073462'
S'Priyanka Nagpal'
tp62
a(S'100002386311326'
S'Shivani Raj Malhotra'
tp63
a(S'100001967711931'
S'Amit Gulati'
tp64
a(S'100002351259271'
S'Upasana Mehra'
tp65
a(S'100002567447993'
S'Barkha Kapoor'
tp66
a(S'100000475697407'
S'Anam Baig'
tp67
a(S'100002857427290'
S'Pooja Kakkar'
tp68
a(S'100005584811113'
S'Amit Nijhawan'
tp69
a(S'100004004090121'
S'Sylvia Lall'
tp70
a(S'100000005093144'
S'Suman Arora'
tp71
a(S'100001108294619'
S'Neha Manocha'
tp72
a(S'100002685638508'
S'Nupur Saini'
tp73
a(S'100002742750083'
S'Aarpita Sharma'
tp74
a(S'100003175587544'
S'Muskan Khan'
tp75
a(S'100000122999020'
S'Aman Kapoor'
tp76
a(S'100002343311796'
S'Rahul Arora'
tp77
a(S'100002329837122'
S'Tayyaba Inam'
tp78
a(S'100001563498178'
S'Ravi Sahni'
tp79
a(S'100004946706065'
S'Virti Jain'
tp80
a(S'100004205772926'
S'Archana Arora'
tp81
a(S'100002528656858'
S'C\\u00fct\\u00ef\\u00eb Pw\\u00ee\\u00f1\\u00e7\\u00e8xx T\\u00ee\\u00ff\\u00e2'
tp82
a(S'100005001151238'
S'Harsh Malhotra'
tp83
a(S'100001624910628'
S'Heena Gandhi'
tp84
a(S'100001853565369'
S'PranJal Mathur'
tp85
a(S'100002202621213'
S'Akul Sharma'
tp86
a(S'100001936950757'
S'ArJun MalHotra'
tp87
a(S'100004572974646'
S'Chinky Arora'
tp88
a(S'100000968938579'
S'Prateek Gupta'
tp89
a(S'100001729167897'
S'Rohit Sehgal'
tp90
a(S'100002554018557'
S'Diya Reen'
tp91
a(S'100001024541349'
S'Mehak Maggo'
tp92
a(S'100001712342069'
S'Neeraj Sachdeva'
tp93
a(S'100001202027188'
S'Omprakash Yadav'
tp94
a(S'100001716156841'
S'Kirti Taneja'
tp95
a(S'100002918883843'
S'Rishu Dixit'
tp96
a(S'1340174250'
S'Prateek Agrawal'
tp97
a(S'100002190988806'
S'Meenu Kapoor'
tp98
a(S'100002153760330'
S'Kishan Arora'
tp99
a(S'1036115228'
S'Nitin Manocha'
tp100
a(S'661803673'
S'Puneet Gulati'
tp101
a(S'100001239121299'
S'Maanvi Wasan'
tp102
a(S'100002624448483'
S'Karan Malhotra'
tp103
a(S'100000979205995'
S'Pallavi Rastogi'
tp104
a(S'100003333722734'
S'Yogita Manocha'
tp105
a(S'100001487140562'
S'Maddy Sawhney'
tp106
a(S'100001720173041'
S'Poonam Tripathi'
tp107
a(S'100000443842682'
S'Shub Minocha'
tp108
a(S'100001959209097'
S'Khushboo Khurana'
tp109
a(S'100003013043265'
S'Angel Sood'
tp110
a(S'100003034604825'
S'Angel Mannat'
tp111
a(S'100003161307589'
S'Sneha Verma'
tp112
a(S'100003517517152'
S'Sanam Khan'
tp113
a(S'100000438290893'
S'Deepika Poddar'
tp114
a(S'100005822223933'
S'Disha Chauhan'
tp115
a(S'100001503654749'
S'Mannat Khan'
tp116
asS'id'
p117
S'100002324063528'
p118
sS'name'
p119
S'Sonia Malhotra'
p120
s.