(dp1
S'friends'
p2
(lp3
(S'778280230'
S'Uday Prakash'
tp4
a(S'1188116999'
S'Dilnawaz Pasha'
tp5
a(S'100006833262189'
S'DC Pandey'
tp6
a(S'100006235475203'
S'Rinku Chatterjee'
tp7
a(S'100001967758834'
S'Rishi Kumar'
tp8
a(S'1563919899'
S'Umesh Goswami'
tp9
a(S'1406127668'
S'\\u0938\\u0902\\u0924\\u094b\\u0937 \\u0924\\u094d\\u0930\\u093f\\u0935\\u0947\\u0926\\u0940'
tp10
a(S'100000962336931'
S'Adya Pandey'
tp11
a(S'1197337512'
S'Rajiv Bakshi'
tp12
a(S'100000270181351'
S'Subhash Chandra Kushwaha'
tp13
a(S'100004711770542'
S'Manika Mohini'
tp14
a(S'100001083156096'
S'Kumar Kuldip'
tp15
a(S'100005527272412'
S'Satish Pandey'
tp16
a(S'1327802261'
S'Bodhi Sattva'
tp17
a(S'100000431260470'
S'Jitendra Narayan'
tp18
a(S'100001768151664'
S'Jamal Ahmad Khan'
tp19
a(S'1317195326'
S'Khurshid Anwar'
tp20
a(S'100006458659434'
S'Iqra Khan'
tp21
a(S'750149478'
S'Shahnawaz Siddiqui'
tp22
a(S'100000747157724'
S'Sarita Singh'
tp23
a(S'754223620'
S'Shamshad Elahee Shams'
tp24
a(S'100000759931254'
S'Virender Bhatia'
tp25
a(S'605280522'
S'Tahir Ali'
tp26
a(S'100003963645873'
S'Prashant Kumar'
tp27
a(S'100006831248061'
S'Chandra Prakash Singh'
tp28
a(S'100002252487400'
S'Yashwant Singh'
tp29
a(S'100001372687046'
S'Sanjeev Chandan'
tp30
a(S'1215446531'
S'Zaigham Murtaza Baquari'
tp31
a(S'100001498141884'
S'Jai Prakash Tripathi'
tp32
a(S'100004995043103'
S'Mahrukh Jafar'
tp33
a(S'100005686151607'
S'Anup Ojha'
tp34
a(S'633507601'
S'Rakesh Kumar Singh'
tp35
a(S'1059065106'
S'Alok Ranjan'
tp36
a(S'100003368828112'
S'Shuchita Pandey'
tp37
a(S'100001938813342'
S'Parul Pandey'
tp38
a(S'100000617641775'
S'Kamna Tak'
tp39
a(S'1375022247'
S'Manisha Pandey'
tp40
a(S'1477055905'
S'\\u0926\\u093f\\u0928\\u0947\\u0936\\u0930\\u093e\\u092f \\u0926\\u094d\\u0935\\u093f\\u0935\\u0947\\u0926\\u0940'
tp41
a(S'100000513729451'
S'Sushila Puri'
tp42
a(S'100006184772682'
S'Arif Hussain'
tp43
a(S'100002062963314'
S'Ila Joshi'
tp44
a(S'100001435277997'
S'Geeta Tripathi'
tp45
a(S'1774579495'
S'Abdul H Khan'
tp46
a(S'1581129096'
S'Nitin Thakur'
tp47
a(S'100001158471400'
S'Anil Garg'
tp48
a(S'100003701827464'
S'Abhinav Mishra'
tp49
a(S'1018897621'
S'Kashif Husain'
tp50
a(S'100001419285764'
S'\\u092a\\u094d\\u0930\\u094b\\u092b.\\u0938\\u0930\\u094b\\u091c \\u092e\\u093f\\u0936\\u094d\\u0930'
tp51
a(S'1128868087'
S'Meher Wan'
tp52
a(S'100002898485265'
S'Rahul Pandey'
tp53
a(S'100002282413866'
S'Chanchal Bhu'
tp54
a(S'100001668408301'
S'Renu Prakash'
tp55
a(S'811897439'
S'Mohit Khan'
tp56
a(S'1063101698'
S'Nishrin Jafri Hussain'
tp57
a(S'100003256420396'
S'Rs Chaudhary'
tp58
a(S'100000107608498'
S'Shambhunath Shukla'
tp59
a(S'100001166629654'
S'Rafiq Qadri'
tp60
a(S'100005178846618'
S'Shireen Naaz'
tp61
a(S'100005949935356'
S'\\u0928\\u0930\\u0941\\u0915\\u093e \\u091c\\u093f\\u0924\\u0947\\u0902\\u0926\\u094d\\u0930'
tp62
a(S'782389774'
S'Ujjwal Bhattacharya'
tp63
a(S'100005552589428'
S'Azhar Khan'
tp64
a(S'1386067066'
S'Balendu Swami'
tp65
a(S'100002720804128'
S'Kamla Kumar'
tp66
a(S'100005281441284'
S'Syed Asim Rauf'
tp67
a(S'530166949'
S'Shashi Kant'
tp68
a(S'1470124456'
S'Narendra Tomar'
tp69
a(S'100000618892544'
S"Omprakash 'Naman'"
tp70
a(S'100000856010036'
S'Om Thanvi'
tp71
a(S'699506604'
S'Mayank Saxena'
tp72
a(S'100006700231439'
S'Ajit Upadhyay'
tp73
a(S'100002610630610'
S'Ajamil Vyas'
tp74
a(S'1245306653'
S'Satish Mishra'
tp75
a(S'100001481130782'
S'Kishor Agrawal'
tp76
a(S'100001592277190'
S'Alok Pandey'
tp77
a(S'1493364520'
S'Pragya Pande'
tp78
a(S'100002857404511'
S'Rakesh Srivastava'
tp79
a(S'1471856151'
S'Mohammad Anas'
tp80
a(S'100001941252398'
S'Ganesh Tiwari'
tp81
a(S'100001998223696'
S'Dhruv Gupt'
tp82
a(S'100000616197768'
S'Bhavna Mishra'
tp83
a(S'100006489579534'
S'Shailendra Pratap Singh'
tp84
a(S'908010724'
S'Ajit Harshe'
tp85
a(S'100001177687936'
S'Sampa Barua'
tp86
a(S'100001576011745'
S'Abdullah Aqueel Azmi'
tp87
a(S'1268558203'
S'Sanjiv Bhatt'
tp88
a(S'100002907319544'
S'Som Vikal'
tp89
a(S'100000339959047'
S'Ramji Tiwari'
tp90
a(S'100001357111073'
S'Mrityunjay Prabhakar'
tp91
a(S'100006614196013'
S'LibRehaan Malik'
tp92
a(S'100003008737492'
S'Anamika Pandey'
tp93
a(S'100001921728376'
S'Vinod Mishra'
tp94
a(S'613257658'
S'Asad Jafar'
tp95
a(S'100001319660769'
S'Asrar Khan'
tp96
a(S'100000931406864'
S'Rajendra Verma'
tp97
a(S'100001115956356'
S'Purnendu Purnendu'
tp98
a(S'100000604752971'
S'Siddharth Kalhans'
tp99
a(S'100002474634354'
S'Subodh Mittal'
tp100
a(S'100001552681492'
S'Devanshu Singh Gautam'
tp101
a(S'100000102558789'
S'Manish Kumar Pandey'
tp102
a(S'100002339890539'
S'Ashish Vidyarthi'
tp103
asS'id'
p104
S'100001487018719'
p105
sS'name'
p106
S'Chandramauli Pandey'
p107
s.