(dp1
S'friends'
p2
(lp3
(S'100002020239463'
p4
S'Nakul Singh'
tp5
a(S'100000752833275'
p6
S'Pankaj Bhati'
tp7
a(S'100001229327272'
p8
S'Gaurav Kumar Kushwaha'
tp9
a(S'100001213474651'
p10
S'Chetan Negi'
tp11
a(S'1125228965'
p12
S'Neeta Manwal'
tp13
a(S'100001154677415'
p14
S'Ankit Kadiyan'
tp15
a(S'1234326977'
p16
S'Bhupender Chaudhary'
tp17
a(S'100001388973780'
p18
S'Chandan Kumar'
tp19
a(S'100001639243365'
p20
S'Raju Munda'
tp21
a(S'100001628259262'
p22
S'Meenakshi Aggarwal'
tp23
a(S'100001399255043'
p24
S'Niteen Singh'
tp25
a(S'100005319489325'
p26
S'Mahendra Gawala'
tp27
a(S'100002499312077'
p28
S'Rajesh Kumar'
tp29
a(S'100001656127278'
p30
S'Sandeep Vashist'
tp31
a(g4
S'Nakul Singh'
tp32
a(g6
S'Pankaj Bhati'
tp33
a(S'703233957'
p34
S'Urvish Kumar'
tp35
a(g10
S'Chetan Negi'
tp36
a(g16
S'Bhupender Chaudhary'
tp37
a(g8
S'Gaurav Kumar Kushwaha'
tp38
a(g12
S'Neeta Manwal'
tp39
a(g14
S'Ankit Kadiyan'
tp40
a(g20
S'Raju Munda'
tp41
a(g22
S'Meenakshi Aggarwal'
tp42
a(g18
S'Chandan Kumar'
tp43
a(S'100000133148437'
S'Abhishek Malik'
tp44
a(g24
S'Niteen Singh'
tp45
a(g26
S'Mahendra Gawala'
tp46
a(g28
S'Rajesh Kumar'
tp47
a(g30
S'Sandeep Vashist'
tp48
a(g16
S'Bhupender Chaudhary'
tp49
a(g10
S'Chetan Negi'
tp50
a(S'1119268334'
S'Ritesh Kumar'
tp51
a(g34
S'Urvish Kumar'
tp52
a(g6
S'Pankaj Bhati'
tp53
a(g8
S'Gaurav Kumar Kushwaha'
tp54
a(g14
S'Ankit Kadiyan'
tp55
a(g4
S'Nakul Singh'
tp56
a(g20
S'Raju Munda'
tp57
a(g12
S'Neeta Manwal'
tp58
a(g22
S'Meenakshi Aggarwal'
tp59
a(g18
S'Chandan Kumar'
tp60
a(g24
S'Niteen Singh'
tp61
a(S'100001073177386'
p62
S'Rohit Pandey'
tp63
a(g26
S'Mahendra Gawala'
tp64
a(S'100000741568146'
p65
S'Abhishek Mishra'
tp66
a(S'1262895314'
p67
S'Ravi Ranjan'
tp68
a(g30
S'Sandeep Vashist'
tp69
a(S'100000767565211'
p70
S'Vishwajeet Singh'
tp71
a(S'100001067062204'
p72
S'Nav Een'
tp73
a(g34
S'Urvish Kumar'
tp74
a(S'1631469760'
p75
S'Jyoti Bishnoi'
tp76
a(S'100002972483722'
p77
S'Rakesh Trivedi'
tp78
a(S'100000891731033'
p79
S'Shahnawaz Khan'
tp80
a(S'100001494413139'
p81
S'Arun Tahlan'
tp82
a(S'100002482648666'
p83
S'Pranav Deep'
tp84
a(S'100001535377300'
p85
S'Chandralekha Jha'
tp86
a(S'100000566425699'
p87
S'Keshi Chander Yadav'
tp88
a(S'100006483507390'
p89
S'Shiwani Dogra'
tp90
a(S'100004312143072'
p91
S'Ravinder Jangra'
tp92
a(g62
S'Rohit Pandey'
tp93
a(S'100002979372219'
p94
S'Komal Gupta Sikri'
tp95
a(S'100002016228309'
p96
S'Vikram Rajpurohit'
tp97
a(g67
S'Ravi Ranjan'
tp98
a(g65
S'Abhishek Mishra'
tp99
a(S'100001302759468'
p100
S'Rahul Singh Baghel'
tp101
a(g72
S'Nav Een'
tp102
a(g70
S'Vishwajeet Singh'
tp103
a(S'100003282527200'
p104
S'Sumit Yadav'
tp105
a(g75
S'Jyoti Bishnoi'
tp106
a(g89
S'Shiwani Dogra'
tp107
a(g77
S'Rakesh Trivedi'
tp108
a(g79
S'Shahnawaz Khan'
tp109
a(g85
S'Chandralekha Jha'
tp110
a(g81
S'Arun Tahlan'
tp111
a(g83
S'Pranav Deep'
tp112
a(g87
S'Keshi Chander Yadav'
tp113
a(g91
S'Ravinder Jangra'
tp114
a(g94
S'Komal Gupta Sikri'
tp115
a(g62
S'Rohit Pandey'
tp116
a(g96
S'Vikram Rajpurohit'
tp117
a(g65
S'Abhishek Mishra'
tp118
a(g67
S'Ravi Ranjan'
tp119
a(g100
S'Rahul Singh Baghel'
tp120
a(g72
S'Nav Een'
tp121
a(g70
S'Vishwajeet Singh'
tp122
a(g104
S'Sumit Yadav'
tp123
a(g89
S'Shiwani Dogra'
tp124
a(g75
S'Jyoti Bishnoi'
tp125
a(g85
S'Chandralekha Jha'
tp126
a(g77
S'Rakesh Trivedi'
tp127
a(g79
S'Shahnawaz Khan'
tp128
a(g87
S'Keshi Chander Yadav'
tp129
a(g81
S'Arun Tahlan'
tp130
a(g83
S'Pranav Deep'
tp131
a(g94
S'Komal Gupta Sikri'
tp132
a(S'100001105953134'
p133
S'Prateek Diler'
tp134
a(g96
S'Vikram Rajpurohit'
tp135
a(S'573838160'
p136
S'Jyoti Pandey'
tp137
a(S'1625799285'
p138
S'Ravindra Shekhawat'
tp139
a(g100
S'Rahul Singh Baghel'
tp140
a(S'100000371840656'
p141
S'Mithun Bhandare'
tp142
a(S'1828601644'
p143
S'Satbir Rohilla'
tp144
a(S'100002487896754'
p145
S'Ebungo Laishram'
tp146
a(g104
S'Sumit Yadav'
tp147
a(S'100005256252382'
p148
S'Vivek Joshi'
tp149
a(S'1236206610'
p150
S'Gurdeep Singh'
tp151
a(S'100001458481881'
p152
S'Satyavir Sinha'
tp153
a(S'1119246222'
p154
S'Lalit Makkar'
tp155
a(S'100001540792109'
p156
S'Inder Ied'
tp157
a(S'100000198889175'
p158
S'Kumar S Choudhary'
tp159
a(g133
S'Prateek Diler'
tp160
a(S'1267857910'
p161
S'Roy Arora'
tp162
a(S'100003293265078'
p163
S'Deepak Pandey'
tp164
a(g91
S'Ravinder Jangra'
tp165
a(S'100001638833813'
p166
S'Raju Munda'
tp167
a(g136
S'Jyoti Pandey'
tp168
a(g138
S'Ravindra Shekhawat'
tp169
a(g141
S'Mithun Bhandare'
tp170
a(g143
S'Satbir Rohilla'
tp171
a(g145
S'Ebungo Laishram'
tp172
a(g148
S'Vivek Joshi'
tp173
a(S'100002544168507'
p174
S'Deepika Malhotra'
tp175
a(g150
S'Gurdeep Singh'
tp176
a(g152
S'Satyavir Sinha'
tp177
a(g156
S'Inder Ied'
tp178
a(g154
S'Lalit Makkar'
tp179
a(g161
S'Roy Arora'
tp180
a(g158
S'Kumar S Choudhary'
tp181
a(g133
S'Prateek Diler'
tp182
a(g163
S'Deepak Pandey'
tp183
a(S'100000969852960'
p184
S'Tajveer Rawat'
tp185
a(g166
S'Raju Munda'
tp186
a(g136
S'Jyoti Pandey'
tp187
a(g138
S'Ravindra Shekhawat'
tp188
a(g141
S'Mithun Bhandare'
tp189
a(g143
S'Satbir Rohilla'
tp190
a(g145
S'Ebungo Laishram'
tp191
a(g148
S'Vivek Joshi'
tp192
a(g174
S'Deepika Malhotra'
tp193
a(g150
S'Gurdeep Singh'
tp194
a(g152
S'Satyavir Sinha'
tp195
a(g156
S'Inder Ied'
tp196
a(g154
S'Lalit Makkar'
tp197
a(g161
S'Roy Arora'
tp198
a(g158
S'Kumar S Choudhary'
tp199
a(S'100000465201828'
p200
S'Karni Singh Kumpawat'
tp201
a(g163
S'Deepak Pandey'
tp202
a(g184
S'Tajveer Rawat'
tp203
a(S'100001996159327'
p204
S'Vijay Tanwar'
tp205
a(g166
S'Raju Munda'
tp206
a(S'100000071951760'
p207
S'Ashish Mishra'
tp208
a(S'100001437210775'
p209
S'Deepak Sah'
tp210
a(S'100002496563908'
p211
S'Laxman Singh Kachhwaha'
tp212
a(S'1172744660'
p213
S'Himanshu Jha'
tp214
a(S'711284611'
p215
S'Kanishka Phulli'
tp216
a(g174
S'Deepika Malhotra'
tp217
a(S'100001640452331'
p218
S'Nikhil Bhargava'
tp219
a(S'1229322284'
p220
S'Bharat Singh'
tp221
a(S'100000695419774'
p222
S'Pravin Dhaniya'
tp223
a(S'1012487306'
p224
S'Rakesh Srivastava'
tp225
a(S'1841497558'
p226
S'Subrat Pothal'
tp227
a(S'100001014532758'
p228
S'Hitesh Gurditta'
tp229
a(g200
S'Karni Singh Kumpawat'
tp230
a(S'1023421729'
p231
S'Mahesh Kumar'
tp232
a(S'1204250501'
p233
S'Saanjh Kumari'
tp234
a(g184
S'Tajveer Rawat'
tp235
a(g204
S'Vijay Tanwar'
tp236
a(g207
S'Ashish Mishra'
tp237
a(g209
S'Deepak Sah'
tp238
a(S'100001076429132'
p239
S'Shiv Nandan Jacker'
tp240
a(g211
S'Laxman Singh Kachhwaha'
tp241
a(g213
S'Himanshu Jha'
tp242
a(g215
S'Kanishka Phulli'
tp243
a(S'100000974973760'
p244
S'Jitender Singh'
tp245
a(g218
S'Nikhil Bhargava'
tp246
a(g228
S'Hitesh Gurditta'
tp247
a(g200
S'Karni Singh Kumpawat'
tp248
a(g224
S'Rakesh Srivastava'
tp249
a(g220
S'Bharat Singh'
tp250
a(g226
S'Subrat Pothal'
tp251
a(g222
S'Pravin Dhaniya'
tp252
a(g231
S'Mahesh Kumar'
tp253
a(g233
S'Saanjh Kumari'
tp254
a(S'657347016'
p255
S'Gauravjeet Singh'
tp256
a(g207
S'Ashish Mishra'
tp257
a(g204
S'Vijay Tanwar'
tp258
a(g209
S'Deepak Sah'
tp259
a(g213
S'Himanshu Jha'
tp260
a(g211
S'Laxman Singh Kachhwaha'
tp261
a(g239
S'Shiv Nandan Jacker'
tp262
a(g215
S'Kanishka Phulli'
tp263
a(g218
S'Nikhil Bhargava'
tp264
a(g244
S'Jitender Singh'
tp265
a(g228
S'Hitesh Gurditta'
tp266
a(S'575473225'
p267
S'Abhik Ghosal'
tp268
a(g231
S'Mahesh Kumar'
tp269
a(g224
S'Rakesh Srivastava'
tp270
a(g220
S'Bharat Singh'
tp271
a(g226
S'Subrat Pothal'
tp272
a(g222
S'Pravin Dhaniya'
tp273
a(g233
S'Saanjh Kumari'
tp274
a(g255
S'Gauravjeet Singh'
tp275
a(S'1419701582'
p276
S'Pratiyush Kucheria'
tp277
a(S'1222515177'
p278
S'Sajan Choudhary'
tp279
a(S'100001985458940'
p280
S'Davis Deep'
tp281
a(S'1402422445'
p282
S'Hemant Prajapat'
tp283
a(g239
S'Shiv Nandan Jacker'
tp284
a(S'100001891856159'
p285
S'Sushil Deep'
tp286
a(S'100000383726281'
p287
S'Bhanu Pratap Singh Rathore'
tp288
a(g244
S'Jitender Singh'
tp289
a(S'100001313600639'
p290
S'Arpit Maheshwari'
tp291
a(g267
S'Abhik Ghosal'
tp292
a(S'100001270941659'
p293
S'Pankaj Kumar'
tp294
a(S'100003141889232'
p295
S'Om Prakash'
tp296
a(S'100000969638323'
p297
S'Puneet Singh'
tp298
a(S'100003132489435'
p299
S'Manoj Kumar Dargan'
tp300
a(S'100001504651958'
p301
S'Deepak Sharma'
tp302
a(S'100000975924582'
p303
S'Ravind Maurya'
tp304
a(g255
S'Gauravjeet Singh'
tp305
a(S'100000676688810'
p306
S'Chandan Singh'
tp307
a(g276
S'Pratiyush Kucheria'
tp308
a(g278
S'Sajan Choudhary'
tp309
a(g280
S'Davis Deep'
tp310
a(g282
S'Hemant Prajapat'
tp311
a(g285
S'Sushil Deep'
tp312
a(g287
S'Bhanu Pratap Singh Rathore'
tp313
a(S'100001610038505'
p314
S'Manohar Singh Sodha Mss'
tp315
a(g290
S'Arpit Maheshwari'
tp316
a(S'100005120384421'
p317
S'Ashish Mishra'
tp318
a(g267
S'Abhik Ghosal'
tp319
a(g293
S'Pankaj Kumar'
tp320
a(g295
S'Om Prakash'
tp321
a(g297
S'Puneet Singh'
tp322
a(g303
S'Ravind Maurya'
tp323
a(S'100000635052838'
p324
S'Deca Sheoran'
tp325
a(g276
S'Pratiyush Kucheria'
tp326
a(g306
S'Chandan Singh'
tp327
a(g301
S'Deepak Sharma'
tp328
a(g299
S'Manoj Kumar Dargan'
tp329
a(g278
S'Sajan Choudhary'
tp330
a(g280
S'Davis Deep'
tp331
a(g282
S'Hemant Prajapat'
tp332
a(g285
S'Sushil Deep'
tp333
a(g314
S'Manohar Singh Sodha Mss'
tp334
a(g287
S'Bhanu Pratap Singh Rathore'
tp335
a(S'100000741795631'
p336
S'Anjali Singh'
tp337
a(g317
S'Ashish Mishra'
tp338
a(g290
S'Arpit Maheshwari'
tp339
a(g295
S'Om Prakash'
tp340
a(g293
S'Pankaj Kumar'
tp341
a(g297
S'Puneet Singh'
tp342
a(g303
S'Ravind Maurya'
tp343
a(S'651916946'
p344
S'Setu Dutta'
tp345
a(g299
S'Manoj Kumar Dargan'
tp346
a(g324
S'Deca Sheoran'
tp347
a(g306
S'Chandan Singh'
tp348
a(g301
S'Deepak Sharma'
tp349
a(S'100000178032705'
p350
S'Rahul Sehgal'
tp351
a(S'100000815316542'
p352
S'Manish Singh'
tp353
a(S'100003817314572'
p354
S'Ujjwal Kr Sharma'
tp355
a(S'100003448913053'
p356
S'Tribhuvan Bahuguna'
tp357
a(S'646191059'
p358
S'Vijay Kumar Choudhary'
tp359
a(g314
S'Manohar Singh Sodha Mss'
tp360
a(g336
S'Anjali Singh'
tp361
a(g317
S'Ashish Mishra'
tp362
a(S'100001553889196'
p363
S'S Jackison Singh'
tp364
a(S'100002199082406'
p365
S'Sachin Chaudhary'
tp366
a(S'100001772271673'
p367
S'Vikram Pratap Singh Rajpurohit'
tp368
a(g344
S'Setu Dutta'
tp369
a(S'100000037923041'
p370
S'Georgian Balhara'
tp371
a(S'100000594417560'
p372
S'Akshay Aggarwal'
tp373
a(S'100000485694826'
p374
S'Mansi Bhardwaj'
tp375
a(g324
S'Deca Sheoran'
tp376
a(g352
S'Manish Singh'
tp377
a(g354
S'Ujjwal Kr Sharma'
tp378
a(S'1033989586'
p379
S'Sonu Pathak'
tp380
a(S'100000881244302'
p381
S'Himanshu Kukreja'
tp382
a(g350
S'Rahul Sehgal'
tp383
a(g356
S'Tribhuvan Bahuguna'
tp384
a(g358
S'Vijay Kumar Choudhary'
tp385
a(S'1793664349'
p386
S'Kumar Rakesh'
tp387
a(g336
S'Anjali Singh'
tp388
a(g363
S'S Jackison Singh'
tp389
a(g365
S'Sachin Chaudhary'
tp390
a(S'100001825022907'
p391
S'Jitendra Singh'
tp392
a(g367
S'Vikram Pratap Singh Rajpurohit'
tp393
a(g344
S'Setu Dutta'
tp394
a(g372
S'Akshay Aggarwal'
tp395
a(g370
S'Georgian Balhara'
tp396
a(g354
S'Ujjwal Kr Sharma'
tp397
a(g352
S'Manish Singh'
tp398
a(S'100000421112308'
p399
S'Nitin Singh Sisodia'
tp400
a(g374
S'Mansi Bhardwaj'
tp401
a(g379
S'Sonu Pathak'
tp402
a(g381
S'Himanshu Kukreja'
tp403
a(g356
S'Tribhuvan Bahuguna'
tp404
a(g358
S'Vijay Kumar Choudhary'
tp405
a(g350
S'Rahul Sehgal'
tp406
a(g363
S'S Jackison Singh'
tp407
a(S'100001574710476'
p408
S'Manish Kaalwa'
tp409
a(g365
S'Sachin Chaudhary'
tp410
a(g386
S'Kumar Rakesh'
tp411
a(g391
S'Jitendra Singh'
tp412
a(S'100001526550837'
p413
S'Amit Kacran'
tp414
a(g367
S'Vikram Pratap Singh Rajpurohit'
tp415
a(g372
S'Akshay Aggarwal'
tp416
a(g370
S'Georgian Balhara'
tp417
a(S'100000961048385'
p418
S'Rashmi Shrivastava'
tp419
a(S'1627028945'
p420
S'Rahul Tailor'
tp421
a(g399
S'Nitin Singh Sisodia'
tp422
a(g374
S'Mansi Bhardwaj'
tp423
a(g379
S'Sonu Pathak'
tp424
a(g381
S'Himanshu Kukreja'
tp425
a(S'695377710'
p426
S'Saugata Misra'
tp427
a(S'100000363267266'
p428
S'Manoj Kumar Dargan'
tp429
a(g408
S'Manish Kaalwa'
tp430
a(S'100001718994460'
p431
S'K Ramesh Rao'
tp432
a(S'100001677976533'
p433
S'Mohammed Savej Saifi'
tp434
a(g391
S'Jitendra Singh'
tp435
a(S'100001943021730'
p436
S'Jagdish Chand'
tp437
a(g386
S'Kumar Rakesh'
tp438
a(g413
S'Amit Kacran'
tp439
a(S'100006172958891'
p440
S'Lalit Mohan Rawat'
tp441
a(S'100001665220272'
p442
S'Manoj Chahal'
tp443
a(g418
S'Rashmi Shrivastava'
tp444
a(S'100002766901593'
p445
S'Dpka Malhotra'
tp446
a(g399
S'Nitin Singh Sisodia'
tp447
a(g420
S'Rahul Tailor'
tp448
a(S'100001704627445'
p449
S'Ram Sharma'
tp450
a(S'100002498518264'
p451
S'Shweta Gupta'
tp452
a(S'100006855643390'
p453
S'Rahul Rajput'
tp454
a(g426
S'Saugata Misra'
tp455
a(g408
S'Manish Kaalwa'
tp456
a(g431
S'K Ramesh Rao'
tp457
a(g428
S'Manoj Kumar Dargan'
tp458
a(g433
S'Mohammed Savej Saifi'
tp459
a(g436
S'Jagdish Chand'
tp460
a(g413
S'Amit Kacran'
tp461
a(g440
S'Lalit Mohan Rawat'
tp462
a(S'100003339667945'
p463
S'Khushahal Rajput'
tp464
a(S'1075840697'
p465
S'Archana Singh'
tp466
a(g418
S'Rashmi Shrivastava'
tp467
a(g442
S'Manoj Chahal'
tp468
a(g445
S'Dpka Malhotra'
tp469
a(S'100000141298810'
p470
S'Pradeep Kumar'
tp471
a(g420
S'Rahul Tailor'
tp472
a(g449
S'Ram Sharma'
tp473
a(g451
S'Shweta Gupta'
tp474
a(g431
S'K Ramesh Rao'
tp475
a(g453
S'Rahul Rajput'
tp476
a(S'100002138923679'
p477
S'Umang Sharma'
tp478
a(g426
S'Saugata Misra'
tp479
a(g428
S'Manoj Kumar Dargan'
tp480
a(g433
S'Mohammed Savej Saifi'
tp481
a(g436
S'Jagdish Chand'
tp482
a(S'100000851360181'
p483
S'Sunil Kumar'
tp484
a(g463
S'Khushahal Rajput'
tp485
a(g440
S'Lalit Mohan Rawat'
tp486
a(g465
S'Archana Singh'
tp487
a(S'100005791751761'
p488
S'Ashish Kumar Mishra'
tp489
a(S'100002479271012'
p490
S'Aakriti Rawat'
tp491
a(g470
S'Pradeep Kumar'
tp492
a(g442
S'Manoj Chahal'
tp493
a(g445
S'Dpka Malhotra'
tp494
a(g451
S'Shweta Gupta'
tp495
a(g449
S'Ram Sharma'
tp496
a(S'100004261773389'
p497
S'Ritesh Sarkar'
tp498
a(g477
S'Umang Sharma'
tp499
a(S'780748910'
p500
S'Bharat Suri'
tp501
a(S'100006171601200'
p502
S'Dharti KE Booj'
tp503
a(g453
S'Rahul Rajput'
tp504
a(S'100001775480407'
p505
S'Nasrudin Ali'
tp506
a(S'100001965162692'
p507
S'Rahul Shukla'
tp508
a(g483
S'Sunil Kumar'
tp509
a(g463
S'Khushahal Rajput'
tp510
a(S'100001063897717'
p511
S'Trilok Singh'
tp512
a(g488
S'Ashish Kumar Mishra'
tp513
a(g490
S'Aakriti Rawat'
tp514
a(g465
S'Archana Singh'
tp515
a(g470
S'Pradeep Kumar'
tp516
a(S'100002867228869'
p517
S'Naveen Kachhawaha'
tp518
a(S'1579754563'
p519
S'Dinesh Acharya'
tp520
a(S'1754837927'
p521
S'Vishnu Saikia'
tp522
a(g477
S'Umang Sharma'
tp523
a(g497
S'Ritesh Sarkar'
tp524
a(S'100002568637618'
p525
S'Jitendra Kumar Meena'
tp526
a(g500
S'Bharat Suri'
tp527
a(g507
S'Rahul Shukla'
tp528
a(g502
S'Dharti KE Booj'
tp529
a(S'1421370101'
p530
S'Vishwajeet Singh'
tp531
a(g505
S'Nasrudin Ali'
tp532
a(g483
S'Sunil Kumar'
tp533
a(g511
S'Trilok Singh'
tp534
a(S'100000775893344'
p535
S'Hari Om Aggarwal'
tp536
a(g488
S'Ashish Kumar Mishra'
tp537
a(g490
S'Aakriti Rawat'
tp538
a(S'1679905438'
p539
S'Shubham Sharma'
tp540
a(g517
S'Naveen Kachhawaha'
tp541
a(S'100001326177406'
p542
S'Sapna Paliwal'
tp543
a(g519
S'Dinesh Acharya'
tp544
a(g497
S'Ritesh Sarkar'
tp545
a(S'100002967336205'
p546
S'Urvish Kumar'
tp547
a(g521
S'Vishnu Saikia'
tp548
a(g500
S'Bharat Suri'
tp549
a(g525
S'Jitendra Kumar Meena'
tp550
a(g507
S'Rahul Shukla'
tp551
a(g505
S'Nasrudin Ali'
tp552
a(g502
S'Dharti KE Booj'
tp553
a(S'100002230634895'
p554
S'Bijendra Singh'
tp555
a(g530
S'Vishwajeet Singh'
tp556
a(g511
S'Trilok Singh'
tp557
a(g535
S'Hari Om Aggarwal'
tp558
a(S'100001004484894'
p559
S'Rajeev Asra'
tp560
a(g539
S'Shubham Sharma'
tp561
a(g517
S'Naveen Kachhawaha'
tp562
a(g519
S'Dinesh Acharya'
tp563
a(g546
S'Urvish Kumar'
tp564
a(g542
S'Sapna Paliwal'
tp565
a(S'100001513411735'
p566
S'Sonam Singh'
tp567
a(g521
S'Vishnu Saikia'
tp568
a(S'100002121068784'
p569
S'Mukesh Saran'
tp570
a(g525
S'Jitendra Kumar Meena'
tp571
a(g554
S'Bijendra Singh'
tp572
a(S'100001573249195'
p573
S'Dheeraj Sharma'
tp574
a(S'845959473'
p575
S'Amit Prasad'
tp576
a(g530
S'Vishwajeet Singh'
tp577
a(S'100001524351657'
p578
S'Anurag Jain'
tp579
a(g559
S'Rajeev Asra'
tp580
a(g539
S'Shubham Sharma'
tp581
a(g535
S'Hari Om Aggarwal'
tp582
a(g546
S'Urvish Kumar'
tp583
a(S'100002390872603'
p584
S'Vijay Rawat'
tp585
a(S'100000891288592'
p586
S'Joy Bhuyan'
tp587
a(g566
S'Sonam Singh'
tp588
a(S'100001499475804'
p589
S'Mohit Gupta'
tp590
a(g542
S'Sapna Paliwal'
tp591
a(S'100001211459194'
p592
S'Pranav Kumar'
tp593
a(g569
S'Mukesh Saran'
tp594
a(S'100001251815716'
p595
S'Arvind Sharma'
tp596
a(g554
S'Bijendra Singh'
tp597
a(g573
S'Dheeraj Sharma'
tp598
a(g575
S'Amit Prasad'
tp599
a(S'1428214172'
p600
S'Rizwan Khilji'
tp601
a(g559
S'Rajeev Asra'
tp602
a(g578
S'Anurag Jain'
tp603
a(S'100001495097552'
p604
S'Nancy Chauhan'
tp605
a(S'100002779217355'
p606
S'Shikha Sinha'
tp607
a(S'100001499310287'
p608
S'Suryakant Trivedi'
tp609
a(g584
S'Vijay Rawat'
tp610
a(g586
S'Joy Bhuyan'
tp611
a(g566
S'Sonam Singh'
tp612
a(g589
S'Mohit Gupta'
tp613
a(g569
S'Mukesh Saran'
tp614
a(g592
S'Pranav Kumar'
tp615
a(S'100000941769972'
p616
S'Khushahal Rajput'
tp617
a(g573
S'Dheeraj Sharma'
tp618
a(g595
S'Arvind Sharma'
tp619
a(S'100000673371734'
p620
S'Kawaljeet Singh'
tp621
a(S'100000551266200'
p622
S'Tribhuvan Bahuguna'
tp623
a(g578
S'Anurag Jain'
tp624
a(g600
S'Rizwan Khilji'
tp625
a(g604
S'Nancy Chauhan'
tp626
a(S'100001634270547'
p627
S'Atul Singh'
tp628
a(g608
S'Suryakant Trivedi'
tp629
a(g584
S'Vijay Rawat'
tp630
a(g586
S'Joy Bhuyan'
tp631
a(S'100000643335509'
p632
S'Jasmeet Narula'
tp633
a(g589
S'Mohit Gupta'
tp634
a(S'1229570169'
p635
S'Amit Kumar Tripathi'
tp636
a(g592
S'Pranav Kumar'
tp637
a(g616
S'Khushahal Rajput'
tp638
a(g595
S'Arvind Sharma'
tp639
a(g620
S'Kawaljeet Singh'
tp640
a(S'100002423929441'
p641
S'Sajjan Singh'
tp642
a(g575
S'Amit Prasad'
tp643
a(g622
S'Tribhuvan Bahuguna'
tp644
a(S'100001882197973'
p645
S'Atul Pal'
tp646
a(g604
S'Nancy Chauhan'
tp647
a(g600
S'Rizwan Khilji'
tp648
a(g627
S'Atul Singh'
tp649
a(g608
S'Suryakant Trivedi'
tp650
a(S'1119813251'
p651
S'Amit Verma'
tp652
a(S'100000149542420'
p653
S'Kirti Basnal'
tp654
a(g632
S'Jasmeet Narula'
tp655
a(S'100003920093333'
p656
S'Jagdish Rajput'
tp657
a(g635
S'Amit Kumar Tripathi'
tp658
a(S'1831142501'
p659
S'Sahil Chopra'
tp660
a(g616
S'Khushahal Rajput'
tp661
a(g620
S'Kawaljeet Singh'
tp662
a(g641
S'Sajjan Singh'
tp663
a(S'1190341666'
p664
S'Arun Krishnan'
tp665
a(S'100001790935541'
p666
S'Snigdha Guha'
tp667
a(g622
S'Tribhuvan Bahuguna'
tp668
a(S'100000686722232'
p669
S'Avneesh Kumar'
tp670
a(S'100000721890143'
p671
S'Vaibhav Jain'
tp672
a(g645
S'Atul Pal'
tp673
a(g627
S'Atul Singh'
tp674
a(S'100002833564672'
p675
S'Soumya Roy'
tp676
a(g651
S'Amit Verma'
tp677
a(g653
S'Kirti Basnal'
tp678
a(g632
S'Jasmeet Narula'
tp679
a(g656
S'Jagdish Rajput'
tp680
a(g635
S'Amit Kumar Tripathi'
tp681
a(g659
S'Sahil Chopra'
tp682
a(S'100000092512493'
p683
S'Bharat Arora'
tp684
a(S'100000956602137'
p685
S'Deepak Sah'
tp686
a(g641
S'Sajjan Singh'
tp687
a(g664
S'Arun Krishnan'
tp688
a(g666
S'Snigdha Guha'
tp689
a(S'100002003032425'
p690
S'Saurabh Parashar'
tp691
a(g669
S'Avneesh Kumar'
tp692
a(S'100006480422199'
p693
S'\\u0154\\u0101H\\u00fcl Sh\\u00e5rm\\u00e5'
tp694
a(g645
S'Atul Pal'
tp695
a(g671
S'Vaibhav Jain'
tp696
a(g675
S'Soumya Roy'
tp697
a(g653
S'Kirti Basnal'
tp698
a(S'1662786623'
p699
S'Amit Dalal'
tp700
a(g656
S'Jagdish Rajput'
tp701
a(S'100003255261973'
p702
S'Sunil Yadav'
tp703
a(g651
S'Amit Verma'
tp704
a(g659
S'Sahil Chopra'
tp705
a(g683
S'Bharat Arora'
tp706
a(g685
S'Deepak Sah'
tp707
a(S'100000694399837'
p708
S'Sanjay Gautam'
tp709
a(g666
S'Snigdha Guha'
tp710
a(g690
S'Saurabh Parashar'
tp711
a(g669
S'Avneesh Kumar'
tp712
a(g693
S'\\u0154\\u0101H\\u00fcl Sh\\u00e5rm\\u00e5'
tp713
a(S'100001464964534'
p714
S'Amit Jha'
tp715
a(g675
S'Soumya Roy'
tp716
a(g671
S'Vaibhav Jain'
tp717
a(S'100002128735594'
p718
S'Sandeep Rawat'
tp719
a(g699
S'Amit Dalal'
tp720
a(S'100002970271561'
p721
S'Kanaga Lingam'
tp722
a(g702
S'Sunil Yadav'
tp723
a(S'100001467817944'
p724
S'Vyanktesh Mishra'
tp725
a(S'100000777092462'
p726
S'Abu Ishak Khan'
tp727
a(g683
S'Bharat Arora'
tp728
a(g685
S'Deepak Sah'
tp729
a(g708
S'Sanjay Gautam'
tp730
a(S'100007154894455'
p731
S'Ayush Kumar'
tp732
a(g690
S'Saurabh Parashar'
tp733
a(S'100000718229141'
p734
S'Mukesh Kumar Singh'
tp735
a(g693
S'\\u0154\\u0101H\\u00fcl Sh\\u00e5rm\\u00e5'
tp736
a(g664
S'Arun Krishnan'
tp737
a(g714
S'Amit Jha'
tp738
a(S'100000249442767'
p739
S'Hemant Tomar'
tp740
a(S'1105406633'
p741
S'Vinay Franklin Chauhan'
tp742
a(g718
S'Sandeep Rawat'
tp743
a(g699
S'Amit Dalal'
tp744
a(g721
S'Kanaga Lingam'
tp745
a(g702
S'Sunil Yadav'
tp746
a(g724
S'Vyanktesh Mishra'
tp747
a(g726
S'Abu Ishak Khan'
tp748
a(S'1245715841'
p749
S'Dinesh Chouhan'
tp750
a(g708
S'Sanjay Gautam'
tp751
a(S'100000507652361'
p752
S'Pavan Paswan'
tp753
a(g731
S'Ayush Kumar'
tp754
a(S'100001447118016'
p755
S'Tripti Arya'
tp756
a(g734
S'Mukesh Kumar Singh'
tp757
a(S'100001332813894'
p758
S'Mayank Sharma'
tp759
a(S'100001596056123'
p760
S'Yogesh Rawat'
tp761
a(g714
S'Amit Jha'
tp762
a(g739
S'Hemant Tomar'
tp763
a(g718
S'Sandeep Rawat'
tp764
a(S'100000865936765'
p765
S'Antariksh Verma'
tp766
a(g721
S'Kanaga Lingam'
tp767
a(g741
S'Vinay Franklin Chauhan'
tp768
a(S'100002947692655'
p769
S'Prateek Jaiswal'
tp770
a(g724
S'Vyanktesh Mishra'
tp771
a(g726
S'Abu Ishak Khan'
tp772
a(g749
S'Dinesh Chouhan'
tp773
a(S'100003671501073'
p774
S'Sandeep Kumar'
tp775
a(g752
S'Pavan Paswan'
tp776
a(g731
S'Ayush Kumar'
tp777
a(g755
S'Tripti Arya'
tp778
a(g734
S'Mukesh Kumar Singh'
tp779
a(g758
S'Mayank Sharma'
tp780
a(g760
S'Yogesh Rawat'
tp781
a(S'100000350594429'
p782
S'Surendra Maurya'
tp783
a(g739
S'Hemant Tomar'
tp784
a(S'100001025822464'
p785
S'Gulbir Singh Tomar'
tp786
a(S'100000564939281'
p787
S'Ankush Wahi'
tp788
a(g765
S'Antariksh Verma'
tp789
a(g741
S'Vinay Franklin Chauhan'
tp790
a(S'100000843526077'
p791
S'Ajit Sharma'
tp792
a(g769
S'Prateek Jaiswal'
tp793
a(S'100002648430739'
p794
S'Naveen Gehlot'
tp795
a(g749
S'Dinesh Chouhan'
tp796
a(g774
S'Sandeep Kumar'
tp797
a(g752
S'Pavan Paswan'
tp798
a(S'100002558327551'
p799
S'Lata Sati'
tp800
a(g755
S'Tripti Arya'
tp801
a(S'100001029395003'
p802
S'Ajay Yadav'
tp803
a(g760
S'Yogesh Rawat'
tp804
a(g782
S'Surendra Maurya'
tp805
a(S'100007647400670'
p806
S'Omhari Yadav'
tp807
a(g758
S'Mayank Sharma'
tp808
a(g785
S'Gulbir Singh Tomar'
tp809
a(g787
S'Ankush Wahi'
tp810
a(g765
S'Antariksh Verma'
tp811
a(S'100000088760115'
p812
S'Nitin Sharma'
tp813
a(g769
S'Prateek Jaiswal'
tp814
a(g791
S'Ajit Sharma'
tp815
a(g794
S'Naveen Gehlot'
tp816
a(S'100003731028537'
p817
S'Rajan Dhariwal'
tp818
a(g774
S'Sandeep Kumar'
tp819
a(g606
S'Shikha Sinha'
tp820
a(S'100000680754420'
p821
S'Ranu Prakash Ranjan'
tp822
a(g799
S'Lata Sati'
tp823
a(S'100001007550712'
p824
S'Dipender Thapa'
tp825
a(g802
S'Ajay Yadav'
tp826
a(S'100001345355108'
p827
S'Deepak Pandey'
tp828
a(g806
S'Omhari Yadav'
tp829
a(S'100003807728674'
p830
S'Deepak Saroha'
tp831
a(g782
S'Surendra Maurya'
tp832
a(g787
S'Ankush Wahi'
tp833
a(g785
S'Gulbir Singh Tomar'
tp834
a(S'1736224043'
p835
S'Bikas Kumar'
tp836
a(g812
S'Nitin Sharma'
tp837
a(S'100000368481050'
p838
S'Parag Raikwar'
tp839
a(g817
S'Rajan Dhariwal'
tp840
a(S'100002927586420'
p841
S'Omhari Yadav'
tp842
a(g791
S'Ajit Sharma'
tp843
a(g794
S'Naveen Gehlot'
tp844
a(g606
S'Shikha Sinha'
tp845
a(g821
S'Ranu Prakash Ranjan'
tp846
a(g824
S'Dipender Thapa'
tp847
a(g799
S'Lata Sati'
tp848
a(g802
S'Ajay Yadav'
tp849
a(g827
S'Deepak Pandey'
tp850
a(g806
S'Omhari Yadav'
tp851
a(g830
S'Deepak Saroha'
tp852
a(S'100000612280768'
p853
S'Neeraj Bhatnagar'
tp854
a(S'100000320836260'
p855
S'Dhiraj Pathak'
tp856
a(S'1312231802'
p857
S'Munish Chaudhary'
tp858
a(g835
S'Bikas Kumar'
tp859
a(g838
S'Parag Raikwar'
tp860
a(g817
S'Rajan Dhariwal'
tp861
a(g812
S'Nitin Sharma'
tp862
a(g841
S'Omhari Yadav'
tp863
a(S'100001069772025'
p864
S'Preeti Rana'
tp865
a(S'100002253845274'
p866
S'Anurag Gupta'
tp867
a(g821
S'Ranu Prakash Ranjan'
tp868
a(g824
S'Dipender Thapa'
tp869
a(S'100001464711909'
p870
S'Manoj Singh Butola'
tp871
a(S'100000979926919'
p872
S'Kkoushal Negi'
tp873
a(S'100001714908143'
p874
S'Akhilesh Yadav'
tp875
a(g827
S'Deepak Pandey'
tp876
a(S'100000314862230'
p877
S'Vishwajeet Singh'
tp878
a(g830
S'Deepak Saroha'
tp879
a(g855
S'Dhiraj Pathak'
tp880
a(g853
S'Neeraj Bhatnagar'
tp881
a(g838
S'Parag Raikwar'
tp882
a(S'100001439258364'
p883
S'Prerna Sharma'
tp884
a(g857
S'Munish Chaudhary'
tp885
a(S'100002429104835'
p886
S'Rakesh Trivedi'
tp887
a(g841
S'Omhari Yadav'
tp888
a(g864
S'Preeti Rana'
tp889
a(g866
S'Anurag Gupta'
tp890
a(S'100001351150445'
p891
S'Vivek Singh'
tp892
a(S'100003056396890'
p893
S'Rohit Dixit'
tp894
a(g870
S'Manoj Singh Butola'
tp895
a(g872
S'Kkoushal Negi'
tp896
a(g874
S'Akhilesh Yadav'
tp897
a(g877
S'Vishwajeet Singh'
tp898
a(S'100000417242745'
p899
S'Purushotam Baheti'
tp900
a(S'100002500167522'
p901
S'Praveen Choudhary Jat'
tp902
a(g855
S'Dhiraj Pathak'
tp903
a(g853
S'Neeraj Bhatnagar'
tp904
a(g883
S'Prerna Sharma'
tp905
a(g857
S'Munish Chaudhary'
tp906
a(g886
S'Rakesh Trivedi'
tp907
a(g866
S'Anurag Gupta'
tp908
a(g864
S'Preeti Rana'
tp909
a(g893
S'Rohit Dixit'
tp910
a(g891
S'Vivek Singh'
tp911
a(g870
S'Manoj Singh Butola'
tp912
a(g835
S'Bikas Kumar'
tp913
a(g874
S'Akhilesh Yadav'
tp914
a(g872
S'Kkoushal Negi'
tp915
a(g877
S'Vishwajeet Singh'
tp916
a(g899
S'Purushotam Baheti'
tp917
a(g901
S'Praveen Choudhary Jat'
tp918
a(g883
S'Prerna Sharma'
tp919
a(g886
S'Rakesh Trivedi'
tp920
a(g893
S'Rohit Dixit'
tp921
a(g891
S'Vivek Singh'
tp922
a(g901
S'Praveen Choudhary Jat'
tp923
a(g899
S'Purushotam Baheti'
tp924
asS'id'
p925
S'100000011990902'
p926
sS'name'
p927
S'Manish Ranjan'
p928
s.