(dp1
S'friends'
p2
(lp3
(S'100001772386828'
S'Azhar Qureshi'
tp4
a(S'100001013669202'
S'Ashish Jarial'
tp5
a(S'100002132374625'
S'Gaurav Jatt'
tp6
a(S'100001560205602'
S'Umer Zameer Khan'
tp7
a(S'100001348681641'
S'Sam King'
tp8
a(S'100001388649395'
S'Ashish Kumar'
tp9
a(S'100003438897193'
S'Shahid Khan'
tp10
a(S'100000086941001'
S'Karun Rathee'
tp11
a(S'100002188744562'
S'Nawtie Chick'
tp12
a(S'100002042932717'
S'Mohsin Qureshi'
tp13
a(S'100000362308386'
S'Yousuf Qureshi'
tp14
a(S'1022450776'
S'Abhishek Chandok'
tp15
a(S'100000695859253'
S'Zarar Khan'
tp16
a(S'100001667661470'
S'Mohd Inam'
tp17
a(S'100002478028149'
S'Raja Shukla'
tp18
a(S'100001309496654'
S'Adnan Qureshi'
tp19
a(S'100001163995012'
S'Manas Sharma'
tp20
a(S'100001729038184'
p21
S'Vipul Kapoor'
tp22
a(S'100002205114115'
S'Salman Khan'
tp23
a(S'100001779820155'
S'Amir Ahmad'
tp24
a(S'100002106512176'
S'Saqib Gulzar'
tp25
a(S'100002573682893'
S'Akshay Tapkire'
tp26
a(S'100001585425540'
S'Madiha Zeshan'
tp27
a(S'100002604861617'
S'Sanjiv Kumar Verma'
tp28
a(S'100003255140250'
S'Akshay Tapkire'
tp29
a(S'100000950943737'
p30
S'Ronit Malhotra'
tp31
a(S'100000351538986'
S'Pankaj Dhanotia'
tp32
a(S'100002590350259'
S'Hemant Malik'
tp33
a(S'100002496148587'
S'Sami Singh'
tp34
a(S'100001715808341'
S'Manav Sharma'
tp35
a(S'100001349556978'
S'Sam Malhotra'
tp36
a(S'100001510959643'
S'Aswad Qureshi'
tp37
a(S'100001014961045'
S'Abhiney Puri'
tp38
a(S'100001423806092'
p39
S'Sparsh Garg'
tp40
a(S'100002385477110'
S'Lokesh Gautam'
tp41
a(S'100001477252068'
S'Zeeshan Khan'
tp42
a(S'100001644879500'
S'Chand Walia'
tp43
a(S'100002408492620'
S'Kuldeep Kasana'
tp44
a(S'100003251543645'
S'Irfan Ansari'
tp45
a(S'100001303146779'
S'Chota Killar'
tp46
a(S'100003524197669'
S'Usman Shareef'
tp47
a(S'100002602303980'
S'Ashish Aggarwal'
tp48
a(S'100002242325043'
S'Honey Singh K'
tp49
a(S'100000935260454'
S'Aswad Qureshi'
tp50
a(S'100000330696635'
S'Ravinder Singh Kheri'
tp51
a(S'100003115263813'
S'Mozibul Hoque Azad'
tp52
a(S'100000855352524'
S'Sharma Shubham'
tp53
a(S'100001056621798'
S'Karan Khanna'
tp54
a(S'100000617251761'
S'King Rajpoot'
tp55
a(S'742659935'
S'Muhammed Ibrahim'
tp56
a(S'100002941736493'
S'Kukuu Upadhyay'
tp57
a(S'100001992718620'
S'MD Azaan'
tp58
a(S'100000936218499'
S'Abhishek Morya'
tp59
a(S'100000560460529'
p60
S'Aman Mehndiratta'
tp61
a(S'100001053083818'
p62
S'Shaaz Qureshi'
tp63
a(S'100002025228861'
S'Tabish Malik'
tp64
a(S'100000054369077'
S'Muhammad Shahrukh'
tp65
a(S'100002511594272'
S'\\u0639\\u0628\\u0648\\u062f \\u062d\\u0645\\u0627\\u062f\\u0629'
tp66
a(S'100001898922400'
p67
S'Shaar Qureshi'
tp68
a(S'100000527963781'
S'Hammad Ahmad'
tp69
a(S'100002354864701'
S'Dinesh Salunkhe'
tp70
a(S'100001731605389'
S'Shera Di Kaum Babbar'
tp71
a(S'100003572663118'
S'Anjali Saxena'
tp72
a(S'100002155422957'
S'Tohid Qureshi'
tp73
a(S'100000010907971'
S'Syed Ali Taqi'
tp74
a(S'100000228629248'
S'Muzammil Qureshi'
tp75
a(S'100002742659178'
S'Nizam Abu'
tp76
a(S'100002563283356'
S'Tanu Rajput'
tp77
a(S'100002554778372'
S'Khan Mohin'
tp78
a(S'100001830884541'
S'Mohammad Shahrukh'
tp79
a(S'100000770620170'
S'Shashika Surangini'
tp80
a(S'100000511450981'
S'Abhilash Tiga'
tp81
a(S'100002413148205'
S'Noor Alsamiwa'
tp82
a(S'100001103810086'
S'Avinash Kaur'
tp83
a(S'100003520895264'
S'Dilsan Khan'
tp84
a(S'100002246134985'
S'Jack Denial'
tp85
a(S'100002960207412'
S'Arhaan Khan'
tp86
a(S'100002983415036'
S'Danny Daphney'
tp87
a(S'100002216624699'
S'Somveer Singh Yadav'
tp88
a(S'100002362482224'
S'Deep Gill Gill'
tp89
a(S'100002981709756'
S'Saakshi Sharma'
tp90
a(S'100002277506531'
S'Sid Sharma'
tp91
a(S'100000552907934'
S'Akash Choudhary'
tp92
a(S'100002648601777'
S'Vishal Bohemia'
tp93
a(S'100001185439341'
S'Manas Sharma'
tp94
a(S'100000439858079'
S'Cool Neha'
tp95
a(S'100001369723011'
S'Flirters Lord'
tp96
a(S'100002808200570'
S'Sameer Khurana'
tp97
a(S'100001393956330'
S'Mayank Rao'
tp98
a(S'100000583757100'
S'Nand Malhotra'
tp99
a(S'100001174315595'
S'Mohammad Sarfraz'
tp100
a(S'100000423208527'
S'Deepak Jain'
tp101
a(S'100003680457573'
S'Sandeep Sharma'
tp102
a(S'100001490188134'
S'Mohd Suhail'
tp103
a(S'100001263705932'
S'Mohd Asad'
tp104
a(S'100001765032510'
S'Arslan Khan'
tp105
a(S'100001788121190'
S'Lakhan Gupta'
tp106
a(S'100001935491669'
S'Faizan Hussain'
tp107
a(S'100001132597961'
S'Shahrukh Qureshi'
tp108
a(S'100002483289725'
S'Amit Phulia'
tp109
a(S'100002274667656'
S'Haris Khan'
tp110
a(S'100001670231107'
S'Dhruv Aggarwal'
tp111
a(S'100001256603825'
S'Suhail Qureshi'
tp112
a(S'100002379437487'
S'Jack John James'
tp113
a(S'100002763278407'
S'Sammer Kapur'
tp114
a(S'100001285792994'
S'Saiyam Kumar Sahni'
tp115
a(S'100002279081126'
S'Sachin Ojha'
tp116
a(S'100000907239138'
S'Emz Dalagan'
tp117
a(S'100000531840189'
S'Karishma Walia'
tp118
a(S'100001326658411'
S'Javed Qureshi'
tp119
a(S'100001702395240'
S'Shaaz Qureshi'
tp120
a(S'100001131101541'
S'Song Hye Joon'
tp121
a(S'100002270599354'
S'Sabi Qureshi'
tp122
a(S'100001183210771'
S'Saema Ansari'
tp123
a(S'100001291587606'
S'Tohid Qureshi'
tp124
a(S'100003464679573'
S'Tarubala Rohilla'
tp125
a(S'100002545231894'
S'Senty Sandy Daksh'
tp126
a(S'100002439190024'
S'Max K Denial'
tp127
a(S'100001516591680'
S'Esa Khan'
tp128
a(S'100000951547554'
S'Jasmeet Singh'
tp129
a(S'100002388872547'
S'Rupali Kapoor'
tp130
a(S'100002592191726'
S'\\u00c4bh\\u00ec\\u00f1\\u00e5v S\\u00ec\\u00f1gh'
tp131
a(S'100002453010364'
S'Pinang Mistry'
tp132
a(S'100002421410771'
S'Sarajit Sikder Roni'
tp133
a(S'100000236342473'
S'Fouzia Naz'
tp134
a(S'100002807177666'
S'Aamir Sonu'
tp135
a(S'100001201354014'
S'Manish Verma'
tp136
a(S'100002014387306'
S'Tanuj Behl'
tp137
a(S'100002069830252'
S'Uzair Aziz Qureshi'
tp138
a(S'100001108508409'
S'Raheel Aslam'
tp139
a(S'100002001168672'
S'Rohan Mehra'
tp140
a(S'100002298672191'
S'Aksham Sharma'
tp141
a(S'100000595963601'
S'Aarushi Johri'
tp142
a(S'100002479568539'
S'Mohit Malik'
tp143
a(S'100002534270549'
S'Bunty Sandhu'
tp144
a(S'100000550595878'
S'Deolka Prabhat'
tp145
a(S'100000437258465'
S'Manish Soni'
tp146
a(S'100002212525732'
S'Karan Sharma'
tp147
a(S'100001983407273'
S'Rohit Sam'
tp148
a(S'100002645840710'
S'Brave Aditya Singh'
tp149
a(S'100003585473251'
S'Adnan Tanha'
tp150
a(S'100002555287920'
S'Vikash Solnkey'
tp151
a(S'100002379563943'
S'Sunil Phadatare'
tp152
a(S'100002467381744'
S'Umaiz Khan'
tp153
a(S'100001399599019'
S'In\\u00f1\\u00f8cent L\\u00f8ver'
tp154
a(S'100001314802569'
S'Shadman Danish'
tp155
a(S'100001956560068'
S'Abdul Basir'
tp156
a(S'100003020170086'
S'Parvesh Kumar Mauriya'
tp157
a(S'100002569064773'
S'Madiha Khan'
tp158
a(S'100002512911364'
S'Baqir Qureshi'
tp159
a(S'100002120404992'
S'Pradeep Sourot'
tp160
a(S'100002162096797'
S'\\u00c0l\\u00ed Q\\u00far\\u00eash\\u00ef'
tp161
a(S'100002280034068'
S'Mahender Dhanotia'
tp162
a(S'100003391278897'
S'Lufnah Angel'
tp163
a(S'100001452449043'
S'Abdul Rehman'
tp164
a(S'100002514259081'
S'Arish Iqbal'
tp165
a(S'100001238757695'
S'Vikas Bhati'
tp166
a(S'100001100125180'
S'Haarshit Shaaran Kumaar'
tp167
a(S'100001437503976'
S'Akki Arsh'
tp168
a(S'100002542475932'
S'Akshara Chahat'
tp169
a(S'100000334207202'
S'Mohit Mehra'
tp170
a(S'100002619492954'
S'Varsha Sharma'
tp171
a(S'100001257116378'
p172
S'Aisha Aggarwal'
tp173
a(S'100001591952064'
S'Raj Rathod'
tp174
a(S'100003746920115'
S'Ashi Singh'
tp175
a(S'1814815881'
S'Muhammad Kashif Ilyas'
tp176
a(S'100003571111328'
S'Mohd Aun'
tp177
a(S'100003101291683'
S'Srishti Agarwal'
tp178
a(S'100000642125605'
S'Mohit Chandaliya'
tp179
a(S'100001286374040'
S'Chandima Sandaruwan Abeysinghe'
tp180
a(S'100001473680538'
S'Motilal Soni'
tp181
a(S'100001563000601'
S'Karan Khanna'
tp182
a(S'100000654578196'
S'Rishabh Jain'
tp183
a(S'100003101301778'
S'Rahul Gujjar'
tp184
a(S'100001286378965'
S'Javed Qureshi'
tp185
a(S'100002429460934'
S'Momin Sami'
tp186
a(S'100001838421552'
p187
S'Prashant Kashyap'
tp188
a(S'100002099153118'
S'Endra Ynwa'
tp189
a(S'100000123541043'
p190
S'Sagar Makkar'
tp191
a(S'100002359955968'
S'Sheetu Sharma'
tp192
a(S'100002097108120'
S'Samid Hussain'
tp193
a(S'100001412131002'
S'Holy Worika'
tp194
a(S'1068302173'
S'Shahid Hussain Vistro'
tp195
a(S'100001074852024'
S'Arastu Afzal'
tp196
a(S'100002528588634'
S'Karan Sharma'
tp197
a(S'100001654501327'
S'Apon Khan'
tp198
a(S'100002778850772'
S'Ujjawal Garg'
tp199
a(S'1056860946'
S'Mohammad Nasir'
tp200
a(S'100002322544882'
S'Manish Kumar Vishwakarma'
tp201
a(S'100003321307100'
S'Paawan Kumar'
tp202
a(S'100000930925712'
S'Aditya Soni'
tp203
a(S'100001767452343'
p204
S'Naumaan Zahid'
tp205
a(S'100001271224243'
S'Abhishek Chauhan'
tp206
a(S'100000954808353'
S'Shaikh Shahbaz'
tp207
a(S'100002167561280'
S'Ashish Katoch'
tp208
a(S'1294038746'
S'Scott Nagano'
tp209
a(S'100002120415254'
S'Himanshu Gupta'
tp210
a(S'100002475293883'
S'Mohd Furqan Qureshi'
tp211
a(S'100002535471616'
S'Akhilesh Singh'
tp212
a(S'100002838987705'
S'Vishwas Saini'
tp213
a(S'1239349831'
S'Ashutosh Mishra'
tp214
a(S'1613109514'
S'Sapnaa Kaushik'
tp215
a(S'100001212179105'
S'Luckykatoch Katoch'
tp216
a(S'100001785002489'
S'Garima Walia'
tp217
a(S'100001158667955'
S'Himanshu Seth'
tp218
a(S'100000606694700'
S'Umer Ali'
tp219
a(S'100003238610424'
S'Fi Sh A'
tp220
a(S'100001264421118'
S'Zain Qureshi'
tp221
a(S'100003035049145'
S'Rajkumar Phukan'
tp222
a(S'100001558424843'
S'Kartik Makkar'
tp223
a(S'100003485261606'
S'Azhar Ansari'
tp224
a(S'100001940452769'
S'\\u00c3qd\\u00e4s M\\u00e4j\\u00eed'
tp225
a(S'100001038091876'
S'YuSuf Khan'
tp226
a(S'100002364757441'
S'Rohit Vijay'
tp227
a(S'100001241642198'
S'Surangini Perera'
tp228
a(S'100001105294840'
S'Ahmed Khan'
tp229
a(S'100001737348814'
p230
S'Suhail Qureshi'
tp231
a(S'100000423109362'
S'Ajay Sehgal'
tp232
a(S'100002037706603'
S'Ans AB Q\\u00fb\\u0157\\u00eb\\u015fh\\u00ee'
tp233
a(S'100002347271321'
S'Nia Marco'
tp234
a(S'100002372880565'
S'Rao Somveer Singh Arya'
tp235
a(S'100000951289063'
S'Honey Kashyap'
tp236
a(S'100000846809259'
S'Mohd Amir'
tp237
a(S'100001600704047'
S'\\u00c5qs\\u00e5 \\u00c1\\u00f1g\\u00eal'
tp238
a(S'100003724397982'
S'Md Kalim'
tp239
a(S'100002811652728'
S'\\u00d0 S\\u00fbp\\u00ear R\\u00f8\\u00e7kst\\u00e4r'
tp240
a(S'100001284579995'
S'Saumya Kaur'
tp241
a(S'100001438781676'
S'Saud Ilahi'
tp242
a(S'100002076817203'
S'Umar Sabir'
tp243
a(S'100002671952051'
S'Sunil Raj Sr.'
tp244
a(S'100001617962400'
S'Bron Cyrus'
tp245
a(S'100001134198736'
S'Obair Khan'
tp246
a(S'100000651569124'
S'Waseem Qureshi'
tp247
a(S'100002492638503'
S'Manoj Narwal'
tp248
a(S'100001192586813'
S'Ishfaq Ahmed Thind'
tp249
a(S'100002629026274'
S'Tonwi Roy'
tp250
a(S'100002768376786'
S'Raj Mallick'
tp251
a(S'100001476382913'
S'Arnav Singh'
tp252
a(S'100003117586664'
S'Dipti Pawar'
tp253
a(S'100002887171925'
S'Manish Thakur'
tp254
a(S'100001064612114'
S'Karan Kapoor'
tp255
a(S'100001594256368'
S'Ali Turab'
tp256
a(S'100001978810179'
S'Divya Soni'
tp257
a(S'100001621470565'
S'Ahr Hannan'
tp258
a(S'100002449262999'
S'Arav Kapoor'
tp259
a(S'100002410200413'
S'Rahul PuRohit'
tp260
a(S'100001446082602'
S'Pranav Vashist'
tp261
a(S'100001806023371'
S'Anas Qureshi'
tp262
a(S'100002257616129'
S'Kuldip Vasekar'
tp263
a(S'100001203639317'
S'Iban Qureshi'
tp264
a(S'100001878411314'
S'Prabhat Sahu'
tp265
a(S'100000588369190'
S'P\\u00e4r\\u00e4s V\\u00earm\\u00e4'
tp266
a(S'100001104521097'
S'Abid Javed'
tp267
a(S'100001430527754'
S'Lokesh Bhatia'
tp268
a(S'100001722003618'
p269
S'Imran Qureshi'
tp270
a(S'100001250343102'
S'Prashant Chaudhary Singh'
tp271
a(S'100001170333377'
S'Farhan Khan'
tp272
a(S'100001597563091'
S'Mayank Sethi'
tp273
a(S'100003045102856'
S'Aman Singh'
tp274
a(S'100000655371505'
p275
S'Ab\\u0127\\u012f\\u0146\\u0105v S\\u00ec\\u00f1\\u0123\\u0127'
tp276
a(S'100001235642243'
S'Suhail Qureshi'
tp277
a(S'100001437905927'
S'Siddharth Gujral'
tp278
a(S'100001365634300'
S'Sahil Marq'
tp279
a(S'100002394647016'
S'Kishor Oli'
tp280
a(S'100003350198394'
S'Ahana Khan'
tp281
a(S'100003305813997'
p282
S'Abdullah Khan'
tp283
a(S'100003577926321'
S'Sabra Hamid'
tp284
a(S'1808352120'
S'Zxivo Parpi'
tp285
a(S'842512887'
S'Tejas Pote'
tp286
a(S'100001687261620'
S'I\\u027df\\u028c\\u014b \\u00c5nSari'
tp287
a(S'100002154193087'
S'Mayank Raghav'
tp288
a(S'100003309896939'
S'Sufiyan Khan'
tp289
a(S'100001917107018'
S'Nisha Gupta'
tp290
asS'id'
p291
S'100001246931593'
p292
sS'name'
p293
S'Aarushi Kapoor'
p294
s.