(dp1
S'friends'
p2
(lp3
(S'100004319166028'
S'Kalyan Tomar'
tp4
a(S'100001598882551'
S'Anantaa Mittal'
tp5
a(S'100003624353128'
S'Piyush Gupta'
tp6
a(S'100000107103560'
S'Swagata Baishya'
tp7
a(S'567752494'
S'Alina Mookherjee'
tp8
a(S'100003658760781'
S'Ruchi Agarwal'
tp9
a(S'100002672808806'
S'Mriganka Ray'
tp10
a(S'100001481334861'
S'Bandana Das'
tp11
a(S'100003912336828'
S'Samiran Hota'
tp12
a(S'100006046242526'
S'Shaista Khan'
tp13
a(S'100002538931566'
S'Nasima Ansari'
tp14
a(S'100001468487177'
S'Sanjana Laobangdisa'
tp15
a(S'100005758029062'
S'Afsana Ahmed'
tp16
a(S'100006519940367'
S'Avantika Sharma'
tp17
a(S'100005376431306'
S'Ankita Baruah'
tp18
a(S'100001125665873'
S'Deepu Raveendran Unnithan'
tp19
a(S'719951720'
S'Adya Sadanand'
tp20
a(S'100006185590085'
S'Nayanthara Sabu'
tp21
a(S'100006289477076'
S'Akshita Sharma'
tp22
a(S'100001649287831'
S'Yankee Parashar'
tp23
a(S'100004410368714'
S'Arindam Kalita'
tp24
a(S'100002258077045'
S'Ameet Deka'
tp25
a(S'100006052991318'
S'Priya Iyer'
tp26
a(S'100007026103533'
S'Moksha Singla'
tp27
a(S'1449146414'
p28
S'Pulkit Aggarwal'
tp29
a(S'1556202233'
S'Nikita Agnihotri'
tp30
a(S'100006062490159'
S'Poulami Banerjee'
tp31
a(S'100002028331470'
S'Akul Singh'
tp32
a(S'1152400250'
S'Devamanyu Hazarika'
tp33
a(S'100002662320829'
S'Kristi Rashmi Bora'
tp34
a(S'100002704253245'
S'Nipasha Mahanta'
tp35
a(S'100005498645441'
S'Yamini Batra'
tp36
a(S'100006390730708'
S'Koppisetty Ramya Sri'
tp37
a(S'100000692209678'
S'Hanumakonda Avinash Saab'
tp38
a(S'100001511264133'
S'Siva Sankar'
tp39
a(S'100006436715262'
S'Somesh Saha'
tp40
a(S'100003275631006'
S'Rhythmm Rana'
tp41
a(S'771693126'
S'Dipa Banerjee'
tp42
a(S'100002870985074'
S'Bhaskar Steiner DEka'
tp43
a(S'100006303132970'
S'Shambhavi Kushwaha'
tp44
a(S'100000688880814'
S'Jai Prakash'
tp45
a(S'100001801398884'
S'Aditya Dev'
tp46
a(S'100001816047972'
p47
S'Abhinav Baruah'
tp48
a(S'100001943138497'
S'Sneha Kalita'
tp49
a(S'100000316267019'
S'Anirudh Pendyala'
tp50
a(S'100000531112835'
S'Prerana Das'
tp51
a(S'100006034959886'
S'Bibhuti Handique'
tp52
a(S'100002062688305'
S'Karthik Srikanth'
tp53
a(S'100000901505091'
S'Kaushik Dutta'
tp54
a(S'100003799791794'
S'Popismita S Chutia'
tp55
a(S'100002387466650'
S'Parandeep Goswami'
tp56
a(S'1601533979'
S'Shubhda Kulkarni'
tp57
a(S'100001108861085'
S'Abhradeep Goswami'
tp58
a(S'100000287205836'
S'Sarmistha Roy Choudhury'
tp59
a(S'100003765041771'
S'Sree Satya Datla'
tp60
a(S'100000717314455'
S'Ananya Kashyap Sharma'
tp61
a(S'100002361397213'
S'Saswati Das'
tp62
a(S'1724119297'
S'Sonvy Gupta'
tp63
a(S'100002442408806'
S'Monami Bhuyan'
tp64
a(S'100001708362508'
S'Atlanta Angeles'
tp65
a(S'1382904343'
S'Sonakshi Agrawal'
tp66
a(S'100004360471882'
S'Srusti Reddy'
tp67
a(S'100001235536518'
S'Ishita Hatoj'
tp68
a(S'100000358216424'
S'Basab Bora'
tp69
a(S'100000021771484'
S'Hrudya Samhita'
tp70
a(S'100002575961897'
S'Shweta Singha'
tp71
a(S'1593196814'
S'Adarsh Yadav'
tp72
a(S'100003850746358'
S'Shardul Dabir'
tp73
a(S'1808553015'
S'Pulkit Agarwal'
tp74
a(S'100000708152622'
S'Partho L. Hazarika'
tp75
a(S'100002569950186'
S'Jit Talukdar'
tp76
a(S'100005936323035'
S'Debalina Kashyap'
tp77
a(S'100002156566394'
S'Madhurjya Nath'
tp78
a(S'100002420722399'
S'Naema Miftah'
tp79
a(S'100006527983831'
S'Kritika Tyagi'
tp80
a(S'100001783519167'
S'Nibir Deka'
tp81
a(S'100006505147286'
S'Shilpa Khanikar'
tp82
a(S'1220930332'
S'Vasanth S Kumar'
tp83
a(S'1823230021'
S'Mridushman Medhi'
tp84
a(S'100002325121199'
S'Shreya Podder'
tp85
a(S'100001066884904'
S'Ree Nky'
tp86
a(S'100001807112418'
S'Mayurima Kakati'
tp87
a(S'100001107216648'
S'Chinmoy Barthakur'
tp88
a(S'100003296443631'
S'Marjana Goswami'
tp89
a(S'100001273251832'
S'Abhishek Chaudhary'
tp90
a(S'100001448078852'
S'Adhiraj Chamuah'
tp91
a(S'100002268619206'
S'Jandra Sriker'
tp92
a(S'100002612843717'
S'Vicky Uppalapati'
tp93
a(S'100006051339783'
S'Apoorva Tikku'
tp94
a(S'100002263608291'
S'Mriganka Nath'
tp95
a(S'100003695989000'
S'Nikhil Agarwal'
tp96
a(S'100001851081991'
S'Sera Susan Jacob'
tp97
a(S'100000095866764'
S'Riya Dhar'
tp98
a(S'100000070874625'
S'Kalyan Kumar Panda'
tp99
a(S'100006636818163'
S'Richita Saikia'
tp100
a(S'100001168885861'
S'Alfred Baruah'
tp101
a(S'100001848476683'
S'Tania Choudhury'
tp102
a(S'100005122540305'
S'Rajavel Karthikeyan'
tp103
a(S'100000953544524'
S'Anshul Agarwal'
tp104
a(S'100004789171717'
S'Kopal Mittal'
tp105
asS'id'
p106
S'100002891063084'
p107
sS'name'
p108
S'Reesa Bora'
p109
s.