(dp1
S'friends'
p2
(lp3
(S'100005267594021'
S'Delisha Rani'
tp4
a(S'100007744177519'
S'\\u062d\\u0645\\u062f \\u0627\\u0644\\u0628\\u0644\\u0648\\u0634\\u064a'
tp5
a(S'100007511823164'
S'Chocolaty Hero'
tp6
a(S'100005415700829'
S'Baloch Stylesh'
tp7
a(S'100007461961091'
S'Hamza Baloch'
tp8
a(S'100003200013924'
S'Imran Baloch'
tp9
a(S'100007111293984'
S'Princenss Banook'
tp10
a(S'100004794098211'
S'Samir Shaikh'
tp11
a(S'100004752992402'
p12
S'Brave Gurg'
tp13
a(S'100003676988838'
S'Jalal Amhed'
tp14
a(S'100007927322404'
S'Arif Mengal'
tp15
a(S'100000313541489'
S'Ajnbee Rind'
tp16
a(S'100007361079935'
S'Dua Baloch'
tp17
a(S'100007419094441'
S'\\u0631\\u0646\\u062f \\u0627\\u0644\\u0628\\u0644\\u0648\\u0634\\u064a'
tp18
a(S'100004989301268'
S'Abdulaziz Baloch'
tp19
a(S'100003726914106'
S'Moosa Albalooshi'
tp20
a(S'100007095039143'
S'Raees Khan'
tp21
a(S'100007583225352'
S'Aida Al Balushi'
tp22
a(S'100007562051501'
S'Abood Be'
tp23
a(S'100003480122634'
S'Amir Zehri'
tp24
a(S'100007693352422'
S'Nadia Balouch'
tp25
a(S'100002692723668'
S'\\u00deri\\u00f1c\\u00ea I\\u00dfo'
tp26
a(S'100006358239727'
S'Sameenuk Jani'
tp27
a(S'100006730718032'
S'Atta Karim'
tp28
a(S'100006167438342'
S'Afsha Ahmed'
tp29
a(S'100006173161620'
S'Raja Shahwani'
tp30
a(S'100007503271141'
S'Ali Ahmed'
tp31
a(S'100001495884768'
S'Abdul Basit Ameeri'
tp32
a(S'100007637881370'
S'Javed Ahmed'
tp33
a(S'100002108783241'
S'Behram Dehwari'
tp34
a(S'100007745796919'
S'Hammass Albaloshi'
tp35
a(S'100004118643687'
S'Jawed Marri Baloch'
tp36
a(S'100006964683404'
S'Spy Dark'
tp37
a(S'100003485198352'
S'Aaram Mula Bakhsh Baloch'
tp38
a(S'100004570440396'
S'Sami Sameer'
tp39
a(S'100007317520003'
S'Mahlab Kurdi'
tp40
a(S'100002014898317'
S'Mano Khan Khan'
tp41
a(S'100007453207727'
S'Prince MF Baloch'
tp42
a(S'100006948332370'
S'Anita Baloch'
tp43
a(S'100007560305916'
S'Kamran Khan'
tp44
a(S'100006330571369'
S'M Ali Hamza'
tp45
a(S'100007432383139'
S'Goshti Baloch'
tp46
a(S'100006425437601'
S'Naseer Khan'
tp47
a(S'1834843467'
S'Mir Bilal Albalushi'
tp48
a(S'100002075625689'
S'Bilal Khan'
tp49
a(S'100006076813511'
S'M\\u0280 Blushi'
tp50
a(S'100004913411106'
S'Ali Al Balooshi Zidane'
tp51
a(S'100005313162907'
S'Prince Albaloshi'
tp52
a(S'100004471716011'
S'\\u062e\\u0627\\u0644\\u062f \\u0627\\u0644\\u0628\\u0644\\u0648\\u0634\\u064a'
tp53
a(S'100000212968845'
S'Jamil Rehman'
tp54
a(S'100006919353056'
S'Muhammad Naveed Iqbal'
tp55
a(S'100007513353813'
S'Zahir Khan'
tp56
a(S'100006010754127'
S'Yasir Raza'
tp57
a(S'100007901700765'
S'Faisal Baloch'
tp58
a(S'100007786590818'
S'Omer Khan'
tp59
a(S'100007077153950'
S'Rahi Here'
tp60
a(S'100007761546961'
S'\\u0631\\u0627\\u0634\\u062f \\u0627\\u0644\\u0628\\u0644\\u0648\\u0634\\u064a'
tp61
a(S'100007616431155'
S'Ali \\u00c2l B\\u00e3l\\u00f0\\u00d3\\u00f5sh\\u00ed'
tp62
a(S'100007479482548'
S'Sheba Baloch'
tp63
a(S'100007553284180'
S'Prinxess B\\u00e1\\u0142\\u0151\\u00e7\\u0127'
tp64
a(S'100007595772505'
S'Zakir Bhai'
tp65
a(S'100007540813595'
S'Marina Khan'
tp66
a(S'100006589121304'
S'Muzamal Khan'
tp67
a(S'100005501531093'
S'Banok Zemal'
tp68
a(S'100007053907583'
S'Naseeb Baloch'
tp69
a(S'100007681982697'
S'Abid Baloshi'
tp70
a(S'100006439808731'
S'Muhammad Younas'
tp71
a(S'100006601802508'
S'Salim Abdullah'
tp72
a(S'100007464127394'
S'Norway Brp'
tp73
a(S'100007489634363'
S'Meera Sd'
tp74
a(S'538676241'
S'Arif Baloch'
tp75
a(S'100006470019843'
S'Innoxent King'
tp76
a(S'100001974060667'
S'Hani Baloch'
tp77
a(S'100006769033092'
S'Mansoor Liaquat'
tp78
a(S'100002960781397'
S'Ahmed Durrani'
tp79
a(S'100003525307037'
S'Ameer Amir Nousherwani'
tp80
a(S'100007356610406'
S'Nadia Mengal'
tp81
a(S'100003315279744'
S'Naeem Jan'
tp82
a(S'100007532558854'
S'Huma Shahid'
tp83
a(S'100005176960814'
S'Ahmed Hasani'
tp84
a(S'100007434158758'
S'Saleem Ch'
tp85
a(S'100007522660983'
S'Gulzarali Ali'
tp86
a(S'100007615564264'
S'Aleeza Balouch'
tp87
a(S'100003900958179'
S'Faheem Baloch'
tp88
a(S'100007810814532'
S'Yamin Baloch'
tp89
a(S'100005998144020'
S'Hina Ali'
tp90
a(S'100007110612513'
S'Maham Butt'
tp91
a(S'100006910601864'
S'Muslim Omani'
tp92
a(S'100003298711048'
S'Abdul Waleed'
tp93
a(S'100006961596513'
S'Usama Baloch'
tp94
a(S'100006926679895'
S'Kulsoom Khan'
tp95
a(S'100000669421847'
S'Malika Albaloshi'
tp96
a(S'100006610143870'
S'Zarlashta Kakar'
tp97
a(S'100005234678901'
S'Zindman Baloch'
tp98
a(S'100007090230795'
S'Jasim Ali'
tp99
a(S'100006972369811'
S'KhulOod Al GanOok'
tp100
a(S'100007671185253'
S'Azeem Iqbal'
tp101
a(S'100006478017280'
S'Sabilashop New'
tp102
a(S'100007503725478'
S'Angal Pari'
tp103
a(S'100003560512017'
S'Shaguffta Kasi'
tp104
asS'id'
p105
S'100007457075357'
p106
sS'name'
p107
S'Aisha Baloch'
p108
s.