(dp1
S'friends'
p2
(lp3
(S'100001474616220'
S'Garima Singh'
tp4
a(S'100001656933833'
S'Manju Singh'
tp5
a(S'100002067634817'
S'Star Ateek'
tp6
a(S'100002105522282'
S'Anjali Shaini'
tp7
a(S'1820801442'
S'Vimal Kumar Jaiswal'
tp8
a(S'100001977583037'
S'Radhika Jain'
tp9
a(S'100002620571209'
S'Jagdish Meghwal'
tp10
a(S'100001656598555'
S'Neelam Dalal'
tp11
a(S'100002083766778'
S'Ravi Malhotra'
tp12
a(S'100001902381128'
p13
S'Vikas Gautam'
tp14
a(S'1642273552'
S'Aman Puggal'
tp15
a(S'100001289215842'
S'Jagdish Meghwal'
tp16
a(S'100002318997841'
S'Santoshi Jolhey'
tp17
a(S'100001268877256'
S'Ritika Jain'
tp18
a(S'100000727299561'
S'Sweata Mitra'
tp19
a(S'100001634913262'
S'Pooja Pandit'
tp20
a(S'100001977585420'
S'Soniya Bisht'
tp21
a(S'100000052218894'
S'Kunal Kumar'
tp22
a(S'100000876538758'
S'Neelam Sharma'
tp23
a(S'100000089259603'
S'Bipin Singh'
tp24
a(S'100002192328178'
S'Payal Jain'
tp25
a(S'100000416503404'
S'Sudeep Shekhar'
tp26
a(S'1720159535'
S'Subhasis Sis'
tp27
a(S'100001607585904'
S'Sneha Patil'
tp28
a(S'100001357077224'
S'Soumya Das'
tp29
a(S'100002015496554'
S'Naina Soni'
tp30
a(S'100001150210259'
S'Divyadarshan Nayak'
tp31
a(S'100001630435159'
S'Akhil Gopi Girija'
tp32
a(S'100002473187894'
S'Antara Ghosh'
tp33
a(S'100001616953326'
S'Prachi Nagar'
tp34
a(S'100001650169896'
S'Rohini Khanna'
tp35
a(S'100001688004913'
S'Ravikant Jaspal'
tp36
a(S'1442778502'
S'Samindra Sarkar'
tp37
a(S'100001399018021'
S'Ritesh Rajput'
tp38
a(S'100001474807194'
S'Aisa Nagpal'
tp39
a(S'728567182'
S'Gaurav Malvania'
tp40
a(S'100000887723014'
S'Adinath Katore'
tp41
a(S'100001765690242'
S'Rupali Mishra'
tp42
a(S'100001461043712'
S'Suman Thakur'
tp43
a(S'100002004521200'
S'Sandy Verma'
tp44
a(S'100001235086913'
S'Diya Sindhu'
tp45
a(S'100002013608114'
S'Riya Chaudhary'
tp46
a(S'100001827703108'
S'Suman Jee'
tp47
a(S'100000230415696'
S'Vikash Kumar Gupta'
tp48
a(S'100001811335415'
S'Shikha Gupta'
tp49
a(S'100001601691109'
S'Raman Sharma'
tp50
asS'id'
p51
S'100000731608988'
p52
sS'name'
p53
S'Pinky Gupta'
p54
s.