(dp1
S'friends'
p2
(lp3
(S'100008296061682'
S'A\\u028c\\u0280\\u00f8\\u0126\\u012f K\\u0126\\u028c\\u00f1'
tp4
a(S'100007907984223'
S'Pragya Rai'
tp5
a(S'100002567657351'
S'Puneet Hassh Hashh'
tp6
a(S'100002042511947'
S'AaMir KHan'
tp7
a(S'100005960406158'
S'Muskaan Khan'
tp8
a(S'100003180138239'
S'Neelam Singh'
tp9
a(S'100007589760936'
S'Saima Khan'
tp10
a(S'100004233631823'
S'Miley James'
tp11
a(S'100007933267716'
S'Aiman Khan'
tp12
a(S'100003554242153'
S'Tanvi Daksh'
tp13
a(S'100004113847195'
S'Priyali Singh'
tp14
asS'id'
p15
S'100002042511947'
p16
sS'name'
p17
S'AaMir KHan'
p18
s.