(dp1
S'friends'
p2
(lp3
(S'1631111357'
S'Dylan Fernandes'
tp4
a(S'100000107328533'
S'Vaidehi \\u0162 BaviSkar'
tp5
a(S'1019105096'
S'Ashita Ajmera'
tp6
a(S'100000422781640'
S'Swaran Singh'
tp7
a(S'100002467386331'
S'Shweta Pandey'
tp8
a(S'100000575307933'
S'Shahzeb Khan'
tp9
a(S'100002062123283'
S'Jaideep Seth'
tp10
a(S'100001413604492'
S'Soham Kathuria'
tp11
a(S'1677083790'
S'Shahazim Samnani'
tp12
a(S'1578693020'
p13
S'Rajas Raygade'
tp14
a(S'100000118451512'
S'Aditya Vargante'
tp15
a(S'100000919738048'
S'Gaurav Dhande'
tp16
a(S'1223721630'
S'Shivani Sonawane'
tp17
a(S'100001848844316'
S'Saumya Nagar'
tp18
a(S'100000844533360'
S'Mihir Deo'
tp19
a(S'100003989467311'
S'Niranjan Kanase'
tp20
a(S'100003326389501'
S'Samuel Teron'
tp21
a(S'100001540177960'
S'Sayam Kathuria'
tp22
a(S'100000372773726'
S'Anish Pingle'
tp23
a(S'100001726496449'
S'J\\u00e3\\u00ff Pawar'
tp24
a(S'1008103750'
S'Imtiyaz Hariyani'
tp25
a(S'1004002797'
S'Pranav Satav'
tp26
a(S'1431524102'
S'Mehek Gandhi'
tp27
a(S'100002351157344'
S'Jasleen Arora'
tp28
a(S'1315990230'
p29
S'Debneil Mukherjee'
tp30
a(S'100000235689931'
S'Siddhant Gupta'
tp31
a(S'1061867332'
S'Yingran Nancy Zhang'
tp32
a(S'100000892797172'
S'Huidrom Mishal Singh'
tp33
a(S'1638331509'
S'Shreyas Sasane'
tp34
a(S'100000587627340'
S'Eric Cainne Demitrius'
tp35
a(S'100001707727821'
S'Neha Patel'
tp36
a(S'1325736769'
S'Niharika Gogate'
tp37
a(S'100001637170314'
S'Rhea Rebello'
tp38
a(S'1339755460'
S'Ameya Bhalerao'
tp39
a(S'100000581688859'
S'Aditya Narhe'
tp40
a(S'100000396222268'
S'Pranav Dhawan'
tp41
a(S'100000855746829'
S'Swagat Belsare'
tp42
a(S'1355163813'
S'Anushka Sanap'
tp43
a(S'100002015615506'
S'Varun Yadav'
tp44
a(S'1551406166'
S'Priyanka Duggal'
tp45
a(S'100001039464009'
S'Tanmay Kawade'
tp46
a(S'1309735895'
S'Yash Sapre'
tp47
a(S'1160926590'
S'Maahind Gajera'
tp48
a(S'100000631869048'
S'Pushkar Kulkarni'
tp49
a(S'537648219'
p50
S'Gaurav Gupta \\u2729'
tp51
a(S'1454514000'
p52
S'Kunal Jadhav'
tp53
a(S'1371412400'
p54
S'Moksh Lalwani'
tp55
a(S'1280422979'
S'Satesh Mirpuri'
tp56
a(S'1427470133'
S'Prerna Bhalla'
tp57
a(S'100001535409377'
S'Aditi Agrawal'
tp58
a(S'100000557982420'
S'Utkarsh Pathak'
tp59
a(S'100000429553770'
S'Anuja Bhosale'
tp60
a(S'100000234118072'
S'Yash Chaturvedi'
tp61
a(S'100000921482122'
S'Saurabh Kumar'
tp62
a(S'100000791732299'
S'Sai Nikhil Thota'
tp63
a(S'1321527929'
S'Gaurav Majumdar'
tp64
a(S'100000091345027'
S'Udit Ekansh'
tp65
a(S'100000477685133'
S'Vedika Mansukhe'
tp66
a(S'1219328526'
S'Ashray Mathers Khandelwal'
tp67
a(S'685377578'
S'Meera Malhotra'
tp68
a(S'100000543732154'
S'Ayush Kanitkar'
tp69
a(S'1363787507'
S'Trisha Tanti'
tp70
a(S'100000008347909'
S'Ishan Pathak'
tp71
a(S'100000391351177'
S'Siddhesh Dwivedi'
tp72
a(S'100001019298189'
S'Hussey Ukani'
tp73
a(S'1422834266'
S'Simran Kanse'
tp74
a(S'100000598742462'
S'Shivam Kailash'
tp75
a(S'100001216043433'
S'Abhishek Rao'
tp76
a(S'100002853950697'
S'Srishti Jaiswal'
tp77
a(S'1378282973'
S'Aditya Dandekar'
tp78
a(S'807649629'
S'Ryan Warren'
tp79
a(S'548892746'
S'Ali Freese'
tp80
a(S'1117153217'
S'Zaid Ali'
tp81
a(S'100000134581870'
S'Chaitanya Joshi'
tp82
a(S'100000481762248'
S'Nikhil Mali'
tp83
a(S'100000697465959'
S'Vinit LonKar'
tp84
a(S'1445451230'
S'Danish Khan'
tp85
a(S'1067169558'
S'Abdul Wasay'
tp86
a(S'100002721529802'
S'Latasha Garg'
tp87
a(S'100000965093022'
p88
S'Albert Anthony'
tp89
a(S'100000816440775'
S'Mahesh Pawar'
tp90
a(S'1601270896'
S'Tahseen Shah'
tp91
a(S'1525479186'
S'Indraneel Raygade'
tp92
a(S'100000463506932'
S'Gautam Kaushal'
tp93
a(S'1130708802'
p94
S'Karan Madan'
tp95
a(S'100000883325262'
S'Eadhunath Vengatesan'
tp96
a(S'1149610354'
S'Aakriti Sharma'
tp97
a(S'100000195326940'
p98
S'Ujjwal Dahiya'
tp99
a(S'1615355325'
S'Shaunak Potdar'
tp100
a(S'1290907957'
S'Nikalp Patel'
tp101
a(S'100000480348261'
S'Verun Chavan'
tp102
a(S'1221694083'
S'Aditya Khonde'
tp103
a(S'100001181482370'
S'Aditya Kale'
tp104
a(S'1013472190'
S'Himanshu Hingorani'
tp105
a(S'100000388951831'
S'Aikya Banerjee'
tp106
a(S'1682162372'
S'Namit Sharma'
tp107
a(S'100001079217793'
S'Ajit Patwardhan'
tp108
a(S'1347022438'
S'Shruti Sasane'
tp109
a(S'1048010806'
S'Armaan Dua'
tp110
a(S'1496822219'
S'Sahil Mali'
tp111
asS'id'
p112
S'100001359763291'
p113
sS'name'
p114
S'Nilesh Kanase'
p115
s.