(dp1
S'friends'
p2
(lp3
(S'546418317'
S'Raj Pal'
tp4
a(S'646930037'
S'Kshama Singh'
tp5
a(S'100001133223347'
S'Sharat Sinha'
tp6
a(S'1118079820'
S'Arvind Singh'
tp7
a(S'1086229440'
S'Sanjay Jain'
tp8
a(S'1646437502'
S'Arika Madhav Singh'
tp9
a(S'100001582821873'
S'Sushanto Mukherjee'
tp10
a(S'1452007750'
S'Nidhi Narang'
tp11
a(S'1117413354'
S'Anuj Kumar Singh'
tp12
a(S'100002844725088'
S'Abhay Mohan Jha'
tp13
a(S'100000678878117'
S'Sanjay Chowdhary'
tp14
a(S'100002129075015'
S'Ajay Kumar Roy'
tp15
a(S'800632484'
S'Dhruv Singh'
tp16
a(S'1254234812'
S'Prateeksha Pratap'
tp17
a(S'100000596113430'
S'Kaushalesh Singh'
tp18
a(S'100000601513004'
S'Amrendra Pratap Singh'
tp19
a(S'100000268268145'
S'Hemant Mishra'
tp20
a(S'100001863193085'
S'Versha Anand'
tp21
a(S'1582615943'
S'Pratul Kumar Singh'
tp22
a(S'661196020'
S'Samir Sahu'
tp23
a(S'100001615704674'
S'Chandra Kant Verma'
tp24
a(S'100000162130222'
S'Rajiv Singh'
tp25
a(S'100000079433590'
p26
S'Kumar Rakesh'
tp27
a(S'814885557'
S'Sanjeev Chatterjee'
tp28
a(S'1265162538'
S'Sanjay Bhagat'
tp29
a(S'1818281761'
S'Ratan Jha'
tp30
a(S'100001239521572'
S'Suvashish Choudhary'
tp31
a(S'1155904287'
S'Pravir Jayaswal'
tp32
a(S'100000686563891'
S'Suneil Chaubey'
tp33
a(S'100001448385811'
S'Bihar On Web'
tp34
a(S'100004699861832'
S'Shipra Singh'
tp35
a(S'1255129640'
S'Ramesh K Singh'
tp36
a(S'1507839347'
S'Leena Singh'
tp37
a(S'1014040935'
p38
S'Maj K P Singh'
tp39
a(S'1537656486'
S'Mridula Bhagat'
tp40
a(S'100000436900857'
S'Sushant Srivastava'
tp41
a(S'646769938'
S'Sanjay Sharma'
tp42
a(S'100001702037558'
S'Goutam Ghosh'
tp43
a(S'100000861593407'
S'Subir Verma'
tp44
a(S'100000445955853'
S'Avinash Jaiswal'
tp45
asS'id'
p46
S'100002825893461'
p47
sS'name'
p48
S'Prabhat Singh'
p49
s.