(dp1
S'friends'
p2
(lp3
(S'100004548817576'
S'Anjila Anand'
tp4
a(S'100002629746603'
S'Satyendra Kumar Arya'
tp5
a(S'100006969733275'
S'Danger Manish Manish Danger'
tp6
a(S'100003999735317'
p7
S'Reeva Abhishek'
tp8
a(S'100004749816238'
p9
S'Guddu Kumar'
tp10
a(S'100003769981772'
S'Ved Prakash Kumar'
tp11
a(S'100003249968053'
S'Ravi Prakash'
tp12
a(S'100002999458098'
S'Amar Kumar Mantu'
tp13
a(S'100002994164488'
S'Prakash Raj'
tp14
a(S'100004521666218'
S'Swapnali Bora'
tp15
a(S'100003643978792'
S'Ash Ima Barua'
tp16
a(S'100002801361119'
S'Sadhvi Sinha'
tp17
a(S'100004065140772'
S'Anju Gupta'
tp18
a(S'100004468838684'
S'Govind Kumar'
tp19
a(S'100003745806793'
S'Binay Kr'
tp20
a(S'100002644595961'
S'Birendra Kumar'
tp21
a(S'100004706191658'
S'Satya Prakash Arya'
tp22
a(S'100004567299117'
S'Chandan Kumar'
tp23
a(S'100004650973271'
S'Pooja Mishra'
tp24
a(S'100006393524213'
S'Mukesh Kumar'
tp25
a(S'100002686966157'
S'Mahbub Raj'
tp26
a(S'100004187112593'
S'Chandan Gope Jondish'
tp27
a(S'100004937264335'
S'Anuradha Kumari'
tp28
a(S'100003451670684'
p29
S'Neha Sharma'
tp30
asS'id'
p31
S'100004447871284'
p32
sS'name'
p33
S'Anand Raaz'
p34
s.