(dp1
S'friends'
p2
(lp3
(S'100008196542381'
S'Zubair Amjad Khan'
tp4
a(S'100005908246709'
S'Ali Raza'
tp5
a(S'100006914292953'
S'Shagufta Ejaz'
tp6
a(S'100007974341195'
S'Fakhar Abbas'
tp7
a(S'100000505568925'
S'Zoraiz Riaz'
tp8
asS'id'
p9
S'100000505568925'
p10
sS'name'
p11
S'Zoraiz Riaz'
p12
s.