(dp1
S'friends'
p2
(lp3
(S'100006498184332'
S'Nawrooz Mangal'
tp4
a(S'100006306037695'
S'\\u0628\\u0631\\u06cc\\u0627\\u0644\\u06cc \\u0627\\u0628\\u062f\\u0627\\u0644\\u06cc'
tp5
a(S'100002046455469'
S'Abid Khan'
tp6
a(S'100004240320611'
S'Dawlat Zadran'
tp7
a(S'100004456928320'
S'Ghoorzang Hotak'
tp8
a(S'100005930852125'
S'Usman Ahmadzai'
tp9
a(S'100007282475853'
S'Karan Rahil'
tp10
a(S'100002196955704'
S'Sahil Mangal'
tp11
a(S'100005463880509'
S'Atal Yassenzai'
tp12
a(S'100007016791884'
p13
S'Emal Mangal'
tp14
a(S'100005849983568'
S'Fawad Saighani'
tp15
a(S'100007655471418'
S'Breshna Amil'
tp16
a(S'100002085311776'
p17
S'Mena Mangal'
tp18
a(S'100006060014482'
p19
S'Goodar Zazai'
tp20
a(S'100008196904282'
S'Mokhtar Masoodi'
tp21
a(S'100006569921336'
S'Basit Ahmadzai'
tp22
a(S'100006853356179'
S'Tamana Mazari'
tp23
a(S'100004032916349'
S'Naeem Omaid'
tp24
a(S'100002376816017'
S'Baitullah Hameedi'
tp25
a(S'100006589094274'
S'Najibullah Zadran'
tp26
a(S'100001290028594'
S'Ellham Ahmadi'
tp27
a(S'100001683326645'
S'Gul Rangeen Mangal'
tp28
a(S'100004190351220'
S'Manzoor Sadiq'
tp29
a(S'100007856171943'
S'Bashirahmad Abdali'
tp30
a(S'100003275368283'
S'Arman Khan'
tp31
a(S'100005690411751'
S'Ghafar Qutbyar'
tp32
a(S'100004668791787'
S'Naveed Muhabbat'
tp33
a(S'100003560506377'
S'Ikram Ullah'
tp34
a(S'100004399267197'
S'Princess Liza'
tp35
a(S'100005106907211'
S'Shama Ashna'
tp36
a(S'100004227487746'
S'Sadiq Mangal'
tp37
a(S'100005044627364'
S'Pashtana Afghan'
tp38
a(S'100003161920217'
S'Shafiqullah Hameedi'
tp39
a(S'100007843263672'
p40
S'Khadija Sadat'
tp41
a(S'100003606822290'
S'Shahid Usman'
tp42
a(S'100005217640228'
S'Akbar Mangal'
tp43
a(S'100005493698759'
S'Imran Lalpurwal'
tp44
a(S'100001619933515'
p45
S'Abdul Hakim Hameed'
tp46
a(S'100002107211730'
S'Abdul Ghafar Mangal'
tp47
a(S'100008361451747'
S'Atiq Janatzai'
tp48
a(S'100003189317029'
S'Vrunda Shetty'
tp49
a(S'100004476823812'
S'\\u0648\\u0627\\u0631\\u062b \\u0645\\u0646\\u06af\\u0644'
tp50
a(S'100005261554218'
S'\\u0628\\u0627 \\u062f\\u0648\\u0633\\u062a\\u0627\\u0646'
tp51
a(S'100002715982844'
S'AH AD'
tp52
a(S'100005137592868'
S'Javid Amirkhil'
tp53
a(S'100001317140816'
S'\\u062a\\u0644\\u0648\\u06cc\\u0632\\u06cc\\u0648\\u0646 \\u0646\\u0648\\u0631'
tp54
a(S'100005006287645'
S'Hakeem Mangal'
tp55
a(S'100004898891943'
S'Mohammad Abubaker'
tp56
a(S'100004885303731'
S'Mulye Mulhyani'
tp57
a(S'100003922801225'
S'Dukhtar Afg Astm'
tp58
a(S'100005979064599'
S'Cricket Live'
tp59
a(S'100001269494272'
S'Edriss Yassenzai'
tp60
a(S'100001648211967'
S'Majeed Mangal'
tp61
a(S'100004389514825'
S'\\u0698\\u0648\\u0646\\u062f\\u069a\\u06a9\\u0644\\u06cc \\u062f\\u06cc'
tp62
a(S'100007800313558'
S'Ali Armani'
tp63
a(S'100004176005127'
S'Shabnam Bahar'
tp64
a(S'100004543121151'
p65
S'Qader Mangal'
tp66
a(S'100001734912213'
S'Abaseen Yassenzai'
tp67
a(S'100004495651366'
S'Sarmin Khan'
tp68
a(S'100004137031889'
S'Waliullah Noorzai'
tp69
a(S'100001609025411'
S'Hina Butt'
tp70
a(S'100003618106621'
S'Paighla Kabuly'
tp71
a(S'100006107709954'
S'\\u015at\\u00ffl\\u00ee\\u015bh B\\u00f6y \\u015ad\\u012f'
tp72
a(S'100002852248036'
S'Najeeb Rahime'
tp73
a(S'100003669826702'
S'Abdul Ahad Azizi'
tp74
a(S'100000756106035'
S'Mirwais Sadat'
tp75
a(S'100002863248290'
S'Neina Farhanha Khan'
tp76
a(S'100001575195609'
p77
S'Hakim Hameed'
tp78
a(S'100006494462062'
S'Fardin Tanha'
tp79
a(S'100006733892184'
S'Rahmatullah Khostai'
tp80
a(S'100002453270499'
S'Karim Hashmi'
tp81
a(S'100008212232938'
p82
S'Noor Rahman'
tp83
a(S'100004557390300'
S'Prince Ayaan'
tp84
a(S'100004303002912'
S'Joya Akter Sayma'
tp85
a(S'100005491470967'
S'Nawaz Sharif'
tp86
a(S'100005290782873'
S'Benazir Hamra'
tp87
a(S'100000512027372'
S'Abdullah OrYakhail'
tp88
a(S'100007434340823'
S'Bilal Yasinzai'
tp89
a(S'100004423840538'
S'\\u0631\\u0648\\u06cc\\u0627 \\u0627\\u0641\\u063a\\u0627\\u0646'
tp90
a(S'100003330310597'
S'Md Sani'
tp91
asS'id'
p92
S'100004847853387'
p93
sS'name'
p94
S'Merwais Mangal'
p95
s.