(dp1
S'home_link'
p2
Vhttps://www.facebook.com/l.php?u=https%3A%2F%2Fwww.bing.com%2Fmaps%2Fdefault.aspx%3Fv%3D2%26pc%3DFACEBK%26mid%3D8100%26where1%3D21.140000710643%252C%2B81.379852294922%26name%3DRaipur%26mkt%3Den-IN&h=oAQHkbS3i&s=1
p3
sS'name'
p4
S'Krishan Kumar Verma'
p5
sS'current_class'
p6
S'india'
p7
sS'home_text'
p8
VRaipur\u000aHometown
p9
sS'home_class'
p10
Vraipur, chhattisgarh, india
p11
sS'friends'
p12
(lp13
(S'100008181424763'
p14
S'Krishan Kumar Verma'
tp15
asS'id'
p16
g14
s.