(dp1
S'friends'
p2
(lp3
(S'1435621020'
S'Debashis Chakraborty'
tp4
a(S'100005494541054'
S'Dulal Chakraborty'
tp5
a(S'100002512146191'
S'Somnath Choudhury'
tp6
a(S'100001180124008'
S'Pinaki Chakrabarti'
tp7
a(S'100003378015731'
S'DrKishori Lal'
tp8
a(S'100000706329818'
S'Abhijit Saha'
tp9
a(S'100004519093127'
S'Girish Pande'
tp10
a(S'100002542942841'
S'Chandra Mohan Sinku'
tp11
a(S'100001408772954'
S'Kaberi Chborty'
tp12
a(S'100001071888436'
S'Damodar Chakrabarti'
tp13
a(S'100002072241607'
S'Sibankar Chakrabarti'
tp14
a(S'100001206447677'
S'Brajadulal Chakrabarti'
tp15
asS'id'
p16
S'100005802301836'
p17
sS'name'
p18
S'Damodar Chakrabarti'
p19
s.