(dp1
S'friends'
p2
(lp3
(S'1328145572'
S'Anurag Banerjee'
tp4
a(S'100004862640239'
S'Riya Kapoor'
tp5
a(S'100000089209767'
S'Dhruv Singhal'
tp6
a(S'100004012224079'
S'Reema Pasrija'
tp7
a(S'100004199435660'
S'Abhishek Verma'
tp8
a(S'100001059912619'
S'Raja Pandit'
tp9
a(S'1610689273'
S'Ritika Gupta'
tp10
a(S'100001530837536'
S'Smiley Aleena'
tp11
a(S'100000927240270'
S'Lovely Grover'
tp12
a(S'100000620232202'
S'Paryant Goyal'
tp13
a(S'100004097346705'
S'Vaishali Gururani'
tp14
a(S'508804021'
S'Rashi Choudhari'
tp15
a(S'100006315491615'
S'Mugdha Kiran'
tp16
a(S'100004133859892'
S'Sanju Sebastian'
tp17
a(S'100002441175739'
S'Chaudhary Deepak Singh'
tp18
a(S'100000673735543'
S'Akshat Bansal'
tp19
a(S'100000597732713'
S'Nimay Jindal'
tp20
a(S'1297493288'
S'Ishita Mathur'
tp21
a(S'100004350031614'
S'Robin John'
tp22
a(S'100000614172033'
S'Sanjana Anand'
tp23
a(S'100004202412396'
S'Vidit Pandit'
tp24
a(S'100006436637887'
S'Shri Ram'
tp25
a(S'100001407442556'
S'Siddhant Tejasvi Mishra'
tp26
a(S'100003841537119'
S'Harshit Sangwan'
tp27
a(S'1067409573'
S'Abhishek Chugh'
tp28
a(S'100001001986441'
S'Rijul Nirwal'
tp29
a(S'100001188770615'
S'Tanvi Agrawal'
tp30
a(S'100001700672743'
S'Divyesh Arya'
tp31
a(S'100001296415682'
S'Akanksha Verma'
tp32
a(S'100004107336413'
S'Juhi Prasad'
tp33
a(S'100001483887032'
S'Utsav Manga'
tp34
a(S'100000633649402'
S'George Joseph'
tp35
a(S'100006482482586'
S'Shazad Udwadia'
tp36
a(S'100001976008009'
S'Neha Singh'
tp37
a(S'100000586277082'
S'Atulya Kaushik'
tp38
a(S'100002668160889'
S'Sijo Abraham'
tp39
a(S'100001498891849'
S'Aakash Gupta'
tp40
a(S'100003038321446'
S'Sani Yadav'
tp41
a(S'100002390711053'
S'Akshay Dhoundiyal'
tp42
a(S'100001176676475'
S'Parth Chadha'
tp43
a(S'100003775470137'
S'Gaurish Kant Shukla'
tp44
a(S'100004552329354'
S'Ayushi Kathayat'
tp45
a(S'100002902799082'
S'Shivi Uppal'
tp46
a(S'100000050921608'
S'Shubham Ruhela'
tp47
a(S'100000371144083'
S'Apoorv Gupta'
tp48
a(S'100001408578022'
S'Shubhangi Purohit'
tp49
a(S'100001186160516'
S'Garvit Arora'
tp50
a(S'1312921555'
S'Mark Pavamani'
tp51
a(S'100002036947433'
S'Shifa Christina Nicholson'
tp52
a(S'100003087633112'
S'Shubhangi Purohit'
tp53
a(S'100003959722031'
S'Ashvatth Verma'
tp54
a(S'100003830487407'
S'Sorav De-wan'
tp55
a(S'100001986271455'
S'Madhav Kichlu'
tp56
a(S'100003290429431'
S'Neha Benjwal'
tp57
a(S'100002406898501'
S'Rachna Sati'
tp58
a(S'100000383750994'
S'Shweta Kirti'
tp59
a(S'100001288246202'
S'Pooja Sethi'
tp60
a(S'1056827795'
S'Yugam Soni'
tp61
a(S'100000935379679'
S'Anant Gemini'
tp62
a(S'100000536499573'
S'Neha Sharma'
tp63
a(S'1611290828'
S'Sagrika Chugh'
tp64
a(S'100000484138475'
S'\\u092f\\u0936 \\u0905\\u0930\\u094b\\u0930\\u093e'
tp65
a(S'1599934319'
S'Harshika Agarwal'
tp66
a(S'100002914071883'
S'Amarpreet Nayyar'
tp67
a(S'100002913393450'
S'Shubham Srivastava'
tp68
a(S'100001885363114'
S'Yashdeep Kumar'
tp69
a(S'100003965775318'
S'Amol Dhawan'
tp70
a(S'100002360165145'
S'Neha Sharma'
tp71
a(S'100001952133321'
S'Sonal Jain'
tp72
a(S'100001459651185'
S'Anant Cool'
tp73
a(S'100001905783606'
S'Deepak Dabral'
tp74
a(S'100001248489391'
S'Abhimanyu Mahajan'
tp75
a(S'100000745966623'
S'Rakesh Pal'
tp76
a(S'100001757416801'
S'Mohammad Adnan'
tp77
a(S'100001731344700'
S'Himangi Singhal'
tp78
a(S'1100142294'
S'Shubham Gandhi'
tp79
a(S'100002082349750'
S'Madhav Sharma'
tp80
a(S'1066764665'
S'Ujjwal Deep Garg'
tp81
a(S'100000227486857'
S'Shreya Chawla'
tp82
a(S'1636386248'
S'Shourya Awasthi'
tp83
a(S'100000668332263'
S'Pallav Gupta'
tp84
a(S'100002120845675'
S'Risha Bagchi'
tp85
a(S'1794724307'
S'Keshav Agarwal'
tp86
a(S'100002944673122'
S'Nishant Rastogi'
tp87
a(S'100001568250327'
S'Kunal Gupta'
tp88
a(S'100001098198479'
S'Ankit Verma'
tp89
a(S'100002013852952'
S'Vidushi Singh'
tp90
a(S'100003661482467'
S'Saavi Jindal'
tp91
a(S'100004101541400'
S'Aishvi Sharma'
tp92
a(S'100004516560128'
S'Anmol Mahajan'
tp93
a(S'100001023265356'
S'Aishwarya Chauhan'
tp94
a(S'100001116027994'
S'Rohan Agarwal'
tp95
a(S'100000067600638'
S'Mihir Kumar'
tp96
a(S'100001435418309'
S'Abhilash Teotia'
tp97
a(S'100000990699316'
S'Akhil Roadster'
tp98
a(S'100001584194803'
S'Sumit Chauhan'
tp99
a(S'100000348208878'
S'Divyanshi Gupta'
tp100
a(S'100002097663779'
S'Aarushi Chauhan'
tp101
a(S'100003827283030'
S'Samanth Reddy DS'
tp102
a(S'100001080655041'
S'Shubham Mittal'
tp103
a(S'100006252692387'
S'Dinesh Pinto'
tp104
a(S'100006539761199'
S'Abhinav Sharma'
tp105
a(S'100001040621014'
S'Abhimanyu Dhanda'
tp106
a(S'100005100304836'
S'Anmol Virmani'
tp107
a(S'1610187425'
S'Grusha Grace Victor'
tp108
a(S'100006484982593'
S'Ananya Mishra'
tp109
a(S'100006257051012'
S'Ayushi Jain'
tp110
a(S'100003012659238'
S'Jhalak Sharma'
tp111
a(S'1327779213'
S'Shruti Sethi'
tp112
a(S'100006817267890'
S'Nikhil Pathak'
tp113
a(S'100005628942113'
S'Prarit Singh Naresh'
tp114
a(S'100003663829100'
S'Divya Kundu'
tp115
a(S'100003804879148'
S'Nikita Gupta'
tp116
a(S'1772051861'
S'Divya Sebastian'
tp117
a(S'100000804071957'
S'Saloni Kansal'
tp118
a(S'100000662052996'
S'Sid Jhunjhunwala'
tp119
a(S'100004225061112'
S'Jaya Solanki'
tp120
a(S'100002164573100'
S'Poornima Gupta'
tp121
a(S'100001282166022'
S'Akanksha Verma'
tp122
a(S'100001915598228'
S'Kevin Varghese'
tp123
a(S'100000576084005'
S'Param Adiseshiah'
tp124
a(S'100006480866059'
S'Achyudanand Jha'
tp125
a(S'1745587305'
S'Sambit Mohanty'
tp126
a(S'1601154667'
S'Ashima Singh'
tp127
a(S'100006378880883'
S'Nishtha Singh'
tp128
a(S'100002262704544'
S'Vipin Gulati'
tp129
a(S'100006428391952'
S'Mitrajyoti Ghosh'
tp130
a(S'1129119922'
S'Ashwin Lingaiah'
tp131
a(S'100001803984995'
S'Udit Rajput'
tp132
a(S'100002105853897'
S'Rahul Mehra'
tp133
a(S'842574799'
S'Shinjini Kulkarni'
tp134
a(S'100007554011919'
S'Joshua Roy'
tp135
a(S'100002161890244'
S'Sunaina Srivastava'
tp136
a(S'100002138658051'
S'Mrinal Alexander'
tp137
a(S'1792012841'
S'Abi Thampi'
tp138
a(S'100001001623991'
S'Kabyashree Sonowal'
tp139
a(S'100002510198362'
S'Himanshu Bhasin'
tp140
a(S'100001368456498'
S'Vivek Malik'
tp141
a(S'100002771111577'
S'Darpan Nagpal'
tp142
a(S'100005725363095'
S'Sonia Mehta'
tp143
a(S'100002369586048'
S'Hritwik Ranjan'
tp144
a(S'100001960671865'
S'\\u00c0y\\u00fas\\u0127i \\u00c0g\\u00e0rw\\u00e0l'
tp145
a(S'100002059140108'
S'Rachna Gupta'
tp146
a(S'1046669987'
S'Urmi Uppal'
tp147
a(S'100003947290896'
S'Ayushi Solanki'
tp148
a(S'100000462738327'
S'Krishan Bishnoi'
tp149
a(S'1323537497'
S'Atul Kurisinkal'
tp150
a(S'1148764602'
S'Ritwick Chatterjee'
tp151
a(S'100004788570828'
S'Nidhi Vipin Khurana'
tp152
a(S'597933121'
S'Abel Thayil'
tp153
a(S'100001145677944'
S'Harshit Rajvanshi'
tp154
a(S'1482664688'
S'Nayan Aggarwal'
tp155
a(S'100003605000418'
S'Abhishek Sharma'
tp156
a(S'1304161362'
S'Karan Gupta'
tp157
a(S'100004040742358'
S'Aditendra Singh Chandel'
tp158
a(S'100004989547636'
S'Aanchal Tiwari'
tp159
a(S'1814506762'
S'Nandil Bhatia'
tp160
a(S'100001757867880'
S'Mradul Gupta'
tp161
a(S'100003206221385'
S'Divya Sharma'
tp162
a(S'100002507078563'
S'Palak Agarwal'
tp163
a(S'100002082293217'
S'Rangoli Rana'
tp164
a(S'100004236704238'
S'Pragati Mishra'
tp165
a(S'100001656273852'
S'Ashish Singh'
tp166
a(S'100005079663657'
S'Vaishali Rana'
tp167
a(S'100000707521656'
S'Aravya Sharma'
tp168
a(S'1563319321'
S'Digvijay Singh'
tp169
a(S'100001770347331'
S'Pushkar Singhal'
tp170
a(S'100001413776229'
S'Himanshu Asthana'
tp171
a(S'100002237737527'
S'Prateek Mithal'
tp172
a(S'100004936175171'
S'Tushar Arora'
tp173
a(S'100000453538914'
S'Pooja Singh'
tp174
a(S'100001351577131'
S'Apoorv Khurana'
tp175
a(S'100001242238362'
S'Shivam Dixit'
tp176
a(S'100002886663879'
S'Preethish Raja'
tp177
a(S'100001212791344'
S'Rishabh Dixit'
tp178
a(S'100000934338364'
S'Jordan Kinchum Tshering Namchu'
tp179
a(S'100000090358899'
S'Neeraj Dhawan'
tp180
a(S'1264708135'
S'Saiket Talukdar'
tp181
a(S'100001956648215'
S'Apaar Rastogi'
tp182
a(S'100002746105363'
S'Nimisha Aggarwal'
tp183
a(S'1627385259'
S'Anithasree Athiyaman'
tp184
a(S'100002966317315'
S'Piyush Gupta'
tp185
a(S'100004129420334'
S'Kunal Yadav'
tp186
a(S'1448228746'
S'Taisha Antony'
tp187
a(S'100001348102822'
S'Shubham Agarwal'
tp188
a(S'100000016895099'
S'Shivansh Sharma'
tp189
a(S'1788736185'
S'Srijan Sehgal'
tp190
a(S'100001120867282'
S'Abhinav Jha'
tp191
a(S'100000180735435'
S'Ajay Gupta'
tp192
a(S'100003693284527'
S'Theresa John Mangalath'
tp193
a(S'100003013039904'
S'Shantanu Sharma'
tp194
a(S'100001542578358'
S'Rajat Garg'
tp195
a(S'557630277'
S'Antony Aron'
tp196
a(S'100002199519081'
S'Prabhat Gautam'
tp197
a(S'100001641160459'
S'Sudhanshu Singh Panwar'
tp198
a(S'100001381200784'
S'Akshay Kumar Saxena'
tp199
a(S'100005246687188'
S'Shantanu Sharma'
tp200
a(S'100003208917010'
S'Smriti Lohia'
tp201
a(S'100003663491252'
S'Saksham Maggu'
tp202
a(S'100001534816738'
S'Soumyajit Kar'
tp203
a(S'100001992691448'
S'Prince Mathew'
tp204
a(S'100000609043373'
S'Ashok Vardhan'
tp205
a(S'100002254477229'
S'Deekshita Saikia'
tp206
a(S'100003484399198'
S'Akansha Bansal'
tp207
a(S'100002185258944'
S'Rick Bhardwaj'
tp208
a(S'100002253882202'
S'Sum Singh Chauhan'
tp209
a(S'100001583693846'
S'Yash Attaray'
tp210
a(S'1491499430'
S'Ak Tho'
tp211
a(S'100000522688342'
S'Archit Gupta'
tp212
a(S'100002372822753'
S'Sushil Singla'
tp213
a(S'100000332472637'
S'Sambodhi Sarkar'
tp214
a(S'100001403158707'
S'Daisy Mowke'
tp215
a(S'100001431129327'
S'Anuj Chauhan'
tp216
a(S'609542603'
S'Satyaki Dhar'
tp217
a(S'1472075522'
S'Shatakshi Sharma'
tp218
a(S'100001344947006'
S'Cool Akshay'
tp219
a(S'100001103841639'
S'Shubhda Gupta'
tp220
a(S'1532355892'
S'Samuel Augustin'
tp221
a(S'100002865176310'
S'Sumit Chauhan'
tp222
a(S'100000274724419'
S'Malvika Sejwal'
tp223
a(S'1826830271'
S'Abhimanyu Bhardwaj'
tp224
a(S'100001568013207'
S'Monika Garg'
tp225
a(S'100001006241593'
S'Disha Aggarwal'
tp226
a(S'100005005652549'
S'Apurv Manglik'
tp227
a(S'100002679478660'
S'Nitesh K. Mahlawat'
tp228
a(S'100001467209133'
S'Swati Kushwaha'
tp229
a(S'548344709'
S'Raghav Dahuja'
tp230
a(S'1182701072'
S'Anu Nagpal'
tp231
a(S'1502233661'
S'Shubham Jain'
tp232
a(S'100000996245876'
S'Anchit Gupta'
tp233
a(S'1431432526'
S'Pankhuri Malik'
tp234
a(S'100000836100942'
S'Dipti Roy'
tp235
a(S'1675055431'
S'Harshvardhan Sawal'
tp236
a(S'100000245740327'
S'Prakshal Jain'
tp237
a(S'100002553563307'
S'Atul Kumar'
tp238
a(S'1838943911'
S'Harman Kour'
tp239
a(S'1615018224'
S'Mahasweta Bagchi'
tp240
a(S'1231585611'
S'Neha Singh'
tp241
a(S'100001517840393'
S'Juhi Jain'
tp242
a(S'100002638126604'
S'Koel Bhatia'
tp243
a(S'100003234324968'
S'Shantanu Sharma'
tp244
a(S'100004147901039'
S'Naman Khanna'
tp245
a(S'100003219863332'
S'Rachit Bansal'
tp246
a(S'100001093637987'
S'Maitraiyee Tiwari'
tp247
a(S'609864222'
S'Karan Rai'
tp248
a(S'1201299484'
S'Sudhir Pratap Singh Charan'
tp249
a(S'100001349596446'
S'Sarthak Yadav'
tp250
a(S'100001840748329'
S'Tanu Priya'
tp251
a(S'100002207933205'
S'Neetu Gupta'
tp252
a(S'100000061376408'
S'Mathew Johnson'
tp253
a(S'100001775905045'
S'Vishal Parashar'
tp254
a(S'100003817057990'
S'Abhisar Rastogi'
tp255
a(S'100000045652066'
S'Sonali Verma'
tp256
a(S'100002435597802'
S'Prateek Mithal'
tp257
a(S'100002933040699'
S'Zakir Hussain'
tp258
a(S'100002694603724'
S'Sanket Goel'
tp259
a(S'100001623584927'
S'Aastha Sharma'
tp260
a(S'100000096322912'
S'Vipul Goel'
tp261
a(S'100001298691936'
S'Aditya Dwivedi'
tp262
a(S'100001207174115'
S'Shubhi Aggarwal'
tp263
a(S'1505078942'
S'Tarang Singhal'
tp264
a(S'100000246384525'
S'Abhinav Joshi'
tp265
a(S'100003117351970'
S'Kritika Aggarwal'
tp266
a(S'100001880830711'
S'Aishwarya Chhabra'
tp267
a(S'100001833930978'
S'Apaar Rastogi'
tp268
a(S'100002004022676'
S'Sanket Goel'
tp269
a(S'100004417653835'
S'Gaurav Arora'
tp270
a(S'1062439600'
S'Abhisek Ghosh'
tp271
a(S'1423143638'
S'Manu Bhatia'
tp272
a(S'100000607724519'
S'Prachi Shukla'
tp273
a(S'525819598'
S'Shreshta Venkataramanan'
tp274
a(S'100001667707478'
S'Shubham Vaidya'
tp275
a(S'100001256252424'
S'Navdha Agarwal'
tp276
a(S'100003038951439'
S'Rohit Kumar'
tp277
a(S'100002197389224'
S'Mayur Choudhary'
tp278
a(S'100002543573921'
S'Love Law'
tp279
a(S'100001743680601'
S'Neena Dureja'
tp280
a(S'100002383053925'
S'Bindiya Makhija'
tp281
a(S'100004070646496'
S'Karan Kamra'
tp282
a(S'100003016346246'
S'Pulkit Bansal'
tp283
a(S'100001492009478'
S'Rohit Mahajan'
tp284
a(S'100001498803313'
S'Diksha Kumar'
tp285
a(S'100005707712307'
S'Sonu Chhillar'
tp286
a(S'100002595375059'
S'Amy Binny Philip'
tp287
a(S'100000526978084'
S'Abhinav Yuvraj Khurana'
tp288
a(S'100002350948008'
S'Harsh Soni'
tp289
a(S'100002155627393'
S'\\u0936\\u093f\\u0916\\u0930 \\u0905\\u0917\\u094d\\u0930\\u0935\\u093e\\u0932'
tp290
a(S'1591644449'
S'Kavya Rastogi'
tp291
a(S'100002880297642'
S'Shrey Singhal'
tp292
a(S'100002287289181'
S'Saumya Sangar'
tp293
a(S'100002302695626'
S'Akshay Kanojia'
tp294
a(S'100001415267958'
S'Karishma Yadav'
tp295
a(S'1272607240'
S'Soumya Gera'
tp296
a(S'534389427'
S'Risheek Raj Srivastava'
tp297
a(S'100001018560764'
S'Amul Mittal'
tp298
a(S'100006388323096'
S'Anas Ahmed Qazi'
tp299
a(S'100004306562321'
S'Payal Mitra'
tp300
a(S'100006265057966'
S'Sukriti Goel'
tp301
a(S'100002460285680'
S'Shubhanshu SaXena'
tp302
a(S'100004471350956'
S'Saurabh Aggarwal'
tp303
a(S'100003027886535'
S'Sonu Wadhwa'
tp304
a(S'100000200844432'
S'Ankush Srivastava'
tp305
a(S'100002640823344'
S'Deepak Kumar'
tp306
a(S'100003468566395'
S'Saloni Malhotra'
tp307
a(S'545048072'
S'Prabhat Chatterjee'
tp308
a(S'100002470017403'
S'Nidhi Singh'
tp309
a(S'640068848'
S'Kevin Ilango'
tp310
a(S'1493471560'
S'Natasha Garg'
tp311
a(S'100001450151194'
S'Gaurav Arora'
tp312
a(S'100001504250213'
S'Aditya Garg'
tp313
a(S'100000581614662'
S'Abhinav Kumar'
tp314
a(S'100004366412846'
S'Atima Shahi'
tp315
a(S'100005221781176'
S'Yashi Chaudhary'
tp316
a(S'100004027236848'
S'Pooja Mahajan'
tp317
a(S'100006337920677'
S'Abhishek Verma'
tp318
a(S'100000184009054'
S'Jonathan David George'
tp319
a(S'100001707216773'
S'Akansha Baliyan'
tp320
a(S'1790164271'
S'Syed Faizan Bukhari'
tp321
a(S'803745827'
S'Avnika Jain'
tp322
a(S'100002017502497'
S'Dipanshu Gahalout'
tp323
a(S'100000790838414'
S'Abhishar Srivastava'
tp324
a(S'100002173765340'
S'Tarun Sharma'
tp325
a(S'100001190210358'
S'Ashish Tiwari'
tp326
a(S'100000926275028'
S'Ayushi Gupta'
tp327
a(S'100001424075337'
S'Avneesh Singh'
tp328
a(S'100005314331856'
S'Atul Kumar'
tp329
a(S'100002554657137'
S'Prashant Sharma'
tp330
a(S'100006779042316'
S'Shivani Sharma'
tp331
a(S'1139417237'
S'Yashpal Singh'
tp332
a(S'100003670816812'
S'Swati Nigam'
tp333
a(S'100001899066128'
S'Malik Rohit'
tp334
a(S'100001189528120'
S'Abh\\u00efsh\\u00e9k V\\u00e9rm\\u00e0'
tp335
a(S'100001422910479'
S'Ashish Mamgain'
tp336
a(S'100003987401772'
S'Avnee Gaur'
tp337
a(S'100000226859262'
S'Deepika Kalyan'
tp338
a(S'100002346074477'
S'Anil Bhaskar'
tp339
a(S'100002572389930'
S'Dipesh Kapil'
tp340
a(S'100002175431809'
S'Shubham Jain'
tp341
a(S'100003922651589'
S'Yashika Ranjan'
tp342
a(S'100002675294662'
S'Neha Nag'
tp343
a(S'100000949731540'
S'Rishabh Bhardwaj'
tp344
a(S'100001682608140'
S'Manika Singh'
tp345
a(S'639343096'
S'Kevin Samuel Vineeth'
tp346
a(S'100002073654219'
S'Tapan Agarwal'
tp347
a(S'100001214949550'
S'Ankita Jain'
tp348
a(S'622561383'
S'Rohan Jha'
tp349
a(S'100002143783866'
S'Arpit Goel'
tp350
a(S'100001908823993'
S'Anant Cool'
tp351
a(S'100002523050537'
S'Agarwal Aakash'
tp352
a(S'100002467972564'
S'Vipul Kumar'
tp353
a(S'100002085117465'
S'Vivek Arora'
tp354
a(S'100004602840116'
S'Nikhila Singh'
tp355
a(S'100001959071559'
S'Sonal Agarwal'
tp356
a(S'100001425985239'
S'Atul Rana'
tp357
a(S'100000977829585'
S'Dhanraj Karel'
tp358
a(S'100004334351839'
S'Anmol Goel'
tp359
a(S'100002534334247'
S'Ujjawal Rastogi'
tp360
a(S'100001141270104'
S'Prachi Sisodiya'
tp361
a(S'100003030923787'
S'Ashish Sengar'
tp362
a(S'100005627111369'
S'Chhaya Mehra'
tp363
a(S'100001434646203'
S'Vikram Singh'
tp364
a(S'100000324692193'
S'Sidhant JJw'
tp365
a(S'100000935082960'
S'Adithi Anand'
tp366
a(S'100001179580065'
S'Saurabh Dhiman'
tp367
a(S'1056608547'
S'Niket Sreyak'
tp368
a(S'100000321339114'
S'Kantshri Baronia'
tp369
a(S'100003994472315'
S'Shivam Gautam'
tp370
a(S'100002313039601'
S'Atulya Kaushik'
tp371
a(S'100006757444161'
S'Manisha Arora'
tp372
a(S'1624092635'
S'Akash Verma'
tp373
a(S'100001063677102'
S'Sukrit Joshi'
tp374
a(S'100000121361623'
S'Archit Gupta'
tp375
a(S'1227303855'
S'Atul Kumar'
tp376
a(S'100000866885472'
S'Mishika Garg'
tp377
a(S'733326988'
S'Amal Jahan'
tp378
a(S'100002010155006'
S'Gauri Manglik'
tp379
a(S'100001800478951'
S'Sanchit Gandhi'
tp380
a(S'100003273764305'
S'Richa Singh'
tp381
a(S'100001237479326'
S'Aditya Chaturvedi'
tp382
a(S'1252741009'
S'Saloni Goel'
tp383
a(S'100003633541847'
S'Rajneesh Seth'
tp384
a(S'100000956288346'
S'Shubham Chandra'
tp385
a(S'714636082'
S'Rahul Kuruvilla Mathew'
tp386
a(S'100001309205604'
S'Garima Singh'
tp387
a(S'100001552552883'
S'Vaibhav Gulati'
tp388
a(S'100001607593796'
S'Sharon Thomas'
tp389
a(S'1241481613'
S'Reuben Das'
tp390
a(S'100001351338828'
S'Sam John'
tp391
a(S'100004558152284'
S'Swati Kushwaha'
tp392
a(S'100006211514553'
S'Karan Agrawal'
tp393
a(S'100001171958828'
S'Basit Malik'
tp394
a(S'1337460254'
S'Mitali Poovayya'
tp395
a(S'100002009271874'
S'Shivani Pandey'
tp396
a(S'100001713834408'
S'Durvesh Kumar'
tp397
a(S'1019804907'
S'Mrittunjoy Guha Majumdar'
tp398
a(S'100003178170305'
S'Prateek Katiyar'
tp399
a(S'100002390079696'
S'Tarun Pahwa'
tp400
a(S'100000965976519'
S'Akshay Chopra'
tp401
a(S'100000069098863'
S'Cyril Thomas'
tp402
a(S'100003675040053'
S'Prasheel Gupta'
tp403
a(S'100002135104485'
S'Tejesvi Gupta'
tp404
a(S'100001670647635'
S'Palak Sharma'
tp405
a(S'100000854183742'
S'Shubham Vaidya'
tp406
a(S'100001363834843'
S'Tanya Lamba'
tp407
a(S'100000304849132'
S'Anoothi Kumar'
tp408
a(S'100002166228316'
S'Mohd Zzaid'
tp409
a(S'100003728842021'
S'Deepak Dhameja'
tp410
a(S'100000903145194'
S'Gyati Gupta'
tp411
a(S'100001237720967'
S'Nishith Kumar'
tp412
a(S'558260150'
S'Aditi Dey'
tp413
a(S'1103001687'
S'Ajit Deshpande'
tp414
a(S'100003839294916'
S'Dikshant Bansal'
tp415
a(S'100001196749827'
S'Cool Akshay'
tp416
a(S'1431891131'
S'Sherry Verma'
tp417
a(S'100002542017404'
S'Neha Nag'
tp418
a(S'100003990855282'
S'Astha Mishra'
tp419
a(S'100002797456213'
S'Jatin Saxena'
tp420
a(S'100001687432531'
S'Sam Chopra'
tp421
a(S'100003715782040'
S'Divya Arora'
tp422
a(S'100003289568594'
S'Revant Sharma'
tp423
a(S'100002320615885'
S'Rishab Negi'
tp424
a(S'100003084558098'
S'Shubhangi Purohit'
tp425
a(S'1451360734'
S'Rajat Das'
tp426
a(S'100002356493291'
S'Chirag Singh'
tp427
a(S'1582595543'
S'Vidhi Sakhuja Kakkar'
tp428
a(S'100002011606419'
S'Aksh Saxena'
tp429
a(S'100004122223178'
S'Rahul Dev'
tp430
a(S'100003718771904'
S'Aditya Tomar'
tp431
a(S'100001816047972'
S'Abhinav Baruah'
tp432
a(S'1593084569'
S'Sachu Sanil Chemmalakuzhy'
tp433
a(S'1843722964'
S'Anjini Bist'
tp434
a(S'100001396029863'
S'Nalin Gupta'
tp435
a(S'100003107686452'
S'Kunal Gupta'
tp436
a(S'647584679'
S"Raghav 'Roalts' Apoorv"
tp437
a(S'100003894626005'
S'Pooja Singh'
tp438
a(S'100001573920449'
S'Shantanu Sharma'
tp439
a(S'100002170534319'
S'Sameera Garg'
tp440
a(S'1002413866'
S'Khare Ojas'
tp441
a(S'100002427976123'
S'Nishant Rastogi'
tp442
a(S'100000963217018'
S'Dhruv Gandhi'
tp443
a(S'100002379588222'
S'Arun Chaudhary'
tp444
a(S'100003873219967'
S'Siddhant Sisodiya'
tp445
a(S'592846511'
S'Steffi Cherian'
tp446
a(S'100003743638988'
S'Ridhi Madan'
tp447
a(S'100002755528211'
S'Akash Verma'
tp448
a(S'100001754772761'
S'Tanya Singhal'
tp449
a(S'100000692065691'
S'Kartik Gupta'
tp450
a(S'100001867507711'
S'Leah Chrestien'
tp451
a(S'1162416341'
S'Rajat Sharma'
tp452
a(S'100001263157077'
S'Shubham K. Agarwal'
tp453
a(S'100000473118246'
S'Jismol Joy'
tp454
a(S'100003505081134'
S'Shivam Garg'
tp455
a(S'100000500151426'
S'Avni Agarwal'
tp456
a(S'100002200782195'
S'Priya Arora'
tp457
a(S'100001647756473'
S'Vijay Kaushik'
tp458
a(S'100000327205522'
S'Jai Vardhan Singh'
tp459
a(S'100002191291298'
S'Lakshya Rana'
tp460
a(S'100002224504321'
S'Arushi Batra'
tp461
a(S'100001053066078'
S'Deepankar Mathur'
tp462
a(S'511220635'
S'Anagha Vasudevan'
tp463
a(S'100008364638801'
S'Hamza Khan'
tp464
a(S'100002270411937'
S'Rajeev Ghotar'
tp465
a(S'100002987819159'
S'Jahnavi Nannapaneni'
tp466
a(S'100001433348395'
S'Ank Gupta'
tp467
a(S'1148668236'
S'Chetan Chawla'
tp468
a(S'100002023489804'
S'Anu Saxena'
tp469
a(S'100002261652403'
S'Rishub Napster Sharma'
tp470
a(S'100001275005922'
S'Amit Panwar'
tp471
a(S'100000892936084'
S'Meena Dogra'
tp472
a(S'100002063331302'
S'Anjali Godyal'
tp473
a(S'100001387988406'
S'Abhinav Rastogi'
tp474
a(S'100001821706695'
S'Pawan Kumar'
tp475
a(S'100004058208556'
S'Niti Mahajan'
tp476
a(S'100000933166502'
S'Sajal Mutreja'
tp477
a(S'100005586635603'
S'Avneesh Singh'
tp478
a(S'100003881137532'
S'Ashu Yadav'
tp479
a(S'100001865098273'
S'Rahul Singh'
tp480
a(S'1761973923'
S'Manu Bhatia'
tp481
a(S'100001238945211'
S'Sarvagya Jain'
tp482
a(S'1012920889'
S'Tushar Mathur'
tp483
a(S'100001654350715'
S'Rachna Sati'
tp484
a(S'100001771209088'
S'Alisha Roy'
tp485
a(S'100002419946510'
S'Aditya Pratap Singh'
tp486
a(S'100000984017991'
S'Karan Mahajan'
tp487
a(S'1645640382'
S'Arjoonn Sharma'
tp488
a(S'100001225000825'
S'Sarthak Gupta'
tp489
a(S'100003825603201'
S'Shivani Singh'
tp490
a(S'100001847153465'
S'Bhaskar Sharma'
tp491
a(S'100000722529762'
S'Tanya Sharma'
tp492
a(S'100001939850425'
S'Shubham Tyagi'
tp493
a(S'100001013956627'
S'Deepanshu Mahajan'
tp494
a(S'682305666'
S'Naman Chaudhary'
tp495
a(S'100003970639057'
S'Ruchir Agarwal'
tp496
a(S'1668459153'
S'Roy Joseph'
tp497
a(S'100001782581332'
S'Avnee Gaur'
tp498
a(S'100002488047167'
S'Sonal Gambhir'
tp499
a(S'1615009333'
S'Akshay Goel'
tp500
a(S'100003262697697'
S'Deepanshu Mahajan'
tp501
a(S'100001288519703'
S'Prachi Maheshwari'
tp502
a(S'100000369910786'
S'Jaya Arora'
tp503
a(S'1527159556'
S'Tushar Mishra'
tp504
a(S'100001213531104'
S'Shubham Tripathi'
tp505
a(S'100004606053755'
S'Vaibhav Srivastava'
tp506
a(S'100005652701280'
S'Ananya Filbert'
tp507
a(S'100000182892864'
S'Era Agarwal'
tp508
a(S'100005077512488'
S'Apoorv Khurana'
tp509
a(S'1319134637'
S'Ishan Taneja'
tp510
a(S'1312204917'
S'Ribhav Pande'
tp511
a(S'100003064206752'
S'Shakti Singh Arya'
tp512
a(S'100002734546767'
S'Somya Ohri'
tp513
a(S'100000734829306'
S'Saksham Kathuria'
tp514
a(S'100000668200598'
S'Shubham Goel'
tp515
a(S'100004031988379'
S'Apurv Gupta'
tp516
a(S'100000278045946'
S'Aditya Shailaj'
tp517
a(S'100001445187585'
S'Mansi Gupta'
tp518
a(S'100003100901574'
S'Adhitesh Chauhan'
tp519
a(S'100002403431652'
S'Kopal Dixit'
tp520
a(S'100001086550632'
S'Shikha Verma'
tp521
a(S'100006164170265'
S'Shubham Saxena'
tp522
a(S'100003147557707'
S'Pooja Tyagi'
tp523
a(S'100004928913204'
S'Aman Kataria'
tp524
a(S'100001988937930'
S'Chandrima Attri'
tp525
a(S'100001336967577'
S'Debayan Saha'
tp526
a(S'1449146414'
S'Pulkit Aggarwal'
tp527
a(S'100003761041195'
S'Disha Bhatnagar'
tp528
a(S'100000766758263'
S'Ayush Naresh Kumar'
tp529
a(S'100003118391206'
S'Vaishali Gururani'
tp530
a(S'100001095133061'
S'Isaac George Varghese'
tp531
a(S'100002874033227'
S'Anu Jose'
tp532
a(S'667209688'
S'Satender Singh Vijayran'
tp533
a(S'100004879355005'
S'Wodehouse Ssc'
tp534
a(S'1839799153'
S'Varun Rathi'
tp535
a(S'100001009208852'
S'Shreya Jain'
tp536
a(S'1532321950'
S'Adita Bhatia'
tp537
a(S'100002069546128'
S'Sahil Arora'
tp538
a(S'100003781604979'
S'Shreya Jain'
tp539
a(S'100001399195371'
S'Anuj Pratap Chauhan'
tp540
a(S'100004530490431'
S'Pulkit Bhardwaj'
tp541
a(S'100001240150776'
S'Shubham Bhardwaj'
tp542
a(S'100006453032141'
S'Shivkumar Raghuwanshi'
tp543
a(S'100001063891756'
S'Anshul Jindal'
tp544
a(S'100002115813724'
S'Shubham Thakur'
tp545
a(S'100002051254651'
S'Anushka Yadav'
tp546
a(S'100000729759879'
S'Jeffrey Mathews'
tp547
a(S'100001230607618'
S'Shubham Dixit'
tp548
a(S'700366310'
S'Harshit Maloo'
tp549
a(S'100002514361821'
S'Ashish Vig'
tp550
a(S'702251169'
S"Leroy Leo D'Souza"
tp551
a(S'100002660655416'
S'Prakhar Srivastava'
tp552
a(S'100000365192561'
S'Romin Zuberi'
tp553
a(S'100003968793857'
S'\\u30c7\\u30a4\\u30d4\\u30ab \\u30cd\\u30ae'
tp554
a(S'1018857597'
S'Rajat Philip'
tp555
a(S'100002105035808'
S'Namit Mittal'
tp556
a(S'100003972236824'
S'Muskan Agarwal'
tp557
a(S'100000048252814'
S'Ishant Kumar'
tp558
a(S'1491047093'
S'Divye Rastogi'
tp559
a(S'100002418484957'
S'Kartik Kaushal'
tp560
a(S'100000974241905'
S'Adity\\u00e4 Bh\\u00e4rdw\\u00e4j'
tp561
a(S'100003722458887'
S'Vishal Sharma'
tp562
a(S'100000554451756'
S'Shruti Singhal'
tp563
a(S'100002768350203'
S'Rajneesh Seth'
tp564
a(S'100004106151519'
S'Megha Bansal'
tp565
a(S'100004243295729'
S'Shubham Vainiwal'
tp566
a(S'100002075508772'
S'Siddharth Meher'
tp567
asS'id'
p568
S'100000622956548'
p569
sS'name'
p570
S'Gagan Mahajan'
p571
s.