(dp1
S'friends'
p2
(lp3
(S'100008116718184'
S'Priya Kaur'
tp4
a(S'100001446435739'
S'Ravi Singh'
tp5
a(S'100004544886165'
S'Pinky Kri'
tp6
a(S'100008206566346'
S'Priya Arora'
tp7
asS'id'
p8
S'100001446435739'
p9
sS'name'
p10
S'Ravi Singh'
p11
s.