(dp1
S'friends'
p2
(lp3
(S'100006043410976'
S'Ranjan Kumar'
tp4
a(S'100003874847638'
S'Ashish Haldar'
tp5
a(S'733164971'
S'Sriram MV'
tp6
a(S'100002542039170'
S'Latif Ahamad Ahamad'
tp7
a(S'100006039581172'
S'Anoop Khanna'
tp8
a(S'100002338796693'
S'Vishal Rawat'
tp9
a(S'100002114507346'
S'Inderjeet Singh'
tp10
a(S'571083988'
S'Tapas Tandon'
tp11
a(S'100001582000934'
S'Apoorva Shashank Gupta'
tp12
a(S'100000883430077'
S'Amit Nagar'
tp13
a(S'100000682375562'
S'Amit Srivastava'
tp14
a(S'100005691732955'
S'Raj Kishore Bajpai'
tp15
a(S'1342643734'
S'Gagan Joshi'
tp16
a(S'100002969374922'
S'Deepak Shah'
tp17
a(S'1696734826'
S'Sandeep Bhatnagar'
tp18
a(S'100007605909141'
S'Brijendra Kumar Tripathi'
tp19
a(S'646142871'
S'Silk Smita'
tp20
a(S'100001765637004'
S'Suresh Kumar'
tp21
a(S'100000695648717'
S'Ikramul Haq'
tp22
a(S'100002900325726'
S'Devendra Chandra Lohumi'
tp23
a(S'1217308643'
S'Sundeep Chugh'
tp24
a(S'1001231971'
S'Sandeep Gupta'
tp25
a(S'100002288020777'
S'Nitin Pandey'
tp26
a(S'100001430230395'
S'Vaidyanathan Radhakrishnan'
tp27
a(S'100003568187830'
S'Nawal Saksena'
tp28
a(S'100004234261698'
S'Krishan Kumar Mathur'
tp29
a(S'1620665450'
S'Sanjeev Mehtani'
tp30
a(S'1337960656'
S'Aditya Ghildyal'
tp31
a(S'1649523920'
S'Kishan Bisht'
tp32
a(S'100002033244559'
S'Kumar Sanjoy'
tp33
a(S'100001241375337'
S'Kutty Trivedi'
tp34
a(S'100001334885708'
S'Avanish Pant'
tp35
a(S'100002640252764'
p36
S'Ashutosh Verma'
tp37
a(S'100004433144354'
S'Rajesh Rodricks'
tp38
a(S'1044820496'
S'Vivek Chitravanshi'
tp39
a(S'100000838977311'
S'Deepak Shah'
tp40
a(S'1402985747'
S'Abhishek Prasad'
tp41
a(S'100004447123081'
S'Vinod Singh'
tp42
a(S'100000998086321'
S'Ashish Mehrotra'
tp43
a(S'100000963857464'
S'Sanjay Bisht'
tp44
a(S'100003842221230'
S'Shilpi Verma'
tp45
a(S'1510704459'
S'Rakesh Kumar Arora'
tp46
a(S'100002507124158'
S'Sarwar Rizvi'
tp47
a(S'1759313222'
S'Madhumita Pant'
tp48
a(S'100001552214369'
S'Vipul Chitravanshi'
tp49
a(S'100002132261362'
S'N Mohan Rao'
tp50
a(S'100001527817227'
S'Arjun Prasad Jaiswal'
tp51
a(S'100004299605928'
S'Arun Srivastava'
tp52
a(S'668578061'
S'Rakesh Jha'
tp53
a(S'100000473933612'
S'\\u0921\\u0949. \\u0938\\u0941\\u092d\\u093e\\u0937 \\u091a\\u0928\\u094d\\u0926\\u094d\\u0930 \\u0925\\u0932\\u0947\\u0921\\u0940'
tp54
a(S'100001502659350'
S'Sanjay Sharma'
tp55
a(S'100000746685555'
S'Vidya Sagar Sarkar'
tp56
a(S'100000178568235'
S'Dinesh Mohan'
tp57
a(S'100002375777034'
S'Jainarayan Singh'
tp58
a(S'1355430427'
S'Chandra Nath Banerji'
tp59
a(S'100002095278418'
S'Shri Prakash Tripathi'
tp60
a(S'100003113783238'
S'Rajendra Bisht'
tp61
a(S'1038498625'
S'Mukesh Singh'
tp62
a(S'100001905573049'
S'Chandra Ballabh Maithani'
tp63
a(S'100000012296346'
S'Madhukar Kant'
tp64
a(S'100002569495558'
S'Vinod Chandra'
tp65
a(S'100000646632098'
S'Vimal Shrivastava'
tp66
a(S'100002922552965'
S'Alok Tandon'
tp67
a(S'100001934147403'
S'Prabodh Seth'
tp68
a(S'1163959869'
S'Pragya Singh Bisen'
tp69
a(S'100002424234433'
S'Ashok Chaddha'
tp70
a(S'100003519124805'
S'Rakesh Singh'
tp71
a(S'1727302928'
S'Lalit Kumar Tarachandani'
tp72
a(S'595629126'
S'Piyush Kumar Singh'
tp73
a(S'100000214133291'
S'Rahul Tripathi'
tp74
a(S'100001126903566'
S'Rajiv Gupta'
tp75
a(S'100001807310102'
S'Banerji Chandra Nath'
tp76
a(S'100004580679747'
S'Manoj Tiwari'
tp77
a(S'100001298241319'
S'Alok Mittal'
tp78
a(S'100003607263346'
S'Ranjeet Sinha'
tp79
a(S'100001054333082'
S'Uttam Vaish'
tp80
a(S'100002657852233'
S'Som Prakash Singh'
tp81
a(S'790509258'
S'Puneet Panthary'
tp82
a(S'100000257823623'
S'Richa Kanaujia'
tp83
a(S'100001905641880'
S'Dee Kay Sharma'
tp84
a(S'651098632'
S'Kaushal Joshi'
tp85
a(S'770234926'
S'Ashish Pant'
tp86
a(S'100000630069078'
S'Manish Srivastava'
tp87
a(S'1327373064'
S'Kumar Abhishek'
tp88
a(S'100002691471564'
S'Sandeep Rawat'
tp89
a(S'100000429927789'
S'Gautam Valechha'
tp90
a(S'1379270389'
S'Anup Pant'
tp91
a(S'100001776801013'
S'Singh Vinod Kumar'
tp92
a(S'100001036869438'
S'Ankeet Shome'
tp93
a(S'100001720925227'
S'Rajesh Singh'
tp94
a(S'100002041570910'
S'Arun Bahuguna'
tp95
a(S'1388944101'
S'Ashwani Khare'
tp96
a(S'100000689083580'
S'Saurabh Pande'
tp97
a(S'100001255948339'
S'Madhukar Arvind'
tp98
a(S'100006407080426'
S'Shiva Shankar Gupta'
tp99
a(S'100002126570397'
S'Gurpreet Singh Sethi'
tp100
a(S'100002665314441'
S'S.k. Singh'
tp101
a(S'100002162811459'
S'Lakshaman Ji Asthana'
tp102
asS'id'
p103
S'100001984217848'
p104
sS'name'
p105
S'Bhupendra Singh Rawat'
p106
s.