(dp1
S'friends'
p2
(lp3
(S'1669315641'
S'Santosh Mankoskar'
tp4
a(S'1335361478'
S'Seema Noolkar'
tp5
a(S'100004169404014'
S'Shailesh Dhavalikar'
tp6
a(S'1672510727'
S'Sanjay Iyer'
tp7
a(S'1499553004'
S'Sandeep Parmar'
tp8
a(S'100000218955031'
S'Sachin Saygaonkar'
tp9
a(S'608569982'
S'Harshada Deshpande'
tp10
a(S'100002502874685'
S'Sadashiv Mokashi'
tp11
a(S'100000710359734'
S'Ajay Kamble'
tp12
a(S'100000987758056'
S'Ajay Kulkarni'
tp13
a(S'1032166450'
S'Digambar Sathe'
tp14
a(S'100001191553864'
S'Suhas Kulkarni'
tp15
a(S'100000043546929'
S'Hemant Kulkarni'
tp16
a(S'100003404553976'
S'Suresh Gaikwad'
tp17
a(S'100000607509004'
S'Dolan Chakraborty'
tp18
a(S'100001140957990'
S'Dipti Anilkumar'
tp19
a(S'100003071654730'
S'Ajay Pawar'
tp20
a(S'1585271849'
S'Bharati Parashar'
tp21
a(S'100001325658586'
S'Avinash Bidnur'
tp22
a(S'100004682948664'
S'Vasudev Kashikar'
tp23
a(S'100003862435545'
S'Hironmoy Mazumder'
tp24
a(S'100000842302328'
S'Chandra Sekaran A R'
tp25
a(S'100001903270866'
S'Devendra Pal Singh'
tp26
a(S'100000008293321'
S'Ramchandra Nipane'
tp27
a(S'1792210033'
S'Tushar Rumale'
tp28
a(S'542423400'
S'Krishna Kant Mishra'
tp29
a(S'100000738233107'
S'Amit Kumar'
tp30
a(S'526549778'
S'Pradeep Kulkarni'
tp31
a(S'1078050690'
S'Hemant Apte'
tp32
a(S'100000889389010'
S'Chandra Sekaran A R'
tp33
a(S'100000580236722'
S'Nagesh Palkar'
tp34
a(S'100001660563208'
S'Manjiri Dixit'
tp35
a(S'1581122501'
S'Pradnya Umrani'
tp36
a(S'100001281073195'
S'Nisha Kirloskar'
tp37
a(S'1798067567'
S'Saniya Kirloskar'
tp38
a(S'100000198819397'
S'Shree Mahajani'
tp39
a(S'100003084808135'
S'Deepak Patwardhan'
tp40
a(S'1811551969'
S'Geeta Bhonde'
tp41
a(S'100001370765900'
S'Mahesh Jadhav'
tp42
a(S'1189602619'
S'Krishnan Pk'
tp43
a(S'100001217781824'
S'Yogita Jadhav'
tp44
a(S'100000699676448'
S'Rohit Sane'
tp45
a(S'100000543576098'
S'Yogesh Dhadve'
tp46
a(S'100001031246912'
S'Sunil Kumar'
tp47
a(S'100001903516999'
S'Shireesh Chitnis'
tp48
a(S'100000088236737'
S'Tushar Gajarmal'
tp49
a(S'100001003356391'
S'\\u0906\\u0928\\u0902\\u0926 \\u0936\\u093e\\u0933\\u0940\\u0917\\u094d\\u0930\\u093e\\u092e'
tp50
a(S'100001377923338'
S'Priyanka Kulkarni'
tp51
a(S'527829480'
S'Pankaj Rajguru'
tp52
a(S'100003794468165'
S'Sanjay Bhat'
tp53
a(S'100005263303561'
S'Rajan Dalvi'
tp54
a(S'100000859565312'
S'Harsh Saygaonkar'
tp55
a(S'100000640698799'
S'Manoj Pendse'
tp56
a(S'1572212622'
S'Netra Kulkarni'
tp57
a(S'100001243118329'
S'Rajeev Mathad'
tp58
a(S'100002279654145'
S'Sunanda Utagikar'
tp59
a(S'1659497366'
S'Sadanand Shivagunde'
tp60
a(S'100000556334788'
S'Jamilkhan Pathan'
tp61
a(S'100000509317258'
S'Meena Kinkar'
tp62
a(S'100006349754008'
S'Bhalchandra Ghorpade'
tp63
a(S'100002529157961'
S'Uday Salunke'
tp64
a(S'100000108582798'
S'Atul Doshi'
tp65
a(S'1112816795'
S'Amit Kumar'
tp66
a(S'100007108501781'
S'Deepak Kulkarni'
tp67
a(S'100006092647456'
S'Shruti Kulkarni'
tp68
a(S'100000155033139'
S'Khedekar Narendra'
tp69
a(S'1644142581'
S'Suhas Bora'
tp70
a(S'100006401199077'
S'Reshma Avinash Bidnur'
tp71
a(S'100001125578515'
S'Ajit Kuber'
tp72
a(S'100000354569074'
S'Ravi Pathak'
tp73
a(S'100000595091241'
S'Usha Parbat'
tp74
a(S'1585335760'
S'Jeevan D. Mate'
tp75
a(S'100001219604863'
S'Milind Kulkarni'
tp76
a(S'100003035056205'
S'Narendra Raje'
tp77
a(S'738245834'
S'Abhay Damle'
tp78
a(S'100000938963418'
S'Girish Patil'
tp79
a(S'100000185171235'
S'Abhishek Patil'
tp80
a(S'100007559195878'
S'Uttamrao Gole'
tp81
a(S'100001173886159'
S'Tukaram Waybhat'
tp82
a(S'100001591412256'
S'Suhas Kirloskar'
tp83
asS'id'
p84
S'100002749243624'
p85
sS'name'
p86
S'Shripad Kulkarni'
p87
s.