(dp1
S'friends'
p2
(lp3
(S'100007844654486'
S'\\u0633\\u0648\\u0646\\u064a\\u0627 \\u0633\\u062d\\u0631'
tp4
a(S'100000284175623'
S'Obaid Safi'
tp5
asS'id'
p6
S'100000284175623'
p7
sS'name'
p8
S'Obaid Safi'
p9
s.