(dp1
S'friends'
p2
(lp3
(S'834517504'
S'Nidhi Kalra'
tp4
a(S'100002085488196'
S'Siddhant Chaudhary'
tp5
a(S'100006344980033'
S'Manu Pandit'
tp6
a(S'100001585235673'
S'Karan Soni'
tp7
a(S'100001956562726'
S'Manish Tomar'
tp8
a(S'100004294986897'
S'Ankur Bhatnagar'
tp9
a(S'100004872780150'
S'Akash Tyagi'
tp10
a(S'100006085599437'
S'Shivam Kant Sharma'
tp11
a(S'100006086881924'
S'Sagar Rana'
tp12
a(S'100003220423806'
S'Mohit Kathuria'
tp13
a(S'100001451265603'
S'Suman Bhatnagar'
tp14
a(S'100002374234304'
S'Akshay Tyagi'
tp15
a(S'1006110975'
S'Neha Ahuja'
tp16
a(S'100004054246302'
S'Gunjan Swami'
tp17
a(S'100006470251807'
S'Keshav Goel'
tp18
a(S'100001315060004'
S'Vivek Chauhan'
tp19
a(S'100002220495984'
S'Yash Rastogi'
tp20
a(S'100002858426247'
S'Abhay Singhal'
tp21
a(S'100006177066945'
S'Kirti Agarwal'
tp22
a(S'100002173742770'
S'Mansha Bhasin'
tp23
a(S'100001831582602'
S'Nitin Bhatnagar'
tp24
a(S'100002251553880'
S'Karan Pratap Malik'
tp25
a(S'100002474069131'
S'Rohit Goswami'
tp26
a(S'100006440070551'
S'Akshayy Khurrana'
tp27
a(S'100003402405288'
S'Attrya Saxena'
tp28
a(S'100001575249627'
S'Aviral Kumar'
tp29
a(S'100001203077793'
S'Rohan Gupta'
tp30
a(S'100001405767917'
S'Kirti Gupta'
tp31
a(S'100003906031856'
S'Megha Verma'
tp32
a(S'100002366490832'
S'Adarsh Singh'
tp33
a(S'100001104040935'
S'Shivansh Dixit'
tp34
a(S'100003100857673'
S'Davansh Bhardwaj'
tp35
a(S'100001777174376'
S'Shivam Mittal'
tp36
a(S'100006518674994'
S'Nishu Sharan'
tp37
a(S'100005467410854'
S'Aishwarya Dhall'
tp38
a(S'100002289981015'
S'Aashay Srivastava'
tp39
a(S'100000552814139'
S'Utkarsh Singh'
tp40
a(S'100007013973331'
S'Kanishk Khurana'
tp41
a(S'100001492900165'
S'Ishita Gupta'
tp42
a(S'100002327885908'
S'Akshay Bathla'
tp43
a(S'100003012734260'
S'Shubham Verma'
tp44
a(S'100004611694597'
S'Feat Badmash Shakti Rana'
tp45
a(S'100003977361492'
S'Bhavya Khattar'
tp46
a(S'100002529595197'
S'Abhishek Gupta'
tp47
a(S'100006715415540'
S'Manisha Mittal'
tp48
a(S'1704982884'
S'Ravneesh Khurana'
tp49
a(S'100002243804051'
S'Mahi Parihar'
tp50
a(S'1345890851'
S'Nikhil Ahuja'
tp51
a(S'100000302248777'
S'Chitransh Jain'
tp52
a(S'100002145099041'
S'Karan Singhal'
tp53
a(S'100000141447533'
S'Simran Bhatnagar'
tp54
a(S'1037838664'
S'Ankur Suman'
tp55
a(S'100004652983373'
S'Pri Ya L'
tp56
a(S'100000872721504'
S'Shubham Dev'
tp57
a(S'1543284234'
S'Shuchi Bhullar'
tp58
a(S'100000931413534'
S'Rohit Chugh'
tp59
a(S'100001882955191'
S'Satinder Pal Singh Broca'
tp60
a(S'100003001129928'
S'Shruti Bharadwaj'
tp61
a(S'1400670762'
S'Rohit Sharma'
tp62
a(S'100003601550583'
S'Deeksha Bhatnagar'
tp63
a(S'100003546259313'
S'Amol Malhotra'
tp64
a(S'100001795249612'
S'Zebi Zubair'
tp65
a(S'100003188765907'
S'Shivani Saxena'
tp66
a(S'100004896643510'
S'Vandana Mendhiratta'
tp67
a(S'1799966124'
S'Vaibhav Sharma'
tp68
a(S'1589385624'
S'Saurabh Bhatnagar'
tp69
a(S'100001885485010'
S'Paras Ahuja Emmanuel'
tp70
a(S'100004716786169'
S'Akshat Tyagi'
tp71
a(S'100008217316632'
S'Gagan Gujjar'
tp72
a(S'100002476616490'
S'Ashish Pal'
tp73
a(S'100003191720287'
S'Naman Jain'
tp74
a(S'100003956217041'
S'Shantam Mittal'
tp75
a(S'100002603070318'
S'Yamini Gupta'
tp76
a(S'100001414138288'
S'Sneh Malhotra'
tp77
a(S'100001819288255'
S'Shivangi Khurana'
tp78
a(S'100003577268500'
S'Manav Jain'
tp79
a(S'100005741822509'
S'Vivek Tyagi'
tp80
a(S'100001302602847'
S'Tarang Gupta'
tp81
a(S'100001488151551'
S'Tejasvi Singh Saharan'
tp82
a(S'100002504731186'
S'Shubhra Bhatnagar'
tp83
a(S'100002962035243'
S'Varnika Batra'
tp84
a(S'100000983073159'
S'Kratu Agarwal'
tp85
a(S'100006029252261'
S'Vishakha Chaudhary'
tp86
a(S'1584625918'
S'Vinod Bhatnagar'
tp87
a(S'100003802546911'
S'Priyanka Bhardwaj'
tp88
a(S'100000500151426'
S'Avni Agarwal'
tp89
a(S'100008311281568'
S'Bhatnagar Shadab'
tp90
a(S'100003698312900'
S'Shagun Kansal'
tp91
a(S'100002785832606'
S'Ajay Bhatnagar'
tp92
a(S'100001784017643'
S'Princess Priyanka Bhardwaj'
tp93
a(S'100001179649893'
S'Shubham Yadav'
tp94
a(S'100006406474636'
S'Aks Aakash Aggarwal'
tp95
a(S'100005978739509'
S'Arvind Sharma'
tp96
a(S'100000599315267'
S'Aparna Agarwal'
tp97
a(S'100005609163958'
S'Muskan Chaudhary'
tp98
a(S'100007466073942'
S'Ujjwal Aggarwal'
tp99
a(S'100003219322045'
S'Shubham Tiwari'
tp100
a(S'100001317485988'
S'Nishkam Gulati'
tp101
a(S'100002507891353'
S'Daisy Narayan'
tp102
a(S'100001459503930'
S'Deepakshi Mittal'
tp103
asS'id'
p104
S'100000793258894'
p105
sS'name'
p106
S'Shubham Bhatnagar'
p107
s.