(dp1
S'friends'
p2
(lp3
(S'1770392329'
S'Pawan Khemchandani'
tp4
a(S'765902177'
S'Pavan Jha'
tp5
a(S'1550351961'
S'Swati Khandelwal'
tp6
a(S'100002244798938'
S'Richa Khoda'
tp7
a(S'100002014531203'
S'Sunil Kumar Jain'
tp8
a(S'710321996'
p9
S'Dilip Sharma'
tp10
a(S'664439360'
S'Yogesh Garg'
tp11
a(S'100002351401233'
S'Rajesh Sharma'
tp12
a(S'100003255703849'
S'Vikram Pagaria'
tp13
a(S'100002801179998'
S'Ramrispal Meena'
tp14
a(S'100001359135955'
S'Prakash Ambesh'
tp15
a(S'100002205085262'
S'Rajesh Bijawat'
tp16
a(S'100002203313974'
S'Ajay Khandelwal'
tp17
a(S'100000313002641'
S'Gulshan Agarwal'
tp18
a(S'100000187648789'
S'Anand Rai'
tp19
a(S'100005589545088'
S'Kritika Khandelwal'
tp20
a(S'100001439572729'
S'Jai Kumar Chandnani'
tp21
a(S'1101406471'
S'Sanjay Dhariwal'
tp22
a(S'100001494760787'
S'Mohan Gupta'
tp23
a(S'100002242138977'
S'Ashutosh Gupta'
tp24
a(S'100000057801097'
S'Kamal Kumawat'
tp25
a(S'100003297890930'
S'Amar Khandelwal'
tp26
a(S'1335597406'
S'Vivek Khosla'
tp27
a(S'100005608381453'
S'Aayushi Khandelwal'
tp28
a(S'100000002851883'
S'Sajiv Guptan'
tp29
a(S'100003618570446'
S'Mahesh Kumar Nankani'
tp30
a(S'570663437'
S'Shrutika Khandelwal'
tp31
a(S'1451412076'
S'Sanjay K Sharma'
tp32
a(S'100001443666337'
S'Premraj Sharma'
tp33
a(S'100006098439538'
S'Rambabu Golia'
tp34
a(S'662970913'
S'Pawan Chaudhary'
tp35
a(S'100001207207353'
S'Satya Prakash Sharma'
tp36
a(S'673886399'
S'Asmita Pathak'
tp37
a(S'100002605708159'
S'Navin Kumar'
tp38
a(S'100004903604557'
S'Rajesh Sankhla'
tp39
a(S'100005185230372'
S'Mukesh Gupta'
tp40
a(S'100000319418675'
S'Pankaj Gupta'
tp41
a(S'1831112666'
S'Vipul Kashyap'
tp42
a(S'100002417730254'
S'Jaikumar Wadhwaney'
tp43
a(S'100002254284090'
S'Prakash Tanwar'
tp44
a(S'1781264922'
S'Devraj Racs'
tp45
a(S'100000188676582'
S'Devesh Chaturvedi'
tp46
a(S'100001094637019'
S'Garvita Khandelwal'
tp47
a(S'100000990808279'
S'Manoj Mehar'
tp48
a(S'725836020'
S'Tushar Khandelwal'
tp49
a(S'100005782242063'
S'Giriraj Sharma'
tp50
a(S'724163872'
S'Sanjiv Singh'
tp51
a(S'100001275404587'
S'Sundar Prajapati'
tp52
a(S'100006411392714'
S'Anuradha Gupta'
tp53
a(S'100002044657854'
S'Sanjay Bhatnagar'
tp54
a(S'100000690195642'
S'Deepak Tiwari'
tp55
a(S'100002067409600'
S'Naina Kapil'
tp56
a(S'100000040860041'
S'Sapna Bhatia'
tp57
a(S'100006560080503'
S'Arvind Gautam'
tp58
a(S'100002011507752'
S'Shailesh Kotiyal'
tp59
a(S'100001707775418'
S'Vinay Katta'
tp60
a(S'100000094222856'
S'CM Jpr'
tp61
a(S'100004280711218'
S'Chandra P. Sharma'
tp62
a(S'100005041782939'
S'Anil Natani'
tp63
a(S'100002735661070'
S'Sanjay Kumar Singh'
tp64
a(S'1104232333'
S'Pooja Khandelwal'
tp65
a(S'1300415219'
S'Vivek Dhanopia'
tp66
a(S'100005769672842'
S'Meghna Pitaliya'
tp67
a(S'1417058462'
S'Amit Badaya'
tp68
a(S'100001898570688'
S'Achal Dubey'
tp69
a(S'100001545049375'
S'Ashok Ashok Kumar Gupta'
tp70
a(S'1620811807'
S'Arpit Gupta'
tp71
a(S'100002951174013'
S'Singhal Hansraj'
tp72
a(S'100001862300595'
S'Manmohan Kandpal'
tp73
a(S'100002280800074'
S'Kanhaiya Lal Meena'
tp74
a(S'100000085897931'
S'Dilip Rathore Chits'
tp75
a(S'1634341765'
S'Megha Gupta'
tp76
a(S'100001770747880'
S'Deepa Bansal'
tp77
a(S'705930599'
S'Shobhit Tiwari'
tp78
a(S'723723924'
S'Anuj Gaur'
tp79
a(S'100002782156507'
S'Rakesh Kumar'
tp80
a(S'1117299973'
S'Rajesh Sharma'
tp81
a(S'100000644997415'
S'Vinod Khandelwal'
tp82
a(S'100003080632860'
S'BhavaniShanker Mathur'
tp83
a(S'100002319500660'
S'Rashmi Pitaliya'
tp84
a(S'100003712630145'
S'Siyaram Swami'
tp85
a(S'719997007'
S'Nimish Chaturvedi'
tp86
a(S'100001016800914'
S'Surendra Yadav'
tp87
a(S'100002318079323'
S'Dhan Singh'
tp88
a(S'100000783391696'
S'N.k. Gupta'
tp89
a(S'1554226247'
S'Surjeet Taneja'
tp90
a(S'100003517750989'
S'Girraj Meena'
tp91
a(S'100000602119946'
S'Jarnail Singh'
tp92
a(S'100003077645216'
S'Alka Katta Bhatnagar'
tp93
a(S'1106870023'
p94
S'Abhishek Sharma'
tp95
a(S'1832089130'
S'Pavan Kumar Sharma'
tp96
a(S'100001038049401'
S'Jai Narayan Sharma'
tp97
a(S'100000277477332'
S'\\u0905\\u091c\\u092f \\u0905\\u0917\\u094d\\u0930\\u0935\\u093e\\u0932'
tp98
a(S'100001529344270'
S'Ajay Gupta'
tp99
a(S'100000889805286'
S'Satish Maheshwari'
tp100
a(S'100002238136325'
S'Vinay Dwivedi'
tp101
a(S'100001848976501'
S'Mayur Kumar'
tp102
a(S'1186952857'
S'Dheeraj Garg'
tp103
asS'id'
p104
S'100002266156050'
p105
sS'name'
p106
S'Rajesh Gupta'
p107
s.