(dp1
S'friends'
p2
(lp3
(S'100004749758183'
S'Happy Singh'
tp4
a(S'100007585740870'
S'Piya Sharma'
tp5
a(S'100007325707402'
S'Darshan Kumar'
tp6
a(S'100006412446454'
S'Sapna Thakur'
tp7
asS'id'
p8
S'100007325707402'
p9
sS'name'
p10
S'Darshan Kumar'
p11
s.