(dp1
S'friends'
p2
(lp3
(S'1022531414'
S'Pranjal Jain'
tp4
a(S'100001097472536'
S'Vikram Manhas'
tp5
a(S'100000810850464'
S'Divya Vashist'
tp6
a(S'100002107265677'
S'Sunil Thapa'
tp7
a(S'1386431199'
S'Anuj Yadav'
tp8
a(S'100005066231073'
S'Sunny Nitika Jamwal'
tp9
a(S'100001401189000'
S'Ricky Koul'
tp10
a(S'100006489213146'
S'Bantu Pandita'
tp11
a(S'100000203886132'
S'Vinay Kumar'
tp12
a(S'100002841426285'
S'Ricky Sharma'
tp13
a(S'100002111316820'
S'Sumit Bhat'
tp14
a(S'100004128342251'
S'Shampy Bhat'
tp15
a(S'100001372188338'
S'Sumit Bhat'
tp16
a(S'100003975461549'
S'Bhipin Bhat'
tp17
a(S'100002194424021'
S'Ranjana Bhat'
tp18
a(S'100000588163168'
S'Nikita Kaul'
tp19
a(S'1347739384'
S'Rashi Jinsi'
tp20
a(S'100001527314323'
S'Bhavana Tickoo'
tp21
a(S'100005404294228'
S'Ujwal Raina'
tp22
a(S'100000200655066'
S'LNeeru Bhardwaj'
tp23
a(S'100000123202316'
S'Sanjeev S Sharma'
tp24
a(S'100007213474810'
S'Baldev Singh Randhawa Thathal'
tp25
a(S'100000886698920'
S'Naina Bhat'
tp26
a(S'100006635734569'
S'Lashu Gupta'
tp27
a(S'100003674539482'
S'Pooja Bhat'
tp28
a(S'100001871981871'
S'Ritik Pandita'
tp29
a(S'100003032614992'
S'Vishwas Gupta'
tp30
a(S'100001860639661'
S'Rahul Pandita'
tp31
a(S'100000494324574'
S'Rashmi Bhat'
tp32
a(S'100001853922032'
S'Neha Kachroo Dass'
tp33
a(S'100000346407405'
S'Ajay Bhagat'
tp34
a(S'1295169983'
S'Tapish Arora'
tp35
a(S'100005827063966'
S'John Sumit'
tp36
a(S'100000426403794'
S'Sarvjeet Arya'
tp37
a(S'100001111146971'
S'Rahul Bhat'
tp38
a(S'100003137273289'
S'Vijay Choudhary'
tp39
a(S'100000888045476'
S'Anil B Rajput'
tp40
a(S'100002757380576'
S'Millind Singh'
tp41
a(S'100000429991078'
S'Sanju Bakshi'
tp42
a(S'100001831094372'
S'Sahil Gasi Sahil Gasi'
tp43
asS'id'
p44
S'100001972318829'
p45
sS'name'
p46
S'Vikrant Gasi'
p47
s.