(dp1
S'friends'
p2
(lp3
(S'100006171193120'
S'Vijay King'
tp4
a(S'100007548073590'
S'Zoya Khan'
tp5
a(S'100006098462033'
S'Pooja Rani'
tp6
a(S'100007735476330'
S'Akoh Ci Angel Meijer'
tp7
a(S'100005395804797'
S'Roxy Roxx'
tp8
a(S'100003737505817'
S'Michael Jones Oliva'
tp9
a(S'100007820024167'
S'Sroul Nas'
tp10
a(S'100007311703639'
S'\\u0634\\u0642\\u064a \\u0627\\u0646\\u0627'
tp11
a(S'100007863875422'
S'Any TL'
tp12
a(S'100007899391181'
S'Sayan Takhong'
tp13
a(S'100006333666672'
S'\\u09a8\\u09b7\\u09cd\\u099f \\u09aa\\u09cb\\u09b2\\u09be'
tp14
a(S'100007769740193'
S'Muskan Gore'
tp15
a(S'100007626243979'
S'Talyor Rose'
tp16
a(S'100005549252651'
S'Khine Lay'
tp17
a(S'100005994907001'
S'Rohan Khan'
tp18
a(S'100007808232331'
S'Dase Lund'
tp19
a(S'100007814293945'
S'Prince Sonu'
tp20
asS'id'
p21
S'100008069070476'
p22
sS'name'
p23
S'Sahil Sahil'
p24
s.