(dp1
S'friends'
p2
(lp3
(S'100003083313829'
S'Snehasis Dalal'
tp4
a(S'100004163074798'
p5
S'Shusrita Das'
tp6
a(S'100003110273238'
p7
S'Newtonn Kaushiik'
tp8
a(S'100005660980754'
S'Abhijit Sahoo'
tp9
a(S'100004827942195'
p10
S'Payal Roy'
tp11
a(S'100003584144057'
S'Samrat Dey'
tp12
a(S'1204006196'
S'Abhishek Crockrxzz Majumder'
tp13
a(S'100001666696708'
S'Subham Nandy'
tp14
a(S'100005908325478'
S'Sk Ibrahim'
tp15
a(S'100005562490407'
S'Sajib Mondal'
tp16
a(S'100001872545068'
p17
S'Sunny Nag'
tp18
a(S'100003153827403'
S'Subhrajeet Ray'
tp19
a(S'100004068303989'
S'Banty Rd Rock'
tp20
a(S'100002573874025'
p21
S'Pallabi Roychowdhury'
tp22
a(S'100001444707580'
S'Suvo Arindam'
tp23
a(S'100002013750260'
S'Sandy Paul'
tp24
a(S'100001534816738'
p25
S'Soumyajit Kar'
tp26
a(S'100004082930315'
S'Ayus Banerjee'
tp27
a(S'100004432719314'
S'Chetna Bothra'
tp28
a(S'100004136645314'
S'Somesh Ji Sisodiya'
tp29
a(S'100004708629951'
S'Chakrapani Chakraborty'
tp30
a(S'100001464740808'
p31
S'Promit Das'
tp32
a(S'100005076134192'
S'Tiger Snehasis'
tp33
a(S'100004611932042'
S'Rittick Das'
tp34
a(S'100003382459789'
S'Sovik Goswami'
tp35
a(S'100005554420457'
S'Angle Pratu'
tp36
a(S'100001749312034'
S'Subham Mukherjee'
tp37
a(S'100000816413336'
S'Rulebreaker Aditya'
tp38
a(S'100001642376494'
S'Partha Pratim Bhattacharjee'
tp39
a(S'100002849469623'
S'Subha Thakur Chakraborty'
tp40
a(S'100004969231547'
S'Dasshing Rudy'
tp41
a(S'100004618835394'
S'Edward Kenway'
tp42
a(S'100002202467362'
p43
S'SusHmita SiNha'
tp44
a(S'100003765534351'
S'Swetabjo Biswas'
tp45
asS'id'
p46
S'100006060510855'
p47
sS'name'
p48
S'Ali Khan'
p49
s.