(dp1
S'friends'
p2
(lp3
(S'100007396440806'
S'Tariq Ullah'
tp4
a(S'100005475876917'
S'Abdurhman Fekarmand'
tp5
a(S'100002929368391'
S'Javid Jan'
tp6
a(S'100004972174163'
S'Nasib Khan Mamorzoi'
tp7
a(S'100001956406336'
S'Saif Ullah Tajzoi'
tp8
a(S'100005439521558'
S'Asimgul Ehsas'
tp9
a(S'100008028576678'
S'\\u0645\\u064a\\u0646\\u0647 \\u0627\\u0641\\u0639\\u0627\\u0646'
tp10
a(S'100007754347205'
S'Abdullah Adil'
tp11
a(S'100004956481878'
S'Mina Gull Zazai'
tp12
a(S'100007482012750'
S'Rauf Jan Himat'
tp13
a(S'100002339703641'
S'Abdul Raziq Hakeemyar'
tp14
a(S'100007903382100'
S'Turab Khan'
tp15
a(S'100006605102304'
S'Qadim Qadim Mangal'
tp16
a(S'100007318542854'
S'Raufkhaqiar Khosti'
tp17
a(S'100007595589248'
S'Basher Mal Saber'
tp18
a(S'100007147544088'
S'Baryali Pason'
tp19
a(S'100007907310026'
S'Tayib Khan Tanha Mangal'
tp20
a(S'100005934103897'
S'Saidrauf Wafa'
tp21
a(S'100007806397970'
S'Ismail Storai'
tp22
a(S'100007136166181'
S'Brishna Amil'
tp23
a(S'100007374275278'
S'\\u0627\\u0631\\u0645\\u0627\\u0646\\u064a \\u0645\\u0646\\u06af\\u0644'
tp24
a(S'100008004008420'
S'Mirwais Afghan'
tp25
a(S'100007312239479'
S'Zahirjan Mangal'
tp26
a(S'100007612718965'
S'\\u0646\\u0639\\u0645\\u062a \\u0627\\u0644\\u0644\\u0647 \\u0645\\u0646\\u06af\\u0644'
tp27
a(S'100003306123139'
S'Anwar Hashimi'
tp28
a(S'100007263909298'
S'Khialyjan Elham Elham'
tp29
a(S'100003308100270'
S'Moh Hashim Hashimi'
tp30
a(S'100003512998201'
S'Sabershah Mangal'
tp31
a(S'100004493972926'
S'Atesh Mangal'
tp32
a(S'100007479727475'
S'Ferdaws Zadran'
tp33
a(S'100002994481808'
S'Shafiq Bashar'
tp34
a(S'100001868618012'
S'Rahim Gul Nayel'
tp35
a(S'100005304786902'
S'Arafat Mangal'
tp36
a(S'100008023274175'
S'Rafiq Bakhtyar'
tp37
a(S'100006047881487'
S'Zia Khan'
tp38
a(S'100007588421555'
S'Sami Qayel'
tp39
a(S'100004862172579'
S'Mekaiel Moqbal'
tp40
a(S'100007258304209'
S'Qadarkhil Silab'
tp41
a(S'100007338853658'
S'Muhammad Rahman Sahil'
tp42
a(S'100007799104122'
S'Abhishek Panwar'
tp43
a(S'100007812603496'
S'\\u0637\\u0627\\u06cc\\u0628 \\u062d\\u0627\\u0646 \\u062a\\u0646\\u06c1\\u0627'
tp44
a(S'100006832924648'
S'Somaya Noory'
tp45
a(S'100007854424022'
S'Abu Khalid'
tp46
a(S'100007781139133'
S'Rauf Zadran'
tp47
a(S'100007211589220'
S'Samsoor Afghan'
tp48
a(S'100002085311776'
S'Mena Mangal'
tp49
a(S'100002197700134'
S'Omer Atal'
tp50
a(S'100001963530488'
p51
S'Mangal Wafa'
tp52
a(S'100003156963221'
S'Ail Khan Neakmal'
tp53
a(S'100007018930286'
S'Khalid Mukhlas'
tp54
a(S'100007963867809'
S'Khanzallah Khan'
tp55
a(S'100005280811903'
S'Safiullah Zahid'
tp56
a(S'100007085674544'
S'Hayat Skindar'
tp57
a(S'100007456325450'
S'Khalid Mandozai'
tp58
a(S'100007357562148'
S'\\u0645\\u062d\\u0645\\u062f \\u0641\\u0627\\u0631\\u0648\\u0642 \\u0645\\u0646\\u0643\\u0644'
tp59
a(S'100003929702527'
S'Aziz Lal Zai'
tp60
a(S'100006184351471'
S'Wahidullah Mangal'
tp61
a(S'100006687551707'
S'Nasir Sana'
tp62
a(S'100003333252172'
S'Nisar Mangal'
tp63
a(S'100008127782059'
S'Maryam Kabuly'
tp64
a(S'100007473070020'
S'Rafiullah Mashkoor'
tp65
a(S'100007588236096'
S'Paizmohammad Raqeti'
tp66
a(S'100007777630956'
S'Khost Khost'
tp67
a(S'100008005568570'
S'Wisal Zadran'
tp68
a(S'100008068509396'
S'Arif Khosty'
tp69
a(S'100003196000587'
S'Ashrafuddin Khosty'
tp70
a(S'100007189327805'
S'\\u0647\\u0648\\u0634\\u06cc\\u0627\\u0631 \\u0645\\u0646\\u06ab\\u0644'
tp71
a(S'100006381759143'
S'Abdullah Hamdard Mangal'
tp72
a(S'100008147493160'
S'\\u0641\\u06cc\\u0636 \\u0627\\u0644\\u0631\\u062d\\u0645\\u0646 \\u0645\\u0644\\u0646\\u06af'
tp73
a(S'100008031423937'
S'Chota Don Z'
tp74
a(S'100007308427829'
S'Wali Khan Zarswand'
tp75
a(S'100007606211392'
S'Ayoub Khawrin'
tp76
a(S'100006011494456'
S'Hydaitullah Zya'
tp77
a(S'100005253210156'
S'Habibullah Khyber'
tp78
a(S'100006679653869'
S'Lovely Kahn'
tp79
a(S'1588953027'
S'Ibrahim Momand'
tp80
a(S'100007378386435'
S'Zahed Als'
tp81
a(S'100006963102678'
S'Sadiqullah Pasoon'
tp82
a(S'100004953667000'
S'Hayat Afghan Totakhil'
tp83
a(S'100004863458529'
S'Cricket Khost'
tp84
a(S'100007070976855'
S'Akhther Jan Mangal'
tp85
a(S'100002642668924'
S'Nur Mangal'
tp86
a(S'100007997282712'
S'Rahmatullah Hakmul'
tp87
a(S'100006578496825'
S'\\u067e\\u0631\\u0648\\u0627\\u0646\\u0647 \\u0648\\u0641\\u0627'
tp88
a(S'100003821373380'
S'\\u0633\\u062a\\u0627\\u0639\\u0627\\u0628\\u062f \\u0645\\u0646\\u06af\\u0644'
tp89
a(S'100005707931899'
S'M Wali Mangal'
tp90
a(S'100005840223793'
S'\\u0639\\u0628\\u062f\\u0627\\u0644\\u0644\\u06c1 \\u0633\\u0631\\u06af\\u0631'
tp91
a(S'100000923955746'
S'Mirwalijan Lakanwal'
tp92
a(S'100002784144511'
S'Faizullah Mangal'
tp93
a(S'100004998155354'
S'Hikmat Shah Musafer Mangal'
tp94
a(S'100004413493861'
S'Shahid Mandozai'
tp95
a(S'100007404484526'
S'Shahab Peer'
tp96
a(S'100003356168231'
S'Muhammad Shafiq Bawari Mangal'
tp97
a(S'100001640454510'
S'Haiderkhil Khawry'
tp98
a(S'100006789819763'
S'\\u0634\\u06a9\\u0648\\u0631\\u0627\\u0644\\u0631\\u062d\\u0645\\u0646 \\u062d\\u0645\\u064a\\u062f\\u064a'
tp99
a(S'100007377492267'
S'\\u0637\\u0627\\u06cc\\u0628 \\u062d\\u0627\\u0646 \\u062a\\u0646\\u06c1\\u0622'
tp100
a(S'100001718532931'
S'Nasir Arman'
tp101
a(S'100005045580827'
S'Qader Jan'
tp102
a(S'100002056573106'
S'Said Ibrahim Hashimi'
tp103
a(S'100007114955883'
S'Fazalmangal Fazalmangal Fazalmangal'
tp104
asS'id'
p105
S'100006669842890'
p106
sS'name'
p107
S'Naqeeb Masroor'
p108
s.