(dp1
S'friends'
p2
(lp3
(S'100004099674790'
S'Jorge Romero'
tp4
a(S'100001831028740'
S'Can\\u0131mda Cans\\u0131n'
tp5
a(S'1407621552'
S'Erik S\\u00f8rensen'
tp6
asS'id'
p7
S'100001831028740'
p8
sS'name'
p9
S'Can\\u0131mda Cans\\u0131n'
p10
s.