(dp1
S'friends'
p2
(lp3
(S'100001476734802'
S'Sanjay Go-Cool'
tp4
a(S'100003654132367'
S'Surbhi Saandaliya'
tp5
a(S'100002206476950'
S'Lucky Prajapati'
tp6
a(S'100002539659054'
S'Manish Kumar'
tp7
a(S'100002655636564'
S'Neeraj Ucholiya'
tp8
a(S'100001129477627'
S'Divyanshu Mishra'
tp9
a(S'100001943477032'
S'Yogesh Marko'
tp10
a(S'100003277218831'
S'Sourabh Das'
tp11
a(S'100002459887731'
S'Archit Saxena'
tp12
a(S'100002474462898'
S'\\u0160\\u012f\\u0111 \\u0156\\u014f\\u010b\\u0138\\u015fta'
tp13
a(S'100002011618893'
S'Ritesh More'
tp14
a(S'100002269371239'
S'Raj Kumar'
tp15
a(S'100001498798990'
S'Sinha Shashank'
tp16
a(S'100001985486663'
S'Neha Verma'
tp17
a(S'100003543681244'
S'Richa Singh'
tp18
a(S'100003768221136'
S'Mona Maravi'
tp19
a(S'100003848709202'
S'Mitali Sharma'
tp20
a(S'100002228741997'
S'Akash Gupta'
tp21
a(S'100004829203849'
S'Ravendra Singh Parte'
tp22
a(S'100001979757701'
S'Satish Sidar'
tp23
a(S'100003251917698'
S'Sparsh Gupta'
tp24
a(S'100002713433336'
S'Ama Salis'
tp25
a(S'100003856545719'
S'Deepak Mishra'
tp26
a(S'100002877242809'
S'Aadil Ansari'
tp27
a(S'100002397313527'
S'Mayur Sahu'
tp28
a(S'100002490358202'
S'Priyanshi Shinde'
tp29
a(S'100003159277607'
S'Manish Choudhary'
tp30
a(S'100001164376738'
S'Nayan Malviya'
tp31
a(S'100001795664272'
S'Ashish Verma'
tp32
a(S'100003037600453'
S'Rony Aj'
tp33
a(S'100005134237055'
S'Pooja Gupta'
tp34
a(S'100002055563582'
S'Sachin Mahale'
tp35
a(S'100003900817539'
S'Simran Batra'
tp36
a(S'100003643051042'
S'Naved Shaik'
tp37
a(S'100001460504068'
S'Mayur Gupta'
tp38
a(S'100004452001869'
S'Tippi Ghotra'
tp39
a(S'632328251'
S'Anant Rohit'
tp40
a(S'100004090727598'
S'Sourabh Singh'
tp41
a(S'100002261960112'
S'Yogesh Upadhyay'
tp42
a(S'100003173784757'
S'Bhawna Verma'
tp43
a(S'100000712318235'
S'Amrita Jain'
tp44
a(S'100002369556919'
S'Raj Dx'
tp45
a(S'100003184198426'
S'Armaan Tiwari'
tp46
a(S'100003657053011'
S'Ajith Sarthi'
tp47
a(S'100003187791655'
S'\\u0145\\u0105\\u00f0\\u00e9\\u0119m Qureshi'
tp48
a(S'100002086400643'
S'Angel Sharma'
tp49
a(S'100002848305502'
S'Gargi Sinha'
tp50
a(S'100001509598690'
S'\\u0938\\u094b\\u0928\\u0940 \\u0938\\u093f\\u0902\\u0939'
tp51
a(S'100002269753699'
S'Harsha Likhitkar'
tp52
a(S'100003503349564'
S'Varun Jeiswal'
tp53
a(S'100003451670684'
S'Neha Sharma'
tp54
a(S'100002601291385'
S'Durga Dwivedi'
tp55
a(S'100003228696563'
S'Loveable Boy Abhishek Kanojiya'
tp56
a(S'100003301297588'
S'Aman Tiwari'
tp57
a(S'100002735498175'
S'Ashish Verma'
tp58
a(S'100004524847375'
S'Muktaar Malik'
tp59
a(S'100005104783597'
S'Shrikant Patil'
tp60
a(S'100001860385404'
S'Abhishek Mahto'
tp61
a(S'100001134427694'
S'Gaurav Mehra'
tp62
a(S'100002297167916'
S'Neha Singh'
tp63
a(S'100003024717993'
S'Neha Mangwane'
tp64
a(S'100003904292768'
S'AyUsh Gupta'
tp65
a(S'100002499447521'
S'Sagar Shilpi'
tp66
a(S'100003770115328'
S'Swetha Naidu'
tp67
a(S'100001423464050'
S'Yashwant Chouhan'
tp68
a(S'100002875802348'
S'Babar Khan Stuntmanic'
tp69
a(S'100003257122149'
S'Vivek Prajapati'
tp70
a(S'100003571742261'
S'Shazia Angel'
tp71
a(S'100003795550893'
S'Pooja Sharma'
tp72
a(S'100001588249740'
S'Pankaj Pandey'
tp73
a(S'100003368913432'
S'Aarchie Vyas'
tp74
a(S'100002020422917'
S'Jennifer John'
tp75
a(S'100002094527090'
S'Akash Sharma'
tp76
a(S'100003311214153'
S'Sonu Patil'
tp77
a(S'100004544264565'
S'Sameer Prjapati'
tp78
a(S'100001827492705'
S'Pramod Ode'
tp79
a(S'100004014272654'
S'Rakesh Mall'
tp80
a(S'100003497573976'
S'Shubham Sharma'
tp81
a(S'100004732775854'
S'Rajesh Kumar DX'
tp82
a(S'100002326428354'
S'Mukul Sharma'
tp83
a(S'100003534454555'
S'Vipin Singh Ayam'
tp84
a(S'100002985154136'
S'Rahul Mehar'
tp85
a(S'100004572393433'
S'Veenu Marko'
tp86
a(S'100003098684483'
S'Ashish Dubey'
tp87
a(S'100003735413157'
S'SaNjeev MaiTy'
tp88
a(S'100002978475051'
S'Chakresh Karole'
tp89
a(S'100003333662768'
S'Tina Sharma'
tp90
a(S'100001567781607'
S'Anup Kumar Xd'
tp91
a(S'100001394608182'
S'Vijay Dev'
tp92
a(S'100001731827336'
S'Abhishek Mourya'
tp93
a(S'100002142596977'
S'Vijay Batham'
tp94
a(S'100002527410957'
S'Sonali Gupta'
tp95
a(S'100003389315638'
S"Dj-Nkd Mashupdj's"
tp96
a(S'100002356217278'
S'Praveen Chouhan'
tp97
a(S'100002562343415'
S'Saurabh Mishra'
tp98
a(S'100002468017577'
S'Manish Ahirwar'
tp99
a(S'100003128487592'
S'Akash Dubey'
tp100
a(S'100002551661185'
S'Danish Khan'
tp101
a(S'100003056328612'
S'Richa Tiwari'
tp102
a(S'100001104665882'
S'Pradeep Sarkar'
tp103
asS'id'
p104
S'100002314404343'
p105
sS'name'
p106
S'Naresh Kumar'
p107
s.