(dp1
S'friends'
p2
(lp3
(S'100004015686176'
S'Sachin Jadhav'
tp4
a(S'100001852596465'
p5
S'Sanket Tingre'
tp6
a(S'100002054438295'
S'Nikhil Shitole'
tp7
a(S'100002459070495'
S'Sohail Sawar'
tp8
a(S'100003106770717'
S'Shubham Bankar'
tp9
a(S'100003263611858'
S'\\u0905\\u0915\\u094d\\u0937\\u092f \\u091f\\u094b\\u0923\\u092a\\u0947'
tp10
a(S'100002968367425'
S'Kedar Dhandekar KD'
tp11
a(S'100007802805464'
S'Deepali Jawale'
tp12
a(S'100003279074573'
S'Akash Admane'
tp13
a(S'100004976136001'
S'Ganesh Kank'
tp14
a(S'100001431389112'
S'Akshay Khot'
tp15
a(S'100002187861338'
S'Vishal Tingre'
tp16
a(S'100001642906449'
S'Dattraj Bahirat'
tp17
a(S'100003671265708'
S'Akshay More'
tp18
a(S'100002291492764'
S'Ganesh Junawane'
tp19
a(S'100003233230971'
S'Bhagwan Walkoli'
tp20
a(S'100001632712512'
S'Vishal Jadhav'
tp21
a(S'100003625598823'
S'Pratish Jadhav'
tp22
a(S'100002082154094'
S'Ajinkya Shinde'
tp23
a(S'100003506228032'
S'Sneha Rakshe'
tp24
a(S'100002470569742'
S'Komal Shinde'
tp25
a(S'100003583162237'
S'Var Sha'
tp26
a(S'100004349467472'
S'Prakash Avhad'
tp27
a(S'100004077434082'
S'Mozes Dive'
tp28
a(S'100007376078190'
S'Sneha Sathe'
tp29
a(S'100004937293148'
S'Amol Jadhav Patil'
tp30
a(S'100006457512222'
S'Soni Kumari'
tp31
a(S'100002537419252'
S'\\u0110\\u0148y\\u0148\\u00eb\\u0161h \\u0147h\\u00e4vk\\u00e4r'
tp32
a(S'100003992717107'
S'Prem Gaikwad'
tp33
a(S'100003107845175'
S'Swapnil Sonawane'
tp34
a(S'100003032357581'
S'Samson Chavan'
tp35
a(S'100006599413354'
S'Ajay Shinde Sarkar'
tp36
a(S'100007283254310'
S'Neha Valmiki'
tp37
a(S'743234187'
S'Amit Murkute'
tp38
a(S'100001984058204'
S'Chandrakant Vahile'
tp39
a(S'100004262079152'
S'Ram Ghaytidak Patil'
tp40
a(S'100003172486500'
S'Suryakant K Dandekar'
tp41
a(S'100003565635417'
S'\\u0936\\u0941\\u092d\\u093e\\u0902\\u0917\\u0940 \\u092e\\u094d\\u0939\\u0938\\u094d\\u0915\\u0947'
tp42
a(S'100003864945223'
S'Rohan Khandagale'
tp43
a(S'100004235019158'
S'Akash Thakare'
tp44
a(S'100004635696318'
S'Nitin Nisanki'
tp45
a(S'100004300472227'
S'Amol Dhumal Deshmukh'
tp46
a(S'100003385695180'
S'Prashant Waghere'
tp47
a(S'100004417203211'
S'Ravi Rathod'
tp48
a(S'100000830263458'
S'Rahul Ahirekar'
tp49
a(S'100003837027616'
S'Chinmay Bhau Lonkar'
tp50
a(S'100002533946402'
S'Sandip Adsul'
tp51
a(S'100003652683549'
S'Saikrishna Baisallu'
tp52
a(S'100005717731529'
S'Komal Taware'
tp53
a(S'100001200696325'
S'Ganesh Dnyaneshwar Shelar'
tp54
a(S'100007848245336'
S'Chandrakant Dandekar'
tp55
a(S'100003249712994'
S'Anup Sonawane'
tp56
a(S'100002330822357'
S'Akshay Gunjal Patil'
tp57
a(S'100001815656168'
S'Shahrukh Pathan'
tp58
a(S'100004381333044'
S'Aniket Tonape'
tp59
a(S'100001627790121'
p60
S'Atul Tingre'
tp61
a(S'100004253228662'
S'Kiran Mane'
tp62
a(S'100003309359180'
S'Chetan Ghadge'
tp63
a(S'100003928823149'
S'Manish Murkute Patil'
tp64
a(S'100007726387054'
S'Deepali Jawale'
tp65
a(S'100003291603557'
S'Mahesh Ghadsing'
tp66
a(S'100002325320509'
S'Mohini Padwal-Ahirekar'
tp67
a(S'100002773018935'
S'Amol Patil'
tp68
a(S'100003189431564'
S'Dattatray Gaikwad'
tp69
a(S'100002602373834'
S'Mayur Manmode'
tp70
a(S'100007271796089'
S'Monika Kamble'
tp71
a(S'100003046613157'
S'Madhuri Mutha'
tp72
a(S'100006505364901'
S'Shivraj Dhavale'
tp73
a(S'100002772924164'
S'Santosh Waghmare'
tp74
a(S'100001991129065'
S'Sagar Madane'
tp75
a(S'100006266282390'
S'\\u0906\\u092f\\u0941\\u0937\\u094d\\u092f \\u092b\\u0915\\u094d\\u0924 \\u0924\\u0941\\u091d\\u094d\\u092f\\u093e\\u0938\\u093e\\u0920\\u0940'
tp76
a(S'100003741253270'
S'Sohel Khandagale'
tp77
a(S'100003157268802'
S'Akshay Sonawane'
tp78
a(S'100002546079792'
S'Ritesh Pardeshi'
tp79
a(S'100002912217160'
S'Aniket R Pardeshi'
tp80
a(S'100007080728572'
S'Ganesh Dhavale'
tp81
a(S'100003009593682'
S'Lokesh Saykar'
tp82
a(S'100008170297708'
S'Arpita Patil'
tp83
a(S'100004388384167'
S'Sachin Sangshetty'
tp84
a(S'100004244291182'
S'Balraj Bhoi'
tp85
a(S'100002267708227'
S'Prateek Landge'
tp86
a(S'100006423776413'
S'Snehal Sathe'
tp87
a(S'100004371729699'
S'Avinash Kale'
tp88
a(S'100002841555651'
S'Milind Sandhan'
tp89
a(S'100003588489258'
S'Deepak Tonape'
tp90
a(S'100004174922373'
S'Nikhil Sonawane'
tp91
a(S'100002676549183'
S'Rohit Gaikwad'
tp92
a(S'100001892571806'
S'Akshay Pimpalkar'
tp93
a(S'100006775681274'
S'Akash Manwar'
tp94
a(S'100008002363121'
S'Pravin Panchal KD'
tp95
a(S'100003285840694'
S'Abhijit Ranawade'
tp96
a(S'100001314132794'
S'Balraj Shelar'
tp97
a(S'100003503108430'
S'Dnyaneshwar Kokate'
tp98
a(S'100006532840780'
S'Chaitanya Surve'
tp99
a(S'100002448102371'
S'Mandar Padwal'
tp100
a(S'100007168423528'
S'Priya Sharma'
tp101
a(S'100003886984270'
S'Mahesh Jawale'
tp102
a(S'100002821314194'
S'Akshay Wagh'
tp103
a(S'100001074825985'
S'Sai Pawar'
tp104
a(S'100002516896894'
S'Sandesh Kharat'
tp105
asS'id'
p106
S'100008106816016'
p107
sS'name'
p108
S'Puja Bahirat Patil'
p109
s.