(dp1
S'name'
p2
S'Mona Mohanty'
p3
sS'current_class'
p4
S'india'
p5
sS'home_class'
p6
Vbhubaneshwar, odisha, india
p7
sS'home_text'
p8
VBhubaneshwar, Orissa, India\u000aHometown
p9
sS'current_link'
p10
Vhttps://www.facebook.com/l.php?u=https%3A%2F%2Fwww.bing.com%2Fmaps%2Fdefault.aspx%3Fv%3D2%26pc%3DFACEBK%26mid%3D8100%26where1%3D28.613900916609%252C%2B77.207794189453%26name%3DNew%2BDelhi%252C%2BIndia%26mkt%3Den-IN&h=bAQEmLiSX&s=1
p11
sS'home_link'
p12
Vhttps://www.facebook.com/l.php?u=https%3A%2F%2Fwww.bing.com%2Fmaps%2Fdefault.aspx%3Fv%3D2%26pc%3DFACEBK%26mid%3D8100%26where1%3D20.233300594568%252C%2B85.832061767578%26name%3DBhubaneshwar%252C%2BOrissa%252C%2BIndia%26mkt%3Den-IN&h=3AQF2uSAv&s=1
p13
sS'current_text'
p14
VNew Delhi, India\u000aCurrent City
p15
sS'friends'
p16
(lp17
(S'1500642970'
S'Jyothi VI'
tp18
a(S'1178796539'
S'Ranjita Sahay'
tp19
a(S'100001125382474'
S'Simran Cheema'
tp20
a(S'1599985151'
S'Katie Madhu Kalra'
tp21
a(S'1329860475'
S'Sarita Agarwal'
tp22
a(S'1494454259'
S'Prabir Jha'
tp23
a(S'749133437'
S'Yogesh Verma'
tp24
a(S'1532139990'
S'Anshu Shukla Pandey'
tp25
a(S'1496400927'
S'Shyam Benupani'
tp26
a(S'1283578648'
S'Shalini Bhargava Kaushal'
tp27
a(S'1070393146'
S'Devashis Das'
tp28
a(S'100005923689830'
S'Aman Mohanty'
tp29
a(S'734608651'
S'Anadee Nath Misshra'
tp30
a(S'100000071808940'
S'Banita Naorem'
tp31
a(S'100000179354581'
S'Purvita Chatterjee'
tp32
a(S'1577889574'
S'Ajay Pandey'
tp33
a(S'646197604'
S'Ashay Dharwadker'
tp34
a(S'100002257756418'
S'Neerja Gupta Kapoor'
tp35
a(S'100001904876257'
S'Anusha Khurana'
tp36
a(S'100002689658126'
S'Abhijit Sarkar'
tp37
a(S'100000013027880'
S'Dimple Rai'
tp38
a(S'597854076'
S'Anuj Sharma'
tp39
a(S'590650525'
S'Veena Joshi'
tp40
a(S'100002904670562'
S'Satish Goyal'
tp41
a(S'100000161390179'
S'Anjoo Tayal'
tp42
a(S'1124111918'
S'Rinku Mitra'
tp43
a(S'1674735196'
S'Meenakshi Mallik'
tp44
a(S'1690670545'
S'Pallavi Agarwal'
tp45
a(S'1763932852'
S'Shamita Mohanty'
tp46
a(S'1508636113'
S'Sunita Billa'
tp47
a(S'1047936349'
S'Mona Singh'
tp48
a(S'100001726804562'
S'Leena Srivastava'
tp49
a(S'100000216930960'
S'Rupinder Pannu Brar'
tp50
a(S'1304815522'
S'Aditi Bysack'
tp51
a(S'100001417996538'
S'Seemita Panda'
tp52
a(S'100000126657856'
S'Md Mohsin Alam'
tp53
a(S'1114457433'
S'Avinash Mishra'
tp54
a(S'100006091536066'
S'Ratan Singh'
tp55
a(S'615632175'
S'Prasenjit Singh'
tp56
a(S'1358064530'
S'Vijaya Bhattacharyya Chatterjee'
tp57
a(S'1541500888'
S'Reefat Rasool'
tp58
a(S'683501705'
S'Priya Kanungo'
tp59
a(S'1613484072'
S'Arun Auplish'
tp60
a(S'100000378435446'
S'Vibha Bhalla'
tp61
a(S'100001119852925'
S'Purabi Das'
tp62
a(S'1465966631'
S'Sunil Bajpai'
tp63
a(S'100007251662419'
S'Srinivas Danda'
tp64
a(S'1284409790'
S'Pranav Awasthi'
tp65
a(S'678921450'
S'Mini Verma'
tp66
a(S'1156017995'
S'Sushil Madhuk'
tp67
a(S'1208368857'
S'Suchismita Palai'
tp68
a(S'694088120'
S'Deepak Mohan'
tp69
a(S'100000003136435'
S'Chandidas Mohanty'
tp70
a(S'590153464'
S'Rolee Agarwal'
tp71
a(S'100001397518770'
S'Mala Lal'
tp72
a(S'100002261614981'
S'Nahid Khan'
tp73
a(S'1595192653'
S'Sibichen Mathew'
tp74
a(S'1112640290'
S'Padam Auplish'
tp75
a(S'100000280374252'
S'Anand Upadhyay'
tp76
a(S'100000531741469'
S'Rajshri Patnaik'
tp77
asS'id'
p78
S'100000315953083'
p79
s.