(dp1
S'friends'
p2
(lp3
(S'100001254150920'
S'Atul Goel'
tp4
a(S'100000093498357'
S'Tushar Sharma'
tp5
a(S'1018857597'
S'Rajat Philip'
tp6
a(S'100004869550479'
S'Manish Saini'
tp7
a(S'638127772'
S'Davis Gulati'
tp8
a(S'534389427'
S'Risheek Raj Srivastava'
tp9
a(S'100001076514114'
S'Prateek Samuel'
tp10
a(S'100001252085363'
S'Rahul Pathak'
tp11
a(S'100003064206752'
S'Shakti Singh Arya'
tp12
a(S'557905418'
S'Chhayankdhar Singh Rathore'
tp13
a(S'1440753551'
S'Anna Fernandes'
tp14
a(S'100001416628110'
S'Atisha Dahiya'
tp15
a(S'1745587305'
S'Sambit Mohanty'
tp16
a(S'100001310112563'
S'Mahesh Jawa'
tp17
a(S'100002614101650'
S'Anmol Mehta'
tp18
a(S'100002366359875'
S'Joel EL Calvin'
tp19
a(S'100001506396191'
S'Rahul Jha'
tp20
a(S'100000990391460'
S'Geetam Bhardwaj'
tp21
a(S'557630277'
S'Antony Aron'
tp22
a(S'100002730519501'
S'Hitesh Dhull'
tp23
a(S'1449146414'
S'Pulkit Aggarwal'
tp24
a(S'100000048571892'
S'Mehak Kesar'
tp25
a(S'100000147992755'
S'Rahul Dahiya'
tp26
a(S'100001120867282'
S'Abhinav Jha'
tp27
a(S'100007485637957'
S'Karishma Rawat'
tp28
a(S'100001440163349'
S'Shubham Nayal'
tp29
a(S'100003313820725'
S'Oshin Nair'
tp30
a(S'100004334555067'
S'Bhanu Devgan'
tp31
a(S'639185747'
S'Abhimanyu Dalal'
tp32
a(S'1009070538'
S'Rajshekhar Rajkhowa'
tp33
a(S'1704108955'
S'Rashika Gupta'
tp34
a(S'100001840327888'
S'Vimmy Narang'
tp35
a(S'100001365586897'
S'Ravinder Kumar Bargujjar'
tp36
a(S'100001113972053'
S'Aranyak Saikia'
tp37
a(S'100001836003495'
S'Kriti Sharma'
tp38
a(S'100001883931450'
S'Neha Chaturvedi'
tp39
a(S'1674495547'
S'Roderick Anthony'
tp40
a(S'100004389216061'
S'Sonali Relan'
tp41
a(S'100001143206527'
S'Priyansh Samuel'
tp42
a(S'100001111953833'
S'Ekta Sharma'
tp43
a(S'100001231369140'
S'Tushar Kaushik'
tp44
a(S'100000380297567'
S'Kashif Ahmed'
tp45
a(S'100003099314426'
S'Pragyee Thapliyal'
tp46
a(S'622561383'
S'Rohan Jha'
tp47
a(S'100000077319294'
S'Shilpa Pauly'
tp48
a(S'100000138490197'
S'Gaurav Rawat'
tp49
a(S'609542603'
S'Satyaki Dhar'
tp50
a(S'100001069414407'
S'Adish Gupta'
tp51
a(S'100007447143129'
S'Shiv Juneja'
tp52
a(S'100001816047972'
S'Abhinav Baruah'
tp53
a(S'100001089925014'
S'Karandeep Singla'
tp54
a(S'100000489012400'
S'Baljeet Singh'
tp55
a(S'100001333788564'
S'Chirag Dureja'
tp56
a(S'100003398500892'
S'Anushka Rawat'
tp57
a(S'100001043023396'
S'Vishal Gupta'
tp58
a(S'546846912'
S'Arshi Rawat'
tp59
a(S'100001769547979'
S'Mohit Vashisth'
tp60
a(S'100000038337490'
S'Margaret Chandrashekhar'
tp61
a(S'1328621204'
S'Neeraj Kaalia'
tp62
a(S'100001140103811'
S'Aakash Handa'
tp63
a(S'100001123135842'
S'Rajat Bhardwaj'
tp64
a(S'1589641226'
S'Sunil Sharma'
tp65
a(S'684903875'
S'Jerry Zacharias Johny'
tp66
a(S'100002197274888'
S'Nancy Gulati'
tp67
a(S'100001726167935'
S'NavDeep Singh'
tp68
a(S'100003947290896'
S'Ayushi Solanki'
tp69
a(S'100001001623991'
p70
S'Kabyashree Sonowal'
tp71
a(S'100003960660555'
S'Shreya Aswal'
tp72
a(S'100001313242778'
S'Sami Saroha'
tp73
a(S'100001434646203'
S'Vikram Singh'
tp74
a(S'100000901123186'
S'Himanshu Bansal'
tp75
a(S'100005073253866'
S'Manoj Bhagat'
tp76
a(S'637547142'
S'Zoravar Gill'
tp77
a(S'679547040'
S'Soumya Sankar'
tp78
a(S'100001392687418'
S'Sandeep Sharma'
tp79
a(S'1353541472'
S'Sagar Hirani'
tp80
a(S'100000929002125'
S'Maitreyee Rudola'
tp81
a(S'726530819'
S'Nitin Jude Magima'
tp82
a(S'100001704093736'
S'Piyuszz Dudeja'
tp83
a(S'100002515024562'
S'Tvisha Gupta'
tp84
a(S'100002677855744'
S'Mahesh Khanna'
tp85
a(S'100001095672915'
S'Hetal Thumar'
tp86
a(S'100001457221964'
S'Vishal Sharma'
tp87
a(S'588671728'
S'Arnav Das'
tp88
a(S'100001606184506'
S'Manpreet Singh Khalsa'
tp89
a(S'100003035766413'
S'Udit Nayal'
tp90
a(S'636677031'
S'Amita Peter'
tp91
a(S'100002749055751'
S'Bharti Awasthi'
tp92
a(S'100001076583769'
S'Anshul Grover'
tp93
a(S'1826830271'
S'Abhimanyu Bhardwaj'
tp94
a(S'1193898398'
S'Jeffrey Jay Fernandes'
tp95
a(S'100001421518281'
S'Deepti Dembla'
tp96
a(S'100001213531104'
S'Shubham Tripathi'
tp97
a(S'100001395436294'
S'Abhijeet Agarwal'
tp98
a(S'100000895845537'
S'Nippun Tyagi'
tp99
a(S'100001336218643'
S'Lavina Jain'
tp100
a(S'638141129'
S'Anuj Sharma'
tp101
a(S'737229137'
S'Jijo Malayil'
tp102
a(S'100001938174152'
S'Ashish Kaushal'
tp103
a(S'100000048486365'
S'Akshay Dahiya'
tp104
asS'id'
p105
S'100001967701673'
p106
sS'name'
p107
S'Gabriel Gulati'
p108
s.