(dp1
S'friends'
p2
(lp3
(S'100007722402266'
S'Zenayda Gutierrez'
tp4
a(S'100008316734912'
S'Fazelrahim Fazel'
tp5
a(S'100005150978925'
S'Mohammad Mobin Mohammady'
tp6
a(S'100004053350612'
S'Haji Aman Khairi'
tp7
a(S'100001408665477'
S'Ahmad Lodin'
tp8
a(S'100003961047661'
S'Farhad Safi'
tp9
a(S'100004348141616'
S'Ganaa Nora'
tp10
a(S'100001618783318'
S'Maria Akbari'
tp11
a(S'100001379839341'
S'ShirRehman Bitab'
tp12
a(S'1349401365'
S'Jelani Zwak'
tp13
a(S'100001848209037'
S'Meerzaman Zarkoon'
tp14
a(S'683145107'
S'Fatana Ishaq Gailani'
tp15
a(S'100007243270915'
S'Fatiullah Hasan'
tp16
a(S'100004900080514'
S'Maiwand Amarkhil'
tp17
a(S'100007788852280'
S'Rafiullah Wazeeri'
tp18
a(S'100005306378277'
S'Shakir Afghan'
tp19
a(S'100004320403711'
S'Darling Tellez'
tp20
a(S'100005478154384'
S'Zabihullah Hassan'
tp21
a(S'100004671581248'
S'Mohibullah Ahmadzai'
tp22
a(S'100005337332901'
S'Erfanullah Matinzada'
tp23
a(S'100006292026814'
S'Habiba Sarabi'
tp24
a(S'100004458815508'
S'Abdullah Wadan Waziri'
tp25
a(S'100006543009371'
S'\\u0634\\u0628\\u0646\\u0645 \\u067e\\u06cc\\u06a9\\u0631'
tp26
a(S'100006268601912'
S'Hamidullah Farooqi'
tp27
a(S'100001879224868'
S'Malik Zulifqar Awan'
tp28
a(S'100008345310102'
S'Fahim Aryobzai'
tp29
a(S'100004541107958'
S'Zakirullah Khan'
tp30
a(S'100003300759360'
S'Anwarulhaq Haqiq'
tp31
a(S'100007322641033'
S'Shershah Hamdard'
tp32
a(S'531756552'
S'Aimal Marjan'
tp33
a(S'100003782201582'
S'Jan Muhammad Momand'
tp34
a(S'100007009835944'
S'\\u062f\\u0627\\u0648\\u062f \\u0633\\u0644\\u0637\\u0627\\u0646 \\u0632\\u0648\\u06cc'
tp35
a(S'100000759116361'
S'Queenanne Distajo'
tp36
a(S'100000023652576'
S'Ali Hxn MiRxa'
tp37
a(S'100007237599131'
S'Awrang Samim'
tp38
a(S'100005645317875'
S'\\u06a9\\u0627\\u0648\\u0648\\u0646 \\u063a\\u0696\\u062e\\u067e\\u0644\\u0648\\u0627\\u06a9\\u0647 \\u0631\\u0627\\u0689\\u064a\\u0648 \\u0644\\u063a\\u0645\\u0627\\u0646'
tp39
a(S'100004270809791'
S'Nasim Waziri'
tp40
a(S'100005298277351'
S'Samiulhaq Mansoor'
tp41
a(S'100004991414063'
S'Shahedullah Afsar Zazai'
tp42
a(S'100006045933294'
S'Pakhto Karwan'
tp43
a(S'100003028440126'
S'Mustafa Mirzai'
tp44
a(S'100005045652858'
S'M Hassan Haqyar'
tp45
a(S'100006504345971'
S'Jahanzib Sohil'
tp46
a(S'100002088923088'
S'Zia Bumia'
tp47
a(S'100003326307561'
S'Farzana Bayat'
tp48
a(S'100006833643752'
S'Arian Abeer'
tp49
a(S'100002452923704'
S'Zahidullah Zaland'
tp50
a(S'100003928870481'
S'Jameel Khan'
tp51
a(S'100006620616657'
S'Homayoun Ahsan'
tp52
a(S'100001545297455'
S'Alicja \\u017bukowska'
tp53
a(S'100007114597012'
S'S\\u00fcheyla \\u00d6zt\\u00fcrk'
tp54
a(S'100000977870532'
S'Noorwalli Khpalwak'
tp55
a(S'100005126372838'
S'\\u0639\\u0638\\u06cc\\u0645\\u06cc \\u0644\\u06cc\\u0644\\u0645\\u0627'
tp56
a(S'632423591'
S'Baaz Abid'
tp57
a(S'100007668271685'
S'Subhanullah Waziri'
tp58
a(S'100003882322877'
S'Samim Rahmani'
tp59
a(S'100007926787375'
S'Shaheen Shah Afsar Zazai'
tp60
a(S'100008337636376'
S'Sara Wahdat'
tp61
a(S'100002225987543'
S'Emal Safi'
tp62
a(S'100004831594355'
S'Bizdenbizecom \\u0130lansitesi'
tp63
a(S'100004026234713'
S'Elham Azizi'
tp64
a(S'100006609572348'
S'Shela Saba'
tp65
a(S'100004859739124'
S'Qasim Momand'
tp66
a(S'100006717934928'
S'Allahmohamad Hasanzi'
tp67
a(S'100005301456165'
S'Rahmat Ullah'
tp68
a(S'100003763091429'
S'Bilal Zazai'
tp69
a(S'100003558421262'
S'Eng Delsoz'
tp70
a(S'722400013'
S'Aman Afghan'
tp71
a(S'100004702262095'
S'Habibullah Waziry'
tp72
a(S'100007797216169'
S'\\u0633\\u06cc\\u062f \\u0627\\u062d\\u0645\\u062f \\u0627\\u0644\\u0644\\u06c1 \\u067e\\u0627\\u0686\\u0627'
tp73
a(S'100008280758733'
S'Ghurzang Zahid'
tp74
a(S'100004780833357'
S'Fazal Rabi Shakir'
tp75
a(S'100007798410743'
S'Rahmanullah Mohabat'
tp76
a(S'100008239756016'
S'Ghubar Muram'
tp77
a(S'100004251281956'
S'Lovely Ann Arias'
tp78
a(S'100006186787418'
S'Naseem Sadat'
tp79
a(S'100001803101755'
S'Nangialy Qalatwal'
tp80
a(S'100006148601349'
S'\\u0627\\u0646\\u062a\\u0634\\u0627\\u0631\\u0627\\u062a \\u0631\\u0627\\u0647 \\u0641\\u0631\\u062f\\u0627'
tp81
a(S'100003538865354'
S'Habibrahman Momand'
tp82
a(S'557237405'
S'Danish Karokhel'
tp83
a(S'100008333501103'
S'Sediqullah Sediqyar'
tp84
a(S'100001151883899'
S'Jebran Fazli'
tp85
a(S'100006750494757'
S'\\u0634\\u0627\\u0639\\u0631\\u06cc \\u0698\\u0648\\u0646\\u062f\\u0648\\u0646'
tp86
a(S'100000295124187'
S'Ahmad Farid Nademyan'
tp87
a(S'100002574514827'
S'Zar Khan Saren'
tp88
a(S'100006208720500'
S'Abdulbaqi Ashorzad'
tp89
a(S'100008113571858'
S'Khoshi Ahmadi'
tp90
a(S'100008224966753'
S'Abaseen Yousafzai'
tp91
a(S'1839240864'
S'Aimal Azem'
tp92
a(S'100006160241994'
S'Rahmatullah Khadim'
tp93
a(S'100005258402698'
S'Gisselita Mejia'
tp94
a(S'100004093531730'
S'Abdul Rahim Ayoubi'
tp95
a(S'100005117562430'
S'Naseem Isaar'
tp96
a(S'100003301190906'
S'Dost Muhammad Dost'
tp97
a(S'100003951619357'
S'Janan Turkman'
tp98
a(S'100000881086924'
S'Zakia Ghayasi'
tp99
a(S'100008147979057'
S'Aeed Mohammad'
tp100
a(S'100000728785072'
S'Sayed Yama Alimi'
tp101
a(S'100007077704064'
S'Yarmohammd Zaland'
tp102
a(S'100008373875614'
S'Maryam Safi'
tp103
a(S'100003135437588'
S'Emal Pasarly'
tp104
a(S'100006470622027'
S'Sara Siawash'
tp105
a(S'100006865600117'
S'Yama Ahmadi'
tp106
a(S'100001820705346'
S'Nasir Ahmad Zahid'
tp107
a(S'100006709929714'
S'Shfi Ullah Waziri'
tp108
a(S'100000605730944'
S'Sharifullah Zazai'
tp109
a(S'100007665193470'
S'Sediqullah Massomzai'
tp110
a(S'100006920658330'
S'Rohi Art'
tp111
a(S'100002085311776'
S'Mena Mangal'
tp112
a(S'100007670225256'
S'Zabit Wazeri'
tp113
a(S'100002511424452'
S'\\u0646\\u0648\\u0631\\u0627\\u0644\\u0644\\u0647 \\u062c\\u0644\\u0627\\u0644\\u0632\\u0626'
tp114
a(S'100001655910634'
S'Amanullah Iman'
tp115
a(S'100006380252897'
S"Moheb Es'haghi"
tp116
a(S'100001276542168'
S'Lalaqa Shirzad'
tp117
a(S'100004272191359'
S'Shabeer Ahmad Sabawoon'
tp118
a(S'100007109580271'
S'\\u0645\\u0646\\u06ab\\u0644 \\u069a\\u06d0\\u0648\\u0647 \\u0648\\u0627\\u0644'
tp119
a(S'100007751018623'
S'Hassan Wlar'
tp120
a(S'100006737911826'
S'Hani Mohseni'
tp121
a(S'100001983998255'
S'\\ufee3\\ufeae\\ufef3\\ufee2 \\ufea7\\ufee4\\ufeee\\ufeb5'
tp122
a(S'833293393'
S'Ahmad Takal'
tp123
a(S'1244142578'
S'\\u0645\\u0635\\u0637\\u0641\\u064a \\u067e\\u0633\\u0631\\u0644\\u06cc'
tp124
a(S'100001917052744'
S'\\u0645\\u062f\\u062b\\u0631 \\u0632\\u0644\\u0627\\u0644'
tp125
a(S'100004262350595'
S'Rokhsar Azamee'
tp126
a(S'100004164977224'
S'Aeedgul Tanha'
tp127
a(S'100001050595456'
S'Gulagha Faqeerzada'
tp128
a(S'100007186118387'
S'Najeb Wazeri'
tp129
a(S'100006874362706'
S'AiZa KHan MArdan'
tp130
a(S'100004595222705'
S'\\u0646\\u0639\\u0645\\u062a \\u0627\\u0644\\u0644\\u0647 \\u0635\\u062f\\u064a\\u0642\\u064a'
tp131
a(S'100005995744048'
S'Faheem Khan'
tp132
a(S'100000626457307'
S'Waris Hasrat'
tp133
a(S'100002914992906'
S'Fahim Sediqi'
tp134
a(S'100008161925182'
S'Hamayoon Rohi'
tp135
a(S'100001716781523'
S'Sanaullah Sefat'
tp136
a(S'100007714840928'
S'Hayatullah Khogiany'
tp137
a(S'100001519657482'
S'Maiwand Yaad'
tp138
a(S'100004082798775'
S'Fazila Nayab'
tp139
a(S'100003115532738'
S'Mohammad Agha Dadman'
tp140
a(S'100000196348465'
S'Manizha Nayel'
tp141
a(S'100007786801030'
S'Abdul Ahad Wheedy'
tp142
a(S'100004987960792'
S'Abdul Raziq'
tp143
a(S'100000012051700'
S'Badam Gul Saddat'
tp144
a(S'100004721073890'
S'\\u0641\\u062e\\u0631\\u06cc\\u0647 \\u0628\\u06cc\\u0627\\u062a'
tp145
a(S'100004385323987'
S'Asma  Aksanova'
tp146
a(S'100004006149385'
S'Mudaser Zalal'
tp147
a(S'100008289048534'
S'\\u069a\\u0627\\u063a\\u0644\\u0626 \\u0647\\u06cc\\u0648\\u0627\\u062f\\u0634\\u067e\\u0648\\u0646 \\u0647\\u06cc\\u0648\\u0627\\u062f'
tp148
a(S'100003512984729'
S'Amrullah Azizi'
tp149
a(S'100000459120542'
S'A Mujeeb Khalvatgar'
tp150
a(S'100001145600446'
S'Saliha Ishaqzai Khalliqie'
tp151
a(S'100003394191707'
S'Ayub Khawreen'
tp152
a(S'100001151676455'
S'Mohammad Naseem Stanikzai'
tp153
a(S'100005207410280'
S'Qudratullah Waqfi'
tp154
a(S'100002509817506'
S'Zaz Mohammad'
tp155
a(S'100004774633715'
S'Waris Bariman'
tp156
a(S'100004441065403'
S'Mazar Khan Armane'
tp157
a(S'100001681120830'
S'Bizhan Aryan'
tp158
a(S'1287527877'
S'Muh Dawood Wafa'
tp159
a(S'100006203044430'
S'Azimullah Abdali'
tp160
a(S'100002257068603'
S'Israel Naseri'
tp161
a(S'100004056499100'
S'Ziaulhaq Amarkhil'
tp162
a(S'100000434547320'
S'Ikramullah Ikram'
tp163
a(S'100006577211737'
S'Qudratullah Lalahand'
tp164
a(S'1085768552'
S'Omar Mohammadi'
tp165
a(S'100005281561111'
S'Arash Kashifi'
tp166
a(S'100007877970466'
S'Noor Mohammad Zia'
tp167
a(S'100005899024453'
S'ShahNawaz Baqir'
tp168
a(S'100007912714267'
S'Akbar Totakhil'
tp169
a(S'100002783676188'
S'Sarajuddin Patan'
tp170
a(S'100007665071478'
S'\\u0635\\u062f\\u06cc\\u0642 \\u0627\\u0644\\u0644\\u0647 \\u062e\\u0633\\u0646\\u06cc\\u0627\\u0631'
tp171
a(S'100004416815558'
S'Dawlat Waziri'
tp172
a(S'100008293812179'
S'Yaseen Khogyanai'
tp173
a(S'100001152915609'
S'Emal Marwand'
tp174
a(S'100006534524600'
S'Darman Baitanai'
tp175
a(S'100006347048835'
S'Ramiz Ahmadi'
tp176
a(S'100001692930550'
S'Hashmat Stanikzai'
tp177
a(S'100000430818734'
S'Wazir Topan Khogyani'
tp178
a(S'100007762051837'
S'Attaullah Waziri'
tp179
a(S'100007542094679'
S'Hayat Gul'
tp180
a(S'100003255621666'
S'Judy Ann Twinkle Martinez'
tp181
a(S'100006723842767'
S'Hamid Mangal'
tp182
a(S'100002299929573'
S'Fawad Fetrat'
tp183
a(S'100003718150880'
S'Khiarafzal Azizi'
tp184
a(S'100005603345962'
S'\\u062f\\u0648\\u0633\\u062a\\u0627\\u0646 \\u06af\\u0631\\u0648\\u067e'
tp185
a(S'100007498025232'
S'Fahim Arif'
tp186
a(S'100003308227350'
S'Mustafa Mezdaq'
tp187
a(S'100008233986114'
S'Ellenjoy Panaguiton'
tp188
a(S'100000173425986'
S'Naser Azizi'
tp189
a(S'100006059350739'
S'Safatullah Azizi'
tp190
a(S'100004096171664'
S'Raouf Alime'
tp191
a(S'100000745006532'
S'Zmaryalai Abasin'
tp192
a(S'100000347715864'
S'Ajmal Toorman'
tp193
a(S'100006999511820'
S'Zahid Khamosh'
tp194
a(S'100003534964602'
S'Aase Hans'
tp195
a(S'100006286063876'
S'Mh Anwar Danishyar'
tp196
a(S'100006906011946'
S'Taza Gul Afghan'
tp197
a(S'100007619533157'
S'Tamim Kakar II'
tp198
a(S'100005052167970'
S'Aimal Faizi'
tp199
a(S'100007388832127'
S'Sayeed Sabawn'
tp200
a(S'100004871760189'
S'Rahimdad Waziri'
tp201
a(S'100001004154886'
S'Salimi Wror'
tp202
a(S'100001480356992'
S'Abaseen Selab'
tp203
a(S'100002720835243'
S'Heissell Fabiola Medina'
tp204
a(S'100001023612001'
S'Waziri Ajmal'
tp205
a(S'100004529020541'
S'Parhezshagiwal Shagiwal'
tp206
a(S'100003025243158'
S'Graan Dawari'
tp207
a(S'100000400628911'
S'Sarferaz Sargand'
tp208
a(S'795769941'
S'Farooq Wahidzai'
tp209
a(S'100008221624478'
S'Ellen Joy Panaguitz'
tp210
a(S'100004689224462'
S'\\u062e\\u062a\\u064a\\u062d \\u062a\\u0644\\u0648\\u064a\\u0632\\u064a\\u0648\\u0646'
tp211
a(S'100002455673537'
S'Saydullah Salam'
tp212
a(S'100004214079996'
p213
S'Afghanistan Sustainable Economic Alternatives'
tp214
a(S'100003794118061'
S'Atiq Khogyani'
tp215
a(S'100000251048722'
S'Zabih Ullah Hassan'
tp216
a(S'100006850172835'
S'Brishna Amil'
tp217
a(S'100004170674446'
S'Saahil Zazai'
tp218
a(S'100004965184350'
S'Aimal Kamal'
tp219
a(S'100003394353916'
S'Khaibar Tahaan'
tp220
a(S'100006405930987'
S'Haji Rasheed'
tp221
a(S'100005878954642'
S'Jangeer Almas'
tp222
a(S'100002377070537'
S'Rahimullah Vreen'
tp223
a(S'100002662310252'
S'Jewelyn Fernando'
tp224
a(S'100002516181758'
S'Mosam Khpalwak'
tp225
a(S'100004675560749'
S"Neng'Aldha Aay"
tp226
a(S'100002934596233'
p227
S'\\u062a\\u0631\\u06cc\\u062e \\u062d\\u0642\\u06cc\\u0642\\u062a'
tp228
a(S'100007970675820'
S'\\u067e\\u0634\\u062a\\u0648 \\u0646\\u0633\\u062a\\u0627\\u0646'
tp229
a(S'100001265968737'
S'Aehmad Jahanzeb Seddiqi'
tp230
a(S'100002137321151'
S'Mujib Amiri'
tp231
a(S'100008031068374'
S'Watan Ghairat'
tp232
a(S'100006016600845'
S'Arzoo Musamem'
tp233
a(S'565544937'
S'Gulrahim Niazman'
tp234
a(S'100006861636871'
S'\\u0627\\u062d\\u0645\\u062f \\u0648\\u0632\\u06cc\\u0631\\u0648\\u0627\\u0644'
tp235
a(S'100002606270621'
S'Shara Carissa Gulimlim Almedilla'
tp236
a(S'100006333816682'
S'Malang Ghar'
tp237
a(S'100005668717909'
S'Hilal Kagawal'
tp238
a(S'100003349185038'
S'AbdulRashid Zara'
tp239
a(S'100002309974793'
S'Ziar Khan Yaad'
tp240
a(S'100002770386496'
S'\\u0634\\u0631\\u0641 \\u0627\\u0644\\u062f\\u06cc\\u0646 \\u0639\\u0638\\u06cc\\u0645\\u064a'
tp241
a(S'100002542740270'
S'Mohammad Gulab Tawhidyar'
tp242
a(S'100006724276918'
S'Faryad Apriday'
tp243
a(S'100005813617744'
S'Fardwes Ajiz'
tp244
a(S'100001514410219'
S'Ayub Farhat'
tp245
a(S'1347797568'
S'Fardeen Rohani'
tp246
a(S'100003845264164'
S'Sabatv Afghanistan'
tp247
a(S'100004402086521'
S'Mati-Ullah Turab'
tp248
a(S'100004968794071'
S'Kareem Bawar'
tp249
a(S'100002329570921'
S'Mohammad Ajan Rashid'
tp250
a(S'100008288888515'
S'Abdulmalik Sulimanze'
tp251
a(S'100003957813631'
S'Taj Mohammad Rahmatzai'
tp252
a(S'100006360150815'
S'\\u0627\\u0641\\u063a\\u0627\\u0646 \\u0647\\u062f\\u0641\\u0645\\u0646\\u062f \\u0645\\u062d\\u0635\\u0644'
tp253
asS'id'
p254
S'100006515315853'
p255
sS'name'
p256
S'Zabihullah Hassan'
p257
s.