(dp1
S'friends'
p2
(lp3
(S'100002570177623'
S'Dushyant Sahoo'
tp4
a(S'100002323021797'
S"Ashish Gang'War"
tp5
a(S'100004372290028'
S'Amar Kumar'
tp6
a(S'770965409'
S'Shaurya Vir Singh'
tp7
a(S'100002690215764'
S'Apoorvi Singh'
tp8
a(S'100002328250888'
S'Ridhi Kapoor'
tp9
a(S'100002925941005'
S'Disha Rani'
tp10
a(S'100002312546210'
S'Gagan Sharma'
tp11
a(S'655229602'
S'Gourav Khullar'
tp12
a(S'100002445984292'
S'Sahil Goyal'
tp13
a(S'1169470967'
S'Manu Sharma'
tp14
a(S'100003777235887'
S'Shivani Sen'
tp15
a(S'1111355347'
S'Abhishek Gupta'
tp16
a(S'100001949162027'
S'Hardeep Singh Dhull'
tp17
a(S'100000943456980'
S'Rachita Gupta'
tp18
a(S'750319250'
S'Harjas Singh'
tp19
a(S'1813177083'
S'Ishan Kapoor'
tp20
a(S'100000044971858'
S'Prashant Singh'
tp21
a(S'749133573'
S'Akriti Tibrewal'
tp22
a(S'1579569685'
S'Nikita Aggarwal'
tp23
a(S'100000315432642'
S'Rashmi Kochhar'
tp24
a(S'740211263'
S'Himanshu Gupta'
tp25
a(S'1839842148'
S'Mehul Verma'
tp26
a(S'100002499811645'
S'Ishan Gupta'
tp27
a(S'100001419542382'
S'Vivek Verma'
tp28
a(S'100002226508266'
S'Prasoon Garg'
tp29
a(S'100001282287296'
S'Shivam Aggarwal'
tp30
a(S'100000194934678'
S'Madhu Mita'
tp31
a(S'100002405210697'
S'Shrishti Bansal'
tp32
a(S'1837705861'
S'Karanvir Manrai'
tp33
a(S'1817116266'
S'Anuj Kumar'
tp34
a(S'836431678'
S'Nipunya Setia'
tp35
a(S'1257071709'
S'Raghu Mahajan'
tp36
a(S'694897303'
S'Sarang Grover'
tp37
a(S'100000985991881'
S'Kshitej Mendiratta'
tp38
a(S'1085409347'
S'Namit Jain'
tp39
a(S'100002388511616'
S'Harsh Yadav'
tp40
a(S'100002576588903'
S'Ashad Vivek'
tp41
a(S'100001631700765'
S'Chitrodeep Gupta'
tp42
a(S'100001294843049'
S'Jatin Rana'
tp43
a(S'699255873'
S'Ishaan Preet Singh'
tp44
a(S'100001724368776'
S'Shikhar Sharma'
tp45
a(S'100000643412844'
S'Shivanshu Tandon'
tp46
a(S'1168313097'
S'Afhaam Mannan'
tp47
a(S'100002460802745'
S'Divy Jakhar'
tp48
a(S'585080086'
S'Ashwin Shrikumar'
tp49
a(S'628016689'
S'Vaibhav Sehgal'
tp50
a(S'100002565013285'
S'Anmol Jain'
tp51
a(S'100001420860043'
S'Ronak Agrawal'
tp52
a(S'640514134'
S'Aayush Dawra'
tp53
a(S'100003030651357'
S'Shalini Singh'
tp54
a(S'100001443601943'
S'Umang Gupta'
tp55
a(S'100001532235703'
S'Vishal Rana'
tp56
a(S'100003675333582'
S'Neha Garg'
tp57
a(S'100000602870999'
S'Sneh Sethi'
tp58
a(S'1219323568'
S'Agastya Rishi'
tp59
a(S'100002275917338'
S'Avdhesh Meena'
tp60
a(S'597996218'
S'Deepankar Chhabra'
tp61
a(S'1817888494'
S'Sourabh Rohilla'
tp62
a(S'100007874288445'
S'Awi Yadav'
tp63
a(S'1266835466'
S'Sanjeev Sanghi'
tp64
a(S'100002190131973'
S'PAinseeker Aman'
tp65
a(S'1265820304'
S'Saurabh Dhir'
tp66
a(S'100001091836175'
S'Vishal Mehta'
tp67
a(S'100000248982652'
S'Negi Nitin'
tp68
a(S'100000267158683'
S'Deepika Kaushal'
tp69
a(S'100000840950089'
S'Neelu Anand'
tp70
a(S'100000106091471'
S'Nikita Gupta'
tp71
a(S'100000421097799'
S'Dheeraj Anand'
tp72
a(S'100000970225094'
S'Manik Sood'
tp73
a(S'1347351109'
S'Arpan Chahal'
tp74
a(S'100000294234694'
S'Ashu Tayal'
tp75
a(S'100002763488311'
S'Dharmendra Panwar'
tp76
a(S'100000380232004'
S'Abhilasha Kamboj'
tp77
a(S'100001955962765'
S'Gurpreet Rathour'
tp78
a(S'100000914065426'
S'Sarvpreet Singh'
tp79
a(S'100000103391848'
S'Himanshu Gupta'
tp80
a(S'100001147935899'
S'Sourav Lashkari'
tp81
a(S'100004076469395'
S'Abhishek Verma'
tp82
a(S'100006411578916'
S'Vikas Bhaskar'
tp83
a(S'100000834422544'
S'Aryan Singh'
tp84
a(S'100006480778116'
S'Ameya Dubey'
tp85
a(S'1614681392'
S'Aayush Singhal'
tp86
a(S'1186958280'
S'Rajat Nayyar'
tp87
a(S'100000692834185'
S'Anjum Aggarwal'
tp88
a(S'100001541653695'
S'Neetu Rana'
tp89
a(S'100002132602426'
S'Dhruval Verma'
tp90
a(S'100000397960777'
S'Gunjan Sehra'
tp91
a(S'100001268193344'
S'Aakansh Gupta'
tp92
a(S'1662786223'
S'Adwait Singhai'
tp93
a(S'100001146888594'
S'Manas Mishra'
tp94
a(S'100000510999678'
S'Swati Saishree Swat'
tp95
a(S'100001245022810'
S'Mukul Kumra'
tp96
a(S'1187640174'
S'Ishan Jain'
tp97
a(S'100000392785809'
S'Arooshree Gandhi'
tp98
a(S'100002401692178'
S'Shiva Dhawan'
tp99
a(S'100001392716191'
S'Ritu Bansal'
tp100
a(S'1348296171'
S'Tanya Sharma'
tp101
a(S'100004063810525'
S'Chirag Mittal'
tp102
a(S'100001069266805'
S'Nishant Maurya'
tp103
a(S'100002723121078'
S'Shabeel HamNaf'
tp104
a(S'100002225960522'
S'Amit Vishnoi'
tp105
a(S'1375783775'
S'Swati Gupta'
tp106
a(S'1378300209'
S'Shyam Mohan Gupta'
tp107
a(S'100001425466010'
S'Jatin Bhatia'
tp108
a(S'100002392288798'
S'Prateek Chandak'
tp109
a(S'100002442749240'
S'Dravyansh Sharma'
tp110
a(S'1021010393'
S'Mehak Narang'
tp111
a(S'100002477226942'
S'Lakshay Kumar'
tp112
a(S'1698852206'
S'Devesh Kolhe'
tp113
a(S'100003880932104'
S'Akansha Singh'
tp114
a(S'1840495057'
S'Vipluv Khurana'
tp115
a(S'100000022621548'
S'Shivani Batra'
tp116
a(S'1030372306'
S'Akanksha Singh'
tp117
a(S'1419733162'
S'Vineeta Bery Arora'
tp118
a(S'100001596395544'
S'Pankaj Saini'
tp119
a(S'100002607734622'
S'Vishal Kumar'
tp120
a(S'1334730665'
S'Divyasha Ohri'
tp121
a(S'707154253'
S'Shreya Rajpal'
tp122
a(S'100002550526925'
S'Raman Sharma'
tp123
a(S'1025964667'
S'Shivank Rawat'
tp124
a(S'100000180734970'
S'Rishabh Singla'
tp125
a(S'100002507719410'
S'Sakshi Malhotra'
tp126
a(S'1775216025'
S'Pratham Jandu'
tp127
a(S'100002027311411'
S'Ashmeet Kaur'
tp128
a(S'100001203227615'
S'Aamir Meraj'
tp129
a(S'100007615590104'
S'Simran Paintal'
tp130
a(S'100004083399830'
S'Tard Rampratap'
tp131
a(S'725195865'
S'Arjun Mohan'
tp132
a(S'100002786270121'
S'Nagendra Kumar'
tp133
a(S'100001101486061'
S'Aditya Mohindra'
tp134
a(S'100002296794793'
S'Zeitgeist Fest'
tp135
a(S'1040291906'
S'Prachi Sharma'
tp136
a(S'100002941399853'
S'Sam Monoco'
tp137
a(S'100001110199950'
S'Rishabh Agarwal'
tp138
a(S'100002450199190'
S'Ashvin Goyal'
tp139
a(S'1241177078'
S'Nitin Gujjula'
tp140
a(S'100000399532720'
S'Akkash Sachdeva'
tp141
a(S'100000857244563'
S'Pradeep Choudhary'
tp142
a(S'100002456326951'
S'Shivansh Aggarwal'
tp143
a(S'100000613652905'
S'Anil Rana'
tp144
a(S'100004103015135'
S'Gaurav Ghosh'
tp145
a(S'1695656784'
S'Rakesh Verma'
tp146
a(S'779813754'
S'Ayush Chauhan'
tp147
a(S'1124682762'
S'Karan Kasrija'
tp148
a(S'100002424234898'
S'Chirag Aggarwal'
tp149
a(S'670041721'
S'Jyotesh Singh'
tp150
a(S'100001729470636'
S'Rahul Shah'
tp151
a(S'1169405056'
S'Abhijeet Yadav'
tp152
a(S'100000325996439'
S'Muskaan Sharma'
tp153
a(S'100003493347502'
S'Arvind Choudhary'
tp154
a(S'100001968027875'
S'Piyush Madaan'
tp155
a(S'100000583782867'
S'Anuvrat Jain'
tp156
a(S'100001045233994'
S'Vedant Saboo'
tp157
a(S'1226567833'
S'Utkarsh Bahuja'
tp158
a(S'100002279974999'
S'Shivani Rana'
tp159
a(S'100004054489274'
S'Shivakanksha Singh'
tp160
a(S'662659841'
S'Shivendra Singh Kasana'
tp161
a(S'100003627154943'
S'Arshpreet Kaur Bhuller'
tp162
a(S'1539548540'
S'Iresh Gupta'
tp163
a(S'100001116032991'
S'Anchit Gupta'
tp164
a(S'100003992017234'
S'Divya Makkar'
tp165
a(S'100000010445699'
S'Sushobhan Ghosh'
tp166
a(S'100000009013108'
S'Anshuman Sahay'
tp167
a(S'529034370'
S'Ibadat Bhinder'
tp168
a(S'100000210929013'
S'Ishan Garg'
tp169
a(S'100002920097527'
S'Jitender Kumar'
tp170
a(S'100002526081460'
S'Yamini Wadhwa'
tp171
a(S'100001680547695'
S'Parth Sharma'
tp172
a(S'100001015445548'
S'Ankit Todi'
tp173
a(S'100001583492737'
S'Ishana Shekhawat'
tp174
a(S'100002003988519'
S'Gaurav Gupta'
tp175
a(S'1391916096'
S'Paritosh Sharma'
tp176
a(S'1204268043'
S'Geet Kalra'
tp177
a(S'100002593276550'
S'Bhaanuj Sharma'
tp178
a(S'100001182805542'
S'Nishi Dixit'
tp179
a(S'100002530566529'
S'Varnika Sharma'
tp180
a(S'100002335103683'
S'Shivin Goyal'
tp181
a(S'1581473153'
S'Yatin Nihalani'
tp182
a(S'100002910115038'
S'Anny Jain'
tp183
a(S'1498027846'
S'Ishaan Sondhi'
tp184
a(S'100007041793083'
S'Ruchita Sharma'
tp185
a(S'100000683563346'
S'Mohit Sharma'
tp186
a(S'100001656165421'
S'Ankit Sharma'
tp187
a(S'100000608179181'
S'Aman Shivhare'
tp188
a(S'1409262768'
S'Abhishek Taneja'
tp189
a(S'100001880626104'
S'Azil Chhabra'
tp190
a(S'1036728443'
S'Sanjna Mander'
tp191
a(S'1153877241'
S'Ela Mahajan'
tp192
a(S'100001204675914'
S'Gopal Krishna'
tp193
a(S'1246098206'
S'Debashish Sahoo'
tp194
a(S'100002625748543'
S'Devendra K. Singh'
tp195
a(S'1059113521'
S'Tanmay Pradhan'
tp196
a(S'100000271485695'
S'Navneet Saini'
tp197
a(S'100004420028191'
S'Arun Eminm'
tp198
a(S'1158564129'
S'Karan Bali'
tp199
a(S'1611129011'
S'Shivam Sabharwal'
tp200
a(S'100000979744445'
S'Raghav Batra'
tp201
a(S'100000212960335'
S'Tushar Gupta'
tp202
a(S'100002425815929'
S'Vaibhav Anand'
tp203
a(S'1018641398'
S'Shruti Kaila'
tp204
a(S'543930449'
S'Armaan Singh Sandhu'
tp205
a(S'1582608507'
S'Firoz Khan'
tp206
a(S'100001356664759'
S'Bharat Mittal'
tp207
a(S'1468892258'
S'Advitiya Sharma'
tp208
a(S'100002409220691'
S'Jaideep Chaudhary'
tp209
a(S'100001608961565'
S'Damini Verma'
tp210
a(S'721179276'
S'Vaibhav Sudhir'
tp211
a(S'100002455937571'
S'Surabhi Gambhir'
tp212
a(S'100002464290075'
S'Aradhana Gupta'
tp213
a(S'1814394110'
S'VJ Abrol'
tp214
a(S'1099000075'
S'Devesh Mohnot'
tp215
a(S'100001679340935'
S'Tejasvi Singh'
tp216
a(S'669843287'
S'Hitaishi Kaushik'
tp217
a(S'100000136334237'
S'Abhishek Bansal'
tp218
a(S'100007803993063'
S'Iitd Ki Poltu Behna'
tp219
a(S'100001250403076'
S'Aarzoo Sharma'
tp220
a(S'100004208378667'
S'Vaibhav Goyal'
tp221
a(S'1218486639'
S'Shivek Gupta'
tp222
a(S'556090250'
S'Anirudh Singhal'
tp223
a(S'100002314841786'
S'Gaurav Tiwari'
tp224
a(S'821120423'
S'Diveeja Sharma'
tp225
a(S'100000914947391'
S'Kislay Yuvi'
tp226
a(S'1152512112'
S'Amitabh Nauharia'
tp227
a(S'100001194552836'
S'Nitesh Vijay'
tp228
a(S'100002339912414'
S'Kanav Singla'
tp229
a(S'100001966855643'
S'Poltu Leaks'
tp230
a(S'1134411172'
S'Geetika Mantri'
tp231
a(S'100001742555771'
S'Sunanda Chopra'
tp232
a(S'1254906954'
S'Shivani Sharma'
tp233
a(S'698606809'
S'Ankit Gupta'
tp234
a(S'1651573345'
S'Samarth Sunderlal'
tp235
a(S'528097836'
S'Abhishek Yadav'
tp236
a(S'100001589077638'
S'Prabhu Chhabra'
tp237
a(S'1303028781'
S'Ayushi Garg'
tp238
a(S'100007077073733'
S'Saurabh Singh'
tp239
a(S'1214995733'
S'Roy Som'
tp240
a(S'100002925116309'
S'Anjali Rathore'
tp241
a(S'100002385157384'
S'Charul Aseri'
tp242
a(S'100001810678856'
S'Deepanshu Bhatia'
tp243
a(S'548162544'
S'Shouvik Sachdeva'
tp244
a(S'1714290875'
S'Nitish Gupta'
tp245
a(S'100000003544965'
S'Amit Agarwal'
tp246
a(S'100004046794099'
S'Rajesh Uppal'
tp247
a(S'100001573917056'
S'Anisha Gupta'
tp248
a(S'100001636650202'
S'Malika Sehajpal'
tp249
a(S'100000289314441'
S'Manishita Gupta'
tp250
a(S'1337253429'
S'Bhavya Hurria'
tp251
a(S'100002428122227'
S'Rahul Gupta'
tp252
a(S'1514864947'
S'Chirag Arora'
tp253
a(S'100006458933563'
S'Kumar Shubham'
tp254
a(S'100002840238357'
S'Priyanka Wankhade'
tp255
a(S'100001736375231'
S'Srishty Chaudhari'
tp256
a(S'100000964535586'
S'Nimit Jain'
tp257
a(S'100000433734693'
S'Nirbhay Gupta'
tp258
a(S'100001106591241'
S'Pallavi Sharma'
tp259
a(S'100002894935505'
S'Faguni Verma'
tp260
a(S'100000110191868'
S'Gazal Chawla'
tp261
a(S'100000074273178'
S'Sameeksha Goel'
tp262
a(S'100000913880114'
S'Saurabh Agarwal'
tp263
a(S'1192086946'
S'Avantika Jakati'
tp264
a(S'100002419707166'
S'Sachin Goel'
tp265
a(S'100001051612957'
S'Anshul Jain'
tp266
a(S'1311385962'
S'Sonalika Jiwani'
tp267
a(S'100000740974354'
S'Meenu Gupta'
tp268
a(S'100001233681724'
S'Ikshula Arora'
tp269
a(S'100000482178422'
S'Shubham Bansal'
tp270
a(S'100000185244915'
S'Priya Aggarwal'
tp271
a(S'100001261014237'
S'Arshi Dhiman'
tp272
a(S'1216189238'
S'Rahul Beniwal'
tp273
a(S'656662601'
S'Akash Sood'
tp274
a(S'100003446236045'
S'Navin Shukla'
tp275
a(S'100001058770032'
S'Devang Yadav'
tp276
a(S'100000982375474'
S'Dimple Bansal'
tp277
a(S'100001403028160'
S'Surbhi Miglani'
tp278
a(S'100004079101041'
S'Aditya Makkar'
tp279
a(S'1187198337'
S'Javin Khanna'
tp280
a(S'100000050642267'
S'Dhruv Goyal'
tp281
a(S'1125571605'
S'Abhishek Meena'
tp282
a(S'100003870764599'
S'Shivanii Rana'
tp283
a(S'100004185480657'
S'Gaurav Agarwal'
tp284
a(S'779263893'
S'Prashant Garg'
tp285
a(S'100002584263001'
S'Amit Kumar'
tp286
a(S'1091856465'
S'Bhavya Syal'
tp287
a(S'100002298997963'
S'Viswateja Gajulavarthy'
tp288
a(S'1102460247'
S'Praful Gagrani'
tp289
a(S'847639908'
S'Shivani Garg'
tp290
a(S'100002420094788'
S'Vikash Sharma'
tp291
a(S'1759341385'
S'Sahil Sood'
tp292
a(S'100001233052228'
S'Vidushi Rawal'
tp293
a(S'100002462557604'
S'Kanwal Kochhar'
tp294
a(S'100001100577404'
S'Palki Arora'
tp295
a(S'100001032431826'
S'Himanshu Gupta'
tp296
a(S'100000372410694'
S'Aneish Goel'
tp297
a(S'751250114'
S'Juni Bahuguna'
tp298
a(S'100002242498343'
S'Paras Garg'
tp299
a(S'100000633524260'
S'Varunjay Varma'
tp300
a(S'100001450441761'
S'Sidharth Ranjan'
tp301
a(S'100000250898043'
S'Mohinder P Singh'
tp302
a(S'100001024813235'
S'Yuvraj Uv'
tp303
a(S'100007658891027'
S'Poltuleaks Iitdelhi Chaiwalashehzada'
tp304
a(S'100002755591405'
S'Sneh Bibyan'
tp305
a(S'100003172383978'
S'Jagdeep Dhaka'
tp306
a(S'100000571030843'
S'Rahul Chouhan'
tp307
a(S'1085708553'
S'Snigdha Aggarwal'
tp308
a(S'699140053'
S'Rishabh Berlia'
tp309
a(S'100000248576350'
S'Toshin Bishnoi'
tp310
a(S'1310237389'
S'Shailaj Jain'
tp311
a(S'100000089695135'
S'Salil Lakhanpal'
tp312
a(S'861675695'
S'Imran Ahmad Ali'
tp313
a(S'1384566348'
S'Jagriti Sahu'
tp314
a(S'100001977433935'
S'Adesh Sharma'
tp315
a(S'100000303873480'
S'Gurkanwar Singh'
tp316
a(S'1287332018'
S'Mayank Gupta'
tp317
a(S'100000274680580'
S'Jannat Thapar'
tp318
a(S'1828357197'
S'Mayank Prajapat'
tp319
a(S'100002559919331'
S'Navdeep Singh Chaudhary'
tp320
a(S'816643414'
S'Nikhila Hans'
tp321
a(S'1660222450'
S'Nakul Gupta'
tp322
a(S'584495799'
S'Rubina Ghuman'
tp323
a(S'100001518819639'
S'Vivek'
tp324
a(S'100003944613978'
S'Prince Bhalla'
tp325
a(S'100002481829150'
S'Rh\\u00fdthm Gupta'
tp326
a(S'100001034011236'
S'Vivek Tiwari'
tp327
a(S'100001295147096'
S'Aayush Jindal'
tp328
a(S'100002729100704'
S'Parvesh Kadiyan'
tp329
a(S'100002634235725'
S'Zeeshan Ahmad'
tp330
a(S'100000549469366'
S'Sachin Makhija'
tp331
a(S'100000140677460'
S'Priyanshi Singh'
tp332
a(S'100002436953397'
S'Himani Gupta'
tp333
a(S'100000613268098'
S'Anureet Bhardwaj'
tp334
a(S'100000877433414'
S'Atishesh Rana'
tp335
a(S'100002601872468'
S'Ankita Sharma'
tp336
a(S'1333807834'
S'Daksh Singla'
tp337
a(S'100002544092836'
S'Akaant Mittal'
tp338
a(S'1044488155'
S'Pranav Nanda'
tp339
a(S'100000625614037'
S'Rishabh Jain'
tp340
a(S'616451555'
S'Itee V. Kapur'
tp341
a(S'100000003180761'
S'Ramit Sethi'
tp342
a(S'1353144818'
S'Ashish Bibyan'
tp343
a(S'1178513629'
S'Yashdeep Singh'
tp344
a(S'1324723631'
S'Mohan Sai'
tp345
a(S'100001932159101'
S'Sankul Ubbott'
tp346
a(S'100001724677647'
S'Digvijay Singh Pangti'
tp347
a(S'100001248858158'
S'Sudhir Goyal'
tp348
a(S'100000521292731'
S'Aastha Kapoor'
tp349
a(S'1396351182'
S'Siddharth Singh'
tp350
a(S'100000344214537'
S'Mohit Singla'
tp351
a(S'100001918563534'
S'Swati George'
tp352
a(S'100000942887396'
S'Manoj Meena'
tp353
a(S'100001743908689'
S'Vikash Kumar'
tp354
a(S'100002021808276'
S'Shreya Sharma'
tp355
a(S'1835893765'
S'Pulkit Talwar'
tp356
a(S'100002569438096'
S'Anil Saroj'
tp357
a(S'100002311866950'
S'Rishi Meel'
tp358
a(S'1353864960'
S'Malay Krishna'
tp359
a(S'817209227'
S'Mayank Agrawal'
tp360
a(S'100000818743786'
S'Harmanpreet Bains'
tp361
a(S'1483963533'
S'AaRzoo SObti'
tp362
a(S'1313504571'
S'Piyush Jindal'
tp363
a(S'100000278709885'
S'Vishal Suhindani'
tp364
a(S'100001381321961'
S'Ayush Kumar'
tp365
a(S'803840746'
S'Mehraaj Sandhu'
tp366
a(S'1338990598'
S'Siddharth Garg'
tp367
a(S'1540298587'
S'Aditya Sharma'
tp368
a(S'100000712489462'
S'Utkarsh Singh'
tp369
a(S'100000926374281'
S'Mayank Jain'
tp370
a(S'100003841048958'
S'Atul Verma'
tp371
a(S'100001728738908'
S'Mankaran Gill'
tp372
a(S'100001333219825'
S'Sahil Singla'
tp373
a(S'100001793711595'
S'Param Awasthi'
tp374
a(S'100002058687166'
S'Pranav Choudhary'
tp375
a(S'100002526391752'
S'Ekansh Gupta'
tp376
a(S'100003793467300'
S'Megha Singh'
tp377
a(S'1293624058'
S'Arnav Kansal'
tp378
a(S'100002310110082'
S'Tanmay Sahni'
tp379
a(S'100001224524621'
S'Raman Kumar'
tp380
a(S'100002392712649'
S'Khyatti Gupta'
tp381
a(S'1151128085'
S'Rohan Muralidharan'
tp382
a(S'100003977931974'
S'Devilal Berad'
tp383
a(S'100003087713290'
S'Siddhant Malviya'
tp384
a(S'100000251574550'
S'Avinash Jadaun'
tp385
a(S'100002337503115'
S'Sumegha Garg'
tp386
a(S'100002576192803'
S'Prabhav Shukla'
tp387
a(S'100000637811779'
S'Lokesh Jangir'
tp388
a(S'100000407901989'
S'Parth Goel'
tp389
a(S'1546932421'
S'Nikita Bery'
tp390
a(S'100000036636625'
S'Ishan Jindal'
tp391
a(S'100003825775616'
S'Tushar Marda'
tp392
a(S'1133676235'
S'Prakhar Balasubramanian'
tp393
a(S'1378009919'
S'Agam Goel'
tp394
a(S'100006023294468'
S'Shobhit Mathur'
tp395
a(S'1351650640'
S'Sarthak Aggarwal'
tp396
a(S'1604984549'
S'Mahak Agarwal'
tp397
a(S'100001393217652'
S'Hariprakash Meena'
tp398
a(S'100000250680118'
S'Amrinder Singh'
tp399
a(S'100000826410319'
S'Harsh Oza'
tp400
a(S'100001039696673'
S'Disha Jain'
tp401
a(S'100002022023306'
S'KanuPriya Aggarwal'
tp402
a(S'100002610338909'
S'Sumola Devi'
tp403
a(S'100002682122721'
S'Devendra Kataria'
tp404
a(S'100000605492276'
S'Prajwal Pandey'
tp405
a(S'1421783718'
S'Ayush Mittal'
tp406
a(S'100003725866060'
S'Isha Agnihotri'
tp407
a(S'1510965550'
S'Anmol Manocha'
tp408
a(S'100001537058319'
S'Anuradha Kumari'
tp409
a(S'100002257316389'
S'Ishwar Partap Singh'
tp410
a(S'100001104286498'
S'Hemant Singh'
tp411
a(S'100001272214573'
S'Nikhil Kumar'
tp412
a(S'100000234326865'
S'Deepak Patil'
tp413
a(S'1014795136'
S'Ishwar Devgan'
tp414
a(S'100002347045448'
S'Sudhanshu Kumar Sharma'
tp415
a(S'100000066672689'
S'Siddharth Mahajan'
tp416
a(S'100001005751269'
S'Reeta Meena'
tp417
a(S'100002598502529'
S'Rohit Jain'
tp418
a(S'549416514'
S'Ayush Kathuria'
tp419
a(S'100003831764027'
S'Ramana Kanth Reddy'
tp420
a(S'100000009588490'
S'Ankur Thakur'
tp421
a(S'100001633662020'
S'Uday Katkar'
tp422
a(S'100001326191014'
S'Rishabh Goyal'
tp423
a(S'100002969267872'
S'Bribhushan Tripathi'
tp424
a(S'100001361855778'
S'Karan Sihag'
tp425
a(S'100000180637643'
S'Varnika Gupta'
tp426
a(S'100001252650136'
S'Suraj Khatkar'
tp427
a(S'795930955'
S'Prachi Pande'
tp428
a(S'793843208'
S'Jasjeev Singh'
tp429
a(S'100001220484639'
S'Suhalika Singla'
tp430
a(S'100000669217804'
S'Sumit Acharya'
tp431
a(S'100002946276253'
S'Rahul Dev'
tp432
a(S'100001393836599'
S'Narottam Meena'
tp433
a(S'100003728398589'
S'Mayank Jain'
tp434
a(S'100001182530205'
S'Bhanu Bansal'
tp435
a(S'100002451192137'
S'Rakshit Gautam'
tp436
a(S'100000202308548'
S'Udita Jindal'
tp437
a(S'100002445199318'
S'Hitesh Garg'
tp438
a(S'761319018'
S'Tani Pannu'
tp439
a(S'100000105185862'
S'Sahil Kukreja'
tp440
a(S'100004488339434'
S'Ravish Ratnam'
tp441
a(S'100002559974136'
S'Rajshekar Ranabothu'
tp442
a(S'100000760881620'
S'Vishal Bansal'
tp443
a(S'100002878261369'
S'Vaibhav Barnwal'
tp444
a(S'100001117273232'
S'Shalu Khinchi'
tp445
a(S'100002611389010'
S'Shweta Pathak'
tp446
a(S'100000183086620'
S'Kapil Jakhar'
tp447
a(S'100001205485803'
S'Prateek Saini'
tp448
a(S'778387199'
S'Isha Chaturvedi'
tp449
a(S'690478051'
S'Aishwarya Vardhan Chaturvedi'
tp450
a(S'1604161012'
S'Soma Banerjee Mukhopadhyay'
tp451
a(S'100001231542588'
S'Siddhant Jain'
tp452
a(S'100000347419297'
S'Shreya Handa'
tp453
a(S'100000475592686'
S'Sumit Kumar Tripathi'
tp454
a(S'100001061207795'
S'Aalekh Sharan'
tp455
a(S'100000590266824'
S'Avneet Setia'
tp456
a(S'599107993'
S'Karan Rai'
tp457
a(S'100001428908818'
S'Aman Jain'
tp458
a(S'567894458'
S'Anuj Rai Uttam'
tp459
a(S'100002675700630'
S'Ankit Awasthi'
tp460
a(S'657081811'
S'Vishakha Shankar'
tp461
a(S'665644565'
S'Aditya Choudhary'
tp462
a(S'1206243699'
S'Shreenath A. Khemka'
tp463
a(S'100003907322481'
S'Abhishek Arora'
tp464
a(S'568032337'
S'Rishabh Garg'
tp465
a(S'1435222412'
S'Tushar Asnani'
tp466
a(S'100002491117284'
S'Himanshu Sanghi'
tp467
a(S'100001097468572'
S'Abhishek Dhawan'
tp468
a(S'100002285164250'
S'Arpan Sheetal'
tp469
a(S'1213258567'
S'Sonali Jatawat'
tp470
a(S'597991765'
S'Kushagra Jaiswal'
tp471
a(S'687253661'
S'Anmol Jain'
tp472
a(S'100002644786952'
S'Shubham Kumar'
tp473
a(S'100003113998333'
S'Anu Meena'
tp474
a(S'100000984875985'
S'Sagar Chaudhary'
tp475
a(S'100001112233804'
S'Monoj Basumatary'
tp476
a(S'527719606'
S'Sambhav Gupta'
tp477
a(S'100001616123618'
S'Ambrish Sekhri'
tp478
a(S'100004315564276'
S'Sarthak Sahoo'
tp479
a(S'100003755913622'
S'Nitin Agarwal'
tp480
a(S'100002331637578'
S'Shubhanshu Jain'
tp481
a(S'100001579071481'
S'Rohit Arya'
tp482
a(S'1108951576'
S'Abhishek Bansal'
tp483
a(S'100000234690253'
S'Saumya Saishree'
tp484
a(S'1081421743'
S'Bhanu Mittal'
tp485
a(S'100002973317522'
S'Pulse Links'
tp486
a(S'100003883037852'
S'Arshia Jakhu'
tp487
a(S'100000660608152'
S'Aashray Puri'
tp488
a(S'100001233048460'
S'Mohd Saood'
tp489
a(S'100001359678078'
S'Nikhil Aggarwal'
tp490
a(S'100002340780033'
S'Ritesh Sahoo'
tp491
a(S'100001977327287'
S'Raj Kumar'
tp492
a(S'1443630710'
S'Swati Saini'
tp493
a(S'100002745812228'
S'Ankit Narang'
tp494
a(S'100006301484035'
S'Onkar Siyag'
tp495
a(S'1028056117'
S'Amol Mittal'
tp496
a(S'100002688448093'
S'Jaideep Kumar'
tp497
a(S'100007679682768'
S'Poltu Commentary'
tp498
a(S'548820720'
S'Surbhi Goel'
tp499
a(S'1483518909'
S'Shubham Batra'
tp500
a(S'100002534599346'
S'Ankush Jhawar'
tp501
a(S'1625691064'
S'Ashutosh Pandey'
tp502
a(S'100002466696501'
S'Rupam Sandhu'
tp503
a(S'100000461049000'
S'Sai Chakradhar Araveti'
tp504
a(S'100002347857241'
S'Niyati Jain'
tp505
a(S'1710105668'
S'Garima Oswal'
tp506
a(S'100000393173855'
S'Lakshay Goel'
tp507
a(S'100001021721843'
S'Palas Kumar'
tp508
a(S'100000225466646'
S'Shreya Garg'
tp509
a(S'1546151902'
S'Shivangi Sharma'
tp510
a(S'100001450047329'
S'Sidhartha Jain'
tp511
a(S'100001747003926'
S'Kirti Jangra'
tp512
a(S'1517227470'
S'Harshit Malik'
tp513
a(S'100000209791787'
S'Ayush Pandey'
tp514
a(S'100001179847336'
S'Sainyam Galhotra'
tp515
a(S'100003656308034'
S'Vedant Bhardwaj'
tp516
a(S'1502795067'
S'Vandana Tuljapurkar Jakati'
tp517
a(S'100002289266255'
S'Saahil Mendiratta'
tp518
a(S'100000190685172'
S'Rohit Agarwal'
tp519
a(S'1334095566'
S'Sarthak Jain'
tp520
a(S'1403711743'
S'Eshaan Gupta'
tp521
a(S'598449222'
S'Rohan Pratap Singh'
tp522
a(S'1668194651'
S'Ronnit Roy Burman'
tp523
a(S'100000455982050'
S'Arushi Talwar'
tp524
a(S'100003757837321'
S'Himanshu Umaria'
tp525
a(S'513372516'
S'Soumyo Madhab Mitra'
tp526
a(S'1553514845'
S'Jyoti Kadian'
tp527
a(S'1230373851'
S'Vijay Pal Singh'
tp528
a(S'100002112497243'
S'Vidhem Chhabra'
tp529
a(S'1288478213'
S'Tavneet Bedi'
tp530
a(S'100001438550674'
S'Pranav Goyal'
tp531
a(S'100000522950312'
S'Dev Priyam'
tp532
a(S'100002730722485'
S'Alugubelly Anusha Reddy'
tp533
a(S'100000356450493'
S'Vikas Garg'
tp534
a(S'100003136102920'
S'Rohit At Iit Delhi'
tp535
a(S'100004142736389'
S'Shilakha Sindhi'
tp536
a(S'100005009671327'
S'Raman Bhatia'
tp537
a(S'1013773904'
S'Vandit Chawla'
tp538
a(S'100001209836296'
S'Badresh Kumar Singh'
tp539
a(S'100000122691071'
S'Rishabh Sharma'
tp540
a(S'894545159'
S'Nikhil Goyal'
tp541
a(S'806583737'
S'Kanika Gupta'
tp542
a(S'1069817967'
S'Aman Agrawal'
tp543
a(S'100001128720221'
S'Sajal Jain'
tp544
a(S'100002078652401'
S'Fsae Iit Delhi'
tp545
a(S'100001585702477'
S'Rishabh Sharma'
tp546
a(S'100001197932981'
S'Ankit Saharan'
tp547
a(S'528249570'
S'Soumil Chugh'
tp548
a(S'100002491724196'
S'Akanksha Singh'
tp549
a(S'722841711'
S'Sana Kamboj'
tp550
a(S'100002457525720'
S'Noorpuneet Kaur'
tp551
a(S'100000005630935'
S'Karan Kumar Gupta'
tp552
a(S'100001656517592'
S'Ankita Chadha'
tp553
a(S'563544747'
S'Girish Mittal'
tp554
a(S'100001125658086'
S'Chahat Abrol'
tp555
a(S'100000978095583'
S'Abhinav Dhar'
tp556
a(S'100001140589073'
S'Mukul Arora'
tp557
a(S'654653577'
S'Nipun Gupta'
tp558
a(S'100001166069282'
S'Sachin Yadav'
tp559
a(S'1230843519'
S'Deepali Aneja'
tp560
a(S'836036601'
S'Nss Iitd'
tp561
a(S'100000570739201'
S'Anmol Jain'
tp562
a(S'557974031'
S'Vishnu Tallapragada'
tp563
a(S'100001824518843'
S'Siddhant Verma'
tp564
a(S'100001211778255'
S'Abani Shankar Nayak'
tp565
a(S'100001728387747'
S'Shrimansi Kaushik'
tp566
a(S'772588683'
S'Abhinav Gupta'
tp567
a(S'100002859279001'
S'Shani Yadav'
tp568
a(S'100000061215117'
S'Himanshu Singh'
tp569
a(S'100003815976355'
S'Ayush Jain'
tp570
a(S'1685499640'
S'Rahul Nagla'
tp571
a(S'100002530929450'
S'Vikas Yadav'
tp572
a(S'100002400050685'
S'Utkarsh Sharma'
tp573
a(S'100002295701963'
S'Varun Sahni'
tp574
a(S'100000954003073'
S'Aridaman Singh'
tp575
a(S'100002591073327'
S'Priyanka Rathore'
tp576
a(S'100000042751220'
S'Jasmeet Singh'
tp577
a(S'100001676424612'
S'Muskaan Sehajpal'
tp578
a(S'523682754'
S'Adeeb Mustafa'
tp579
a(S'100001276717142'
S'Ram Avtar Meena'
tp580
a(S'1510252721'
S'Nikhil Bery'
tp581
a(S'100002439829051'
S'Hitesh Garg'
tp582
a(S'1171334024'
S'Gunit Gandhi'
tp583
a(S'100001457472055'
S'Shubham Maini'
tp584
a(S'100001032100282'
S'Shivam Verma'
tp585
a(S'1667932283'
S'Bhavdeep Modi'
tp586
a(S'100000898717917'
S'Shreyansh Ratnam Khare'
tp587
a(S'100002314567019'
S'Siddhartha Shahi'
tp588
a(S'1678861830'
S'Yashvir Killz'
tp589
a(S'100003752283260'
S'Shailesh Bohra'
tp590
a(S'1167890375'
S'Jivitesh Anand'
tp591
a(S'1223317086'
S'Aashna Guglani'
tp592
a(S'100002567537682'
S'Siddharth Chaand'
tp593
a(S'100002552035001'
S'Smriti Vashishtha Sharma'
tp594
a(S'100002469606780'
S'Himanshu Jain'
tp595
a(S'667292017'
S'Sarthak Gupta'
tp596
a(S'1684983943'
S'Abhishek Singh'
tp597
a(S'100001824042671'
S'Pallavi Grover'
tp598
a(S'100003136869990'
S'Raghavender Goel'
tp599
a(S'100003959392616'
S'Anjana Gaur'
tp600
a(S'100001160150254'
S'Aquib Ansari'
tp601
a(S'100002451409926'
S'Yashaswi Chawla'
tp602
a(S'620072163'
S'Nazuk Kumar'
tp603
a(S'100001917505403'
S'Mukal Ubbott'
tp604
a(S'100000031936842'
S'\\u7530\\u9e97\\u5a1f'
tp605
a(S'1781175692'
S'Karan Tiwana'
tp606
a(S'516573781'
S'Trisha Gupta'
tp607
a(S'100004825805709'
S'Anuj Mahajan'
tp608
a(S'100000418835704'
S'Vipul Garg'
tp609
a(S'1612831153'
S'Arpit Arora'
tp610
a(S'100001433432389'
S'Vivek Nain'
tp611
a(S'100000117581751'
S'Abhinandan Bhardwaj'
tp612
a(S'100001428586135'
S'Sahil Ghangas'
tp613
a(S'1331199175'
S'Madhuri Gambhir'
tp614
a(S'100002731596180'
S'Bhavika Mittal'
tp615
a(S'1026146315'
S'Himanshu Mantri'
tp616
a(S'100001191593096'
S'\\u091a\\u094c\\u0927\\u0930\\u0940 \\u0906\\u0915\\u093e\\u0936 \\u0916\\u0940\\u091a\\u0921\\u093c'
tp617
a(S'100001020897560'
S'Pulkit Pujara'
tp618
a(S'100002936514423'
S'Tejas Jhamb'
tp619
a(S'1125656073'
S'Prerna Arya'
tp620
a(S'100002820118631'
S'Vikrant Malhotra'
tp621
a(S'1076815776'
S'Prakhar Jain'
tp622
a(S'100002495611124'
S'Amit Jhurawat'
tp623
a(S'100001195402577'
S'Tushar Kainth'
tp624
a(S'100002267855254'
S'Priya Pareek'
tp625
a(S'100000275547575'
S'Phani Mahesh'
tp626
a(S'100002929796568'
S'SusHil KuMar SaiNi'
tp627
a(S'100000372516976'
S'Malika Sehajpal'
tp628
a(S'100002264109775'
S'Kunal Goyal'
tp629
a(S'1581425954'
S'Samarth Vadia'
tp630
a(S'561029186'
S'Tanushree Piplani'
tp631
a(S'100000141228089'
S'Paras Madhan'
tp632
a(S'100001218367744'
S'Arvind Kumar'
tp633
a(S'1258689215'
S'Prakhar Goel'
tp634
a(S'1331125234'
S'Naman Bhatia'
tp635
a(S'1672856606'
S'Saurabh Rohila'
tp636
a(S'100002293375292'
S'Aneesh Aggarwal'
tp637
a(S'100000304591140'
S'Nishtha Budhiraja'
tp638
a(S'100001100395656'
S'Sagar Kapoor'
tp639
a(S'100000211633278'
S'Kunwar Pratap Singh'
tp640
a(S'100001413630696'
S'Robin Singh'
tp641
a(S'100001507360142'
S'Nilesh Kumar'
tp642
a(S'1268328743'
S'Urvika Rawat'
tp643
a(S'528489799'
S'Karan Sahni'
tp644
a(S'100003974773998'
S'Abhishek Meena'
tp645
a(S'100002229291862'
S'Manish Meena'
tp646
a(S'100001928167970'
S'Japish Aggarwal'
tp647
a(S'100002491336426'
S'Anirudh Mittal'
tp648
a(S'100002294896893'
S'Akhil Jindal'
tp649
a(S'1404904331'
S'Yaask Bansal'
tp650
a(S'518577896'
S'Amitabh Saraswati'
tp651
a(S'100001037338619'
S'Jayant Sethi'
tp652
a(S'1040067414'
S'Kartik Anand'
tp653
a(S'1150311977'
S'Sakshi Bhutani'
tp654
a(S'100000787292608'
S'Vaibhav D. Kuliar'
tp655
a(S'100001160626764'
S'Vibhav Sinha'
tp656
a(S'100003883174102'
S'Ankit Yadav'
tp657
a(S'551002764'
S'Gunjan Nanchahal'
tp658
a(S'100001791428823'
S'Khushbu Sapra'
tp659
a(S'100003857323008'
S'Anvita Singh Sikarwar'
tp660
a(S'1481002598'
S'Sagar Arora'
tp661
a(S'100000526362371'
S'Aman Verma'
tp662
a(S'840647416'
S'Priyata Shah'
tp663
a(S'100001007815772'
S'Mehul Mittal'
tp664
a(S'1510755528'
S'Mayank Rawat'
tp665
a(S'100000854818720'
S'Gurjinder Setia'
tp666
a(S'100003031691960'
S'Ankita Pandey'
tp667
a(S'100002332680053'
S'Shubham Agarwal'
tp668
a(S'100002621400788'
S'Vivek Nautiyal'
tp669
a(S'100002450954844'
S'Kartik Agarwal'
tp670
a(S'100002107677389'
S'Ankit Thiranh'
tp671
a(S'100002458354058'
S'Krishna Teja'
tp672
a(S'100002324499765'
S'Shaurya Thakur'
tp673
a(S'100002372465722'
S'\\u0924\\u0930\\u0941\\u0923 \\u0935\\u0940\\u0930'
tp674
a(S'100002240036514'
S'Aditya Sengar'
tp675
a(S'100002297377990'
S'Yadram Meena'
tp676
a(S'100001574592208'
S'Rohit Sharma'
tp677
a(S'100000819762805'
S'Radha Bahuguna'
tp678
a(S'748897785'
S'Naman Aggarwal'
tp679
a(S'724224495'
S'Sahaj Ghose'
tp680
a(S'100000544526127'
S'Anuradha Bhatia'
tp681
a(S'1424092486'
S'Chhavi Gupta'
tp682
a(S'100004404818972'
S'Sameera Ranga'
tp683
a(S'100002706678662'
S'Devender Meena'
tp684
a(S'527879191'
S'Aanchal Hooda'
tp685
a(S'100000765736184'
S'Avi Singh Rai'
tp686
a(S'1475192266'
S'Sakshi Malhotra'
tp687
a(S'1442482247'
S'Raghav Gupta'
tp688
a(S'100002119150364'
S'Avom Goyal'
tp689
a(S'100003733910871'
S'Saurabh Gautam'
tp690
a(S'1131674417'
S'Anushree Maheshwari'
tp691
a(S'100000551834355'
S'Nitish Goel'
tp692
a(S'1702766608'
S'Shreya Mahendru'
tp693
a(S'730038693'
S'Surabhi Jha'
tp694
a(S'1205106051'
S'Kriti Tuteja'
tp695
a(S'100000217474873'
S'Muddit Khanna'
tp696
a(S'1576011330'
S'Anchal Gupta'
tp697
a(S'100000621605104'
S'Rohan Seth'
tp698
a(S'100002611014123'
S'Gaurav Goyal'
tp699
a(S'100003525629241'
S'Akshay Shrivastav'
tp700
a(S'1372301057'
S'Jinesh Papdiwal'
tp701
a(S'1200570141'
S'Anshul Sharma'
tp702
a(S'100002298046357'
S'Anand Agrawal'
tp703
a(S'100002600811214'
S'Amit Kashyap'
tp704
a(S'100000315282632'
S'Vishal Kashyap'
tp705
a(S'621611608'
S'Balsher Sidhu'
tp706
a(S'1642744028'
S'Shubham Jindal'
tp707
a(S'1519003131'
S'Ronak Zala'
tp708
a(S'1138658714'
S'Chandni Maheshwari'
tp709
a(S'100002437262943'
S'Eeshita Bansal'
tp710
a(S'100000699017696'
S'Shifali Goyal'
tp711
a(S'1281902862'
S'Dhr\\u00fav S\\u00ee\\u00f1gl\\u00e5'
tp712
a(S'100003908561039'
S'Pulak Mehta'
tp713
a(S'1154338238'
S'Aditi Sheoran'
tp714
a(S'100001160250099'
S'Tarun Singh'
tp715
a(S'1272397119'
S'Rishav Sinha'
tp716
a(S'1034956483'
S'Shreyans Mehta'
tp717
a(S'100001777474036'
S'Nitika Ashat'
tp718
a(S'100000916945634'
S'Shantanu Dahiya'
tp719
a(S'100002361378518'
S'Hrishikesh Nair'
tp720
a(S'100000020390425'
S'Aayush Garg'
tp721
a(S'100002676850916'
S'Sharanya Srinivasan'
tp722
a(S'100000944707132'
S'Ningning Niumai'
tp723
a(S'1035308770'
S'Arnav Kapur'
tp724
a(S'1135543219'
S'Pulkit Gupta'
tp725
a(S'100000303530305'
S'Aayush Aggarwal'
tp726
a(S'1713799874'
S'Anubhav Gupta'
tp727
a(S'100002695338429'
S'Saurabh Sharma'
tp728
a(S'100002724078470'
S'Karakoram Hwc'
tp729
a(S'100000721203341'
S'Sourav Sinha'
tp730
a(S'100002452615174'
S'Ishan Khot'
tp731
a(S'1815472802'
S'Sood Abhishek'
tp732
a(S'582367709'
S'Zee Ke'
tp733
a(S'100001588086292'
S'Shantanu Singh Raghuvanshi'
tp734
a(S'1528284382'
S'Ankur Tomar'
tp735
a(S'100001544133959'
S'Neeraj Kumar Yadav'
tp736
a(S'1500315856'
S'Venika Aggarwal'
tp737
a(S'100003208220256'
S'Navleet Kaur'
tp738
a(S'1166438840'
S'Nikhil Goyal'
tp739
a(S'100001054413555'
S'Garvit Goel'
tp740
a(S'1799766372'
S'Harshul Kumar'
tp741
a(S'100002384774696'
S'Bakshinder Pal Singh Khalsa'
tp742
a(S'100003104160192'
S'Anu Sharma'
tp743
a(S'776113054'
S'Vaibhav Grover'
tp744
a(S'100000077497911'
S'Deepak Koli'
tp745
a(S'100001032587205'
S'Anandu Mukundan'
tp746
a(S'100002520878550'
S'Harman Preet Singh'
tp747
a(S'100001605835874'
S'Arpit Dhall'
tp748
a(S'100001444027337'
S'Surya Karan Sambyal'
tp749
a(S'100004266129491'
S'\\u091c\\u093f\\u0924\\u0947\\u0928\\u094d\\u0926\\u094d\\u0930 \\u0938\\u093f\\u0902\\u0939 \\u0935\\u0930\\u094d\\u092e\\u093e'
tp750
a(S'100001135158267'
S'Ganvendra Singh Chahar'
tp751
a(S'1224771989'
S'Shubham Mehra'
tp752
a(S'100000112388985'
S'Ujjaini Sengupta'
tp753
a(S'100002689568295'
S'Anupam Yadav'
tp754
a(S'100001569905724'
S'Sumit Chauhan'
tp755
a(S'1059530498'
S'Abhishek Singh'
tp756
a(S'100001437268883'
S'Saurabh Tak'
tp757
a(S'684348214'
S'Sachin Sharma'
tp758
a(S'1302907015'
S'Adit Jain'
tp759
a(S'1081000432'
S'Jitesh Bansal'
tp760
a(S'528869292'
S'Pranav Sahni'
tp761
a(S'100000996011477'
S'Chinmay Mittal'
tp762
a(S'100000866726767'
S'Apoorv Bansal'
tp763
a(S'100002165905278'
S'Ayush Gupta'
tp764
a(S'100002709117989'
S'Neeru Khullar'
tp765
a(S'1220976064'
S'Shinny Jain'
tp766
a(S'100005409939431'
S'Payoj Jain'
tp767
a(S'100003596457235'
S'Ankita Chadha'
tp768
a(S'100002478800767'
S'Payoj Jain'
tp769
a(S'100006380403061'
S'Pawan Raut'
tp770
a(S'100001533822386'
S'Rutha Shenoy'
tp771
a(S'100000230142912'
S'Anil Sharma'
tp772
a(S'1677321351'
S'Utkarsh Kumar'
tp773
a(S'1842735291'
S'Ayush Sharma'
tp774
a(S'1253535342'
S'Varinderjit Singh'
tp775
a(S'1443507707'
S'Palak Kaur'
tp776
a(S'100003298350612'
S'Sahebjeet Singh Arora'
tp777
a(S'100002429098769'
S'Kundan Jangir'
tp778
a(S'100001956779273'
S'Deep Titoria'
tp779
a(S'100006764044718'
S'Arvind Sharma'
tp780
a(S'100001142947403'
S'Nitesh Patel'
tp781
a(S'100002761505708'
S'Hemlata Meena'
tp782
a(S'592716695'
S'Ananth Govind Rajan'
tp783
a(S'100000386678832'
S'Yaaran Da Yaar Ajitesh'
tp784
a(S'100002317797193'
S'Anshika Gupta'
tp785
a(S'100001546825062'
S'Rijul Goyal'
tp786
a(S'100001320900780'
S'Shubham Saini'
tp787
a(S'100004174900908'
S'Vijay Kumar Meena'
tp788
a(S'662690089'
S'Vasant Matsagar'
tp789
a(S'1542291078'
S'Urvi Chandiok'
tp790
a(S'1311356489'
S'Akshay Mittal'
tp791
a(S'666468743'
S'Arshia Bhardwaj'
tp792
a(S'1421261447'
S'Akshay Malik'
tp793
a(S'100002274718596'
S'Apoorv Jain'
tp794
a(S'100000322698714'
S'Rishab Sehra'
tp795
a(S'100002855226774'
S'Nupur Jain'
tp796
a(S'100000914217379'
S'Aman Goyal'
tp797
a(S'100003472787133'
S'Sahil Loomba'
tp798
a(S'100006159424322'
S'Kumar Rishabh'
tp799
a(S'100000139956067'
S'Anshit Agrawal'
tp800
a(S'100002391184901'
S'Shashank Yadav'
tp801
a(S'100002427260001'
S'Payal Jawalkar'
tp802
a(S'1093939667'
S'Animesh Chowdhary'
tp803
a(S'1155564796'
S'Ajit Singh Hawk'
tp804
a(S'100000869434141'
S'John Alen'
tp805
a(S'569537049'
S'Vipul Singh'
tp806
a(S'100003884947152'
S'Raman Goyal'
tp807
a(S'1194408830'
S'Amtoj Lamba'
tp808
a(S'100002251437139'
S'Aman Arora'
tp809
a(S'100004099421860'
S'Prashant Kumar'
tp810
a(S'1758631619'
S'Radhika Joshi'
tp811
a(S'1748101697'
S'Radhika Uppal'
tp812
a(S'1031505802'
S'Sambhav Goel'
tp813
a(S'1040290633'
S'Gaurav Dev Singh'
tp814
a(S'100006102849856'
S'Apurv Malik'
tp815
a(S'1043825992'
S'Rahul Singhani'
tp816
a(S'100001226881238'
S'Deepali Singh'
tp817
a(S'770201167'
S'Karan Vohra'
tp818
a(S'1604082661'
S'Saurabh Gupta'
tp819
a(S'100003997660443'
S'Akriti Bhogal'
tp820
a(S'100002500626935'
S'Tanvi Singh'
tp821
a(S'1000817675'
S'Kartik Sreedhar'
tp822
a(S'100002040646613'
S'Harshit Ajmeriya'
tp823
a(S'1239879677'
S'RiJul Prakash'
tp824
a(S'100002223118607'
S'Shivam Jain'
tp825
a(S'100002648361798'
S'Rahul Balani'
tp826
a(S'1847807475'
S'Ashima Sharma'
tp827
a(S'100001119065849'
S'Rishub Malhotra'
tp828
a(S'1261535723'
S'Dinaz Malik'
tp829
a(S'100000467628353'
S'Thakur Soham Dadwal'
tp830
a(S'1293094679'
S'Dhruv Chaudhary'
tp831
a(S'100000391823077'
S'Arpit Puri'
tp832
a(S'1315992043'
S'Ambuj Mishra'
tp833
a(S'100000775861237'
S'Bhavya Kumar'
tp834
a(S'100002161315904'
S'Rupal K K Roy'
tp835
a(S'1176012156'
S'Anshul Goyal'
tp836
a(S'100000475197789'
S'Nitesh Kamidi'
tp837
a(S'100002670620868'
S'Mankaran Manhas'
tp838
a(S'1069745186'
S'Ripudaman Singh Mand'
tp839
a(S'100002476282886'
S'Shivam Shah'
tp840
a(S'100002462272995'
S'Mohibullah Ansari'
tp841
a(S'100002466901626'
S'Puja Khanna'
tp842
a(S'100000520666849'
S'Kshitij Jain'
tp843
a(S'1528204548'
S'Vishal Panigrahy'
tp844
a(S'1324694557'
S'Divyanshu Mittal'
tp845
a(S'1286575600'
S'Karan Singla'
tp846
a(S'100002672001919'
S'Rajendra Indulia'
tp847
a(S'1038712586'
S'Aishwarya Arya'
tp848
a(S'100001338313999'
S'Shreyans Jain'
tp849
a(S'1704713139'
S'Shubham Bhatia'
tp850
a(S'700426744'
S'Udai Singh'
tp851
a(S'100007771710624'
S'Freespeech Jwala'
tp852
a(S'100000521723033'
S'Srinath Reddy'
tp853
a(S'1113246352'
S'Aishwarya Singh'
tp854
a(S'100003149700022'
S'Annie Godara'
tp855
a(S'1015336052'
S'Kshitij Agarwal'
tp856
a(S'1543122071'
S'Karan Veer Siag'
tp857
a(S'1747551982'
S'Annika Jotshi'
tp858
a(S'650757022'
S'Aryanshi Kumar'
tp859
a(S'595661268'
S'Deepanshu Agarwal'
tp860
a(S'100002597264511'
S'Akshay Goyal'
tp861
a(S'100000656100560'
S'Aayush Goel'
tp862
a(S'718005825'
S'Shivam Grover'
tp863
a(S'100000527017377'
S'Jasleen Madaan'
tp864
a(S'1731224311'
S'Vanya Bisht'
tp865
a(S'1445100773'
S'Aditya Mahajan'
tp866
a(S'100001877184620'
S'Arun Mahala'
tp867
a(S'100001527866702'
S'Jugaad Pannu'
tp868
a(S'690261209'
S'Anchit Sood'
tp869
a(S'100000127825577'
S'Akshay Madan'
tp870
a(S'100002130021834'
S'Shubham Grover'
tp871
a(S'100002547687185'
S'Umang Thareja'
tp872
a(S'100001184166439'
S'Ramlakhan Gupta'
tp873
a(S'100002324883447'
S'Rajesh Kumar Regar'
tp874
a(S'100001083061968'
S'Utkarsh Malhotra'
tp875
a(S'503935320'
S'Aarushi Kalra'
tp876
a(S'100001015509300'
S'Ronak Gupta'
tp877
a(S'100001238401400'
S'Shailesh Machra'
tp878
a(S'100001450891051'
S'Chhavi Budhiraja'
tp879
a(S'1831503027'
S'Adhyan Hirwani'
tp880
a(S'1046298660'
S'Rohan Mital'
tp881
a(S'100002743117971'
S'KunwarBarister Singh'
tp882
a(S'1014198598'
S'Akhil Kedia'
tp883
a(S'100007230278709'
S'Nitesh Patel'
tp884
a(S'718352626'
S'Siddharth Batra'
tp885
a(S'100001617797696'
S'Sailesh Balasubramanian'
tp886
a(S'100002714135953'
S'Avantika Choudhary'
tp887
a(S'1740590965'
S'Prakhar Arora'
tp888
a(S'521295452'
S'Manan Khurma'
tp889
a(S'1045086553'
S'Faheem Shereef'
tp890
a(S'100002203671402'
S'Rajat Jain'
tp891
a(S'100001528710121'
S'Sahil Sahni'
tp892
a(S'100000546831336'
S'Anirudh Dubey'
tp893
a(S'100000418003853'
S'Ankita Balotia'
tp894
a(S'1028804608'
S'Devansh Sharma'
tp895
a(S'100000103050651'
S'Utkarsh Kathpalia'
tp896
a(S'100001098452101'
S'Ciddhi Jain'
tp897
a(S'1348009584'
S'Amrita Trehan'
tp898
a(S'1408893694'
S'Aayush Goel'
tp899
a(S'535777649'
S'Soumya Sharma'
tp900
a(S'100000458215652'
S'Oshin Sharma'
tp901
a(S'100000154960571'
S'Tushar Malik'
tp902
a(S'100003911010759'
S'Anant Preet'
tp903
a(S'100002202212921'
S'Kanav Rampal'
tp904
a(S'1185743950'
S'Tapas Gandhi'
tp905
a(S'100001174641154'
S'Tejas Jhamb'
tp906
a(S'100002547590999'
S'Akshay Sanvale'
tp907
a(S'100002494981415'
S'Vivek Bhaskar'
tp908
a(S'1074482707'
S'Abhinav Kumar'
tp909
a(S'100007021232255'
S'Vijendra Singh Dewda'
tp910
a(S'100001409427997'
S'Sushil Kumar'
tp911
a(S'100001729925396'
S'Sugandh Bhargava'
tp912
a(S'587629441'
S'Chaitanya Sood'
tp913
a(S'100001257828705'
S'Zinnia Rao'
tp914
a(S'1726784120'
S'Lakshya Swarup'
tp915
a(S'1007630691'
S'Sankalp Jain'
tp916
a(S'100000699160286'
S'Himanshu Choudhary'
tp917
a(S'100003221470960'
S'Nimita Jain'
tp918
a(S'100003352786385'
S'Shrishti Bansal'
tp919
a(S'1544026425'
S'Akshat Choudhary'
tp920
a(S'100001399181664'
S'Gautam Prem Jain'
tp921
a(S'100001673771365'
S'Ashish Suraj'
tp922
a(S'1119213667'
S'Nikitha Sud'
tp923
a(S'100003785869215'
S'Sahil Bangia'
tp924
a(S'100001631763327'
S'Nikhil Yadav'
tp925
a(S'100000031792442'
S'Ramneek Bhatia'
tp926
a(S'100000923718519'
S'Komal Saini'
tp927
a(S'100001280241633'
S'Paarth Singla'
tp928
a(S'100001137491829'
S'Himanshu Kumar'
tp929
a(S'1782263394'
S'Archit Raj Srivastava'
tp930
a(S'1069195562'
S'Mallika Singh'
tp931
a(S'100002343328359'
S'Sanchit Singal'
tp932
a(S'1554582695'
S'Kshitij Arora'
tp933
a(S'100002309958887'
S'Piyush Mayank'
tp934
a(S'100001627269603'
S'Tushar Thote'
tp935
a(S'100001018310261'
S'Dhiraj Gupta'
tp936
a(S'100000409146789'
S'Swetha Shekar'
tp937
a(S'100001157919208'
S'Ainesh Mujoo'
tp938
a(S'100002120727206'
S'Ishaan Saran'
tp939
a(S'100000155684059'
S'Ishank Yadav'
tp940
a(S'100001162801964'
S'Naman Gupta'
tp941
a(S'100002225588535'
S'Shubham Mittal'
tp942
a(S'100000245413071'
S'Ankur Agrawal'
tp943
a(S'100002469255037'
S'Utkarsh Garg'
tp944
a(S'100002284781087'
S'Dhruv Chojar'
tp945
a(S'100000689780117'
S'Aseem Jindal'
tp946
a(S'100000669560152'
S'Tushar Garcha'
tp947
a(S'1408345063'
S'Gowtham Ragavendar'
tp948
a(S'100000470714562'
S'Abhinav Garg'
tp949
a(S'100003503892636'
S'Saubhagya Sonal'
tp950
a(S'100001360993930'
S'Osheen Kaul'
tp951
a(S'1539183885'
S'Tushar Singla'
tp952
a(S'683204146'
S'Mayank Aggarwal'
tp953
a(S'100001217362298'
S'Shailja Bahuguna'
tp954
a(S'626797141'
S'Chhavi Bodhisattva'
tp955
a(S'100002309657992'
S'Yashika Sindhu'
tp956
a(S'100000656856291'
S'Shobhit Zakhmi'
tp957
a(S'100002656280294'
S'Ashok Sahara'
tp958
a(S'100000867039991'
S'Kumar Subham'
tp959
a(S'100002498177426'
S'Sarvesh Verma'
tp960
a(S'100004011417294'
S'Aditya Vikram Khandelwal'
tp961
a(S'100000529783453'
S'Mridul Dhyani'
tp962
a(S'100003947979176'
S'Apoorv Tyagi'
tp963
a(S'100004034156487'
S'Ankit Kumar'
tp964
a(S'100001316375882'
S'Kartik Saraf'
tp965
a(S'100000574659050'
S'Satyen Pandita'
tp966
a(S'100000456037030'
S'Upasna Dhammi'
tp967
a(S'100001476757938'
S'Nitish Chandra'
tp968
a(S'100002886690687'
S'Deepak Kumar'
tp969
a(S'100004099862282'
S'Sushownika Trehan'
tp970
a(S'1156151034'
S'Vaibhav Mittal'
tp971
a(S'100000862436352'
S'Kriti Arora'
tp972
a(S'100001520295645'
S'Piyush Sharma'
tp973
a(S'1436682636'
S'Sanchit Singla'
tp974
a(S'100002209374121'
S'Guntash Singh'
tp975
a(S'100002492380408'
S'Akash Chouksey'
tp976
a(S'100003068319678'
S'Sakshi Arora'
tp977
a(S'833759128'
S'Kartikay Bansal'
tp978
a(S'719400523'
S'Akansh Jain'
tp979
a(S'100000557283015'
S'Chiranjeev Singh'
tp980
a(S'100001024426074'
S'Abhinav Kumar'
tp981
a(S'638372988'
S'Harkirat Kaur'
tp982
a(S'100000967845853'
S'Vivek Gupta'
tp983
a(S'1095548332'
S'Bharat Anand'
tp984
a(S'100003702466263'
S'Paras Mishra'
tp985
a(S'1561095722'
S'Rajat Kashyap'
tp986
a(S'100002740041668'
S'Mohit Bhardwaj'
tp987
a(S'100000270920162'
S'Kamal Kumar'
tp988
a(S'100000994833896'
S'Isha Dhoble'
tp989
a(S'100002487266984'
S'Himanshu Garg'
tp990
a(S'1003136555'
S'Himanshu Garg'
tp991
a(S'100000473352769'
S'Parth Garg'
tp992
a(S'100000021639933'
S'Mayank Raj'
tp993
a(S'1085130109'
S'Minal Mogla'
tp994
a(S'100000984101151'
S'Himanshu Patel'
tp995
a(S'1401810552'
S'Apoorva Ohri'
tp996
a(S'100000508269585'
S'Abhishek Kapil'
tp997
a(S'100002341894422'
S'Ankur Joshi'
tp998
a(S'100002389234839'
S'Priyanshu Singh'
tp999
a(S'100002281287890'
S'Vaibhav Grover'
tp1000
a(S'100001346795790'
S'Shobhit Jaiswal'
tp1001
a(S'100002392987148'
S'Siddharth Malhotra'
tp1002
a(S'100002618354671'
S'Shreya Varsha'
tp1003
a(S'1280501086'
S'Deepak Sofat'
tp1004
a(S'1545432549'
S'Prajwal Sharma'
tp1005
a(S'100002537250246'
S'Parul Chadha'
tp1006
a(S'1141478465'
S'Suleiman Bin Selim Khan'
tp1007
a(S'633762198'
S'Tushar Pasrija'
tp1008
a(S'100000733408032'
S'Nilopher Kaajla'
tp1009
a(S'1197526121'
S'Snehil Basoya'
tp1010
a(S'100000319883077'
S'Ankush Goyal'
tp1011
a(S'1440655187'
S'Medant Bansal'
tp1012
a(S'100000028521246'
S'Siddhant Das'
tp1013
a(S'705386299'
S'Arnab Dutta'
tp1014
a(S'1173011633'
S'Ankita Garg'
tp1015
a(S'1362503221'
S'Garima Goyal'
tp1016
a(S'100001464131685'
S'Gaurav Sinsinwar'
tp1017
a(S'100000906236115'
S'Ansh Jain'
tp1018
a(S'100001012420637'
S'Chandel Angad'
tp1019
a(S'100000346807168'
S'Shashank Awadhut'
tp1020
a(S'100001711691218'
S'Antara Choudhary'
tp1021
a(S'100000242772929'
S'Vishal Sethi'
tp1022
a(S'1255805080'
S'Randeep Banger'
tp1023
a(S'100002483826333'
S'Gaurav Dakliya'
tp1024
a(S'100000359293319'
S'Parshant Mangla'
tp1025
a(S'100002381430397'
S'Bhavay Singla'
tp1026
a(S'1107493386'
S'Divyanshu Makkar'
tp1027
a(S'1637016049'
S'Gurleen Kaur'
tp1028
a(S'100000025965833'
S'Ayushee Arora'
tp1029
a(S'100002066514719'
S'Himanshu Lunawat'
tp1030
a(S'100002352962443'
S'Aman Garg'
tp1031
a(S'650549073'
S'Naman Bansal'
tp1032
a(S'100001116947599'
S'Vatsal S Dusad'
tp1033
a(S'100002908164321'
S'Gurpreet Kaur'
tp1034
a(S'1614143272'
S'Abhimanyu Kumar'
tp1035
a(S'100000410175655'
S'Jai Kumar'
tp1036
a(S'100001966403337'
S'Tryst Iit Delhi'
tp1037
a(S'100001240533556'
S'Utsav Singh Bains'
tp1038
a(S'1518641016'
S'Prakhar Gupta'
tp1039
a(S'100001181992495'
S'Geetkaran Arora'
tp1040
a(S'100001260442089'
S'Saleha Hussain'
tp1041
a(S'100002460962549'
S'\\u0bae\\u0ba9\\u0bbf\\u0bb7\\u0bcd \\u0bae\\u0bc0\\u0ba9\\u0bbe'
tp1042
a(S'100001253569233'
S'Prasoon Priyank'
tp1043
a(S'1033429445'
S'Paras Batra'
tp1044
a(S'1513305438'
S'Mohit Kaul'
tp1045
a(S'100000512913491'
S'Gauri Sharma'
tp1046
a(S'100001081380150'
S'Anjali Gupta'
tp1047
a(S'100000034630854'
S'Chirag Jhamb'
tp1048
a(S'100002500814478'
S'Amit Kumar'
tp1049
a(S'512645302'
S'Shivam Raj Shrivastava'
tp1050
a(S'811285463'
S'Madhur Goel'
tp1051
a(S'100000912464278'
S'Amandeep Singh'
tp1052
a(S'100001246601173'
S'Nitin Kumar'
tp1053
a(S'1466065860'
S'Rithik Singh'
tp1054
a(S'100007587481343'
S'Abhilash Parashar'
tp1055
a(S'1814724045'
S'Sushant Singh'
tp1056
a(S'1610086550'
S'Vaibhav Gahlot'
tp1057
a(S'100003503050887'
S'Ashish Kumar Singh'
tp1058
a(S'100002066110418'
S'Subhashri Sarkar'
tp1059
a(S'524988966'
S'Utsav Mathur'
tp1060
a(S'100004098317689'
S'Gaurav Shukla'
tp1061
a(S'779432234'
S'Sagnik Ghosh'
tp1062
a(S'100000611930408'
S'Aakash Budhiraja'
tp1063
a(S'704318146'
S'Utkarsh Kumar Jauhari'
tp1064
a(S'1294722455'
S'Rishab Arora'
tp1065
a(S'100000775230391'
S'Tanmay Jhunjhunwala'
tp1066
a(S'1524565172'
S'Kartika Tanwar'
tp1067
a(S'1283617235'
S'Somesh Agarwal'
tp1068
a(S'100000447898401'
S'Rahul Mehra'
tp1069
a(S'100002250762625'
S'Ridhima Anand'
tp1070
a(S'100001871365676'
S'Harsh Maan'
tp1071
a(S'1335369337'
S'Shrey Sisodia'
tp1072
a(S'100000459220173'
S'Pramod Kumar'
tp1073
a(S'100002417863436'
S'Akanksha Garg'
tp1074
a(S'100000703551990'
S'Rohan Rai Walia'
tp1075
a(S'100002454280026'
S'Tulsi Jain'
tp1076
a(S'100000020710052'
S'Anurag Tiwari'
tp1077
a(S'100001285772352'
S'Ayush Jaiswal'
tp1078
a(S'100003489023590'
S'Aneesh Bhatia'
tp1079
a(S'763032767'
S'Nivedita Munjal'
tp1080
a(S'1303698114'
S'Gunjan Nanchahal'
tp1081
a(S'1830451292'
S'Jatin Jax Sawhney'
tp1082
a(S'100002905684413'
S'Arjun Chauhan'
tp1083
a(S'1327936726'
S'Robin Thuran Malhotra'
tp1084
a(S'1563472143'
S'Hemant Jain'
tp1085
a(S'551469884'
S'Sumegha Khilnani'
tp1086
a(S'1537129220'
S'Ravi Verma'
tp1087
a(S'100002888575475'
S'Tanmay Singh'
tp1088
a(S'1000224230'
S'Rochak Singla'
tp1089
a(S'100001819632467'
S'Rajhans Anshuman'
tp1090
a(S'100002107250146'
S'Sushant Chaudhary'
tp1091
a(S'100000655264438'
S'Keshav Mishra'
tp1092
a(S'100002325866727'
S'Rajat Srivastava'
tp1093
a(S'100001903066840'
S'Shanu Chandely'
tp1094
a(S'100000888487783'
S'Abhimanue Jalan'
tp1095
a(S'100002411680144'
S'Malini Sheoran'
tp1096
a(S'1162122498'
S'Rohan Chauhan'
tp1097
a(S'100003219925896'
S'Revant Soni'
tp1098
a(S'529622505'
S'Spandan Madan'
tp1099
a(S'100002742951463'
S'Avinash Kumar'
tp1100
a(S'100000199308538'
S'Ashwin Sodhi'
tp1101
a(S'1813142818'
S'Susmita Padhy'
tp1102
a(S'100001423447113'
S'Isha Isha'
tp1103
a(S'100001917475294'
S'Rohit Jain'
tp1104
a(S'1719501858'
S'Sophia Dhawan'
tp1105
a(S'1114916016'
S'Archit Rathi'
tp1106
a(S'100001792697105'
S'Arushi Jamaiyar'
tp1107
a(S'609956560'
S'Akhil Mathur'
tp1108
a(S'100002887380830'
S'Abhishek Singh'
tp1109
a(S'719048814'
S'Rahul Sharma'
tp1110
a(S'100002292125071'
S'Vandita Gauri'
tp1111
a(S'100001318014931'
S'Harsh Kamal'
tp1112
a(S'100001176938586'
S'KaRtik ShArma'
tp1113
a(S'100001034464632'
S'Sagar Narang'
tp1114
a(S'100001112016157'
S'Vaibhav Jain'
tp1115
a(S'100001360695470'
S'Rai Keshav'
tp1116
a(S'100001512864665'
S'Anita Samota'
tp1117
a(S'100002345651829'
S'Chitransh Sahai'
tp1118
a(S'1128532678'
S'Priya Ravi'
tp1119
a(S'100002375019313'
S'Lalit Thapar'
tp1120
a(S'100001455690754'
S'Dinesh Choudhary'
tp1121
a(S'100000621471729'
S'Pawan Rajotiya'
tp1122
a(S'1180832920'
S'Nakul Gupta'
tp1123
a(S'100001347343171'
S'Abhishek Saini'
tp1124
a(S'100001004734474'
S'Shivam Kaushik'
tp1125
a(S'1523216522'
S'Ishan Liberhan'
tp1126
a(S'1387854481'
S'Raman Manchanda'
tp1127
a(S'1304231123'
S'Abhishek Gupta'
tp1128
a(S'1037057618'
S'Vipin Yadav'
tp1129
a(S'1705228738'
S'Hemant Meena'
tp1130
a(S'100000003800725'
S'Kuber Jeet Singh'
tp1131
a(S'100000496101083'
S'Gurkirat Dhillon'
tp1132
a(S'100001162429727'
S'Aman Mahi'
tp1133
a(S'100002999304273'
S'Ashish Rajput'
tp1134
a(S'735364426'
S'Ria Jain'
tp1135
a(S'1665662824'
S'Archana Dogra Mathpal'
tp1136
a(S'100000769714231'
S'Pranav Zeuthorian VastoLorde Minhas'
tp1137
a(S'100002290645076'
S'Sanchit Jain'
tp1138
a(S'100001224810603'
S'Nipun Mahajan'
tp1139
a(S'100002186006966'
S'Kiranjot Kaur Banwait'
tp1140
a(S'100002371882951'
S'Ashish Goyal'
tp1141
a(S'1020261392'
S'Abhishek Verma'
tp1142
a(S'100001040916106'
S'Chhavi Monga'
tp1143
a(S'100002049284471'
S'Aman Aggarwal'
tp1144
a(S'1641444474'
S'Sagar Joshi'
tp1145
a(S'1203567651'
S'Harmandeep Grover'
tp1146
a(S'645297642'
S'Jitesh Wadhawan'
tp1147
a(S'100000971534661'
S'Ankit Singh'
tp1148
a(S'100001709028976'
S'Jahnvi Goyal'
tp1149
a(S'1067557221'
S'Ayush Agarwal'
tp1150
a(S'100001111058360'
S'Parul Gupta'
tp1151
a(S'1550832590'
S'Aviral Seli'
tp1152
a(S'711511781'
S'Priyanka Ashok'
tp1153
a(S'100000527085428'
S'Navendu Shekhar'
tp1154
a(S'100007380698135'
S'Nidhi Sood'
tp1155
a(S'100001033819785'
S'Rajan R. Singh'
tp1156
a(S'804880453'
S'Maria Mini Jos'
tp1157
a(S'100002227796450'
S'Prashant Kumar'
tp1158
a(S'691315736'
S'Aman Gupta'
tp1159
a(S'100007801955549'
S'Ujjwal Sinha'
tp1160
a(S'100000436203009'
S'Nikhil Bhaskar'
tp1161
a(S'100002371635922'
S'Vivek Dhaka'
tp1162
a(S'100004211371422'
S'Sourabh Rana'
tp1163
a(S'100002422045095'
S'Muskan Bansal'
tp1164
a(S'100000292513344'
S'Nitish Sharma'
tp1165
a(S'100003389147429'
S'Deepika Sharma'
tp1166
a(S'100002765341262'
S'Shivani Sood'
tp1167
a(S'100002358480025'
S'Sumay Bhojwani'
tp1168
a(S'1007235522'
S'Devendra Bakshi'
tp1169
a(S'100002761542933'
S'Amandeep Singh'
tp1170
a(S'1825363168'
S'Sudeep Tandon'
tp1171
a(S'584364857'
S'Paras Gupta'
tp1172
a(S'100006383291627'
S'Avtansh Thakur'
tp1173
a(S'100000944979105'
S'Aabhaas Sethi'
tp1174
a(S'1735642930'
S'Shivanker Goel'
tp1175
a(S'1393527627'
S'Abhishek Durani'
tp1176
a(S'100000688880814'
S'Jai Prakash'
tp1177
a(S'653476555'
S'Anika Govil'
tp1178
a(S'100001826860838'
S'Rubal Sashia'
tp1179
a(S'100001050619871'
S'Saarthak Verma'
tp1180
a(S'1095690352'
S'Suraj Mehta'
tp1181
a(S'800927349'
S'Sanaa Parvez'
tp1182
a(S'100002502318218'
S'Shashank Kulshrestha'
tp1183
a(S'100001432482867'
S'Kavita Chamlegi'
tp1184
a(S'1416184144'
S'Akshay Mehndiratta'
tp1185
a(S'100001394523558'
S'Kaushik Maran'
tp1186
a(S'1102083068'
S'Prateek Panghal'
tp1187
a(S'761800339'
S'Kalki Kukreja'
tp1188
a(S'676526217'
S'Soaham Sharma'
tp1189
a(S'100001698504501'
S'Sarthak Kalani'
tp1190
a(S'1694184252'
S'Diksha Bhoria'
tp1191
a(S'100001990309068'
S'Gurvinder Singh'
tp1192
a(S'100000101473270'
S'Shubham Jain'
tp1193
a(S'100000248313386'
S'Rohit Bansal'
tp1194
a(S'1263429386'
S'Simranjit Singh'
tp1195
a(S'100000022630410'
S'Savneet Kaur'
tp1196
a(S'588304411'
S'Akshita Grover'
tp1197
a(S'100000980979048'
S'Utkarsh Jain'
tp1198
a(S'1132632771'
S'Nikhita Rodeja'
tp1199
a(S'100000224231125'
S'Harmeet Singh'
tp1200
a(S'769845299'
S'Apekshit Solanki'
tp1201
a(S'744455889'
S'Ishan Ratho'
tp1202
a(S'640396374'
S'Pulin Singh'
tp1203
a(S'100000117738604'
S'Rishi Dua'
tp1204
a(S'1185782988'
S'Mitali Bansal'
tp1205
a(S'688375757'
S'Sambhav Khetarpal'
tp1206
a(S'100001116789902'
S'Tannishka Singh'
tp1207
a(S'100002873328455'
S'Anandu Nandu Mukundan'
tp1208
a(S'595458066'
S'Vyom Bharadvaj'
tp1209
a(S'100001001976485'
S'Amber Chugh'
tp1210
a(S'100000026312252'
S'Mukul Bhatia'
tp1211
a(S'100001380634389'
S'Satish Kumar Yadav'
tp1212
a(S'100003558246277'
S'V-Defyn Western DanceSociety'
tp1213
a(S'100001277453740'
S'Deepanshu Yadav'
tp1214
a(S'100000934863750'
S'Ishani Srivastava'
tp1215
a(S'1583595616'
S'Kaushani Paul'
tp1216
a(S'100000362257500'
S'Crysh Srikanth'
tp1217
a(S'100000993425429'
S'Aanchal Singh'
tp1218
a(S'100005241753078'
S'Rahul Sharma'
tp1219
a(S'100000533649062'
S'Vishesh Jain'
tp1220
a(S'100002419374718'
S'Kritika Narang'
tp1221
a(S'1400076429'
S'Saurabh Shringarpure'
tp1222
a(S'100001513149481'
S'Pranav Ohri'
tp1223
a(S'756284578'
S'Saishruti Mutneja'
tp1224
a(S'100001684909250'
S'Ridhima Chitkara'
tp1225
a(S'100002024261208'
S'Rajat Bagga'
tp1226
a(S'1570754365'
S'Varun Garg'
tp1227
a(S'100000111162721'
S'Moolchand Sigar'
tp1228
a(S'639891048'
S'Akshit Mittal'
tp1229
a(S'1679352657'
S'Konick Garg'
tp1230
a(S'1132803324'
S'Surbhi Sharma'
tp1231
a(S'100002021891401'
S'Pranav Bisht'
tp1232
a(S'100000707649176'
S'Sayan Dey'
tp1233
a(S'100001073888996'
S'Vivek Ranjan Maitrey'
tp1234
a(S'100000077262328'
S'Gaurav Agarwal'
tp1235
a(S'100002080243585'
S'Sumit Khurana'
tp1236
a(S'100000617590291'
S'Nikita Garg'
tp1237
a(S'745779225'
S'Parth Nyati'
tp1238
a(S'537060467'
S'Siddharth Jhawar'
tp1239
a(S'100002708907908'
S'Vijay Kumar Yadav'
tp1240
a(S'100000048880387'
S'Rajat Gupta'
tp1241
a(S'1117011541'
S'Jatin Meena'
tp1242
a(S'100004095164605'
S'Ravina Choudhary'
tp1243
a(S'1130556527'
S'Hardik Sawhney'
tp1244
a(S'1001502017'
S'Gurvineet Singh Dhillon'
tp1245
a(S'1562027316'
S'Aman Garg'
tp1246
a(S'100002390288727'
S'Gurpreet Singh Walia'
tp1247
a(S'100002430483278'
S'Ankit Rao'
tp1248
a(S'1524625978'
S'Samiksha Chaufla'
tp1249
a(S'100004117686800'
S'Ravinder Saharan'
tp1250
a(S'100003391184616'
S'Vibha Jindal'
tp1251
a(S'100000282281385'
S"'Bhavneet Kaur'"
tp1252
a(S'100002697622738'
S'Sanjana Singh Chauhan'
tp1253
a(S'749318119'
S'Aena Goel'
tp1254
a(S'100002741552678'
S'Usma Awan'
tp1255
a(S'552769104'
S'Aj Mercy'
tp1256
a(S'100002489169713'
S'Rishabh Dudeja'
tp1257
a(S'1067983498'
S'Sarthak Bhama'
tp1258
a(S'100003768478596'
S'Hari Nath'
tp1259
a(S'100002357340021'
S'Vaibhav Suranaa'
tp1260
a(S'100002682480729'
S'Adhiraj Singh Rana'
tp1261
a(S'100002232678145'
S'Anjalika Mukherjee'
tp1262
a(S'1682460109'
S'Ishita Bhatia'
tp1263
a(S'100001523403333'
S'Rahul Dutt Sharma'
tp1264
a(S'100001158766566'
S'Akshit Garg'
tp1265
a(S'100000385439020'
S'Parag Singhal'
tp1266
a(S'100002373702167'
S'Himani Ahuja Hemu'
tp1267
a(S'100001440403858'
S'Chandan Bagdia'
tp1268
a(S'1707259697'
S'Vaibhav Chaturvedy'
tp1269
a(S'602119528'
S'Ishwar Prasad'
tp1270
a(S'1637705433'
S'Sushant Chawla'
tp1271
a(S'100001661882978'
S'Shubhankar Gautam'
tp1272
a(S'1351805374'
S'Nadeesh Garg'
tp1273
a(S'100000076094231'
S'Varun Singal'
tp1274
a(S'100002306187409'
S'Abhishek Kumar'
tp1275
a(S'100000029946260'
S'Anurag Verma'
tp1276
a(S'634935862'
S'Divyam Rastogi'
tp1277
a(S'100001739069138'
S'Shashank Jain'
tp1278
a(S'100000147491437'
S'Aarjav Raj Singh'
tp1279
a(S'100000462267260'
S'Kay Pee'
tp1280
a(S'1425900967'
S'Siddharth Dwivedi'
tp1281
a(S'100001491099552'
S'Ashima Grover'
tp1282
a(S'100002229014906'
S'Anmol Garg'
tp1283
a(S'100002574374767'
S'Nikhil Chawla'
tp1284
a(S'100000022310788'
S'Archit Gupta'
tp1285
a(S'100000146347246'
S'Baadal Chaudhary'
tp1286
a(S'100004215883411'
S'Trishna Man'
tp1287
a(S'100001936729879'
S'Soumil Dhawan'
tp1288
a(S'100000987048371'
S'Vishesh Khatri'
tp1289
a(S'100002619560254'
S'Vinay Chitty'
tp1290
a(S'1445380033'
S'Arpit Agrawal'
tp1291
a(S'100002396475555'
S'Mayank Gupta'
tp1292
a(S'1754811948'
S'Naman Hurria'
tp1293
a(S'100001060404883'
S'Yogesh Raghuwanshi'
tp1294
a(S'100000153609859'
S'Karan Munjal'
tp1295
a(S'100002622626601'
S'Harieshwarprasad Kamireddy'
tp1296
a(S'100000272474360'
S'Arnav Kansal'
tp1297
a(S'1312297844'
S'Ashutosh Chandra'
tp1298
a(S'100006411338865'
S'Dharmveer Yadav'
tp1299
a(S'100003293224330'
S'Sai Santhan Borra'
tp1300
a(S'737022606'
S'Rohit Shroff'
tp1301
a(S'100001767431572'
S'Arpit Malhotra'
tp1302
a(S'100002430121501'
S'Archit Shah'
tp1303
a(S'100000074876540'
S'Ananth Varma'
tp1304
a(S'1492347584'
S'Mayank Laroia'
tp1305
a(S'100000774772901'
S'Aditya Kakade'
tp1306
a(S'100000176494550'
S'Pransh Arora'
tp1307
a(S'1438148846'
S'Naman Bhatnagar'
tp1308
a(S'750899656'
S'Karan Goel'
tp1309
a(S'100000681802265'
S'Vaibhav Garg'
tp1310
a(S'100003814396359'
S'Soma Banerjee Mukhopadhyay'
tp1311
a(S'1759160844'
S'Vaibhav Garg'
tp1312
a(S'100000866206451'
S'Kanhaiya Bhardwaj'
tp1313
a(S'100001201919053'
S'Arindam Banerjee'
tp1314
a(S'100000543227114'
S'Sanjana Mandrai'
tp1315
a(S'100002846739119'
S'Abhishek Kamal'
tp1316
a(S'100001423508827'
S'Pee Ce'
tp1317
a(S'1632720647'
S'Nitish Peshawaria'
tp1318
a(S'1019809581'
S'Cherish Santoshi'
tp1319
a(S'1676504888'
S'Vaishali Mehta'
tp1320
a(S'100006473680015'
S'Lalit Kumar'
tp1321
a(S'100002112220137'
S'Rajeev Kumar'
tp1322
a(S'831930062'
S'Aruj Garg'
tp1323
a(S'100001098109557'
S'Shubham Agarwal'
tp1324
a(S'1632450076'
S'Nikhil Pabuwal'
tp1325
a(S'522938292'
S'Akarshit Lamba'
tp1326
a(S'1077061677'
S'Munish Jindal'
tp1327
a(S'100002493804290'
S'Shubham Gaur'
tp1328
a(S'100000145937058'
S'Rahul Sindhu'
tp1329
a(S'100000778520826'
S'Savarni Pant'
tp1330
a(S'100002640380523'
S'Dhiraj Khurana'
tp1331
a(S'100005251926578'
S'Zanskar Poltu Leaks'
tp1332
a(S'1845319023'
S'Deepesh Kedia'
tp1333
a(S'100001416027864'
S'Anant Chaudhary'
tp1334
a(S'100003937654417'
S'Kartik Kumar'
tp1335
a(S'1685418939'
S'Karan Kabir Singh'
tp1336
a(S'100001258284698'
S'Ankita Sharma'
tp1337
a(S'100001229751656'
S'Avanesh Rajput'
tp1338
a(S'549450242'
S'Dhananjay Goel'
tp1339
a(S'100000663967942'
S'Karan Arora'
tp1340
a(S'100002444073599'
S'Prabhat Kumar'
tp1341
a(S'100003081289155'
S'Nikhil Chaudhary'
tp1342
a(S'100003403886453'
S'Vinay Reddy'
tp1343
a(S'100006078518825'
S'Kushal Satya'
tp1344
a(S'100002724559380'
S'Princess Venessa'
tp1345
a(S'100003472902973'
S'Prakriti Kaushal'
tp1346
a(S'100001512818415'
S'Singh Satpal'
tp1347
a(S'1091537076'
S'Rajat Garg'
tp1348
a(S'100002426588663'
S'Chitranshu Mahant'
tp1349
a(S'100002802907362'
S'Ankit Choudhary'
tp1350
a(S'1068592725'
S'Nishant Mittal'
tp1351
a(S'664947624'
S'Rishabh Kochhar'
tp1352
a(S'100002519496349'
S'Abhishek Anand'
tp1353
a(S'100000031361016'
S'Kuljeet Julka'
tp1354
a(S'1224627766'
S'Jitesh Wadhwa'
tp1355
a(S'100000338273884'
S'Salil Sharma'
tp1356
a(S'637451910'
S'Sofia Gupta'
tp1357
a(S'100004735870879'
S'Swati Agrawal'
tp1358
a(S'100002585858396'
S'Abhishek Verma'
tp1359
a(S'1417839803'
S'Ayush Goyal'
tp1360
a(S'1845266293'
S'Chirag Bansal'
tp1361
a(S'1583730385'
S'Kanupriya Diwan'
tp1362
a(S'702517926'
S'Vishwesh Singh'
tp1363
a(S'100002355474454'
S'Ankit Mishra'
tp1364
a(S'100002336253846'
S'Aman Chawla'
tp1365
a(S'100000716193064'
S'Sonali Garg'
tp1366
a(S'700010972'
S'Sanya Ohri'
tp1367
a(S'576384960'
S'Dhruv Oberoi'
tp1368
a(S'1201566923'
S'Rajeev Vempuluru'
tp1369
a(S'1240005212'
S'Himanshu Verma'
tp1370
a(S'606271724'
S'Rachit Kakar'
tp1371
a(S'100000380945906'
S'Deepak Vasisht'
tp1372
a(S'100001326307747'
S'Rohit Daroch'
tp1373
a(S'100005911205888'
S'Samarth Shukla'
tp1374
a(S'1003780630'
S'Gurdeep Somal'
tp1375
a(S'100001756069430'
S'Sudhir Verma'
tp1376
a(S'1810292808'
S'Chirag Garg'
tp1377
a(S'1035000799'
S'Kshitiz Singh'
tp1378
a(S'675666491'
S'Lavanya Gauri Pandit'
tp1379
a(S'100001006385714'
S'Akshay Chawla'
tp1380
a(S'100001550617682'
S'Aman Bafna'
tp1381
a(S'1136585447'
S'Saurabh Chaudhary'
tp1382
a(S'1814933721'
S'Sajit Nagrath'
tp1383
a(S'1561152383'
S'Mitesh Chahar'
tp1384
a(S'1566160659'
S'Ajay Saini'
tp1385
a(S'100001152912321'
S'SaHil Bansal'
tp1386
a(S'100001147002009'
S'Dipesh Jain'
tp1387
a(S'100003833271516'
S'Rohit Agrawal'
tp1388
a(S'1537582953'
S'Arun Hazra'
tp1389
a(S'100002210007331'
S'Oshin Sharma'
tp1390
a(S'1501931076'
S'Nalin Goyal'
tp1391
a(S'100003683062034'
S'Prem Meena'
tp1392
a(S'738181747'
S'Abhimanyu Dubey'
tp1393
a(S'100000382697144'
S'Deependra Mehalawat'
tp1394
a(S'100001037530033'
S'Nikhil Toshniwal'
tp1395
a(S'100000103647525'
S'Gautam Ranjan'
tp1396
a(S'1057295157'
S'NavDeep Singh'
tp1397
a(S'100002564263482'
S'Anuj Jaiswal'
tp1398
a(S'1671306727'
S'Atul Prakash'
tp1399
a(S'1717587943'
S'Varsha Mallick'
tp1400
a(S'100000628960410'
S'Vipul Kamboj'
tp1401
a(S'630135446'
S'Akshat Agarwal'
tp1402
a(S'100002179187491'
S'Akanksha Freewriter'
tp1403
a(S'100007765894385'
S'Iitd Poltu Aggregator'
tp1404
a(S'1842941801'
S'Priya Meena'
tp1405
a(S'100000485043767'
S'Rajat Verma'
tp1406
a(S'100000895534414'
S'Nikhil Mahajan'
tp1407
a(S'100002625947192'
S'Prakhar Singh'
tp1408
a(S'100003863391371'
S'Prateek Parkash'
tp1409
a(S'100001384856235'
S'Mankaran Manhas'
tp1410
a(S'100002301010660'
S'Mbshr Mirza'
tp1411
a(S'1784464406'
S'Misha Khurana'
tp1412
a(S'100006074974956'
S'Shivendra Singh'
tp1413
a(S'100002392397196'
S'Suryansh Yadav'
tp1414
a(S'100002543915064'
S'Rupinder Bhangu'
tp1415
a(S'1439820179'
S'Manik Mahajan'
tp1416
a(S'100005435041853'
S'Diptesh Kr'
tp1417
a(S'100002976466844'
S'Jai Singh'
tp1418
a(S'1791770291'
S'Dipanshu Jatana'
tp1419
a(S'100000382391821'
S'Ayush Agnihotri'
tp1420
a(S'100000622193802'
S'Aditya Bhambi'
tp1421
a(S'1447173836'
S'Raghav Bhatia'
tp1422
a(S'100002327723402'
S'Ravleen Chawla'
tp1423
a(S'517380405'
S'Avijit Bansal'
tp1424
a(S'664546430'
S'Utkarsh Ohm'
tp1425
a(S'100000305128148'
S'Shrey Gulati'
tp1426
a(S'100000324540823'
S'Avinash Anant'
tp1427
a(S'100000864281912'
S'Rahul Monga'
tp1428
a(S'688753587'
S'Kanav Mahajan'
tp1429
a(S'100000307417212'
S'Tanmay Mathur'
tp1430
a(S'100001447202792'
S'Om Negi'
tp1431
a(S'1798715591'
S'Ishaan Rana'
tp1432
a(S'100002579594084'
S'Arjun Lohan'
tp1433
a(S'1342372223'
S'Shubham Makkar'
tp1434
a(S'1835869635'
S'Madhur Gupta'
tp1435
a(S'100001669479459'
S'Gaurav Gupta'
tp1436
a(S'1686144887'
S'Tanya Sofat'
tp1437
a(S'100002215977280'
S'Arshdeep Singh'
tp1438
a(S'100001022154464'
S'Milan Gupta'
tp1439
a(S'100002089452205'
S'Srijan Bhatt'
tp1440
a(S'601603992'
S'Aaditya Agarwal'
tp1441
a(S'100000416467026'
S'Archita Rajpal'
tp1442
a(S'1128460775'
S'Kanika Aggarwal'
tp1443
a(S'100002681693605'
S'Praveen Kumar Ray'
tp1444
a(S'804912359'
S'Sajal Sehgal'
tp1445
a(S'100002538789782'
S'Kritagya Tripathi'
tp1446
a(S'100000482662067'
S'Dhruv Sood'
tp1447
a(S'1252741009'
S'Saloni Goel'
tp1448
a(S'100002405281120'
S'Mukul Aggarwal'
tp1449
a(S'703155672'
S'Ambar Srivastava'
tp1450
a(S'100002410916706'
S'Sahil Garg'
tp1451
a(S'100002575830322'
S'Aishwarya Chhabra'
tp1452
a(S'1299941675'
S'Charan Kamal'
tp1453
a(S'1659802332'
S'Bharti Singhla'
tp1454
a(S'1021622081'
S'Kritika Sharma'
tp1455
a(S'100006159579134'
S'Chhavi Gupta'
tp1456
a(S'1584843581'
S'Mridha Khanna'
tp1457
a(S'100000599697630'
S'Vidur Gulati'
tp1458
a(S'1292106261'
S'Akhil Jain'
tp1459
a(S'100001052054230'
S'Sahil Bhagtani'
tp1460
a(S'100002485006227'
S'Sudhir Pal'
tp1461
a(S'100001419834751'
S'Sudheer Chaudhary'
tp1462
a(S'1246192514'
S'Harsh Parikh'
tp1463
a(S'1087062074'
S'Prateek Mahesh Kulhari'
tp1464
a(S'1254655018'
S'Abhishek Sharma'
tp1465
a(S'100002552465212'
S'Gaurav Pande'
tp1466
a(S'567557753'
S'Arjun Modi'
tp1467
a(S'100001644622847'
S'Sachit Gupta'
tp1468
a(S'1719949843'
S'Rajkumar Meena'
tp1469
a(S'1548957742'
S'Kriteesh Parashar'
tp1470
a(S'672092053'
S'Rasesh Garg'
tp1471
a(S'100002525224574'
S'Nikhil Khandelwal'
tp1472
a(S'100002501287627'
S'Ankit Aggarwal'
tp1473
a(S'523377309'
S'Rishab Lohan'
tp1474
a(S'100002520305639'
S'Gaurav Ahuja'
tp1475
a(S'100003360673523'
S'Suman Doogar'
tp1476
a(S'100000973803936'
S'Ibna Sharma'
tp1477
a(S'659441850'
S'Savita Khurana Narang'
tp1478
a(S'1477402764'
S'Aarushi Singla'
tp1479
a(S'100001306827449'
S'Anshul Malhotra'
tp1480
a(S'100000343802369'
S'Shachi Mittal'
tp1481
a(S'890240413'
S'Ajit Singh'
tp1482
a(S'687086257'
S'Yogeshwar Sangwan'
tp1483
a(S'100000065992501'
S'Surangma Chhabra'
tp1484
a(S'100000551739206'
S'Sanjay Kumar'
tp1485
a(S'100002431257197'
S'Gurinder Singh'
tp1486
a(S'100000580710213'
S'Shagun Talwar'
tp1487
a(S'100000861505941'
S'Manav Arora'
tp1488
a(S'100000042213889'
S'Aishwarya Arora'
tp1489
a(S'100000469340635'
S'Nikhil Sapra'
tp1490
a(S'100001209609508'
S'Ashutosh Kumar Rai'
tp1491
a(S'1190497913'
S'Roushan Singh'
tp1492
a(S'1752468267'
S'Abhijeet Kashyap'
tp1493
a(S'100001386368398'
S'Sarthak Narula'
tp1494
a(S'100002207547836'
S'Kunal Chawla'
tp1495
a(S'100002437926895'
S'Amit Kumar Singh'
tp1496
a(S'100002335785838'
S'Saurabh Goyal'
tp1497
a(S'665460166'
S'Pankaj Singh'
tp1498
a(S'100002278034981'
S'Bhawna Arora'
tp1499
a(S'100000744103661'
S'Rishabh Goel'
tp1500
a(S'521983555'
S'Ankit Laddha'
tp1501
a(S'1415610201'
S'Neelesh Kapoor'
tp1502
a(S'1078688197'
S'Akash Rupela'
tp1503
a(S'100000502303263'
S'Neha Matharoo'
tp1504
a(S'1526487669'
S'Gayatri Swarup'
tp1505
a(S'100000320274142'
S'Rakesh Gowda'
tp1506
a(S'100001432365605'
S'Sri Harsha'
tp1507
a(S'100002090310333'
S'Moksh Bajaj'
tp1508
a(S'100002391842437'
S'Abdul Khalid'
tp1509
a(S'100002533382277'
S'Simarpreet Singh Kohli'
tp1510
a(S'830577589'
S'Prabal Gunner Tiwari'
tp1511
a(S'1431923110'
S'Anubhav Singh'
tp1512
a(S'1703659967'
S'Rohan Jain'
tp1513
a(S'100002511316798'
S'Bhavay Singla'
tp1514
a(S'100003724013091'
S'Rajesh Kumar'
tp1515
a(S'100001916980441'
S'Varun Sindhu'
tp1516
a(S'1532952004'
S'Romir Moza'
tp1517
a(S'1102115464'
S'Ankita Diwan'
tp1518
a(S'100000323702322'
S'Saurav Dogra'
tp1519
a(S'100003802915423'
S'Mahesh Dhyawana'
tp1520
a(S'712626645'
S'Tania Khanna'
tp1521
a(S'100000746971519'
S'Gayatri Pasricha'
tp1522
a(S'100003691527381'
S'Shaurya Thareja'
tp1523
a(S'1564291772'
S'Yogesh Mandhaiya'
tp1524
a(S'100000115398621'
S'Mridul Sondhi'
tp1525
a(S'1203032145'
S'Priya Pangti'
tp1526
a(S'100005505784769'
S'Shruti Gupta'
tp1527
a(S'100003717775847'
S'Shobhit Jain'
tp1528
a(S'100003664226460'
S'Aditya Priyadarshi'
tp1529
a(S'100001279642214'
S'Gauri Srihan'
tp1530
a(S'1739367380'
S'Abhishek Bansal'
tp1531
a(S'528349451'
S'Sonal Wadhawan'
tp1532
a(S'1062637352'
S'Yesha Malhotra'
tp1533
a(S'1743774191'
S'Sidharth Sablania'
tp1534
a(S'100001150248016'
S'Harsh Vardhan'
tp1535
a(S'836867817'
S'Mayank Sharma'
tp1536
a(S'100001459594614'
S'Rushil Khurana'
tp1537
a(S'100003478941652'
S'Sachin Sehra'
tp1538
a(S'100002273307775'
S'Amit Chouhan'
tp1539
a(S'100000066418853'
S'Himanshu Godara'
tp1540
a(S'100002583564364'
S'Sucheta Chopra'
tp1541
a(S'100002489224118'
S'Vaibhav Raj'
tp1542
a(S'100002947018490'
S'Vikash Kumar'
tp1543
a(S'1364310353'
S'Pulkit Garg'
tp1544
a(S'1483593077'
S'Ankit Yadav'
tp1545
a(S'100000274006779'
S'Rajashree Raju'
tp1546
a(S'1596693998'
S'Anju Verma'
tp1547
a(S'100002399662995'
S'Prashant Saugat'
tp1548
a(S'1809732279'
S'Arjun Agrawal'
tp1549
a(S'100000961964040'
S'Devanshi Sainia'
tp1550
a(S'1357921709'
S'Divya Khattar'
tp1551
a(S'100006264751222'
S'Arvind Kumar'
tp1552
a(S'785491778'
S'Dhruv Sood'
tp1553
a(S'1138406412'
S'Abhilasha Handa'
tp1554
a(S'100004136105494'
S'Mohammad Akhtar'
tp1555
a(S'100002014335085'
S'Sneha Sharma'
tp1556
a(S'551852775'
S'Mayank Yadav'
tp1557
a(S'100001090537541'
S'Tushar Verma'
tp1558
a(S'100002497746178'
S'Vikas Dhiman'
tp1559
a(S'100001852278728'
S'Hriday Kohli'
tp1560
a(S'100001479558374'
S'Punit Bhakar'
tp1561
a(S'100002091341989'
S'SaHib Ghuman'
tp1562
a(S'100000972312599'
S'Shikhar Singh'
tp1563
a(S'750114794'
S'Vaibhav Kuthiala'
tp1564
a(S'100000127398325'
S'Manish Dangi'
tp1565
a(S'100000479869841'
S'Shilpa Garg'
tp1566
a(S'100000028965271'
S'Aditi Garg'
tp1567
a(S'100002674698336'
S'Abhishek Sood'
tp1568
a(S'100001446335907'
S'Milan Sharma'
tp1569
a(S'100001650638781'
S'Sai Anurag'
tp1570
a(S'1369751345'
S'Aditya Singhal'
tp1571
a(S'1537429422'
S'Tarun Kumar Singhal'
tp1572
a(S'698881150'
S'Gurasees Singh'
tp1573
a(S'100000608432163'
S'Nikhil Kumar'
tp1574
a(S'100003039647146'
S'Abhinav Goyal'
tp1575
a(S'100001398393278'
S'Isha Gupta'
tp1576
a(S'100001617741048'
S'Ravjot Walia'
tp1577
a(S'100002708976395'
S'Keshav Kumar'
tp1578
a(S'1099217295'
S'Priyanshi Singhal'
tp1579
a(S'100002220480592'
S'Gaurav Bakshi'
tp1580
a(S'100005884590878'
S'Mukesh Bhati'
tp1581
a(S'651188133'
S'Shivam Singla'
tp1582
a(S'100000410949204'
S'Vinay Lamba'
tp1583
a(S'100000762551685'
S'Roshi Raina'
tp1584
a(S'100001463383615'
S'Anil Singh'
tp1585
a(S'1455157603'
S'Kanika Dhameja'
tp1586
a(S'100003310575599'
S'Vidhaan Sharma'
tp1587
a(S'100002392773571'
S'Nitin Pratap Singh'
tp1588
a(S'705750044'
S'Anirudh Patir'
tp1589
a(S'100003855586232'
S'Navdha Khera'
tp1590
a(S'100002823696652'
S'Avinash Kumar'
tp1591
a(S'100002323734685'
S'Shashank Sharma'
tp1592
a(S'1184020809'
S'Ankit Sinha'
tp1593
a(S'100000841433702'
S'Mohit Aggarwal'
tp1594
a(S'100003143023470'
S'Shaurya Thareja'
tp1595
a(S'100003775030365'
S'Shaurya Thareja'
tp1596
a(S'100001130059058'
S'Ayushi Marwah'
tp1597
a(S'1353784305'
S'Kavish Mishra'
tp1598
a(S'1031718828'
S'Vitesh Dhawan'
tp1599
a(S'525100175'
S'Shatarupa Chakraborty'
tp1600
a(S'100000612651285'
S'Piyush Sharma'
tp1601
a(S'574358848'
S'Gaurav Pandey'
tp1602
a(S'100005274255102'
S'Ruchika Yadav'
tp1603
a(S'1063355210'
S'Nipun Agarwal'
tp1604
a(S'1819146148'
S'Aprajita Sahu'
tp1605
a(S'1348410894'
S'Himanshi Mehta'
tp1606
a(S'528779737'
S'Sahiba Mann'
tp1607
a(S'1286860517'
S'Sai Praneeth'
tp1608
a(S'1433785973'
S'Parichaya Walia'
tp1609
a(S'553196623'
S'Meghank Garg'
tp1610
a(S'100002420027984'
S'Sachin Kumar'
tp1611
a(S'100000324014100'
S'Gaurav Rakawat'
tp1612
a(S'100001371817027'
S'Ashwani Gupta'
tp1613
a(S'1037871094'
S'Jaskaran Singh'
tp1614
a(S'100000531500057'
S'Abhinav Agnihotri'
tp1615
a(S'100003831939778'
S'Ankit Fageria'
tp1616
a(S'1782014171'
S'Vijayant Gulati'
tp1617
a(S'586725458'
S'Sahil Sarin'
tp1618
a(S'100002356411712'
S'Neeta Mahala'
tp1619
a(S'100002416293728'
S'Kshitij Jain'
tp1620
a(S'100002454841870'
S'Abhay Singh'
tp1621
a(S'100001188396376'
S'Sachin Garg'
tp1622
a(S'539345157'
S'Shalini Matta'
tp1623
a(S'100000618670440'
S'Vasu Sharma'
tp1624
a(S'100001269939572'
S'Prashant Chaudhary'
tp1625
a(S'100002336872313'
S'Gagan Bansal'
tp1626
a(S'100003915764123'
S'Vikas Poonia'
tp1627
a(S'1492236483'
S'Utkarsh Singh'
tp1628
a(S'100001629433231'
S'Charu Sharma'
tp1629
a(S'100000932894755'
S'Shivam Gupta'
tp1630
a(S'1183148509'
S'Malvika Kapur'
tp1631
a(S'100002691182152'
S'Rahul Sah'
tp1632
a(S'100001299800110'
S'Arush Chehal'
tp1633
a(S'100001789140334'
S'Deepak Behal'
tp1634
a(S'583398553'
S'Rupjyoti Basumatary'
tp1635
a(S'1041557681'
S'Kaavya Sreedhar'
tp1636
a(S'100004047978919'
S'Roopak Sharma'
tp1637
a(S'100002102121756'
S'Anmol Vig'
tp1638
a(S'100000597681370'
S'Akash Chaturvedani'
tp1639
a(S'100000539987646'
S'Malti Gupta'
tp1640
a(S'595113182'
S'Khum\\u0105\\u0105n K\\u0105ushik'
tp1641
a(S'100000990084230'
S'Abhishek Tayal'
tp1642
asS'id'
p1643
S'100002236016683'
p1644
sS'name'
p1645
S'Karan Sofat'
p1646
s.