(dp1
S'friends'
p2
(lp3
(S'100001622830783'
S'\\u0628\\u0647\\u0627\\u0631\\u0647 \\u06a9\\u0627\\u0628\\u0644\\u06cc'
tp4
a(S'100002085311776'
p5
S'Mena Mangal'
tp6
a(S'100002052795582'
S'Farzana Yaqobi'
tp7
a(S'100002253226417'
S'Nafissa Herati'
tp8
a(S'100002892428930'
S'Oneeb Faqirzada'
tp9
a(S'100002055072689'
S'Freshta Afshar'
tp10
a(S'100004003436619'
S'Zainab Akbari'
tp11
a(S'100000858432688'
S'Jawaretm Manara'
tp12
a(S'100003074434445'
S'Amli Jatti'
tp13
a(S'100001549024964'
S'Awais Kiyani'
tp14
a(S'100004100735220'
S'Fareed Khan'
tp15
a(S'100002214388265'
S'\\u0641\\u0646\\u0627\\u0648\\u0631\\u064a \\u0631\\u0648\\u0632'
tp16
a(S'100002947522664'
S'Shalu Pandey'
tp17
a(S'100001919856486'
S'Maryam Mosafer'
tp18
a(S'100002226049162'
S'Maryam Tanha Tanha'
tp19
a(S'100003401744575'
S'Menu Singh'
tp20
a(S'100002314628296'
S'\\u0647\\u0632\\u0627\\u0631\\u0647 \\u062c\\u0627\\u063a\\u0648\\u0631\\u06cc'
tp21
a(S'100002132153058'
S'Rakiya Qureshi'
tp22
a(S'100002311179975'
S'Shabnam Habibi'
tp23
a(S'100003040350943'
S'Jamshed Saifi'
tp24
a(S'100004440333817'
S'\\u062d\\u0628\\u06cc\\u0628\\u0647 \\u0627\\u06a9\\u0628\\u0631\\u06cc'
tp25
a(S'100000532406957'
S'\\u0627\\u0646\\u0633\\u062c\\u0627\\u0645 \\u0645\\u0644\\u06cc'
tp26
a(S'100002283135535'
S'Muhammad Kushaani'
tp27
a(S'100002203737442'
S'Zarmat Khan'
tp28
a(S'100002548947962'
S'Mahdin Mousavi'
tp29
a(S'100003018734712'
S'Makhdoom Ariz'
tp30
asS'id'
p31
S'100002364399432'
p32
sS'name'
p33
S'Tamim Murady'
p34
s.