(dp1
S'friends'
p2
(lp3
(S'100000530015618'
S'\\u092e\\u0928\\u0940\\u0937 \\u0930\\u093e\\u091c\\u0939\\u0901\\u0938'
tp4
a(S'100003178599855'
S'Ankit Kumar'
tp5
a(S'100007009508370'
S'Raj Kumar'
tp6
a(S'100003383079439'
S'Raj Kumar'
tp7
asS'id'
p8
S'100000530015618'
p9
sS'name'
p10
S'\\u092e\\u0928\\u0940\\u0937 \\u0930\\u093e\\u091c\\u0939\\u0901\\u0938'
p11
s.