(dp1
S'friends'
p2
(lp3
(S'100000477537524'
S'Rahul Kothari'
tp4
a(S'100003588756462'
S'Chistry Sharma'
tp5
a(S'100003725829451'
S'Anamika Singh'
tp6
asS'id'
p7
S'100000477537524'
p8
sS'name'
p9
S'Rahul Kothari'
p10
s.