(dp1
S'friends'
p2
(lp3
(S'553772366'
S'Nicarla Laliberte'
tp4
a(S'100004476577075'
S'Muskan Khany'
tp5
a(S'100006247565451'
S'Sophia Abra\\u00e3o'
tp6
a(S'1023158232'
S'Wendy Blountt'
tp7
a(S'1521673358'
S'Rylie Granger'
tp8
a(S'100000336902902'
S'Nawroz Zazai'
tp9
a(S'100006477581053'
S'Amber Johnson'
tp10
a(S'100000843832165'
S'Qari Ashraf'
tp11
a(S'100002511578722'
S'Pashton Zoy Aliha Salam'
tp12
a(S'100003959868480'
S'Des Prescott'
tp13
a(S'100005640791564'
S'Mehlab Baloch'
tp14
a(S'100006528427141'
S'Ashley Volgs'
tp15
a(S'100006601384232'
S'Candace Greenberg'
tp16
a(S'100004249655944'
S'Celeste Umeres'
tp17
a(S'100001747220932'
S'Bint E Hawa'
tp18
a(S'100003991020996'
S'Ankita Sharma'
tp19
a(S'100001347273536'
S'Shannon Prescott'
tp20
a(S'100001322065283'
S'Jolene Smith'
tp21
a(S'100002427051911'
S'Logar Azra'
tp22
a(S'100003352877373'
S'Ajmal Khan'
tp23
a(S'1523139456'
S'Lezley Lockhart Ifbb Pro'
tp24
a(S'514003204'
S'Kristal Gerald'
tp25
a(S'100005870792593'
S'Fatima Mangi'
tp26
a(S'658820885'
S'Christina Sophia Fisher'
tp27
a(S'100005139433217'
S'Jessica Anderson'
tp28
a(S'100003155586203'
S'Daud Zahid'
tp29
a(S'100003160968903'
S'\\u062d\\u0627\\u0645\\u062f \\u06a9\\u0631\\u0632\\u06cc'
tp30
a(S'1130122898'
S'Irum Rashid Khan'
tp31
a(S'1170747839'
S'Casey Stenehjem'
tp32
a(S'100003278508778'
S'Destiny Toproudto Lose'
tp33
a(S'100004171183246'
S'Hashim Khan Mullakhail'
tp34
a(S'100001074619842'
S'Saifullah Lakanhkhail'
tp35
a(S'100006459491708'
S'Audra Thrush Wbff Pro'
tp36
a(S'100001756743325'
S'MsLady Love'
tp37
a(S'100004443301670'
S'Ariba Malik'
tp38
a(S'100005550030455'
S'Tina Larina'
tp39
a(S'100001438849253'
S'Mary Myers'
tp40
a(S'100001905448904'
S'\\u0639\\u0628\\u062f\\u0627\\u0644\\u0645\\u062a\\u064a\\u0646 \\u0631\\u062d\\u064a\\u0645\\u064a'
tp41
a(S'100004041743073'
S'Mala Khan'
tp42
a(S'100001562799671'
S'Michelle Kringen'
tp43
a(S'100000028705399'
S'Sanam Asfahan'
tp44
a(S'100003574242830'
S'Tanisha Goldny'
tp45
a(S'100006191734770'
S'Ashley Albee'
tp46
a(S'100002085311776'
S'Mena Mangal'
tp47
a(S'13956118'
S'Jes Van Zandt'
tp48
a(S'638140559'
S'Kayla Renee'
tp49
a(S'100000193237008'
S'Jean Kelly Lopez'
tp50
a(S'100001066863357'
S'\\u069a\\u0627\\u06cc\\u0633\\u062a\\u0647 \\u06a9\\u0648\\u0686\\u06cd'
tp51
a(S'100004057937759'
S'Mila Costeau'
tp52
a(S'100005760884039'
S'Sanam Naz'
tp53
a(S'510216053'
S'Krystle Gayle'
tp54
a(S'1161740132'
S'Niaz Ahmad Ariob'
tp55
a(S'100002951039324'
S'Roya Danish'
tp56
a(S'100006598958452'
S'Hazal Su'
tp57
a(S'657799575'
S'Taimoor Akhunzada'
tp58
a(S'1709341582'
S'Rahim Khan Achakzai'
tp59
a(S'100001831176567'
S'Cheri Miller'
tp60
a(S'100006354812035'
S'Asia Divine'
tp61
a(S'100000007535635'
S'Yassna Javadpour'
tp62
a(S'664795363'
S'Heidi Carlson'
tp63
a(S'624642845'
S'Terziyska Elena'
tp64
a(S'100000605322630'
S'Angelika Warhol'
tp65
a(S'1035059957'
S'Shelly Hauschildt'
tp66
a(S'1609166766'
S'Sarah Willis'
tp67
a(S'1381607710'
S'Samiullah Thorakhail'
tp68
a(S'100001718979487'
S'Ocinda Gentes'
tp69
a(S'100005500244503'
S'Sam At Dtc'
tp70
a(S'1480190035'
S'Waheed Jan'
tp71
a(S'100002869342508'
S'Megham Jan'
tp72
a(S'758763189'
S'Carly-Jo Guertin'
tp73
a(S'100001600343816'
S'Jana Lawson'
tp74
a(S'100000111517636'
S'Xanam Gul'
tp75
a(S'100006702723989'
S'Jenny Anderson'
tp76
a(S'1543337355'
S'Kate Rose-Angel Morris'
tp77
a(S'100001595105662'
S'Gull ERahna'
tp78
a(S'100000182506569'
S'Amankhan Zazai'
tp79
a(S'100004315385215'
S'Olivia Von Reese'
tp80
a(S'1709689029'
S'Christine Jones'
tp81
a(S'100000874871721'
S'Kareem Shinwari'
tp82
a(S'100002071309608'
S'Zazai Bebe'
tp83
a(S'655115411'
S'Danielle Kulseth'
tp84
a(S'100002463972065'
S'Mojib Nayaab'
tp85
a(S'1177773388'
S'Majid Khan'
tp86
a(S'100004106565404'
S'Asmat Afghani'
tp87
a(S'100005233448576'
S'Melody Barbosa'
tp88
a(S'100003629693732'
S'Maria Shah'
tp89
a(S'100003935170564'
S'Sameera Yousafzai'
tp90
a(S'1441385016'
S'Stephanie Lyn Ford'
tp91
a(S'100005174344744'
S'Ayesha Bride'
tp92
a(S'100005399440397'
S'Ashley Madison'
tp93
a(S'100000768363789'
S'AaJee Azeemi'
tp94
a(S'100003898802070'
S'Farishta Jan'
tp95
a(S'100003653483334'
S'R\\u00e4hm\\u00e0t \\u00d9ll\\u00e2h'
tp96
a(S'100003678650139'
S'Britney Jensen'
tp97
a(S'100002237677665'
S'Abdul Wali Wafa'
tp98
a(S'100003819153586'
S'Shamsurahman Mayar'
tp99
a(S'82408703'
S'Nevyanne Budenbender'
tp100
a(S'100003909946584'
S'Tajallah Afghani'
tp101
a(S'100004062372569'
S'Imran Zazai'
tp102
asS'id'
p103
S'100000778615662'
p104
sS'name'
p105
S'Shan Pakhtun'
p106
s.