(dp1
S'name'
p2
S'Amit Upadhyay'
p3
sS'current_class'
p4
S'india'
p5
sS'home_class'
p6
Vpatna, bihar, india
p7
sS'home_text'
p8
VPatna, India\u000aHometown
p9
sS'current_link'
p10
Vhttps://www.facebook.com/l.php?u=https%3A%2F%2Fwww.bing.com%2Fmaps%2Fdefault.aspx%3Fv%3D2%26pc%3DFACEBK%26mid%3D8100%26where1%3D25.611000475074%252C%2B85.142669677734%26name%3DPatna%252C%2BIndia%26mkt%3Den-IN&h=0AQGn4dP7&s=1
p11
sS'home_link'
p12
Vhttps://www.facebook.com/l.php?u=https%3A%2F%2Fwww.bing.com%2Fmaps%2Fdefault.aspx%3Fv%3D2%26pc%3DFACEBK%26mid%3D8100%26where1%3D25.611000475074%252C%2B85.142669677734%26name%3DPatna%252C%2BIndia%26mkt%3Den-IN&h=yAQFm4MfZ&s=1
p13
sS'current_text'
p14
VPatna, India\u000aCurrent City
p15
sS'friends'
p16
(lp17
(S'100002029210248'
S'Ad Vaishali Jani'
tp18
a(S'100000668337502'
S'Sumit Kumar Pandey'
tp19
a(S'100005450377103'
S'Suresh Shaw'
tp20
a(S'100000064487328'
S'Mukesh Kant'
tp21
a(S'100002058642055'
S'Lawyer Dipti Sirohi Arya'
tp22
a(S'592317017'
S'Rupali Sinha'
tp23
a(S'557714038'
S'Meenakashi Lekhi'
tp24
a(S'100003033196286'
S'Ashish Shukla'
tp25
a(S'100002582973282'
S'Muntazar Khan'
tp26
a(S'100000914806969'
S'Purwa Bharadwaj'
tp27
a(S'100006290593528'
S'Manish Singh'
tp28
a(S'100003106887988'
S'Rafi Ahmad Quereshi'
tp29
a(S'100002650631662'
S'Adv Rajendra Mugdia'
tp30
a(S'100006042123186'
S'Alka Pandey'
tp31
a(S'100000139862841'
S'Prateek Pathak'
tp32
a(S'100000044921352'
S'Yaksh Nigam'
tp33
a(S'100001843818199'
S'Arul Ganesh'
tp34
a(S'100006508715291'
S'Poonam Singh'
tp35
a(S'100004875642498'
S'Mirina Narrz'
tp36
a(S'100003690851899'
S'Ritesh Singh'
tp37
a(S'100000333675048'
S'Anita Verma'
tp38
a(S'100001313412328'
S'Divya Darshan Sharma'
tp39
a(S'100001178392641'
S'Shashi Shekhar'
tp40
a(S'100000167276655'
S'Sonali Prasad'
tp41
a(S'100003275411189'
S'Kaushlesh Pathak'
tp42
a(S'100000280374252'
S'Anand Upadhyay'
tp43
a(S'100004106329307'
S'Renu Mishra'
tp44
a(S'100001672851858'
S'Alok Pandey'
tp45
a(S'100007749940001'
S'Veronica Rao'
tp46
a(S'100000918847279'
S'Kanchan Mani Choudhary'
tp47
a(S'100006829389269'
S'Aashtha Singh Suryavanshi'
tp48
a(S'563000613'
S'Kiran Mohite'
tp49
a(S'1281820476'
S'Ajay Kumar Singh'
tp50
a(S'100002192466481'
S'Suman Upadhyay'
tp51
a(S'100002785687520'
S'Anupam Sharma'
tp52
a(S'100001155191759'
S'Chandra Shekhar Seth'
tp53
a(S'100002075203925'
S'Sanjeev Jha'
tp54
a(S'100002997991526'
S'Ad Uma Chaturvedi'
tp55
a(S'628833252'
S'Mona Verma'
tp56
a(S'100005860832403'
S'Raghubir S Upadhyay'
tp57
a(S'100001645904401'
S'Arun Dixit'
tp58
a(S'1283158462'
S'Divya Saran Bhatnagar'
tp59
a(S'100000045244826'
S'Madhurima Singh'
tp60
a(S'100000510226149'
S'DrRenu Raj'
tp61
a(S'100001574756771'
S'Reena Verma'
tp62
a(S'100000933614105'
S'Suchismita Bhuyan'
tp63
a(S'100002652996230'
S'Babita Tyagi'
tp64
a(S'100000492221036'
S'Vinita Mishra'
tp65
a(S'100003348002764'
S'Kanupriya Shankar Pandit'
tp66
a(S'100002823727259'
S'Satandra Panday'
tp67
a(S'1196274976'
S'Pankaj Patna'
tp68
a(S'1495606838'
S'Rakesh Ranjan'
tp69
a(S'100001158389093'
S'Sanjay Singh'
tp70
a(S'100000237372739'
S'Pooja Singh'
tp71
a(S'100002682455989'
S'Rupam Sinha'
tp72
a(S'100000618099969'
S'Rajesh Kumar'
tp73
a(S'100006274897957'
S"June D'Souza"
tp74
a(S'1201930425'
S'Tuhin Shankar'
tp75
a(S'100000553515392'
S'Kavita Tiwary'
tp76
a(S'100001314279686'
S'Adv Tarun Parmar'
tp77
a(S'561805747'
S'Chhaya Saraswat'
tp78
a(S'100003399193623'
S'Shweta Singh'
tp79
a(S'100003768807773'
S'Mayank Upadhyay'
tp80
a(S'100000297792833'
S'Ranjana Tiwari Pathak'
tp81
a(S'100003731089207'
S'Adv Maanvi Pandey'
tp82
a(S'100001013733174'
S'Avinash Prakash'
tp83
a(S'100001013621944'
S'Meena Vardhan'
tp84
a(S'100005398926817'
S'Radhika Raman'
tp85
a(S'100000619912363'
S'\\u0938\\u0902\\u0926\\u0940\\u092a \\u092a\\u093e\\u0920\\u0915'
tp86
a(S'100004205130833'
S'Sonu Kumar'
tp87
a(S'100001643259381'
S'Shivashree Shekhar Ojha'
tp88
a(S'100006701050497'
S'Sanjay Tiwari Ujala'
tp89
a(S'1656778331'
S'Prince Karimi'
tp90
a(S'100005329598937'
S'Mangesh Kumar'
tp91
a(S'100004966803333'
S'Sujeet Kumar'
tp92
a(S'1475943309'
S'Manya Upadhyay'
tp93
a(S'518566088'
S'Barbara Thyab Ali'
tp94
a(S'100000333966961'
S'Rajesh Ranjan'
tp95
a(S'100005412602640'
S'Gyanendra Shrestha'
tp96
a(S'672533584'
S'Ritu Singh'
tp97
a(S'100001252058671'
S'Anand K. Ojha'
tp98
a(S'1194056700'
S'Jitendra Kumar'
tp99
a(S'1282583973'
S'Anand Dwivedi'
tp100
a(S'1806395014'
S'Shashwat Dubey'
tp101
a(S'100000702914765'
S'Alok Singh'
tp102
a(S'631333576'
S'Tanuja Shankar'
tp103
a(S'100003838294393'
S'Shalu Aggarwal'
tp104
a(S'100001168711990'
S'Namrata Nath'
tp105
a(S'100002125701357'
S'Atul Singh'
tp106
a(S'100000353166111'
S'Anurag Vardhan'
tp107
a(S'100001458694892'
S'Alka Tiwari'
tp108
a(S'100005060011629'
S'Binita Upadhyay'
tp109
a(S'100003667197510'
S'Misuse AntiDowrylaw'
tp110
a(S'100002568374869'
S'Govind Narayan Sharma'
tp111
a(S'100000043624732'
S'Madhulika Singh'
tp112
a(S'100001529044608'
S'Kavita Jha'
tp113
a(S'100005076511489'
S'Loren Friyahyloren'
tp114
a(S'100000591004974'
S'Nikhil Choudhary'
tp115
a(S'100003109530894'
S'Shravan Kumar'
tp116
asS'id'
p117
S'100001640150793'
p118
s.