(dp1
S'friends'
p2
(lp3
(S'100002131690500'
S'Leema Roya'
tp4
a(S'100002349875852'
S'\\u0645\\u0698\\u06af\\u0627\\u0646 \\u0647\\u0631\\u0627\\u062a\\u06cc'
tp5
a(S'100000877980032'
S'Marie Claire Dumandan Buaya'
tp6
a(S'100000145163772'
S'Xhan Ashiteroo'
tp7
a(S'100002514421482'
S'Sahar Sadat'
tp8
a(S'100002192504390'
S'Honey Azimi'
tp9
a(S'100001175252235'
S'Sitara Afghan'
tp10
a(S'100001306318923'
S'Sharifa Hamdard'
tp11
a(S'100002022436564'
S'Malika Kabuli'
tp12
a(S'100001874834088'
S'Sahar Sadat'
tp13
a(S'100000326907636'
S'Rizacel Isidro Laspona'
tp14
a(S'100001795444545'
S'Bache Kabuli'
tp15
a(S'100000446728523'
S'Meshel Baslot'
tp16
a(S'100001421644116'
S'Ondrea Amrons Caballero'
tp17
a(S'100002547601459'
S'Jewel Lucas III'
tp18
a(S'100003042328251'
S'Heela Khan'
tp19
a(S'100001958848862'
S'Mena Ghafori'
tp20
a(S'100002197720586'
S'Baran Bahar'
tp21
a(S'100001347548291'
S'Zarina Zarin'
tp22
a(S'100001833252889'
S'Kathryn Louise Dinglasan'
tp23
a(S'100001195674253'
S'Zahra Hashemi'
tp24
a(S'100002211447287'
S'Ghazal Tanha'
tp25
a(S'100001959517738'
S'Sahar Safi'
tp26
a(S'100000993412349'
S'Nasrin Nastaran'
tp27
a(S'100000924667183'
S'Areeba Zaidi'
tp28
a(S'100001352374636'
S'Vanessa Joyce Plaras Anghad'
tp29
a(S'100004186303757'
S'Rimjhim Arora'
tp30
a(S'100000996808734'
S'Khatera Khalily'
tp31
a(S'100002186892966'
S'Jh\\u00e5n\\u00ea\\u00e3 D. Xyr\\u00ee\\u00e8l'
tp32
a(S'100002069818270'
p33
S'Narges Afghan'
tp34
a(S'100001411410631'
S'Jasica Sana'
tp35
a(S'100000371039122'
S'Lorena Lorente Rodriguez'
tp36
a(S'100004205765490'
S'Nurten Caglar'
tp37
a(S'100000407655311'
S'Shaista Jabeen'
tp38
a(S'100001910241797'
S'Pakol Panjsher'
tp39
a(S'100001290475577'
S'Afshaan Khan'
tp40
a(S'100001086370144'
S'Pari London'
tp41
a(S'100001715331493'
S'Farzana Jan'
tp42
a(S'100001142451684'
S'Freshta Sahar'
tp43
a(S'100001264644471'
S'Zakira Ahmadi'
tp44
a(S'100001632824301'
S'Gelchera Saberi'
tp45
a(S'100000405299124'
S'Lyujain Caminade Inson'
tp46
a(S'100002303387462'
S'Zarghona Mehraban'
tp47
a(S'100002085311776'
S'Mena Mangal'
tp48
a(S'100001467117506'
S'Basira Kayenat'
tp49
a(S'100001694996180'
S'Nancy Jumawid Pabrua'
tp50
a(S'100002287998491'
S'Nadia Afghan'
tp51
a(S'100002085082670'
S'Parniyan Jan Sherzai'
tp52
a(S'100000916956935'
S'Nadia Ali'
tp53
a(S'100000655278678'
S'Anin Evinid Aled Atseuc'
tp54
a(S'100001593013055'
S'Deyanaa Wardak'
tp55
a(S'100001316136707'
p56
S'Tamana Ahmadi'
tp57
a(S'100002349385648'
S'Mursal Qand'
tp58
a(S'100002753010613'
S'Zonehra Gul'
tp59
a(S'100001701823104'
S'Rheza Mae Quijano Condesa'
tp60
a(S'100002376789529'
S'Khalida Yasmen'
tp61
a(S'100001399680826'
S'Nelab Nazanin'
tp62
a(S'100002362183181'
S'Parisa Sharifi'
tp63
a(S'1285974789'
S'Yalda Salimi'
tp64
a(S'100001328485555'
S'Norainie Emily Pundogar Mimbalawag'
tp65
a(S'100002253119062'
S'\\u0634\\u0628\\u0646\\u0645 \\u0627\\u0641\\u063a\\u0627\\u0646'
tp66
a(S'100001747513517'
S'Afghan King'
tp67
a(S'100002634015429'
S'Frishta Tanya'
tp68
a(S'100002264643019'
S'Sahar Afghan'
tp69
asS'id'
p70
S'100002249691744'
p71
sS'name'
p72
S'Ramin Khan'
p73
s.