(dp1
S'friends'
p2
(lp3
(S'1021380795'
S'Ajay Joshi'
tp4
a(S'100007235919362'
S'Pushpa Joshi'
tp5
a(S'1165313294'
S'Girija M Awasthi'
tp6
a(S'1807790056'
S'Manoj Joshi'
tp7
a(S'1453382913'
S'Mudita Joshi'
tp8
a(S'650144382'
S'Kapil Sahney'
tp9
a(S'1363663375'
S'Mahendra Misra'
tp10
a(S'691290602'
S'Abhinav Joshi'
tp11
a(S'100001623748650'
S'Rajeev Pande'
tp12
a(S'1541965809'
S'Gaurav Joshi'
tp13
a(S'100001462612710'
S'Krish Joshi'
tp14
a(S'1596016397'
S'Kavita Sharma'
tp15
a(S'100000084134731'
S'Amita Joshi'
tp16
a(S'1743356779'
S'Raghunandan Trivedi'
tp17
a(S'100006791797396'
S'Hem Chandra Pandey'
tp18
a(S'100006554866643'
S'Kalpana Trivedi'
tp19
a(S'731882035'
S'Gunjan Trivedi'
tp20
a(S'1196064654'
S'Mexi Krishna Joshi'
tp21
a(S'100004656313007'
S'Siddhant Sharma'
tp22
a(S'752852667'
S'Devender Sharma'
tp23
a(S'100005062862274'
S'Manju Joshi'
tp24
a(S'100001570924143'
S'Ashok Joshi'
tp25
a(S'100001095497069'
S'Madhu Joshi'
tp26
a(S'100002297087197'
S'Teach India'
tp27
a(S'100001086734670'
S'Madhu Joshi'
tp28
a(S'732898243'
S'Mohit Trivedi'
tp29
a(S'100000330552029'
S'Anita Joshi'
tp30
a(S'100001396842448'
S'Mohan Joshi'
tp31
a(S'100000906843002'
S'Saurabh Joshi'
tp32
a(S'1108740389'
S'Antanu Das'
tp33
a(S'667611456'
S'Sumita Joshi'
tp34
a(S'100000967834668'
S'Arun Joshi'
tp35
a(S'731211654'
S'Alka Sharma'
tp36
a(S'100001782143840'
S'Pankaj Sharma'
tp37
a(S'100003283915946'
S'Harish Awasthi'
tp38
a(S'1048970403'
S'Neha Verma'
tp39
a(S'662008004'
S'Ravi Joshi'
tp40
a(S'516614553'
S'Varun Trivedi'
tp41
a(S'100007872674184'
S'Amita Joshi'
tp42
asS'id'
p43
S'100001069786387'
p44
sS'name'
p45
S'Ramesh Joshi'
p46
s.