(dp1
S'friends'
p2
(lp3
(S'100002723872825'
S'Soliman Sol'
tp4
a(S'669725562'
S'Naseer Shafaq'
tp5
a(S'100000760553031'
S'M Nazir Ahmadzai'
tp6
a(S'100007247077981'
S'Aghajan Sahak'
tp7
a(S'100002337318699'
S'Hakim Halim Af'
tp8
a(S'100001616425053'
S'Ashraf Ghani'
tp9
a(S'100008057191062'
S'Mumtaz Ahmadzai'
tp10
a(S'100002008850776'
S'Inzar Totakhail'
tp11
a(S'1127750465'
S'M Haider Ali'
tp12
a(S'100002916663471'
S'Muhib Bakhshy'
tp13
a(S'100006617371922'
S'Speen Gul Totakhil'
tp14
a(S'100000743256404'
S'Tariq Jan'
tp15
a(S'100000350410134'
S'Lutf Bakhshi'
tp16
a(S'100001919822273'
S'Mohammd Omer Mangal'
tp17
a(S'100000711582241'
S'Abdullah Shaiq'
tp18
a(S'100002550941904'
S'Alissa Azizi'
tp19
a(S'1106816956'
S'Roza Gul Totakhail'
tp20
a(S'100004917664442'
S'Matiullah Safi'
tp21
a(S'654884892'
S'Jamshid Sultanzada'
tp22
a(S'795940322'
S'Basir Ahmad'
tp23
a(S'100000746251426'
S'Said Ahmad Totakhil'
tp24
a(S'721883618'
S'Ahmad Qais'
tp25
a(S'100002818993387'
S'Rahmatullah Fazli'
tp26
a(S'100008117530888'
S'Asad Sedeqe'
tp27
a(S'100000021122148'
S'Raees Ahmadzai'
tp28
a(S'100001605317825'
S'Sahil Mangal'
tp29
a(S'100007875612575'
S'Zarkhan Ahmadzai'
tp30
a(S'100005477553694'
S'Fazlullah Wardak'
tp31
a(S'1844436952'
S'Arifullah Pashtoon'
tp32
a(S'100000650910508'
S'Taj Malik Alam'
tp33
a(S'100005078432082'
S'Zalmi Khan'
tp34
a(S'100005074779232'
S'Biotech Lab'
tp35
a(S'100004566518928'
S'Zia Abdulrahimzai'
tp36
a(S'100006081631346'
p37
S'Wahid Zhawandoon'
tp38
a(S'100001446526054'
S'Abdul Waris Khan'
tp39
a(S'100001151911100'
S'Ayub Khan'
tp40
a(S'100002539868007'
S'Ajmal Bakhshi'
tp41
a(S'584515088'
S'Minanak Totakhil'
tp42
a(S'100005106781574'
S'Elham Khan'
tp43
a(S'100005507716466'
S'Naeem Khan'
tp44
a(S'100005381556450'
S'Eng Hekmatullah Naser'
tp45
a(S'100008126134276'
S'\\u0639\\u0627\\u0644\\u06cc \\u06af\\u0644 \\u0633\\u0627\\u06a9'
tp46
a(S'100000708344996'
S'\\u062e\\u0627\\u0644\\u062f \\ufeed\\ufed3\\ufe8e'
tp47
a(S'100003909485290'
S'Asad Zemarwal'
tp48
a(S'100001229828733'
S'Dawood Ahmadzai'
tp49
a(S'100006569437285'
S'Taj Mohamad Salehe'
tp50
a(S'100004259977255'
S'Saifullah Niazi'
tp51
a(S'100000646141621'
S'Ahmad Shah'
tp52
a(S'100008166850717'
S'Abdul Qader Khan'
tp53
a(S'1851309426'
S'Adhelia Bahar'
tp54
a(S'100000400839980'
S'Shafeeq Khan'
tp55
a(S'1015609498'
S'Wahid Mashal'
tp56
a(S'1271264205'
p57
S'Javid Hamdard'
tp58
a(S'100006957099601'
S'Pamir Kabule'
tp59
a(S'100007414140598'
S'Mohammadullah Amin'
tp60
a(S'100007127111092'
S'Razen Batalla'
tp61
a(S'100000465935368'
S'Daud Miraki'
tp62
a(S'100002600522381'
S'Saidgullkhan Khan'
tp63
a(S'100001728835298'
S'\\u0698\\u0645\\u0646 \\u0645\\u06cc\\u0631\\u0632\\u06a9\\u0648\\u0627\\u0644'
tp64
a(S'100004851190494'
S'Shereen Mohammad Wardak'
tp65
a(S'100003512984729'
S'Amrullah Azizi'
tp66
a(S'100005221962969'
S'Sher Zai'
tp67
a(S'732354339'
p68
S'Takkal Abdurrahimzai'
tp69
a(S'1259357417'
S'Sayed Walid Mir'
tp70
a(S'100000375745871'
S'Najib Hashimi'
tp71
a(S'100006585940829'
S'\\u0689\\u0627\\u06a9\\u062a\\u0631\\u062d\\u0628\\u06cc\\u0628 \\u0645\\u0646\\u06ab\\u0644'
tp72
a(S'100007001501970'
S'\\u0645\\u0648\\u0644\\u0648\\u06cc \\u0634\\u0647\\u0632\\u0627\\u062f\\u0647 \\u0634\\u0627\\u0647\\u062f'
tp73
a(S'100001320456066'
S'Qader Arman'
tp74
a(S'100002993238159'
S'Eng Sohail Munsif'
tp75
a(S'503734045'
S'Nasir Naram'
tp76
a(S'100004078940084'
S'Muhammad Amir Khoshhal'
tp77
a(S'100002166894123'
S'Hasibullah Zaheer'
tp78
a(S'1733991595'
S'Mohammad Rafi'
tp79
a(S'100000971430737'
S'Gulbadin Naib'
tp80
a(S'1559578154'
S'Aslam Omaid'
tp81
a(S'100008039408238'
S'Muhmmad Jan'
tp82
a(S'1570101482'
S'Yadgar Safi'
tp83
a(S'1672908028'
p84
S'Bilal Mangal'
tp85
a(S'100006995264540'
S'Abdullkarim Mangal'
tp86
a(S'100003915352307'
S'Enamurab Arbab'
tp87
a(S'100000231501186'
S'Ziaudin Zia'
tp88
a(S'100004412858709'
S'Khamooshj Khamooshj'
tp89
a(S'100006643473829'
S'\\u0645\\u062d\\u0628\\u062a \\u0633\\u0627\\u062d\\u0644'
tp90
a(S'1405549896'
S'Delawar Faizan'
tp91
a(S'100000571074736'
S'Saidullah Saidy'
tp92
a(S'100001148145669'
S'Ajmal Siddique'
tp93
a(S'100004209764806'
S'Karim Khan'
tp94
a(S'100007111809243'
S'Badshah Khan'
tp95
a(S'608536494'
S'Shahpoor Amini'
tp96
a(S'1448077506'
S'Francis Dass'
tp97
a(S'100000943231000'
p98
S'M Banares Khan'
tp99
a(S'100001329987385'
S'Mohammad Omer Liqa'
tp100
a(S'100005092272031'
S'Ayubkhan Sarwan'
tp101
a(S'100003853785917'
S'Noorullah Totakhail'
tp102
a(S'100002459859675'
S'Jansher Khan Hadawal'
tp103
a(S'100005175061525'
S'Saif Zaheer'
tp104
a(S'686689351'
S'Hashmat Alizai'
tp105
a(S'1409007848'
S'Ab. Samad'
tp106
a(S'100001254252152'
S'Mohammad Farid Hotak'
tp107
a(S'100003163345690'
S'Mohammad Akram Khpalwak'
tp108
a(S'100007747967104'
S'Hameed Ullah'
tp109
a(S'545956776'
S'Mohammad Zerak'
tp110
a(S'100001462815892'
S'Nasim Gul Tutakhel'
tp111
a(S'100000327829245'
S'Mohammad Nabi Eisakhil'
tp112
a(S'100000119715557'
p113
S'Palwasha Khostai'
tp114
a(S'100004375210350'
S'Shafiqullah Hamraz'
tp115
a(S'100001409256554'
S'Safi Aminzy'
tp116
a(S'100001853149734'
S'Ismail Kashif'
tp117
a(S'100006867091951'
S'\\u062d\\u0633\\u0646 \\u06cc\\u0627\\u0631'
tp118
a(S'100003855722905'
S'Abdull Satar Saadat'
tp119
a(S'100000880546502'
S'Mohammad Naeem Ahmadzai'
tp120
a(S'100001501261348'
S'Saharudin Totakhail'
tp121
a(S'707915631'
S'Masihullah Mohib'
tp122
a(S'100005013940289'
S'Umar Gul'
tp123
a(S'1476215078'
S'Farooq Jan Mangal'
tp124
a(S'100005930923950'
S'Niaz Mohd Ayobi'
tp125
a(S'1636532433'
S'Mohibullah Safi'
tp126
a(S'568732931'
S'Ahmed Shafiq Masood'
tp127
a(S'1465953096'
S'Mir Wais Nisar'
tp128
a(S'1485545161'
S'Najib Rahman Mangal'
tp129
a(S'100006785859581'
S'Eng Mohammad Khan'
tp130
a(S'100000670125229'
S'KD Noori'
tp131
a(S'100000152695901'
S'Elias Wahdat'
tp132
a(S'100000663524577'
S'Nazari Dost M'
tp133
a(S'100004560070889'
S'Farhad Khan'
tp134
a(S'554908964'
p135
S'Ziaur-Rahman Safi'
tp136
a(S'100001811074542'
S'Moin Khan Totakhail'
tp137
a(S'100002613727934'
S'Tajwali Nizami'
tp138
a(S'1649525996'
S'Mustafa Babakarkhail'
tp139
a(S'100001860336995'
S'Sultan Mohammad'
tp140
a(S'1149971915'
S'Randy Tejada'
tp141
a(S'692885457'
S'Abdul Saboor Jawad'
tp142
a(S'100001565337748'
S'Mohammad Khalid Wahedi'
tp143
a(S'100002351775637'
S'Niak Mohammad Darwesh'
tp144
a(S'100006922693067'
S'DrMirbat Khan Mangal'
tp145
a(S'100006434466424'
S'Kaky Khan'
tp146
a(S'100000504804529'
S'Belal Khan'
tp147
a(S'100003466467699'
S'Sayed Rahman'
tp148
a(S'100004350573344'
S'Mati Ullah'
tp149
a(S'100003003126956'
S'Shafi Wardak'
tp150
a(S'100003667776332'
S'Aslam Khan'
tp151
a(S'100003074422136'
S'Ayaz Tarnak'
tp152
a(S'100001071834381'
S'Mohammad Aslam Salimi'
tp153
a(S'100001393505459'
S'Saif Omerzai'
tp154
a(S'100000476954407'
p155
S'Akhtar Totakhail'
tp156
a(S'100002815870854'
S'Qais Sargand'
tp157
a(S'100000631604234'
S'Yousaf Khan Mangal'
tp158
a(S'646987437'
S'Maria Azimi'
tp159
a(S'100002269725569'
S'Zar Meena'
tp160
a(S'100000614959243'
S'Rameen Wahaj'
tp161
a(S'100006902521878'
S'Shams Ullah Zahid'
tp162
a(S'100001357116798'
S'Rahmat Spesalai'
tp163
a(S'100001057856114'
S'Rameen Wahaj'
tp164
a(S'100002131095606'
S'Riaz Ahmad'
tp165
a(S'100004752273458'
S'Omied Rehan'
tp166
a(S'100003130275205'
p167
S'Khalilahmad Totakhil'
tp168
a(S'531756552'
S'Aimal Marjan'
tp169
a(S'1552468059'
S'Nasim Danish'
tp170
a(S'100000749507500'
S'Hamid Habibzada'
tp171
a(S'1397790298'
S'Wafiullah Wafa'
tp172
a(S'100002161936714'
S'Hamid Panjshiri'
tp173
a(S'100008180851737'
S'Hamdard Rashidi'
tp174
a(S'100004685021608'
S'Qayyum Stanikzai'
tp175
a(S'100000828184498'
S'Asadullah Khan'
tp176
a(S'100002783676188'
S'Sarajuddin Patan'
tp177
a(S'100002113441730'
S'Spogmai Mangal'
tp178
a(S'100005584187134'
S'Toryali Khan'
tp179
a(S'100000611047827'
S'Samoon Afghan'
tp180
a(S'100004850463131'
S'Noor Khan'
tp181
a(S'1283150412'
S'M Naim Alamyar'
tp182
a(S'1649421665'
S'Waheed Haider'
tp183
a(S'100006727502711'
S'Hasib Sediqi'
tp184
a(S'100002194171337'
S'Ayub Sarwan'
tp185
a(S'801315231'
S'Saboor Niazi'
tp186
a(S'100001488796857'
S'FaWad RahiMi'
tp187
a(S'1497411557'
S'Sher Khan Sahak'
tp188
a(S'100001360880756'
S'Taif Shah Hamdard'
tp189
a(S'1788780277'
S'Haidar Safi'
tp190
a(S'718134578'
S'Syed Jan Ahmadi'
tp191
a(S'100000243031208'
S'Farooq Khawaja'
tp192
a(S'100002217865994'
S'Naseem Mirzakwal'
tp193
a(S'100006734911079'
S'Iqra Wazir'
tp194
a(S'100005406991150'
S'Gul Nabi'
tp195
a(S'100000611410796'
S'Hasti Gul Abed'
tp196
a(S'100006460562008'
S'Sharif Salik'
tp197
a(S'100002383149839'
S'Mohammad Wali Totakhail'
tp198
a(S'100003034758587'
S'Ebadat Nawab'
tp199
a(S'100008091943021'
S'Delawer Nasiri'
tp200
a(S'100007682474228'
S'Obaid Kamran'
tp201
a(S'100002111868825'
S'Nasib Totakhel'
tp202
a(S'715319498'
S'M.Nadir Omar'
tp203
a(S'586777001'
S'Allah-dad Noori Sahak'
tp204
a(S'100007891262548'
S'Hi Hi'
tp205
a(S'1767502919'
S'Ajmal Lewaal'
tp206
a(S'100000085302180'
S'Shapoor Bakhtiyar'
tp207
a(S'716385847'
S'Najib Raie'
tp208
a(S'100004355861539'
S'Qimat Gul Afghan'
tp209
a(S'1210403954'
S'Faisal Mangal'
tp210
a(S'100001624782586'
S'Wahidullah Totakhail'
tp211
a(S'100007700641653'
S'Omar Ezat'
tp212
a(S'100001715464312'
S'Roqia Amiri'
tp213
a(S'1606212528'
S'Ehsan Logary'
tp214
a(S'100004674308276'
S'Jamil Ahmad'
tp215
a(S'1640006506'
S'Ajmal Gulab'
tp216
a(S'100002050290860'
S'Kamal Naser Osuli'
tp217
a(S'100000400955927'
p218
S'Naqibullah Mangal'
tp219
a(S'100003289951493'
S'Said Salih'
tp220
a(S'100007813779415'
S'Shah Mohammad'
tp221
a(S'100007565194041'
S'Badshah Khan'
tp222
a(S'100004966085437'
S'Sardar Wali Tirawal'
tp223
a(S'100000419072824'
S'Miraqa Hussain Khail'
tp224
a(S'100000103758565'
S'Arling Arsafa'
tp225
a(S'100000676660393'
S'Safia Siddiqi'
tp226
a(S'100004003163676'
S'\\u062d\\u0627\\u062c\\u064a \\u0646\\u0648\\u0627\\u0628 \\u0645\\u0646\\u06ab\\u0644'
tp227
a(S'100003555756165'
S'Jelani Popal'
tp228
a(S'100000331267531'
S'Habibullah Amin Andar'
tp229
a(S'100000572633585'
S'Aqal Jan Totakhil'
tp230
a(S'100001723897728'
S'Hamidullah Khan'
tp231
a(S'100001701243844'
S'Sharafat Rahimi'
tp232
a(S'100005568343309'
S'Itbar Gull'
tp233
a(S'100002547482320'
S'Khalil Ahmad'
tp234
a(S'100000878250739'
S'Zia Safi'
tp235
a(S'100002085311776'
S'Mena Mangal'
tp236
a(S'100002203927864'
S'Mohammad Nazeer Bawar'
tp237
a(S'813038426'
S'Hashim Sadaf'
tp238
a(S'100002175854238'
S'Balbala Paktiayawala'
tp239
a(S'100001276542168'
S'Lalaqa Shirzad'
tp240
a(S'100006650973020'
S'Hakim Noor'
tp241
a(S'1077653383'
S'Abdul Wali Yusufi'
tp242
a(S'100001846104530'
S'Naseer Nasre'
tp243
a(S'100002148554759'
S'Mhamed Staneczee'
tp244
a(S'100001157182208'
S'Aslam Baba'
tp245
a(S'100001991662791'
S'Daulat Khan Ahmadzai'
tp246
a(S'100005889180075'
S'\\u0639\\u0635\\u0645\\u062a \\u0627\\u0644\\u0644\\u0647 \\u0639\\u0644\\u06cc\\u0632\\u06cc'
tp247
a(S'100000110807132'
S'Fatima Khurshid'
tp248
a(S'100006528976919'
S'Toryali Khan'
tp249
a(S'100002394494271'
S'Ayub Afgar'
tp250
a(S'100005348402666'
S'Aziz Aziz'
tp251
a(S'1276396112'
S'Sayed Hameed Nazimi'
tp252
a(S'100003671655324'
p253
S'Abdullah Mazari'
tp254
a(S'556732866'
S'Daoud Habibzai'
tp255
a(S'100003660593320'
S'Dawood Turakhail'
tp256
a(S'100006798156870'
p257
S'Afghan Afghan'
tp258
a(S'100003281921787'
S'Arifullah Pashtoon'
tp259
a(S'1567107390'
S'Ghani Khan'
tp260
a(S'1326838315'
S'Sayed Ahmad Saeed'
tp261
a(S'100002887661407'
S'Bashir Hamdarad'
tp262
a(S'100001241834696'
S'Aman Tanha'
tp263
a(S'100004064919191'
S'Qumand Husainkhil'
tp264
a(S'100007293454430'
S'Akhtar Mateen'
tp265
a(S'100001256568853'
S'Sanaullah Amiree'
tp266
a(S'1065128926'
S'Hila Ahmadzai'
tp267
a(S'1067959498'
S'Nazeem Jaar Abdulrahimzai'
tp268
a(S'100000979826439'
S'Mohammad Agha'
tp269
a(S'100008003858481'
S'Drmujeeb Rahman'
tp270
a(S'100004674780576'
S'Mirwais Hotak'
tp271
a(S'100002620627335'
S'Ahmad Khan'
tp272
a(S'100001458145953'
S'Andesh Paktiawal'
tp273
a(S'100000281217108'
S'Ibrahim Ghakhtalai'
tp274
a(S'100008226184857'
S'Ahmadullah Sabir'
tp275
a(S'100004575935501'
S'Tajali Sabir'
tp276
a(S'649443969'
S'Mohamad Gul Totakhail'
tp277
a(S'100000958953913'
S'Mohammad Humayon Faizzad'
tp278
a(S'100003339185545'
S'Sher Afghan'
tp279
a(S'100001835782343'
S'Ahmadshah Totakhel'
tp280
a(S'100005415662508'
S'Ehsanullah Ahmadi'
tp281
a(S'100000217484475'
S'Young Afghanistan'
tp282
a(S'100000839570346'
S'Atiq Mohmand'
tp283
a(S'1083364001'
S'Andekhman Zazai'
tp284
a(S'1419644968'
S'Jun Ultado'
tp285
a(S'100000872602175'
S'Nawroz Mangal'
tp286
a(S'100005641350762'
S'Tawfiqullah Faiq'
tp287
a(S'100005248692034'
S'Sardar M Saddiq'
tp288
a(S'1682962504'
p289
S'Ahmad Farhad Noorzai'
tp290
a(S'100000631884769'
S'Asghar Stanikzai'
tp291
a(S'100008011989162'
S'Naqeeb Khosti'
tp292
a(S'100004053350612'
S'Haji Aman Khairi'
tp293
a(S'100000803484773'
p294
S'Said Anwarshah Quraishi'
tp295
a(S'100000332845305'
S'Ahmadullah Momand'
tp296
a(S'100008170002601'
S'Oli Muhammad'
tp297
a(S'100001704175563'
S'Basheer Hamkar'
tp298
a(S'1429055364'
S'Sahil Mangal'
tp299
a(S'1344488451'
S'Meena Abeer'
tp300
a(S'100002741469974'
S'Hashmatullah Arshad'
tp301
a(S'100001628427700'
S'Niamat Amin Totakhil'
tp302
a(S'100003528850597'
S'Abdul Wahid Sherzad'
tp303
a(S'100008110118577'
S'Zafar Wafa'
tp304
a(S'100002406684526'
S'Abdulqadir Stomana'
tp305
a(S'100002262754948'
S'Abdul Manan Masood'
tp306
a(S'100000154880817'
S'Mohammad Wahid Wahid'
tp307
a(S'100007343383903'
S'Nake Muhammad'
tp308
a(S'100003239131578'
S'Kommal Khan'
tp309
a(S'100005787750285'
S'Mohamad Sukri Hashim'
tp310
a(S'730822136'
S'Awais Syed'
tp311
a(S'100002604938123'
S'Mohammad Abid Wardak'
tp312
a(S'1312901157'
S'Hayatullah Ahmadzai'
tp313
a(S'100001627778517'
S'Naser Totakhail'
tp314
a(S'100001061264317'
S'Ajmal Hodman'
tp315
a(S'100005281454581'
S'Amin Sadik'
tp316
a(S'100000169220804'
S'Sultan Ahmadzai'
tp317
a(S'100001301449153'
S'Sonia Khan'
tp318
a(S'100000651755145'
S'Maihan Ahmadi'
tp319
a(S'100000985565418'
S'Abdul Azeem Raheemi'
tp320
a(S'1625060703'
S'SA FA'
tp321
a(S'100000565463427'
S'Nizamudin Wafa'
tp322
a(S'722788407'
S'Shiraz Khan'
tp323
a(S'100004027371755'
S'\\u069a\\u0627\\u06cc\\u0633\\u062a\\u0647 \\u062c\\u0627\\u0646 \\u0627\\u062d\\u062f\\u064a'
tp324
a(S'100003655989520'
p325
S'Abdul Hanan Haqwayoon'
tp326
a(S'579812461'
S'Abdulkarim Tutakhail'
tp327
a(S'1053110348'
S'Raz Sherzad Khan'
tp328
a(S'100008061276314'
S'\\ufea7\\ufe8e\\ufee7\\ufeaa\\ufef1 \\u0628\\u0647 \\u0646\\u0647'
tp329
a(S'570631561'
S'\\u0645\\u0633\\u0639\\u0648\\u062f \\u0627\\u062d\\u0645\\u062f \\u0641\\u0631\\u0632\\u0627\\u0646'
tp330
a(S'1343988690'
S'Alisina Sediqi'
tp331
a(S'100003868238532'
S'Lutfullah Paktiawal'
tp332
a(S'100002911592226'
S'Mohammadullah Totakhel'
tp333
a(S'100004782340914'
S'Habeeb Ur Rehman'
tp334
a(S'735570577'
S'Nasim Mohammad Pakhtoon'
tp335
a(S'100001885493486'
S'Ihsanullah Mahjoor'
tp336
a(S'1264293856'
S'Zundi Gul Zamani'
tp337
a(S'100001122822134'
S'Siti Hajar'
tp338
a(S'100000209660451'
S'Mirwais Ahmadzai'
tp339
a(S'1847528868'
S'Mohammad Islam'
tp340
a(S'100006267404278'
S'Sami Khan Islamyaar'
tp341
a(S'100002438190111'
S'\\u062f\\u0627\\u0631\\u0645\\u0626 \\u0633\\u0648\\u0627\\u062a'
tp342
a(S'100002417615951'
S'King Khan'
tp343
a(S'1069489279'
S'Said Sulaiman Ashna'
tp344
a(S'100003295694460'
S'Abdulraqib Zahid'
tp345
a(S'100008291738960'
S'Nasim Qrishe'
tp346
a(S'1240750247'
S'Abdul Malik'
tp347
a(S'100007985562015'
S'Moqeem Ghamsharek'
tp348
a(S'1561247500'
S'Shahpoor Amini'
tp349
a(S'100003191687828'
S'Rafiq Khan'
tp350
a(S'100003858491977'
S'Khalil Saleh'
tp351
a(S'100001093659048'
S'Hamza Khishkai'
tp352
a(S'1345942764'
S'Hamdullah Tokhi'
tp353
a(S'100000639956016'
S'Dost Mangal'
tp354
a(S'100005157853373'
S'Sardar Wali Baryal'
tp355
a(S'100008115002186'
S'Basmahmad Absin'
tp356
a(S'100003225400899'
S'Lal Moh Nawabzaii'
tp357
a(S'100002023248244'
p358
S'Abdul Satar Mirzakwal'
tp359
a(S'1594328059'
S'Masood Ahmady'
tp360
a(S'100000127026974'
S'Mujibrahman Hadawal'
tp361
a(S'100003976113370'
S'Samiullah Shinwari'
tp362
a(S'100005466094390'
S'Hazrat Khan'
tp363
a(S'100002360041147'
S'Drhadi Hammas'
tp364
a(S'100001255315664'
p365
S'Mohammad Haroon Mayar'
tp366
a(S'100004035440765'
S'Noor M Nasrat'
tp367
a(S'100003243355695'
S'Sami Amiri Kohdamani'
tp368
a(S'1835974936'
S'Laila Akozai'
tp369
a(S'100002656326271'
S'Abdullah Rodwal'
tp370
a(S'100001576819524'
S'Nasir Totakhil'
tp371
a(S'100005707984124'
S'Drnazir Sharafat'
tp372
a(S'1382374924'
S'Najlla Habibyar'
tp373
a(S'100006487541138'
S'Shahzad Din Totakhail'
tp374
a(S'100001213680049'
S'Nangylai Hamdard'
tp375
a(S'100000155568405'
p376
S'Noorkhan Mangal'
tp377
a(S'1281137179'
S'Mena Marhaaba'
tp378
a(S'100001858132308'
p379
S'Akhtar Mohammad Totakhail'
tp380
a(S'100002918186437'
S'Meena Wali'
tp381
a(S'100000727856591'
S'Wazirshah Sadid'
tp382
a(S'100001744849522'
S'Talib Jan'
tp383
a(S'100001295370755'
S'Jannat Gul Totakhail'
tp384
a(S'100002273563756'
p385
S'Juma Khan Hamdard'
tp386
a(S'100002444294651'
S'Arifullah Niyazi'
tp387
a(S'100004071230376'
S'Bashir Sahak'
tp388
a(S'100002969404344'
S'Walli Mohammad'
tp389
a(S'100003026334647'
S'Jahan Zaib Khan'
tp390
a(S'100000401425961'
S'Abdul Baqi Omari'
tp391
a(S'100000154814413'
S'Mirwais Alami'
tp392
a(S'100006131883042'
S'Asadullah Zemarwal'
tp393
asS'id'
p394
S'100000432478281'
p395
sS'name'
p396
S'Nawaz Malak'
p397
s.