(dp1
S'friends'
p2
(lp3
(S'100001625049731'
S'Sandeep Sharma'
tp4
a(S'100003297631812'
S'Vicky Lawaniya'
tp5
a(S'100004913288086'
S'Yash Singh'
tp6
a(S'100001186489657'
S'Akash Sharma'
tp7
a(S'100005226582630'
S'Rakesh Rajput'
tp8
a(S'100003439112143'
S'Poonam Deependra Singh'
tp9
a(S'100001128819905'
S'Ankit Gupta'
tp10
a(S'100003405737051'
S'Rama Rugs'
tp11
a(S'100002041481505'
S'Sanjay Singh'
tp12
a(S'1314549563'
S'Anoop Kumar'
tp13
a(S'100002341358054'
S'Ramesh Rathore'
tp14
a(S'1382839616'
S'Yogesh Kumar'
tp15
a(S'100004176338852'
S'Deepa Sharma'
tp16
a(S'100003852865634'
S'Trivendra Kumar'
tp17
a(S'100002550115153'
S'Sanjeev Chauhan'
tp18
a(S'100002289168987'
S'Pravesh Kumar'
tp19
a(S'100002497553273'
S'Vikram Rathore'
tp20
a(S'100003309002278'
S'Dinesh Upreti'
tp21
a(S'100000853788610'
S'Shashi Mishra'
tp22
a(S'100002970362103'
S'Samrat Raj Bhatia'
tp23
a(S'100003002245567'
S'Avantika Singh'
tp24
a(S'100002623933866'
S'Amit Yash'
tp25
a(S'100002637919934'
S'Dharmwati Rathore'
tp26
a(S'100001742830755'
S'Varsha Tyagi'
tp27
a(S'100002522142186'
S'Divya Singh'
tp28
a(S'100003569355564'
S'Ruchika P Negi'
tp29
a(S'1035145215'
S'Sandeep Wadhwa'
tp30
a(S'100003828666584'
S'Rajni Rajput'
tp31
a(S'1614052568'
S'Neelu G Khanal'
tp32
a(S'100002033149838'
S'Piyush Tomar'
tp33
a(S'100005383142649'
S'Anjana Singh'
tp34
a(S'100003177816703'
S'Deepshikha Pandey'
tp35
a(S'100004066265606'
S'Harbir Singh'
tp36
a(S'100000577850646'
S'Abhay Parashar'
tp37
a(S'100005858136570'
S'Aarti Jha'
tp38
a(S'1048464791'
S'Sanchit Singhal'
tp39
a(S'100002197886957'
S'Jassi Singh'
tp40
a(S'100002478365838'
S'Shaan Rock'
tp41
a(S'100000941256978'
S'Ravinder Kumar'
tp42
a(S'100003035280523'
S'Suraj Bhan'
tp43
a(S'100004803186598'
S'Rahul Smarty'
tp44
a(S'100001435940133'
S'Mayank Parashar'
tp45
a(S'100002396098439'
S'Shashi Panwar'
tp46
asS'id'
p47
S'100003911347889'
p48
sS'name'
p49
S'Meenakshi Rajput'
p50
s.