(dp1
S'friends'
p2
(lp3
(S'100004049625860'
S'Tingre Sarkar'
tp4
a(S'100004037948232'
S'Tingre Sarkar'
tp5
a(S'100002742867605'
S'Chetan R Chavan'
tp6
a(S'100008103904708'
S'Shubham Tapkir'
tp7
a(S'100005166241393'
S'Yunus Shaikh'
tp8
a(S'100005351888783'
S'Vinay Khese'
tp9
a(S'100001852596465'
S'Sanket Tingre'
tp10
a(S'100002027119262'
S'Pravin Kale'
tp11
a(S'100002290816947'
S'Nitin Kuchekar'
tp12
a(S'100003644836331'
S'Pralhad Tingre'
tp13
a(S'100002987995794'
S'Prem Savant'
tp14
a(S'100001925721888'
S'Sagar Tingre'
tp15
a(S'100003286834988'
S'Amit Mane'
tp16
a(S'100002979637118'
S'Amit Naidu'
tp17
a(S'100000065686719'
S'Manoj Mansukh Nawale'
tp18
a(S'100002616025648'
S'Prashant Khandve'
tp19
a(S'100001794412864'
S'Aditya Tingre Patil'
tp20
a(S'100006356944514'
S'Satish Mhaske'
tp21
a(S'100002117075404'
S'Ganesh Limgude'
tp22
a(S'100007144748108'
S'\\u0906\\u0915\\u093e\\u0936 \\u092d\\u093e\\u090a \\u0935\\u093e\\u0918\\u092e\\u093e\\u0930\\u0947'
tp23
a(S'100000253999800'
S'Amit Bhosale'
tp24
a(S'100000801188900'
S'Sahil Khan'
tp25
a(S'100002547248133'
S'Sheetal Tingre'
tp26
a(S'100001955402963'
S'Rohan Nikam'
tp27
a(S'100002951314114'
S'Aniket Mhaske'
tp28
a(S'1846970331'
S'Anirudha Khese'
tp29
a(S'100002652434822'
S'Sumit Khedkar'
tp30
a(S'100004458571713'
S'Tejas Bhau More Patil'
tp31
a(S'100003072426694'
S'Aditya Raje'
tp32
a(S'100001949731197'
S'Adinath Nimbalkar'
tp33
a(S'100006928382928'
S'Shrinath Galphade'
tp34
a(S'100002819314527'
S'Vishal Tingre'
tp35
a(S'100000505583265'
S'Somnath Waghmare'
tp36
a(S'100002552763435'
S'Shubham Dhamanikar'
tp37
a(S'100005130966475'
S'Jivan Pote'
tp38
a(S'100004504175878'
S'Manya Dev'
tp39
a(S'100002481090631'
S'Mayur Khandave Patil'
tp40
a(S'100002869263048'
S'Jayawant Karpe'
tp41
a(S'100001781865903'
S'Dhanashri Kusmade'
tp42
a(S'585179517'
S'Nandan Shirsat'
tp43
a(S'100002021378443'
S'Sunny Verma'
tp44
a(S'100007905940309'
S'Sachin Parande'
tp45
a(S'100004722396555'
S'Pushkar Auchare'
tp46
a(S'100003557485234'
S'Prakash Birajdar'
tp47
a(S'100007003060901'
S'Harshal Shelar'
tp48
a(S'100001059365416'
S'Ashpak Makandar'
tp49
a(S'100003898783607'
S'Kuldeep Tingre Patil'
tp50
a(S'100002340388522'
S'Sandeep Gawas'
tp51
a(S'100003775912216'
S'Ajay Jadhav'
tp52
a(S'100002651037523'
S'Prasad Jamdade'
tp53
a(S'100002390328996'
S'Bunty Khese'
tp54
a(S'1607131645'
S'Xavier Anthony'
tp55
a(S'100001894668868'
S'Vishal G Tingre'
tp56
a(S'100001832047152'
S'Sachin More'
tp57
a(S'100005122142706'
S'Serah Parker'
tp58
a(S'100003405425852'
S'Prashant Dhamdhere'
tp59
a(S'100002377779932'
S'\\u0927\\u0928\\u0902\\u091c\\u092f \\u091c\\u093e\\u0927\\u0935'
tp60
a(S'100006847150759'
S'Ashish Sawant'
tp61
a(S'100002978581684'
S'\\u0938\\u092e\\u093f\\u0930 \\u0938\\u0941\\u0926\\u093e\\u092e \\u0938\\u093e\\u0924\\u0935'
tp62
a(S'100000664091909'
S'Amol Birajdar'
tp63
a(S'100002847740447'
S'Aditya Patil'
tp64
a(S'100006386075725'
S'M\\u00e2\\u0177\\u00fbr Kh\\u00e2\\u00f1dv\\u00ea P\\u00e2t\\u00eel'
tp65
a(S'100001429116795'
S'Manish Ghule'
tp66
a(S'100002536874498'
S'Mayur Rajguru'
tp67
a(S'100004176521300'
S'S\\u00fajal Bhingardive'
tp68
a(S'100002340534667'
S'Ajit Dada Moze'
tp69
a(S'100006414275211'
S'Ashish Shinde'
tp70
a(S'100002002488262'
S'Pradip Kand'
tp71
a(S'100002351652898'
S'Prasad Tingre'
tp72
a(S'100001839403855'
S'Mayur Dhapte'
tp73
a(S'100005637482541'
S'Vikas Thakare'
tp74
a(S'100002844327863'
S'A-nil Chandane'
tp75
a(S'100002835223656'
S'Pankaj Devkar'
tp76
a(S'100002573805126'
S'Pappu Karkhele'
tp77
a(S'1337413552'
S'Aradhana Nair'
tp78
a(S'100000839631742'
S'Viv-ek Salve'
tp79
a(S'100006455063059'
S'Suraj Dhole'
tp80
a(S'100002482923811'
S'Bhagwan Pardeshi'
tp81
a(S'100001059798725'
S'Rohit Jadhav'
tp82
a(S'100008060226678'
S'Yogesh Tingre'
tp83
a(S'100003347273814'
S'Yogesh Tingre'
tp84
a(S'100002632588564'
S'Akshay Tingre'
tp85
a(S'100000155558833'
S'Chetan Darekar'
tp86
a(S'100008133998564'
S'Dattatray Tingre'
tp87
a(S'100007123327520'
S'Minash Patil'
tp88
a(S'100007871222493'
S'Pramod Potbhare'
tp89
a(S'100003397805337'
S'Navnath Pasange'
tp90
a(S'100002337535820'
S'Swapnil Tingre'
tp91
a(S'100006344287867'
S'Madhusudhan Magar'
tp92
a(S'100007853405426'
S'Somanath Giram'
tp93
a(S'100001293054161'
S'Prashant Ambre'
tp94
a(S'100003699760324'
S'Datta Jadhav'
tp95
a(S'100004201922616'
S'Amol Ingle'
tp96
a(S'100002303445780'
S'Akky Gondane'
tp97
a(S'100001494349319'
S'Rahul Tingre'
tp98
a(S'100001460029633'
S'Yogesh Tingre'
tp99
a(S'100002347656166'
S'Avinash Giri'
tp100
a(S'100003943782295'
S'Mayur Parande'
tp101
a(S'100003941377575'
S'Anushka Deshmukh'
tp102
a(S'100001413760118'
S'Gaurav Dhole'
tp103
a(S'100005973846752'
S'Shardul Kolhapure'
tp104
a(S'100008085300619'
S'Tushar Darekar'
tp105
a(S'100007757051971'
S'Ravi Ghawate'
tp106
a(S'100002034212719'
S'Akbar Tamboli'
tp107
a(S'100003347196967'
S'Ajay Kanaskar'
tp108
a(S'100002742099997'
S'Kiran Khedkar'
tp109
a(S'781536498'
S'Alok Shah'
tp110
a(S'100002911612221'
S'Ganesh Gavali'
tp111
a(S'100003208665175'
S'Exoticachocolates Pune'
tp112
a(S'100006935922044'
S'Harshvardhan Kusmade'
tp113
a(S'100006327337395'
S'Rahil Lutfi'
tp114
a(S'100003151168659'
S'Rukum Mujawar'
tp115
a(S'100004912507005'
S'Vicky Shinde'
tp116
a(S'100004325430996'
S'Vijay Andhale'
tp117
a(S'100006133650501'
S'Ashish Sabde'
tp118
a(S'1293321558'
S'Sukesh Padmanabhan'
tp119
a(S'100002643023922'
S'Sambha Parande'
tp120
a(S'100001504408810'
S'Dhananjay Tingre'
tp121
a(S'100002889748777'
S'Aditya Tingre'
tp122
a(S'100003300101759'
S'Sumit Walke Patil'
tp123
a(S'100002262124061'
S'Atul Sonavane'
tp124
a(S'100003069335177'
S'Dayanand Phadtare'
tp125
a(S'100000747093937'
S'Anand Mule'
tp126
a(S'100003015448947'
S'Vickram Barathe'
tp127
a(S'100004002773955'
S'Nishant Kharat'
tp128
a(S'100003266768403'
S'Sachin Khese'
tp129
a(S'100003179712663'
S'Suraj Parande'
tp130
a(S'100001200532311'
S'Ajit Thorat'
tp131
a(S'100002179970905'
S'Ajinkya Ratnakant Dhavan'
tp132
a(S'100001271827090'
S'Rahul Dhokte'
tp133
a(S'100007590278150'
S'Ganesh Solunke'
tp134
a(S'100002899370641'
S'Prashant Khandve'
tp135
a(S'100007919073345'
S'Nikka Masti'
tp136
a(S'100008029839303'
S'Sandeep Khunte'
tp137
a(S'100001940140088'
S'Datta Chavan'
tp138
a(S'100001457242517'
S'Nitin Tingre'
tp139
a(S'100003201267689'
S'Mayur Kakade-patil'
tp140
a(S'100007025315178'
S'Akash Shelar'
tp141
a(S'100001325383431'
S'Sameer Tingre'
tp142
a(S'100002425904531'
S'Kusum Malvi'
tp143
a(S'100003539173074'
S'Vishwatej Lande'
tp144
a(S'100008274875706'
S'Shreyas Nikam'
tp145
a(S'100003295391862'
S'Durgesh Thakur'
tp146
a(S'100001212056348'
S'Paddy Shinde'
tp147
a(S'100000174503742'
S'Suhas Tingre'
tp148
a(S'100001762681986'
S'Pradeep Nikam'
tp149
a(S'100001868752622'
S'Nitin More'
tp150
a(S'100003483134035'
S'Premache Gaav Luvgaav'
tp151
a(S'100006439445083'
S'Nikhil Pawar'
tp152
a(S'100002865355602'
S'Ramesh Patil'
tp153
a(S'100003332300481'
S'Suryakant Pawar'
tp154
a(S'100008219376705'
S'Prashant Parande'
tp155
a(S'100002652366653'
S'Mangesh Dhore'
tp156
a(S'100005340970846'
S'Amrik Singh'
tp157
a(S'100007607502232'
S'Sachin Chinchwade'
tp158
a(S'100003542587238'
S'Vishnu Agarwal'
tp159
a(S'100003881687326'
S'Aishwarya Tingre'
tp160
a(S'100002156227758'
S'Kuldeep Sharma'
tp161
a(S'100002798951456'
S'Vishnu Tapkir'
tp162
a(S'100007396003042'
S'Aniket Shinde'
tp163
a(S'100002556767337'
S'Dipanshu Mankari'
tp164
a(S'100002248991053'
S'Akshay Lokhande'
tp165
a(S'100004034006902'
S'Jitendra Shinde'
tp166
a(S'100002932831742'
S'Atul Sakhare'
tp167
a(S'677287987'
S'Sachin Kachare Patil'
tp168
a(S'100003978865520'
S'Ram Dhapte'
tp169
a(S'100004968454087'
S'Mukesh Gogale'
tp170
a(S'100002104373279'
S'Vinit Deshpande'
tp171
a(S'100003684829203'
S'Rakesh Tingre Patil'
tp172
a(S'100002721346002'
S'Kalidas Shinde'
tp173
a(S'100006535592945'
S'Vishal Bhau Gaikwad'
tp174
a(S'100002522096696'
S'Gorakh Surve'
tp175
a(S'100005605303273'
S'Rakesh Tingre'
tp176
a(S'100001505298635'
S'Akki Ambre'
tp177
a(S'100002686800114'
S'Sandeep Kanade'
tp178
a(S'100006161320172'
S'Mahesh Tingre'
tp179
a(S'100002388589304'
S'Rohit Daundkar'
tp180
a(S'100002637416075'
S'Suresh Chaudhary'
tp181
a(S'100003202213276'
S'\\u0936\\u093f\\u0953\\u0935\\u092a\\u094d\\u0930\\u0947\\u092e\\u0940 \\u0917\\u094d\\u0930\\u0941\\u092a \\u0932\\u094b\\u0939\\u0917\\u093e\\u0935 \\u092a\\u0941\\u0923\\u0947'
tp182
a(S'100003144418506'
S'Rohit Sable'
tp183
a(S'100003658932215'
S'Pratik Kadam'
tp184
a(S'100003594111525'
S'Suchitra Tingre'
tp185
a(S'100007120631128'
S'Krishna Vishwakarma'
tp186
a(S'100001627113212'
S'Abhinav Dhapte'
tp187
a(S'100005092201278'
S'Asha Ahire'
tp188
a(S'100001719997712'
S'Sonu Satav'
tp189
a(S'100006343386645'
S'Swapnil Birajdar'
tp190
a(S'100003493512887'
S'Sharad Bhide'
tp191
a(S'100004608337504'
S'Navnath Tingre'
tp192
a(S'100001604440147'
S'Mangesh Patange'
tp193
a(S'100000762759045'
S'Pratik Mhaske'
tp194
a(S'100004010840840'
S'Rohan Satkar'
tp195
a(S'100004025240077'
S'Venktesh Tingre'
tp196
a(S'100002216420362'
S'Dhananjay Jadhav'
tp197
a(S'548222424'
S'Shekhar Patil'
tp198
a(S'100008249280658'
S'Viraj Sachin Tingre'
tp199
a(S'100002318437041'
S'Amol Dapke'
tp200
a(S'100005858736862'
S'Shubham Nigade'
tp201
a(S'100002365762282'
S'Suraj Khot'
tp202
a(S'544388014'
S'Dinesh Patil'
tp203
a(S'100002432383372'
S'Deepali Cheulkar'
tp204
a(S'100008337065635'
S'Adrash Mitra Mandal Kalas'
tp205
a(S'100001230584062'
S'Atul Tingre'
tp206
a(S'100007423591508'
S'Raju Adhav'
tp207
a(S'100000486788264'
S'Santosh Surve'
tp208
a(S'100001589100272'
S'Amar Kulkarni'
tp209
a(S'100002980913255'
S'Amit Kanaskar'
tp210
a(S'100002340928666'
S'Mayur G Tingre'
tp211
a(S'100005802433014'
S'Sachin Khandve'
tp212
a(S'100006063609611'
S'Sudhir Khese'
tp213
a(S'100005044388924'
S'Niteen Wani'
tp214
a(S'100006575107338'
S'Dadarao Bobade'
tp215
a(S'100002735550683'
S'Satish Gaikwad'
tp216
a(S'100001583483287'
S'Aditya Kanchan'
tp217
a(S'100004002710567'
S'Tushar Parande'
tp218
a(S'1563582376'
S'Dileep Kurhade'
tp219
a(S'100006858031037'
S'Tejas Tingre'
tp220
a(S'100004109440588'
S'Shashikant Chavan'
tp221
a(S'100003690549815'
S'Asim Attar'
tp222
a(S'100003042994317'
S'Swapnil Khandve'
tp223
a(S'100003583207229'
S'Vinayak Sakore'
tp224
a(S'100003780315174'
S'Rakesh Sawant'
tp225
a(S'587444566'
S'Shri Kant'
tp226
a(S'100002609877308'
S'Nitin Kakade'
tp227
a(S'100007255861541'
S'Shankar Alhat'
tp228
a(S'100003212146572'
S'Pranita Tingre Bahirat'
tp229
a(S'100004263072352'
S'Sunil Tingre'
tp230
a(S'100000818483510'
S'Rohan Jadhav'
tp231
a(S'100002873455426'
S'Janhvi Raskar'
tp232
a(S'100003701201762'
S'Shivanjali Kusmade'
tp233
a(S'100004640136932'
S'Pratik Tingre'
tp234
a(S'100003731337834'
S'Prashant Kanaskar'
tp235
a(S'100003546664998'
S'Akshay Tingre'
tp236
a(S'100003303005755'
S'Prathamesh Purandare'
tp237
a(S'100006947143773'
S'Pooja Biradar'
tp238
a(S'100003044498814'
S'Ankur Milind Wavre'
tp239
a(S'100002543678605'
S'Hitesh Nirmal'
tp240
a(S'712545191'
S'Vishal Gulabrao Tingre Patil'
tp241
a(S'100005678536326'
S'Bharat Tingre'
tp242
a(S'100003742230784'
S'Divesh Sakpal'
tp243
a(S'100002598183350'
S'Aki Chinchane'
tp244
a(S'100006462599309'
S'Pramod More'
tp245
a(S'100002704623893'
S'Nilesh Shitole'
tp246
a(S'100005198534305'
S'Arvind Kanaskar'
tp247
a(S'100001433299921'
S'Umesh Khandve'
tp248
a(S'100003071434266'
S'Ravindra Satkar'
tp249
a(S'100003611075200'
S'Swapnil Tingre'
tp250
a(S'100002327961088'
S'Pravin Dodake'
tp251
a(S'100002384488496'
S'Mohan Tingre'
tp252
a(S'100001634500350'
S'Suraj Londhe'
tp253
a(S'100003065265511'
S'Mayur Parande'
tp254
a(S'100007219715227'
S'Bhagyashri Phadtare'
tp255
a(S'100000496127432'
S'Rishikesh Vijay Dalvi'
tp256
a(S'100003161154282'
S'Anant Tingre'
tp257
a(S'100001812296765'
S'Mahesh Parande'
tp258
a(S'100001107746866'
S'Avinash Nikam'
tp259
a(S'100001195325734'
S'Ketan Tingre Patil'
tp260
a(S'100004423414957'
S'Kiran Dada Chavan'
tp261
a(S'100003166698779'
S'Deepak Soni'
tp262
a(S'100002475141655'
S'Nivas Pawar'
tp263
a(S'100002306265773'
S'Tushar Choudhari'
tp264
a(S'100003544282566'
S'Romel Domnick'
tp265
a(S'100001332463298'
S'Sandeep Undre'
tp266
a(S'100004573931019'
S'Ganesh Sathe'
tp267
a(S'100005601871292'
S'Yash Agarwal'
tp268
a(S'100001513466987'
S'Abhijit Tingre'
tp269
a(S'100006789700879'
S'Ajay Suryawanshi'
tp270
a(S'100001895512552'
S'Kaustubh Mungale'
tp271
a(S'100003910176718'
S'Omkar Tingre'
tp272
a(S'100002589855057'
S'Vikram Singh Sona'
tp273
a(S'100004016022965'
S'Khanderao Dhormare'
tp274
a(S'100003276298108'
S'Avinash Molak'
tp275
a(S'100003199072987'
S'Chandresh Chaudhary'
tp276
a(S'100001688588849'
S'Sunil Umap'
tp277
a(S'100003534834823'
S'Ganesh Sutradhar'
tp278
a(S'100008387461439'
S'Vishal Nikalje'
tp279
a(S'100003675050357'
S'Kushal Walhekar'
tp280
a(S'100003952687123'
S'\\u00d0j Sujan'
tp281
a(S'100003707433106'
S'Dinesh Rathod'
tp282
a(S'100007890692686'
S'Minesh Patil'
tp283
a(S'100007129034364'
S'Omkar Sable'
tp284
a(S'1335278709'
S'Shree V Reddy'
tp285
a(S'100000895864415'
S'Pradeep Nair'
tp286
a(S'100003332461728'
S'AbHi KaNojiya'
tp287
a(S'100007890847421'
S'Chetan Sambhaji Temgire'
tp288
a(S'548629609'
S'Ravinder Gulati'
tp289
a(S'100007718730031'
S'Naseem Shah'
tp290
a(S'100003626712612'
S'Saigroup Pune'
tp291
a(S'100002274027645'
S'Rahul Alhat'
tp292
a(S'100003773637580'
S'Akshay Admane'
tp293
a(S'100003564354115'
S'Akshay Gaikwad'
tp294
a(S'100001396260747'
S'Rohan Malwadkar'
tp295
a(S'100002884012933'
S'Santosh Khandve'
tp296
a(S'100008221996698'
S'Suraj Jadhav'
tp297
a(S'100003287144049'
S'Pratik Kate'
tp298
a(S'100001829689658'
S'U-mesh Tingre Patil'
tp299
a(S'100001961073398'
S'Sudhir Dhankude'
tp300
a(S'100002801182165'
S'Chandan Bakre'
tp301
a(S'100006491148081'
S'Kalidas Tingre'
tp302
a(S'100006107737998'
S'Deepak Garud'
tp303
a(S'100003582570167'
S'Volvin Basmi'
tp304
a(S'100004464424053'
S'Kiran Anasane'
tp305
a(S'100001210810988'
S'\\u0906\\u0926\\u093f\\u0924\\u094d\\u092f\\u093e\\u092d\\u093e\\u090a \\u0927\\u0947\\u0902\\u0921\\u0947'
tp306
a(S'100002515698040'
S'Sandeep Tingre'
tp307
a(S'100000876234136'
S'Sagar Dada Mhaske'
tp308
a(S'100003293884920'
S'Pravin Chavan'
tp309
a(S'100002518669146'
S'Harshal Khilare'
tp310
a(S'100008250670856'
S'Ramesh Pharate'
tp311
a(S'100005085373756'
S'Sunny Lande II'
tp312
a(S'100007123980290'
S'Kaluram Tingre'
tp313
a(S'100003488203187'
S'Rohit Rohidas Chikhale'
tp314
a(S'100002799984310'
S'Vishwas Khurangule'
tp315
a(S'100001259752073'
S'Sudhir Waghmode'
tp316
a(S'100003375668438'
S'Kiran Sathe'
tp317
a(S'100000273429726'
S'Hemant Patil'
tp318
a(S'100003521121666'
S'Shubham Dhongde'
tp319
a(S'100000569941376'
S'Steve Sal'
tp320
a(S'100003462490987'
S'Shubham More'
tp321
a(S'100005238308652'
S'Omkar Gawade Patil'
tp322
a(S'100004078912101'
S'Amol Nanaware'
tp323
a(S'100002629516733'
S'Mahesh Mathwad'
tp324
a(S'100002474090889'
S'Subhash Khese'
tp325
a(S'100003906632374'
S'Mahesh Tingre'
tp326
a(S'100001423756480'
S'Yogesh Jadhav'
tp327
a(S'100003054829381'
S'Gorakh Anna Chakor'
tp328
a(S'100003050448836'
S'Sunny Parande SP'
tp329
a(S'100003296481456'
S'Vinod Landge'
tp330
a(S'100002872071096'
S'Sudeep Khandve Patil'
tp331
a(S'100001676966377'
S'Rajesh Bhalerao'
tp332
a(S'100003081653170'
S'Umesh Tingre'
tp333
a(S'100003979383906'
S"Shubh's Shinde Patil"
tp334
a(S'100001861504822'
S'Jitendra Pawar'
tp335
a(S'100003263448245'
S'Nikhildada Tingre'
tp336
a(S'100006885847079'
S'Narayan Shinde'
tp337
a(S'100003877518353'
S'Ashok Tingre'
tp338
a(S'100002139736917'
S'Abhijeet Mane'
tp339
a(S'100002980150293'
S'Nitin Tingre Sarkar'
tp340
a(S'100002413475997'
S'Nilesh Shinde'
tp341
a(S'100000355429603'
S'Vijay Chalwadi'
tp342
a(S'100001788754397'
S'Suraj Jadhav'
tp343
a(S'100005968411221'
S'Madhukar Phalke'
tp344
a(S'100002906539598'
S'\\u0915\\u093f\\u0930\\u0923 \\u0926\\u0924\\u094d\\u0924\\u093e \\u0938\\u093e\\u092c\\u0933\\u0947'
tp345
a(S'100001209017040'
S'Rakesh Mhaske'
tp346
a(S'100001313464206'
S'Nikhil Ambre'
tp347
a(S'100001269404374'
S'Yogiraj Choudhary'
tp348
a(S'100006352534357'
S'Sarkar Raj'
tp349
a(S'100005548064613'
S'Vaishnavi Kusmade'
tp350
a(S'100004065858477'
S'Rohan Dhumal'
tp351
a(S'100003132720556'
S'Tushar Ghule'
tp352
a(S'100007049859058'
S'Somnath Tingre'
tp353
a(S'100000529722063'
S'Mahendra Jagdale'
tp354
a(S'100005620181411'
S'Ganesh Tarde'
tp355
a(S'100003656579129'
S'Sadanand Kale'
tp356
a(S'100002259183096'
S'Akshay Walke Patil'
tp357
a(S'100004669333924'
S'Shubham Mohite'
tp358
a(S'100001422335299'
S'Sagar Bhalerao'
tp359
a(S'100007837960648'
S'Somnath K Tingre'
tp360
a(S'100004362040307'
S'Mahesh Tingre'
tp361
a(S'100003978383335'
S'Mahesh Tingre'
tp362
a(S'100003154841808'
S'R-ohan Parande'
tp363
a(S'740512283'
S'Anoop Mittal'
tp364
a(S'100007288124246'
S'Bobby Parande'
tp365
a(S'100005921537951'
S'\\u0936\\u093f\\u0935\\u092d\\u0915\\u094d\\u0924 \\u0905\\u0928\\u093f\\u0932 \\u091a\\u093e\\u0902\\u0926\\u0923\\u0947'
tp366
a(S'100006457722644'
S'Vikas Gaikwad'
tp367
a(S'100007441894577'
S'Nikhil Aitwad'
tp368
a(S'100001005048409'
S'Omkar Vichare'
tp369
a(S'100003901742680'
S'Prince Suraj R'
tp370
a(S'100000814161733'
S'Shanti Swaroopnatram'
tp371
a(S'100005306444581'
S'Purabji Suresh'
tp372
a(S'100006551463002'
S'Pratik Kadale'
tp373
a(S'100001179093279'
S'Girish Nair'
tp374
a(S'100003053811865'
S'Prashant Bhosale'
tp375
a(S'100003534275762'
S'Mahesh Sargar'
tp376
a(S'100006349802082'
S'Rohit Mhaske'
tp377
a(S'100003375135400'
S'Danyaneswhar Kumbhar'
tp378
a(S'100007495951072'
S'Vaishali Nikam'
tp379
a(S'100002766228531'
S'Sanket Shelar'
tp380
a(S'100002803057803'
S'Ganesh Shitkal'
tp381
a(S'100001627790121'
S'Atul Tingre'
tp382
a(S'100003144617501'
S'Akash Gaikwad'
tp383
a(S'100002038787183'
S'Vishal Tingre'
tp384
a(S'100002477504447'
S'Tinu Choudhary'
tp385
a(S'100003360108112'
S'Kavitatai Nitinseth Tingre'
tp386
a(S'100004236492734'
S'Prashant Mohite'
tp387
a(S'100003617984582'
S'Ajit Patil'
tp388
a(S'100002054022234'
S'Padmabodhi Wasnik'
tp389
a(S'100007366087704'
S'Amey Naik'
tp390
a(S'100002579270495'
S'Omy Ingresso'
tp391
a(S'100002182297524'
S'Dikshant Naiknavre'
tp392
a(S'100002097501955'
S'Aviraj Sangade'
tp393
a(S'100002132038742'
S'Neelam Sawant'
tp394
a(S'100003098828732'
S'Rizwan Baig'
tp395
a(S'100004107141285'
S'Chandan Chavan'
tp396
a(S'100002230084286'
S'Babulal Magar'
tp397
a(S'100004577945646'
S'Sandip Jadhav'
tp398
a(S'100002400223253'
S'Rupesh Dolas'
tp399
a(S'100002333942645'
S'Shivraj Landge'
tp400
a(S'100002615314499'
S'Rahul Mhaske'
tp401
a(S'100005558955344'
S'Raj Tingare'
tp402
a(S'100002026253966'
S'Aniket Surve'
tp403
a(S'1217832068'
S'Harshal Gulabrao Tingre'
tp404
a(S'100003149559685'
S'Bunti Mhaske'
tp405
a(S'100005702112048'
S'Pramod Singh'
tp406
a(S'100007009476586'
S'Vishal Gavde'
tp407
a(S'100002896060765'
S'Ranjit Tingre'
tp408
a(S'100005821123105'
S'Hanumant Kute'
tp409
a(S'100000011224438'
S'Ajay Tingre'
tp410
a(S'100001954850199'
S'Viraj Landge'
tp411
a(S'100004043461316'
S'Sachin Tarde'
tp412
a(S'100002257629707'
S'Rakesh Mathwad'
tp413
a(S'100003563728374'
S'Shashikant Chavan'
tp414
a(S'100002296871074'
S'Sunny Tingre'
tp415
a(S'100004284660908'
S'Jeevan Nanavare'
tp416
a(S'100003671460902'
S'Durgesh Kadere'
tp417
a(S'100003347432645'
S'Yogesh Gaikwad'
tp418
a(S'100008013424559'
S'Rutvij Nalawade'
tp419
a(S'100001427990883'
S'Ajay Kadam'
tp420
a(S'100001836520458'
S'Yashraj Yadav'
tp421
a(S'100002527408652'
S'Sohan Chaudhary'
tp422
a(S'100001549377458'
S'Swapnil Tingre Patil'
tp423
a(S'100003233112599'
S'D J Deepak Pune'
tp424
a(S'100004023664538'
S'Akash Barate'
tp425
a(S'100006547717650'
S'Ajay Kumar Ajay'
tp426
a(S'100002782666244'
S'Nitin Chavan'
tp427
a(S'100002970137188'
S'Chandrakant Barathe'
tp428
a(S'100000748993288'
S'Ashish Lande'
tp429
a(S'100003212316347'
S'Sachin Tingre'
tp430
a(S'100002340888909'
S'Kishor Mathwad'
tp431
a(S'100006103203621'
S'Vikram Nikam'
tp432
a(S'100001926281500'
S'Pooja Kusmade'
tp433
a(S'100002457591323'
S'Sachin Tingre'
tp434
a(S'100008272230994'
S'Shailesh Deokar'
tp435
a(S'100003598843861'
S'Ebrahim Shaikh'
tp436
a(S'100004082922840'
S'Abhishek Limkar'
tp437
a(S'100002249821864'
S'Yash Satkar'
tp438
a(S'100005823721670'
S'Tingre Pralhad'
tp439
a(S'100004218280572'
S'Nilesh Gaikwad'
tp440
a(S'100005956574170'
S'Saurabh Tingre'
tp441
a(S'100001496704728'
S'Akshay Dalvi'
tp442
a(S'100002623601102'
S'Hrishibaba Tingre'
tp443
a(S'100002464425951'
S'Sandeep Deokar'
tp444
a(S'100001606897667'
S'Viraj Kusmade'
tp445
a(S'100005709517729'
S'Omkar Punekar'
tp446
a(S'100002315592092'
S'Prashant Landge'
tp447
a(S'100007573274060'
S'Shahaji Jadhav'
tp448
a(S'100008187092671'
S'Prabhakar Kumar'
tp449
a(S'100007249056624'
S'Shrikant Bedkutepatil'
tp450
a(S'100002377002053'
S'Mayur Padale'
tp451
a(S'100000830335942'
S'Dhanraj Jawale'
tp452
a(S'100000750231116'
S'Sandeep Mhaske'
tp453
a(S'100003049466851'
S'Gajanan Magar'
tp454
a(S'100008250904443'
S'Krishna Vishwakarma'
tp455
a(S'100004441025701'
S'Vaibhav Satpute'
tp456
a(S'100003078306836'
S'Kishor Khilari'
tp457
a(S'100000751222117'
S'Santosh Padwal'
tp458
a(S'100007774628398'
S'Shekhar Pavale'
tp459
a(S'100001356806890'
S'Shreyas Khandve'
tp460
a(S'100002811230045'
S'Dattabhau Farate'
tp461
a(S'100004120686476'
S'\\u0905\\u0937\\u094d\\u091f\\u0935\\u093f\\u0928\\u093e\\u092f\\u0915 \\u092e\\u093f\\u0924\\u094d\\u0930 \\u092e\\u0902\\u0921\\u0933'
tp462
a(S'100003097073272'
S'Nitin Tingre'
tp463
a(S'100002585331387'
S'Kiran Kathvate'
tp464
a(S'100002099114886'
S'Mayur Lande'
tp465
a(S'100007293874571'
S'Shubham Dada Murkute'
tp466
a(S'100000108801299'
S'Gaurav Khedekar'
tp467
a(S'100002946118767'
S'Abhishek Tingre'
tp468
a(S'100001559499259'
S'Varad Kambli'
tp469
a(S'100002972312300'
S'Deepak Khette'
tp470
a(S'100004738865129'
S'Harshal Waghmare'
tp471
a(S'100002994869239'
S'Pearl Latwals'
tp472
a(S'730965027'
S'Suryakant Zarekar'
tp473
a(S'100002514957926'
S'Deepak Pardeshi'
tp474
a(S'100004861830044'
S'Ajay Surywanshi'
tp475
a(S'100003886411060'
S'Rameshwar Rathod'
tp476
a(S'100001379552656'
S'Amit Mhaske'
tp477
a(S'100002452890875'
S'Mandar Joshi'
tp478
a(S'100002036622754'
S'Rohan Mhaske'
tp479
a(S'100000195470711'
S'Chaitanya Kusmade'
tp480
a(S'100007193258483'
S'Minesh Patil'
tp481
a(S'100000252152463'
S'Ratnadeep Ranpise'
tp482
a(S'100003710986019'
S'Lalit Patel'
tp483
a(S'100005808121786'
S'Pralhad Tingre'
tp484
a(S'100002426785513'
S'Nilesh Bodhe'
tp485
a(S'100006831401595'
S'Rohit Pawar'
tp486
a(S'100001969034970'
S'Pradip Pappu Tingre'
tp487
a(S'100005114619076'
S'Rutwik Bahirat'
tp488
a(S'100005854657858'
S'Ajay Bhandare'
tp489
a(S'100000102754763'
S'Samit Borhade'
tp490
a(S'100007675295858'
S'Ketan Nikam'
tp491
a(S'100007545461266'
S'\\u092c\\u093e\\u0933\\u093e \\u0915\\u093e\\u0932\\u0947\\u0915\\u0930'
tp492
a(S'100005681141831'
S'Mayur Khandve'
tp493
a(S'100002521940488'
S'Uttekar Vishal'
tp494
a(S'100003090313555'
S'Chintamani Kadam'
tp495
a(S'100002544837457'
S'Avinash Nandanwar'
tp496
a(S'100002594610963'
S'Aishwarya Bhonde'
tp497
a(S'100003174042170'
S'Akshay Sawant'
tp498
a(S'100001998342106'
S'Nitesh Astik Tingre'
tp499
a(S'100006805785485'
S'Shantaram Khandve'
tp500
a(S'100002326191949'
S'Vaibhav Palshikar'
tp501
a(S'100002419337841'
S'Aditya Zaware'
tp502
a(S'100004032469442'
S'Swapnil Gaikwad'
tp503
a(S'100002222513248'
S'Sandipbhau Tingre'
tp504
a(S'100002431140940'
S'Ankush Tapkir'
tp505
a(S'100007087414731'
S'Shesh Kulkarni'
tp506
a(S'100002623615623'
S'Yograj Kadam'
tp507
a(S'100006522497278'
S'Suraj Srivastav'
tp508
a(S'100002760610949'
S'Satyajeet Bankar'
tp509
a(S'100007120741146'
S'Akshay Kadam'
tp510
a(S'100008126311196'
S'Mauli Arude'
tp511
a(S'894665367'
S'Sujit Mhaske'
tp512
a(S'100001337152747'
S'Babu Choudhary'
tp513
a(S'100004706762976'
S'Harpreet Sing'
tp514
a(S'100001929040036'
S'Mahesh A Tapkir'
tp515
a(S'100002391680072'
S'Chetan Deokar'
tp516
a(S'100002664460979'
S'Kumar Dhavane'
tp517
a(S'100003222843637'
S'P\\u0159\\u00edt\\u00e5m B\\u00e5n\\u00eb\\u0159j\\u00eb\\u00eb'
tp518
a(S'100002631840784'
S'Jaanvi Joshi'
tp519
a(S'100000818878792'
S'Amit Lande'
tp520
a(S'100008394156988'
S'Ganesh Jamadar'
tp521
a(S'100008019733411'
S'Dilip Sakpal'
tp522
a(S'100003074148056'
S'Pravin Durekar'
tp523
a(S'100002096770761'
S'Michael Pradhan'
tp524
a(S'100000203396432'
S'Swapneel Tingre'
tp525
a(S'100002492701564'
S'Pranav Chandere'
tp526
a(S'100001558528743'
S'Laxman Alure'
tp527
a(S'100002874371009'
S'Pavan Tingre'
tp528
a(S'100003276058588'
S'Karan Wanjale'
tp529
a(S'100002276475305'
S'Amol Shinde'
tp530
a(S'100000163238620'
S'Avanti Yewale Pawar'
tp531
a(S'100002555274745'
S'Akash Thombre'
tp532
a(S'100003673770383'
S'Sagar Dada Mhaske'
tp533
a(S'100002547563682'
S'Akshay Shete'
tp534
a(S'100002465379986'
S'Satish Dhapte'
tp535
a(S'100003480875874'
S'Atish Khandagale'
tp536
a(S'100003399900041'
S'Pravin Kale'
tp537
a(S'100002699359045'
S'Akshay Pawar'
tp538
a(S'100005735503457'
S'Ajinkya Tingre'
tp539
a(S'100004073226343'
S'Chandrakant Khandave'
tp540
a(S'100008323458916'
S'\\u092e\\u0939\\u093e\\u0930\\u093e\\u0923\\u093e \\u092e\\u093f\\u0924\\u094d\\u0930 \\u092e\\u0902\\u0921\\u0933'
tp541
a(S'100007903868344'
S'Ganesh Kumbhar'
tp542
a(S'100008306822756'
S'Ganesh Ganesh'
tp543
a(S'546838291'
S'Mahek Tanna'
tp544
a(S'100001387138283'
S'Akshay Kusmade'
tp545
a(S'100007066840484'
S'Dilip Sakpal'
tp546
a(S'100007859102511'
S'Vivek Tingre'
tp547
a(S'100002429431457'
S'Pradeep Tapkir'
tp548
a(S'100006471681082'
S'Atul Khedkar'
tp549
a(S'100006237004058'
S'Vikram Bhalerao'
tp550
a(S'100004699023250'
S'Pratap Tingre'
tp551
a(S'100003833103124'
S'Saurabh Satav'
tp552
a(S'100003200047046'
S'Shubham Parande'
tp553
a(S'100001561552820'
S'Ravindra Pathare'
tp554
a(S'100001652658790'
S'Pankaj Nikalje'
tp555
a(S'100005163390400'
S'Adarsh Mittra Mandal Kalas'
tp556
a(S'100004896540059'
S'Suraj Khandve'
tp557
a(S'100006295513410'
S'Pratik Kusmade'
tp558
a(S'100001429503148'
S'Vitthal Kanade'
tp559
a(S'100002439579729'
S'Sandip Dahifale'
tp560
a(S'100002868296781'
S'Santosh Khandave'
tp561
a(S'100007351565626'
S'Amit Tingre'
tp562
a(S'100001529952767'
S'AdarshNagar Mitra Mandal'
tp563
a(S'100000143715622'
S'Nitin Walke'
tp564
a(S'100002586320377'
S'Swapnil Kalbhor'
tp565
a(S'100007279331892'
S'Aditya Kanchan'
tp566
a(S'100002226548283'
S'Shrishail Billur'
tp567
a(S'100003491440248'
S'Shubham Gade'
tp568
a(S'100003639456934'
S'Sanjay Salve'
tp569
a(S'100001705524012'
S'\\u0905\\u0935\\u093f\\u0928\\u093e\\u0936\\u0926\\u093e\\u0926\\u093e \\u0938\\u0941\\u0930\\u094d\\u092f\\u0935\\u0902\\u0936\\u0940 \\u092a\\u093e\\u091f\\u0940\\u0932'
tp570
a(S'1580990565'
S'Sagar Ramesh Dhapte'
tp571
a(S'100001851147153'
S'Deep Khandve'
tp572
a(S'100002871793425'
S'Pradeep Rawate'
tp573
a(S'100002249574458'
S'Vaishali Moze'
tp574
a(S'100008183282651'
S'Dada King'
tp575
a(S'100001411991567'
S'Rajesh Adsul'
tp576
a(S'100004577492451'
S'Lawrence Makasare'
tp577
a(S'100003222811463'
S'\\u0936\\u0941\\u092d\\u092e \\u092d\\u093e\\u090a \\u0926\\u0947\\u0936\\u092a\\u093e\\u0902\\u0921\\u0947'
tp578
a(S'100002824399205'
S'Santosh Thorat'
tp579
a(S'100003529534644'
S'Sudhakar Ingale'
tp580
a(S'100000574835058'
S'Sagar Satav'
tp581
a(S'100004804652011'
S'Kshitij Parkhe'
tp582
a(S'100002825543839'
S'Divanshu Bhatia'
tp583
a(S'100005854534940'
S'Tushar Tukaram Taras'
tp584
a(S'100007288353559'
S'Sanket Gawali Maratha New'
tp585
a(S'100004954924127'
S'Vinod Tingre'
tp586
a(S'100006758798365'
S'Omkar Tingre'
tp587
a(S'100006518959161'
S'Vikas Rasal'
tp588
a(S'1298936863'
S'Anish Nair'
tp589
a(S'100002125117242'
S'K\\u00e2p\\u00eel P\\u00eengl\\u00ea'
tp590
a(S'100001566008023'
S'Suraj Saste'
tp591
a(S'100002589938425'
S'Sagar Tingare'
tp592
a(S'100003250208849'
S'Sandeep Chavan'
tp593
a(S'100002551869095'
S'Rupesh Tingre'
tp594
a(S'100006122353641'
S'Shubham Dangat'
tp595
a(S'100002959250940'
S'\\u0928\\u0917\\u0930\\u0938\\u0947\\u0935\\u0915 \\u0938\\u0924\\u0940\\u0936\\u092d\\u093e\\u090a \\u092e\\u094d\\u0939\\u0938\\u094d\\u0915\\u0947'
tp596
a(S'1808074570'
S'Sachin Shetty'
tp597
a(S'100001028047584'
S'Sandeep Gunjal'
tp598
a(S'100005451938816'
S'Akshay Patil'
tp599
a(S'100000140580019'
S'Kiran Barate'
tp600
a(S'100004066593229'
S'Sandeep Daulat Kamthe'
tp601
a(S'100004081178809'
S'Atish Patil'
tp602
a(S'100004457464409'
S'Ratnakant Dhavan'
tp603
a(S'100001438067703'
S'Abhishek Dhapte'
tp604
a(S'100003259894972'
S'Mohan Sakore'
tp605
a(S'100004115550654'
S'Sunillonde Londe'
tp606
a(S'100007873533954'
S'Azzad Deshmukh'
tp607
a(S'653436611'
S'Rahul Kadam'
tp608
a(S'100002473989099'
S'Prakash Giri'
tp609
a(S'100002581544420'
S'Kaushal Tingre'
tp610
a(S'100003320033928'
S'Vijaymangal Cricketclub'
tp611
a(S'100000607087342'
S'Pritam Lande'
tp612
a(S'100005679600421'
S'Akash Andhare Patil'
tp613
a(S'100006476870724'
S'Lucky Passi'
tp614
a(S'716096140'
S'Biswajit Paul'
tp615
a(S'100008106485927'
S'Vikas Nimbalkar'
tp616
a(S'100002887648990'
S'Atul Dalvi'
tp617
a(S'100001569243312'
S'Rushikesh Kharade'
tp618
a(S'100000160646410'
S'Sagar Dhamankar'
tp619
a(S'100008125081327'
S'Pandey Raj C Pandey'
tp620
a(S'100002113643186'
S'Mukul Singh'
tp621
a(S'100006495072439'
S'Rajmudra Pratisthan'
tp622
a(S'100002797872091'
S'Tejas Tingre'
tp623
a(S'1197707199'
S'Vinod Nair'
tp624
a(S'100001807345632'
S'Sagar Nikalje'
tp625
a(S'100004897473517'
S'Uday Choudhary'
tp626
a(S'100002695265126'
S'Shubham Pawar Patil'
tp627
a(S'100003507240146'
S'Prashant Shirke'
tp628
a(S'100001383861668'
S'Lo Ve'
tp629
a(S'100004463142155'
S'Piyush Kasbekar'
tp630
a(S'100002405320887'
S'Suny Dhapte'
tp631
a(S'100007630543225'
S'Amol Tingre'
tp632
a(S'100004294294992'
S'Yash Agarwal'
tp633
a(S'100007983241166'
S'Amit Giri'
tp634
a(S'100002432550003'
S'Swapnil Kotwal'
tp635
a(S'100004259170010'
S'Vaishnavi Kusmade'
tp636
a(S'100000896190021'
S'Gajanan Limgude'
tp637
a(S'100006239496722'
S'\\u0906\\u092e\\u091a\\u0940 \\u0935\\u093f\\u0936\\u094d\\u0930\\u093e\\u0902\\u0924\\u0935\\u093e\\u0921\\u0940'
tp638
a(S'100004743044312'
S'Sushant Ghodke'
tp639
a(S'100007149636177'
S'Mayur Waghmare'
tp640
a(S'100003586840865'
S'Nishikant Chavan'
tp641
a(S'100002504347163'
S'Anil Kengale'
tp642
a(S'100004051546061'
S'Abhijeet Deokar Patil'
tp643
a(S'100004593551257'
S'Pratik Bharati'
tp644
a(S'100005619996902'
S'Prathamesh Bhau Dhiwar'
tp645
a(S'100005556961533'
S'Sharraadh Wakhare'
tp646
a(S'100001597705810'
S'Ravi Shirsat'
tp647
a(S'100007364379259'
S'Pratik Dhapte'
tp648
a(S'100006176710262'
S'Pratik Dhapte'
tp649
a(S'100002007307676'
S'Nijanand Khamkar'
tp650
a(S'100004934760169'
S'Yogesh D. Patil'
tp651
a(S'1011190290'
S'Raakeysh Mishra'
tp652
a(S'100003537461158'
S'Rajesh Gaikwad'
tp653
a(S'1059975214'
S'Chetan Ghule'
tp654
a(S'100003282117270'
S'Abhishek Maheshwari'
tp655
a(S'100001665274540'
S'Tushar Vidhate'
tp656
a(S'100003799313616'
S'Mohammed Riyaz Uddin Riyaz'
tp657
a(S'100003890109832'
S'Amol Zagade'
tp658
a(S'100002731336186'
S'Robert Lazarus'
tp659
a(S'100000992467940'
S'Mahesh Shinde'
tp660
a(S'100001193412083'
S'Mukund Paradhi'
tp661
a(S'100001439979779'
S'Umesh More'
tp662
a(S'100003183996208'
S'Ricky Pardeshi'
tp663
a(S'100001885421960'
S'Amol Mhaske'
tp664
a(S'100005773664580'
S'Kunal Garsund'
tp665
a(S'100003843427056'
S'Vinod Tingre'
tp666
a(S'100004589703498'
S'Chetan Shinde'
tp667
a(S'100002499778903'
S'Hemant Hendre'
tp668
a(S'100000922628916'
S'Uday Pawar'
tp669
a(S'100001170110840'
S'VaBhav OvhAl'
tp670
a(S'100000683563373'
S'Atul Raskar'
tp671
a(S'100008041533399'
S'Sonali Adhav'
tp672
a(S'100008131293206'
S'Ram Chorghe'
tp673
a(S'100002860958399'
S'Pappu Dhapte'
tp674
a(S'100004106081322'
S'Nishikant Zarekar'
tp675
a(S'100002658841238'
S'Mahesh Dhapte'
tp676
a(S'100007797547142'
S'\\u0938\\u0943\\u091c\\u0932 \\u091f\\u0947\\u0932\\u093f\\u0915\\u0949\\u092e'
tp677
a(S'100003981457540'
S'Swaraj Tingre'
tp678
a(S'100004971153090'
S'Ritika Varma'
tp679
a(S'100001338225323'
S'Sonu Tingare'
tp680
a(S'100001858023996'
S'Ajinkya Survegandha'
tp681
a(S'100003622741120'
S'Ganesh Awate'
tp682
a(S'100003764408601'
S'Rajesh Jadhav'
tp683
a(S'100003713060651'
S'Sagar S. Sabale'
tp684
a(S'100003063117106'
S'Abhijit Tupe'
tp685
a(S'100008261792292'
S'Ganesh Dawkhare'
tp686
a(S'100002777904532'
S'Rohan Khandve'
tp687
a(S'100005814752335'
S'Akshay Tingre'
tp688
a(S'100004571823611'
S'Santosh Bhise'
tp689
a(S'100004191666992'
S'Sujit Tingre'
tp690
a(S'100002541863895'
S'Dilip Chaudhary'
tp691
a(S'100002361025830'
S'Dang Suraj'
tp692
a(S'100002503366967'
S'Manisha Kanchan'
tp693
a(S'100002549003911'
S'Harsh Tingre'
tp694
a(S'100003279065528'
S'Ramesh Moze'
tp695
a(S'100004473512136'
S'Prasad Konde'
tp696
a(S'100003113820139'
S'Sandeep Shinde'
tp697
a(S'100001431493809'
S'Vivek Salunke'
tp698
a(S'100006854104402'
S'Dhanraj Jadhav'
tp699
a(S'100004162148660'
S'Pradeep Tingre'
tp700
a(S'100003564756315'
S'Nikita Tingre'
tp701
a(S'100004511015438'
S'Nilkanth Gadhave'
tp702
a(S'100002225362754'
S'Ajay Desai'
tp703
a(S'100004890182207'
S'Sagar Khandve'
tp704
a(S'100001571345164'
S'Viraj Walke'
tp705
a(S'100002556954000'
S'Sandeep Mahadik'
tp706
a(S'100001044592265'
S'Rutali Dhole'
tp707
a(S'100003378278620'
S'Vishal Wabale-Patil'
tp708
a(S'100003936731371'
S'Kalyni Sardeshmukh'
tp709
a(S'100004077102774'
S'Javid Sayyed'
tp710
a(S'100003134297486'
S'Naeem Shaikh'
tp711
a(S'100002887601274'
S'Yuvraj Sorte'
tp712
a(S'100001887198805'
S'Amey Shewale Patil'
tp713
a(S'100002660527843'
S'Ashish Salve'
tp714
a(S'100001535707010'
S'Sunil Tingre'
tp715
a(S'100004406384267'
S'Sonita Payal'
tp716
a(S'100001930121634'
S'Shashi Mane'
tp717
a(S'100007777955124'
S'Rakesh Wagh'
tp718
a(S'100003888650158'
S'Ajay Suryawanshi'
tp719
a(S'100006293160555'
S'Nilesh Sorate'
tp720
a(S'100001732064171'
S'Sandeep Kamthe'
tp721
a(S'100006949324039'
S'Sarpanch Santoshbhau Awate'
tp722
a(S'100007044421126'
S'Shankar Karad'
tp723
a(S'100003322587101'
S'Promod Tingre'
tp724
a(S'100002785915634'
S'Ajinkya Tingre'
tp725
a(S'678744106'
S'Faraz Bagban'
tp726
a(S'100007755851665'
S'Prashant More'
tp727
a(S'100003017906771'
S'Nilesh Wavre'
tp728
a(S'100001558377369'
S'Bhagwat Tarkase'
tp729
a(S'100007910738621'
S'Ganesh Patil'
tp730
a(S'100004679531367'
S'Navnath Kanskar'
tp731
a(S'100002284028370'
S'\\u0938\\u093e\\u0917\\u0930 \\u092e\\u0926\\u0928\\u0947'
tp732
a(S'100007198080010'
S'Dilip Lashkare'
tp733
a(S'100002041550481'
S'Amol Pawar'
tp734
a(S'100002893387282'
S'Ashwin Bhande'
tp735
a(S'100002274127394'
S'Shashikant Deshmukh'
tp736
a(S'100002353433402'
S'Sagar Farate'
tp737
a(S'100003553955890'
S'Vishal Gaikwad'
tp738
a(S'100002900106726'
S'Avishkar Landge'
tp739
a(S'100001926418315'
S'Mayur Landge'
tp740
a(S'100000157174917'
S'Vinay Sachdev'
tp741
a(S'100002160749106'
S'Uttam Mathwad'
tp742
a(S'100004094391711'
S'Tanvir Inamdar'
tp743
a(S'100001263791843'
S'Nilesh Upasani'
tp744
a(S'100001350395823'
S'Sagar Saste'
tp745
a(S'100004715534525'
S'Viraj Raje Barde'
tp746
a(S'100002199028974'
S'Rahul Naik'
tp747
a(S'100001395375052'
S'Roshan Tingre-patil'
tp748
a(S'100001246339099'
S'Tushar Shinde'
tp749
a(S'100000465208618'
S'Anup Jadhav'
tp750
a(S'100005934071650'
S'Nikhil Chinchane'
tp751
a(S'100007204510860'
S'LaCafeteria Gamezone'
tp752
a(S'100002083826033'
S'Rahul Meherolia'
tp753
a(S'100005562150256'
S'Tofik Maniyar'
tp754
a(S'100003232426082'
S'Sourabh Dhongade'
tp755
a(S'100007773581869'
S'Munita Kasar'
tp756
a(S'100002036465362'
S'Mahesh Dharashivkar'
tp757
a(S'100001983235437'
S'Raj Kutwal'
tp758
a(S'100004137003814'
S'Somnath Tingre'
tp759
a(S'100003165087741'
S'Aditya Wayker'
tp760
a(S'100008202660245'
S'Tatya Sarkar'
tp761
a(S'100003626878068'
S'Dinesh Singh'
tp762
a(S'1562642353'
S'Hemant Kadre'
tp763
a(S'100003340436183'
S'Pravin Lohar'
tp764
a(S'100006347613983'
S'Sandeep Kanade'
tp765
a(S'100005923872058'
S'Dipali Shinde'
tp766
a(S'100002971833905'
S'Umesh Kadam'
tp767
a(S'100000763892566'
S'Pramod Nikam'
tp768
a(S'100003157364452'
S'Abhijeet Lande Patil'
tp769
a(S'100008336143199'
S'Vijay Lonke'
tp770
a(S'100007125667684'
S'Naresh Biradar Biradar'
tp771
a(S'100003325733454'
S'Dhananjay Dhamdhere'
tp772
a(S'100001973243463'
S'Sanjay Kunder'
tp773
a(S'100000287751491'
S'Dhapte Ganesh'
tp774
a(S'100000822480518'
S'Pratik Sunil'
tp775
a(S'100002341159295'
S'Akshay Shinde'
tp776
a(S'100002634590014'
S'Kunal Tingre Patil'
tp777
a(S'100004553533543'
S'Hanuman Kumpawat'
tp778
a(S'100002073457353'
S'Dheeraj Shukla'
tp779
a(S'100003210657021'
S'Sunny Tingre'
tp780
a(S'100002220541725'
S'Hemant Khese'
tp781
a(S'100008033168511'
S'Anand Andhare'
tp782
a(S'100004334196139'
S'Priyanka Bhosale'
tp783
a(S'100005874543160'
S'Christina Joseph'
tp784
a(S'100001612240775'
S'Swapnil Mehta'
tp785
a(S'100002078857444'
S'Upendra Belhekar'
tp786
a(S'100004942773179'
S'Dipak Kapse'
tp787
a(S'100007226378300'
S'Sagar Sable'
tp788
a(S'100007987151304'
S'Swapnil Ghorpade'
tp789
a(S'100006018821587'
S'Bapu Sarode'
tp790
a(S'100007871442427'
S'Pai Rohanbhau Gire II'
tp791
a(S'100002048807912'
S'Yogesh Mahindrakar'
tp792
a(S'100008044861124'
S'Ajay Kanaskar'
tp793
a(S'1178054081'
S'Ajinkya Salunke'
tp794
a(S'100003813722296'
S'Irfan Shaikh'
tp795
a(S'100000700361327'
S'Abhijit Parande'
tp796
a(S'100003012963878'
S'Raju Kharat'
tp797
a(S'100002303769073'
S'Swapnil Boarkar'
tp798
a(S'100007304163765'
S'Jagtap Decorators'
tp799
a(S'100004324363715'
S'Mahesh Balwadkar'
tp800
a(S'100006178867377'
S'Khalil Shaikh'
tp801
a(S'100003243987033'
S'Asif Mujawar'
tp802
a(S'100008300160010'
S'Tausif Shaikh'
tp803
a(S'100008228612392'
S'Pramod Parande'
tp804
a(S'100001186722915'
S'Shubham Ubale'
tp805
a(S'100003092157131'
S'Vitthal Tingre'
tp806
a(S'100003147764300'
S'Sandip Sawant'
tp807
a(S'100002197314937'
S'Dinesh Lande-Patil'
tp808
a(S'100000081385796'
S'Kunal K Karanjkar'
tp809
a(S'613488121'
S'Sunil Patil'
tp810
a(S'100003405279295'
S'Ashutosh Thorat'
tp811
a(S'100008139458238'
S'Sandeep Suryawanshi'
tp812
a(S'100006984510568'
S'Krishna Kotwal'
tp813
a(S'100002529017165'
S'Pravin Shinde'
tp814
a(S'100000873113830'
S'Ashok Patil'
tp815
a(S'100003305356736'
S'Sunny Daundkar'
tp816
a(S'100006312720264'
S'Avinash Kharat'
tp817
a(S'100002461457410'
S'Abhishek Tingre'
tp818
a(S'100001496628792'
S'Siddharth V Pagare'
tp819
a(S'100002257512630'
S'Mayur Tingre'
tp820
a(S'100008124338070'
S'Sanket Waghmare'
tp821
a(S'100002690963942'
S'Adv Atul Parande'
tp822
a(S'100005401621346'
S'P.k. Kushwaha'
tp823
a(S'100004195686808'
S'Prafulla More'
tp824
a(S'100001692112976'
S'Aniket Birajdar Patil'
tp825
a(S'100001969323465'
S'Akky Deshmane'
tp826
a(S'100005780136369'
S'Swapnil Birajdar'
tp827
a(S'100002677359706'
S'Gulab Jarande'
tp828
a(S'100006497988509'
S'Arvind Kanaskar'
tp829
a(S'100007204899482'
S'Dipak Dada Dabhade'
tp830
a(S'100002385650161'
S'Prathamesh Yadav'
tp831
a(S'100000588584611'
S'Parul Negi'
tp832
a(S'100001610873562'
S'Pratik Kakade'
tp833
a(S'100002645351554'
S'Ram Kirve'
tp834
a(S'100006304657196'
S'Mayur Khandve'
tp835
a(S'100008299351369'
S'Mahesh Parande'
tp836
a(S'100004941034697'
S'Abhishek Jamdade'
tp837
a(S'100001723968071'
S'Sanket Ghule'
tp838
a(S'100001156333632'
S'Vikram Shirke'
tp839
a(S'100006740130376'
S'Omkar Tingre'
tp840
a(S'100001018724739'
S'Sameer Shaikh'
tp841
a(S'100002373756184'
S'Sunil Tingre'
tp842
a(S'100008034190248'
S'Aniket Chandanshive'
tp843
a(S'100007470277111'
S'Tapan Mane'
tp844
a(S'100000861174738'
S'Aniket Chandanshive'
tp845
a(S'100003254213968'
S'Abid Daya'
tp846
a(S'100005000022811'
S'Vaishali Robinson'
tp847
a(S'100006365313460'
S'Pravin Tingre'
tp848
a(S'100001835524192'
S'Prachi Nanekar'
tp849
a(S'100004074665254'
S'Rajesh Mourya Rajesh Mourya'
tp850
a(S'100007256228063'
S'Shubham Mohite'
tp851
a(S'100004707552094'
S'Aditya More'
tp852
a(S'100004730043687'
S'Sid Roy'
tp853
a(S'1518663865'
S'Mohan Pillay'
tp854
a(S'100000576503149'
S'Amit Jadhav'
tp855
a(S'100006410383428'
S'\\u0935\\u093f\\u0936\\u094d\\u0930\\u093e\\u0902\\u0924\\u0935\\u093e\\u0921\\u0940 \\u0915\\u0933\\u0938 \\u092a\\u0930\\u093f\\u0938\\u0930'
tp856
a(S'100001440430441'
S'Yuvraj Thorat'
tp857
a(S'100004503644476'
S'Shrikant Salve'
tp858
a(S'100002437605989'
S'Avi Suryawanshi'
tp859
a(S'100001146009452'
S'PraTik KhaTal'
tp860
a(S'100003988320076'
S'Nishikant Zarekar'
tp861
a(S'100001962070276'
S'Rekha D Tingre'
tp862
a(S'100002683235835'
S'Vipul Jadhav'
tp863
a(S'100003978699056'
S'Deepakdada Patole'
tp864
a(S'100003128091531'
S'Lakshmiknt Tingre'
tp865
a(S'100007980727276'
S'Amol Galande'
tp866
a(S'100000538740294'
S'Parshu Chalwadi'
tp867
a(S'100003337095933'
S'Shubham Sangam'
tp868
a(S'100004025588365'
S'Bapu Kale'
tp869
a(S'100002115943268'
S'Vishal Sachdeva'
tp870
a(S'100005118637596'
S'Abhishek Tingre'
tp871
a(S'100002709060871'
S'Vishal Dargude'
tp872
a(S'100005496702394'
S'Jaydip Kadam'
tp873
a(S'100003132280985'
S'Sandesh Parande'
tp874
a(S'100004068723009'
S'Ganesh Barne'
tp875
a(S'100003506066781'
S'Bhushan Parande'
tp876
a(S'100002729594462'
S'Nikam Satish'
tp877
a(S'100002181124212'
S'Avinash Sukunde'
tp878
a(S'100002697170164'
S'Jacob Ramcai'
tp879
a(S'100002339713786'
S'\\u0938\\u0941\\u0936\\u093e\\u0902\\u0924 \\u091c\\u093e\\u0927\\u0935\\u092a\\u093e\\u091f\\u0940\\u0932'
tp880
a(S'100004959426093'
S'Vishwas Khandave'
tp881
a(S'100001635554520'
S'Bhanudas Suryawanshi Patil'
tp882
a(S'100002182890216'
S'Dhanraj Tingre'
tp883
a(S'100005129882890'
S'Roza Khan'
tp884
a(S'100003576613419'
S'Sanket Sawant'
tp885
a(S'100007653549407'
S'Mahesh Rautre'
tp886
a(S'100007967169467'
S'Hi-Tech Comp Inst'
tp887
a(S'100003162423143'
S'Ajay Mohare'
tp888
a(S'100000901892617'
S'Santosh Bhosle'
tp889
a(S'100003093568315'
S'Ganesh Kakade'
tp890
a(S'100002261277826'
S'Rakesh Bhanu'
tp891
a(S'100001614474508'
S'Amol Jadhav'
tp892
a(S'100005018070149'
S'Sandesh Tingre'
tp893
a(S'100006079024166'
S'Viky Waghmare'
tp894
a(S'100003966502562'
S'Sukesh Padmanabhan'
tp895
a(S'100008082840607'
S'Pratik Chandere'
tp896
a(S'100005494937190'
S'Sagardada Tingre'
tp897
a(S'100007690968769'
S'Kishor Tingre'
tp898
a(S'100002199817673'
S'Sachin Lande'
tp899
a(S'100008112306674'
S'Satyendra Kumar'
tp900
a(S'100001755589040'
S'Harsshal Tinggre'
tp901
a(S'100008056681581'
S'Swapnil Shedage'
tp902
a(S'100007536612239'
S'Ranju Shaikh'
tp903
a(S'100002465353463'
S'Sachin Tupe'
tp904
a(S'752424639'
S'Praveen Audut'
tp905
a(S'100002429748767'
S'Omkar Agureddy'
tp906
a(S'100000546334158'
S'Saiprasad Biradar Patil'
tp907
a(S'100001350773508'
S'Sachin Sonawane'
tp908
a(S'100007543271036'
S'Mukesh Singh Rajpurohit'
tp909
a(S'100001984634844'
S'Ajinkya Lokhande Patil'
tp910
a(S'100005012136366'
S'Tejas Tingre'
tp911
a(S'100004049329288'
S'Kaushal Gholap'
tp912
a(S'100002750738033'
S'Vinod Parande'
tp913
a(S'100006757744145'
S'Shaantanu Raghuvansh'
tp914
a(S'100003203243501'
S'Riya Khan'
tp915
a(S'100006325204070'
S'Atish Bansode'
tp916
a(S'100005987858524'
S'Kamrul Shah'
tp917
a(S'100004070118371'
S'Supriya Palande'
tp918
a(S'100002491342446'
S'Subhash Khese'
tp919
a(S'100002417478941'
S'Nida Shaikh'
tp920
a(S'100007271043885'
S'Nikhil Shewale'
tp921
a(S'100000271773447'
S'Raj Nikam'
tp922
a(S'100001066930959'
S'Pravin Sonawane'
tp923
a(S'100001368729336'
S'Sunny Lande'
tp924
a(S'100002258539967'
S'Sachin Tingre'
tp925
a(S'100002740001981'
S'Preeti Keer'
tp926
a(S'100002761750205'
S'Akshay Kamble Akki'
tp927
a(S'100002219037979'
S'Shuteja Desai'
tp928
a(S'1501863802'
S'Manish Nikalje'
tp929
a(S'100004743516034'
S'Rupesh Tingre Patil'
tp930
a(S'100002454770531'
S'Ajay Khalse'
tp931
a(S'100003391163221'
S'Mahesh Balwadkar'
tp932
a(S'100003464889834'
S'Sudhir Salunkhe'
tp933
a(S'100006113923696'
S'Uday Choudhary'
tp934
a(S'100003214044159'
S'Sonya Pawar'
tp935
a(S'100002406788602'
S'Tushar Waghmare'
tp936
a(S'100005275021164'
S'Pranita Nanekar'
tp937
a(S'100001757465632'
S'Ankush Gaikwad'
tp938
a(S'100003320122856'
S'Abdvs Pune'
tp939
a(S'100003181323362'
S'Mayur Shinde'
tp940
a(S'100005486616882'
S'Sandeep Kumar Kushwaha'
tp941
a(S'100001664839613'
S'Rajesh Chinchwade'
tp942
a(S'100000239180019'
S'Vishal Pawar'
tp943
a(S'779694663'
S'Yogesh A Kadam'
tp944
a(S'100006560285514'
S'Manish Yadav'
tp945
a(S'100002631271496'
S'Ashok Bhosale'
tp946
a(S'100002843569531'
S'Pravin More'
tp947
a(S'100001719035982'
S'Ajay Sawant'
tp948
a(S'100003532093153'
S'\\u0905\\u0915\\u094d\\u0937\\u092f-\\u0926\\u093f\\u092a\\u0942 \\u0917\\u092e\\u0947 \\u092a\\u093e\\u091f\\u0940\\u0932'
tp949
a(S'100004399471652'
S'Mohindersingh Banga'
tp950
a(S'100002389537708'
S'Sachin Choudhari'
tp951
a(S'100002393506767'
S'Rohit Daundkar'
tp952
a(S'100003645251282'
S'Kavita Agarwal'
tp953
a(S'100004681869842'
S'Deepak Khette'
tp954
a(S'100002244003314'
S'Arvind Bhagwandas Halwai'
tp955
a(S'100003787663261'
S'Kailash Dhayalkar'
tp956
a(S'100001346241869'
S'Abhijeet Surve'
tp957
a(S'100007317071530'
S'Sudhakar Zarekar'
tp958
a(S'100003004780315'
S'Laksh Ghule'
tp959
a(S'100002763966701'
S'Sandeep Rajmane'
tp960
a(S'100007539121307'
S'Krishna Asawa'
tp961
a(S'100006046842103'
S'ShubhamDada PravinRao WakharePatil'
tp962
asS'id'
p963
S'100002149578013'
p964
sS'name'
p965
S'Ajay Tingre'
p966
s.