(dp1
S'friends'
p2
(lp3
(S'100002677827016'
S'Shivani Verma'
tp4
a(S'100003695811309'
S'Dharmender Gola'
tp5
a(S'100001954098260'
S'Sanchita Biswas'
tp6
a(S'100006552395388'
S'Marycris Pania'
tp7
a(S'100005927614527'
S'Naveen Kumar'
tp8
a(S'100002166883120'
S'Amit Kumar Parjapati'
tp9
a(S'100002030292669'
S'Aryan Khan'
tp10
a(S'1675338836'
S'Vikalp Bansal'
tp11
a(S'100001687200736'
S'M\\u00ef\\u00e7k\\u00eb\\u00fd S\\u00f6\\u00f1\\u00ef'
tp12
a(S'100001664716793'
S'Shruti Singh'
tp13
a(S'100003338089669'
S'Gourav Bhati'
tp14
a(S'100003613179870'
S'Shanu Siddiqui'
tp15
a(S'100003386406022'
S'Nitesh Verma'
tp16
a(S'100003245720872'
S'Nikita Sharma'
tp17
a(S'100003618046305'
S'Yogesh Rajpoot'
tp18
a(S'100006731081895'
S'Vijay Chaudhary'
tp19
a(S'100000914490180'
S'Manish Dabas'
tp20
a(S'100001277091744'
S'Sonam Chowdary'
tp21
a(S'100004123844015'
S'Mahima Sharma'
tp22
a(S'100007200011387'
S'Tanya Sharma'
tp23
a(S'100002284043811'
S'Anamika Chauhan'
tp24
a(S'100001376929620'
S'Rahhul Chuadary'
tp25
a(S'100002108041665'
S'Yogender Kumar'
tp26
a(S'100002193969271'
S'Deepak Kumar'
tp27
a(S'100005581020750'
S'Anita Sharma'
tp28
a(S'100002559892949'
S'Lavanya Yadav'
tp29
a(S'100003550864829'
S'R-yan Bisht'
tp30
a(S'100004758703506'
S'Shubham Thakur'
tp31
a(S'100005521901784'
S'Pankaj Awasthi'
tp32
a(S'100003051620435'
S'Shivi Sinha'
tp33
a(S'100002949929120'
S'Rahul Vivekmis'
tp34
a(S'100007154790121'
S'Jitendra Kumar'
tp35
a(S'100003274894513'
S'Rittu Sharma'
tp36
a(S'100001048314968'
S'Kapil Gautam'
tp37
a(S'100004012304238'
S'Praveen Kumar'
tp38
a(S'100004549452532'
S'Sumit Thakur'
tp39
a(S'100003446008250'
S'Nishant Rock'
tp40
a(S'100005894640950'
S'Priya Singh'
tp41
a(S'1211980936'
S'Kailash Bhagat'
tp42
a(S'100005611053489'
S'Subhash Chand Tiwari'
tp43
a(S'100003142448063'
S'Sagar Bisht'
tp44
a(S'100001726881867'
S'Teena Sharma'
tp45
a(S'100005572814001'
S'Pran Wadhawan'
tp46
a(S'100004532284377'
S'Vishnu Sharma'
tp47
a(S'100003467635250'
S'Joya Dsauza'
tp48
a(S'100005278243811'
S'Arun Kumar'
tp49
a(S'100001229416056'
S'Jitendra Pandey'
tp50
a(S'100002779289041'
S'Ajay Lawaniya'
tp51
a(S'100000830290439'
S'Vibhor Kaushik'
tp52
a(S'100001383231550'
S'Himanshu Pal'
tp53
a(S'100002387017476'
S'Jinia Das'
tp54
a(S'100002252138280'
S'Pankaj Thakur'
tp55
a(S'100003365123657'
S'Paul Justin'
tp56
a(S'100001829728692'
S'Kruthika Mehta'
tp57
a(S'100000747229570'
S'Vaibhav Rawat'
tp58
a(S'100001602054757'
S'Shyamnarayan Dubey'
tp59
a(S'100000585412776'
S'Daksh Saini'
tp60
a(S'100004096835064'
S'Hemant Kumar'
tp61
a(S'100001006046991'
S'Sanjeev Bora'
tp62
a(S'100005485989334'
S'\\u0162a\\u015bhi \\u011eupt\\u00e2'
tp63
a(S'100007832344150'
S'Abhi Gujjar'
tp64
a(S'100007370342583'
S'Gaurav Kumar'
tp65
a(S'100001816270676'
S'Akash Bandhu'
tp66
a(S'100006710170685'
S'Dev Yug'
tp67
a(S'100007354596540'
S'Javed Alam'
tp68
a(S'100004197605703'
S'Shushant Dabral'
tp69
a(S'100005840134669'
S'Mahi Kanojay'
tp70
a(S'100008221179678'
S'Sanjeev Bhaskar'
tp71
a(S'100003137214536'
S'Nadiya Pathan'
tp72
a(S'100003760592254'
S'Anwaar Ansari'
tp73
a(S'100007485967472'
S'Sunny Chaudhary'
tp74
a(S'100006801272484'
S'Rosemarie A. Deliarte'
tp75
a(S'100000149029425'
S'Manisha Choudhary'
tp76
a(S'100006215139049'
S'Alisha Dabral'
tp77
a(S'100003904636855'
S'Suresh Chand'
tp78
a(S'100002481782144'
S'Rohit Arora'
tp79
a(S'100002197654712'
S'Vicky Madotra'
tp80
a(S'100005339705733'
S'Sunny Chaudhary'
tp81
a(S'100001799267582'
S'Govind Singh'
tp82
a(S'100001685604103'
S'Amit King Pandat'
tp83
a(S'100001535864925'
S'Kunaal Mehta'
tp84
a(S'1402540779'
S'Krishan Aneja'
tp85
a(S'100002022019857'
S'Ashish Chauhan'
tp86
a(S'100004316881273'
S'Prince Kumar'
tp87
a(S'100002759160032'
S'Sameer Sharma'
tp88
a(S'100005884320568'
S'Pao Jackson Gomez'
tp89
a(S'100006951846426'
S'Apurva Arora'
tp90
a(S'100005661994490'
S'Ovi Gautam'
tp91
a(S'100002657840381'
S'Ravindra Kumar'
tp92
a(S'100002785470109'
S'Danish Siddiqui'
tp93
a(S'100004919280325'
S'Shibbu Thakela'
tp94
a(S'100004055640643'
S'Deepak Sarma'
tp95
a(S'100006998012842'
S'Angel Kannu'
tp96
a(S'100002604482182'
S'Aman Saini'
tp97
a(S'100005852312319'
S'Neha Rajput'
tp98
a(S'100002759206151'
S'Shelly Love'
tp99
a(S'100001676722369'
S'Neha Garg'
tp100
a(S'100008112879829'
S'Ishika Malik'
tp101
a(S'100005310842074'
S'Ritu Chaudhary'
tp102
a(S'100002321855685'
S'Aashu Saxena'
tp103
a(S'100003747927936'
S'PraTeek Raj'
tp104
a(S'100005603165985'
S'Ravi Shishodia'
tp105
a(S'100005999343772'
S'Cristina B. DienDo'
tp106
a(S'100005071034191'
S'Pr\\u00ea\\u00eat\\u012b Sh\\u00e0rm\\u00e0'
tp107
a(S'100000097755935'
S'Rashid Sagar'
tp108
a(S'100002185909415'
S'Rahul Chaudhary'
tp109
a(S'100007507773065'
S'Angel Jhanvi'
tp110
a(S'100003421073363'
S'Ritika Thakur'
tp111
a(S'100003074614401'
S'Sandeep Rawat'
tp112
a(S'100005812356344'
S'\\u00dfla\\u00e7kl\\u00edst\\u00ead Naw\\u00e5\\u00dfza\\u00d0\\u00e4'
tp113
a(S'100000872056574'
S'Danish Abrar'
tp114
a(S'100003104299178'
S'Montoo Bhati'
tp115
a(S'100004363170409'
S'Shivam Sluggard Sah'
tp116
a(S'100006501111830'
S'Kavita Jain'
tp117
a(S'100000030810577'
S'Pawan Dwivedi'
tp118
a(S'100001622630039'
S'Shailendra Sengar'
tp119
a(S'100001008446894'
S'Sandra Porter'
tp120
a(S'100002248823977'
S'Vishakha Singh'
tp121
a(S'100001244040031'
S'Javed Alam'
tp122
a(S'100001468827220'
S'Jasneet Kaur Randhawa'
tp123
a(S'100003654323311'
S'Deep Shukla'
tp124
a(S'100002753860061'
S'Sanjay Kumar'
tp125
a(S'100001556922022'
S'Naveen Parashar'
tp126
a(S'100003750891892'
S'Nisha Kumari'
tp127
a(S'100001344871465'
S'Vikalp Bansal'
tp128
a(S'100006458752224'
S'Dharmendra Negi'
tp129
a(S'100004889620383'
S'Gaurav Yadav'
tp130
a(S'100005875994324'
S'Rakesh Sharma'
tp131
a(S'100003547172565'
S'Pooja Tyagi'
tp132
a(S'100003147590725'
S'Viren Chaudhary'
tp133
a(S'100001526258051'
S'Shahid Ali'
tp134
a(S'100004448497254'
S'Neha Singh'
tp135
a(S'100001206483187'
S'Jimmy Carlos'
tp136
a(S'100002247815573'
S'Mishu Dahiya'
tp137
a(S'100006710592548'
S'Jatinder Kumar'
tp138
a(S'100002961926076'
S'Satish Chandra'
tp139
a(S'100007126511721'
S'Roopal Sharma'
tp140
a(S'100001943614092'
S'M\\u01fbhi \\u015che\\u0157\\u01e5i\\u1e3b\\u1e3b'
tp141
a(S'100002133540236'
S'Sourav Kedia'
tp142
a(S'100008248324341'
S'Sanju Bhaskar'
tp143
a(S'100002561768787'
S'Naveen Choudhary'
tp144
a(S'100004230720180'
S'Sumana Paul'
tp145
a(S'100002176954230'
S'Raghav Isha Ira'
tp146
a(S'100002681872424'
S'Manoj Shishodiya'
tp147
a(S'100004294571717'
S'Aman Gautam'
tp148
a(S'100007774751227'
S'Vishal Varma'
tp149
a(S'100003580908245'
S'Hemant Kumar'
tp150
a(S'100004026724463'
S'Suraj Gupta'
tp151
a(S'100005468713516'
S'Tiska Gupta'
tp152
a(S'100002256828355'
S'Rahhul Chaudhary'
tp153
a(S'100005855320627'
S'Priyanka Singh'
tp154
a(S'100002636407931'
S'Kajal Kadmiya'
tp155
a(S'100001138403558'
S'Ranjan Singh Rathaur'
tp156
a(S'100006454083840'
S'Rohit Gujjar'
tp157
a(S'100004613775333'
S'Pinky Mishra'
tp158
a(S'100003993115725'
S'Pinky Bisht'
tp159
a(S'100006383103060'
S'Geeta Rikhari'
tp160
a(S'100001732984947'
S'Mrityunjay Gupta'
tp161
a(S'100000569280312'
S'Pawan Kumar'
tp162
a(S'100004205468257'
S'Aiyla Faryla Arisha'
tp163
a(S'100003206296442'
S'Prashant Sharma'
tp164
a(S'100003640487286'
S'Akhil Kumar Sagar'
tp165
a(S'100005564046172'
S'Misty Nill'
tp166
a(S'100003901880767'
S'Sanat Soni'
tp167
a(S'100006017012933'
S'Priya Sharma'
tp168
a(S'100002672151242'
S'Surendra Yadav'
tp169
a(S'100005047540054'
S'Vishal Pandat'
tp170
a(S'100001815872016'
S'Sonu Bhadoriya'
tp171
a(S'100004185042330'
S'Abhijeet Singh'
tp172
a(S'100005438583201'
S'Ashok Yadav'
tp173
a(S'100002919702987'
S'Regina Bilung'
tp174
a(S'100004553558931'
S'Deepak Kumar'
tp175
a(S'100005810948872'
S'Dwen Ciablan'
tp176
a(S'100003204094418'
S'Bn Kumar'
tp177
a(S'100004081686252'
S'Gaurav Gupta'
tp178
a(S'100003570880147'
S'Sammy Arora'
tp179
a(S'100001219899481'
S'Priyanka Kaur'
tp180
a(S'100001560467673'
S'Ravi Singh'
tp181
a(S'100006308795940'
S'Shalu Gola'
tp182
a(S'100000465541089'
S'Roshni Sharma'
tp183
a(S'100005624048355'
S'Rabindra Kumar'
tp184
a(S'100002289978930'
S'Ids Next'
tp185
a(S'100003819486446'
S'Manoj Gautam'
tp186
a(S'100001722438029'
S'Mukul Chandra Yadav'
tp187
a(S'100003715617339'
S'Danish Khan'
tp188
a(S'100003192003407'
S'Tushita Verma'
tp189
a(S'100004419185249'
S'Shalini Mishra'
tp190
a(S'100006106260055'
S'Taani Yogitish'
tp191
a(S'100002608231242'
S'Viviane Ibeh'
tp192
a(S'100006398801386'
S'Kritika Sharma'
tp193
a(S'100002043153592'
S'Mayank Sharma'
tp194
a(S'100007865946902'
S'Kajal Rani'
tp195
a(S'100004887510099'
S'Angel Myra'
tp196
a(S'100005992175349'
S'V\\u00e3\\u00f1d\\u00e2\\u00f1\\u00e4 V\\u00e0\\u00f1\\u00ef'
tp197
a(S'100001903798010'
S'Kushal Tomar'
tp198
a(S'100002889519117'
S'Ravi Ranjan'
tp199
a(S'100003275967181'
S'Rahul Kohli'
tp200
a(S'100004215524097'
S'Sandip Dahiya'
tp201
a(S'100005064518611'
S'Jitu Kumar'
tp202
a(S'100002635329905'
S'Ankur Chaudhary'
tp203
a(S'100001614076446'
S'Sanjeev Kumar'
tp204
a(S'1845456054'
S'Sujeet Jha'
tp205
a(S'100004083380745'
S'Viren Chaudhary'
tp206
a(S'100003168334260'
S'Deepak Singh'
tp207
a(S'100008172670724'
S'Kiran Sharma'
tp208
a(S'100002632188936'
S'Bharat Bhushan'
tp209
a(S'100004582595257'
S'Hitakshi Ahuja'
tp210
a(S'100003274153022'
S'Pushkar Tyagi'
tp211
a(S'100007643072039'
S'Sheeba Ansari'
tp212
a(S'100002057852945'
S'Nigam Naina'
tp213
a(S'100001341998816'
S'Ashutosh Chaturvedi'
tp214
a(S'100002621301829'
S'Tanya Gupta'
tp215
a(S'100001307947960'
S'Pankaj Sharma'
tp216
a(S'100003700923028'
S'King Moses'
tp217
a(S'100004456867163'
S'Nainesh Rajput'
tp218
a(S'100006472877612'
S'Dharna Chaudhary'
tp219
a(S'100006436653478'
S'Naveen Chaudhary'
tp220
a(S'100008113473928'
S'Sonam Chaudhary'
tp221
a(S'100002749263344'
S'Pradeep Bisht'
tp222
a(S'100003171986531'
S'DeePak Shukla'
tp223
a(S'100005939373292'
S'Nishu Sharma'
tp224
a(S'100003954021419'
S'Rachita Singh'
tp225
a(S'100003916443295'
S'Lekhraj Mahour'
tp226
a(S'100006287173124'
S'Manish Kumar'
tp227
a(S'100003529451379'
S'Aaliyah Sharma'
tp228
a(S'100005655031263'
S'M\\u00e1ria Marina'
tp229
a(S'100001008603860'
S'Rishav Singh'
tp230
a(S'100008366795502'
S'Priyanka Chaudhary'
tp231
a(S'100004703591943'
S'Daksh Infotech'
tp232
a(S'100002351884571'
S'Aryan Rokx Bahnewaal'
tp233
a(S'100005532090788'
S'Anubhav Sagar'
tp234
a(S'100002064375306'
S'Amrish Hooda'
tp235
a(S'100004081475057'
S'Manish Joshi'
tp236
a(S'100006621880532'
S'Nikunj Mehta'
tp237
a(S'100003241477959'
S'Vinod Kumar'
tp238
a(S'100003289459065'
S'Shaan Hasan'
tp239
a(S'100004832311591'
S'Sunil Kumar'
tp240
a(S'100002791052798'
S'Shivam Miglani'
tp241
a(S'100000990208728'
S'Manjeet Singh'
tp242
a(S'100005806321631'
S'Bindas Sumana Paul'
tp243
a(S'100004036041814'
S'Maica Mae Capellan'
tp244
a(S'100002649200752'
S'Suraj Kumar'
tp245
a(S'100005219464873'
S'Shivani Singh'
tp246
a(S'100004763803189'
S'Brijesh Sharma'
tp247
a(S'100003027071675'
S'\\u0a1c\\u0a25\\u0a47\\u0a26\\u0a3e\\u0a30 \\u0a38\\u0a3e\\u0a39\\u0a3f\\u0a2c'
tp248
a(S'100002543075713'
S'Bilal Ali'
tp249
a(S'100001260418190'
S'M\\u00ecr M\\u00f8\\u00ec\\u00f1'
tp250
a(S'100004366595326'
S'Mukesh Jaat'
tp251
a(S'100000010503463'
S'Varun Mishra'
tp252
a(S'1133172618'
S'Chander Prakash'
tp253
a(S'100002990109586'
S'Nilesh Roy'
tp254
a(S'100003082290549'
S'Amit Verma'
tp255
a(S'100003803001804'
S'Hemant Tatawat'
tp256
a(S'100002307798276'
S'Arpitha Gowda'
tp257
a(S'100005517841554'
S'Mahi Koranga'
tp258
a(S'100001234276979'
S'Himanshu Pal'
tp259
a(S'100007049163898'
S'Gourav Aggarwal'
tp260
a(S'100001293889633'
S'Nand Ram Yadav'
tp261
a(S'100000461879190'
S'Ashmita Dasgupta'
tp262
a(S'100008331151649'
S'Joy Tea'
tp263
a(S'100000506382088'
S'Shalini Gola'
tp264
a(S'100001069315408'
S'Adarsh Kr Singh'
tp265
a(S'100008059261720'
S'Nelds Corpuz'
tp266
a(S'100003560578465'
S'Honey Peter'
tp267
a(S'100004315543168'
S'Krishna Raghubansi'
tp268
a(S'100006512474821'
S'Sanjh Rajput'
tp269
a(S'100006595421183'
S'Mohini Verma'
tp270
a(S'100005683170203'
S'Pankaj Manchanda'
tp271
a(S'100002486482657'
S'Gautam Ji'
tp272
a(S'100002217864694'
S'Rohit Kumar'
tp273
a(S'100002946201717'
S'Dev Rawat'
tp274
a(S'100005943249205'
S'Shakshi Choudhary'
tp275
a(S'100002879367825'
S'V\\u00edr\\u00e1t S\\u00e1g\\u00e1r'
tp276
a(S'100003200295467'
S'Riya Chaudhary'
tp277
a(S'100001956334201'
S'Brijesh Shah'
tp278
a(S'100001822522903'
S'Amit Mishra'
tp279
a(S'100002843963284'
S'Rohit Thakur'
tp280
a(S'100004591710751'
S'Dil Hasan'
tp281
a(S'100002955428971'
S'Kiran Choudhary'
tp282
a(S'100004101091017'
S'Anshu Kannojiya'
tp283
a(S'100005597945780'
S'Rahul Thakur'
tp284
a(S'100001561182227'
S'Manish Tyagi'
tp285
a(S'100005031303888'
S'Nirmal Jha'
tp286
a(S'100001661615925'
S'Love Kardam'
tp287
a(S'100001397750863'
S'Binay Kumar'
tp288
a(S'100004055650560'
S'Rohit Arora'
tp289
a(S'100001199530321'
S'RIcky Dan'
tp290
a(S'100001754187895'
S'Dinesh Kumar'
tp291
a(S'100006345071147'
S'Mohit Bharti'
tp292
a(S'100000881765816'
S'Rimi Attrai'
tp293
a(S'100004263996483'
S'Sourav Singhal'
tp294
a(S'100004659284217'
S'Vishal Kumar'
tp295
a(S'100006753671567'
S'Maneesh Baghel'
tp296
a(S'100002979920851'
S'Vikas Pandit'
tp297
a(S'100000328988801'
S'Jerica Pa\\u00f1a'
tp298
a(S'100002543299778'
S'Virendra Singh'
tp299
a(S'100000620323384'
S'Yogender Pawar'
tp300
a(S'100003022304345'
S'Ram Avtar'
tp301
a(S'100002348866732'
S'D\\u00e9v\\u00e9\\u00f1 \\u00c4r\\u00f6r\\u00e5'
tp302
a(S'100002755034898'
S'Sachin Sharma'
tp303
a(S'100002605107258'
S'Ritika Tiwari'
tp304
a(S'100002528981122'
S'Deepak Manchanda'
tp305
a(S'100003690168978'
S'Samrat Bhardwaaj'
tp306
a(S'100005535691200'
S'Ompal Singh'
tp307
a(S'100006064030866'
S'Udit Kumar'
tp308
a(S'100003139445924'
S'Gourav Aggarwal'
tp309
a(S'100001152793414'
S'Neha Aneja'
tp310
a(S'100000872755821'
S'Sumit Kumar'
tp311
a(S'100003110527503'
S'Kanchan Gautam'
tp312
a(S'100003794961653'
S'Garvit Sharma'
tp313
a(S'100000233145683'
S'Shumie Agri Motekar'
tp314
a(S'100004702954066'
S'Nadeem Ahmad'
tp315
a(S'100003021856922'
S'Rahul Kashyap'
tp316
a(S'1464738299'
S'Rks Kumar'
tp317
a(S'100001672582505'
S'Varun Arora'
tp318
a(S'100002403132376'
S'Vipin Kumar'
tp319
a(S'100003248374426'
S'Manav Singh'
tp320
a(S'100008314332260'
S'Maffie Delacruz'
tp321
a(S'100003043956586'
S'Raj Kashyep'
tp322
a(S'100000743147603'
S'Vipin Kumar'
tp323
a(S'100003284529231'
S'Seema Jha'
tp324
a(S'100006455671822'
S'Abhishek Gaujar'
tp325
a(S'100003942824927'
S'Dev Shukla'
tp326
a(S'100004071350716'
S'Nithya Chowdary'
tp327
a(S'100003125611937'
S'Prem Singh'
tp328
a(S'100006474158376'
S'Shubham Nagar'
tp329
a(S'100008162135115'
S'Anamika Nagarkoti'
tp330
a(S'100008302718081'
S'Sanjeev Bhaskar'
tp331
a(S'100003208352238'
S'Tarun Chaudhary'
tp332
a(S'100002043930470'
S'Prabir Saha'
tp333
a(S'100001666015552'
S'Anjali Dubey'
tp334
a(S'100005133190075'
S'Garima S Aangrish'
tp335
a(S'100001659497774'
S'Vikas Kumar Mishra'
tp336
a(S'100004155756204'
S'Freya Mckenna'
tp337
a(S'100004387932699'
S'Himani Sharma'
tp338
a(S'100003458633079'
S'Thakur Rohit'
tp339
a(S'100000815580173'
S'Naresh Kumar'
tp340
a(S'100006406390308'
S'Sourav Jain'
tp341
a(S'100004155791106'
S'Kartik Sharma'
tp342
a(S'100002549511389'
S'Ankit Rastogi'
tp343
a(S'100005992894749'
S'Maninder Arya'
tp344
a(S'100001760138460'
S'Naveen Kumar'
tp345
a(S'100005724429358'
S'Arzoo Azad'
tp346
a(S'100006508870984'
S'Muhammad Suhail'
tp347
a(S'100003478662968'
S'Randhir Jha'
tp348
a(S'100001743562142'
S'Love Kush'
tp349
a(S'100007196795635'
S'Geet Bisht'
tp350
a(S'100005830993529'
S'Lalita Kumari'
tp351
a(S'100001886024331'
S'Paul Bilung'
tp352
a(S'100001340314898'
S'Rajeev Ranjan'
tp353
a(S'100001497582905'
S'Nishant Tyagi'
tp354
a(S'100004932875306'
S'Manish Choudhary'
tp355
asS'id'
p356
S'100001164726627'
p357
sS'name'
p358
S'Naveen Choudhary'
p359
s.