(dp1
S'friends'
p2
(lp3
(S'100008186022133'
S'Umar Khan'
tp4
a(S'100002504632964'
S'Rahul Rana G'
tp5
a(S'100008390679010'
S'Anokhi Singhal'
tp6
a(S'100002399449240'
S'Shiva Takkar'
tp7
a(S'100005850395974'
S'Vaibhav Srivastava'
tp8
asS'id'
p9
S'100002399449240'
p10
sS'name'
p11
S'Shiva Takkar'
p12
s.