(dp1
S'friends'
p2
(lp3
(S'100000534527667'
S'Mohd Zamir'
tp4
a(S'100002505826903'
S'Afreen Shaza'
tp5
a(S'100001547381628'
S'Vishal Sharma'
tp6
a(S'100000505330907'
S'Jasim Khan'
tp7
a(S'100003370121778'
S'Shadab Shaikh'
tp8
a(S'100001759689312'
p9
S'Rohit Kumar Gautam'
tp10
a(S'100006191952443'
S'Kunal Rajput'
tp11
a(S'100000530551150'
S'Samson Reddy'
tp12
a(S'100004665998852'
S'Ajeet Kaur'
tp13
a(S'100005532666537'
S'Samiya Khan'
tp14
a(S'100001579338000'
S'Ajay Bhakuni'
tp15
a(S'1779118707'
S'Aakash Vashisht'
tp16
a(S'100002891666517'
S'Sultan Khan'
tp17
a(S'1600206958'
p18
S'Faizan Jamil'
tp19
a(S'100005638298819'
S'Grace Grace'
tp20
a(S'100003570611474'
S'Mohd Nabeel'
tp21
a(S'100003196700420'
p22
S'Mohd Iqbal'
tp23
a(S'100002681823772'
S'Manish Verma'
tp24
a(S'100002196748386'
S'Noor Ahmed Ansari'
tp25
a(S'100001474133553'
S'Ayush Verma'
tp26
a(S'100001793401385'
S'Qasim Umar'
tp27
a(S'100001779323680'
S'Ajay Kumar'
tp28
a(S'100001206016592'
S'Mayank Sharma'
tp29
a(S'100003876441669'
S'Syyed Basim'
tp30
a(S'100001725616080'
S'Niraj Joshi'
tp31
a(S'100000705251234'
S'Adnan Ali'
tp32
a(S'100003017270419'
S'Melvin Babyv'
tp33
a(S'100001304855748'
S'Vijay Singh'
tp34
a(S'100003500098358'
S'Danish Saifi'
tp35
a(S'100002046226559'
S'Juned Siddiqui'
tp36
a(S'100001412301932'
S'Adnan Khan'
tp37
a(S'100001972529137'
S'Ayesha Munib'
tp38
a(S'100001212511037'
S'Rishi Khanna'
tp39
a(S'100000949465949'
S'Rahul Kumar'
tp40
a(S'100002016890559'
S'Rahul Joshi'
tp41
a(S'100000429511914'
S'Himalya Bansal'
tp42
a(S'100001252059634'
S'\\u0646\\u0628\\u06cc\\u0644 \\u0627\\u062d\\u0645\\u062f'
tp43
a(S'100002730561546'
S'R\\u0101hul Chauhan'
tp44
a(S'543457075'
S'Danish \\u062f\\u0627\\u0646\\u064a\\u0634'
tp45
a(S'100001149966186'
S'Vasu Dev'
tp46
a(S'100001942565628'
S'Kamran Hashmi'
tp47
a(S'100002581898074'
S'Amit Singh'
tp48
a(S'100001718771589'
S'Manoj Nikumbh'
tp49
a(S'100002568518441'
p50
S'Abdul Rehman'
tp51
a(S'634238250'
S'Naman Jain'
tp52
a(S'100001415460872'
S'\\u00c5bhishek Mahe\\u00f1dru'
tp53
a(S'100001416252446'
S'Anurag Shukla'
tp54
a(S'100003746948050'
S'Rajat Jain'
tp55
a(S'100005480857837'
S'Vaishali Arora'
tp56
a(S'1793810903'
S'Muhammad Rizwan'
tp57
a(S'100002115930427'
S'Neeraj Upadhyay'
tp58
a(S'100000379875513'
S'Karan Thakur'
tp59
a(S'100001251981593'
S'Adnan Siddiqui'
tp60
a(S'100000136416368'
S'Wasim Raja'
tp61
a(S'100001737653134'
S'Aman Sharma'
tp62
a(S'100000866598379'
S'Mohammad Mujahid'
tp63
a(S'100000020420348'
S'Randhir Singh'
tp64
a(S'1269691006'
S'Avais Khalil'
tp65
a(S'100001110367084'
S'Adnan Khan'
tp66
a(S'100001254404705'
S'Ravinder Kumar'
tp67
a(S'100003970944560'
S'Prashant Vikram Singh'
tp68
a(S'100000972273804'
S'Fahad Khan'
tp69
a(S'100001517983879'
S'Muzzammil Muzzammil'
tp70
a(S'1426312346'
p71
S'Sumera Rehman'
tp72
a(S'100002062281448'
S'Mohd Khan Aqil'
tp73
a(S'100000889692049'
p74
S'Anas Khan'
tp75
a(S'100003533475661'
S'Payal Panchal'
tp76
a(S'100001353393085'
S'Hammad Islam'
tp77
a(S'100000660834333'
S'Mohsin Abdul'
tp78
a(S'100002637973489'
S'Ashok Kumar Roy'
tp79
a(S'100000650299015'
S'Munib Bari'
tp80
a(S'100000579932762'
S'Mohd Hamza'
tp81
a(S'100000689929605'
S'Humair Parvez'
tp82
a(S'728926262'
S'Kshitij Mathur'
tp83
a(S'1099551668'
S'Amit Pandat'
tp84
a(S'100001567986960'
S'Luckyali Ali'
tp85
a(S'100003833204040'
S'Irshad Ali'
tp86
a(S'100001205738565'
S'Asad Khan'
tp87
a(S'100002918419577'
S'Zee Rose'
tp88
a(S'100000689020416'
S'Varun Pasan'
tp89
asS'id'
p90
S'100001812597797'
p91
sS'name'
p92
S'Mohd Kamran'
p93
s.