(dp1
S'friends'
p2
(lp3
(S'100008369854411'
S'Sohan Singh'
tp4
a(S'100008123169922'
S'Vikky Singh'
tp5
a(S'100008347080743'
S'Shivani Singh'
tp6
a(S'100002074380583'
p7
S'Saket Singh Rajput'
tp8
asS'id'
p9
g7
sS'name'
p10
S'Saket Singh Rajput'
p11
s.