(dp1
S'friends'
p2
(lp3
(S'100000141946629'
S'Sam Afghan'
tp4
a(S'100002063391293'
S'Seyar Zaher Kabul'
tp5
a(S'100002477220567'
S'Hamed Ebrahimy'
tp6
a(S'100003811226602'
S'Maryam Wafa'
tp7
a(S'100004099512803'
S'Zarmina Popal Popal'
tp8
a(S'100000836562842'
S'Yalda Jan Ahmad'
tp9
a(S'100001556154440'
S'Furoz Sky'
tp10
a(S'100000624580308'
S'Shahla Kabuli'
tp11
a(S'100004131642407'
S'Waseet John'
tp12
a(S'100001602291638'
S'Lamar Hares Rasouli'
tp13
a(S'100002228080833'
S'Raihana Jamalzada'
tp14
a(S'100007052382792'
S'Zakimshah Zafary'
tp15
a(S'100001786202244'
S'Shabnam Jan'
tp16
a(S'100003107477756'
S'Sonam Singh'
tp17
a(S'100006199963783'
S'Tara Jafari'
tp18
a(S'100001502377058'
S'Tamana Amini'
tp19
a(S'100005740660310'
S'Yemmy Kolade'
tp20
a(S'100003466251419'
S'Vina Maurina'
tp21
a(S'100003177726541'
S'\\u062c\\u0648\\u0627\\u0646\\u0627\\u0646 \\u0645\\u06cc\\u0647\\u0646 \\u06a9\\u0627\\u0628\\u0644 \\u0627\\u0641\\u063a\\u0627\\u0646\\u0633\\u062a\\u0627\\u0646'
tp22
a(S'100003545318882'
S'Waheed Ebady'
tp23
a(S'100004651863011'
S'Dinda Kharisa'
tp24
a(S'100002076387428'
S'Siasi Tabsera'
tp25
a(S'100002131270972'
S'F\\u0158\\u0115sht\\u00e5 \\u00c2\\u00f1g\\u00eal'
tp26
a(S'100004330953625'
S'Samera Shamal'
tp27
a(S'100000510540633'
S'Naib Panhan'
tp28
a(S'100004409744513'
S'Ahle Del'
tp29
a(S'100000626161804'
S'Mahssa Akbari'
tp30
a(S'100002511782467'
S'Arman Khan'
tp31
a(S'100003045485084'
S'\\u0641\\u06cc\\u0627\\u0636 \\u0628\\u062e\\u0634\\u06cc'
tp32
a(S'100000670302175'
S'Neginah Gholami'
tp33
a(S'100001381403548'
S'\\u0633\\u06a9\\u0648\\u062a \\u067e\\u0627\\u06cc\\u06cc\\u0632'
tp34
a(S'100004436556385'
S'Guadaa Gelp'
tp35
a(S'100004065487556'
S'Darkhero Onimraleb'
tp36
a(S'1401665353'
S'A Sayed Hamed Ibrahimi'
tp37
a(S'100002341541845'
S'Shafiullah Qorishi'
tp38
a(S'100002420779370'
S'Mirm Naim Sadat'
tp39
a(S'100004622683339'
S'Marry Barany'
tp40
a(S'100003208681583'
S'Zahra Ali'
tp41
a(S'100001379222511'
S'Ali Ramin Faniad'
tp42
a(S'100002794235880'
S'Abdul Rahman Bakhshi'
tp43
a(S'100003470801434'
S'Fawad Sahebzada Alokozay'
tp44
a(S'100002685672347'
S'Rohullah Faizi'
tp45
a(S'100003346752682'
S'Shaker Shukran'
tp46
a(S'1488930888'
S'Jalal Alimi'
tp47
a(S'100000172618282'
S'Maia Ramos'
tp48
a(S'100005008142098'
S'Nazanin Shokri'
tp49
a(S'517864470'
S'Wahed Abawi'
tp50
a(S'100005324648560'
S'Haji Irshad'
tp51
a(S'100006260250276'
S'Asal Banoo'
tp52
a(S'100000513125324'
S'Nasir Ahmad'
tp53
a(S'100002085311776'
S'Mena Mangal'
tp54
a(S'100005692601585'
S'Ahmad ShahramKhujazada'
tp55
a(S'100001535143538'
S'Yahya Yaqobi'
tp56
a(S'100004091391596'
S'Lamar Hares Rasouli'
tp57
a(S'100003180649318'
S'Soniya Mursal'
tp58
a(S'100003109474892'
S'M Wali Mohmand'
tp59
a(S'100001990081691'
S'Shabnam Jan'
tp60
a(S'100003200490219'
S'Farida Husin'
tp61
a(S'100005304966106'
S'Azimi Zahir'
tp62
a(S'100005480048508'
S'Naim Khudaidad Safi'
tp63
a(S'100001065832663'
S'\\u0644\\u06cc\\u0644\\u0627 \\u062d\\u06cc\\u062f\\u0631\\u06cc'
tp64
a(S'100001514799884'
S'Roman Polad Esapzai'
tp65
a(S'100000168780019'
S'Ariana Bayat'
tp66
a(S'100001160481934'
S'\\u0627\\u0646\\u0633\\u062a\\u06cc\\u062a\\u0648\\u062a \\u0631\\u0647\\u0631\\u0648\\u0627\\u0646 \\u062f\\u0627\\u0646\\u0634'
tp67
a(S'100001094576607'
S'\\u062c\\u0645\\u0644\\u0627\\u062a \\u0632\\u06cc\\u0628\\u0627'
tp68
a(S'100003294289141'
S'Khoshi Khoshe'
tp69
a(S'100004968543469'
S'Nargesnikzad Nikzad'
tp70
a(S'100006114992424'
S'Dey Mah'
tp71
a(S'100006276253526'
S'Mehri Yosefi'
tp72
a(S'100002420455727'
S'Shafiullah Qorishi'
tp73
a(S'1787124976'
S'Shamsurrahman Frough Khurasani'
tp74
a(S'100004704875008'
S'Mursal Rahimi'
tp75
a(S'1249492331'
S'Massihullah Abdul Rahman Rahmani'
tp76
a(S'100005000345048'
S'Laali Gelp'
tp77
a(S'100002961296766'
S'Zabihullah Karokhel'
tp78
a(S'100002864594174'
S'Wazir Ahmad Katawazi'
tp79
a(S'100006346093381'
S'Kimia Ghaznavi'
tp80
a(S'100001385531735'
S'Fayaz Bakhshi'
tp81
a(S'100004206876633'
S'Saba Qabeer'
tp82
a(S'100002708852675'
S'Sultan Qubadi'
tp83
a(S'100003277873118'
S'Rijiya Sultana Khatun'
tp84
a(S'100005111021067'
S'Ahmad Shahram'
tp85
a(S'100003265361123'
S'Ranbeer Choudhary'
tp86
a(S'100000768642955'
S'Khanum Zheela'
tp87
a(S'100003346227730'
S'Nyai Iteung Krawang'
tp88
a(S'100005962355029'
S'Shakib Ebadi'
tp89
a(S'100001235612913'
S'Khalid Abed'
tp90
a(S'100003243334782'
S'Tamana Noor'
tp91
a(S'100003484604315'
S'Karim Razmia'
tp92
a(S'100001580969034'
S'Abdulaziz Rahmaty'
tp93
a(S'100003928107315'
S'\\u062f\\u06cc\\u0646 \\u0645\\u0642\\u062f\\u0633 \\u0627\\u0633\\u0644\\u0627\\u0645'
tp94
a(S'100005713930683'
S'Ahmad Shahram Khujazada'
tp95
a(S'100001132410270'
S'Nagina Mawoj'
tp96
a(S'100004608429891'
S'Samia Sahar'
tp97
a(S'100003212678218'
S'Hamida Wida Sahar Zada'
tp98
a(S'100002758780478'
S'Hassibullah Hashimi'
tp99
a(S'1428065470'
S'Mansoor Sayed'
tp100
a(S'100002070144568'
S'Maryam Yazdani'
tp101
a(S'100001964000544'
S'Arie Gescop'
tp102
a(S'100000895985274'
S'Agus Morales'
tp103
a(S'100003294469363'
S'Afghan Dost'
tp104
a(S'100002156663730'
S'\\u0639\\u0634\\u0642 \\u06af\\u0646\\u0627\\u0647 \\u0646\\u06cc\\u0633\\u062a'
tp105
a(S'1776930362'
S'SaifuRahman Karokhel'
tp106
a(S'100001411541077'
S'Nawid Bakhshi'
tp107
a(S'100006333583435'
S'Waheeduhall Ebady'
tp108
a(S'100001661602970'
S'Fazalwahab Nasiri'
tp109
a(S'100005862878640'
S'Nawab Noori'
tp110
a(S'100003255490828'
S'Mariam Samadi'
tp111
a(S'100000604419055'
S'Zabiullah Habibi'
tp112
a(S'100003397601852'
S'Mozhda Parsi'
tp113
a(S'100002687180178'
S'Azim Sharife'
tp114
a(S'100004537359338'
S'Razie Absalar'
tp115
a(S'100004386908504'
S'Maryam Moradi'
tp116
a(S'100003261561848'
S'Eram Khan'
tp117
a(S'100003810871807'
S'Muhammad Rafi Azami'
tp118
a(S'100003861789523'
S'Hania Sahel'
tp119
a(S'100002129781440'
S'Faiz Lodin'
tp120
a(S'100005588323780'
S'Ahmad Shahram'
tp121
a(S'100002628393065'
S'Yalda Noori'
tp122
a(S'1462279237'
S'Basir Bina'
tp123
a(S'100004855921290'
S'Sami Karemi'
tp124
a(S'100005313967629'
S'Shazia Jann'
tp125
asS'id'
p126
S'100002139707504'
p127
sS'name'
p128
S'Waheed Ebady'
p129
s.