(dp1
S'friends'
p2
(lp3
(S'100008363865547'
S'\\u062d\\u0627\\u062c\\u06cc \\u0631\\u062d\\u06cc\\u0645 \\u0627\\u0644\\u0644\\u0647 \\u067e\\u0648\\u067e\\u0644'
tp4
a(S'100005231850883'
S'Raeeskhan Afghan'
tp5
a(S'100006471962687'
S'Sardar Mohammad'
tp6
a(S'100007235232927'
S'Samiullah Samimi'
tp7
a(S'100002935215948'
S'Javed Zohan'
tp8
a(S'100008323236223'
S'Amina Qurban'
tp9
a(S'100000993339090'
S'Sharif Khadem'
tp10
a(S'100007427023552'
S'Asadullah Wafa'
tp11
a(S'100007312839496'
S'\\u0646\\u06cc\\u06a9 \\u0645\\u062d\\u0645\\u062f \\u0622\\u062f\\u06cc\\u0628'
tp12
a(S'100002529704209'
S'Noorullah Noorzai'
tp13
a(S'100001438966553'
S'Aziz Khan Kakar'
tp14
a(S'100003406602880'
S'Gokul Nath'
tp15
a(S'100003145302226'
S'Anwarulhaq Nizami'
tp16
a(S'1400333062'
S'Abdulahad Sadat'
tp17
a(S'100001053436155'
S'\\u0627\\u062d\\u0645\\u062f\\u0634\\u0627\\u0647 \\u0632\\u06ab\\u06cc\\u0631\\u0648\\u06cc'
tp18
a(S'100003398925712'
S'Ghubar Waak'
tp19
a(S'100005749443811'
S'Saidkarim Sadaat'
tp20
a(S'100001099945260'
S'Hamidullah Barak'
tp21
a(S'100003937018675'
S'Hamdam Kakar'
tp22
a(S'100002647644504'
S'Sabir Ahmad Nangialai'
tp23
a(S'100003075358015'
S'Toryalay Popalzy'
tp24
a(S'100000907936436'
S'Sarhady Zabuly'
tp25
a(S'100007827306380'
S'Musakalim Samsor'
tp26
a(S'100001710061493'
S'Abdulmalik Mulla'
tp27
a(S'100003742702273'
S'Ahmad Yama AL'
tp28
a(S'100001573461415'
S'Alakozai Durrani Spogmai'
tp29
a(S'100006507530541'
S'Laal Mohammad'
tp30
a(S'100002430086421'
S'Omid Abdulahi'
tp31
a(S'100001379814200'
S'Naveed DaudBaridoost'
tp32
a(S'100001524243270'
S'Wahid Popal'
tp33
a(S'100008190822503'
S'\\u0633\\u0631\\u0627\\u062c \\u0627\\u0644\\u062f\\u06cc\\u0646 \\u0633\\u0631\\u0627\\u062c'
tp34
a(S'100005854053310'
S'Azar Azary'
tp35
a(S'100004940824242'
S'Ahdanullah Shahi'
tp36
a(S'100004890222855'
S'Khairullah Oria Khil'
tp37
a(S'100001074098634'
S'Azhar Shaikh'
tp38
a(S'100002655297258'
S'Ahmadullah Ahmadi'
tp39
a(S'100003629894572'
S'Qudratullah Hemat'
tp40
a(S'100006141571154'
S'Nisar Afghanzai'
tp41
a(S'100002265148190'
S'Rashida Saifee'
tp42
a(S'100006441351754'
S'Allawadeen Nasiri'
tp43
a(S'100008080963607'
S'Nasem Alham'
tp44
a(S'100004063250166'
S'Mokhtarahmad Ahmadi'
tp45
a(S'100003861034808'
S'\\u0686\\u0627\\u067e\\u0644\\u0648\\u0633 \\u0686\\u0627\\u067e\\u0644\\u0648\\u0633\\u06cc'
tp46
a(S'100004792393789'
S'Asif Khaliqi'
tp47
a(S'100003839843403'
S'Srk Smk'
tp48
a(S'100002583965345'
S'Salman Pathan'
tp49
a(S'100001492895940'
S'Sami Saddique'
tp50
a(S'100007890395101'
S'\\u0639\\u0635\\u0645\\u062a \\u0627\\u0644\\u0644\\u0647 \\u0639\\u0645\\u0631\\u06cc'
tp51
a(S'100004417211082'
S'Shaheen Sarhadi'
tp52
a(S'100006806405048'
S'Saeed Ullah Yousafzai'
tp53
a(S'100006506148252'
S'Ajmal Azizi'
tp54
a(S'100003904111834'
S'Naseebullah Amani'
tp55
a(S'100008325460468'
S'\\u06af\\u0644 \\u063a\\u0645\\u06cc \\u0627\\u0641\\u063a\\u0627\\u0646'
tp56
a(S'100006607118089'
S'Akhtar Mohammad Amani'
tp57
a(S'100003962960902'
S'Mohammadfaroq Aesakhil'
tp58
a(S'100001642761925'
S'Hakimullah Wafa'
tp59
a(S'100002256223536'
S'Mblc Afghanistan'
tp60
a(S'100006959730829'
S'Nazerulhussain Azary'
tp61
a(S'100007586820132'
S'\\u0627\\u0631\\u0632\\u06ab\\u0627\\u0646 \\u062a\\u0631\\u06cc\\u0646\\u06a9\\u0648\\u067c'
tp62
a(S'100001871317014'
S'Pranav Ranpise'
tp63
a(S'100002519177017'
p64
S'Ahmad Wali Sarhadi'
tp65
a(S'100006393403086'
S'\\u0646\\u0635\\u06cc\\u0628 \\u0627\\u0644\\u0644\\u0647 \\u0633\\u0627\\u062d\\u0644'
tp66
a(S'100003520881668'
S'Najib Wafa'
tp67
a(S'100001828711446'
S'Saboor Grehzan'
tp68
a(S'100004451982645'
S'Abdullah Sherzai'
tp69
a(S'100003135437588'
S'Emal Pasarly'
tp70
a(S'100004973645985'
S'Seydall Naseri'
tp71
a(S'100006497769189'
S'Sadiqullah Sadiqi'
tp72
a(S'100001433596501'
S'Turyallai Sahim'
tp73
a(S'100004867444362'
S'Door Mohammad M'
tp74
a(S'100007229862367'
S'Hamayoun Gharani'
tp75
a(S'100002065718852'
S'Mahe Waris'
tp76
a(S'100008227536454'
S'MohammadNabi Hanifi'
tp77
a(S'100008350092795'
S'\\u06af\\u0631\\u0627\\u0646 \\u0628\\u0627\\u0631\\u06a9'
tp78
a(S'100007451444510'
S'Obaid Nickzad'
tp79
a(S'100004061676313'
S'Shahabaj Shaikh'
tp80
a(S'100002813546833'
S'Shadab Shaikh'
tp81
a(S'100001586441760'
S'Alizada Jayhoun'
tp82
a(S'100002147427175'
S'Niamtullah Faryadi'
tp83
a(S'100002081985512'
S'Abdul Qayoum'
tp84
a(S'100005626396298'
S'Farid Ahmad Ahmadi'
tp85
a(S'100001954908821'
S'Rafiullah Farhadi'
tp86
a(S'100001861702971'
S'Sahel Farhang'
tp87
a(S'100006183664408'
S'Abdul Rashid Rishad'
tp88
a(S'100006463508761'
S'Noorahmad Omarzai'
tp89
a(S'100004623489679'
S'Muhibullah Hamidi'
tp90
a(S'100005111382397'
S'Bashir Ahmad'
tp91
a(S'100007385533778'
S'Alhaq Risalah'
tp92
a(S'100000411171797'
S'Aimal Ajab Zai'
tp93
a(S'100002221233849'
S'Aminullah Badinzai'
tp94
a(S'100005957947626'
S'Pearl Sherzad'
tp95
a(S'100007745130127'
S'Paiwastoon Zhagh'
tp96
a(S'100004328432549'
S'Sayedwali Sadiqi'
tp97
a(S'100001889955456'
S'Wahidullah Oria Khil'
tp98
a(S'100002250578313'
S'Or\\u016bzg\\u0101ni Mohammad Hussein'
tp99
a(S'100005962570167'
S'Rozi Khan Ashna'
tp100
a(S'100003054566662'
S'Azizullah Garniwal'
tp101
a(S'100002523306679'
S'Gulmohammad Alko'
tp102
a(S'100002925407801'
S'Jawid Khpalwak'
tp103
a(S'100001239900127'
S'Khan Zakir'
tp104
a(S'100003026346940'
S'Toryalay Popal'
tp105
a(S'100003298539323'
S'\\u062e\\u0644\\u06cc\\u0644 \\u0627\\u0644\\u0644\\u0647 \\u0648\\u0627\\u06a9\\u0645\\u0646'
tp106
a(S'100003756038575'
S'Svetlana  Komarova'
tp107
a(S'100007765352697'
S'Janan Popal'
tp108
a(S'100000927062713'
S'Namatullah Achackzai'
tp109
a(S'100005589301637'
S'Shershah Muhammadi Kharooti'
tp110
a(S'100001951249761'
S'Baryallai Barai'
tp111
a(S'100001859573698'
S'Nangialay Ghafoory'
tp112
a(S'100006969034257'
S'Samiullah Kaminy'
tp113
a(S'100007790701985'
S'Haji Ali Mohammad Khoshal'
tp114
a(S'100003225177077'
S'Hamidullah Ahmadi'
tp115
a(S'1004189302'
S'Kader M. Gokakkar'
tp116
a(S'100008064342095'
S'Shafiu Llah Shafi'
tp117
a(S'100005045167254'
S'Mohammad Saber Qalamyar'
tp118
a(S'100002757835256'
S'Sher Mpwn'
tp119
a(S'100008321202815'
S'Sanaa Shaikh'
tp120
a(S'100003316192395'
S'Shafiullah Rahimyaar'
tp121
a(S'100001817006634'
S'Ghulamsadiq Sadiq'
tp122
a(S'100000561071670'
S'Nisar Ahmad Arghandwal'
tp123
a(S'100002334093724'
S'Abdul Majed Barak'
tp124
a(S'100001372161634'
S'Mansoor Azizi Andar'
tp125
a(S'100003158439067'
S'Afghan Political'
tp126
a(S'100005334991926'
S'Mirwali Amirzay'
tp127
a(S'100003604166432'
S'Zulmai Asad'
tp128
a(S'100004786920871'
S'Abdulshukoor Hamidi'
tp129
a(S'100002638676200'
S'Nasim Seyyadwal'
tp130
a(S'100001661645054'
S'Najibullah Nasrat'
tp131
a(S'100005262035744'
S'Zamarai Atrafy'
tp132
a(S'1349561759'
S'Dnyanesh Wagh'
tp133
a(S'100003821416887'
S'Jamshid Achakzai'
tp134
a(S'100004001092027'
S'Etilafe Milli'
tp135
a(S'100002166673942'
S'Najeebullah Momand'
tp136
a(S'100002985050974'
S'Rk Gopal'
tp137
a(S'100002932555865'
S'Amanatullah Rahmani'
tp138
a(S'100003784712267'
S'Soona Niloofar Barakzai'
tp139
a(S'100004636206967'
S'Abdal Khan Naseri'
tp140
a(S'100005617324784'
S'Abdulhadi Shadab'
tp141
a(S'100005845870986'
S'Aryan Sherzad Afg Love'
tp142
a(S'100008191866315'
S'Jawid Barakzai'
tp143
a(S'100006437023739'
S'Abdullah Barakzai'
tp144
a(S'100002907502406'
S'Abdul Mohammad Abdali'
tp145
a(S'100002587515592'
S'Eng Azizullah Habibi'
tp146
a(S'100003361571635'
S'Rrd Haqyar'
tp147
a(S'100001892700055'
S'Mustafa Mazlum'
tp148
a(S'100004572726227'
S'Niamatullah Alko'
tp149
a(S'100002184518319'
S'Urozganai Rahimullah'
tp150
a(S'100006494466385'
S'Eng Naseebullah Sadat'
tp151
a(S'100003264046817'
S'Lali Hamidzai'
tp152
a(S'100004462030974'
S'Bilal Hamdard'
tp153
a(S'100008191477738'
S'Mohammad Nasim'
tp154
a(S'100007673144132'
S'Aminullah Wafa'
tp155
a(S'1538611818'
S'Farid Reshtya'
tp156
a(S'100002948753961'
S'Zubee Khatri'
tp157
a(S'100002891642115'
S'Imran Shinwari'
tp158
a(S'100006647910227'
S'Mahmmad Wali Mahmadi'
tp159
a(S'100001251132164'
S'Muhib Hasan'
tp160
a(S'100002295948653'
S'Mohammad Ishaq Zwan Ahmadzai'
tp161
a(S'100003490633043'
S'Rahimullah Pupal'
tp162
a(S'100004247523516'
S'Ezam Karimullah'
tp163
a(S'100003110355080'
S'Asef Khan'
tp164
a(S'100001027150096'
S'Afghan Tiger'
tp165
a(S'100004526291955'
S'Mohammad Nasim Tariq'
tp166
a(S'100003107864221'
S'Noor Mohammad Abdali'
tp167
a(S'100004433022441'
S'Najim Ibrahimi'
tp168
a(S'100003312846335'
S'Rameen Qazikhani'
tp169
a(S'100002756370472'
S'Bashir Watandost'
tp170
a(S'100001892624236'
S'\\u062d\\u0641\\u06cc\\u0638 \\u0627\\u0644\\u0644\\u0647 \\u067e\\u0627\\u0685\\u0648\\u0646'
tp171
a(S'100001359364666'
S'Majeed Hikmat'
tp172
a(S'100005907060465'
S'Rahimullah Arman'
tp173
a(S'100007346172685'
S'\\u0632\\u06cc\\u0646 \\u0627\\u0644\\u0644\\u0647 \\u0634\\u06cc\\u0631\\u0632\\u0627\\u062f'
tp174
a(S'100008362125619'
S'Hikmatullah Himati'
tp175
a(S'100001025735060'
S'Ahmadshah Jawad'
tp176
a(S'100007841711591'
S'Mfahim Azizi'
tp177
a(S'100008073429472'
S'\\u0639\\u0628\\u062f\\u0627\\u0644\\u062e\\u0627\\u0644\\u0642 \\u0641\\u0648\\u0627\\u062f'
tp178
a(S'100001514799884'
p179
S'Roman Polad Esapzai'
tp180
a(S'100003477151155'
S'Sajid Shah'
tp181
a(S'100003183551936'
S'Najibullh Fazli'
tp182
a(S'100003115223377'
S'Farid Stanikzai'
tp183
a(S'100003248985194'
S'Rahmatullah Pashtoon'
tp184
a(S'100007318562370'
S'Abdul Nabi Rhmani'
tp185
a(S'100001024108362'
S'Mohammad Naim Arif'
tp186
a(S'100003676092591'
S'Gullab Shah Wafa'
tp187
a(S'100007561745536'
S'Jamil Ahmad'
tp188
a(S'100006385443356'
S'Naqibullah Moheb'
tp189
a(S'100004788186080'
S'Amna Habib'
tp190
a(S'100002217265190'
S'Halim Noorzai'
tp191
a(S'100004107623053'
S'Habibullah Karimi'
tp192
a(S'100001900034735'
S'\\u0645\\u062d\\u0645\\u062f\\u0639\\u0644\\u06cc \\u0639\\u0645\\u0631\\u06cc'
tp193
a(S'100006500562414'
S'Hamdullah Hamdard'
tp194
a(S'100003688468164'
S'Mohammad Ahmadpour'
tp195
a(S'100006335621021'
S'Abdul Wali Sadat'
tp196
a(S'100004576084581'
S'Nisar Ahmad Alezi'
tp197
a(S'100004222574577'
S'Sulaiman Azami'
tp198
a(S'100006586295708'
S'\\u0627\\u062d\\u0645\\u062f\\u0634\\u0627\\u0647 \\u0628\\u0627\\u0648\\u0631\\u06cc \\u0627\\u0641\\u063a\\u0627\\u0646\\u0633\\u062a\\u0627\\u0646'
tp199
a(S'100007389936462'
S'Ziaullah Sahraie'
tp200
a(S'100007722823414'
S'Khanzada Hedayat'
tp201
a(S'100007821815267'
S'Musajan Zwak'
tp202
a(S'100002738944144'
S'Lokender Parmar'
tp203
a(S'100003167798888'
S'Zia Ahmad'
tp204
a(S'100008210949329'
S'Shawali Sarhadi'
tp205
a(S'100005310125177'
S'Hazrat Shah'
tp206
a(S'100007421290068'
S'Zulmay Zaland'
tp207
a(S'100001811074542'
S'Moin Khan Totakhail'
tp208
a(S'100005613101376'
S'Noor Ahmad Mukhlis'
tp209
a(S'100002314248261'
S'Sadik Nasarjung'
tp210
a(S'100001451735571'
S'Asif Azeem Gudakuwala'
tp211
a(S'100002527973361'
S'Ibrahim Barak'
tp212
a(S'100004835402758'
S'Trupti Sawant'
tp213
a(S'1144659576'
S'Akshay Khenat'
tp214
a(S'100007600867591'
S'Arifullah Zahed'
tp215
a(S'100000524359760'
S'Qudratullah Qudraty'
tp216
a(S'100002230773663'
S'Jan Mohammad Khoshal'
tp217
a(S'100007768474821'
S'\\u0638\\u0627\\u0647\\u0631\\u0634\\u0627\\u0647 \\u0645\\u062e\\u0644\\u0635'
tp218
a(S'1644302571'
S'Gulmohammad Farhad'
tp219
a(S'100006478868214'
S'\\u0645\\u062d\\u0645\\u062f \\u0646\\u0639\\u06d0\\u0645 \\u0639\\u0627\\u0631\\u0641'
tp220
a(S'100001932515677'
S'Farman Ali'
tp221
a(S'100002312609169'
S'Usman Khan'
tp222
a(S'100008072983077'
S'Hamayon Manali'
tp223
a(S'100006636277444'
S'Abdulljalail Khan Barak'
tp224
a(S'100003539917123'
S'Najib Helali'
tp225
a(S'1824728483'
S'Azay Shrestha'
tp226
a(S'100002878906008'
S'Lutfullah Azizi'
tp227
a(S'100003048453280'
S'Habibullah Badinzai'
tp228
a(S'100002904505125'
S'Freshta Barekzai'
tp229
a(S'100003534002412'
S'Samer Hakimi'
tp230
a(S'100001943775441'
S'Ahmad Sallehi'
tp231
a(S'100002270207821'
S'Shafiullah Ansari'
tp232
a(S'100003536615489'
S'Jan Mohammad Baryal'
tp233
a(S'100004040070588'
S'Shir Agha Ashna'
tp234
a(S'100000324728945'
S'Ehsan Omid'
tp235
a(S'100005120829625'
S'Ajmal Khan'
tp236
a(S'100004587243643'
S'Hamayon Alezi'
tp237
a(S'100003360201644'
S'Kumail Zaidi'
tp238
a(S'100007130467689'
S'\\u0632\\u0631\\u063a\\u0648\\u0646\\u0647 \\u0644\\u064a\\u0648\\u0627\\u0644'
tp239
a(S'100002622702938'
S'Obaid Osmani'
tp240
a(S'100007191223108'
S'Najibullah Nasiryar'
tp241
a(S'100007721199023'
S'\\u0639\\u0628\\u062f\\u0627\\u0644\\u0644\\u0647 \\u062d\\u0642\\u0627\\u0646\\u064a'
tp242
a(S'100004198926685'
S'Ahmad Shah Barak'
tp243
a(S'100002073136585'
S'Rahul Balgohare'
tp244
a(S'100005295308723'
S'Mahbobullah Popal'
tp245
a(S'100006490433377'
S'Nangialy Nang'
tp246
a(S'100004606350374'
S'Said Fakhrudin Kalakany'
tp247
a(S'100003570887048'
S'Mukhtar Ahmad Helali'
tp248
a(S'100005776561193'
S'Abdulhalim Haqbin'
tp249
a(S'100000623046524'
S'Abdul Sami Solyman'
tp250
a(S'100002704278728'
S'Jawid Ali'
tp251
a(S'100006180703764'
S'Khail Mohammad'
tp252
a(S'100005221991780'
S'Afghan Educated'
tp253
a(S'678993091'
S'Abdul Nafay Sana'
tp254
a(S'100003197234634'
S'Arif Pedram'
tp255
a(S'100005257110881'
S'Haji Tofan'
tp256
a(S'100001958245018'
S'Sajida Shaikh'
tp257
a(S'100004296817412'
S'Matiullah Wesa'
tp258
a(S'100000279839353'
S'Adv Sneha Patole'
tp259
a(S'100007716728639'
S'\\u062d\\u0643\\u0645\\u062a \\u0627\\u0644\\u0644\\u0647 \\u062e\\u067e\\u0644\\u0648\\u0627\\u0643'
tp260
a(S'100000618023909'
S'Asrar Ahmadi'
tp261
a(S'100004336452825'
S'Ansari Zuber'
tp262
a(S'100002198304225'
S'Naimtullah Faryadi'
tp263
a(S'100008306809058'
S'Muslim Amin Jan'
tp264
a(S'100003318568535'
S'Hayat Khwashal'
tp265
a(S'100003092268500'
S'Amirkhan Barekzai'
tp266
a(S'100001660528773'
S'Shriniwas Lawande'
tp267
a(S'100001695457120'
S'Irshad Sayyad'
tp268
a(S'100005809752370'
S'Baryali Aziz'
tp269
a(S'100003105186905'
S'Sayed Bashir Hashimi'
tp270
a(S'100004689550981'
S'Niamatullah Meenapal'
tp271
a(S'100005367127602'
S'Mohammad Salim Pasarly'
tp272
a(S'100003162129064'
S'Mohammad Naweed Haidary'
tp273
a(S'100004214825271'
S'Zara Khan'
tp274
a(S'100004851247882'
S'\\u0627\\u0631\\u0648\\u0632\\u06af\\u0627\\u0646 \\u0681\\u0648\\u0627\\u0646\\u0627\\u0646'
tp275
a(S'100006032073949'
S'Said Wali Rahmani'
tp276
a(S'100001669368921'
S'Morad Jalali'
tp277
a(S'100006653760607'
S'\\u0628\\u0634\\u06cc\\u0631\\u0627\\u062d\\u0645\\u062f \\u0633\\u0646\\u06ab\\u0631\\u0648\\u0627\\u0644'
tp278
a(S'100004422462225'
S'Montazer Sharafat Shinwari'
tp279
a(S'100004689665865'
S'Abdul Ghafoor Durani'
tp280
a(S'100004232533102'
S'Abdul Habib Habibi'
tp281
a(S'100003105250299'
S'Habib Rahman'
tp282
a(S'100003091276372'
S'Rehan Mulani'
tp283
a(S'100005666881375'
S'Amanullah Sadat'
tp284
a(S'100004057066551'
S'Abdulbaseer Ateaqi'
tp285
a(S'100004050914284'
S'Matiullah TK Prc'
tp286
a(S'100004924171504'
S'Rahmatullah Ahmadzai'
tp287
a(S'100006468559859'
S'\\u062d\\u06a9\\u0645\\u062a \\u0634\\u0627\\u0647 \\u062d\\u0646\\u06cc\\u0641\\u06cc'
tp288
a(S'100006702365633'
S'Nedaulhaq Shamlzai'
tp289
a(S'100007892316978'
S'Ajabkhan Jamal'
tp290
a(S'100006772683082'
S'Asadullah Afghanzi'
tp291
a(S'100007938364797'
S'Rahmatullah Rahat'
tp292
a(S'100006400503222'
S'Abdulhadi Shadab'
tp293
a(S'100003596221181'
S'Abdul Asad'
tp294
a(S'100008301221502'
S'\\u0645\\u0637\\u06cc\\u0639 \\u0644\\u0644\\u0647 \\u0645\\u0637\\u0645\\u06cc\\u0646'
tp295
a(S'100003578172187'
S'Naweed Safi'
tp296
a(S'100001676117528'
S'\\u0632\\u06cc\\u0648\\u0631 \\u062d\\u06cc\\u0627\\u062a\\u06cc'
tp297
a(S'1576764115'
S'ArmAghan Shah'
tp298
a(S'100003994222173'
S'Naqibullah Rohani'
tp299
a(S'100002592458843'
S'Haroon Afghan'
tp300
a(S'100004493826393'
S'En Hayatullah Gharibmal'
tp301
a(S'100002939772940'
S'Afghan Mangal'
tp302
a(S'100002762682982'
S'Abdul Shukoor Basharyar'
tp303
a(S'100003794078437'
S'Sefatullah Bawari'
tp304
a(S'100001682443480'
S'Qudratullah Faiz'
tp305
a(S'100006498309355'
S'Sayed Ahmad'
tp306
a(S'100005206454491'
S'Bashir Ahmad Kamran'
tp307
a(S'100002099564085'
S'Hazratullah Samon'
tp308
a(S'100002932859063'
S'Zahid Ahmad Nasrat'
tp309
a(S'100001499264616'
S'Shakorya Barakzai'
tp310
a(S'100002766249828'
S'AB Hamid Shahab'
tp311
a(S'100003694231931'
S'Obidullah Abid'
tp312
a(S'100002046108947'
S'Farheen SheharAmin'
tp313
a(S'100003540970954'
S'Farid Ahmad Farjad'
tp314
a(S'100003507541364'
S'Alem Ataiy'
tp315
a(S'100007103953680'
S'\\u0631\\u062d\\u064a\\u0645 \\u0627\\u0644\\u0644\\u0647 \\u0698\\u0648\\u0627\\u06a9'
tp316
a(S'100004039077925'
S'Paimohammad Mohammadi'
tp317
a(S'100007912928474'
S'\\ufe8d\\ufed3\\ufed0\\ufe8e\\ufee5 \\ufeb7\\ufe8e\\ufb94\\ufeae\\ufea9\\ufe8d\\ufee5 \\u0627\\u0633\\u0644\\u0627\\u0645\\u06cc \\u0645\\u0639\\u0644\\u0648\\u0645\\u0627\\u062a'
tp318
a(S'100007122004851'
S'Khathem Jan'
tp319
a(S'100005648141677'
S'Ahmad Wares Oryakhel'
tp320
a(S'572006707'
S'Fareed Tanha'
tp321
a(S'100007978210440'
S'Hazrat Wali Rhmani'
tp322
a(S'100002592305838'
S'Prince Tohid'
tp323
a(S'100005566934326'
S'Atiqullah Omar'
tp324
a(S'100004202046008'
S'Mohammad Naseem Safi'
tp325
a(S'100001061658044'
S'Tosif Shaikh'
tp326
a(S'100001507851525'
S'Mohammad Nabi Sherzad'
tp327
a(S'100000857026918'
S'Edress Bina'
tp328
a(S'100003914144937'
S'Abdulghafoor Nikmal'
tp329
a(S'100004965394593'
S'Saifurahman Attal'
tp330
a(S'100008152214199'
S'Saifullah Azimi'
tp331
a(S'100003012559409'
S'Qudratullah Wardak'
tp332
a(S'100004104858512'
S'Farida Besmil'
tp333
a(S'100005064791799'
S'Qudratullah Zaland'
tp334
a(S'100006898084258'
S'Satar Sirat'
tp335
a(S'100002729348134'
S'Mohammad Nafi Rokyal'
tp336
a(S'100004122339059'
S'Sher Mpwn'
tp337
a(S'100004945907204'
S'Azatullah Khapalwak'
tp338
a(S'100007249865413'
S'Niamatullah Agha Watanmal'
tp339
a(S'100001842455709'
S'Noor Ahmad K'
tp340
a(S'100003184015856'
S'Irshad Tamboli'
tp341
a(S'100003019406078'
S'Zahidullah Muhammadi Safi'
tp342
a(S'100002285054476'
S'Aftab Shams Afg'
tp343
a(S'100007337525237'
S'Asadullah Asadi'
tp344
a(S'100000697099452'
S'Aimal Khan Naik Zoi'
tp345
a(S'100002992061391'
S'Nohzat Noorzai'
tp346
a(S'100005109883068'
S'Sadrrd Haqyar'
tp347
a(S'100002715039040'
S'Sabawoon Sozan'
tp348
a(S'100004473661379'
S'Ahmadshah Shaker'
tp349
a(S'100005733640920'
S'\\u0645\\u062d\\u0645\\u062f\\u0639\\u06cc\\u0633\\u0626 \\u0628\\u0627\\u0631\\u06a9\\u0632\\u06cc'
tp350
a(S'100002231015097'
S'Shyambhavi Vineet'
tp351
a(S'100003218674836'
S'Sebghatullah Halimi'
tp352
a(S'100000752046075'
S'Sharifullah Janathi'
tp353
a(S'100004234094225'
S'Omaid Khan Baborzai'
tp354
a(S'100000192655403'
S'Ubaid Ahmady'
tp355
a(S'100007703221617'
S'Mohammad Faqir Asker'
tp356
a(S'100002646234508'
S'Asad Ali'
tp357
a(S'100008152297661'
S'Hamayoon Manali'
tp358
a(S'100004296486333'
S'Ayoob Ahmadzai'
tp359
a(S'100003862457883'
S'Abdulwali Danish'
tp360
a(S'100003700448784'
S'Muhibullah Fazli'
tp361
a(S'100004660860135'
S'Maiwand Safi'
tp362
a(S'100004544887212'
S'Hayatullah Gharibmal'
tp363
a(S'100000936674101'
S'Najibullah Latif'
tp364
a(S'100008311716067'
S'\\u062c\\u0627\\u0646 \\u0627\\u0644\\u0644\\u0647 \\u062c\\u0647\\u0627\\u0646\\u06cc'
tp365
a(S'100004418080226'
S'\\u0627\\u0644\\u062d\\u0627\\u062c \\u0639\\u0628\\u06cc\\u062f\\u0627\\u0644\\u0644\\u0647 \\u0628\\u0627\\u0631\\u06a9\\u0632\\u06cc'
tp366
a(S'100002637065512'
S'Mohammad Nadar Noorzai'
tp367
a(S'100005137537011'
S'Qudratullah Ayoubzada'
tp368
a(S'100003968298649'
S'\\u0648\\u0633\\u06cc\\u0645 \\u0639\\u0627\\u0645\\u0631'
tp369
a(S'100002085311776'
S'Mena Mangal'
tp370
a(S'100001591404814'
S'Nasratullah Hassanzay'
tp371
a(S'100002604297367'
S'Aftab Ahmed Khan'
tp372
a(S'100006705964973'
S'Sayed Momin Hashimi'
tp373
a(S'100001872174212'
S'Shair Shah'
tp374
a(S'100003219579852'
S'Sharif Khan'
tp375
a(S'100005477675974'
S'Mohammad Ismail'
tp376
a(S'100007196320324'
S'Jumakhan Mazlum'
tp377
a(S'100005459015735'
S'Abdul Hadi Shadab'
tp378
a(S'100005163073099'
S'M Nasim Sadat'
tp379
a(S'100004007130037'
S'Abdul Hamid Mobariz'
tp380
a(S'100005136514764'
S'Gul Agha Meenawal'
tp381
a(S'100007475135262'
S'Zainullah Sheirzad'
tp382
a(S'100005551622382'
S'Khalid Ahmed Zai'
tp383
a(S'100001910176022'
S'Mateen Hashmi'
tp384
a(S'100002598967996'
S'Mukhtar Ahmad Dost'
tp385
a(S'100001116708928'
S'\\u0634\\u0631\\u06cc\\u0641 \\u0627\\u0644\\u0644\\u0647 \\u0627\\u0645\\u06cc\\u062f'
tp386
a(S'100005168679355'
S'\\u0639\\u0628\\u062f\\u0627\\u0644\\u0644\\u0647 \\u0633\\u0639\\u0627\\u062f\\u062a \\u0628\\u0627\\u0631\\u06a9'
tp387
a(S'100006463660098'
S'\\u0627\\u0631\\u0632\\u06ab\\u0627\\u0646\\u06cc \\u0681\\u0648\\u0627\\u0646'
tp388
a(S'100006880478358'
S'Ibrahim Shah Karwan'
tp389
a(S'100004650310338'
S'Hazratullah Azami'
tp390
a(S'100000522541837'
S'Hamidullah Jamshidy'
tp391
a(S'100006654734469'
S'Naweed Safi'
tp392
a(S'100001743013493'
S'Toryalai Rahemi'
tp393
a(S'100007791397775'
S'\\u0645\\u062d\\u0645\\u062f\\u0634\\u0631\\u06cc\\u0641 \\u0627\\u0644\\u0647\\u0627\\u0645'
tp394
a(S'100006634744451'
S'Sharmin Khan'
tp395
a(S'100002570609153'
S'\\u0627\\u0646\\u0648\\u0627\\u0631\\u0627\\u0644\\u062d\\u0642 \\u0698\\u0645\\u0646'
tp396
a(S'100007120830258'
S'Safiullah Afghanzy'
tp397
a(S'100004347631082'
S'Niamatullah Shams'
tp398
a(S'100002968282825'
S'Abdul Karim Hakimi'
tp399
a(S'100002309746990'
S'Sayed Ahmad'
tp400
a(S'100000420075720'
S'Harkaran Singh'
tp401
a(S'100001731638216'
S'Toryalay Ayubi'
tp402
a(S'100000396041401'
S'Jamal Nasir Qayomy'
tp403
a(S'100004273658747'
S'Urozgan Chora'
tp404
a(S'100006809974792'
S'Mohammad Azim'
tp405
a(S'100001941996794'
S'Ahsan Paiwand'
tp406
a(S'100005912194350'
S'Namrata Waghmare'
tp407
a(S'100003039508710'
S'Mohamad Ali Mohammadi'
tp408
a(S'100008032871355'
S'Mohmmad Karim Karimi'
tp409
a(S'100002952901705'
S'Noor Rahman Noori'
tp410
a(S'100002704536729'
S'Jolly Tyagi'
tp411
a(S'100000870411431'
S'Ishaq Yaqoobi'
tp412
a(S'100005620994471'
S'\\u062c\\u0627\\u0646 \\u0645\\u062d\\u0645\\u062f \\u0639\\u0645\\u0631\\u0632\\u06cc'
tp413
a(S'100001981334936'
S'Pratiec A Tamhane'
tp414
a(S'100004466550381'
S'Mohammad Mursil Sangerkhaill Hotak'
tp415
a(S'100007861331297'
S'Md Sanaullah'
tp416
a(S'100002579375390'
S'Nasim Heamathzai'
tp417
a(S'100006500143797'
S'Zahirshah Mukhlis'
tp418
a(S'100004399355170'
S'Mana Gul Mukhlis'
tp419
a(S'100001030810039'
S'Mohsin Khan'
tp420
a(S'100004241765007'
S'\\u06a9\\u0646\\u062f\\u0647\\u0627\\u0631\\u06cc \\u06a9\\u0648\\u0646\\u06cc \\u0644\\u0648\\u0686\\u06a9'
tp421
a(S'100001435516223'
S'Naseeb Ahmad Ahmadzai'
tp422
a(S'100001817342583'
S'\\u0633\\u062f\\u06cc\\u0633 \\u0641\\u0631\\u0647\\u0646\\u06af'
tp423
a(S'100002819664670'
S'Samiullah Habibi'
tp424
a(S'100001019784627'
S'Najeebullah Arghistani'
tp425
a(S'100007361769936'
S'Abdul Nasir'
tp426
a(S'100002252439405'
S'Samiullah Mamnun'
tp427
a(S'100001685944263'
S'Shreya Deshpande'
tp428
a(S'100001519303985'
S'Farid Sahibzada'
tp429
a(S'100000165665789'
S'Jalaluddin Hakimy'
tp430
a(S'100006517322930'
S'Dipak Valvi'
tp431
a(S'100000912164096'
S'Ershad Hamid Farhang'
tp432
a(S'100001089805360'
S'Munir Mohammed'
tp433
a(S'100001349426920'
S'Abdul Nafi Afghanzai'
tp434
a(S'100005943001585'
S'Asmat Nickzad'
tp435
a(S'100006508113128'
S'Ataullah Wadan'
tp436
a(S'100002999393430'
S'Ashu Ansari'
tp437
a(S'100004976253148'
S'\\u0639\\u0628\\u062f\\u0627\\u0644\\u0631\\u062d\\u0645\\u0646 \\u0639\\u0627\\u0628\\u062f'
tp438
a(S'100004781975644'
S'Muhibullah Hewad'
tp439
a(S'100001716225556'
S'Manisha Kamur'
tp440
a(S'100007644811447'
S'Nida Mohammad Afghan'
tp441
a(S'100002849978786'
S'Mirwais Khan'
tp442
a(S'100002844282888'
S'Edris Mangal'
tp443
a(S'100004052272092'
S'Qudratullah Popal'
tp444
a(S'100001544975030'
S'Mufeez Ali Khan'
tp445
a(S'100001917871414'
S'Samon Wadan'
tp446
a(S'100002771645881'
S'Nazar Muhammad'
tp447
a(S'100004787970835'
S'Mahmad Nasim Cohsar'
tp448
a(S'100004281253193'
S'Attaoullah Afghan'
tp449
a(S'100007094821284'
S'\\u06af\\u0631\\u0627\\u0646 \\u0627\\u063a\\u0627 \\u0628\\u062e\\u062a\\u0648\\u0631'
tp450
a(S'100003386647233'
S'Noor Afghan'
tp451
a(S'100008082331479'
S'Hakmal Ahmady'
tp452
a(S'100008221871139'
S'Shadab Abdulhadi'
tp453
a(S'100003031320080'
S'Naqibullah Ahmadzai'
tp454
a(S'100006675755390'
S'Enayat Shahir'
tp455
a(S'100007419966248'
S'Hamidullah Watani'
tp456
a(S'100007556803910'
S'Niamatullah Liwal'
tp457
a(S'100006798544013'
S'Abdullah Noori'
tp458
a(S'100006000032182'
S'Rizwan Khan'
tp459
a(S'100005455272089'
S'Ashraf Khan'
tp460
a(S'100001916880706'
S'\\u067e\\u0627\\u06a9 \\u0627\\u0641\\u063a\\u0627\\u0646 \\u062c\\u0631\\u0646\\u0644\\u0633\\u067c \\u0641\\u0648\\u0631\\u0645'
tp461
a(S'100006960780439'
S'Itech Connect Quickbooks Class'
tp462
a(S'100002940794693'
S'Enayatullah Habibi'
tp463
a(S'100001271345469'
S'Abdulhadi Achakzai'
tp464
a(S'100005413657630'
S'Hazratshah Abdali'
tp465
a(S'100001226721278'
S'Mohammad Omer Kunduzi'
tp466
a(S'100002116976755'
S'Aimal Aqtash'
tp467
a(S'100006775415888'
S'\\u0647\\u0645\\u0633 \\u0627\\u0644\\u0632\\u0647\\u0648\\u0631'
tp468
a(S'100004673283863'
S'Zrin Memon'
tp469
a(S'100004041156393'
S'Hamidullah Wali'
tp470
a(S'100001624760007'
S'Habibullah Rahmat'
tp471
a(S'100003563027769'
S'Urozgan Urozganyouth'
tp472
a(S'100003347522364'
S'Leon Bone'
tp473
a(S'100005238186352'
S'Nikki Nikita'
tp474
a(S'100003151899919'
S'Mudasir Hamdard'
tp475
a(S'100004065903944'
S'Umid Jan'
tp476
a(S'100007697652033'
S'Shamsullah Tofan'
tp477
a(S'100004211351503'
S'Akhtar Mohammad'
tp478
a(S'100006744034160'
S'Abdulbasir Shirzad'
tp479
a(S'100001379276935'
S'Dilawar Achakzai'
tp480
a(S'100001509442401'
S'Noor Mohammad Noori'
tp481
a(S'100001335545036'
S'Rahmani Bary'
tp482
a(S'100007086907220'
S'Karimullah Haqani'
tp483
a(S'100007289413174'
S'M Usman Gani'
tp484
a(S'100005396191709'
S'Zain Haider'
tp485
a(S'100002604832705'
S'Rahim Zurmatai'
tp486
a(S'100008149935109'
S'Shafiq Khan Abdullahi'
tp487
a(S'100008008740991'
S'Saifullah Achakzai'
tp488
a(S'100002385358706'
S'\\u062d\\u0645\\u06cc\\u062f\\u0627\\u0644\\u0644\\u0647 \\u0645\\u0644\\u062a\\u06cc\\u0627\\u0631'
tp489
a(S'100007792573278'
S'\\u0646\\u0648\\u0631\\u0622\\u063a\\u0627 \\u0628\\u0627\\u0648\\u0631\\u064a'
tp490
a(S'100004748941088'
S'Zalmuy Hamidi'
tp491
a(S'1476583345'
S'Yash Ktbffh Khole'
tp492
a(S'100003382601966'
S'\\u067e\\u0627\\u0685\\u0648\\u0646 \\u0628\\u0627\\u0631\\u06a9\\u0632\\u06cc'
tp493
a(S'100006469481879'
S'Ismayil Tanha'
tp494
a(S'100000822731946'
S'Najeebullah Ahmadi'
tp495
a(S'100004230060973'
S'Ezatullah Popal'
tp496
a(S'100000597600976'
S'Tawoos Penhan'
tp497
a(S'100000851975178'
S'Haji Qudratullah Rahimi'
tp498
a(S'100007367761744'
S'Ajunaid Loodin'
tp499
a(S'100004115709230'
S'Abdul Qadeer Mutfi'
tp500
a(S'100008212966525'
S'\\u062e\\u06cc\\u0627\\u0644 \\u0645\\u062d\\u0645\\u062f \\u0638\\u0641\\u0631\\u06cc'
tp501
a(S'100006302917938'
S'Abdulrahim Halimi En'
tp502
a(S'100006693601930'
S'Karimullah Alokozai'
tp503
a(S'100002420480899'
S'Bk Chaman'
tp504
a(S'100002906351055'
S'Nasrat Sadpopal'
tp505
a(S'100004864151732'
S'Noman Ali Ahmadzai'
tp506
a(S'100006938110456'
S'Zulmai Bawari'
tp507
a(S'100004429980104'
S'Mohammad Baryal'
tp508
a(S'100004302062483'
S'Afsarkhan Askarzai'
tp509
a(S'100006549612588'
S'Naseem Shaikh'
tp510
a(S'100007586170924'
S'Ahmad Pupal'
tp511
a(S'100002188565750'
S'Tufail Basiri'
tp512
a(S'100001728835298'
S'\\u0698\\u0645\\u0646 \\u0645\\u06cc\\u0631\\u0632\\u06a9\\u0648\\u0627\\u0644'
tp513
a(S'100000504892239'
S'\\u0645\\u062d\\u0645\\u0648\\u062f \\u0633\\u0639\\u06cc\\u062f'
tp514
a(S'100001432257112'
S'Atiqullah Atif'
tp515
a(S'100007855443138'
S'Shamsullah Afghan'
tp516
a(S'100007401882974'
S'Shafiqullah Moshfiq'
tp517
a(S'100002459761008'
S'Abdul Hamid Khan'
tp518
a(S'100002739030759'
S'Hafizullah Omari'
tp519
a(S'100007997170147'
S'Najibullah Kamran'
tp520
a(S'100004539363444'
S'Mely Newsroom'
tp521
a(S'100008339228517'
S'\\u06af\\u0644 \\u063a\\u0645\\u06cc \\u0627\\u0641\\u063a\\u0627\\u0646'
tp522
a(S'100003670822460'
S'Karimullah Rahemi'
tp523
a(S'100001560522500'
S'Gorakh Tonage'
tp524
a(S'100000115408392'
S'Habibulrahman Achakzai'
tp525
a(S'100003127567963'
S'Naseebullah Shirzai'
tp526
a(S'100003285315628'
S'Masood Saber'
tp527
a(S'100002586635630'
S'Swapnil Girme'
tp528
a(S'100007682436025'
S'\\u0645\\u0646\\u06cc\\u0631 \\u0627\\u0641\\u063a\\u0627\\u0646'
tp529
a(S'100004367706783'
S'Salehmuhammad Kamran'
tp530
a(S'100002674237872'
S'Chaitrali Kawade'
tp531
a(S'100006697538056'
S'Israr Nizami'
tp532
a(S'100003093128650'
S'Kabir Sadat'
tp533
a(S'100006864792499'
S'Mohammad Saleem Sangeen'
tp534
a(S'100004735741353'
S'Latif Latif'
tp535
a(S'100001903831547'
S'Chava Saikrishna'
tp536
a(S'100004933001353'
S'Hamid Jalalzay'
tp537
a(S'100003116084761'
S'Mohammadreza Nazari'
tp538
a(S'100008214523737'
S'Makbar Zaher'
tp539
a(S'100003694523206'
S'Ezatullah Hamedi'
tp540
a(S'100006350917903'
S'Shabnam Dalil'
tp541
a(S'100007648958072'
S'Abdulghafar Zaher'
tp542
a(S'100002473496993'
S'Affroza Shaikh'
tp543
a(S'100002276389125'
S'Ahmad Shah Barak'
tp544
a(S'100003311644569'
S'Lutfullah Musadiq'
tp545
a(S'100008369470308'
S'Sayed Ahmad'
tp546
a(S'100001972420077'
S'Faqir M Sturiy'
tp547
a(S'100002987971405'
S'Ziaulhaq Zia'
tp548
a(S'100002873756491'
S'Marwan Ullah Rayhan'
tp549
a(S'100007206967347'
S'Ahmad Alkozai'
tp550
a(S'100005307152697'
S'Pashtoon Afghan'
tp551
a(S'100008044482077'
S'Samira Shaikh'
tp552
a(S'100004080708372'
S'Hazratullah Khan'
tp553
a(S'100007938762843'
S'Asad Ullha'
tp554
a(S'100005734412919'
S'\\u0627\\u062d\\u0645\\u062f\\u0634\\u0627\\u0647 \\u0628\\u0627\\u0631\\u06a9\\u0632\\u06cc'
tp555
a(S'100008265947546'
S'Faisal Shagiwal'
tp556
a(S'100005638001671'
S'Walidad Wesaa'
tp557
a(S'100007808191407'
S'Salih Mohammad Sadaqat'
tp558
a(S'100001897179448'
S'Osman Shirzad'
tp559
a(S'100004311158109'
S'Ahmadshah Salangi'
tp560
a(S'100003334177012'
S'Ziyan Nur Widia Kamila'
tp561
a(S'100001768408696'
S'Wasiq Formuly'
tp562
a(S'100004921782069'
S'Niamatullah Liwal'
tp563
a(S'100007750959824'
S'M Rsool Faizani'
tp564
a(S'100004089996843'
S'Qahar Lghmani Alishangi'
tp565
a(S'1686146100'
S'Obaid Khalid Sabori'
tp566
a(S'100004245730234'
S'Azharoddin Kazi'
tp567
a(S'100004087884140'
S'Kale Sandhya'
tp568
a(S'100004288272920'
S'Najibullah Darmal'
tp569
a(S'100003130661053'
S'Mohmand Wafa'
tp570
a(S'100002737026441'
S'Masoom Taand'
tp571
a(S'100006387614263'
S'Mohammad Shafiq Shoueb'
tp572
a(S'100004330805394'
S'Khan Popalzi'
tp573
a(S'100001272972350'
S'Mohammad Kefayee'
tp574
a(S'100006368703518'
S'Pasarli Dawari'
tp575
a(S'100004162386680'
S'Hidayat Ullah Noori'
tp576
a(S'100008225640686'
S'Hekmatullah Hakemi'
tp577
a(S'1417003348'
S'Dawood Laeeq'
tp578
a(S'100002101091953'
S'Ajmal Wesal'
tp579
a(S'100001752275067'
S'Aslam Ashraf Ishaqzai'
tp580
a(S'100004577495532'
S'Shahabaj Shaikh'
tp581
a(S'100001961905209'
S'Anuj Singh'
tp582
a(S'100005501353812'
S'Tandey Heley'
tp583
a(S'100007373523645'
S'Sher Ahmad'
tp584
a(S'100004455907952'
S'Masoom Rahmani Aloko'
tp585
a(S'100004917152805'
S'Arghawan Amiry'
tp586
a(S'100003988488128'
S'Naqeebullah Habibi'
tp587
a(S'100007654293102'
S'\\u0639\\u0635\\u0645\\u062a \\u0627\\u0644\\u0644\\u0647 \\u0631\\u062d\\u06cc\\u0645\\u06cc'
tp588
a(S'100006805290820'
S'Atiqullah Muhammadi'
tp589
a(S'100002572183529'
S'Sneha Tiwari'
tp590
a(S'100006751537518'
S'\\u062e\\u0627\\u0644\\u062f \\u0627\\u062d\\u0645\\u062f \\u0647\\u0645\\u062f\\u0631\\u062f'
tp591
a(S'100006601171770'
S'Ismail Barakzi'
tp592
a(S'100003182151404'
S'Ezatullah Lathefi'
tp593
a(S'100003795603039'
p594
S'\\u0646\\u0635\\u06cc\\u0631 \\u0633\\u0644\\u0637\\u0627\\u0646 \\u0632\\u0648\\u06cc'
tp595
a(S'100007985432641'
S'Karimullah Haqani'
tp596
a(S'100004535052730'
S'Hamayoon Abid'
tp597
a(S'100001738528357'
S'Ruhullah Hamraz'
tp598
a(S'100006491640265'
S'Sharafullden Sharafat'
tp599
a(S'100003148059304'
S'Manas Patole'
tp600
a(S'100004295550495'
S'Abdullah Noore'
tp601
a(S'100004648267007'
S'Watandoost Abdul Hameed'
tp602
asS'id'
p603
S'100002906574049'
p604
sS'name'
p605
S'Shir Mohammad Afghanzai'
p606
s.