(dp1
S'name'
p2
S'Bishwanath Jha'
p3
sS'current_class'
p4
S'india'
p5
sS'home_class'
p6
Vpatna, bihar, india
p7
sS'home_text'
p8
VPatna, India\u000aHometown
p9
sS'current_link'
p10
Vhttps://www.facebook.com/l.php?u=https%3A%2F%2Fwww.bing.com%2Fmaps%2Fdefault.aspx%3Fv%3D2%26pc%3DFACEBK%26mid%3D8100%26where1%3D22.569700842892%252C%2B88.368530273438%26name%3DCalcutta%252C%2BIndia%26mkt%3Den-IN&h=_AQGOt-RO&s=1
p11
sS'home_link'
p12
Vhttps://www.facebook.com/l.php?u=https%3A%2F%2Fwww.bing.com%2Fmaps%2Fdefault.aspx%3Fv%3D2%26pc%3DFACEBK%26mid%3D8100%26where1%3D25.611000475074%252C%2B85.142669677734%26name%3DPatna%252C%2BIndia%26mkt%3Den-IN&h=2AQFf-Unt&s=1
p13
sS'current_text'
p14
VCalcutta, India\u000aCurrent City
p15
sS'friends'
p16
(lp17
(S'1268415419'
S'Sangeeta Singh'
tp18
a(S'1325319960'
S'Brahma Prakash Gaur'
tp19
a(S'1136147044'
S'Anand Kishore'
tp20
a(S'1118079820'
S'Arvind Singh'
tp21
a(S'100003818923169'
S'Dibakar Chatterjee'
tp22
a(S'1609951241'
S'Vidhu Shekher Singh'
tp23
a(S'100000468823739'
S'BV Gopinath'
tp24
a(S'625135916'
S'Girish N Pande'
tp25
a(S'1079453739'
S'Karun K Ojha'
tp26
a(S'647378301'
S'Ashutosh Rajhans'
tp27
a(S'1470785623'
S'Sunil KumarJha'
tp28
a(S'100001838326861'
S'Pranab Kumar Das'
tp29
a(S'1567385476'
S'Yagya Dutt Sharma'
tp30
a(S'816969061'
S'Anshu Prakash'
tp31
a(S'1409795991'
S'Hemant Sarangi'
tp32
a(S'1393880668'
S'Wasim Haque'
tp33
a(S'729990414'
S'Sk Singh'
tp34
a(S'1496400927'
S'Shyam Benupani'
tp35
a(S'529360729'
S'Debashis Chakraborty'
tp36
a(S'1003793720'
S'Paramjeet Singh'
tp37
a(S'713654528'
S'Nivedita Prasad'
tp38
a(S'1340746858'
S'Urvashi Saxena'
tp39
a(S'100001448555634'
S'Gs Singh'
tp40
a(S'100001575380801'
S'Javeed Ahmad'
tp41
a(S'100000820762320'
S'Jk Mishra'
tp42
a(S'100000889316695'
S'Srinivas Donigiri'
tp43
a(S'738539735'
S'Deepak Tralshawala'
tp44
a(S'517669950'
S'Sanjay Bhatia'
tp45
a(S'1470420576'
S'Raj Kumar'
tp46
a(S'684104354'
S'Asit Singh'
tp47
a(S'625071608'
S'Rajiv Gauba'
tp48
a(S'100008101650375'
S'Bir Chandra Srivastava'
tp49
a(S'100002628310148'
S'Vivek Wadekar'
tp50
a(S'1428332344'
S'Laxmi Narayan Pant'
tp51
a(S'100001043915438'
S'Jyoti Kumari'
tp52
a(S'567708456'
S'Shishir Srivastava'
tp53
a(S'1766709413'
S'Binod Kumar'
tp54
a(S'734608651'
S'Anadee Nath Misshra'
tp55
a(S'543760762'
S'Anand Kumar Kedia'
tp56
a(S'1548605393'
S'Satish Sharma'
tp57
a(S'578140727'
S'Akhileshwar Sahay'
tp58
a(S'1623427993'
S'Prafulla Mishra'
tp59
a(S'100006313929082'
S'Sudhir Chandra'
tp60
a(S'1431387635'
S'Dilip Desai'
tp61
a(S'1048152953'
S'Bala Krishnan'
tp62
a(S'570714476'
S'Diwesh Sharan'
tp63
a(S'561431554'
S'Sudhanshu Dhar Mishra'
tp64
a(S'100004050878532'
S'Ratnesh Sahay'
tp65
a(S'1057808456'
S'Ramesh Narain Parbat'
tp66
a(S'100001034319263'
S'Udai Kumar'
tp67
a(S'100002020612984'
S'Chandraprakash Saroj'
tp68
a(S'1587991248'
S'Virendra Ojha'
tp69
a(S'789468621'
S'Arun S Bhatnagar'
tp70
a(S'574502956'
S'Samir Tekriwal'
tp71
a(S'595430971'
S'Adeel Hasan'
tp72
a(S'663196732'
S'Vimalendu Verma'
tp73
a(S'100000126657856'
S'Md Mohsin Alam'
tp74
a(S'1607921652'
S'Shri Prakash Dubey'
tp75
a(S'729859750'
S'Krishna Mohan Prasad'
tp76
a(S'1626159715'
S'Anurag Sahay'
tp77
a(S'633209247'
S'Vineet Agrawal'
tp78
a(S'833104423'
S'Shishir Jha'
tp79
a(S'100000463136550'
S'Devi Prasad Uppuleti'
tp80
a(S'1277236948'
S'Ansuman Pattnaik'
tp81
a(S'1037131183'
S'Vijay Kumar'
tp82
a(S'100000688716691'
S'Dhruv Singh'
tp83
a(S'765762932'
S'Rakesh Gupta'
tp84
a(S'100002448528845'
S'Archana Choudhary'
tp85
a(S'1501090036'
S'Surinder Jit Singh'
tp86
a(S'100002239378115'
S'Novel Roy'
tp87
a(S'1489680635'
S'Niraj N. Kumar'
tp88
a(S'742099446'
S'Vivek Anand Perampurna'
tp89
a(S'100007251662419'
S'Srinivas Danda'
tp90
a(S'1427071599'
S'Ashok Bal'
tp91
a(S'678921450'
S'Mini Verma'
tp92
a(S'1415598660'
S'Sunil Ojha'
tp93
a(S'100005860832403'
S'Raghubir S Upadhyay'
tp94
a(S'1710761905'
S'Ashok Kumar Tripathi'
tp95
a(S'100000159486283'
S'Ashok Jha'
tp96
a(S'100000280374252'
S'Anand Upadhyay'
tp97
asS'id'
p98
S'100000661325471'
p99
s.