(dp1
S'friends'
p2
(lp3
(S'100001036228474'
S'Imran Qureshi'
tp4
a(S'100001221412753'
S'Dechen Tsomo'
tp5
a(S'100005807924363'
S'Pritika Nagi'
tp6
a(S'1104122810'
S'Geetanjali Bahadur'
tp7
a(S'100003125131047'
S'Disha Sargotra'
tp8
a(S'100007637772694'
S'Mohammad Yasir'
tp9
a(S'100001554010706'
S'Saransh Bhardwaj'
tp10
a(S'100001444040114'
S'Saquib Ahmad'
tp11
a(S'1341159963'
S'Tanmay Ladkani'
tp12
a(S'1506341429'
S'Sheel Pathak'
tp13
a(S'1304161362'
S'Karan Gupta'
tp14
a(S'100002206688358'
S'Syed Rizvi'
tp15
a(S'100001616478564'
S'Abhishek Pratap'
tp16
a(S'100005438592945'
S'Nikita Srivastav'
tp17
a(S'100001567637950'
S'Vani Kanojia'
tp18
a(S'100003939105382'
S'Niharika Khandelwal'
tp19
a(S'100000421937849'
S'Sabiha Tajir'
tp20
a(S'1371082718'
S'Garima Vatwani'
tp21
a(S'100002438117206'
S'Piyu Gusain'
tp22
a(S'100000968686080'
S'Karan Mago'
tp23
a(S'100003183210530'
S'Nitika Sethi'
tp24
a(S'100000600106502'
S'Rajat Dwivedi'
tp25
a(S'100003217402604'
S'Lipika Chetia'
tp26
a(S'592140762'
S'Shuchi Sharma'
tp27
a(S'100003202143389'
S'Ankit Krishna Gautam'
tp28
a(S'100001407197315'
S'Prince Kumar'
tp29
a(S'100000531767380'
S'Gulzar InsoMniac'
tp30
a(S'100000226805363'
S'Mehak Broota'
tp31
a(S'100002582575816'
S'Sourabh Sharma'
tp32
a(S'1622552895'
S'Ashish Gahlot'
tp33
a(S'100002575238143'
S'JaZz JaNe'
tp34
a(S'1724427994'
S'Safoora Shaikh'
tp35
a(S'100003829774891'
S'Rachit Bansal'
tp36
a(S'100001941009395'
S'Samar Verma'
tp37
a(S'100000201965115'
S'Minny Bhatia'
tp38
a(S'1815992819'
S'Shan Mohd'
tp39
a(S'100001028026928'
S'Sumit Sinha'
tp40
a(S'100001202737971'
S'Suhani Khurana'
tp41
a(S'522618079'
S'Junaid Nv'
tp42
a(S'100002969528848'
S'Azaz Fatma Rizvi'
tp43
a(S'100000127870231'
S'Sualeh Khan'
tp44
a(S'100005979730673'
S'Mridul Sharma'
tp45
a(S'100006285911464'
S'Rahul Arya'
tp46
a(S'1182530503'
S'Shivangi Jain'
tp47
a(S'100001164305901'
S'Utkarsh Ratnakar'
tp48
a(S'1379120810'
S'Chathushka Kiriella'
tp49
a(S'549239668'
p50
S'Akshay Awasthi'
tp51
a(S'100001641751524'
S'Ajay Mahto'
tp52
a(S'1817170980'
S'Ambika Nayyar'
tp53
a(S'100001953293973'
S'Mohit Kumar'
tp54
a(S'100000075565756'
S'Nandini Sethia'
tp55
a(S'100002045825430'
S'Sohit Jatain'
tp56
a(S'100004315290370'
S'Brajesh Kashyap'
tp57
a(S'100000798949154'
S'Misha Sabreen'
tp58
a(S'100001655659334'
S'Bosco Esho'
tp59
a(S'1186747204'
S'Pritish Khosla'
tp60
a(S'100000523813186'
S'Aakriti Saini'
tp61
a(S'100001481192893'
S'Tariq Jamal'
tp62
a(S'100001055002206'
S'Gurpreet Singh'
tp63
a(S'100001901903027'
S'Pradeep Kumar'
tp64
a(S'100001714872510'
S'Abha Sagar'
tp65
a(S'100001467372724'
S'Ashima Gaba'
tp66
a(S'100001765912101'
S'Hasan Sheikh'
tp67
a(S'100003282766920'
S'Shubham Sharma Shubh'
tp68
a(S'100002480624366'
S'Saurabh Mishra'
tp69
a(S'1382160612'
S'Rahul Maurya'
tp70
a(S'100000073463507'
S'Diksha Arora'
tp71
a(S'100001378559046'
S'Apurve Agarwal'
tp72
a(S'100001108080102'
S'Paras Goel'
tp73
a(S'100000425008709'
S'Namrata Bharti'
tp74
a(S'100000265954136'
S'Dharmendra Kumar'
tp75
a(S'634185664'
S'Rohi Bashir'
tp76
a(S'100001246163238'
S'Gaurav Mittal'
tp77
a(S'100001130915420'
S'Ayaz Ahmad'
tp78
a(S'100006487803838'
S'Govind Mishra'
tp79
a(S'100002728051600'
S'Anand Kr'
tp80
a(S'100006693880830'
S'Vishnu Yadav'
tp81
a(S'1237296729'
S'Upasana Dhanda'
tp82
a(S'100001715229127'
S'Prashant Kr Gupta'
tp83
a(S'100006056706296'
S'Archit Arora'
tp84
a(S'1807098232'
S'Mohammad YasIr'
tp85
a(S'713671623'
S'Hasnain Rizvi'
tp86
a(S'1594127690'
S'Jibran Ali Khan'
tp87
a(S'1714881048'
S'Bilal Ahmed'
tp88
a(S'100002329156162'
S'Ranjeet Agarwal'
tp89
a(S'100007042836560'
S'Anuja Srivastav'
tp90
a(S'100001483272801'
S'Prachi Chakravarty'
tp91
a(S'100000162780839'
S'Pranay Tayal'
tp92
a(S'100002059588625'
S'Mansi Garg'
tp93
a(S'100002589100949'
S'Dharmender Kumar'
tp94
a(S'723171921'
S'Aanchal Jain'
tp95
a(S'100001821936898'
S'Rajvir Singh'
tp96
a(S'1683152466'
S'Manish Juneja'
tp97
a(S'1256289546'
S'Ishu Nagpal'
tp98
a(S'100003210267279'
S'Nitesh Hooda'
tp99
a(S'100002364858112'
S'Pradeep Kumar'
tp100
a(S'100002728878754'
S'Ashish Gautam'
tp101
a(S'100001280148840'
S'Aqsa Ikram'
tp102
a(S'100000782256747'
S'Antara Ghosh'
tp103
a(S'100003866787896'
S'Akshay Johri'
tp104
asS'id'
p105
S'100001895845145'
p106
sS'name'
p107
S'Haider Rizvi'
p108
s.