(dp1
S'friends'
p2
(lp3
(S'100005449324755'
S'Fakhar E Pakstan'
tp4
a(S'100000289807694'
p5
S'Ghazi Ya Shaheed'
tp6
a(S'100005884149538'
S'Ghulam Foji'
tp7
a(S'100000855893825'
p8
S'Fatima Shah'
tp9
a(S'100005170020370'
p10
S'Mussab Umair'
tp11
a(S'100006664364435'
S'Muhammad Azeem'
tp12
a(S'100004680819975'
S'Sher E Pakistan'
tp13
a(S'100003949981402'
S'Pyara Pakistan'
tp14
a(S'100004276362041'
S'Asghar Najeeb'
tp15
a(S'100006021971196'
S'Pak Ssg Commando'
tp16
a(S'100002044123592'
p17
S'Pak Pakistan'
tp18
a(S'100000979062472'
p19
S'Hamid Qureshi'
tp20
a(S'100002707297429'
p21
S'Pakistan Zindabad InshaAllah'
tp22
a(S'100005414799852'
S'Mohammad Ibrahim'
tp23
a(S'100004736496129'
p24
S'Janbaz Force'
tp25
a(S'100005383384314'
p26
S'Bilawal Gondal'
tp27
a(S'100004408231439'
p28
S'Zakar Baloch'
tp29
a(S'100000932260407'
S'MyheartPakistan Pakistan'
tp30
a(S'100004210474754'
S'Real Baloch'
tp31
a(S'100003865266549'
S'Sara Khan'
tp32
a(S'100003184762004'
S'Muqddas Gilani'
tp33
a(S'100004691940313'
S'Maheen Ali'
tp34
a(S'100002258061964'
S'Khawaja M. Tariq'
tp35
a(S'100007036419804'
S'Ali Gulkeerio'
tp36
a(S'100000295753887'
S'Pakistan Zindabad'
tp37
a(S'100005915983545'
p38
S'Jeay Pakistan'
tp39
a(S'100006110467666'
S'Saima Gull'
tp40
a(S'100006481796878'
S'Ali Ali'
tp41
a(S'100005114654513'
p42
S'Dil Dil Pakistan'
tp43
a(S'100005682943284'
S'\\u067e\\u0627\\u06a9\\u0633\\u062a\\u0627\\u0646 \\u0645\\u06cc\\u0631\\u06cc \\u062c\\u0627\\u0646'
tp44
a(S'100005755964123'
S'Mohammed Ali'
tp45
a(S'100003306333365'
p46
S'Markaz E Yakeen Pakistan'
tp47
a(S'100005451963932'
S'Isi Pakistan'
tp48
a(S'100005552340450'
S'Nifaz E Aman Balochistan'
tp49
a(S'636034353'
p50
S'Pakistan Tuje Salaam'
tp51
a(S'100005471347862'
S'Hamza Jaleel'
tp52
a(S'100007170601590'
S'Man On Mission'
tp53
a(S'100006733953994'
S'Abu Mohammad'
tp54
a(S'100004564626059'
p55
S'Pakistani-Hai Koi Hum Jaisa'
tp56
a(S'100005845663123'
S'Stylo Sahil'
tp57
a(S'100006133681328'
p58
S'True Islam'
tp59
a(S'100005261981869'
S'Murad Baloch'
tp60
a(S'100004012977296'
p61
S'Pakistan Hamari Jan'
tp62
a(S'100006071050799'
p63
S'Mera Ishq Pakistan'
tp64
a(S'100004918657954'
S'Proud Pak Kashmiri'
tp65
a(S'100003308143004'
S'\\u0648\\u0633\\u06cc\\u0645 \\u0639\\u0628\\u0627\\u0633 \\u067e\\u0631\\u0627\\u0686\\u06c1'
tp66
a(S'100004738118613'
p67
S'Ahmed Bakhsh'
tp68
a(S'100006237606748'
S'Amjad Baloch'
tp69
a(S'100003116490376'
p70
S'Sajjad Khan'
tp71
a(S'100000851912458'
p72
S'Pakistan Zindabad Pakistan Paindabad'
tp73
a(S'100006518919079'
p74
S'Pak Serzameen'
tp75
a(S'100000837167775'
p76
S'Pakistan Zindabad'
tp77
a(S'100005990111779'
p78
S'Pak Lion'
tp79
a(S'100002927333185'
p80
S'Gumnaam Spahi'
tp81
a(S'100004604223985'
p82
S'Usman Khan Yousaf Zai'
tp83
a(S'100002191962077'
p84
S'Jmj Sialkot'
tp85
a(S'100005967189229'
S'Mohammad Inam Khan'
tp86
a(S'100000185346262'
p87
S'Drmubeen Ahmad'
tp88
a(S'100004100195467'
p89
S'Unite Pakistanis'
tp90
a(S'100003735374581'
S'Pak Baloch'
tp91
a(S'100004577954414'
p92
S'Pakistanii Tiger'
tp93
a(S'100006352024704'
S'Zaheer Awan'
tp94
a(S'100006490308342'
S'Aashiq Khan'
tp95
a(S'100006676722441'
S'Raja Naveed'
tp96
a(S'100004455460985'
p97
S'Rabia Baloch'
tp98
a(S'100001754675723'
S'Pakistan Zindabad'
tp99
a(S'100003362084465'
S'Azra Bashir'
tp100
a(S'100004508880253'
p101
S'Dill Dill Pakistann'
tp102
a(S'100003291379255'
p103
S'Pak Sarzameen'
tp104
a(S'100003931025312'
p105
S'Muhammad Sadiq'
tp106
a(S'100005432199799'
S'\\u0a2a\\u0a30\\u0a40\\u0a24 \\u0a2e\\u0a30\\u0a1c\\u0a3e\\u0a28\\u0a40\\u0a02'
tp107
a(S'100005700820606'
p108
S'Pak Faujh Jawan'
tp109
a(S'100004043241469'
p110
S'Zndabad Pak Watun'
tp111
a(S'100007328015999'
S'Zia Ulhaq'
tp112
a(S'100006907922505'
S'Azam Ali'
tp113
a(S'100002768251375'
S'\\u067e\\u0627\\u06a9\\u0633\\u062a\\u0627\\u0646\\u06cc \\u067e\\u0627\\u06a9\\u0633\\u062a\\u0627\\u0646\\u06cc'
tp114
a(S'100003108878247'
S'Usman Habib'
tp115
a(S'100006124089129'
S'Pakistan Jaan'
tp116
a(S'100003137893420'
S'Ch Husan Raza'
tp117
a(S'100004334023080'
S'Pakistan ZindahBad'
tp118
a(S'100005341627931'
S'Asif Manzoor'
tp119
a(S'100006594074419'
S'Zeeshan Sindhu'
tp120
a(S'100003889675251'
p121
S'Hasnain Khan'
tp122
a(S'100003154120740'
S'Muhammad Ansar'
tp123
a(S'100001098802584'
S'Pakistan Ishq Pakistan Junoon'
tp124
a(S'100000014300000'
p125
S'Imran Malhi'
tp126
a(S'100004267931863'
S'Juliana FitzWater'
tp127
a(S'100006065918297'
p128
S'Sajid Aash'
tp129
a(S'100001690452106'
S'Irfanshahid Rana'
tp130
a(S'100006464266004'
S'Patriotic Guy'
tp131
a(S'100001162722859'
S'Saba Iqbal'
tp132
a(S'100006695467836'
S'\\u067e\\u0627\\u06a9\\u0633\\u062a\\u0627\\u0646\\u06cc \\u062c\\u0627\\u0646\\u0628\\u0627\\u0632'
tp133
a(S'100004237059195'
S'Real Baloch'
tp134
a(S'100004703640566'
S'Esha Noor'
tp135
a(S'100001927537117'
p136
S'\\u067e\\u0627\\u06a9\\u0633\\u062a\\u0627\\u0646 \\u0632\\u0646\\u062f\\u0647 \\u0628\\u0627\\u062f'
tp137
a(S'100001744268990'
S'Esha Khan'
tp138
a(S'100002840343170'
p139
S'Green Hope'
tp140
a(S'100005041863854'
S'Chacha Boota'
tp141
a(S'100003114780248'
S'WeLove PakArmy'
tp142
asS'id'
p143
S'100006502290232'
p144
sS'name'
p145
S'Inram Jutt'
p146
s.