(dp1
S'friends'
p2
(lp3
(S'100002357237208'
S'Navid Afghanzai'
tp4
a(S'1267577929'
S'Assad Ghorzang Stanikzai'
tp5
a(S'100002918166588'
S'Ihsanullah Sangar Khail'
tp6
a(S'100002288553964'
S'Bashirullah Elham'
tp7
a(S'1696673232'
S'Zabihullah Fayaz'
tp8
a(S'100002156477811'
p9
S'Habib Mirkhel'
tp10
a(S'100002261984249'
S'Fareshta Shabgard'
tp11
a(S'100000306430301'
S'Ahmad Masood'
tp12
a(S'100002380232430'
S'Ghulam Rasol Kamran'
tp13
a(S'100000644508749'
S'Mujiburahman Safi'
tp14
a(S'100000355252866'
S'Mohammad Shafiq Popal'
tp15
a(S'100007457233454'
S'Asmat Stanikzai'
tp16
a(S'100001593013055'
S'Deyanaa Wardak'
tp17
a(S'100001966622728'
S'Karim Ahmadi'
tp18
a(S'100000779816219'
S'Mansoor Marzi'
tp19
a(S'100002045259432'
S'Faiz Tanha'
tp20
a(S'100001729874295'
S'Taqi Hashimi'
tp21
a(S'100001005532063'
S'Elham Bashirullah'
tp22
a(S'100000640197851'
S'Abdul Mohammad'
tp23
a(S'100001432420073'
S'Matiullah Sarwar'
tp24
a(S'100008353474528'
S'\\u062f\\u0627\\u0643\\u062a\\u0631\\u0641\\u0631\\u0648\\u0632\\u0627\\u0646 \\u062a\\u0645\\u0643\\u064a\\u0646'
tp25
a(S'100002635257659'
S'Nisarahmad Abdurahimzai'
tp26
a(S'100001777010832'
S'Sayed Waliullah Aqili'
tp27
a(S'100001517702543'
S'Muhammad Asif Stanikzai'
tp28
a(S'1125192903'
p29
S'Abdul Ghafar Kamyab'
tp30
a(S'100000118409246'
S'Zarmina Kandari'
tp31
a(S'1733332973'
S'Noorullah Khyber'
tp32
a(S'100001716207133'
S'Issa Mehraban'
tp33
a(S'100000566725901'
S'Asadullah Ludin'
tp34
a(S'100002056777595'
S'Mursal Ahmadi'
tp35
a(S'100001151676455'
p36
S'Mohammad Naseem Stanikzai'
tp37
a(S'100002408621061'
S'\\u0633\\u0646\\u0681\\u0644 \\u06ab\\u0644 \\u0645\\u0634\\u0627\\u0639\\u0631\\u0647'
tp38
a(S'100000545302178'
S'Rahim Amin'
tp39
a(S'100001338752565'
S'Safiullah Ahmadzai'
tp40
a(S'100002119756695'
S'Ahmad Rasooli'
tp41
a(S'100002939743032'
S'Sana Logari'
tp42
a(S'100001521781254'
S'Ehsanullah Hikmat'
tp43
a(S'1711352091'
S'Abdul Sattar Rostayee'
tp44
a(S'100003198234872'
S'Logar Jan L'
tp45
a(S'100002164060410'
S'Omaid Stanikzai'
tp46
a(S'100000844306047'
S'Babrak Yousofzai'
tp47
a(S'100000573693450'
S'Obaid Naibee'
tp48
a(S'100001339020527'
S'Muskan Angel'
tp49
a(S'100002021725702'
S'Alhaj Mirwais Ahmadzai'
tp50
a(S'100001931237167'
S'Himayatullah Mohmand'
tp51
a(S'100001676352184'
S'Naqibullah Koshan Ahmadzai'
tp52
a(S'100002026033691'
p53
S'Sadaq Osmani'
tp54
a(S'100002119075541'
S'Nida Khan'
tp55
a(S'100001012284437'
p56
S'Mirwais Popal'
tp57
a(S'100000612215471'
p58
S'Rahmatullah Afghan'
tp59
a(S'100001155009924'
S'Mohsin Jamal'
tp60
a(S'100002081902514'
S'Abdullah Jalal Mubarak'
tp61
a(S'100002317590005'
S'Abdul Sane Aman Poor'
tp62
a(S'100002085311776'
p63
S'Mena Mangal'
tp64
a(S'100008274460338'
S'Sana Ameel'
tp65
a(S'100003159377357'
S'Ehsanullah Sahak'
tp66
a(S'100005548274817'
S'Islam Islam'
tp67
a(S'100000850404508'
S'Abdulraziq Hemat'
tp68
a(S'100000071458872'
S'Atiqullah Majary'
tp69
a(S'100000075439758'
S'Gul Zada Sahab'
tp70
a(S'100002069720113'
S'Sapa Pishawre Afghan'
tp71
a(S'100000798619990'
S'Maiwand Khan'
tp72
a(S'100000556798820'
p73
S'Salma Noor'
tp74
a(S'100002368776850'
S'Rafiullah Ludin'
tp75
a(S'100002111273199'
S'Shadab Amin Begzad'
tp76
a(S'1353961378'
S'Noorullah Stanikzai'
tp77
a(S'100002391333924'
S'Hedayatullah Jalal'
tp78
a(S'1546137497'
S'Ahmad Mustafa Ariz'
tp79
a(S'100001953962978'
S'Amanullah Watan'
tp80
a(S'100001165305722'
S'Mansoor Nezami'
tp81
a(S'100000848563778'
S'Atiq Quraishi'
tp82
a(S'100001487808022'
S'Mohammad Haroon'
tp83
a(S'100002084452603'
p84
S'Hakim Boda'
tp85
a(S'100000018684938'
S'Bahram Aamoniaee'
tp86
a(S'100002296637961'
S'Razmal Zaman'
tp87
a(S'100002596666422'
S'Iqbal Stanekzai'
tp88
a(S'100000284265714'
S'\\u0647\\u062f\\u0627\\u06cc\\u062a \\u0627\\u0644\\u0644\\u0647 \\u0627\\u06cc\\u0645\\u0644 \\u0627\\u062d\\u062f\\u06cc'
tp89
a(S'1555856796'
S'Sarwan Mansoor'
tp90
a(S'100000221638407'
S'Nelofar Stanikzai'
tp91
a(S'100001395906608'
S'\\u0646\\u062c\\u064a\\u0628 \\u0627\\u0644\\u0644\\u0647 \\u0633\\u062a\\u0627\\u0646\\u0643\\u0632\\u064a'
tp92
asS'id'
p93
S'100002356729383'
p94
sS'name'
p95
S'Hamid Sangar Sangar'
p96
s.