(dp1
S'friends'
p2
(lp3
(S'100006047170229'
S'Palash Srivastava'
tp4
a(S'100004085161762'
S'Rahul Shrishrimal'
tp5
a(S'100004752396249'
S'Anjali Jain'
tp6
a(S'100002611769225'
S'Ajay Meghwal'
tp7
a(S'1560592953'
S'Prerana Karnawat'
tp8
a(S'100001649800454'
S'Rubina Silavat'
tp9
a(S'100003105271457'
S'Abhilasha Chhazed'
tp10
a(S'100003995377682'
S'Sumit Tukliya'
tp11
a(S'100004069841943'
S'Jinesh Choudhary'
tp12
a(S'100006142686232'
S'Khush Jain'
tp13
a(S'100001185705712'
S'Rohit RJ Khamesra'
tp14
a(S'100002415355184'
S'Mj Sagar Dance Choreographer'
tp15
a(S'100004723149858'
S'Kapilesh Jain'
tp16
a(S'100002232885348'
S'Akanksha Taparia'
tp17
a(S'100002524112066'
S'Saloni Dangi'
tp18
a(S'100002695112392'
S'Vimla Sharma'
tp19
a(S'100001083102735'
S'Pulkit Joshi'
tp20
a(S'100003150084672'
S'Rahuljain Jain'
tp21
a(S'100000077876825'
S'Prashant Purohit'
tp22
a(S'100001944130436'
S'Harshit Harsh Paliwal'
tp23
a(S'100003317507325'
S'Chetan Sisodiya'
tp24
a(S'100003297193849'
S'Diksha Jain'
tp25
a(S'100003491167217'
S'Disha Shrimali'
tp26
a(S'100002648085202'
S'Mayank Jeengar'
tp27
a(S'100002998092916'
S'Kunal Paliwal'
tp28
a(S'100005842953727'
S'Jubin Sharma'
tp29
a(S'100001291167985'
S'Bhavesh Soni'
tp30
a(S'100003870558537'
S'Kartik Jain'
tp31
a(S'100002466143985'
S'Shruti Jain'
tp32
a(S'100003109252119'
S'Simran K Jain'
tp33
a(S'100001115552100'
S'Pratyush Agrawal'
tp34
a(S'100005908688993'
S'Chetali Sisodiya'
tp35
a(S'100003324184120'
S'Harshpal Katariya'
tp36
a(S'100004578002541'
S'Priyanka Somani'
tp37
a(S'100002581695329'
S'Angel Jain'
tp38
a(S'100003047230841'
S'Prateek Kothari'
tp39
a(S'100003303034848'
S'Madhvi Chauhan'
tp40
a(S'100002533269329'
S'K\\u00e4r\\u00e4n Pr\\u00eb\\u00ebt \\u00c4r\\u00f4r\\u00e4'
tp41
a(S'100007423422532'
S'K\\u00f9\\u00f1\\u00e1l P\\u00e0l\\u00edw\\u00e3l'
tp42
a(S'100003402452117'
S'Pranjal Jain'
tp43
a(S'100004839364709'
S'Chahat Samota'
tp44
a(S'100004472319462'
S'John Santeno'
tp45
a(S'100001279210201'
S'Akshay Sharma'
tp46
a(S'100001724700917'
S'Ashwini Jain'
tp47
a(S'100002147174968'
S'Poonam Sisodiya'
tp48
a(S'100001226477583'
S'Nilesh Mody'
tp49
a(S'100001311573448'
S'Rahul Stunt Rider'
tp50
a(S'100000325553124'
S'Piya Sharma'
tp51
a(S'100002819034101'
S'Shubham Jain'
tp52
a(S'100004400190239'
S'Rajesh Kumar Pancholi'
tp53
a(S'100001096908845'
S'Vedant Jain'
tp54
a(S'100002529488720'
S'Juhi Samra'
tp55
a(S'100002544549699'
S'Parshwanath Gold'
tp56
a(S'100002351718432'
S'Mukesh Rawat'
tp57
a(S'100002441543303'
S'Mitula Jain'
tp58
a(S'100003797390730'
S'Hardik Pagaria'
tp59
a(S'100000258388866'
S'Hardeep Kaur'
tp60
a(S'100000860245983'
S'Hatim Ali'
tp61
a(S'100005929864427'
S'Juhi Joshi'
tp62
a(S'100001962419240'
S'Sandli Bansal'
tp63
a(S'100003994657463'
S'Chhavi Dhupia'
tp64
a(S'100003539769350'
S'Darsh Thakur'
tp65
a(S'100004095860052'
S'Shubham Acharya'
tp66
a(S'100003186379446'
S'Jinal Jain'
tp67
a(S'100002532726289'
S'Suchita Daga'
tp68
a(S'1237395115'
S'Krishan Kant Kaushik'
tp69
a(S'100001039193657'
S'Mehul Choudhari'
tp70
a(S'100005835727378'
S'Ashwin Dadhich'
tp71
a(S'100001492098372'
S'Vaibhav Kothari'
tp72
a(S'100001908242719'
S'Ayush Dharmawat'
tp73
a(S'100003624802651'
S'Parth Sharma'
tp74
a(S'100003019354434'
S'Sonal Choubisa'
tp75
a(S'100004630593845'
S'Khushi Jain'
tp76
a(S'100001881907126'
S'Chinmay Kothari'
tp77
a(S'100003360903389'
S'Dinesh Sisodia'
tp78
a(S'100001210700209'
S'Milan Jain'
tp79
a(S'100000514965986'
S'Jagriti Mali'
tp80
a(S'100003404856138'
S'Jinal Jain'
tp81
a(S'100003763315284'
S'Palak Devpura'
tp82
a(S'100003656181874'
S'Lissu Elizabeth'
tp83
a(S'100004675143195'
S'Bhumika Vaishnav'
tp84
a(S'100002287085441'
S'Anjali Das'
tp85
a(S'100005541941242'
S'Priyanka Khandelwal'
tp86
a(S'100002128639939'
S'Rajat Sharma'
tp87
a(S'100002023861307'
S'Somi Lodha'
tp88
a(S'100003277678351'
S'Anshul Shrishrimal'
tp89
a(S'100002919718646'
S'Akshay Soni'
tp90
a(S'100002921283342'
S'Subin Jacob'
tp91
a(S'100005184002965'
S'Bhaarat Singh'
tp92
a(S'100001576928408'
S'Manish Jain'
tp93
a(S'100002643820160'
S'Jaideep Jain'
tp94
a(S'100004308150974'
S'Shanu Shani Roocks'
tp95
a(S'100000053394281'
S'Ayush Badala'
tp96
a(S'100002212748541'
S'Khushbu Hinger'
tp97
a(S'100001039403278'
S'Arpit Kawdia'
tp98
a(S'100003979546237'
S'Uttam Purohit'
tp99
a(S'100004532731474'
S'Priya Navlakha'
tp100
a(S'100003858649355'
S'Rash Madrecha'
tp101
a(S'100000176480603'
S'Shailendra Jain'
tp102
a(S'100001737817872'
S'Ankit Dharmawat'
tp103
a(S'100001202775429'
S'Jayshree Mantri'
tp104
a(S'100004418801434'
S'Akshay Sisodiya'
tp105
a(S'100001987798769'
S'Sonal Dharmawat Maroo'
tp106
a(S'100003931359248'
S'Styloboy Monu'
tp107
a(S'100002386011718'
S'Parth Paliwal'
tp108
a(S'100003774399568'
S'Divyanshu Agarwal'
tp109
a(S'100001786083344'
S'Harshal Pagaria'
tp110
a(S'100002599872164'
S'Suren Babel'
tp111
a(S'100002380614882'
S'Shreya Sisodiya'
tp112
a(S'100002008994782'
S'Ronak Soni'
tp113
a(S'100001931510828'
S'Gagandeep Kaur'
tp114
a(S'100004184952549'
S'Rishabh Sharma'
tp115
a(S'100001161781750'
S'Jayati Kachhara'
tp116
a(S'100001722430381'
S'Prachi Karnawat'
tp117
a(S'100003019640071'
S'Preksha Jain'
tp118
a(S'100001686444975'
S'Vishal Kothari'
tp119
a(S'100003350972602'
S'Pramod Paliwal'
tp120
a(S'100000231391670'
S'Dhairya Jain'
tp121
a(S'100001847121649'
S'Bharat Ratan'
tp122
a(S'100003087982960'
S'Ronak Dhupia'
tp123
a(S'100004020142001'
S'Pallavi Singh'
tp124
a(S'100003072975826'
S'Kamlesh Dagliya'
tp125
a(S'100004498991224'
S'Parth Jain'
tp126
a(S'100002098518205'
S'Lakshya Yadav'
tp127
a(S'100003769659811'
S'Disha Patawari'
tp128
a(S'100004140637074'
S'Deepak Kumawat'
tp129
a(S'100004385254647'
S'S\\u00fbb\\u00ee\\u00f1 J V\\u00e5rgh\\u00eas\\u00ea'
tp130
a(S'100003246326778'
S'DimPle Surana'
tp131
a(S'100004560011572'
S'Vinay Jain'
tp132
a(S'100004016344767'
S'Pallavi Jain'
tp133
a(S'100001078317752'
S'Poornima Sancheti'
tp134
a(S'100003190782588'
S'Nikita Jain'
tp135
a(S'100001335391809'
S'Poorvi Shrivastava'
tp136
a(S'100002811129924'
S'Shalu Choudhary'
tp137
a(S'100002794406094'
S'Aanchal Jethliya'
tp138
a(S'100001233123981'
S'Mudit Bohra'
tp139
a(S'100006804872101'
S'Esha Arora'
tp140
a(S'100004491241320'
S'Isha Khandelwal'
tp141
a(S'100003216675250'
S'Dimpal Surana'
tp142
a(S'100002018676474'
S'Himanshu Borana'
tp143
a(S'100002448802644'
S'Gourang Jain'
tp144
a(S'100001716808303'
S'Utkarsh Purohit'
tp145
a(S'100007442885401'
S'Mansi Sisodia'
tp146
a(S'100001293529614'
S'Sonal Jain'
tp147
a(S'100004675054423'
S'Harita Nair'
tp148
a(S'100001998857454'
S'AAyushi GOyal'
tp149
a(S'100006035678699'
S'Juhi Samra'
tp150
a(S'100002088862715'
S'Sourabh Soni'
tp151
a(S'100001988575909'
S'Sahil Kothari'
tp152
a(S'100001858727217'
S'Sakshi Jain'
tp153
a(S'100002632046438'
S'SmArt Jillu'
tp154
a(S'100002931693462'
S'Pooja Dhabai'
tp155
a(S'100004957360024'
S'Sweetu Jass'
tp156
a(S'100004037301606'
S'Vijay Jain'
tp157
a(S'1473728394'
S'Dipesh Jain'
tp158
a(S'100004731879804'
S'Avijay Chhipa'
tp159
a(S'100002507650353'
S'Yuvraj Acharya'
tp160
a(S'100001595336735'
S'Nikhil Sahlot'
tp161
a(S'100003840774256'
S'Sejal Jain'
tp162
a(S'1200940513'
S'Abhinav Gupta'
tp163
a(S'100000079788890'
S'Himank Mandot'
tp164
a(S'100002294034885'
S'Mohit Pariyani'
tp165
a(S'100004830882046'
S'K.k. Rajguru'
tp166
a(S'100002296809592'
S'Bhoumik Shrimali'
tp167
a(S'100001620848211'
S'Kimee Chordiya'
tp168
a(S'100002398724277'
S'Hardik Pagaria'
tp169
a(S'100003511515566'
S'Bhumika Soni'
tp170
a(S'100002465323134'
S'Garvit Nandwana'
tp171
a(S'100002693656041'
S'Vikas Soni'
tp172
a(S'100002363807196'
S'Mohit Pagaria'
tp173
a(S'100002348594768'
S'Sonam Sharma'
tp174
a(S'100002644386074'
S'Pooja Jain'
tp175
a(S'100000373242222'
S'Neha Kothari'
tp176
a(S'100006514879086'
S'Mayank Vaishnav'
tp177
a(S'100000378079812'
S'Harsh Sanadhya'
tp178
a(S'100002150731132'
S'Mani Purbia'
tp179
a(S'100002172321268'
S'Deepesh Tukliya'
tp180
a(S'100004414771160'
S'Sunita Jain'
tp181
a(S'100004004271608'
S'Karan Jain Rockzz'
tp182
a(S'100003018952416'
S'Himanshi Babel'
tp183
a(S'100004363714293'
S'Laxmilal Jhamerh'
tp184
a(S'100002257028851'
S'Anamika Sharma'
tp185
a(S'100002965011106'
S'Anshul Jain Dagliya'
tp186
a(S'100002292914063'
S'Jinesh Samra'
tp187
a(S'100002185411632'
S'Mahipal Singh'
tp188
a(S'100002726576210'
S'Jasveer Singh'
tp189
a(S'100004155452469'
S'Sanya Jain'
tp190
a(S'100000833013769'
S'Anamika Modi'
tp191
a(S'100002866299416'
S'Yash Paliwal'
tp192
a(S'100006345041442'
S'Surendra Jain'
tp193
a(S'100001794051352'
S'Vikrant Jain'
tp194
a(S'100002876808539'
S'Rajshree Mantri'
tp195
a(S'100005499760030'
S'Bhavika Jain'
tp196
a(S'100002702500316'
S'Anshu Ashawat'
tp197
a(S'100002023181096'
S'Bahadur Singh Modi'
tp198
a(S'100000183599090'
S'Barkha Agrawal'
tp199
a(S'100002784965166'
S'Apple Rajsamand'
tp200
a(S'100001099468681'
S'Sumit Choudhary'
tp201
a(S'100004006212490'
S'Suhani Jain'
tp202
a(S'100005923990271'
S'Sonam Thakur'
tp203
a(S'100003019180470'
S'Avani Rana'
tp204
a(S'100003747045858'
S'Aayush Samota'
tp205
a(S'100001091024556'
S'Kendrika Gaur'
tp206
a(S'100004343111878'
S'Ritu Soni'
tp207
a(S'100000925886911'
S'Mudit Bapna'
tp208
a(S'100002664248145'
S'Jay Kachhara'
tp209
a(S'100001354383436'
S'Swati Vyas'
tp210
a(S'100000549412001'
S'Ankur Kaushik'
tp211
a(S'100002586513918'
S'Nital Jain'
tp212
a(S'100007789805369'
S'Neelam Paliwal'
tp213
a(S'100004045732019'
S'Damini Rathore'
tp214
a(S'100006927241415'
S'Usha Jain'
tp215
a(S'100001938215628'
S'Prince Rajput'
tp216
a(S'100002308560616'
S'Siddharth Jain Sam'
tp217
a(S'100004251035399'
S'Punit Lohar'
tp218
a(S'100002979410356'
S'Siddhanth Hingar'
tp219
a(S'100002434787290'
S'Kanishka Paliwal'
tp220
a(S'100002514215498'
S'Aditya Ranka'
tp221
a(S'100002743906465'
S'Ruchi Jain'
tp222
a(S'100002838893002'
S'Arya Singh'
tp223
a(S'100003678940174'
S'Manish Kothari'
tp224
a(S'100002987456367'
S'Tanishq Dadhich'
tp225
a(S'100002812453211'
S'Kruti Verma'
tp226
a(S'100006349684694'
S'Mansi Sisodia'
tp227
a(S'100000362106700'
S'Shreyansh Maloo'
tp228
a(S'100002625101248'
S'Prince Kothari'
tp229
a(S'100006220950963'
S'Saloni Pamecha'
tp230
a(S'100002456412109'
S'Harshit Pancholi'
tp231
a(S'100001202246086'
S'Harshit Sisodia'
tp232
a(S'100001852565916'
S'Anil Pitliya J'
tp233
a(S'100002265545438'
S'Mudit Jain'
tp234
a(S'100003502242721'
S'Surabhi Maheshwari'
tp235
a(S'100002633833881'
S'Benny Pj'
tp236
a(S'100002357908381'
S'Inder Jain'
tp237
a(S'100002652962716'
S'Pratik Nandwana'
tp238
a(S'100002044912629'
S'Darshan Audichya'
tp239
a(S'100004678091290'
S'Prateek Jain'
tp240
a(S'100005638058185'
S'Tanvi Parikh'
tp241
a(S'100004017354536'
S'Oshi Jain'
tp242
a(S'100002796432298'
S'Sourabh Chhazed'
tp243
a(S'100001162743078'
S'Mehul Jain'
tp244
a(S'100003040317533'
S'Mohit Kawdia'
tp245
a(S'100001429902563'
S'Raunaq Sharma'
tp246
a(S'100002462383138'
S'Shubham Sharma'
tp247
a(S'100001439895142'
S'Hitesh Badala'
tp248
a(S'100002531793001'
S'Mayank Vashistha'
tp249
a(S'100002287218464'
S'Abha Jain'
tp250
a(S'100001563756135'
S'Pankaj Bapna'
tp251
a(S'100003194349315'
S'Rajsamand Bond'
tp252
a(S'1380755640'
S'Mayur Modi'
tp253
a(S'100001184523819'
S'Vipul Mandot'
tp254
a(S'100002438433848'
S'Shruti Kayathwal'
tp255
a(S'100003076006493'
S'Dinesh Kherodia'
tp256
a(S'100002419193050'
S'Pragya Giria'
tp257
a(S'100001135441647'
S'Jatin Purohit'
tp258
a(S'100003457292948'
S'Deepesh Soni'
tp259
a(S'100002401415188'
S'Abhimanyu Sharma'
tp260
a(S'100005136337090'
S'Himank Mandot'
tp261
a(S'1170340531'
S'Rishabh Sharma'
tp262
a(S'100002167248104'
S'Anup Bhandari'
tp263
a(S'100003101725796'
S'Sourabh Soni'
tp264
a(S'100006052541890'
S'Saloni Bapna'
tp265
a(S'100001019938742'
S'Akash Jain'
tp266
a(S'100004529916736'
S'Kritika Jain'
tp267
a(S'100004087013169'
S'Disha Patawari'
tp268
a(S'100003248828844'
S'Abhishek Khandelwal'
tp269
a(S'100000607063175'
S'Faruq Khan'
tp270
a(S'100001598488922'
S'Chetan Sisodiya'
tp271
a(S'100000575584918'
S'Sourabh Soni'
tp272
a(S'100002796716041'
S'Tarun Kabra'
tp273
a(S'100004295404146'
S'Gunjan Sharma'
tp274
a(S'100001160296427'
S'Vardhan Jain'
tp275
a(S'100002935748291'
S'Sahil Jain'
tp276
a(S'100003858647558'
S'Himani Mandot'
tp277
a(S'100004560362608'
S'Ankit Tiwari'
tp278
a(S'100002482430127'
S'Sejal Soni'
tp279
a(S'100002668160889'
S'Sijo Abraham'
tp280
a(S'100004274107030'
S'Neha Sharma'
tp281
a(S'100004413126504'
S'Avinash Sharma'
tp282
a(S'100003140109577'
S'Ashwin Kothari'
tp283
a(S'100004126572374'
S'Sanish Tak'
tp284
a(S'100002339741036'
S'Anubha Purohit'
tp285
a(S'100002248877362'
S'Preksha Gupta'
tp286
a(S'100001878508497'
S'Amit Jain'
tp287
a(S'100002904491177'
S'Aditya Nathiya'
tp288
a(S'100004931346045'
S'Aayushi Bapna'
tp289
a(S'100000987888029'
S'Jeet Jain'
tp290
a(S'100002763263481'
S'Sameer Sinha'
tp291
a(S'100003991982152'
S'Ritika Jain'
tp292
a(S'100001774823746'
S'Gaurav Chordia'
tp293
a(S'1071675008'
S'Anoop Samar'
tp294
a(S'1199140547'
S'Rounak Bapna'
tp295
a(S'100001584466927'
S'Suryabhan Singh Solanki'
tp296
a(S'100003697141393'
S'Chirag Nahar'
tp297
a(S'100001258760753'
S'Lakshit Sant'
tp298
a(S'100003123675071'
S'Shubham Pandey'
tp299
a(S'100002755027042'
S'Harshil Kothari'
tp300
a(S'100004670671516'
S'Parul Jain'
tp301
a(S'100002403894434'
S'Ankit Jain'
tp302
a(S'100001588188447'
S'Abhiraj Singh Panwar'
tp303
a(S'100005270113276'
S'Anusha Mishra'
tp304
a(S'100004128872373'
S'Maahi Jain'
tp305
a(S'100001301991992'
S'Rahul Ranka'
tp306
a(S'100004572005168'
S'Shubham Purbia'
tp307
a(S'100000078041617'
S'Yash Babel'
tp308
a(S'100002559312325'
S'N\\u00e8er\\u00e6j D\\u00e1dw\\u00e1d\\u00ee\\u00e6'
tp309
a(S'100003222968484'
S'Sayyam Jain'
tp310
a(S'100003198614948'
S'Priyaank Vaishnav'
tp311
a(S'100003068822340'
S'Aayush Samota'
tp312
a(S'100002428254132'
S'Himani Kawdia'
tp313
a(S'100001171955758'
S'Himanshu Hunny Jain'
tp314
a(S'100004343102877'
S'Jatin Sharma'
tp315
a(S'100002378433719'
S'Charul Gupta'
tp316
a(S'100000111482073'
S'Malvika Choudhary'
tp317
a(S'100000259973987'
S'Mehul Dhing'
tp318
a(S'100003188225993'
S'Ravi Badala'
tp319
a(S'100003722414861'
S'Saloni Dhupia'
tp320
a(S'100002824327040'
S'Sunil Sisodia Jain'
tp321
a(S'100003922158222'
S'Vipransh Sharma'
tp322
a(S'100001432760033'
S'Whites Sheikh'
tp323
a(S'100003391741355'
S'Meenal Kothari'
tp324
a(S'100002995133443'
S'Malika Shah'
tp325
a(S'100005084824751'
S'Aastha Sharma'
tp326
a(S'100004244440875'
S'Monika Sharma'
tp327
a(S'100005408439393'
S'Kothari Sejal'
tp328
a(S'100000921565477'
S'Mudit Singhvi'
tp329
a(S'100006310539519'
S'Yash Sisodiya'
tp330
a(S'100001123301710'
S'Shreyansh Pamecha'
tp331
a(S'100002165724216'
S'Siddharth Hingar'
tp332
a(S'100004896099599'
S'Ritu Jain'
tp333
a(S'584043990'
S'Sandeep Soni'
tp334
a(S'100002743771556'
S'Paridhi Parmar'
tp335
a(S'100007761311965'
S'Kriti Gupta'
tp336
a(S'100003771602614'
S'Kalpana Dhupia'
tp337
a(S'100002112377177'
S'Labdhi Babel'
tp338
a(S'100002518737680'
S'M\\u00e0y\\u00far S\\u00e0\\u00f1\\u00e0dhy\\u00e0'
tp339
a(S'100001844734308'
S'Bharat Soni'
tp340
a(S'100001551703135'
S'Vanita Kumavat'
tp341
a(S'100001991275507'
S'Romiyo Kothari'
tp342
asS'id'
p343
S'100003334280219'
p344
sS'name'
p345
S'Palak Soni'
p346
s.