(dp1
S'friends'
p2
(lp3
(S'1331060174'
S'Sukanya Datta'
tp4
a(S'100002054896872'
S'Debdutta Banerjee'
tp5
a(S'100001473814026'
S'Saikat Chakraborty'
tp6
a(S'100002413508450'
S'Satyajit Banerjee'
tp7
a(S'100001770979764'
S'Ankush Goutam Ghosh'
tp8
a(S'1703259300'
S'Bijit Guha Neogy'
tp9
a(S'100004246779543'
S'Dibyo Ghosh'
tp10
a(S'100003725390166'
S'Sarba Roy'
tp11
a(S'100000149781430'
S'Ritwik K. Basu'
tp12
a(S'1323560930'
S'Aritra Chakraborti'
tp13
a(S'100000027660275'
S'Alokananda Mandal'
tp14
a(S'1134730899'
S'Dipankar Lahiri'
tp15
a(S'100000923529204'
S'Phintsok Tenzing'
tp16
a(S'1085168788'
S'Rahul Sadhu'
tp17
a(S'848895721'
S'Shourjya Deb'
tp18
a(S'1814363505'
S'Sreya Saha'
tp19
a(S'1053134927'
S'Sayan Sammy Chatterjee'
tp20
a(S'100000041469078'
S'IndraBeep Khokon'
tp21
a(S'100000227730668'
S'Arka Chakraborty'
tp22
a(S'522164440'
S'Poorvi Ghosh'
tp23
a(S'100001462994647'
S'Arnab Chakraborty'
tp24
a(S'100002564108448'
S'Swarnendu Chakraborty'
tp25
a(S'1620286249'
S'Reuben Kompa'
tp26
a(S'100001651121219'
S'Arpan Chakraborty'
tp27
a(S'813795383'
S'Rohini De'
tp28
a(S'100005889423430'
S'Praskanva Sinharay'
tp29
a(S'100002036211073'
S'Monojit Mallick'
tp30
a(S'100001189231504'
S'Kaustav Mandal'
tp31
a(S'100002170899763'
S'Gypsy Pirouetting'
tp32
a(S'100001158004028'
S'Arjun Lionheart Das'
tp33
a(S'100002208682065'
S'Susmit Sen'
tp34
a(S'100004042246629'
S'Ayan Banerjee'
tp35
a(S'100001170564767'
S'Debarshi Biswas'
tp36
a(S'100001191532975'
S'Arvind Limbu'
tp37
a(S'727771704'
S'Durjoy Choudhury'
tp38
a(S'100000310947029'
S'Prantick Das'
tp39
a(S'646105344'
S'Pulaha Ray'
tp40
a(S'100000030047465'
S'Arkapratim Biswas'
tp41
a(S'100003538067498'
S'Manish Basu'
tp42
a(S'100001723408333'
S'Rishav Ghose'
tp43
a(S'1800736989'
S'Dibyajyoti Sinha'
tp44
a(S'100001560564956'
S'Sarnava Sarkar'
tp45
a(S'100002646961577'
S'Debajyoti Jana'
tp46
a(S'100000297140283'
S'Moupiya Ghosh'
tp47
a(S'1474429426'
S'Sudipto Pati'
tp48
a(S'1266288433'
S'Debomita Mukherjee'
tp49
a(S'100004032765492'
S'Apurba Goswami'
tp50
a(S'100004056648862'
S'Yash Bhattacharya'
tp51
a(S'100001631526480'
S'Sayan Paul'
tp52
a(S'100001257263254'
S'Purab Riddhi Chaudhuri'
tp53
a(S'1290311911'
S'Divyaloke Dutta Gupta'
tp54
a(S'100001312316547'
S'Sourav Ghosh'
tp55
a(S'100001083349592'
S'Anusikha Basu'
tp56
a(S'549448668'
S'Ritam Sen'
tp57
a(S'100000980596889'
S'Srijaa Kundu'
tp58
a(S'100002667913612'
S'Sukanya Basu'
tp59
a(S'1268155558'
S'Sucheta Bhattacharya'
tp60
a(S'1459594608'
S'Paloma Majumder'
tp61
a(S'100001593150617'
S'Ujaan Chandra'
tp62
a(S'100001389075851'
S'Shayeree Roy'
tp63
a(S'100000439930371'
S'Sayantani Gupta'
tp64
a(S'100002021908589'
S'Souradeep Chakraborty'
tp65
a(S'100001115086864'
S'Sachin Anand'
tp66
a(S'100001901399217'
S'Krishnendu Pal'
tp67
a(S'100003206435005'
S'Troy Borneofwinter'
tp68
a(S'100001806481393'
S'Sunny Arpan Das'
tp69
a(S'100006275413803'
S'Anasuya Goswami'
tp70
a(S'100000505242494'
S'Rwitoban Deb'
tp71
a(S'100001675545546'
S'Shruti Gupta'
tp72
a(S'527971126'
S'Anisha Mandal'
tp73
a(S'1567758546'
S'Ivanna Bagul'
tp74
a(S'100002219263233'
S'Anupam Sarkar'
tp75
a(S'100001059493651'
p76
S'Shuvoneel Chakraborty'
tp77
a(S'760482587'
S"B\\u00e4tkkl Qonjo T'ut"
tp78
a(S'100001884034367'
S'Debanjan Ghosh'
tp79
a(S'1344945011'
S'Sankalita Chakraborty'
tp80
a(S'100004367160492'
S'Bidisha Mukherjee'
tp81
a(S'100002600986731'
S'Puja Ray'
tp82
a(S'1043836169'
S'Shuvayan Mukherjee'
tp83
a(S'1706013836'
S'Tiyash Sen'
tp84
a(S'641255825'
S'Hindol Bhattacharya'
tp85
a(S'100001791708724'
S'Saptarshi Das'
tp86
a(S'100002509069264'
S'Shaon Basu'
tp87
a(S'1766786606'
S'Shatadeep Maitra'
tp88
a(S'1521586855'
S'Riddhibesh Uranta Fyataru'
tp89
a(S'1034924401'
S'Dyuti Saha'
tp90
a(S'1562823475'
S'Sreya Deb'
tp91
a(S'1280071585'
S'Rwiti Roy'
tp92
a(S'100000489918619'
S'Animesh Baidya'
tp93
a(S'100000915245063'
S'Sohini Kumar'
tp94
a(S'100002180553715'
S'Sagnik Hira'
tp95
a(S'1409665313'
S'Tanumay Naskar'
tp96
a(S'845114321'
S'Avishek De Biswas'
tp97
a(S'100001278375009'
S'Nagorik Kobial'
tp98
a(S'100000940194679'
S'Payal Sarkar'
tp99
a(S'1180010816'
S'Rubaiyat GB Biswas'
tp100
a(S'100000440629289'
S'Saunak Nag'
tp101
a(S'100005259241108'
S'Nakshatra Pain'
tp102
a(S'1432325442'
S'Saurajit Mazumdar'
tp103
a(S'100000365582350'
S'Ashmita Saha'
tp104
asS'id'
p105
S'100000272826956'
p106
sS'name'
p107
S'Debjan Sengupta'
p108
s.