(dp1
S'friends'
p2
(lp3
(S'100003649416211'
S'P\\u00f8\\u00fal\\u00e1m\\u00ed M\\u00e9\\u0163\\u00fd\\u00e0'
tp4
a(S'100008319003912'
S'Chandan Das'
tp5
a(S'100006193719553'
S'Manoj Thapa'
tp6
a(S'100007344758200'
S'Sourav Das'
tp7
a(S'100005830836288'
S'Murari Mati'
tp8
a(S'100007294170793'
S'Akash Roy'
tp9
a(S'100005576925296'
S'Jahangir HOssain'
tp10
asS'id'
p11
S'100003649416211'
p12
sS'name'
p13
S'P\\u00f8\\u00fal\\u00e1m\\u00ed M\\u00e9\\u0163\\u00fd\\u00e0'
p14
s.