(dp1
S'friends'
p2
(lp3
(S'100000039125471'
S'Pradeep Kumar'
tp4
a(S'100001380999436'
S'Pratyush Nair'
tp5
a(S'1624110602'
S'Pradip Sabharwal'
tp6
a(S'100000272027408'
S'Emily Sodhi'
tp7
a(S'100002729776098'
S'Usha Gupta'
tp8
a(S'100002375111412'
S'Piya Adhikari'
tp9
a(S'678483056'
S'Sreekala Sureshkumar'
tp10
a(S'100001502682638'
S'Gracy Varghese'
tp11
a(S'100001226001998'
S'Manjeet Kaur'
tp12
a(S'100004079089638'
S'Neeru Batra'
tp13
a(S'1556112438'
S'Ankita Bhatt'
tp14
a(S'100001611378917'
S'Sobha Mohanan'
tp15
a(S'100001272069496'
S'Rakesh Kain'
tp16
a(S'100001459839106'
S'Aparna Adhikari'
tp17
a(S'100004866760333'
S'Prayaga Sowjanya'
tp18
a(S'100000525611250'
S'Surendran Nair'
tp19
a(S'100000466179991'
S'Raj Sharma'
tp20
a(S'579739742'
S'Radha Nair'
tp21
a(S'100001259695871'
S'Shikha Dua'
tp22
a(S'1436738183'
S'Umesh Batra'
tp23
a(S'100001542318219'
S'Presanna Sharma'
tp24
a(S'100001000362017'
S'Advaita Ravindran'
tp25
a(S'100004079860801'
S'Nanda Kumar Nair'
tp26
a(S'1418160155'
S'Vishnu Vasudevan'
tp27
a(S'1097757693'
S'Hemant Sharma'
tp28
a(S'1003215714'
S'Ravin Nath'
tp29
a(S'100004252721951'
S'Lathika Ayyappan'
tp30
a(S'1311267214'
S'Keerthana Srinivas'
tp31
a(S'100000909173166'
S'Gopal Mehra'
tp32
a(S'100002132488612'
S'Sandhya Sridhar'
tp33
a(S'1248409877'
S'Kuheli Chaudhary'
tp34
a(S'100001926931338'
S'Kamala Prayaga'
tp35
a(S'100000010075327'
S'Naresh Kaushik'
tp36
a(S'100002526330413'
S'Vikas Agarwal'
tp37
a(S'100000725725274'
S'Draupathy Antherjanam'
tp38
a(S'100006430711946'
S'Janki Chhabra'
tp39
a(S'100000184700315'
S'Vijay Kumar Bhatnagar'
tp40
a(S'100000234498343'
S'Aishwarya Rajeev'
tp41
a(S'100001908658510'
S'Meena Swaminathan'
tp42
a(S'100001049133411'
S'Remani Nair'
tp43
a(S'100003252416969'
S'Prisca Mathew'
tp44
a(S'100004107920195'
S'Harcharan Kaur Abrol'
tp45
a(S'1051677441'
S'DImple Kapoor'
tp46
a(S'100003483101583'
S'Venu Gopal'
tp47
a(S'1477375895'
S'Renu Kakkar'
tp48
a(S'100000519810842'
S'Anita Mani'
tp49
a(S'100002368201381'
S'Vasudevan Chokkath'
tp50
a(S'100005745758446'
S'Satinder Kaur'
tp51
a(S'100003490213012'
S'Prathibha Venugopal'
tp52
a(S'1817154249'
S'Kartik Batra'
tp53
a(S'100001046583711'
S'Alka Mishra'
tp54
a(S'1715132089'
S'Raj Mohan'
tp55
a(S'1235851476'
S'Supriya Menon'
tp56
a(S'100000890640043'
S'Pintu Pradeep'
tp57
a(S'100000406037620'
S'Ruby Sharma'
tp58
a(S'100002458134786'
S'Sanjay Ghabru'
tp59
a(S'100001230545925'
S'Kamlesh Khatter'
tp60
asS'id'
p61
S'100001082023021'
p62
sS'name'
p63
S'Ambika Nair'
p64
s.