(dp1
S'friends'
p2
(lp3
(S'100002396152870'
S'Teresa Zoe Drozario'
tp4
a(S'1615018224'
p5
S'Mahasweta Bagchi'
tp6
a(S'100002391046164'
S'Ankita Podder'
tp7
a(S'1494670283'
S'Martina Gomes'
tp8
a(S'1167786341'
S'Deepanjana Banerjee'
tp9
a(S'100000718084471'
p10
S'Dipika Gomes'
tp11
a(S'100003608983762'
S'Joe Eli Gomes'
tp12
a(S'100003734530055'
S'Alifiya Karachiwala'
tp13
a(S'679940798'
S'Noel Anthony Gomes'
tp14
a(S'100000735796324'
S'Nidhi Raman Pingala'
tp15
a(S'100000885132410'
p16
S'Diana Rodriques'
tp17
a(S'1656908097'
S'Frank Gomez'
tp18
a(S'100000337032617'
S'Marshall Dcosta'
tp19
a(S'691586017'
S'Steffi Elizabeth Kingham'
tp20
a(S'100001831927497'
S'Riya Kanji'
tp21
a(S'100002462289836'
S'K\\u00f8\\u00fa Sh\\u00e2Ni'
tp22
a(S'100000125443000'
S"Alice D'Rozario"
tp23
a(S'100000922858528'
S'Shaby Quli'
tp24
a(S'100006327733957'
S'Milie Gomes'
tp25
a(S'100000389186886'
S'Victor Oscar Mondal'
tp26
a(S'100001350151672'
p27
S'Priya Bhattacharya'
tp28
a(S'1196493511'
S'Clara Gomes'
tp29
a(S'100000031503966'
S'Roseline Gomes'
tp30
a(S'100001280076187'
S'Alexius Gomez'
tp31
a(S'1760649868'
S'Vincent Sammy Gomes'
tp32
a(S'100005895339737'
S'Alexius S Gomez'
tp33
a(S'1011925588'
S'Walter Dessa'
tp34
a(S'100001227904969'
S'Priyadarshan Paul'
tp35
a(S'100000853097058'
S'Jeanette Gomez'
tp36
a(S'100001867794258'
S'Ritwika Ghosh'
tp37
a(S'100002153468175'
S'Richard Gomes'
tp38
a(S'100000741855630'
S'Marcel Dcosta'
tp39
a(S'1563450367'
S'Amanda Mios Omoc'
tp40
a(S'100002444621055'
S'Sylvia Pillai'
tp41
a(S'100002288990516'
S'Protima Christina Biswas'
tp42
a(S'100003980321541'
S'Reshmi Sarkar'
tp43
a(S'100001187030347'
S'Nancy Maria Gomes'
tp44
a(S'100002400151497'
S'Stuti Sarah Lall'
tp45
a(S'100003192266419'
S'Rhea Makhal'
tp46
a(S'100001562691348'
S'Fiona Hou'
tp47
a(S'100001425931807'
S'Neha Dessa'
tp48
a(S'100003517890660'
S'Hannah Roy'
tp49
a(S'100001056048151'
S'Rachael Bonbon Gupta'
tp50
a(S'100001545444037'
S'Andrea Gomes'
tp51
a(S'100001562637696'
S'Ankita Jackson'
tp52
a(S'1012279342'
S'Linda Daksha Gomes'
tp53
a(S'100001351945706'
S'Subhasis Samuel Xess'
tp54
a(S'100001922885764'
S'Shane Gomes'
tp55
a(S'100006156576303'
S'Suman Rakesh Ranjan'
tp56
a(S'1585030672'
S'Tanita Lobo'
tp57
a(S'100003106369515'
S'Puja Gomes'
tp58
a(S'1549786596'
S'Sraboni Sen'
tp59
a(S'100000200681301'
S'Neha Fatima'
tp60
a(S'100001393780421'
S'Wendy Gomez'
tp61
a(S'100000905477987'
S'Adele Scarlet Xavier'
tp62
a(S'100003357155235'
S'Dishari Chaudhury'
tp63
a(S'1465391278'
S'Melissa Ann Waring'
tp64
a(S'100001502541185'
S'Monica Drozario'
tp65
a(S'1175059261'
S'Atharton Notrahta Biswas'
tp66
a(S'100003020179262'
S'Priscilla Giselle Aranha'
tp67
a(S'100001209668822'
S'Scarlett A. R Rozario'
tp68
a(S'100001432502163'
S'Rochelle Ann Dias'
tp69
a(S'100003280961743'
S'Stanley Gomez'
tp70
a(S'100002439877428'
S"Juliet D'Costa Gomes"
tp71
a(S'100001408695578'
S'Alven Gomes'
tp72
a(S'100003048232527'
S'Shruti Saha Roy'
tp73
a(S'100002262371168'
S'Srija Mahalanobish'
tp74
a(S'100001221891035'
S'Trisangita Bharadwaj'
tp75
a(S'100001682849237'
S'Raja Ghosh'
tp76
a(S'772412782'
p77
S'Stephanie Sequeira'
tp78
a(S'548706367'
S'Biswanjoy Dhar'
tp79
a(S'100001674326622'
S'Diana Lin'
tp80
a(S'100000250465026'
p81
S'Dhwani Popat'
tp82
a(S'100004219563923'
S'Julius Gomes'
tp83
a(S'100000904705554'
p84
S'Rishika Sengupta'
tp85
a(S'1105104667'
S'Caroline Dawson'
tp86
a(S'100001109863285'
p87
S'Daksh Goin Zig Zag'
tp88
a(S'100001263610496'
S"Sylvester D'Rozario"
tp89
a(S'100000001612219'
S'Lorenzo Bryan Gomes'
tp90
a(S'1299774863'
S'Chandra Rozario'
tp91
a(S'100003729127986'
S'Christina Ritu Paskar'
tp92
a(S'1469296979'
S'Naomi Harris'
tp93
a(S'100003336663785'
S'Rajasree Ghosh'
tp94
a(S'100001886055819'
p95
S'Shreya De'
tp96
a(S'100002223080706'
S'Sunipa Suzana Dcruze'
tp97
a(S'100004058452553'
S'Vanesa Rs'
tp98
a(S'100000190459542'
S'Sonia Dessa'
tp99
a(S'100002254248968'
S'Patricia Dillen'
tp100
a(S'100000417273030'
S'Charlene Hendricks'
tp101
a(S'100001452651143'
S'Shristi Solomi George'
tp102
a(S'100001101877178'
S"Vanessa Ann D'Reego"
tp103
a(S'100002262800702'
p104
S'Samprity Biswas'
tp105
a(S'100001021601637'
S'Meenakshi Manglani'
tp106
a(S'522715738'
S'Charlene Dantes'
tp107
a(S'100001583413463'
S'Chelsea Scolt'
tp108
a(S'1475118623'
p109
S'Ambreen Mahmood'
tp110
a(S'100000110134678'
p111
S'Hemlata Thawani'
tp112
a(S'100005863779864'
S'Shreya Hunday'
tp113
a(S'1034819167'
S'Amanda Gomes'
tp114
a(S'100001766644504'
S'Jennifer D Rozario'
tp115
asS'id'
p116
S'100001531883514'
p117
sS'name'
p118
S'Cyndrilla Gomes'
p119
s.