(dp1
S'name'
p2
S'Anoj Barbaria'
p3
sS'current_class'
p4
S'india'
p5
sS'home_text'
p6
VHasanpur\u000aHometown
p7
sS'current_link'
p8
Vhttps://www.facebook.com/l.php?u=https%3A%2F%2Fwww.bing.com%2Fmaps%2Fdefault.aspx%3Fv%3D2%26pc%3DFACEBK%26mid%3D8100%26where1%3D21.170000579914%252C%2B72.829742431641%26name%3DSurat%252C%2BGujarat%26mkt%3Den-IN&h=DAQGD8sWl&s=1
p9
sS'home_link'
p10
Vhttps://www.facebook.com/l.php?u=https%3A%2F%2Fwww.bing.com%2Fmaps%2Fdefault.aspx%3Fv%3D2%26pc%3DFACEBK%26mid%3D8100%26where1%3D28.716700419967%252C%2B78.283081054688%26name%3DHasanpur%26mkt%3Den-IN&h=jAQEtIddn&s=1
p11
sS'current_text'
p12
VSurat, Gujarat\u000aCurrent City
p13
sS'friends'
p14
(lp15
(S'1595884912'
S'Sanjeev Sultania'
tp16
a(S'100004825902431'
S'Manasvi Kamalia'
tp17
a(S'1364543658'
S'Alok Dhanuka'
tp18
a(S'100003138759183'
S'Sanjay Todi'
tp19
a(S'100005678735041'
S'Bimal Dhanuka'
tp20
a(S'100002354524714'
S'Khushi Mukim'
tp21
a(S'100002833110625'
S'Priyam Agarwal'
tp22
a(S'100001669651775'
S'Pankaj Kamalia'
tp23
a(S'100002695286406'
S'Tushika Kamalia'
tp24
a(S'100001574484028'
S'Umesh Kedia'
tp25
a(S'100004088003824'
S'Astha Agarwal'
tp26
a(S'1390323139'
S'Vivek Mukim'
tp27
a(S'100003982677353'
S'Vikhyat Kumar'
tp28
a(S'100001229275130'
S'Manoj Kamalia'
tp29
a(S'100000512910668'
S'Abhishek Agrawal'
tp30
a(S'1203641835'
S'Lalit Agrawal'
tp31
a(S'100000935144638'
S'Anil Chhapolia'
tp32
a(S'574502956'
S'Samir Tekriwal'
tp33
a(S'100006338793357'
S'Dimple Todi'
tp34
a(S'100003209507925'
S'Vikhyat Agrawal'
tp35
a(S'100002915962375'
S'Manasvi Kamalia'
tp36
a(S'613654520'
S'Rajesh Agrawal'
tp37
a(S'100004535534212'
S'Manis Barbariya'
tp38
a(S'100004447211479'
S'Shivani Tekriwal Kamalia'
tp39
asS'id'
p40
S'100002994090589'
p41
s.