(dp1
S'friends'
p2
(lp3
(S'100004888777874'
S'Abbas Khan Mmd'
tp4
a(S'100005546409615'
S'Dildar Khan Baloch'
tp5
a(S'100000695025459'
p6
S'Hamza Nizami'
tp7
a(S'100005828860519'
p8
S'Pakistan Zindabad'
tp9
a(S'100002869558438'
S'Sajjad Ahmed'
tp10
a(S'100003675770223'
S'Almas Andaleef'
tp11
a(S'100005611267943'
S'Shahnawaz Baloch'
tp12
a(S'100000289807694'
p13
S'Ghazi Ya Shaheed'
tp14
a(S'100006135152412'
S'\\u0635\\u062f\\u0627\\u0645 \\u062d\\u0633\\u06cc\\u0646 \\u0628\\u0644\\u0648\\u0686'
tp15
a(S'100000855893825'
p16
S'Fatima Shah'
tp17
a(S'100006151059001'
p18
S'Muhammad Subhan'
tp19
a(S'100006282284519'
p20
S'Hamza Shahbaz'
tp21
a(S'100005334853286'
S'Adnan Ahmed Hafiz'
tp22
a(S'100004680819975'
p23
S'Sher E Pakistan'
tp24
a(S'100002044123592'
p25
S'Pak Pakistan'
tp26
a(S'100003326046267'
p27
S'Rizwan Methuo'
tp28
a(S'100004196020339'
S'Mian Jamshaid Ch'
tp29
a(S'100005414799852'
p30
S'Mohammad Ibrahim'
tp31
a(S'100004670351383'
p32
S'Irshad Khan'
tp33
a(S'100003183743692'
p34
S'Abubakar Sandhu'
tp35
a(S'100004422584117'
S'Pak Commando'
tp36
a(S'100004408231439'
p37
S'Zakar Baloch'
tp38
a(S'100004095542583'
S'Meri Pehchan Pakistan'
tp39
a(S'100002050494939'
p40
S'Gumnam Janbaz'
tp41
a(S'100005205341036'
S'Bp Sojib Paskar'
tp42
a(S'100005417640466'
p43
S'Ikram Aslam'
tp44
a(S'100000554180052'
p45
S'Asad Iqbal'
tp46
a(S'100006386891810'
S'Abdullah Baloch'
tp47
a(S'100005915983545'
p48
S'Jeay Pakistan'
tp49
a(S'100005431147406'
S'Ashraf Malik'
tp50
a(S'100003114780248'
p51
S'WeLove PakArmy'
tp52
a(S'100003655634120'
p53
S'Naeem Abbas'
tp54
a(S'100006458851519'
S'Shabbir Usmani'
tp55
a(S'100002971430639'
S'Adeel Asif Awan'
tp56
a(S'100001813880734'
p57
S'Ali Jan'
tp58
a(S'100004778322431'
p59
S'Yamin Yasin'
tp60
a(S'100005700820606'
p61
S'Pak Faujh Jawan'
tp62
a(S'100005254320967'
S'DrShahla Latif'
tp63
a(S'100001576498211'
S'Zahid Malik'
tp64
a(S'100004249085686'
S'Saqib Shabbir'
tp65
a(S'100005300954071'
S'Mubashir Ali'
tp66
a(S'100004424250956'
S'Sadia Randhawa'
tp67
a(S'100001734873091'
S'AF Pakistan'
tp68
a(S'100002963165748'
p69
S'Nawaz Baloch'
tp70
a(S'100004101919605'
S'\\u062c\\u0645\\u064a\\u0644 \\u0639\\u0633\\u0627\\u0641'
tp71
a(S'100003968713271'
S'Ali Abbas'
tp72
a(S'100001098802584'
p73
S'Pakistan Ishq Pakistan Junoon'
tp74
a(S'100007108260340'
S'Ara Mashal'
tp75
a(S'100000208062147'
p76
S'Time To Capture India'
tp77
a(S'100005990111779'
p78
S'Pak Lion'
tp79
a(S'100004746554255'
p80
S'Bol Pakistan Bol'
tp81
a(S'100003915695353'
S'Taifoor Shahzad Khan'
tp82
a(S'100004734243238'
p83
S'\\u0627\\u0633\\u0644\\u0627\\u0645\\u06cc \\u062c\\u0645\\u06c1\\u0648\\u0631\\u06cc\\u06c1 \\u067e\\u0627\\u06a9\\u0633\\u062a\\u0627\\u0646'
tp84
a(S'100004218611733'
p85
S'Ali Zafar'
tp86
a(S'100004841015442'
S'Hena Khan'
tp87
a(S'100007143701028'
S'Muhammad Faisal Nawaz'
tp88
a(S'100006555908657'
p89
S'Namaloom Afraad'
tp90
a(S'100000185346262'
p91
S'Drmubeen Ahmad'
tp92
a(S'100004334023080'
p93
S'Pakistan ZindahBad'
tp94
a(S'100001648740813'
S'Noman Saleem'
tp95
a(S'100004437344360'
p96
S'Zubair Khan'
tp97
a(S'100002786562729'
p98
S'Muhammad Ahmad Sarwar'
tp99
a(S'100003469667829'
S'Muhammad Ayan Khan'
tp100
a(S'100006506700779'
S'Saqib Ali'
tp101
a(S'100006106440834'
p102
S'Sameer Khan'
tp103
a(S'100003187840767'
p104
S'Ahmad Nadeem'
tp105
a(S'100004256291952'
p106
S'Captan Haleem'
tp107
a(S'100003931025312'
p108
S'Muhammad Sadiq'
tp109
a(S'100006357762427'
S'Umar Ch'
tp110
a(S'100000586631372'
S'Sharjeel Azzazeel'
tp111
a(S'100002138961295'
S'Muhammad Shahbaz'
tp112
a(S'100004676372349'
S'Ziani Kawtar'
tp113
a(S'100002768251375'
p114
S'\\u067e\\u0627\\u06a9\\u0633\\u062a\\u0627\\u0646\\u06cc \\u067e\\u0627\\u06a9\\u0633\\u062a\\u0627\\u0646\\u06cc'
tp115
a(S'100005838967440'
S'Muhammad Binyamin'
tp116
a(S'100002556446712'
S'Samiya Ahsaan'
tp117
a(S'100003620102943'
p118
S'Muhammad Nisar Awan'
tp119
a(S'100002840343170'
p120
S'Green Hope'
tp121
a(S'100003323816012'
S'Khawar Naseem'
tp122
a(S'100005483732829'
S'Asif Nawaz Pakarmy'
tp123
a(S'100003083913768'
p124
S'Ghulam Rasool'
tp125
a(S'100005911420752'
S'Usman Abbasi'
tp126
a(S'100002745018885'
p127
S'Muhammad Ali'
tp128
a(S'100006485784091'
S'Good Voice'
tp129
a(S'100002475852451'
p130
S'Greater Pakistan'
tp131
a(S'1488651795'
p132
S'Hasrat Kiani'
tp133
a(S'100000579922983'
p134
S'Fuaad Alawi'
tp135
a(S'100004267931863'
p136
S'Juliana FitzWater'
tp137
a(S'100001700498775'
p138
S'Waheed Abbasi'
tp139
a(S'100006065918297'
p140
S'Sajid Aash'
tp141
a(S'100006096720926'
S'Capt-Atta Ullah'
tp142
a(S'100003859147336'
p143
S'Haseeb Arshad Ch'
tp144
a(S'100003356894083'
p145
S'Amaad Khokhar'
tp146
a(S'100005033174207'
p147
S'Soomiya Aamir'
tp148
a(S'100003984558232'
p149
S'Apna Pakistan'
tp150
a(S'100005161122777'
S'Lubna Shah'
tp151
a(S'100003234968765'
p152
S'Muhammad Muzammil'
tp153
a(S'100003113199069'
S'Raza Ahmed Khan'
tp154
asS'id'
p155
S'100005055221438'
p156
sS'name'
p157
S'Rana Bilal'
p158
s.