(dp1
S'friends'
p2
(lp3
(S'100007552721845'
S'Razia Ekram'
tp4
a(S'100006583476871'
S'Muhammad Shaban'
tp5
a(S'100006361722239'
S'Flyng Officers Malik'
tp6
a(S'100006526481184'
S'Ali Imran'
tp7
a(S'100005884149538'
p8
S'Ghulam Foji'
tp9
a(S'100006151059001'
S'Muhammad Subhan'
tp10
a(S'100003984464472'
S'Ishfaq Ahmed'
tp11
a(S'100007861532829'
S'Asmatuola Khan Maseed'
tp12
a(S'100000424836033'
S'Rafakat Hashmi'
tp13
a(S'100005595792813'
S'Sunny Inam'
tp14
a(S'791524851'
S'Rehan Ashfaq'
tp15
a(S'100008269573115'
S'Muhammad Amir Shahzad'
tp16
a(S'100004413090270'
S'Raza Ali'
tp17
a(S'100001026986742'
p18
S'A Wahid Sandhu'
tp19
a(S'100007134067220'
S'Maham Tibrani'
tp20
a(S'100001035712346'
S'Hassnain Shah'
tp21
a(S'100007407214748'
S'Jabbar Khan'
tp22
a(S'100007261687461'
S'Coper Denga'
tp23
a(S'100006180125558'
S'Mukhtiar Ali Katohar Baloch'
tp24
a(S'100005677985048'
S'Chraza Khan Chaudry'
tp25
a(S'100004364493232'
S'CH Umair Sandrana'
tp26
a(S'100005665110967'
S'Sara Malik'
tp27
a(S'100006969187575'
S'Sohail Choudhary'
tp28
a(S'100001658753291'
S'Bugti Baloch'
tp29
a(S'100002654820833'
S'Mian Khurram Rauf'
tp30
a(S'100007978292569'
S'Palwasha Shehzadi'
tp31
a(S'100004941670760'
S'Imran Jan'
tp32
a(S'100007148587541'
S'Imtiaz Ali'
tp33
a(S'100004247735783'
S'Raja Sab'
tp34
a(S'100007023311223'
S'Muhammad Rizwan'
tp35
a(S'100005212081296'
S'Naveed Faisal'
tp36
a(S'100007768986108'
p37
S'Ideals Stories'
tp38
a(S'100003551188670'
p39
S'Uzair Saifi'
tp40
a(S'100007829230157'
S'Yasir Virk'
tp41
a(S'100003114780248'
p42
S'WeLove PakArmy'
tp43
a(S'100008194415793'
S'Shahjahn Baloch'
tp44
a(S'636034353'
p45
S'Pakistan Tuje Salaam'
tp46
a(S'100005023177524'
S'Ahtisham Ali'
tp47
a(S'100002706817332'
S'Asif Shah'
tp48
a(S'100005700820606'
p49
S'Pak Faujh Jawan'
tp50
a(S'100006966909011'
p51
S'Pak King Baloch'
tp52
a(S'100004787492694'
S'Nasur Ullah'
tp53
a(S'100003126540612'
S'Inam Wazir'
tp54
a(S'100004289433182'
S'Rana Nasir'
tp55
a(S'100004123842671'
S'Ujala Kanwal'
tp56
a(S'100008124542578'
S'Imran Ullah'
tp57
a(S'100007493738591'
S'Lea Faith Leal'
tp58
a(S'100007499921626'
S'Mirza Shafqat Baig'
tp59
a(S'100000993827086'
S'Umer Ali'
tp60
a(S'100006535448778'
p61
S'Gumname Sipahi'
tp62
a(S'100002403477453'
S'Rizwana Yasin'
tp63
a(S'100006160750459'
S'Afshan Zaibi Abotabad'
tp64
a(S'100006898860207'
S'Tania Shaikh'
tp65
a(S'100003922601147'
S"Mhelf'z Chmel William"
tp66
a(S'100007129650274'
S'Abdul Rahman Khan'
tp67
a(S'100005187094716'
S'Abeaan Safdar'
tp68
a(S'100002739109774'
p69
S'Imrankhan Sherkhan'
tp70
a(S'100008208123438'
S'Imran Gujjar'
tp71
a(S'100005990111779'
p72
S'Pak Lion'
tp73
a(S'100007639213935'
S'Seif Khan'
tp74
a(S'100003853914088'
S'Sabir Khan'
tp75
a(S'100005063010721'
S'Hamdan Tanveer'
tp76
a(S'100004541645814'
S'Khursheed Khan'
tp77
a(S'100003339946828'
S'Yasir Naveed'
tp78
a(S'100000164888398'
S'Saifoor Afridi'
tp79
a(S'100006975462424'
S'Siddique Butt'
tp80
a(S'100007398635138'
S'Syed Sardar Hussin Sardar'
tp81
a(S'100001754675723'
p82
S'Pakistan Zindabad'
tp83
a(S'100006106440834'
S'Sameer Khan'
tp84
a(S'100002518386454'
S'Asif Munir'
tp85
a(S'100007477512915'
S'Umm E Farwa'
tp86
a(S'100006109842448'
p87
S'Awaz E Pakistan'
tp88
a(S'100002552961308'
S'Mohmmadnadeem Ahmed'
tp89
a(S'100004785794473'
S'Commandos SSg'
tp90
a(S'100001436561346'
S'Wahab Shafqat Ch'
tp91
a(S'100007571711580'
S'Hussain Bux'
tp92
a(S'1237794396'
S'Lovely Falak'
tp93
a(S'100003140634778'
S'Amir Khan'
tp94
a(S'100007305965238'
S'Mian Muzammil'
tp95
a(S'100005556783476'
S'Wakil Khan'
tp96
a(S'100007615001984'
S'Muhammad Tahir'
tp97
a(S'100004780110299'
S'Anaya Khan'
tp98
a(S'100007823166438'
S'Mian Zahid Hussain Jalandhari'
tp99
a(S'100001669544920'
p100
S'Ashraf Nawaz'
tp101
a(S'100002745018885'
p102
S'Muhammad Ali'
tp103
a(S'100006493633443'
S'Abrar Hussain'
tp104
a(S'100002416955612'
p105
S'Sajjad Khan'
tp106
a(S'100005644898080'
S'Ashfaq Dogar'
tp107
a(S'100000014300000'
p108
S'Imran Malhi'
tp109
a(S'100007458150986'
S'Nazir Khan Pak Istani'
tp110
a(S'100005011741675'
S'M Zahid Zahid'
tp111
a(S'100007075184257'
S'Muhammed Ammar'
tp112
a(S'100005943604125'
S'Anti-baloch Libration-army Terrorism'
tp113
a(S'100003859147336'
p114
S'Haseeb Arshad Ch'
tp115
a(S'100007671902496'
S'Usman Khattak'
tp116
a(S'100001535993851'
S'Ch Nasrullah Shahzad'
tp117
a(S'100004009855403'
p118
S'Abrar Bhai'
tp119
a(S'100007094291106'
S'BaDshah Khan'
tp120
a(S'100006641314476'
S'Swat Khanbaba'
tp121
asS'id'
p122
S'100004755253961'
p123
sS'name'
p124
S'Mushtaq Ahmed'
p125
s.