(dp1
S'name'
p2
S'Shani Rajpoot'
p3
sS'current_class'
p4
S'pakistan'
p5
sS'home_class'
p6
Vlahore, pakistan
p7
sS'home_text'
p8
VLahore, Pakistan\u000aHometown
p9
sS'current_link'
p10
Vhttps://www.facebook.com/l.php?u=https%3A%2F%2Fwww.bing.com%2Fmaps%2Fdefault.aspx%3Fv%3D2%26pc%3DFACEBK%26mid%3D8100%26where1%3D31.549700669186%252C%2B74.343109130859%26name%3DLahore%252C%2BPakistan%26mkt%3Den-IN&h=rAQHpTyr_&s=1
p11
sS'home_link'
p12
Vhttps://www.facebook.com/l.php?u=https%3A%2F%2Fwww.bing.com%2Fmaps%2Fdefault.aspx%3Fv%3D2%26pc%3DFACEBK%26mid%3D8100%26where1%3D31.549700669186%252C%2B74.343109130859%26name%3DLahore%252C%2BPakistan%26mkt%3Den-IN&h=6AQHWjr0r&s=1
p13
sS'current_text'
p14
VLahore, Pakistan\u000aCurrent City since 2012
p15
sS'friends'
p16
(lp17
(S'100003377355888'
S'Zeeshan Shah'
tp18
a(S'100002975733587'
S'Nitish Rajput'
tp19
a(S'100006641710363'
S'Sanam Hayat Haidar'
tp20
a(S'100002435092678'
S'Asim Zafer'
tp21
a(S'100006501019069'
S'Bilal Mushtaq Ahmad'
tp22
a(S'100005526491050'
S'Urwa Gill'
tp23
a(S'100006576280758'
S'Saher Sohail'
tp24
a(S'100006481968239'
S'Jawad Ahmad'
tp25
a(S'100007000326643'
S'Nadia Salman'
tp26
a(S'100007362307670'
S'Naila Khan'
tp27
a(S'100003593980811'
S'Sadia Subhani'
tp28
a(S'100007137757275'
S'Angel Maria'
tp29
a(S'100007327571868'
S'Waqarboy Waqarboy'
tp30
a(S'100004359463615'
S'Sh Azeem Sadeqi'
tp31
a(S'100006530626558'
S'Salman Bilal'
tp32
a(S'100001622356131'
S'Shahid Aziz'
tp33
a(S'100004685460878'
S'Itx LaiLa'
tp34
a(S'100004069357571'
S'Fehmina Baloch'
tp35
a(S'100003363278989'
S'Iqra Saeed'
tp36
a(S'100003316475875'
S'Shani Rajpoot'
tp37
a(S'100004753680914'
S'Mohammad Ali'
tp38
a(S'100005925823935'
S'Irfan Hafeez Hafeez Irfan'
tp39
a(S'100003270229040'
S'Mahek Malik'
tp40
a(S'100002494783067'
S'Shan Rana'
tp41
a(S'100003565939428'
S'Sara Falahi'
tp42
a(S'100007207684685'
S'Rana Saab'
tp43
a(S'100007526771188'
S'Rana Hassan'
tp44
a(S'100003736688758'
S'Noreen Banu'
tp45
a(S'100003211063269'
S'Hareem Khan'
tp46
a(S'100007404070947'
S'Kaleem Ansari'
tp47
a(S'100008077812806'
S'Ash Rajpoot'
tp48
a(S'100003239402421'
S'Muzamil Khan'
tp49
a(S'100007728400891'
S'Hamun D\\u00ef Shygyal'
tp50
a(S'100008045372767'
S'Mamanelia Balisi'
tp51
a(S'100004158780434'
S'Haseeb Raza'
tp52
a(S'100001499444546'
S'Ghulam Hussain Muhammad Latif'
tp53
a(S'100002415363245'
S'Coming Soon'
tp54
a(S'100006132810363'
S'Abdul Wahb'
tp55
a(S'100000651505227'
S'Zeeshan Bhutta'
tp56
a(S'100006330456981'
S'Kanwel Sahzadi'
tp57
a(S'100006760560220'
S'Ali Khan Khan'
tp58
a(S'100002376055330'
S'Nelia Revilla Cacho Mascardo'
tp59
a(S'100003697849208'
S'Piyu Singh'
tp60
a(S'100001773821041'
S'Malik Waqas'
tp61
a(S'100008241992659'
S'Sana Khan'
tp62
a(S'100005364794446'
S'Smeeya Butt'
tp63
a(S'100007332612459'
S'Muhammad Mushtaq Hussan'
tp64
a(S'100007085144490'
S'Ahmad Raza'
tp65
a(S'100005249581143'
S'Rana Raza'
tp66
a(S'100003743215992'
S'Princess Zoya'
tp67
a(S'100006330665610'
S'Iqbal Shaheen'
tp68
a(S'100003821615787'
S'Noor Fatima'
tp69
a(S'100003600191601'
S'Nadeem Rajpoot'
tp70
a(S'100005893244529'
S'Anne Asad'
tp71
a(S'100005161802912'
S'Lyn Pacimos'
tp72
a(S'100006641730791'
S'Ijaz Humayun'
tp73
a(S'100007569010877'
S'Ashi Qasim'
tp74
a(S'100007434702221'
S'Hashim Ali'
tp75
a(S'100003691812509'
S'Sara Aman'
tp76
a(S'100003613630050'
S'Misbah Sultana'
tp77
a(S'100002307707717'
S'Samreen Sajid'
tp78
a(S'100006505819530'
S'Shahbaz Mushtaq'
tp79
a(S'100007701541609'
S'Rajendra Kumar'
tp80
a(S'100003752092274'
S'Asif Rockstar'
tp81
a(S'100003557267684'
S'Muhammad Naveed'
tp82
a(S'100006589235148'
S'Muhammad Usman'
tp83
a(S'100007825393449'
S'Sania Asghar'
tp84
a(S'100004750325270'
S'Khurram Tanveer'
tp85
a(S'100002054134402'
S'PrIncex SaDia'
tp86
a(S'100004035456155'
S'Awais Ahmad'
tp87
a(S'100004705085475'
S'Lovely Arsal Rajpoot'
tp88
a(S'100002276801203'
S'Fahad Badshah Ab'
tp89
a(S'100008131110731'
S'Arslan Rana'
tp90
a(S'100003386539214'
S'Atif Khan'
tp91
a(S'100004226621524'
S'Pooja Sharma'
tp92
a(S'100007371668959'
S'Versha Kumari'
tp93
a(S'100006131713035'
S'Yasir Rasheed'
tp94
a(S'100003258765984'
S'Prince Sam'
tp95
a(S'100004480006865'
S'Akram Saeed'
tp96
a(S'100001333653319'
S'Maria Butti'
tp97
a(S'100001547813085'
S'Fahad Badshah'
tp98
a(S'100002673980516'
S'Yaro Yahi Dosti Hai'
tp99
a(S'100003357782694'
S'Farman Tariq'
tp100
a(S'100004243352482'
S'Wasi Khan'
tp101
a(S'100004707487436'
S'Kashif Ansari'
tp102
a(S'100003939034859'
S'Rana Hassan Rana Hassan'
tp103
a(S'100001787447897'
S'Laiba Aziz'
tp104
a(S'100006230862747'
S'Minahil Jutt'
tp105
a(S'100002719989968'
S'Sana Khan'
tp106
a(S'100002398225445'
S'Malik Hassan Ali'
tp107
a(S'100007655825076'
S'Raju Singh'
tp108
a(S'100006698732942'
S'Shahbaz Ahmad'
tp109
a(S'100005524937847'
S'Ihsan Ali'
tp110
a(S'100007825651534'
S'Sanam Khan'
tp111
a(S'100002350443869'
S'Rana Sohaib'
tp112
a(S'100006212048999'
S'Maher Ali Prince'
tp113
a(S'100005745186386'
S'Nancy Demin'
tp114
a(S'100003836953982'
S'Rana Hassan'
tp115
a(S'100003127582929'
S'Ramiz Mughal'
tp116
a(S'100003648085482'
S'Addi Mirza'
tp117
a(S'100003668707445'
S'Rana Uneeb'
tp118
a(S'100003342826327'
S'Princess Sana'
tp119
a(S'100003713491395'
S'Eman Anwar'
tp120
a(S'100007669091921'
S'Saba Rafi'
tp121
a(S'100007332720100'
S'Muhammad Khurram'
tp122
a(S'100003153816945'
S'Arman Ali'
tp123
a(S'100008319002095'
S'Fazal Khan'
tp124
a(S'100007133044888'
S'Rahul Kumar'
tp125
a(S'100007559948260'
S'Meg Konna'
tp126
a(S'573212625'
S'Asma Noor Khan'
tp127
a(S'100003548656844'
S'Mano Sheikh'
tp128
a(S'100006276640713'
S"Angle Eye's"
tp129
a(S'100004722818041'
S'Xtylo Sana'
tp130
a(S'100000647138225'
S'Zeeshan Haider'
tp131
a(S'100006835322005'
S'Sagheer Ahamd'
tp132
a(S'100001045695070'
S'Rashid Subhani'
tp133
a(S'100006571093796'
S'Malik Tasawur'
tp134
a(S'100006466164077'
S'Rizwan Muhammad'
tp135
a(S'100002269010528'
S'Farhan Saboor'
tp136
a(S'100003322784700'
S'Angel Amna'
tp137
a(S'100004897871787'
S'Nabeel Ali'
tp138
a(S'100006331813524'
S'Veedi Veedi'
tp139
a(S'100001723226961'
S'Bilal Anwar'
tp140
a(S'100000428410261'
S'Anees Ansari'
tp141
a(S'100002081487537'
S'Rana Sunny'
tp142
a(S'100008120373414'
S'Ahsan Shahzad'
tp143
a(S'100007502649867'
S'Zain Hassan'
tp144
a(S'100003223546224'
S'Mahnoor Ch'
tp145
a(S'100000972263555'
S'Amjad Ali Khan'
tp146
a(S'100003034475488'
S'Innocent Rajput'
tp147
a(S'100002242878432'
S'Nadeem Rajput'
tp148
a(S'100002310162316'
S'Touqeer Ahmad'
tp149
a(S'100007623125909'
S'Shahzad Gul'
tp150
a(S'100002912394427'
S'Faisal Rana'
tp151
a(S'100004137692134'
S'Naeem Akram'
tp152
a(S'100001648211258'
S'Gulfam Rana'
tp153
a(S'100008282228189'
S'Khan Sb'
tp154
a(S'100007443155223'
S'Junaid Ali'
tp155
a(S'100004632550916'
S'Sameera Khan'
tp156
a(S'1562887696'
S'Asif Raza'
tp157
a(S'100003398461542'
S'Samra Tariq'
tp158
a(S'100001558400722'
S'Daniyal Dani'
tp159
a(S'100006633093073'
S'Prinsixz Maha'
tp160
a(S'100006669369036'
S'Faith Mofutsanyana'
tp161
a(S'100004709975684'
S'Abdul Hanan'
tp162
a(S'100002609553082'
S'Samm Xheikh'
tp163
a(S'100004128161437'
S'Pirncess Saira'
tp164
a(S'100001514283937'
S'Zahid Badshah'
tp165
a(S'100006355562826'
S'Muhammad Usman'
tp166
a(S'100007353430472'
S'Waqar Ansari'
tp167
a(S'100006648276318'
S'Shoaib G Shoaib G'
tp168
a(S'100007855362871'
S'Zara Malik'
tp169
asS'id'
p170
S'100003570489272'
p171
s.