(dp1
S'friends'
p2
(lp3
(S'100001634433673'
S'Atul Pandey'
tp4
a(S'1534103058'
S'Ayushee Agarwal'
tp5
a(S'627630804'
S'Prachi Agarwal'
tp6
a(S'100002485014466'
S'Priyanka Patel'
tp7
a(S'838303274'
S'Shubham Srivastava'
tp8
a(S'100001082500638'
S'Kumar Abhinav'
tp9
a(S'592432448'
S'Piyush Singhal'
tp10
a(S'100005403307015'
S'Upendra Singh'
tp11
a(S'668616905'
S'Shashank Ojha'
tp12
a(S'1029713428'
p13
S'Sandip Garg'
tp14
a(S'100000290833195'
S'Jeyaseelan Palanichamy'
tp15
a(S'100003079037648'
S'Pratibha Singh'
tp16
a(S'1135531631'
S'Anvita Upadhyay'
tp17
a(S'580573236'
S'Saujanya Ranjan'
tp18
a(S'100003322357534'
S'Swati Srivastava'
tp19
a(S'100000787496687'
S'Amit Pandey'
tp20
a(S'728626931'
S'Surbhi Goyal Singhal'
tp21
a(S'589086783'
S'Ankit Gupta'
tp22
a(S'695966231'
S'Sai Krishna Thota'
tp23
a(S'100001614057705'
S'Manish Singhal'
tp24
a(S'611714516'
S'Pulkit Agarwal'
tp25
a(S'837447066'
S'Arun Chaturvedi'
tp26
a(S'100001320603375'
S'Nitin Jaiman'
tp27
a(S'100001167068627'
S'Yogender Chaudhry'
tp28
a(S'645961950'
S'Divya Singhal'
tp29
a(S'802230166'
S'Sanjog Gupta'
tp30
a(S'827309501'
S'Smriti Tripathi'
tp31
a(S'100001471651832'
S'Prabhakar Prabhat'
tp32
a(S'100000276805380'
S'Mitav Kulshrestha'
tp33
a(S'100002096595413'
S'Madan Meena'
tp34
a(S'100001395279080'
S'Megha Aggarwal'
tp35
a(S'100002628927391'
S'Abhishek Kumar'
tp36
a(S'705146911'
S'Aditi Yadav'
tp37
a(S'100005756130678'
S'Nipun Garg'
tp38
a(S'1611427555'
S'Richa Agarwal'
tp39
a(S'618075762'
S'Swati Goyal'
tp40
a(S'1214949887'
S'Prachi Agarwal'
tp41
a(S'559030185'
S'Abhijit Seam'
tp42
a(S'100001258124352'
S'Shubham Jain'
tp43
a(S'507941085'
S'Rohit Mittal'
tp44
a(S'100000237168662'
S'Anurag Tripathi'
tp45
a(S'100007350634263'
S'Sukant Vatsa'
tp46
a(S'716549642'
S'Prashant Misra'
tp47
a(S'100006492184266'
S'Naveed Trumboo'
tp48
a(S'710682825'
S'Pallavi Gupta'
tp49
a(S'100002391377664'
S'Surendra Meena'
tp50
a(S'100000534084422'
S'Anshita Agarwal'
tp51
a(S'694580085'
S'Zoya Ali'
tp52
a(S'524171262'
S'Priya Goel'
tp53
a(S'100002078887119'
S'Aman Walia'
tp54
a(S'100000374146621'
S'Suresh Kataria'
tp55
a(S'753112733'
S'Pavitra Kumar Dubey'
tp56
a(S'100000457429861'
S'Aditya Divakar Prabhudesai'
tp57
a(S'100004801874188'
S'Vivek Kole'
tp58
a(S'100001306841339'
S'Saumya A Pandey'
tp59
a(S'100001436828828'
S'Bharti Saini'
tp60
a(S'760580356'
S'Pulkit Gupta'
tp61
a(S'100000291932499'
S'Mudit Singh'
tp62
a(S'1225271123'
S'Megha Bhargava'
tp63
a(S'517787878'
S'Satyakam Dutta'
tp64
asS'id'
p65
S'100001269401304'
p66
sS'name'
p67
S'Nimit Goyal'
p68
s.