(dp1
S'name'
p2
S'Simi Shah'
p3
sS'current_class'
p4
S'pakistan'
p5
sS'home_class'
p6
Vpeshawar, pakistan
p7
sS'home_text'
p8
VPeshawar, Pakistan\u000aHometown
p9
sS'current_link'
p10
Vhttps://www.facebook.com/l.php?u=https%3A%2F%2Fwww.bing.com%2Fmaps%2Fdefault.aspx%3Fv%3D2%26pc%3DFACEBK%26mid%3D8100%26where1%3D34.016700984757%252C%2B71.582794189453%26name%3DPeshawar%252C%2BPakistan%26mkt%3Den-IN&h=dAQFb7sXA&s=1
p11
sS'home_link'
p12
Vhttps://www.facebook.com/l.php?u=https%3A%2F%2Fwww.bing.com%2Fmaps%2Fdefault.aspx%3Fv%3D2%26pc%3DFACEBK%26mid%3D8100%26where1%3D34.016700984757%252C%2B71.582794189453%26name%3DPeshawar%252C%2BPakistan%26mkt%3Den-IN&h=8AQFN85pf&s=1
p13
sS'current_text'
p14
VPeshawar, Pakistan\u000aCurrent City
p15
sS'friends'
p16
(lp17
(S'100001597391680'
p18
S'Salikk Khan'
tp19
a(S'100002018544100'
p20
S'Ayan Chudry'
tp21
a(S'100000783449055'
p22
S'Usman Manzoor'
tp23
a(g20
S'Ayan Chudry'
tp24
a(S'100004743512746'
p25
S'Imran Nomi'
tp26
a(S'100003022273976'
p27
S'Hassan Khan'
tp28
a(S'100006760560220'
p29
S'Ali Khan Khan'
tp30
a(S'100002917764270'
p31
S'Aslam Khan'
tp32
a(g25
S'Imran Nomi'
tp33
a(g27
S'Hassan Khan'
tp34
a(g29
S'Ali Khan Khan'
tp35
a(g31
S'Aslam Khan'
tp36
a(S'838710053'
p37
S'Ahad Jamshaid'
tp38
a(S'100000820534370'
p39
S'Imran Nomi'
tp40
a(S'100001558400722'
p41
S'Daniyal Dani'
tp42
a(S'100004761751560'
p43
S'Riaz Ahmad'
tp44
a(g18
S'Salikk Khan'
tp45
a(g22
S'Usman Manzoor'
tp46
a(g37
S'Ahad Jamshaid'
tp47
a(g43
S'Riaz Ahmad'
tp48
a(g39
S'Imran Nomi'
tp49
a(g41
S'Daniyal Dani'
tp50
asS'id'
p51
S'100007569130158'
p52
s.