(dp1
S'friends'
p2
(lp3
(S'100001771213490'
S'H\\u00eb\\u00e3rt L\\u00f8\\u00e7k\\u00ear H\\u00e5rsh'
tp4
a(S'100002660765155'
S'Gyan Deep'
tp5
a(S'100002049156595'
S'Abhishek Singh'
tp6
a(S'100002120508107'
S'Aniket Sharma'
tp7
a(S'100000255899022'
S'Rajershi Dharmendra'
tp8
a(S'100002758820958'
S'Kumar Triwedi Naveen'
tp9
a(S'100001701958152'
S'Prit Ranjan'
tp10
a(S'100004309535345'
S'Bittu Jackson'
tp11
a(S'100007803463780'
S'Raj Kishore'
tp12
a(S'100000699658744'
S'Apratim Pranshu'
tp13
a(S'100002681656457'
S'Gaurav Kumar'
tp14
a(S'100002964232850'
S'Vishu Bhati'
tp15
a(S'100005656922700'
S'Simran Sinha'
tp16
a(S'100001481563984'
S'Shanu Bharti'
tp17
a(S'100002192837729'
S'Ranu Singh'
tp18
a(S'100001253932181'
S'Aditya Singh'
tp19
a(S'100004049588398'
S'Ankit Raj'
tp20
a(S'100002925451658'
S'King Vatsal'
tp21
a(S'100002410329751'
S'Abhishek Kashyap'
tp22
a(S'100001628918823'
S'Ssandwich Singh'
tp23
a(S'100003262268379'
S'Nayan Saxena'
tp24
a(S'100001482747697'
S'Rahul Jha'
tp25
a(S'100004681534278'
S'Suman Saurabh'
tp26
a(S'100003987244750'
S'Sanu Srivastava'
tp27
a(S'100006959495524'
S'Ravin Raj'
tp28
a(S'1780086211'
S'Raashii Singh Sharma'
tp29
a(S'100001523661955'
S'Kumar Sanket'
tp30
a(S'100003168236775'
S'\\u0160t\\u00ff\\u0142\\u1ed5 \\u00c1t\\u0164\\u00eft\\u00fcd\\u1ebd Pw\\u012f\\u0148\\u1e09\\u1ebbx\\u1e91 \\u00c0\\u00f1n\\u00ee\\u00e8'
tp31
a(S'100005060614090'
S'Swapn'
tp32
a(S'100002791800607'
S'Rahul Singh'
tp33
a(S'100003357484580'
S'Ashok Chandra'
tp34
a(S'100002920739091'
S'Nishant Singh'
tp35
a(S'100001796318524'
S'Guddu Fanaa'
tp36
a(S'100004580046733'
S'Shere Banu'
tp37
a(S'100008267461696'
S'Eshika Raj'
tp38
a(S'100002779060448'
S'Anne Droeed Yash'
tp39
a(S'100000833881455'
S'Lavigne Abhinay'
tp40
a(S'100002012023742'
S'Abhishek Aadil'
tp41
a(S'100004039396777'
S'Raiya Sharma'
tp42
a(S'100002468508508'
S'Uttam Kumar'
tp43
a(S'100002041643929'
S'Shashank Shekhar'
tp44
a(S'100002798954990'
S'Nikki Singh'
tp45
a(S'100003233545828'
S'Amit Raj'
tp46
a(S'100000809051770'
S'Nilesh Ranjan'
tp47
a(S'100002177894379'
S'Rishabh Rathor'
tp48
a(S'100003335318936'
S'Mohit Gupta'
tp49
a(S'100003558438388'
S'Prince Raj'
tp50
a(S'100000837698784'
S'Sanket'
tp51
a(S'100003131929010'
S'Samir Ranjan'
tp52
a(S'100002347135714'
S'Prakhar Kumar'
tp53
a(S'100000664196448'
S'Adwaid Mohan'
tp54
a(S'100002499531853'
S'Ravi Roxy'
tp55
a(S'100001691496787'
S'Akshay Badshah'
tp56
a(S'100006606490625'
S'Purushottam Narayan'
tp57
a(S'100001217115743'
S'DeepanJan MoNi'
tp58
a(S'100003058727680'
S'Moon Khan'
tp59
a(S'100002066440365'
S'Praveen Choudhary'
tp60
a(S'100001171052874'
S'Vicky Sharma'
tp61
a(S'100000318445940'
S'Rahul Singh'
tp62
a(S'100002784265901'
S'Nishant Singh'
tp63
a(S'100002084362835'
S'Apurva Kumar'
tp64
a(S'100005704423317'
S'Ashu Verma'
tp65
a(S'100002313001327'
S'Sandeep Sahni'
tp66
a(S'100001852450860'
S'Amitesh Jha'
tp67
a(S'100002676620775'
S'Sanket Sinha'
tp68
a(S'100002575507977'
S'Rishi Raj'
tp69
a(S'100002379134503'
S'Vishal Ranjan Singh'
tp70
a(S'100002909262902'
S'Ashi SH'
tp71
a(S'100006646358010'
S'Rohit Raj'
tp72
a(S'100001700111962'
S'Siddharth Singh'
tp73
a(S'100001736862805'
S'Ashu'
tp74
a(S'100002982151018'
S'Prashant Kumar'
tp75
a(S'100001361327113'
S'Anshuman Kumar'
tp76
a(S'100006494374730'
S'Bappy Choudhary'
tp77
a(S'100002119891441'
S'Ashutosh Kumar'
tp78
a(S'100001332995748'
S'Ashu Prakash'
tp79
a(S'100002309129098'
S'Prince Kumar'
tp80
a(S'100001464866862'
S'Shivam Kumar Singh'
tp81
a(S'100002208974990'
S'Akash Anand'
tp82
a(S'100000508247141'
S'Sumit Sharma'
tp83
a(S'100004253952606'
S'Naman Raj Singh'
tp84
a(S'100000319499155'
S'Ankit D Hell Dragger'
tp85
a(S'100002103510070'
S'Uday Kashyap'
tp86
a(S'100000247030007'
S'Himanshu Suri'
tp87
a(S'100001329067091'
S'Vishal Singh'
tp88
a(S'100001640888826'
S'Ankit Kumar'
tp89
a(S'100002935281027'
S'Amarjeet Kumar'
tp90
a(S'100002222528478'
S'Tridivesh Kumar Singh'
tp91
a(S'100002676432963'
S'Manish Raj'
tp92
a(S'100002090630538'
S'Rajkishore Kumar'
tp93
a(S'100000829691821'
S'Ishu Prakash'
tp94
a(S'100001963293385'
S'Ashish Singh'
tp95
a(S'100001480362456'
S'Ravi Raj'
tp96
a(S'100003872193153'
S'Rohit Kumar Radhey'
tp97
a(S'100001237526402'
S'Yashh Prakash'
tp98
a(S'100003027875427'
S'Shubham Kumar'
tp99
a(S'100007880564334'
S'Shama Parween'
tp100
a(S'100002680984701'
S'Chandan Sharma'
tp101
a(S'100000442168620'
S'Tushar Ranjan'
tp102
a(S'100001958750110'
S'Sujeet Joy'
tp103
a(S'100000897439448'
S'Prashant Cristanio'
tp104
a(S'100003756915680'
S'Bittu Singh'
tp105
a(S'100001277629998'
S'Aman Raj'
tp106
a(S'100001246807445'
S'Anuj Kumar'
tp107
a(S'100001725444917'
S'Vikas Kumar'
tp108
a(S'100003088362166'
S'AnMol ARyan'
tp109
a(S'100000623611884'
S'Ravi Raj'
tp110
a(S'100002517675690'
S'Abhishek Kumar Kashyap'
tp111
a(S'100007097343807'
S'Pratishtha Luthra'
tp112
a(S'100004287307720'
S'Ashish Kumar'
tp113
a(S'100003189312194'
S'Guru Govind Hr'
tp114
a(S'100001492102420'
S'Nayan Sinha'
tp115
a(S'100004046569611'
S'Suraj Singh'
tp116
a(S'100002914224125'
S'Abhishek Arora'
tp117
a(S'100001880286468'
S'Manish Kumar'
tp118
a(S'100002798950227'
S'Archi Justin'
tp119
a(S'100002036158099'
S'Anteryaami Natraj'
tp120
a(S'100001489869904'
S'Rishabh Verma'
tp121
a(S'100002274441721'
S'King Aditya Singh'
tp122
a(S'100002611546922'
S'Kumar Abhi'
tp123
a(S'100003868800005'
S'Rudra Rudr'
tp124
a(S'100002295320891'
S'Aditya Sammy'
tp125
a(S'100005929539601'
S'Anushil Kumar'
tp126
a(S'100003288630587'
S'\\u015e\\u00e4\\u00fc\\u0159\\u00e5v \\u015ah\\u0101\\u0159m\\u00e3'
tp127
a(S'100003256517675'
S'Abhi Singh'
tp128
a(S'100003812766552'
S'Aayush Singh'
tp129
a(S'100001614896649'
S'Nitesh Kumar'
tp130
a(S'100002415546407'
S'Rachit Ranjan'
tp131
a(S'100000918278737'
S'Aarush Singh'
tp132
a(S'100003255330863'
S'Rohan Rai'
tp133
a(S'100001513593255'
S'Jayant Kumar'
tp134
a(S'100002172470990'
S'Shubham Patel'
tp135
a(S'100001362035458'
S'Vivek Kumar Bharti'
tp136
a(S'100002879334470'
S'Prashant Lurique'
tp137
a(S'100006841863372'
S'Saloni Yadav'
tp138
a(S'100002056497058'
S'Sumit Kashyap'
tp139
a(S'100001677128416'
S'Mrinal Kamesh'
tp140
a(S'100001629784358'
S'Akshendra Raj'
tp141
a(S'100004179250806'
S'Shailendra Kumar'
tp142
a(S'100002285938423'
S'Shashi Singh Rathor'
tp143
a(S'100001789798917'
S'Anirudh Kumar'
tp144
a(S'100002460824600'
S'Shubham D Toxicated Yadav'
tp145
a(S'1242994285'
S'Shubh Chakravarty'
tp146
a(S'1455730105'
S'Priyanshu Jaiswal'
tp147
a(S'100001803718041'
S'Samant Singh'
tp148
a(S'100002719622036'
S'Manish Kumar Singh'
tp149
a(S'100003779745315'
S'Neeraj Yadav'
tp150
a(S'100002509291612'
S'Piyush Manhar'
tp151
a(S'100001524949784'
S'Avanish Kundan'
tp152
a(S'100001416493402'
S'Arman Ibrahim Don'
tp153
a(S'100002079551884'
S'Yash S\\u00ed\\u00f1ha'
tp154
a(S'100007297021746'
S'Hritik Singh'
tp155
a(S'100004429537994'
S'Rahul Singh Rajput'
tp156
a(S'100003129217953'
S'Lekh Arya'
tp157
a(S'100003633774536'
S'Satyam Kumar'
tp158
a(S'100001481086408'
S'Rohit Mishra'
tp159
a(S'100001156783623'
S'Akki Sharma Casanova'
tp160
a(S'100001639552135'
S'Cul ViShal SiNgh'
tp161
a(S'1429528076'
S'Satyam Abhinav'
tp162
a(S'100006027243461'
S'\\u00d0\\u00e0shi\\u00d1\\u0123 V\\u00ee\\u00e7k\\u00fd'
tp163
a(S'100000990080767'
S'Dannis Joseph'
tp164
a(S'100002440839567'
S'Amit Keshri'
tp165
a(S'100006482815464'
S'Tohid Alam'
tp166
a(S'100002033016650'
S'Purushottam Narayan'
tp167
a(S'100001452793017'
S'Aayush Kashyap'
tp168
a(S'100003140512909'
S'Ritesh Pandey'
tp169
a(S'100001118435701'
S'Bal Krishna'
tp170
a(S'100002648570292'
S'Keshav Kashyap'
tp171
a(S'100006062264387'
S'Piyush Kumar'
tp172
a(S'100004876032984'
S'CVani Malhotra'
tp173
a(S'100002550580264'
S'Ankit Raj Akj'
tp174
a(S'100002923317559'
S'Abhigyan Rishav'
tp175
a(S'100002443729701'
S'Dheeraj Sharma'
tp176
a(S'100003215970242'
S'Sid Chauhan'
tp177
a(S'100003614076295'
S'Atif Khan'
tp178
a(S'100001650757301'
S'Harshit Baboo'
tp179
a(S'100002702215854'
S'Rishabh Kumar'
tp180
a(S'100002282132771'
S'Sidhant Ranjan Shrivastava'
tp181
a(S'100002972330795'
S'Mohit Anand'
tp182
a(S'100002527045683'
S'Pallavi Singh'
tp183
a(S'100002653576414'
S'Varun Mishra'
tp184
a(S'100002725001529'
S'Ranjan Kumar'
tp185
a(S'100003227938083'
S'Himanshu Ranjan'
tp186
a(S'100000614100583'
S'Ankit Singh'
tp187
a(S'100001771797872'
S'Mayank Vats'
tp188
a(S'100003111952415'
S'Manish Singh'
tp189
a(S'100001741046022'
S'Manjeet Kumar'
tp190
a(S'100001125255208'
S'Shashank Singh'
tp191
a(S'100002294628229'
S'Mayank Singh Rajpoot'
tp192
a(S'100001633110476'
S'RaJa D \\u00cemp\\u00e9r\\u00ee\\u00e1l K\\u00ee\\u00f1g'
tp193
a(S'100001527670349'
S'Annie Raj'
tp194
a(S'100002632309314'
S'Shobhit Kumar'
tp195
a(S'100003337858074'
S'Vinita Sharma'
tp196
a(S'100003286388350'
S'Innocent Gaurav Kalyug'
tp197
a(S'100001731286336'
S'RaHul KuMar'
tp198
a(S'100002363913824'
S'Chiranjiv Singh'
tp199
a(S'100001855896762'
S'Sharique Khan'
tp200
a(S'100001097276160'
S'Rishabh Raj'
tp201
a(S'100000662734198'
S'Rishi Singh'
tp202
a(S'100005212953010'
S'Rajat Rajput Singh Chauhan'
tp203
asS'id'
p204
S'100002377276012'
p205
sS'name'
p206
S'Gaurav Kumar Kalyug'
p207
s.