(dp1
S'friends'
p2
(lp3
(S'100003538277675'
S'Hameed Maiwand'
tp4
a(S'100003308058681'
S'Khalidsamimi Afghan'
tp5
a(S'100003523547462'
S'Faheem Mehrjoo'
tp6
a(S'100005569080381'
S'Monika Nazari'
tp7
a(S'100007824482641'
S'Muhsen Samsor'
tp8
a(S'100000595647897'
S'Shams Afghan'
tp9
a(S'100001289424953'
S'Idrees Kayhan'
tp10
a(S'100006808510920'
S'Shams Rahman Sahel'
tp11
a(S'100007938550471'
S'Khadija Sadat'
tp12
a(S'100007809252922'
S'Zain Niazai'
tp13
a(S'100003714388357'
S'Abdullatif Zarify'
tp14
a(S'100002915096463'
S'Abdullah Rahman'
tp15
a(S'100004449943864'
S'Saboor Ahmadi'
tp16
a(S'100002091639935'
S'Mojeeb Azizi'
tp17
a(S'100002409582234'
S'Zakair Afghani'
tp18
a(S'100004832138212'
S'Khalid Maroof'
tp19
a(S'100001004156666'
S'Ghulam Mujtaba Popal'
tp20
a(S'100007565590450'
S'Alyes Sohail'
tp21
a(S'100004902001714'
S'Naser M Momand'
tp22
a(S'100008034759570'
S'Atiq Maroof'
tp23
a(S'100007275703164'
S'\\u062e\\u0627\\u0637\\u0631\\u0647 \\u062a\\u0646\\u0647\\u0627'
tp24
a(S'100002653087948'
S'Ahmad Javidhotaki'
tp25
a(S'100007558299019'
S'Mohammad Zubair Zadran'
tp26
a(S'100007877282667'
S'Tamem Rahmani'
tp27
a(S'100004038941511'
S'Ah Siyar Safi'
tp28
a(S'100001591598415'
S'Abdullah Hamim'
tp29
a(S'100008277753284'
S'Qumandan Saleem Foqara'
tp30
a(S'100004305302561'
S'Sameer Khan'
tp31
a(S'100002969836856'
S'Aryan Ramin'
tp32
a(S'100007728217688'
S'Donya Sahar'
tp33
a(S'100002254136308'
S'Yaqoob Nassari'
tp34
a(S'100004783058108'
S'Mojeb Totakhil'
tp35
a(S'100001879777354'
S'Abdullah Benawa'
tp36
a(S'100007843175835'
S'\\u0633\\u0644\\u0637\\u0627\\u0646 \\u062f\\u0631\\u062f'
tp37
a(S'100001277371262'
S'Aziz Attal'
tp38
a(S'100006785792830'
S'Emal Mohmand'
tp39
a(S'100003321160885'
S'Mohammad Omar Ahmadzai'
tp40
a(S'100001669115527'
S'Abdul Saboor Fanaa'
tp41
a(S'100005797267947'
S'Hasib Stanikzai'
tp42
a(S'100004013539021'
S'Toofan Kakar'
tp43
a(S'100004285595757'
S'Ezatullah Aryubwal'
tp44
a(S'100001595798380'
S'Ahmad Bahir Tahiri'
tp45
a(S'100002837530160'
S'\\u062d\\u0627\\u062c\\u06cc \\u0634\\u0631\\u06cc\\u0641'
tp46
a(S'100004511557462'
S'\\u041c\\u043e\\u0445\\u0430\\u043c\\u043c\\u0430\\u0434 \\u041c\\u0443\\u0441\\u0442\\u0430\\u0444\\u0430'
tp47
a(S'100005262367868'
S'Fayaz Faysal'
tp48
a(S'100000082204914'
S'Sara Conte'
tp49
a(S'100000421665527'
S'Tamim Sahel'
tp50
a(S'100006816075576'
S'Abdullah Ahadi'
tp51
a(S'100004016931520'
S'Farzana Naz'
tp52
a(S'100001657242755'
S'Hedayat Mahmood'
tp53
a(S'1472558326'
S'\\u067e\\u0631\\u062f\\u06cc\\u0633 \\u062a\\u06a9\\u0644'
tp54
a(S'100008338713366'
S'Marmar Jubaal'
tp55
a(S'100007687354759'
S'Breshna Paktiawala'
tp56
a(S'100005734624541'
S'Mujtaba Mujadidi'
tp57
a(S'100005979121042'
S'Abdul Hafiz Fakhri'
tp58
a(S'100002085311776'
S'Mena Mangal'
tp59
a(S'100000724217361'
S'Nabi Ahady'
tp60
a(S'100004569427545'
S'Faridoon Sherzad Loqmani'
tp61
a(S'100004836160963'
S'Fahim Hamdard Shenwari'
tp62
a(S'100006151573982'
S'Hekmatullah Khalily'
tp63
a(S'100003948396994'
S'Marshal Ibrahimi'
tp64
a(S'100003314216958'
S'Almas Mohmand'
tp65
a(S'100001279134045'
S'Abdul Ahad Maruf'
tp66
a(S'100006878772203'
S'Rahim Safi'
tp67
a(S'100007543863848'
S'Khled Rahmany'
tp68
a(S'100007652311246'
S'Kihan Majbor'
tp69
a(S'100002992438897'
S'Abdullah Wahab'
tp70
a(S'100000934389948'
S'Fionna Bacacao Gabutin'
tp71
a(S'100003748771826'
S'Sharif Ahmad'
tp72
a(S'100003470242168'
S'Said Shakib Qadri'
tp73
a(S'100007709558551'
S'Muskan Memon'
tp74
a(S'100004019251319'
S'Yasamin Yarmal'
tp75
a(S'1155078536'
S'Naseer Sapay'
tp76
a(S'1243812940'
S'Engr-Hadeesullah Sahak'
tp77
a(S'100008102552168'
S'Habibullah Rahmani'
tp78
a(S'100003154061786'
S'Aymal Stanikzay'
tp79
a(S'100007968331125'
S'Sadiq Laghmani'
tp80
a(S'100002514528249'
S'Tamim Sadat'
tp81
a(S'100001522765523'
S'Wali Musleh'
tp82
a(S'100003376773324'
S'\\u0160her\\u017eai Sharafat'
tp83
asS'id'
p84
S'100002355878130'
p85
sS'name'
p86
S'Fahim Stanikzai'
p87
s.