(dp1
S'friends'
p2
(lp3
(S'100002179530360'
S'Kanika Rawat'
tp4
a(S'100003848827083'
S'Suhail Ahmad'
tp5
a(S'100006038473928'
S'Subham Kumar'
tp6
a(S'100002251603651'
S'Sakshi Chauhan'
tp7
a(S'100002538224553'
S'Shobhit Yadav'
tp8
a(S'100003162380437'
p9
S'Amit Singh'
tp10
a(S'100005914389380'
S'Rahul Singh'
tp11
a(S'100002249626108'
S'Paramvir Shekhawat'
tp12
a(S'100002493070352'
S'Vishwa Kirti'
tp13
a(S'100000854720232'
S'Gaurav Dipte'
tp14
a(S'100001730793124'
p15
S'Garima Mishra'
tp16
a(S'1486122980'
S'Noyonika Binda'
tp17
a(S'100002556033542'
S'Abhilekh Pilkhwal'
tp18
a(S'100003532326093'
S'Apurva Sharma'
tp19
a(S'100004266007464'
S'Sukhanjali Yadav'
tp20
a(S'100002179831739'
S'Mannu Dhapola'
tp21
a(S'100001688485166'
S'Sushil Chand'
tp22
a(S'100001041106391'
p23
S'Puja Yadav'
tp24
a(S'100001061242515'
S'Vikas Rathor'
tp25
a(S'100000578755334'
S'Navjeet Sunil Mishra'
tp26
a(S'100000949268980'
S'Rahul Bharti Goswami'
tp27
a(S'100001414845874'
p28
S'Pankaj Kumar'
tp29
a(S'100001629721611'
S'Shubham Singh'
tp30
a(S'100001171345203'
S'Isha Thakur'
tp31
a(S'100000768024301'
S'Twinkle Dhapola'
tp32
a(S'100001940048264'
p33
S'Abhijeet Pattnaik'
tp34
a(S'100001619741003'
S'Parveen Mor'
tp35
a(S'100004708424176'
S'Siddhant Singh'
tp36
a(S'100005348767140'
p37
S'Ankit Yadav'
tp38
a(S'100002631541579'
p39
S'Cadet Gayatri Sharma'
tp40
a(S'100002275817943'
p41
S'Harsh Singh'
tp42
a(S'100002388154566'
p43
S'Aditya Singh'
tp44
a(S'100002017290175'
S'Kanhaiya Sharma'
tp45
a(S'100001547632960'
S'Yuvraj Ajit Singh'
tp46
a(S'100006526502639'
S'Jyoti Singh'
tp47
a(S'716796080'
p48
S'Himmat Bindra'
tp49
a(S'100001206401929'
S'Puneet Singh'
tp50
a(S'100001054874528'
S'Mritunjya Kaushal'
tp51
a(S'100000332792524'
S'Shivin Pant'
tp52
a(S'100000961642550'
S'Prince Sam'
tp53
a(S'100002328391984'
p54
S'Prawan Pandey'
tp55
a(S'1648910665'
S'Tanishq Sethi'
tp56
a(S'100000348579139'
S'Pranav Ballewar'
tp57
a(S'1582714291'
p58
S'Anirudh Rao'
tp59
a(S'100003914908119'
S'Ramsingh Sihag'
tp60
a(S'100006754330549'
S'Amit Singh Ojha'
tp61
a(S'100007166678286'
S'Manish Singh Yadav'
tp62
a(S'100007968785012'
S'Priyanka Yadav'
tp63
a(S'100006480636876'
S'Naveen Sharma'
tp64
a(S'100001466478825'
p65
S'Mohit Gahlan'
tp66
a(S'100001620111811'
p67
S'Nitin Mishra'
tp68
a(S'100002046226540'
S'Karanbir Gill'
tp69
a(S'1409974081'
S'Ayushman Anand'
tp70
a(S'100001766869734'
S'Ravi Kumar Singh'
tp71
a(S'100000908990567'
S'Avnish Singh'
tp72
a(S'100001471170477'
S'Rishabh Sharma'
tp73
a(S'100001650117837'
S'Kiran Chinu'
tp74
a(S'100000258117871'
S'Sheetal Tyagi'
tp75
a(S'100001628250451'
S'Prakhar Godbole'
tp76
a(S'100002122581479'
p77
S'Pratik Chaubey'
tp78
a(S'100001993890504'
p79
S'Mohit Yadav'
tp80
a(S'100006990164575'
S'Syed Shabeena Khan'
tp81
a(S'100006511508935'
S'Ankur Yadav'
tp82
a(S'1001303112'
S'Vijay Dhama'
tp83
a(S'100001262323767'
S'Amit Kumar'
tp84
a(S'100002031652672'
S'Stuti Pradhan'
tp85
a(S'100003026703955'
S'Hanish Patiyal'
tp86
a(S'100002833852095'
p87
S'Praveen Kashyap'
tp88
a(S'100002085844758'
S'Nitin Yadav'
tp89
a(S'100001932663797'
p90
S'Ankit Deshwal'
tp91
a(S'100001968243010'
S'Archana Yadav'
tp92
a(S'100000832255684'
S'Yogesh Singh Malik'
tp93
a(S'100001367238782'
S'Krishna Chaitanya'
tp94
a(S'100002023388724'
S'Akash Mishra'
tp95
a(S'100000925730255'
S'Milan Lee'
tp96
a(S'100003192491303'
S'Beniwal Monu'
tp97
a(S'100004969056963'
S'J\\u00e1\\u00ff\\u00e5\\u00f1t J\\u00e1\\u00f1ew\\u0101'
tp98
a(S'100005977830515'
S'Varsha Giri'
tp99
a(S'1228396899'
S'Shireen Pasricha'
tp100
a(S'100002284034734'
p101
S'Sifan Mahapatra'
tp102
a(S'100001582837997'
S'Manik Saharan'
tp103
a(S'100002008334020'
S'Ankita Rai'
tp104
a(S'100004279896116'
S'Subhash Chand Bishnoi'
tp105
a(S'100002009271874'
p106
S'Shivani Pandey'
tp107
a(S'100004841736350'
S'Nishi Chaudhary'
tp108
a(S'100002204111207'
p109
S'Sitesh Chauhan'
tp110
a(S'100002733313945'
S'Ankit Singh'
tp111
a(S'100002554653213'
S'Nithin Raj'
tp112
a(S'100000186873636'
S'Payal Singh'
tp113
a(S'100006428336032'
S'Yogender Kumar'
tp114
a(S'100003571270022'
S'Rashmi Singh'
tp115
a(S'100006535264614'
S'Mayank Sharma'
tp116
a(S'100005751757786'
S'Anjali Chauhan'
tp117
a(S'100002583077530'
S'Sanisha Yadav'
tp118
a(S'100000345048160'
S'Sharang Varma'
tp119
a(S'100001104502274'
S'Shashank Upadhyay'
tp120
a(S'100001881190577'
S'Akash Bisht'
tp121
a(S'100001960955507'
S'Payal Chamoli'
tp122
asS'id'
p123
S'100000769532352'
p124
sS'name'
p125
S'Naveen Beniwal'
p126
s.