(dp1
S'name'
p2
S'Umar Alvi'
p3
sS'current_class'
p4
S'pakistan'
p5
sS'current_link'
p6
Vhttps://www.facebook.com/l.php?u=https%3A%2F%2Fwww.bing.com%2Fmaps%2Fdefault.aspx%3Fv%3D2%26pc%3DFACEBK%26mid%3D8100%26where1%3D31.549700669186%252C%2B74.343109130859%26name%3DLahore%252C%2BPakistan%26mkt%3Den-IN&h=gAQETCLIc&s=1
p7
sS'current_text'
p8
VLahore, Pakistan\u000aCurrent City
p9
sS'friends'
p10
(lp11
(S'100001110221121'
p12
S'Umar Alvi'
tp13
asS'id'
p14
g12
s.