(dp1
S'friends'
p2
(lp3
(S'100004049625860'
S'Tingre Sarkar'
tp4
a(S'100004037948232'
S'Tingre Sarkar'
tp5
a(S'100008103904708'
S'Shubham Tapkir'
tp6
a(S'100006528340522'
S'Vaishali Kadam'
tp7
a(S'100001483306296'
S'Prajesh Late'
tp8
a(S'100006984510568'
S'Krishna Kotwal'
tp9
a(S'100002027119262'
S'Pravin Kale'
tp10
a(S'100001407537949'
S'Muhammad Agung'
tp11
a(S'100006079024166'
S'Viky Waghmare'
tp12
a(S'100003586650264'
S'SumanTai Pathare'
tp13
a(S'100008212654408'
S'Neel Modi'
tp14
a(S'100003192835479'
S'Pratik Jeve'
tp15
a(S'100001909828351'
S'Sonali Shah'
tp16
a(S'100000629059283'
S'Pratik Pawade'
tp17
a(S'100002187861338'
S'Vishal Tingre'
tp18
a(S'100002893888516'
S'Peer Shaikh'
tp19
a(S'100008127512436'
S'Deepali Adangale'
tp20
a(S'100005620181411'
S'Ganesh Tarde'
tp21
a(S'100001955402963'
S'Rohan Nikam'
tp22
a(S'100002605878239'
S'Amit Jadhav'
tp23
a(S'100003979383906'
S"Shubh's Shinde Patil"
tp24
a(S'100002390328996'
S'Bunty Khese'
tp25
a(S'100003157938604'
S'Zeenia Ghazali'
tp26
a(S'100004663748244'
S'Shravan Nikam'
tp27
a(S'100002971833905'
S'Umesh Kadam'
tp28
a(S'100005107713834'
S'Prashant Shinde'
tp29
a(S'100006380382559'
S'Tejas Dada Chavan'
tp30
a(S'100001793526580'
S'Anjali Meher'
tp31
a(S'100001967035270'
S'Santosh Rokade'
tp32
a(S'100003893932361'
S'Meet Modi'
tp33
a(S'100002225475130'
S'Ajinkya Mokashi'
tp34
a(S'100005637482541'
S'Vikas Thakare'
tp35
a(S'100002844327863'
S'A-nil Chandane'
tp36
a(S'100001226441827'
S'Abhay Tawade'
tp37
a(S'1736379227'
S'Anup Nair'
tp38
a(S'100003506668055'
S'Harnesh Bharat Devkar'
tp39
a(S'100004066486614'
S'Anil Mane'
tp40
a(S'100002926018665'
S'Shubham Mane'
tp41
a(S'100007853405426'
S'Somanath Giram'
tp42
a(S'100001293054161'
S'Prashant Ambre'
tp43
a(S'100002296871074'
S'Sunny Tingre'
tp44
a(S'100002347656166'
S'Avinash Giri'
tp45
a(S'100002335891209'
S'Nikhil Rathod'
tp46
a(S'100000109942801'
S'Chinmay Rokade Mns'
tp47
a(S'100005307960021'
S'Pravin Kamble Kamble'
tp48
a(S'100001338225323'
S'Sonu Tingare'
tp49
a(S'100002487050642'
S'Bapusaheb Pathare'
tp50
a(S'100004425696187'
S'M\\u00f6\\u00f1ik\\u00e5 W\\u00e0vr\\u00ea'
tp51
a(S'100003133392136'
S'Taslim Shaikh'
tp52
a(S'100000759499525'
S'Sushant Shinde'
tp53
a(S'100003179712663'
S'Suraj Parande'
tp54
a(S'100001200532311'
S'Ajit Thorat'
tp55
a(S'100002600843844'
S'Umesh Tingre'
tp56
a(S'100003899805519'
S'Suraj Tingre'
tp57
a(S'100005287270827'
S'\\u0930\\u093e\\u0937\\u094d\\u091f\\u094d\\u0930\\u0935\\u093e\\u0926\\u0940 \\u0915\\u093e\\u0901\\u0917\\u094d\\u0930\\u0947\\u0938 \\u0905\\u0923\\u0941\\u0936\\u0915\\u094d\\u0924\\u0940\\u0928\\u0917\\u0930-\\u0917\\u094b\\u0935\\u0902\\u0921\\u0940'
tp58
a(S'100004576484359'
S'Abhishek Warghade'
tp59
a(S'100000674049940'
S'Manthana Tanpure'
tp60
a(S'100004039422970'
S'Suraj Tingre Patil'
tp61
a(S'100007240116612'
S'Kushal Trivedi'
tp62
a(S'100001437626367'
S'Ganesh Gholap'
tp63
a(S'100004998692278'
S'Tejas Jadhav'
tp64
a(S'100007540662926'
S'Rushikesh Palande'
tp65
a(S'100005608539095'
S'Prashant Kadam'
tp66
a(S'100000503537608'
S'Sanjay Mishra'
tp67
a(S'100007414121263'
S'Shreya Gite'
tp68
a(S'100003684829203'
S'Rakesh Tingre Patil'
tp69
a(S'100004632305824'
S'Vishal Bhalerao'
tp70
a(S'100006666662820'
S'Anil Mane'
tp71
a(S'100001053295995'
S'Devika Khara'
tp72
a(S'100002618418595'
S'Shivraj Murkute'
tp73
a(S'100006743346134'
S'Yogesh Shinde'
tp74
a(S'100005605303273'
S'Rakesh Tingre'
tp75
a(S'100008087854136'
S'Kiran Chavan'
tp76
a(S'100001450905960'
S'Sanket Aspat'
tp77
a(S'1811327467'
S'Regeena Mathew'
tp78
a(S'100008170297708'
S'Arpita Patil'
tp79
a(S'100001510407323'
S'Neha Tingre'
tp80
a(S'100002475009512'
S'Sneha Kulkarni'
tp81
a(S'100002679331034'
S'Chetan Temgire'
tp82
a(S'1686708428'
S'Akshay Pinjani'
tp83
a(S'100003301387720'
S'Aditya Patil'
tp84
a(S'100002857007286'
S'Shekhar Sagar'
tp85
a(S'100003239993031'
S'Atul Tingre'
tp86
a(S'100003132543335'
S'Mahesh Sagare'
tp87
a(S'100002317093628'
S'Pravin Shinde'
tp88
a(S'100003128888136'
S'Shreya Thakur'
tp89
a(S'100004006311583'
S'Saumya Gaikwad'
tp90
a(S'100001777167552'
S'Vishal Satav Patil'
tp91
a(S'100002370246832'
S'Sofiya Khan'
tp92
a(S'100005263440258'
S'Arjun Sukale'
tp93
a(S'100000649231915'
S'Prasad Kamthe'
tp94
a(S'100002173191361'
S'Aniket Kadam'
tp95
a(S'100002764086710'
S'Pravin Medar'
tp96
a(S'100007500732400'
S'Abhishek Jadhav'
tp97
a(S'100002491410336'
S'Ashish Awati'
tp98
a(S'100003212146572'
S'Pranita Tingre Bahirat'
tp99
a(S'100002289140394'
S'Ankita Majumder'
tp100
a(S'1343974134'
p101
S'Shailesh Uchale'
tp102
a(S'100007592103971'
S'Rohit Jadhav'
tp103
a(S'100008183282651'
S'Dada King'
tp104
a(S'100002849067671'
S'Zainab Hearts You'
tp105
a(S'1335965982'
S'Ankit Bhoola'
tp106
a(S'100007337016474'
S'Aaruneeta Jadhav'
tp107
a(S'100000869772130'
S'Diksha Singh'
tp108
a(S'100001195325734'
S'Ketan Tingre Patil'
tp109
a(S'100001768816956'
S'Nimish Abnave'
tp110
a(S'100006231515377'
S'Angel Sana'
tp111
a(S'100006686767734'
S'Vishal Teltumbde'
tp112
a(S'100001513466987'
S'Abhijit Tingre'
tp113
a(S'100002462453811'
S'Nishikant Dalvi'
tp114
a(S'100002173332101'
S'Umesh Shirole'
tp115
a(S'100003675050357'
S'Kushal Walhekar'
tp116
a(S'100005965475322'
S'Babu Naidu'
tp117
a(S'100007129034364'
S'Omkar Sable'
tp118
a(S'1439517544'
S'Ishaan Bhataiya'
tp119
a(S'100003322587101'
S'Promod Tingre'
tp120
a(S'100007049976181'
S'Djsourabh Shirke'
tp121
a(S'100006548923052'
S'Rutuja Bawane'
tp122
a(S'100002907430960'
S'Zainab Hearts You'
tp123
a(S'100000415291836'
p124
S'Yash Gupta'
tp125
a(S'100001540177960'
p126
S'Sayam Kathuria'
tp127
a(S'100001388848237'
S'Aryaan Sharma'
tp128
a(S'100004456621643'
S'Rohan Parab'
tp129
a(S'100001210810988'
S'\\u0906\\u0926\\u093f\\u0924\\u094d\\u092f\\u093e\\u092d\\u093e\\u090a \\u0927\\u0947\\u0902\\u0921\\u0947'
tp130
a(S'100001757666002'
S'Prem Bhagat'
tp131
a(S'100002340928666'
S'Mayur G Tingre'
tp132
a(S'100002482868068'
S'Kiran Salunkhe'
tp133
a(S'100006043085230'
S'Nunty Kanaskar'
tp134
a(S'100006504287113'
S'Akash Asawale'
tp135
a(S'100004094917692'
S'Suraj Mhaske'
tp136
a(S'100003956776615'
S'Tejas Ghode'
tp137
a(S'100006216272492'
S'Rushikesh Muppid'
tp138
a(S'100001689551524'
S'Harjeet Badan'
tp139
a(S'100002929980837'
S'Ravi Patwa'
tp140
a(S'100004022188371'
S'\\u0936\\u0941\\u092d\\u092e \\u0926\\u0947\\u0935\\u0915\\u0930 \\u092a\\u093e\\u091f\\u0940\\u0932'
tp141
a(S'100003174290312'
S'Rohit Nana Awhale'
tp142
a(S'100007608246882'
S'Niall Barne'
tp143
a(S'100002431732458'
p144
S'Karishma Mishra'
tp145
a(S'100003352482033'
S'Dhiraj Ukirde'
tp146
a(S'100002472221020'
S'Shambho Shinde'
tp147
a(S'100003593740508'
S'Zaheen Sayyed'
tp148
a(S'100004251630912'
S'Abhinay Bandal'
tp149
a(S'100001313464206'
S'Nikhil Ambre'
tp150
a(S'100005756411738'
S'Ashish Gurav'
tp151
a(S'100003221829236'
S'Sanket Jawale'
tp152
a(S'100003795243639'
S'Nikita Salunke'
tp153
a(S'100007119370121'
S'Sumit Adhari'
tp154
a(S'1441541313'
S'Nehal Kadaganchi'
tp155
a(S'100002656735673'
S'Kalpesh Yerunkar'
tp156
a(S'100002478879995'
S'Yogesh Tapkir'
tp157
a(S'100003910176718'
S'Omkar Tingre'
tp158
a(S'100008100911696'
S'Omkar Tingre'
tp159
a(S'100003301236596'
S'\\u0905\\u0915\\u094d\\u0937\\u092f \\u0916\\u093e\\u0902\\u0926\\u0935\\u0947'
tp160
a(S'100001863275551'
S'Nitish Shashikant Tingre'
tp161
a(S'100000769194494'
S'Swapnil Gavande'
tp162
a(S'100000786062628'
S'Siddharth Bapodra'
tp163
a(S'100003360108112'
S'Kavitatai Nitinseth Tingre'
tp164
a(S'100003560075757'
S'Sushil Kengale'
tp165
a(S'100003163731722'
S'Akshay Gore Patil'
tp166
a(S'1803259481'
S'Marilia Magalhaes'
tp167
a(S'100001965772035'
S'Suraj Rukme'
tp168
a(S'100002493817884'
S'Lalit Hemgude'
tp169
a(S'100001549377458'
S'Swapnil Tingre Patil'
tp170
a(S'100001457242517'
S'Nitin Tingre'
tp171
a(S'100002983781844'
S'Shubham Dattabhau Phuge'
tp172
a(S'1217832068'
S'Harshal Gulabrao Tingre'
tp173
a(S'100002636788573'
S'Navnath Tingre'
tp174
a(S'100002550009727'
S'Piyu Kulkarni'
tp175
a(S'100007675295858'
S'Ketan Nikam'
tp176
a(S'100001159041128'
S'Rohit Parte'
tp177
a(S'100002527408652'
S'Sohan Chaudhary'
tp178
a(S'100001493307865'
S'Harish Dawkhare'
tp179
a(S'100001263123732'
S'Ulhas Dete'
tp180
a(S'100002777954749'
S"Aahana D'Souza"
tp181
a(S'100004743965251'
S'Yuvraj Choudhary'
tp182
a(S'100008005080074'
S'Arvind Kumar'
tp183
a(S'100004260395660'
S'Sanjay More'
tp184
a(S'100000987348751'
S'Renu Kale'
tp185
a(S'100007709443911'
S'Swati Datar'
tp186
a(S'100003125199261'
S'Pranit Beldare'
tp187
a(S'100005709517729'
S'Omkar Punekar'
tp188
a(S'689208033'
p189
S'Himanshu Sharma'
tp190
a(S'100002829140887'
S'Shubham Thakur'
tp191
a(S'100007293874571'
S'Shubham Dada Murkute'
tp192
a(S'100002946118767'
S'Abhishek Tingre'
tp193
a(S'100002167708499'
S'Monster Shubizz'
tp194
a(S'100002185046783'
S'Viraj Borge Patil'
tp195
a(S'100006567485625'
S'Sagar Bhoyar'
tp196
a(S'100002452890875'
S'Mandar Joshi'
tp197
a(S'100002524552882'
S'Muzamil Shaikh'
tp198
a(S'100005304660212'
S'Tanvi Gupta'
tp199
a(S'100003740527415'
S'Dhruv Patel'
tp200
a(S'100001928894706'
S'Sushil Dete'
tp201
a(S'100005914351849'
S'Shabnaz Parveen'
tp202
a(S'100002880748303'
S'Rohit Kadam Savkar'
tp203
a(S'100004898411370'
S'Sonali Athare'
tp204
a(S'100005987265381'
S'Shubham Patil'
tp205
a(S'100002097174758'
S'Farheen Ali'
tp206
a(S'100000986720389'
S'Danish Shaikh'
tp207
a(S'100003118822292'
S'Raj Patil'
tp208
a(S'100002326191949'
S'Vaibhav Palshikar'
tp209
a(S'100002222513248'
S'Sandipbhau Tingre'
tp210
a(S'100006274117838'
S'Deepti Dayanad Powale'
tp211
a(S'100007087414731'
S'Shesh Kulkarni'
tp212
a(S'100002912625675'
S'Vrushali Gosavi'
tp213
a(S'1005740590'
S'Onkar Patil'
tp214
a(S'100001456555327'
S'Shailesh Chalke'
tp215
a(S'100007045770406'
S'Mrityunjay Gupta'
tp216
a(S'100002786241375'
S'Mayur Naik'
tp217
a(S'100003074148056'
S'Pravin Durekar'
tp218
a(S'1058794540'
S'Ajinkya Pawade'
tp219
a(S'100002225923453'
S'Tanishka Shetty'
tp220
a(S'100002492701564'
S'Pranav Chandere'
tp221
a(S'100002692346242'
S'Niks Aade'
tp222
a(S'100003188465499'
S'Ashraf Miya'
tp223
a(S'100006738570144'
S'Sayli Jadhav'
tp224
a(S'100001704818238'
S'Prince Adi'
tp225
a(S'100003081727247'
S'Rohit Mundada'
tp226
a(S'100005198534305'
S'Arvind Kanaskar'
tp227
a(S'100003678120117'
S'Anushka Wanjale'
tp228
a(S'1506771111'
S'Nishith Hegde'
tp229
a(S'100003299690527'
S'Justin Johnson'
tp230
a(S'100002219331247'
S'Tejas Rajwade'
tp231
a(S'100001561552820'
S'Ravindra Pathare'
tp232
a(S'100000520730248'
S'Wasiq Shaikh'
tp233
a(S'100003212316347'
S'Sachin Tingre'
tp234
a(S'100000110565637'
S'Mohsin Tamboli'
tp235
a(S'100001325968653'
S'\\u0928\\u093f\\u0932\\u0947\\u0936 \\u092d\\u093e\\u090a \\u0924\\u093e\\u092a\\u0915\\u0940\\u0930'
tp236
a(S'100005165045638'
S'Akshay Parge'
tp237
a(S'100002586320377'
S'Swapnil Kalbhor'
tp238
a(S'100001053407470'
S'Akash Mithrani'
tp239
a(S'100006152914495'
S'Anil Mane'
tp240
a(S'100005008772066'
S'Rishikesh Sharma'
tp241
a(S'100003548000585'
S'Umesh Chavan'
tp242
a(S'100002229657483'
S'Manish Pachpute'
tp243
a(S'100004580041762'
S'Deep Arya III'
tp244
a(S'100002871793425'
S'Pradeep Rawate'
tp245
a(S'100000173962764'
S'Kamlesh Galande'
tp246
a(S'100000952969877'
S'Rohit Chondhe'
tp247
a(S'100004316503993'
S'Prasad Rajput'
tp248
a(S'100005799636478'
S'Amit Chauhan'
tp249
a(S'100000734171332'
S'Ashwin Kardekar'
tp250
a(S'100005349210024'
S'\\u091c\\u092f \\u0936\\u093f\\u0935\\u0930\\u093e\\u092f \\u0938\\u0902\\u0918'
tp251
a(S'100004897473517'
S'Uday Choudhary'
tp252
a(S'100002963314341'
S'Nilesh Zanjurne'
tp253
a(S'100003764408601'
S'Rajesh Jadhav'
tp254
a(S'100002581544420'
S'Kaushal Tingre'
tp255
a(S'100007582294417'
S'Vicky Salve'
tp256
a(S'100002104482092'
S'Nehal Chaliawala'
tp257
a(S'100001379552656'
S'Amit Mhaske'
tp258
a(S'100002368523132'
S'Ayushi Patel'
tp259
a(S'100007630543225'
S'Amol Tingre'
tp260
a(S'100001237327543'
S'Sushant Sanas'
tp261
a(S'100000339029179'
S'Akshay Chavan'
tp262
a(S'100001372617334'
S'Angeel Helltrom'
tp263
a(S'100000922125956'
S'Komal Bhanwadia'
tp264
a(S'100001861560821'
S'Varsha Mulik'
tp265
a(S'100003183513216'
S'Lokesh Reddy'
tp266
a(S'100001630374544'
S'Jayesh Gehlot'
tp267
a(S'100004455460387'
S'Pratibha Chavan'
tp268
a(S'100006076955515'
S'Akshay Markad'
tp269
a(S'100004106081322'
S'Nishikant Zarekar'
tp270
a(S'100006303124868'
S'Arohi Shirke'
tp271
a(S'100003226522151'
S'Nitin Tingre'
tp272
a(S'100001886306669'
S'Akshay Rajguru'
tp273
a(S'100000901707123'
S'Mahesh Atole'
tp274
a(S'100006491148081'
S'Kalidas Tingre'
tp275
a(S'100002599418957'
S'Mishra Ankita'
tp276
a(S'100002237876357'
S'Harshavardhan Mokashi'
tp277
a(S'100003654375070'
S'Apurvaa More'
tp278
a(S'100004162148660'
S'Pradeep Tingre'
tp279
a(S'100002929555867'
S'Sanket Chandane'
tp280
a(S'100007312142134'
S'Yash Madikunt'
tp281
a(S'100001126725565'
S'Chandani Patel'
tp282
a(S'100003163167822'
S'Swapnil Jadhav'
tp283
a(S'100000830911221'
S'Ganesh Kand'
tp284
a(S'100000598901472'
S'Rahul Gaikwad'
tp285
a(S'100001871783476'
S'Kunal Lunkad'
tp286
a(S'100007044421126'
S'Shankar Karad'
tp287
a(S'100000127535877'
S'Jay Bodiwala'
tp288
a(S'100004498772785'
S'Menaj Tamboli'
tp289
a(S'100005034572324'
S'Zoya Bagwan'
tp290
a(S'100002422706008'
S'Nikhil Bhosale'
tp291
a(S'100005295189331'
S'Sachin Rajak'
tp292
a(S'100002150964183'
S'Nachiket Landge'
tp293
a(S'100000798196023'
S'Bhim Jadhav'
tp294
a(S'100001067668959'
S'Alok Dhotre'
tp295
a(S'1669937926'
S'Abdul Salim Ansari'
tp296
a(S'100000984883516'
S'Tejas Markande'
tp297
a(S'100005860475823'
S'Meet Patel'
tp298
a(S'100008112578160'
S'Akash Kokane'
tp299
a(S'100003724727223'
S'Mahendra B Junawane'
tp300
a(S'100007948152667'
S'Harun Patel'
tp301
a(S'100006440525415'
S'Shital Pawar'
tp302
a(S'100003022072417'
S'Rishab Oswal'
tp303
a(S'100005815482655'
S'Pranit Ghorpade'
tp304
a(S'100005210801981'
S'Shree Sai Carporates Pune'
tp305
a(S'100002667615311'
S'Akshay Alane'
tp306
a(S'100006482249937'
S'M-addy Kamble'
tp307
a(S'100000086783213'
S'Pritam Khandve'
tp308
a(S'100001957586972'
S'Bullet Specialist'
tp309
a(S'100007089607270'
S'Amar Dake'
tp310
a(S'100003652103307'
S'Sharukh Pathan'
tp311
a(S'100001385104874'
S'Ajinkya Kate Deshmukh'
tp312
a(S'100007131842753'
S'Ashraf Peerzade'
tp313
a(S'100005507477729'
S'Vishwasrao Tingre'
tp314
a(S'100002253097110'
S'Praful Bhosale'
tp315
a(S'100008351466384'
S'Rohan Nikam'
tp316
a(S'100002918978676'
S'Akshay Mane'
tp317
a(S'100005838510756'
S'Newbharat Tarun Mandal'
tp318
a(S'100004635751037'
S'Payal Palshikar'
tp319
a(S'100000847540667'
S'Sonal Jain'
tp320
a(S'100002080934775'
S'Miyaroz Mohammad'
tp321
a(S'100006368324001'
S'Vivek Kadam'
tp322
a(S'100002608328080'
S'Sid Girme'
tp323
a(S'100002924646466'
S'Sameer More'
tp324
a(S'100007304163765'
S'Jagtap Decorators'
tp325
a(S'1372766253'
S'Pinkesh Kapadia'
tp326
a(S'100008228612392'
S'Pramod Parande'
tp327
a(S'100000766887616'
S'Prajakta Kuchik'
tp328
a(S'100000873113830'
S'Ashok Patil'
tp329
a(S'100002461457410'
S'Abhishek Tingre'
tp330
a(S'100007317071530'
S'Sudhakar Zarekar'
tp331
a(S'100002972111748'
S'Saket Nikalje'
tp332
a(S'100005084856180'
S'Rakhi Jain'
tp333
a(S'100002139328308'
S'Akash Deshmane'
tp334
a(S'100003157854084'
S'Sagar Yadav'
tp335
a(S'100001969323465'
S'Akky Deshmane'
tp336
a(S'100003711605865'
S'D Jay Sam'
tp337
a(S'100001610873562'
S'Pratik Kakade'
tp338
a(S'100001409265121'
S'Barathe Manoj'
tp339
a(S'100002945678289'
S'Tejas Kharat'
tp340
a(S'100000319909103'
S'Shivraj Landge'
tp341
a(S'100001340888483'
S'Gaurav Savant'
tp342
a(S'100002359081299'
S'Meet Patel'
tp343
a(S'100002488946838'
S'Amol Tingre'
tp344
a(S'100000962902809'
S'Prashant Yadav'
tp345
a(S'100001960232956'
S'Santy Dudhate Patil'
tp346
a(S'100000169807775'
S'Preeti Jani'
tp347
a(S'100003791688602'
S'Harshvardhan Deokar'
tp348
a(S'100005337633172'
S'Dhaval Patel'
tp349
a(S'100003918722612'
S'Poonam Chaturvedi'
tp350
a(S'100004091206787'
S'Akshay Deshmukh'
tp351
a(S'100002515601197'
S'Mihir Modi'
tp352
a(S'821537499'
S'Minesh Patel'
tp353
a(S'100003536181735'
S'Saut CaYanx Risda'
tp354
a(S'100003788840950'
S'Pravin Jangid'
tp355
a(S'100007980727276'
S'Amol Galande'
tp356
a(S'100002762752459'
S'Sachin Khandve'
tp357
a(S'100005362114569'
S'Philip Desa'
tp358
a(S'100004746876508'
S'Shrikant Dethe'
tp359
a(S'100004068723009'
S'Ganesh Barne'
tp360
a(S'100001272953514'
S'Dhananjay Deshmane'
tp361
a(S'100002181124212'
S'Avinash Sukunde'
tp362
a(S'100002047137546'
S'Ghalal Alden'
tp363
a(S'100005457820467'
S'Christina Zhimomi'
tp364
a(S'100002182890216'
S'Dhanraj Tingre'
tp365
a(S'100000412791099'
S'Kirti Jain'
tp366
a(S'100003002224027'
S'Rohit Pardeshi'
tp367
a(S'100006178083063'
S'Nihal Chavan'
tp368
a(S'100002395846312'
S'Shewta Tapadia'
tp369
a(S'100003827396514'
S'Vikhe Patil Devyani'
tp370
a(S'100003320432318'
S'Yash Satav'
tp371
a(S'100002457475670'
S'Sunny Avchar'
tp372
a(S'100001755589040'
S'Harsshal Tinggre'
tp373
a(S'100005576833763'
S'Nihal Chavan'
tp374
a(S'100006575107338'
S'Dadarao Bobade'
tp375
a(S'1847633188'
S'Sumit Hardwani'
tp376
a(S'100003110691431'
S'Akhil Palande'
tp377
a(S'100003832610118'
S'Ankush Shete'
tp378
a(S'100002289472626'
S'Sayali Gorakshakar'
tp379
a(S'100006596045088'
S'Pankaj Kamble'
tp380
a(S'100003032565674'
S'Aniket Bankar'
tp381
a(S'100000271773447'
S'Raj Nikam'
tp382
a(S'100002831292749'
S'Amrut Pangare'
tp383
a(S'100002923926124'
S'Vaibhav Bhujbal'
tp384
a(S'100006894271088'
S'Rishika Chopra'
tp385
a(S'100008085515177'
S'Daji Patil'
tp386
a(S'100008015738851'
S"Micheal D'souza"
tp387
a(S'100002679870804'
S'Kiren Patil'
tp388
a(S'100002407110256'
S'Sudesh Pawar'
tp389
a(S'100007323608772'
S'Komal Babar'
tp390
a(S'100004981652990'
S'Mayor Chanchala Kodre'
tp391
a(S'100003565566698'
S'Vishal Bhise'
tp392
a(S'100001719035982'
S'Ajay Sawant'
tp393
a(S'100005129882890'
S'Roza Khan'
tp394
a(S'100003930688326'
S'Akshay Markad'
tp395
a(S'100008035812351'
S'Bunty Dake'
tp396
a(S'100000708745465'
S'Dhruva Yerawadekar'
tp397
a(S'100002292852094'
S'Akshay Markad'
tp398
a(S'100001601304996'
S'Kunal Kamthe'
tp399
a(S'100002708959382'
S'Umaid Shaikh'
tp400
a(S'100005283242232'
S'Renuka Ghole'
tp401
a(S'100001364574332'
S'Sanket Shinde'
tp402
a(S'100005623896933'
S'Rajendra Khole'
tp403
a(S'100005700840269'
S'SpProperties Akshay'
tp404
a(S'100006415596577'
S'Omkar Tingre'
tp405
a(S'100001556304462'
S'Ranajit Manisha Devesh Bhosale'
tp406
a(S'100000590462841'
S'Suraj Nadhe'
tp407
a(S'100006893773715'
S'Vicky Patel'
tp408
a(S'100003210548374'
S'Shashikant Bhosle'
tp409
a(S'1708498382'
S'Rahul Raina'
tp410
a(S'100002147971234'
S'Adi Ghadge'
tp411
a(S'100002979637118'
S'Amit Naidu'
tp412
a(S'100001152223978'
S'Kaushik Ghosh'
tp413
a(S'1115839662'
S'Prateek Kore'
tp414
a(S'100006122833310'
S'Akshay Bhadale'
tp415
a(S'100003122291636'
S'Shubham Bavachkar'
tp416
a(S'100000947051272'
S'Vrushab Thosar'
tp417
a(S'100004981896221'
p418
S'Samuel Paul'
tp419
a(S'100002257512630'
S'Mayur Tingre'
tp420
a(S'100002063357263'
S'Alisha Marchant'
tp421
a(S'100007250469207'
S'Sujay Kashid'
tp422
a(S'100006491374026'
S'Mayur Tingre'
tp423
a(S'100001727054817'
S'Mark Vaz'
tp424
a(S'100002377779932'
S'\\u0927\\u0928\\u0902\\u091c\\u092f \\u091c\\u093e\\u0927\\u0935'
tp425
a(S'100006025452349'
S'Rahul Kale Patil'
tp426
a(S'100001131019789'
S'Priyanka Sharma'
tp427
a(S'100002351652898'
S'Prasad Tingre'
tp428
a(S'100001723507189'
S'Kuldeep Sadiwala'
tp429
a(S'100002639670164'
S'Akshay Bhadale'
tp430
a(S'100000006076628'
S'Bhavesh Oswal'
tp431
a(S'100000932116318'
S'Nitin Shankpal'
tp432
a(S'100002871516859'
S'Suraj Rukme'
tp433
a(S'100002115038888'
S'S\\u00efj\\u00f8 Ph\\u00efl\\u00efp'
tp434
a(S'100003196186696'
S'Pranav Rahatekar'
tp435
a(S'100005232972566'
S'Rahul Kale Patil'
tp436
a(S'100002644998482'
S'Kelvin Arick'
tp437
a(S'100003891048936'
S'Kanistha Thakur'
tp438
a(S'100003130054379'
S'Bipin Pol'
tp439
a(S'1320974381'
S'Ayush Jindal'
tp440
a(S'100004492212408'
S'Akash Patil'
tp441
a(S'100008219376705'
S'Prashant Parande'
tp442
a(S'1648894809'
S'Rakesh Hasurkar'
tp443
a(S'1645640382'
p444
S'Arjoonn Sharma'
tp445
a(S'100001504408810'
S'Dhananjay Tingre'
tp446
a(S'100008347621367'
S'Siddhesh Tilekar'
tp447
a(S'100003936731371'
S'Kalyni Sardeshmukh'
tp448
a(S'100001886149889'
S'Niall Barne'
tp449
a(S'100003169611972'
S'Priyanka Sakpal'
tp450
a(S'100007498594335'
S'Aishwarya Nadhe'
tp451
a(S'100000710591179'
S'Rohit Dandnaik'
tp452
a(S'100007589132932'
S'Abhishek Jadhav'
tp453
a(S'100001325383431'
S'Sameer Tingre'
tp454
a(S'100001675707551'
S'Suraj Jain'
tp455
a(S'100003640316436'
S'Vikas Tingre'
tp456
a(S'100005311292738'
S'Amarjeet Dake'
tp457
a(S'100007025225281'
S'Salim Shaikh'
tp458
a(S'100000182218619'
S'Pawan Chugh'
tp459
a(S'100003765327566'
S'Tejas Ghode-Patil'
tp460
a(S'100002445978919'
S'Priya Lov'
tp461
a(S'100005765341333'
S'Birendra Chaudhry Birendra Chaudhry'
tp462
a(S'100003107706408'
S'Kiran Dolas'
tp463
a(S'100002637416075'
S'Suresh Chaudhary'
tp464
a(S'100005781754722'
S'Prajyot Shinde'
tp465
a(S'100004975393525'
S'Ratikesh Naik'
tp466
a(S'100001075978666'
S'Khushal Jadhav'
tp467
a(S'100008103970021'
S'Aniket Dixit'
tp468
a(S'100003736424520'
S'Ashish Agarwal'
tp469
a(S'100005015412986'
S'Akash Dube'
tp470
a(S'100000132884117'
S'Sachin Kadam'
tp471
a(S'100001834591794'
S'P\\u0159\\u00e4\\u0148\\u00e4v \\u0136\\u00e2\\u0110\\u00e5m'
tp472
a(S'100001619405283'
S'Niki Dimitriou'
tp473
a(S'100001913020639'
S'\\u30b7\\u30e3\\u30fc\\u30b5\\u30c3\\u30c8 \\u30a2\\u30fc\\u30c3\\u30c7\\u30a3\\u30fc'
tp474
a(S'100003950625705'
S'Reshma Kale'
tp475
a(S'100001232108693'
S'Sneha Sutar'
tp476
a(S'100005734722904'
S'Shravan Nikam'
tp477
a(S'100002980913255'
S'Amit Kanaskar'
tp478
a(S'1216901700'
S'Abha Mankar'
tp479
a(S'100001352217770'
S'Payal Pawar'
tp480
a(S'100003691047937'
S'Saniket Deokar'
tp481
a(S'100002426667984'
S'Krutika Urde'
tp482
a(S'100007255861541'
S'Shankar Alhat'
tp483
a(S'100006334609371'
S'Rukhsar Sayyed'
tp484
a(S'100000534197390'
S'Rajiv Pachpute'
tp485
a(S'100000925422167'
S'Suneet Palande'
tp486
a(S'100005119170718'
S'Aisha Desai'
tp487
a(S'100001230584062'
S'Atul Tingre'
tp488
a(S'100007344733689'
S'Chirag Kataria'
tp489
a(S'100003750857893'
S'Avishkar Ranpise'
tp490
a(S'100004554333842'
S'Baliraj Chavare'
tp491
a(S'100002384488496'
S'Mohan Tingre'
tp492
a(S'100002021343833'
S'Sara Sayyed'
tp493
a(S'100002067210215'
S'Chirag Bhosale'
tp494
a(S'100005980656192'
S'Kunal Waghmare'
tp495
a(S'100005103180594'
S'RJ Jadhav'
tp496
a(S'100008260200695'
S'Abhilash Panickar'
tp497
a(S'100008320171517'
S'Akash Chavan'
tp498
a(S'100003027664860'
S'Pradeep Inamke'
tp499
a(S'100002673552229'
S'Vinod Pawar'
tp500
a(S'100008159883352'
S'Jai Bhavani Matra Mandal'
tp501
a(S'100006286621131'
S'Ravindra Nimbalkar'
tp502
a(S'100002499975516'
S'Aditya Lokhande'
tp503
a(S'100003332461728'
S'AbHi KaNojiya'
tp504
a(S'100001091488975'
S'Kapil Chovan'
tp505
a(S'100003594603651'
S'Prince Judy'
tp506
a(S'100001077330009'
S'Shambhu Pangre'
tp507
a(S'100001396260747'
S'Rohan Malwadkar'
tp508
a(S'100003676631376'
S'Mahesh Shelke'
tp509
a(S'100000702640991'
S'Mangesh Gole'
tp510
a(S'100000014179565'
S'Pragyta Sharan'
tp511
a(S'100005772611875'
S'Yash Satav'
tp512
a(S'100003838703248'
S'Sana Shaikh'
tp513
a(S'100001394967569'
S'Arjun Jadhav'
tp514
a(S'100002521992820'
S'Risha Pachpute'
tp515
a(S'100002643758563'
S'Tanmay Jadhav'
tp516
a(S'100001667168298'
S'Sagar Kharat'
tp517
a(S'100004085439292'
S'Prasad Shewale'
tp518
a(S'100008169223745'
S'Ashok Rathod'
tp519
a(S'100001140275386'
S'Shantanu Tiwari'
tp520
a(S'100006504613058'
S'Aishwarya Pawar'
tp521
a(S'100004823558895'
S'Balli Bhau Pathare'
tp522
a(S'100001001251253'
S'Somnath Harpale'
tp523
a(S'100002488747646'
S'Sachin Parande'
tp524
a(S'100002463308042'
S'Aman Patel'
tp525
a(S'100006368561919'
S'Neha Satav'
tp526
a(S'100004920430669'
S'Atharva Tingre'
tp527
a(S'537648219'
p528
S'Gaurav Gupta \\u2729'
tp529
a(S'100003669443229'
S'Abhiske Mhaske'
tp530
a(S'100007744748609'
S'Manu Patwa'
tp531
a(S'100002644937057'
S'Maaz Inamdar'
tp532
a(S'100002034227890'
S'Rohit Sonawane'
tp533
a(S'100002249223050'
S'Namita Sharma'
tp534
a(S'100002104373279'
S'Vinit Deshpande'
tp535
a(S'100006473212230'
S'Ramesh Naikodi'
tp536
a(S'100002429962781'
S'Gurleen Kaur'
tp537
a(S'100002324788384'
S'Montee Kasare'
tp538
a(S'100002182053270'
S'TArun Mandhani'
tp539
a(S'100002195949282'
S'Aditya Tingre'
tp540
a(S'100003117120141'
S'Saurabh Pawar'
tp541
a(S'100002193033217'
S'Shubham Nagalkar'
tp542
a(S'100003059167020'
S'Rohan Sable'
tp543
a(S'100001060977259'
S'Sabir Pathan'
tp544
a(S'100001293928459'
S'Jaideep Mulik'
tp545
a(S'100005726524275'
S'Aishwarya Nadhe'
tp546
a(S'100000154928102'
S'Kunal Malke'
tp547
a(S'100002210558677'
S'Azhar Sayyed'
tp548
a(S'100007009476586'
S'Vishal Gavde'
tp549
a(S'100002896060765'
S'Ranjit Tingre'
tp550
a(S'100000932018664'
S'Sahil Patel'
tp551
a(S'100003846613730'
S'Rana Patil'
tp552
a(S'100001722939267'
S'Naresh Choudhari'
tp553
a(S'100002206533770'
S'Ankita Majumder'
tp554
a(S'100008184215069'
S'Santosh Parande'
tp555
a(S'100001029502938'
S'Tanmay Shekhar'
tp556
a(S'100001483197475'
S'Sagar Dalal'
tp557
a(S'100003546664998'
S'Akshay Tingre'
tp558
a(S'100000901892617'
S'Santosh Bhosle'
tp559
a(S'100002400840391'
S'Alok Anupam'
tp560
a(S'100008095023021'
S'Daji Patil'
tp561
a(S'100005921911212'
S'IndrAjeet Shewale'
tp562
a(S'100003097073272'
S'Nitin Tingre'
tp563
a(S'100003870769385'
S'\\u0938\\u094b\\u092e\\u0947\\u0936 \\u0938\\u093e\\u0933\\u0942\\u0902\\u0915\\u0947'
tp564
a(S'100002143236138'
S'\\u00c5\\u0144\\u0129ket Thorat'
tp565
a(S'100001055668368'
S'Rohit Vedepatil'
tp566
a(S'100001576061346'
S'Praju Look Like Gunjan'
tp567
a(S'100007573274060'
S'Shahaji Jadhav'
tp568
a(S'100008058793714'
S'Nitin Khandve'
tp569
a(S'100001969034970'
S'Pradip Pappu Tingre'
tp570
a(S'100000470191100'
S'Rahul Bhosale'
tp571
a(S'100006136923261'
S'Prasad Parande'
tp572
a(S'100007396003042'
S'Aniket Shinde'
tp573
a(S'100002477294535'
S'Akib Modi'
tp574
a(S'100004491090611'
S'Gopal Patil'
tp575
a(S'100001893682900'
S'Chetan Khanolkar'
tp576
a(S'100002038322520'
S'Mayur Ghode'
tp577
a(S'100000287930302'
S'Arijit Das'
tp578
a(S'100004147872511'
S'Sujay Patil'
tp579
a(S'100001938065432'
S'Kanishka Sharma'
tp580
a(S'100003581169835'
S'Gaurang Mate'
tp581
a(S'100002621892727'
S'Sanket Jawale Friend Circle'
tp582
a(S'100002874371009'
S'Pavan Tingre'
tp583
a(S'100005205153694'
S'Gautam Gowda'
tp584
a(S'100003104581488'
S'Sonu Shinde'
tp585
a(S'100002465379986'
S'Satish Dhapte'
tp586
a(S'100003938628390'
S'Rohit Gavhane Patil'
tp587
a(S'100005813260345'
S'Haridas Kulkarni'
tp588
a(S'100003085197510'
S'Satej Kadam'
tp589
a(S'100003313239223'
S'Nikita Gaikwad'
tp590
a(S'1715061056'
S'Rishi Darekar'
tp591
a(S'100002638287791'
S'\\u0938\\u093e\\u0917\\u0930 \\u092d\\u093f\\u0938\\u0947'
tp592
a(S'100002032291723'
S'Deepak More'
tp593
a(S'100002749346051'
S'Nitin Tingre'
tp594
a(S'100007044701639'
S'Manisha Shareyar'
tp595
a(S'100005161271839'
S'Arati Bhosale'
tp596
a(S'100003200047046'
S'Shubham Parande'
tp597
a(S'100005966405107'
S'Amol Burungale'
tp598
a(S'100006295513410'
S'Pratik Kusmade'
tp599
a(S'100001771209230'
S'Onkar Kanekar'
tp600
a(S'100006356941714'
S'Ashok Bamane'
tp601
a(S'100006341705552'
S'Kiran Aivale'
tp602
a(S'100001529952767'
S'AdarshNagar Mitra Mandal'
tp603
a(S'100003739146933'
S'Mayank Deo'
tp604
a(S'100006338011477'
S'Shivam Utage'
tp605
a(S'100003978383335'
S'Mahesh Tingre'
tp606
a(S'100007114714904'
S'Kunal Tingre'
tp607
a(S'100002466581145'
S'Yash Thakare'
tp608
a(S'100002934586132'
S'Lakhan Bhandari'
tp609
a(S'100003813722296'
S'Irfan Shaikh'
tp610
a(S'100004781829192'
S'Allan Navarathinam'
tp611
a(S'100004513720674'
S'Mohan A Salunkhe'
tp612
a(S'100006110735877'
S'Amar Andil'
tp613
a(S'100002634352092'
S'Amar Andil'
tp614
a(S'100006696091463'
S'Rushikesh Kanaskar'
tp615
a(S'100002959250940'
S'\\u0928\\u0917\\u0930\\u0938\\u0947\\u0935\\u0915 \\u0938\\u0924\\u0940\\u0936\\u092d\\u093e\\u090a \\u092e\\u094d\\u0939\\u0938\\u094d\\u0915\\u0947'
tp616
a(S'100002017744470'
S'Tingre Khushal'
tp617
a(S'100004440344324'
S'Vinayak Yadav'
tp618
a(S'100002290016298'
S'Vaishalli Yadav'
tp619
a(S'100002076773442'
S'Bhima Mashalkar'
tp620
a(S'100003391614831'
S'Utkarsh Patil'
tp621
a(S'100001792283086'
S'Satish Gund'
tp622
a(S'1456422810'
S'Akash Satav'
tp623
a(S'100004514593488'
S'Suraj Shinde'
tp624
a(S'100000180856962'
S'Sanket Pansare'
tp625
a(S'100005671055101'
S'Vir Kale'
tp626
a(S'100008261792292'
S'Ganesh Dawkhare'
tp627
a(S'100002803385530'
S'Rahul Bagal'
tp628
a(S'1808467011'
S'Prajit Nair'
tp629
a(S'100004459810783'
S'Suraj Babar'
tp630
a(S'100008241705632'
S'Viraj Tingre'
tp631
a(S'100002173314407'
S'Prashant Hunk'
tp632
a(S'100008020748018'
S'Sohan Sayyad'
tp633
a(S'1174028125'
S'Krunal Patel'
tp634
a(S'100001858128954'
S'Rohit Jain'
tp635
a(S'100001997458201'
S'Vaibhav Mohite'
tp636
a(S'100002095764846'
S'Ravi Velpula'
tp637
a(S'100002099222073'
S'Sudarshan Patil'
tp638
a(S'100004142251029'
S'Arushi Pradhan'
tp639
a(S'100000553914805'
S'Vishal Bhosale'
tp640
a(S'100002387222555'
S'Shubham Jagtap'
tp641
a(S'100002057967120'
S'Katty Dud K'
tp642
a(S'100000956217279'
S'Rahul Jadhav'
tp643
a(S'100003586840865'
S'Nishikant Chavan'
tp644
a(S'100004159028373'
S'Ganesh Satav'
tp645
a(S'100004051546061'
S'Abhijeet Deokar Patil'
tp646
a(S'100004624662730'
S'Dada Dada'
tp647
a(S'100004328233516'
S'Vaibhav Waghmare'
tp648
a(S'100002950532080'
S'Rahul More'
tp649
a(S'100003314881042'
S'Vinod Pardhe'
tp650
a(S'100002095728503'
S'Viraj Dalal'
tp651
a(S'100003282117270'
S'Abhishek Maheshwari'
tp652
a(S'100002274361101'
S'Salmaan Shaikh'
tp653
a(S'100001497495880'
S'Kartik Dhumawat'
tp654
a(S'100008215957315'
S'Amrut Patil'
tp655
a(S'100002499778903'
S'Hemant Hendre'
tp656
a(S'100001585717234'
S'Pratik Nikude'
tp657
a(S'100001257450011'
S'Sandeep Deokar'
tp658
a(S'100004063763345'
S'Amreen Sayyad'
tp659
a(S'100002091144356'
S'Rajendra Rajpurohit'
tp660
a(S'100004830550222'
S'Sandeep Moze'
tp661
a(S'100003369444333'
S'Pradeep Ghute'
tp662
a(S'100002271120795'
S'Sarang Kamble'
tp663
a(S'100002911612221'
S'Ganesh Gavali'
tp664
a(S'100002966383134'
S'Raj Junawane'
tp665
a(S'100001395701702'
S'Uddhav Jadhav'
tp666
a(S'100002361025830'
S'Dang Suraj'
tp667
a(S'100000575644559'
S'Surendra Pathare'
tp668
a(S'100003815854643'
S'Snehal Langhe'
tp669
a(S'100002747952438'
S'Jason Wankhede'
tp670
a(S'100006020412805'
S'Omkar Tingre'
tp671
a(S'100005608381631'
S'Satyam Chhajed'
tp672
a(S'100001526707668'
S'Sushant Gujar'
tp673
a(S'100004442107221'
S'Dinesh Agarwal'
tp674
a(S'100001896794156'
S'Aishwarya Naik'
tp675
a(S'100003005875646'
S'Akshay More'
tp676
a(S'100004679531367'
S'Navnath Kanskar'
tp677
a(S'100002477462875'
S'Gaurav Parande'
tp678
a(S'100007131942836'
S'Onkar Chaure'
tp679
a(S'100002658821050'
S'Sachin Dusunge'
tp680
a(S'100001279555200'
S'Suraj Kadam'
tp681
a(S'100003401675918'
S'Shridhar More'
tp682
a(S'100002400625633'
S'Zarina Khan'
tp683
a(S'100000356038820'
S'Satish Tingre'
tp684
a(S'100004455422120'
S'Nikhil Shendge'
tp685
a(S'100003137880777'
S'Swapnil Tingre'
tp686
a(S'100003113267199'
S'Abhishek Jadhav'
tp687
a(S'100004715534525'
S'Viraj Raje Barde'
tp688
a(S'100001395375052'
S'Roshan Tingre-patil'
tp689
a(S'100008125081327'
S'Pandey Raj C Pandey'
tp690
a(S'100005641500389'
S'Om Agarwal'
tp691
a(S'100008212329335'
S'Rahul Kale'
tp692
a(S'100006550985406'
S'Viraj Solanke'
tp693
a(S'100000723981626'
S'Princess Kesar'
tp694
a(S'100002368833401'
S'Dheeraj Verma'
tp695
a(S'100001983235437'
S'Raj Kutwal'
tp696
a(S'100004137003814'
S'Somnath Tingre'
tp697
a(S'100006252725643'
S'Manisha Wagh'
tp698
a(S'100003169327398'
S'Navnath Tingre'
tp699
a(S'100001214248024'
S'Jaideep Mulik'
tp700
a(S'100002020759939'
S'Arti Bosle'
tp701
a(S'100005014417227'
S'Sonal Kapoor'
tp702
a(S'100002574344287'
S'Amol Tingre'
tp703
a(S'100002936096770'
S'Tukaram Sonawane'
tp704
a(S'100008230842859'
S'Akash Walke'
tp705
a(S'100006208830686'
S'Nilesh Bhosale'
tp706
a(S'1052633918'
S'Mohit Gandhi'
tp707
a(S'100002661574641'
S'Ganesh Patil'
tp708
a(S'100004268795310'
S'Manish Muleva'
tp709
a(S'100004551848568'
S'Kajal Shinde'
tp710
a(S'100003210657021'
S'Sunny Tingre'
tp711
a(S'100005874543160'
S'Christina Joseph'
tp712
a(S'100005363911637'
S'Rathod Vinod'
tp713
a(S'100002717437980'
S'Zaisha Khan'
tp714
a(S'100006018821587'
S'Bapu Sarode'
tp715
a(S'100007987151304'
S'Swapnil Ghorpade'
tp716
a(S'100007610467890'
S'Prasad Shelar'
tp717
a(S'100001638532771'
S'Sarah Joseph'
tp718
a(S'100004696294163'
S'Santosh Khobragade'
tp719
a(S'100006472787783'
S'Beena Thakur'
tp720
a(S'100003541279950'
S'Prakash Pagare'
tp721
a(S'100002303769073'
S'Swapnil Boarkar'
tp722
a(S'100001850630389'
S'Vaibhav Kadam'
tp723
a(S'100006397681337'
S'Abbas Husainy'
tp724
a(S'100001068538707'
S'Oshma Ali'
tp725
a(S'100006929800280'
S'Aditi Patil'
tp726
a(S'100003092157131'
S'Vitthal Tingre'
tp727
a(S'100003587831762'
S'Sagar Kedari'
tp728
a(S'100002261682604'
S'Shubham Lokare'
tp729
a(S'100006312720264'
S'Avinash Kharat'
tp730
a(S'100001951718111'
S'Nisha Singh'
tp731
a(S'100001692112976'
S'Aniket Birajdar Patil'
tp732
a(S'100006497988509'
S'Arvind Kanaskar'
tp733
a(S'100000335163653'
S'Megha Sethi'
tp734
a(S'100001322730717'
S'Deepak Tingre'
tp735
a(S'100002337535820'
S'Swapnil Tingre'
tp736
a(S'100007204899482'
S'Dipak Dada Dabhade'
tp737
a(S'100005600444040'
S'Ashish Vatade'
tp738
a(S'100007757051971'
S'Ravi Ghawate'
tp739
a(S'100001407787963'
p740
S'Akshay Khade'
tp741
a(S'100002373756184'
S'Sunil Tingre'
tp742
a(S'100008185771671'
S'Neha Sagparia'
tp743
a(S'100004314571997'
S'Manoj Agarwal'
tp744
a(S'100004135297429'
S'Suraj Sawant'
tp745
a(S'100005858736862'
S'Shubham Nigade'
tp746
a(S'1431081143'
S'Vijay Kadam'
tp747
a(S'100000108211837'
S'Vishwambhar Aitwar'
tp748
a(S'100004503644476'
S'Shrikant Salve'
tp749
a(S'100003070710258'
S'Dada Kale'
tp750
a(S'100001513896277'
S'Anand K Adam'
tp751
a(S'100003488203187'
S'Rohit Rohidas Chikhale'
tp752
a(S'100008332603777'
S'Mayur Salunke'
tp753
a(S'100006229695181'
S'Harish Shinde'
tp754
a(S'100005705137709'
S'Sumit Gunjal'
tp755
a(S'100002623601102'
S'Hrishibaba Tingre'
tp756
a(S'100000424521081'
S'Ajit Swain'
tp757
a(S'100004281611426'
S'Manpreet Kaur Sethi'
tp758
a(S'100000927609829'
S'Akshay Pawar'
tp759
a(S'100004800571898'
S'Rushikesh Tingre'
tp760
a(S'100004994624971'
S'Shikha Waghmare'
tp761
a(S'100002272719420'
S'Vishal Gunjawate'
tp762
a(S'100005951285090'
S'Amit Tingre'
tp763
a(S'100002255855026'
S'Siddhant Koli'
tp764
a(S'100004127612118'
S'Baala Raaju'
tp765
a(S'100005985697809'
S'Megha Sethi'
tp766
a(S'100005710564015'
S'Nabhan C Muhammed'
tp767
a(S'100007351565626'
S'Amit Tingre'
tp768
a(S'100004049329288'
S'Kaushal Gholap'
tp769
a(S'100006709440186'
S'Ajay Satav'
tp770
a(S'100006557917320'
S'Soma Wagmare'
tp771
a(S'100006176710262'
S'Pratik Dhapte'
tp772
a(S'100002562520096'
S'Prajakta Jadhav'
tp773
a(S'100007256913621'
S'Vinayak Tingre'
tp774
a(S'100004786904218'
S'Rahul Ghogare'
tp775
a(S'100002668246134'
S'Gajanan Tupe'
tp776
a(S'100000485779962'
S'Omkar Kondalkar'
tp777
a(S'1501863802'
S'Manish Nikalje'
tp778
a(S'100002248406182'
S'Vraj Ghantiwala'
tp779
a(S'100006425351071'
S'Swapnil Dabhade'
tp780
a(S'100006012244400'
S'Manoj Patwa'
tp781
a(S'100001053089036'
S'Arman Petil'
tp782
a(S'100004221903589'
S'Ankush Kakade'
tp783
a(S'100002422645921'
S'Tushar Kakde'
tp784
a(S'100007288091476'
S'Vikas Vikad'
tp785
a(S'100005496702394'
S'Jaydip Kadam'
tp786
a(S'100003787663261'
S'Kailash Dhayalkar'
tp787
a(S'100003118488635'
S'Abhishek Pawar'
tp788
a(S'100006078005513'
S'Karan Talwar'
tp789
a(S'100001896260537'
S'Shikha Jain'
tp790
a(S'100005278351911'
S'Sana Shaikh'
tp791
a(S'100002287623949'
S'Swapnil Bhosale'
tp792
a(S'100002184141194'
S'Nakul Malwadkar'
tp793
a(S'100002420678443'
S'Sagar Shendge'
tp794
a(S'100000189768478'
S'Abhijeet Dugad'
tp795
a(S'100003818167934'
S'Amar Andil'
tp796
a(S'100001819719594'
S'Anamika Mishra'
tp797
a(S'100001868165820'
S'Sanket Tanwar'
tp798
a(S'100001647718440'
S'Dipak Gaikwad'
tp799
a(S'1129926378'
S'Nishikant Yadav'
tp800
a(S'100002781932540'
S'Shru Waghmare'
tp801
a(S'100007144748108'
S'\\u0906\\u0915\\u093e\\u0936 \\u092d\\u093e\\u090a \\u0935\\u093e\\u0918\\u092e\\u093e\\u0930\\u0947'
tp802
a(S'100005053530692'
S'Komal Kadam'
tp803
a(S'100002503891375'
S'Mahesh Hagawane'
tp804
a(S'100002235630791'
S'Maddy Dev'
tp805
a(S'100004453093721'
S'Sanjay Bhosale'
tp806
a(S'100004838262091'
S'Shubham Dhananjay Mhaske'
tp807
a(S'100003393306096'
S'Vishal Bhapkar'
tp808
a(S'100004218162968'
S'Vivek Kalamkar'
tp809
a(S'100004136828761'
S'Daud Shaikh'
tp810
a(S'100004722396555'
S'Pushkar Auchare'
tp811
a(S'100002026421151'
S'Sanket Palande'
tp812
a(S'100003129394330'
S'Vinayak Patil'
tp813
a(S'100005173872466'
S'Deblina Mukherjee'
tp814
a(S'100005789884396'
S'Aman Jadhav'
tp815
a(S'100006203042140'
S'Shyam More'
tp816
a(S'100000964509541'
S'Gaurav Sharma'
tp817
a(S'100004636112031'
S'Kishan Theurkar'
tp818
a(S'100002064755464'
S'Pawan Chugh'
tp819
a(S'100003707820202'
S'Shrikant Vedpathak'
tp820
a(S'100006103203621'
S'Vikram Nikam'
tp821
a(S'100000981348480'
S'Akshay Mule'
tp822
a(S'100001974425297'
S'Kunal Garva'
tp823
a(S'100008288523407'
S'Vishal Bhosle'
tp824
a(S'100007493130651'
S'Joyal Mitra'
tp825
a(S'100003769988736'
S'Adarsh Bagal'
tp826
a(S'100008283461013'
S'Daji Patil'
tp827
a(S'100004499893165'
S'Ajay Tingre'
tp828
a(S'100000602912524'
S'Harshal Patil'
tp829
a(S'100001089894197'
S'Sunny Soni'
tp830
a(S'100001494349319'
S'Rahul Tingre'
tp831
a(S'100003943782295'
S'Mayur Parande'
tp832
a(S'100001925721888'
S'Sagar Tingre'
tp833
a(S'100003719827414'
S'Vipul Salve'
tp834
a(S'100004997618150'
S'Amit Giri'
tp835
a(S'100001109077034'
p836
S'Rohit Sanas'
tp837
a(S'100002889748777'
S'Aditya Tingre'
tp838
a(S'100000781413348'
S'Zoya Khalife'
tp839
a(S'100003357160455'
S'Swati Dalsania'
tp840
a(S'100003923359095'
S'Shubham Sonawane'
tp841
a(S'100006649323627'
S'Mukesh Jangid'
tp842
a(S'100005872751636'
S'Suvarna Khare'
tp843
a(S'100002618478924'
S'Pranav Gore'
tp844
a(S'100001028555287'
S'Rohan Niklankar'
tp845
a(S'100000174503742'
S'Suhas Tingre'
tp846
a(S'100004155540932'
S'Tejas Pramod Sasane'
tp847
a(S'100000314558658'
S'Atul Raskar'
tp848
a(S'100003817909182'
S'Sayali Gole'
tp849
a(S'100002120786980'
S'Swarup Suple'
tp850
a(S'100008126621349'
S'Karan Sanas'
tp851
a(S'100003332300481'
S'Suryakant Pawar'
tp852
a(S'100002156227758'
S'Kuldeep Sharma'
tp853
a(S'100003679480055'
S'Vinayak Bhadale'
tp854
a(S'100001100053017'
S'Shreya Chaturvedi'
tp855
a(S'100000604950410'
S'Roshan Singh'
tp856
a(S'100005008628230'
S'Pranav Kanaskar'
tp857
a(S'100003695048924'
S'Suraj Mane'
tp858
a(S'100003704073160'
S'Sandeep Uttekar'
tp859
a(S'100002072043136'
S'\\u091c\\u093f\\u0924\\u0947\\u0936 \\u0938\\u0941\\u0930\\u0947\\u0936 \\u091f\\u093f\\u0902\\u0917\\u0930\\u0947 \\u092a\\u093e\\u091f\\u0940\\u0932'
tp860
a(S'100007777955124'
S'Rakesh Wagh'
tp861
a(S'100002380142663'
S'Vaibhav Mohite'
tp862
a(S'1383266001'
S'Mark Borges'
tp863
a(S'100000886721079'
S'Shekhar Ranpise'
tp864
a(S'100002087755851'
S'Nicholes Britto'
tp865
a(S'100004103133184'
S'Umesh Khandve'
tp866
a(S'100002589938425'
S'Sagar Tingare'
tp867
a(S'100006040715653'
S'Anuj Kurumkar'
tp868
a(S'100002118766515'
S'Sanket Sawant'
tp869
a(S'100003221610548'
S'Aashu Sao'
tp870
a(S'100002231651315'
S'Hrishikesh Bhutada'
tp871
a(S'100004365422704'
S'Aniket Mane'
tp872
a(S'100000014223843'
S'Jagadish Deshpande'
tp873
a(S'100002524627476'
S'Krishna Patil'
tp874
a(S'100003630100343'
S'Neha Goudelar'
tp875
a(S'100002146676003'
S'Vibha Panchkoti'
tp876
a(S'100007643375132'
S'Arun Jadhav'
tp877
a(S'100003677453567'
S'Nilesh Mane'
tp878
a(S'100002428490542'
S'Krupa Tamang'
tp879
a(S'100007680421137'
S'Dada Kharat'
tp880
a(S'100006772960969'
S'\\u092e\\u0902\\u0917\\u0932 \\u092e\\u0941\\u0930\\u094d\\u0924\\u0940 \\u092e\\u093f\\u0924\\u094d\\u0930 \\u092e\\u0902\\u0921\\u0933'
tp881
a(S'100003303005755'
S'Prathamesh Purandare'
tp882
a(S'100005252797544'
S'Mauli Dada Tingre'
tp883
a(S'100003481558371'
S'Ismail Tamboli'
tp884
a(S'100004873183718'
S'Shobha Khare'
tp885
a(S'100001288204311'
S'Sumit Parande'
tp886
a(S'100001812296765'
S'Mahesh Parande'
tp887
a(S'100001932618222'
S'Shika Roy'
tp888
a(S'100006355480853'
S'Cris Theurkar'
tp889
a(S'100004408326967'
S'Akshay Tingre Patil'
tp890
a(S'100003615837821'
S'Sunil Khalse'
tp891
a(S'100003264867540'
S'Rohan Dandnaik'
tp892
a(S'100004029494175'
S'Tushar Kakde'
tp893
a(S'1064318601'
S'Gurunath Birnale'
tp894
a(S'100001874866754'
S'Ganesh Pawar'
tp895
a(S'100007890847421'
S'Chetan Sambhaji Temgire'
tp896
a(S'100001932485145'
S'Ragini Verma'
tp897
a(S'100002098046674'
S'Neha Arora'
tp898
a(S'100008157822897'
S'Ganesh Rajput'
tp899
a(S'100003817658297'
S'Prajesh Late'
tp900
a(S'100001899601943'
S'Sagar Agarwal'
tp901
a(S'100005562150256'
S'Tofik Maniyar'
tp902
a(S'100001290428260'
S'Drghawate Yogesh'
tp903
a(S'100008109488762'
S'Anu Pollard'
tp904
a(S'100001829689658'
S'U-mesh Tingre Patil'
tp905
a(S'100002548251241'
S'Omkar Tingre'
tp906
a(S'100004470342729'
S'Aatish Bhau Dhasal'
tp907
a(S'100003582570167'
S'Volvin Basmi'
tp908
a(S'1270101786'
S'Amarsinha Sonkawade'
tp909
a(S'100000861723174'
S'Swapnil Kand'
tp910
a(S'100002515698040'
S'Sandeep Tingre'
tp911
a(S'100004381333044'
S'Aniket Tonape'
tp912
a(S'100002317523160'
S'Kengar Hrishikesh'
tp913
a(S'100000781627784'
S'Jasmin P Bhambure'
tp914
a(S'100002391767957'
S'Univasal Jim Healthclub'
tp915
a(S'100001259752073'
S'Sudhir Waghmode'
tp916
a(S'100003187531014'
S'Aniket Bankar'
tp917
a(S'100003102451052'
S'Aniket Bhagat'
tp918
a(S'100002472126296'
S'Karan Shirurkar'
tp919
a(S'100004084370551'
S'OM Naidu'
tp920
a(S'100000896640297'
S'Swapnil More'
tp921
a(S'100003886615197'
S'Zeba Shaikh'
tp922
a(S'100002225163921'
S'Rushikesh Ghatge'
tp923
a(S'100001355158050'
S'Vatsal Patel'
tp924
a(S'100003304211114'
S'Monster M Rummy'
tp925
a(S'100002645061866'
S'Cuttie Akshu'
tp926
a(S'100007656552416'
S'Priyanka Patil'
tp927
a(S'100003050448836'
S'Sunny Parande SP'
tp928
a(S'100001676966377'
S'Rajesh Bhalerao'
tp929
a(S'100004056062371'
S'Omkar Sawant'
tp930
a(S'100006876849009'
S'Shruti Pawar'
tp931
a(S'100001085886328'
S'Sharan Saluja'
tp932
a(S'100004065858477'
S'Rohan Dhumal'
tp933
a(S'100007362217396'
S'ShankarBhau Bhorde'
tp934
a(S'100006161320172'
S'Mahesh Tingre'
tp935
a(S'100005714051536'
S'Akash Suryawanshi'
tp936
a(S'100001214871970'
S'Aniket More'
tp937
a(S'100004362040307'
S'Mahesh Tingre'
tp938
a(S'100001266514072'
S'Swapnil Tambe'
tp939
a(S'100006279042392'
S'Sahil Junawane'
tp940
a(S'100002487067363'
S'Anees Kutty'
tp941
a(S'100000109921803'
S'Ankit Manjrawala'
tp942
a(S'100006433349512'
S'Shivani Surve'
tp943
a(S'100007441894577'
S'Nikhil Aitwad'
tp944
a(S'100007288124246'
S'Bobby Parande'
tp945
a(S'100006039734072'
S'Rahul Tingre'
tp946
a(S'100000989311727'
S'Husain Sodawala'
tp947
a(S'100007418491470'
S'Mayur Dada Kale'
tp948
a(S'100002636626987'
S'Mahendra Pagade'
tp949
a(S'100001534881167'
S'Karan Bhujbal'
tp950
a(S'100004064057625'
S'Mayuresh Dherange'
tp951
a(S'100002440841175'
S'Sumeet Pawar'
tp952
a(S'100003908629255'
S'Mayur Inamdar'
tp953
a(S'100002120941566'
S'Aneesh Pillai'
tp954
a(S'100002038787183'
S'Vishal Tingre'
tp955
a(S'100006010773722'
S'Meet Modi'
tp956
a(S'100001837759930'
S'Shubham Lok'
tp957
a(S'100002281482432'
S'Akshay Shinde'
tp958
a(S'100001647997821'
S'Gurdit Gandhi'
tp959
a(S'100001931405652'
S'Chetan Shinde'
tp960
a(S'100003646677676'
S'Tejas Parkhe'
tp961
a(S'100001365835648'
S'Neha Galande'
tp962
a(S'100006797229071'
S'Sandeep Dalvi'
tp963
a(S'100002615314499'
S'Rahul Mhaske'
tp964
a(S'100002070825703'
S'Vishal Thorat'
tp965
a(S'100002026253966'
S'Aniket Surve'
tp966
a(S'100004741836904'
S'Pooja Chaudhary'
tp967
a(S'100000009923354'
S'Amit Kharbade'
tp968
a(S'100002149578013'
S'Ajay Tingre'
tp969
a(S'100003710986019'
S'Lalit Patel'
tp970
a(S'100001909202441'
S'Rashmi Khandve'
tp971
a(S'100003671460902'
S'Durgesh Kadere'
tp972
a(S'100006065733021'
S'Sushant Mote'
tp973
a(S'100000422616644'
S'Avilash Wadmare'
tp974
a(S'100000083194494'
S'Herris Photawala'
tp975
a(S'100007768334290'
S'Pooja Manjer'
tp976
a(S'100004023664538'
S'Akash Barate'
tp977
a(S'100006425801554'
S'Aswa Khan'
tp978
a(S'100006536317372'
S'Sanika Paturkar'
tp979
a(S'100007799072570'
S'Heena Shaikh'
tp980
a(S'100003800165070'
S'Sagar Bhoyar'
tp981
a(S'100002791920334'
S'Sofiya Shaikh'
tp982
a(S'100008379181613'
S'Rohan Kadam'
tp983
a(S'100003238682288'
S'Akshay Mane-Dj'
tp984
a(S'100003869553346'
S'Shruti Gupta'
tp985
a(S'100000984207792'
S'Sanket More'
tp986
a(S'100007864901359'
S'Avinash Kamble'
tp987
a(S'100007571676672'
S'Rahul Bodhan'
tp988
a(S'100000619503109'
S'Kunal Naik'
tp989
a(S'100001242387520'
S'Pratik Chugh'
tp990
a(S'100004120686476'
S'\\u0905\\u0937\\u094d\\u091f\\u0935\\u093f\\u0928\\u093e\\u092f\\u0915 \\u092e\\u093f\\u0924\\u094d\\u0930 \\u092e\\u0902\\u0921\\u0933'
tp991
a(S'100001559499259'
S'Varad Kambli'
tp992
a(S'100006019595715'
S'Tejas Shirke'
tp993
a(S'100002672349752'
S'Mehak Rani'
tp994
a(S'100002877614995'
S'Shiba Gupta'
tp995
a(S'100003224419747'
S'Fenil Desai'
tp996
a(S'100001474387395'
S'Sandeep Patil'
tp997
a(S'100005956574170'
S'Saurabh Tingre'
tp998
a(S'100002629781519'
S'Nilesh Shewale'
tp999
a(S'100000706994549'
S'Ravi Kadam'
tp1000
a(S'100003452631793'
S'Vijay Dhar'
tp1001
a(S'100000981018203'
S'Amit Chandanshive'
tp1002
a(S'100001998342106'
S'Nitesh Astik Tingre'
tp1003
a(S'100008041533399'
S'Sonali Adhav'
tp1004
a(S'100008345656450'
S'Tushar Ghule'
tp1005
a(S'100004032469442'
S'Swapnil Gaikwad'
tp1006
a(S'100006078159123'
S'Shubham Tingre'
tp1007
a(S'100000696026699'
S'Niranjan Balwadkar'
tp1008
a(S'100002945373494'
S'Avinash Bagwe'
tp1009
a(S'100002252626976'
S'Santosh Vishwakarma'
tp1010
a(S'100005593590267'
S'Ajit Tingre'
tp1011
a(S'100004885054089'
S'Anvesha Tomar'
tp1012
a(S'100000740242962'
S'Mumtaaz Jaanu'
tp1013
a(S'100002424158735'
S'Vishu Bhujbal'
tp1014
a(S'100003876210691'
S'Shashanki Ingawale'
tp1015
a(S'100003941377575'
S'Anushka Deshmukh'
tp1016
a(S'100002009600978'
S'Akshay Ambre'
tp1017
a(S'100001201573026'
S'Krishna Sharma'
tp1018
a(S'100001560496112'
S'Supriya Shinha'
tp1019
a(S'100004549720793'
S'\\u091c\\u0917\\u0926\\u0940\\u0936\\u092d\\u093e\\u090a \\u092e\\u0941\\u0933\\u0940\\u0915 \\u092f\\u0941\\u0935\\u093e \\u092e\\u0902\\u091a'
tp1020
a(S'100002895574215'
S'Abhishek Jadhav'
tp1021
a(S'100004740844267'
S'Simran Lalwani'
tp1022
a(S'739384406'
p1023
S'Archit Khandeparkar'
tp1024
a(S'100002263315315'
S'Akshay Jadhav'
tp1025
a(S'100006801098357'
S'Meeta Kurhade'
tp1026
a(S'100005735503457'
S'Ajinkya Tingre'
tp1027
a(S'100003253948208'
S'Zaisha Khan'
tp1028
a(S'100005249647911'
S'Ankush Kakade'
tp1029
a(S'100001832514857'
S'Angel Kajal Sharma'
tp1030
a(S'100008009345376'
S'Sachin Tupe'
tp1031
a(S'100000929795455'
S'Kiran Shinde Naik'
tp1032
a(S'100002404263661'
S'Tejas Chavan'
tp1033
a(S'100002928354584'
S'Govind Vitkar'
tp1034
a(S'100003081653170'
S'Umesh Tingre'
tp1035
a(S'100004510237335'
S'Chetan Tingre'
tp1036
a(S'100006414310308'
S'Amit Giri'
tp1037
a(S'100003258055580'
S'Sunny Kadam'
tp1038
a(S'100002256165757'
S'Sunny Hassi'
tp1039
a(S'100006409662507'
S'Mahesh Tingre'
tp1040
a(S'100001181930227'
S'Ashish Pasalkar'
tp1041
a(S'100005042228768'
S'Harish Pandilla'
tp1042
a(S'100002069471557'
S'Vaibhav Salunkhe'
tp1043
a(S'100002824399205'
S'Santosh Thorat'
tp1044
a(S'100004334196139'
S'Priyanka Bhosale'
tp1045
a(S'100001133296348'
S'Chirag Nambiar'
tp1046
a(S'100003788762775'
S'Alisha Khan'
tp1047
a(S'100004954924127'
S'Vinod Tingre'
tp1048
a(S'100000778586807'
S'Nikhil Tingre'
tp1049
a(S'1297380889'
S'Aditi Gaikwad'
tp1050
a(S'100001412190563'
S'Nikhil Deokar'
tp1051
a(S'100002551869095'
S'Rupesh Tingre'
tp1052
a(S'100002039420197'
S'Tanisha Dixit'
tp1053
a(S'100004745080278'
S'Chetna Balgude'
tp1054
a(S'100002322978748'
S'Dolly Mavlingkar'
tp1055
a(S'100007873533954'
S'Azzad Deshmukh'
tp1056
a(S'100002818873488'
S'Sameera Koley'
tp1057
a(S'100002353433402'
S'Sagar Farate'
tp1058
a(S'100007349854349'
S'Ganesh Khedekar'
tp1059
a(S'100008202660245'
S'Tatya Sarkar'
tp1060
a(S'100004180480257'
S'Arav Kamthe'
tp1061
a(S'100008336143199'
S'Vijay Lonke'
tp1062
a(S'100000560559265'
S'Akhil Surendran Nair'
tp1063
a(S'100005319841706'
S'Vivek Kalamkar'
tp1064
a(S'1455010453'
S'Gulshan Sharma'
tp1065
a(S'100002620473402'
S'Sagar Alane'
tp1066
a(S'100006935922044'
S'Harshvardhan Kusmade'
tp1067
a(S'100002504347163'
S'Anil Kengale'
tp1068
a(S'100007333088985'
S'Shubham Pathare'
tp1069
a(S'100006454855135'
S'Sak Shaikh'
tp1070
a(S'100003250126187'
S'Rahul Ghogare Patil'
tp1071
a(S'1059975214'
S'Chetan Ghule'
tp1072
a(S'100004234299523'
S'Sameer Tadvi'
tp1073
a(S'100007314601819'
S'Max Ovhal'
tp1074
a(S'100002441627778'
S'Gopi Shendge'
tp1075
a(S'100003500610968'
S'Gaurij Adval'
tp1076
a(S'100003524409960'
S'Tanmay Shekhar'
tp1077
a(S'100002379997624'
S'Nithya Mammen'
tp1078
a(S'100003932322747'
S'Nutan Patekar'
tp1079
a(S'100002522038938'
S'Shubham Zarekar'
tp1080
a(S'100001875091677'
S'Nutan Patekar'
tp1081
a(S'100002860958399'
S'Pappu Dhapte'
tp1082
a(S'100007797547142'
S'\\u0938\\u0943\\u091c\\u0932 \\u091f\\u0947\\u0932\\u093f\\u0915\\u0949\\u092e'
tp1083
a(S'100006589440902'
S'Sourabh Shirke'
tp1084
a(S'100002307670581'
S'Shivdeep Mirashe'
tp1085
a(S'100004971153090'
S'Ritika Varma'
tp1086
a(S'100002250906120'
S'Jai Kumar'
tp1087
a(S'100004621900432'
S'Mahindra Jagtap'
tp1088
a(S'100005577070990'
S'M\\u00e2h\\u00ee\\u00f1dr\\u00e4 J\\u00e1gt\\u00e0p'
tp1089
a(S'100007203461017'
S'Dhananjay V Bhujbal'
tp1090
a(S'100003119046948'
S'Nikhil Deshmukh'
tp1091
a(S'100000148374091'
S'Karan Nagaraj'
tp1092
a(S'100007837982863'
S'Ganesh Tingre'
tp1093
a(S'100002297029505'
S'Aditya Mokashi'
tp1094
a(S'100002927490744'
S'Chittaranjan Kadekar'
tp1095
a(S'100003564756315'
S'Nikita Tingre'
tp1096
a(S'100004511015438'
S'Nilkanth Gadhave'
tp1097
a(S'100005678536326'
S'Bharat Tingre'
tp1098
a(S'100008114712813'
S'Aniket DaDa Salunke'
tp1099
a(S'100001938423516'
S'Anjali Hrushi Gupta'
tp1100
a(S'100002054397063'
S'Piyush Kundnani'
tp1101
a(S'100002391026635'
S'Prashant Wavhal'
tp1102
a(S'100001342716776'
S'V\\u00ecshal Pawar'
tp1103
a(S'100000286292211'
S'Hrishikesh Kulkarni'
tp1104
a(S'100001710501628'
S'Amit Tapkir'
tp1105
a(S'100005328581819'
S'Harshal Gangurde'
tp1106
a(S'100004032199647'
S'Mininath Maskar'
tp1107
a(S'100001587681899'
S'Ajit Murkute'
tp1108
a(S'100000011224438'
S'Ajay Tingre'
tp1109
a(S'100001247020575'
p1110
S'Rohan Sanas'
tp1111
a(S'100000086124224'
S'Shashank Honrao'
tp1112
a(S'846174582'
S'Sopan Joshi'
tp1113
a(S'100001765605641'
S'Sanket Divekar'
tp1114
a(S'1757518143'
S'Deepali Bhadale'
tp1115
a(S'100000733611347'
S'Riyaz Deshmukh'
tp1116
a(S'100001557616413'
S'Rishikesh Sonar'
tp1117
a(S'100002360742202'
S'Siddhant Inkar'
tp1118
a(S'100003653993637'
S'Nikhil Adarshe'
tp1119
a(S'100003690251847'
S'Amar Shingade'
tp1120
a(S'100002868149150'
S'Avinash Jadhav'
tp1121
a(S'100006592862085'
S'Laxman Nalawade'
tp1122
a(S'100003730107419'
S'Akul Patel'
tp1123
a(S'100006609721341'
S'Pappu Tingre'
tp1124
a(S'100002340609117'
S'Priyanka Mohite'
tp1125
a(S'100002634590014'
S'Kunal Tingre Patil'
tp1126
a(S'100008244188340'
S'Rishikesh Borse'
tp1127
a(S'100002205131259'
S'Nagesh Sirsat'
tp1128
a(S'100002887738205'
S'Prithviraj Solanke'
tp1129
a(S'100005646605811'
S'Harshada Shewale'
tp1130
a(S'100004256401401'
S'Sandesh Gaikwad'
tp1131
a(S'100002081798626'
S'Prakash Gupta'
tp1132
a(S'100003510096193'
S'Sunita Tai Salunke'
tp1133
a(S'100002341159295'
S'Akshay Shinde'
tp1134
a(S'100002191467099'
S'Saurabh Jadhav'
tp1135
a(S'100004079511001'
S'Mayur Khandve'
tp1136
a(S'1757485048'
S'Kapil A Patil'
tp1137
a(S'100006304657196'
S'Mayur Khandve'
tp1138
a(S'100002558671853'
S'Sachin Chinchawade'
tp1139
a(S'100003700175972'
S'Jackequine Hawkens'
tp1140
a(S'100001846057258'
S'Rahul Kashitkar'
tp1141
a(S'100003638851296'
S'Aliasgar Kapasi'
tp1142
a(S'100003015448947'
S'Vickram Barathe'
tp1143
a(S'100003625496824'
S'Siddharth D Tupe'
tp1144
a(S'100002130101988'
S'Akshay Deshmukh'
tp1145
a(S'100002425737057'
S'Alim Jamadar'
tp1146
a(S'100003705392732'
S'Shubham Mhaske'
tp1147
a(S'100001411288377'
S'Shambhoo Shinde'
tp1148
a(S'100003781924512'
S'Vikas Kalamkar'
tp1149
a(S'100005235739323'
S'Sharad Surve'
tp1150
a(S'100002355268757'
S'Sofiya Shaikh'
tp1151
a(S'100003192715577'
S'Swami Tingre'
tp1152
a(S'100004011587719'
S'Mauli Tingre'
tp1153
a(S'100006456167387'
S'Fenil Desai'
tp1154
a(S'100003518334437'
S'Mayur Tingre'
tp1155
a(S'100003898783607'
S'Kuldeep Tingre Patil'
tp1156
a(S'100000154846020'
S'Aditya Durge'
tp1157
a(S'100002448615028'
S'Yash Patel'
tp1158
a(S'100008034190248'
S'Aniket Chandanshive'
tp1159
a(S'100003178820251'
S'Akshay Kondke'
tp1160
a(S'100003874633381'
S'Hitesh Bangera'
tp1161
a(S'100007470277111'
S'Tapan Mane'
tp1162
a(S'100000861174738'
S'Aniket Chandanshive'
tp1163
a(S'100000257558343'
S'Jayant Nimbalkar'
tp1164
a(S'100001146009452'
S'PraTik KhaTal'
tp1165
a(S'100004444781600'
S'Suyash Tingare'
tp1166
a(S'100002191693388'
S'Atish Galande'
tp1167
a(S'100001962070276'
S'Rekha D Tingre'
tp1168
a(S'100001060154257'
S'Ranjeet Atkire'
tp1169
a(S'100005915134267'
S'Akshay Tingre'
tp1170
a(S'100005118637596'
S'Abhishek Tingre'
tp1171
a(S'100002709060871'
S'Vishal Dargude'
tp1172
a(S'100006257581791'
S'Adesh Bhosale'
tp1173
a(S'100004739232427'
S'Somnath Daphal'
tp1174
a(S'100002489501177'
S'Vivek Masulkar'
tp1175
a(S'100007967169467'
S'Hi-Tech Comp Inst'
tp1176
a(S'100003160972821'
S'RaSika Bhave'
tp1177
a(S'100008238552846'
S'Sangharash Trun Mandal Dhanori'
tp1178
a(S'100002499660413'
S'Anil Tingre'
tp1179
a(S'100005018070149'
S'Sandesh Tingre'
tp1180
a(S'100005466644325'
S'Shejal Samant'
tp1181
a(S'100004397684491'
S'Vibha Panchkoti'
tp1182
a(S'100003128091531'
S'Lakshmiknt Tingre'
tp1183
a(S'100007690968769'
S'Kishor Tingre'
tp1184
a(S'100002597713620'
S'Shekhar More'
tp1185
a(S'100002065788202'
S'Kshits Kharat'
tp1186
a(S'100005406401573'
S'Shiv Shrushti Pratishthan'
tp1187
a(S'100003686623556'
S'Shubham Mahapadi'
tp1188
a(S'100000720404438'
S'Savinay Nimje'
tp1189
a(S'100000330462338'
S'Maiia Arletta Swan'
tp1190
a(S'100004700940544'
S'Sachin Tingre'
tp1191
a(S'100005725368097'
S'Sachin Tingre'
tp1192
a(S'100002258539967'
S'Sachin Tingre'
tp1193
a(S'100004015202408'
S'Shubham Wadekar'
tp1194
a(S'100002454770531'
S'Ajay Khalse'
tp1195
a(S'100001909196517'
S'Fanil Modi'
tp1196
a(S'100007096142183'
S'Dhruvil Dudhwala'
tp1197
a(S'100004709380964'
S'Pratiksha Kamble'
tp1198
a(S'100002631271496'
S'Ashok Bhosale'
tp1199
a(S'100003635059066'
S'Ami Misal'
tp1200
a(S'100004587371444'
S'Hitesh Bangera'
tp1201
a(S'100003865820724'
S'Hitesh Bangera'
tp1202
a(S'100001278099286'
S'Shrinivas Chikrale'
tp1203
a(S'100001346241869'
S'Abhijeet Surve'
tp1204
a(S'100005126794868'
S'Bhavin Desai'
tp1205
a(S'100008139458238'
S'Sandeep Suryawanshi'
tp1206
a(S'100002779431761'
S'Pravin Tingre'
tp1207
a(S'100007876772874'
S'Subhangi Kamble'
tp1208
a(S'100003273962094'
S'Kailash Bharati'
tp1209
a(S'100004209305201'
S'Vivek Kalamkar'
tp1210
a(S'100002180289715'
S'Amit Palande'
tp1211
a(S'100003383201063'
S'Kartik Mudliar'
tp1212
a(S'100004009017019'
S'Shubham Botre'
tp1213
a(S'100003522970108'
S'Rohan Jadhav'
tp1214
a(S'100002623615623'
S'Yograj Kadam'
tp1215
a(S'100004953278845'
S'Saqlain Shaikh'
tp1216
a(S'100002103990080'
S'Jaikiran Deokar'
tp1217
a(S'100001794412864'
S'Aditya Tingre Patil'
tp1218
a(S'100003121622300'
S'Ajit Todkari'
tp1219
a(S'100001481120551'
S'Alex Makasare'
tp1220
a(S'100003057280296'
S'Sandeep Junawane'
tp1221
a(S'100007905940309'
S'Sachin Parande'
tp1222
a(S'100003557485234'
S'Prakash Birajdar'
tp1223
a(S'100002503992577'
S'Manzoor Sayyed'
tp1224
a(S'100001059365416'
S'Ashpak Makandar'
tp1225
a(S'100002884495758'
S'Kartar Rajput'
tp1226
a(S'100001390599804'
S'Gajanan Mahadik'
tp1227
a(S'100002651037523'
S'Prasad Jamdade'
tp1228
a(S'100003756170351'
S'Dhananjay Itkar'
tp1229
a(S'100003726656746'
S'Ketan Gandhi'
tp1230
a(S'100002496235683'
S'Nilesh Patil'
tp1231
a(S'100001894668868'
S'Vishal G Tingre'
tp1232
a(S'100002088990006'
S'Shubham S. Dhapte'
tp1233
a(S'100003842903185'
S'Monica Bhardawaj'
tp1234
a(S'100003098689838'
S'\\u010chirag \\u0164hosar'
tp1235
a(S'100000315790709'
S'Danesh Bharucha'
tp1236
a(S'100005076914541'
S'Omi Kamble'
tp1237
a(S'100004353039625'
S'Mayuri More'
tp1238
a(S'100000092849112'
S'Mahesh Junawane'
tp1239
a(S'100002481482204'
S'Harshada Shewale'
tp1240
a(S'100005589066476'
S'Ashitosh Chavan'
tp1241
a(S'100008060226678'
S'Yogesh Tingre'
tp1242
a(S'100003347273814'
S'Yogesh Tingre'
tp1243
a(S'100000298460429'
S'Bansari Joshi'
tp1244
a(S'100008133998564'
S'Dattatray Tingre'
tp1245
a(S'100000544613072'
S'Anzar Shaikh'
tp1246
a(S'100003397805337'
S'Navnath Pasange'
tp1247
a(S'100002699359045'
S'Akshay Pawar'
tp1248
a(S'1592743619'
S'Bibin Babu'
tp1249
a(S'1528489564'
S'Parth Ghai \\u0a74'
tp1250
a(S'100004485870609'
S'Ganesh Tingre'
tp1251
a(S'100002617144516'
S'Tushar Patil'
tp1252
a(S'100002130120606'
S'Nita Roy'
tp1253
a(S'100002841326775'
S'Ganesh Tingre'
tp1254
a(S'100003673795541'
S'Ganesh Tingre'
tp1255
a(S'100003814450668'
S'Shubham Kamaji'
tp1256
a(S'100002110006748'
S'Vikas Kadam'
tp1257
a(S'1431647978'
S'Karan Adhikari'
tp1258
a(S'100005592458366'
S'Shubham More'
tp1259
a(S'100004881874334'
S'Shrikant Chikhale'
tp1260
a(S'100001123263058'
S'Larry Riasti'
tp1261
a(S'100000996550548'
S'Sagar Jadhav'
tp1262
a(S'100002643023922'
S'Sambha Parande'
tp1263
a(S'100002987882404'
S'\\u0936\\u0947\\u0933\\u0915\\u0947 \\u091a\\u0902\\u0926\\u094d\\u0928\\u0936\\u0947\\u0916\\u0930 \\u092a\\u093e\\u091f\\u0940\\u0932'
tp1264
a(S'100006687284361'
S'Rohit Punekar'
tp1265
a(S'100001743614151'
S'Vikrant Mohite'
tp1266
a(S'100004381661526'
S'Manali Agarwal'
tp1267
a(S'100006509181167'
S'Rishikesh Sharma'
tp1268
a(S'100004117322376'
S'Dip P Msd'
tp1269
a(S'100004394113528'
S'Sumit Undre'
tp1270
a(S'100003354354009'
S'Sanaya Arora'
tp1271
a(S'100003653230761'
S'Ganesh Singh'
tp1272
a(S'100003539173074'
S'Vishwatej Lande'
tp1273
a(S'100001934923306'
S'Priya Kapoor'
tp1274
a(S'100005237049227'
S'Azhar Sayyed'
tp1275
a(S'100008098510052'
S'Atul Ingulkar'
tp1276
a(S'100006392042056'
S'Ravi Patwa'
tp1277
a(S'100001986453281'
S'Sushant Waghmode'
tp1278
a(S'100003544251311'
S'Mukesh Choudhary'
tp1279
a(S'100005006616327'
S'Aishwarya Naik'
tp1280
a(S'100002721346002'
S'Kalidas Shinde'
tp1281
a(S'100001903906842'
S'Vinay Vijay Chavan'
tp1282
a(S'100002554729786'
S'Sana Sheikh'
tp1283
a(S'100006934292651'
S'Abhijit Gavas'
tp1284
a(S'100004042876978'
S'Ramesh Choudhary'
tp1285
a(S'100007335611639'
S'I\\u014bocent Atitude'
tp1286
a(S'100002286276199'
S'Akshay Markad'
tp1287
a(S'100006410191850'
S'Tushar Deshmukh'
tp1288
a(S'100002720474238'
S'Sonam Gaikwad'
tp1289
a(S'100003067569545'
S'Nikhil Bhand'
tp1290
a(S'100001393471091'
S'Pratik Manshani'
tp1291
a(S'100004608337504'
S'Navnath Tingre'
tp1292
a(S'100000762759045'
S'Pratik Mhaske'
tp1293
a(S'100004025240077'
S'Venktesh Tingre'
tp1294
a(S'100004402203971'
S'Mohan Agarwal'
tp1295
a(S'100002559853108'
S'Prashant Savle'
tp1296
a(S'100008249280658'
S'Viraj Sachin Tingre'
tp1297
a(S'100005698028445'
S'Ritik Mirekar'
tp1298
a(S'100002139415919'
S'Vidhayadhar Bhandary'
tp1299
a(S'100003832123389'
S'Swapnil Tingre'
tp1300
a(S'100003748745202'
S'Sangram Patil'
tp1301
a(S'100004326994233'
S'Rahul Pawar'
tp1302
a(S'100000412387239'
S'Darshan Naidu'
tp1303
a(S'100001944737098'
S'Shirish Kakade'
tp1304
a(S'100003600598375'
S'Hrishi Sakpal'
tp1305
a(S'100001180641255'
S'Rohan Kadam'
tp1306
a(S'730768063'
S'Vikram Koratkar'
tp1307
a(S'100002324905802'
S'Pravin Medar'
tp1308
a(S'100000664558982'
S'Rupesh Sahani'
tp1309
a(S'100005012136366'
S'Tejas Tingre'
tp1310
a(S'100003834396769'
S'Ajinkya Kadam'
tp1311
a(S'100004031202970'
S'Ramesh Changale'
tp1312
a(S'100000691760859'
S'Kruti Vajir'
tp1313
a(S'100003919808778'
S'Varsha Bare'
tp1314
a(S'100002782899438'
S'Yogesh Tingre'
tp1315
a(S'100000652078543'
S'Suraj Kadam'
tp1316
a(S'1065368186'
S'Pushkar Karanjkar'
tp1317
a(S'100000987959161'
S'Noopor Soni'
tp1318
a(S'100004406408543'
S'Annie Bhakre'
tp1319
a(S'712545191'
S'Vishal Gulabrao Tingre Patil'
tp1320
a(S'100000541291949'
S'Shaan Kadam'
tp1321
a(S'100001265635478'
S'Shekha Verma'
tp1322
a(S'100006062765245'
S'\\u092e\\u093e.\\u0930\\u0935\\u093f\\u0902\\u0926\\u094d\\u0930 \\u0906\\u0923\\u094d\\u0923\\u093e \\u092e\\u093e\\u0933\\u0935\\u0926\\u0915\\u0930 \\u092f\\u0941\\u0935\\u093e\\u092e\\u0902\\u091a'
tp1323
a(S'100003161154282'
S'Anant Tingre'
tp1324
a(S'100002859146793'
S'Tganesh Tingare'
tp1325
a(S'100002309777955'
S'Deep Patel'
tp1326
a(S'100004015959947'
S'Sanjay Nikam'
tp1327
a(S'100002403583711'
S'Anirudh Patil'
tp1328
a(S'100001066457686'
S'Sudhir Suryawanshi'
tp1329
a(S'100002673901198'
S'Mangesh Pawar'
tp1330
a(S'100002292189708'
S'Mayur Pattem'
tp1331
a(S'100003076662184'
S'\\u00c2kk\\u00ee K\\u00f8\\u0148\\u010fk\\u011b'
tp1332
a(S'100001307235205'
S'Nakul Malwadkar'
tp1333
a(S'100003979785449'
S'Dinesh Matale'
tp1334
a(S'100003077087216'
S'Rohit Patole'
tp1335
a(S'100007890692686'
S'Minesh Patil'
tp1336
a(S'100000488276139'
S'Sargam Shukla'
tp1337
a(S'1682626552'
S'Nakul Mhaske'
tp1338
a(S'1792920788'
S'Simran Dayal'
tp1339
a(S'100003905794729'
S'Amit Chouhan'
tp1340
a(S'100002427103561'
S'Anand Shinde'
tp1341
a(S'100002414395123'
S'Shree Parekar'
tp1342
a(S'100001660744673'
S'Karan Rajpurohit'
tp1343
a(S'100002828336025'
S'Sunny Janrao'
tp1344
a(S'100001360977790'
S'Vatsal Patel'
tp1345
a(S'100000538740294'
S'Parshu Chalwadi'
tp1346
a(S'100003532127161'
S'Umesh Mohite'
tp1347
a(S'100001257875207'
S'Sohail Joad'
tp1348
a(S'100003141972641'
S'Meghna Khanna'
tp1349
a(S'100002338593924'
S'Rahul Bhagwan Jadhav'
tp1350
a(S'100006858031037'
S'Tejas Tingre'
tp1351
a(S'100003462490987'
S'Shubham More'
tp1352
a(S'100001782818060'
S'Vishal Hake'
tp1353
a(S'100004109440588'
S'Shashikant Chavan'
tp1354
a(S'100000045341605'
S'Yajant Jagtap'
tp1355
a(S'100001752834062'
S'Gaurav Shitole'
tp1356
a(S'100004084050548'
S'Dada Kale'
tp1357
a(S'100002804436107'
S'Deepika Sharma'
tp1358
a(S'100003001779869'
S'Akshay N Shelkande'
tp1359
a(S'100000889733408'
S'Rahul Kadam'
tp1360
a(S'100004786383473'
S'Ramakant Kand'
tp1361
a(S'100002392281856'
S'Nikhil Jadhav'
tp1362
a(S'100003263448245'
S'Nikhildada Tingre'
tp1363
a(S'100002868705198'
S'Rolly Dubey'
tp1364
a(S'100001061370878'
S'Ashish Shinde'
tp1365
a(S'100002692939632'
S'Shantanu Mallav'
tp1366
a(S'100002906539598'
S'\\u0915\\u093f\\u0930\\u0923 \\u0926\\u0924\\u094d\\u0924\\u093e \\u0938\\u093e\\u092c\\u0933\\u0947'
tp1367
a(S'100001209017040'
S'Rakesh Mhaske'
tp1368
a(S'100005307900226'
S'Sachin Kalamkar'
tp1369
a(S'100001411088971'
S'Bhagwat Solanke'
tp1370
a(S'100007837960648'
S'Somnath K Tingre'
tp1371
a(S'100001066429990'
S'Anwin Varghese'
tp1372
a(S'100003154841808'
S'R-ohan Parande'
tp1373
a(S'100002076888716'
S'Rohan Sonawane'
tp1374
a(S'100003878223129'
S'Pranav Satav'
tp1375
a(S'100008281800602'
S'Akash Swami'
tp1376
a(S'100001413604492'
p1377
S'Soham Kathuria'
tp1378
a(S'100008193255665'
S'Manthan Patel'
tp1379
a(S'100001627790121'
S'Atul Tingre'
tp1380
a(S'100007878550345'
S'Vivek Tingre'
tp1381
a(S'100001392881827'
S'Aniket Kand'
tp1382
a(S'100003574818970'
S'Arun Pardhe'
tp1383
a(S'100002483919045'
S'Shruti Patil'
tp1384
a(S'100008206116559'
S'Vijay Soni'
tp1385
a(S'100004089936380'
S'Fakt Ani Fakt Bhau'
tp1386
a(S'100007538582220'
S'Jyoti Tushambar'
tp1387
a(S'100000141662085'
S'Mudasir Shalla'
tp1388
a(S'100004043461316'
S'Sachin Tarde'
tp1389
a(S'100001866900613'
S'Khushbu Shah'
tp1390
a(S'100003149559685'
S'Bunti Mhaske'
tp1391
a(S'100006205238851'
S'Vibha Gurav'
tp1392
a(S'100002841627519'
S'Rushikesh Solanke'
tp1393
a(S'100004753241827'
S'Vijay Albhar'
tp1394
a(S'100000559003986'
S'Sachin Tingre'
tp1395
a(S'100005312077633'
S'Mobin Shaikh'
tp1396
a(S'546486928'
S'Anish Joshi'
tp1397
a(S'100002457591323'
S'Sachin Tingre'
tp1398
a(S'1421287644'
S'Shubham Pawar'
tp1399
a(S'100000552566037'
S'Janmesh Patel'
tp1400
a(S'100004685706217'
S'Sunil Waghmare'
tp1401
a(S'100003065414938'
S'Aniket Patil'
tp1402
a(S'100001176319768'
S'Vedangi Kolte'
tp1403
a(S'100004441025701'
S'Vaibhav Satpute'
tp1404
a(S'100003078306836'
S'Kishor Khilari'
tp1405
a(S'100005814752335'
S'Akshay Tingre'
tp1406
a(S'100000130051043'
S'Vaibhav Dalvi'
tp1407
a(S'100001273718484'
S'Supriya Gaikwad'
tp1408
a(S'100003240037771'
S'Lisa Andrews'
tp1409
a(S'100002140075163'
S'Ajinkya Patil'
tp1410
a(S'100004077102774'
S'Javid Sayyed'
tp1411
a(S'100004401131549'
S'Anil Jagdhane'
tp1412
a(S'100001706025768'
S'Swapnil Sonawane'
tp1413
a(S'100005105408999'
S'Shravan Tingre'
tp1414
a(S'100002076648809'
S'Bunty More'
tp1415
a(S'100000976075693'
S'Anmol Nadgam'
tp1416
a(S'100003958174937'
S'Dinesh Seervi'
tp1417
a(S'100006344743214'
S'B-ob Tapkir'
tp1418
a(S'100007193258483'
S'Minesh Patil'
tp1419
a(S'100006740130376'
S'Omkar Tingre'
tp1420
a(S'100005874697192'
S'Suraj Kashid'
tp1421
a(S'100006365313460'
S'Pravin Tingre'
tp1422
a(S'100002483153233'
S'Vish Rock'
tp1423
a(S'100002544837457'
S'Avinash Nandanwar'
tp1424
a(S'100007423687963'
S'Ravi Gurav'
tp1425
a(S'100003199943693'
S'Akshay Pawar'
tp1426
a(S'100000946176687'
S'Murtaza Kachwala'
tp1427
a(S'100003778586686'
S'Kiran Shinde'
tp1428
a(S'100007049010479'
S'Sam AB Crew'
tp1429
a(S'100002609984209'
S'Prashant Landge'
tp1430
a(S'100002467386331'
S'Shweta Pandey'
tp1431
a(S'100001265567796'
S'Yogesh Kesari'
tp1432
a(S'100005258550109'
S'Omkar Satav Patil'
tp1433
a(S'100002411422977'
S'Alisha Khan'
tp1434
a(S'100000279290216'
S'Anand Chavan'
tp1435
a(S'100006141123618'
S'Deajay Smail Deajay Smail'
tp1436
a(S'100002905594021'
S'Sushant More'
tp1437
a(S'1247810833'
S'Nisheeth Shah'
tp1438
a(S'100001650123036'
S'Balasaheb Kotkar'
tp1439
a(S'100007145887643'
S'Vishal Tingre'
tp1440
a(S'100003626712612'
S'Saigroup Dhanori'
tp1441
a(S'100002151135219'
S'Deepika Sharma'
tp1442
a(S'100004148194246'
S'Ajay Tarde'
tp1443
a(S'100001496606976'
S'Saee Kulkarni'
tp1444
a(S'100000236919462'
S'Raphaella Tratsk Lancini'
tp1445
a(S'100000513237932'
S'Satish Tingre'
tp1446
a(S'100001912476535'
S'Rahul Junawane'
tp1447
a(S'100003833103124'
S'Saurabh Satav'
tp1448
a(S'100005558955344'
S'Raj Tingare'
tp1449
a(S'100002386673507'
S'Tushar Kakde'
tp1450
a(S'100001557676401'
S'Tushar Pillay'
tp1451
a(S'100007586166867'
S'Akshay Umate'
tp1452
a(S'100001350773508'
S'Sachin Sonawane'
tp1453
a(S'100001351004911'
S'Ashish Kishor Naidu'
tp1454
a(S'100000968003598'
S'Dnyaneshwar Tingare'
tp1455
a(S'100002182239242'
S'Bhagyashree Deore'
tp1456
a(S'1841855843'
S'Mubarriz Mukadam'
tp1457
a(S'100001929040036'
S'Mahesh A Tapkir'
tp1458
a(S'100002522094032'
S'Priyanka Jadhav'
tp1459
a(S'100002630228814'
S'Sanaa Somji'
tp1460
a(S'100005355991044'
S'Hina Choudhary'
tp1461
a(S'100004699023250'
S'Pratap Tingre'
tp1462
a(S'100002431779013'
S'Vidhyadhar Bhandary'
tp1463
a(S'100003582583982'
S'Hemant Hazare'
tp1464
a(S'100001255108226'
S'Aditya Ghadge'
tp1465
a(S'100005734746315'
S'Mihir Modi'
tp1466
a(S'100006644202477'
S'Puja Bahirat'
tp1467
a(S'100003378278620'
S'Vishal Wabale-Patil'
tp1468
a(S'100002410481055'
S'Azhar Sayyed'
tp1469
a(S'100002595038052'
S'Vansshieka Jaadhav'
tp1470
a(S'1850542289'
S'Rakesh Walmiki'
tp1471
a(S'100000199101088'
S'Aman Bhatia'
tp1472
a(S'100002797872091'
S'Tejas Tingre'
tp1473
a(S'100002221118728'
p1474
S'Himani Tyagi'
tp1475
a(S'100007983241166'
S'Amit Giri'
tp1476
a(S'100006239496722'
S'\\u0906\\u092e\\u091a\\u0940 \\u0935\\u093f\\u0936\\u094d\\u0930\\u093e\\u0902\\u0924\\u0935\\u093e\\u0921\\u0940'
tp1477
a(S'100002497224117'
S'Sneha Sharma'
tp1478
a(S'100006409003505'
S'Rupali Kalingan-salgaonkar'
tp1479
a(S'100002352685873'
S'Bunty B Bibave'
tp1480
a(S'100002386023918'
S'Ashish Agarwal'
tp1481
a(S'100001261048165'
S'\\u00c5d\\u00ect\\u00ed Arora'
tp1482
a(S'100000726339731'
S'Pratik Bokil'
tp1483
a(S'100002851298412'
S'Gurjeet Kochhar'
tp1484
a(S'100001277628245'
S'Vijay Gorde'
tp1485
a(S'100008026393159'
S'Sunny Meliya'
tp1486
a(S'100002387961722'
S'Naseema Khan'
tp1487
a(S'100003532093153'
S'\\u0905\\u0915\\u094d\\u0937\\u092f-\\u0926\\u093f\\u092a\\u0942 \\u0917\\u092e\\u0947 \\u092a\\u093e\\u091f\\u0940\\u0932'
tp1488
a(S'100003607620499'
S'Pranav Kadam'
tp1489
a(S'100003183996208'
S'Ricky Pardeshi'
tp1490
a(S'100001170110840'
S'VaBhav OvhAl'
tp1491
a(S'100002125962488'
S'Harshad Kharat'
tp1492
a(S'100002323570817'
S'Aditya Lonkar'
tp1493
a(S'100002312267342'
S'Nithya Mammen'
tp1494
a(S'100001325378292'
S'Sanket Thorat'
tp1495
a(S'100002131888276'
S'Akash Lokhande'
tp1496
a(S'100004191666992'
S'Sujit Tingre'
tp1497
a(S'100004689154109'
S'Siddhesh Khandve'
tp1498
a(S'1057020787'
S'Kavit Surana'
tp1499
a(S'100005418249684'
S'Amit Bawari'
tp1500
a(S'100002088896069'
S'Sagar Lokhande'
tp1501
a(S'100001431493809'
S'Vivek Salunke'
tp1502
a(S'100001545338099'
S'Amit Shinde'
tp1503
a(S'100001862352800'
S'Tanishka Sinha'
tp1504
a(S'100006518959161'
S'Vikas Rasal'
tp1505
a(S'100002528545432'
S'Shubham Barathe'
tp1506
a(S'100001046285316'
S'Soham Gharge'
tp1507
a(S'100001887198805'
S'Amey Shewale Patil'
tp1508
a(S'100003564354115'
S'Akshay Gaikwad'
tp1509
a(S'100001535707010'
S'Sunil Tingre'
tp1510
a(S'100001467453254'
S'Edwin Varghese'
tp1511
a(S'100003376462658'
S'Namita Itkar'
tp1512
a(S'100007117268820'
S'Dhruv Jogiwala'
tp1513
a(S'100007872460255'
S'Pranav Bhosale'
tp1514
a(S'100003877180084'
S'Akshay Karande'
tp1515
a(S'100002777875385'
S'Shruti Patel'
tp1516
a(S'100002284028370'
S'\\u0938\\u093e\\u0917\\u0930 \\u092e\\u0926\\u0928\\u0947'
tp1517
a(S'100007198080010'
S'Dilip Lashkare'
tp1518
a(S'100002912417544'
S'Ashish Agarwal'
tp1519
a(S'100004640136932'
S'Pratik Tingre'
tp1520
a(S'100005461622086'
S'Ishika Sharma'
tp1521
a(S'100005886012787'
S'Hemant Hazare'
tp1522
a(S'100001025559536'
S'Vishal Dalvi'
tp1523
a(S'100002949369263'
S'Anirudh Katke'
tp1524
a(S'100003684615244'
S'Swapnil Karde'
tp1525
a(S'100001627862170'
S'Dhruv Patel'
tp1526
a(S'1383797153'
S'Sharad Sanghvi'
tp1527
a(S'100004149043463'
S'Alisha Deokar'
tp1528
a(S'100000762178960'
S'Aalok Shinde'
tp1529
a(S'100001674722878'
S'Asma Khan'
tp1530
a(S'100008261885446'
S'Rammuratmorya Morya'
tp1531
a(S'100003297197017'
S'Swapnil Gaikwad'
tp1532
a(S'100001076340192'
S'Deni Patel'
tp1533
a(S'100002679590832'
S'Somesh Biradar'
tp1534
a(S'100001750918304'
S'Tasleem Khan'
tp1535
a(S'100000096943543'
S'Kunal Waikar'
tp1536
a(S'100002419270893'
S'Aniket Patil'
tp1537
a(S'100007898468733'
S'Atharva Deshmukh'
tp1538
a(S'100005931524364'
S'Aditya Jagtap'
tp1539
a(S'100001867127732'
S"Vishal's Satav Patil"
tp1540
a(S'1789962403'
S'Shivanand SudamRao Landge'
tp1541
a(S'100003728105515'
S'Abhinav Uttekar'
tp1542
a(S'100007407664456'
S'Inamdar Inamdar'
tp1543
a(S'100006262269695'
S'Pratap Tingre'
tp1544
a(S'100007882292418'
S'Dinesh Kag'
tp1545
a(S'100002441863854'
S'Viraj Solanke'
tp1546
a(S'100001461352825'
S'Philip Desa'
tp1547
a(S'100001859864423'
S'Jyotsna Kamthe'
tp1548
a(S'100005948020145'
S'Akshada Patil'
tp1549
a(S'100000057933811'
S'Ajinkya Shah'
tp1550
a(S'100001996158524'
S'\\u00c7h\\u00eer\\u00e2g S\\u00e2t\\u00e4v P\\u00e1t\\u00eel'
tp1551
a(S'1247523647'
S'Denzil Fernandes'
tp1552
a(S'100004922886129'
S'Pallavi Deshmukh'
tp1553
a(S'100001366653777'
S'SouRabh Awhale'
tp1554
a(S'100003864442462'
S'Jeet Thakur'
tp1555
a(S'100002690963942'
S'Adv Atul Parande'
tp1556
a(S'100002274540623'
S'Anuj Agarwal'
tp1557
a(S'100004004572124'
S'Harshvardhan Dada Deokar Patil'
tp1558
a(S'100001593669286'
S'Pravin Khot'
tp1559
a(S'100003208665175'
S'Exoticachocolates Pune'
tp1560
a(S'100002718577939'
S'Mayur Tingre'
tp1561
a(S'100005549831664'
S'Shivam Agarwal'
tp1562
a(S'100002652366653'
S'Mangesh Dhore'
tp1563
a(S'100002620864599'
S'Ajay Sawant'
tp1564
a(S'644441439'
S'Sumayya Al'
tp1565
a(S'100005077443961'
S'Ganesh Jadhav'
tp1566
a(S'100001829893763'
S'Shayaan Sheriff'
tp1567
a(S'100004804239725'
S'Ravindra Malvadkar'
tp1568
a(S'100003912051002'
S'Hanuman Bajal'
tp1569
a(S'100000876234136'
S'Sagar Mhaske'
tp1570
a(S'100004925799203'
S'Sanket Shinde'
tp1571
a(S'100003506066781'
S'Bhushan Parande'
tp1572
a(S'100001690438593'
S'Apurva Borkhade'
tp1573
a(S'100000302139330'
S'Yash Madikunt'
tp1574
a(S'100001635554520'
S'Bhanudas Suryawanshi Patil'
tp1575
a(S'100004669062370'
S'Anil Kapse'
tp1576
a(S'100003098059810'
S'Shashi Anna Tingre'
tp1577
a(S'100008106816016'
S'Puja Bahirat Patil'
tp1578
a(S'100001927370114'
S'Puja Harpale'
tp1579
a(S'100008056681581'
S'Swapnil Shedage'
tp1580
a(S'100002429748767'
S'Omkar Agureddy'
tp1581
a(S'100006336156086'
S'Aniket Salunke'
tp1582
a(S'100001753583358'
S'TeJas Sable'
tp1583
a(S'100002090307731'
S'Shree Snakefriend'
tp1584
a(S'100001039237298'
S'Arsalan Patni'
tp1585
a(S'100001782929019'
S'Vipul Tingre'
tp1586
a(S'100007787647939'
S'Pramod Memane'
tp1587
a(S'100001723704158'
S'Rushabh Ingale'
tp1588
a(S'100004446251661'
S'Gurunath Birajdar'
tp1589
a(S'100003888217812'
S'Amar Andil'
tp1590
a(S'100004247792988'
S'Siddharth Tarkase'
tp1591
a(S'100004921237114'
S'Swapnilraje Tingre'
tp1592
a(S'100001536892475'
S'Shekhar Phadale'
tp1593
a(S'100004743516034'
S'Rupesh Tingre Patil'
tp1594
a(S'100006756994891'
S'Hrushikesh Nikam'
tp1595
a(S'100001417557958'
S'Kedar Malwadkar'
tp1596
a(S'100006113923696'
S'Uday Choudhary'
tp1597
a(S'100001409007238'
S'Sangram Gaikwad'
tp1598
a(S'100001639397953'
S'Dhiraj Chaudhari'
tp1599
a(S'100001757465632'
S'Ankush Gaikwad'
tp1600
a(S'100005274974338'
S'AjitDada Pawar YuthFoundation Maharashtra'
tp1601
a(S'100001109549024'
S'Ajay Joshi'
tp1602
a(S'100001054937542'
S'Neal Pol'
tp1603
a(S'100006507304967'
S'Sanket Jadhav'
tp1604
a(S'100003909736883'
S'Sachin Pawar'
tp1605
a(S'100000489170933'
S'Sandeep Kakade'
tp1606
a(S'100001882884334'
S'Shefali Verma'
tp1607
a(S'100003296480736'
S'Rushika Dalal'
tp1608
a(S'100002563658740'
S'Shubham Gaikwad'
tp1609
a(S'100003645473238'
S'Desi Kuri Kuri'
tp1610
a(S'100002516741322'
S'Amol Surse'
tp1611
a(S'100001860218125'
S'Anushka Kapoor'
tp1612
a(S'100001519305106'
S'Shrikant Hendre'
tp1613
a(S'100005923691533'
S'Gauri Bhosale'
tp1614
a(S'100001368729336'
S'Sunny Lande'
tp1615
a(S'100000953506388'
S'Pravin Ubale'
tp1616
a(S'100001050286931'
S'Somnath Shendkar'
tp1617
asS'id'
p1618
S'100001852596465'
p1619
sS'name'
p1620
S'Sanket Tingre'
p1621
s.