(dp1
S'name'
p2
S'M\\u01fb\\u0157\\u0131\\u00e0m M\\u0169\\u011f\\u0127\\u00e1\\u013c M\\u01fbghr\\u00f4\\u00f8r L\\u00e5i\\u013c\\u00e5'
p3
sS'current_class'
p4
S'japan'
p5
sS'home_class'
p6
Vshinjuku, tokyo, japan
p7
sS'home_text'
p8
VShinjuku-ku, Tokyo, Japan\u000aHometown
p9
sS'current_link'
p10
Vhttps://www.facebook.com/l.php?u=https%3A%2F%2Fwww.bing.com%2Fmaps%2Fdefault.aspx%3Fv%3D2%26pc%3DFACEBK%26mid%3D8100%26where1%3D34.999999964122%252C%2B135.74981689453%26name%3DKyoto%252C%2BJapan%26mkt%3Den-IN&h=HAQHkLeOx&s=1
p11
sS'home_link'
p12
Vhttps://www.facebook.com/l.php?u=https%3A%2F%2Fwww.bing.com%2Fmaps%2Fdefault.aspx%3Fv%3D2%26pc%3DFACEBK%26mid%3D8100%26where1%3D35.690600568517%252C%2B139.70489501953%26name%3DShinjuku-ku%252C%2BTokyo%252C%2BJapan%26mkt%3Den-IN&h=3AQF2uSAv&s=1
p13
sS'current_text'
p14
VKyoto, Japan\u000aCurrent City
p15
sS'friends'
p16
(lp17
sS'id'
p18
S'100006365344894'
p19
s.