(dp1
S'friends'
p2
(lp3
(S'100006078367213'
S'Manoj Mishra'
tp4
a(S'100008392237946'
S'Shishupal Indouliya'
tp5
a(S'100007005131283'
S'Santosh Pawar'
tp6
a(S'100008378520963'
S'Birendra Pandey'
tp7
a(S'100006597039354'
S'Rakesh Kumar Singh'
tp8
a(S'100004745912732'
S'Govind Sharma'
tp9
a(S'100006056509303'
S'Naim Khan'
tp10
a(S'100006463696818'
S'Sony Sharma'
tp11
a(S'100003744907464'
S'Dinesh Gupta'
tp12
a(S'100002975868058'
S'Preeti Vishnoi'
tp13
a(S'100001037502095'
S'Akhilesh Singh'
tp14
asS'id'
p15
S'100002975868058'
p16
sS'name'
p17
S'Preeti Vishnoi'
p18
s.