(dp1
S'friends'
p2
(lp3
(S'100002172888004'
S'Eng Rasool Arfan'
tp4
a(S'100003657815251'
S'Younas Mangal'
tp5
a(S'100003548076221'
S'Hassan Yar Mangal'
tp6
a(S'1667472844'
S'Mohammad Yaqoub Nakhtery'
tp7
a(S'1745965493'
S'Laghman Sharef Sesada'
tp8
a(S'100000611047827'
S'Samoon Afghan'
tp9
a(S'100003735391832'
S'Ashraf Khosti'
tp10
a(S'100001864172261'
S'Paktiawal Sahib'
tp11
a(S'100002645730791'
S'Sarter Mangal'
tp12
a(S'100000038223680'
S'Zahid Akhter'
tp13
a(S'100004026105441'
S'Said Amamodin Chamkani'
tp14
a(S'100004128482738'
S'Nadirshah Totakhil'
tp15
a(S'100001983184295'
S'\\u0633\\u06cc\\u062f\\u0627\\u062d\\u0645\\u062f \\u0647\\u0645\\u062a'
tp16
a(S'100006434793672'
S'\\u0639\\u0627\\u0637\\u06cc\\u0641\\u0647 \\u0648\\u0641\\u0627'
tp17
a(S'100000862482602'
S'Gul Andish'
tp18
a(S'100004275096285'
S'\\u0641\\u0631\\u06cc\\u0634\\u062a\\u0647 \\u0633\\u0639\\u0627\\u062f\\u062a'
tp19
a(S'100004014512705'
p20
S'\\u067e\\u06a9\\u062a\\u06d0\\u0627 \\u0681\\u0648\\u0627\\u0646\\u0627\\u0646'
tp21
a(S'100002629797797'
S'Badshah Mir Salik'
tp22
a(S'100004027371755'
S'\\u069a\\u0627\\u06cc\\u0633\\u062a\\u0647 \\u062c\\u0627\\u0646 \\u0627\\u062d\\u062f\\u064a'
tp23
a(S'100005098743727'
S'\\u062f\\u067e\\u06a9\\u062a\\u06cc\\u0627 \\u0648\\u0644\\u0627\\u06cc\\u062a \\u0648\\u0644\\u0627\\u06cc\\u062a\\u06cc \\u0634\\u0648\\u0631\\u0627\\u06cc'
tp24
a(S'100001137347933'
S'\\u0633\\u0627\\u062c\\u062f \\u067e\\u06a9\\u062a\\u06cc\\u0627\\u0648\\u0627\\u0644'
tp25
a(S'100002734993533'
S'Abdul Wali Paktin'
tp26
a(S'100004069820336'
p27
S'Sharif Mangal'
tp28
a(S'647809333'
S'Abdul Wali Zazai'
tp29
a(S'100003655989520'
p30
S'Abdul Hanan Haqwayoon'
tp31
a(S'100004787497107'
S'Malak Mangal'
tp32
a(S'100002023248244'
p33
S'Abdul Satar Mirzakwal'
tp34
a(S'100004461273387'
S'Mohammad Khan Alham Alham'
tp35
a(S'100005910133956'
S'Farid Mangal'
tp36
a(S'1300917649'
S'Rafiullah Stanikzai'
tp37
a(S'100003543732974'
p38
S'Akbar Baheer Mangal'
tp39
a(S'100000284382756'
S'Amirzada Ahmadzai'
tp40
a(S'100002798879023'
S'Abdulghafar Sadiqi'
tp41
a(S'100001243542543'
S'Taj Mohammad Mangal'
tp42
a(S'100006280681305'
S'Ahsanullah Miakhil'
tp43
a(S'100000764002038'
S'Talib Mangal'
tp44
a(S'100003577966610'
S'Muhammad Shafeeq Mukhlis'
tp45
a(S'100001728835298'
S'\\u0698\\u0645\\u0646 \\u0645\\u06cc\\u0631\\u0632\\u06a9\\u0648\\u0627\\u0644'
tp46
a(S'100006406774564'
S'\\u062f\\u0644\\u0648\\u06cc \\u067e\\u06a9\\u062a\\u06cc\\u0627 \\u0645\\u0646\\u06af\\u0644'
tp47
a(S'100000504892239'
S'\\u0645\\u062d\\u0645\\u0648\\u062f \\u0633\\u0639\\u06cc\\u062f'
tp48
a(S'1429362948'
S'Hurmat Ullah'
tp49
a(S'100005847303452'
S'Safar Mohammad'
tp50
a(S'100005438499137'
p51
S'Mohammadrasool Mangal'
tp52
a(S'100000553666011'
S'Bakhtyar Khan'
tp53
a(S'563779463'
S'Matiullah Abid'
tp54
a(S'100001981337655'
S'\\u0639\\u0632\\u062a \\u06ab\\u0644 \\u0686\\u0634\\u062a\\u064a'
tp55
a(S'100002116853012'
S'Daud Zaland Mangal'
tp56
a(S'100002319563163'
S'Ahsanullah Mangal'
tp57
a(S'100004061004813'
S'Paktia Olas'
tp58
a(S'100004923158174'
S'Zulfiqar Ahmad Mubarez'
tp59
a(S'100003904297958'
S'\\u062e\\u0627\\u0644\\u062f\\u0647 \\u067e\\u0648\\u067e\\u0644\\u0632\\u06cc'
tp60
a(S'100007520923791'
S'Mirajudin Mangal'
tp61
a(S'100005715971515'
S'\\u0627\\u0633\\u0644\\u0627\\u0645 \\u0645\\u062d\\u0645\\u062f \\u0646\\u0647\\u0636\\u062a'
tp62
a(S'100004258451476'
S'Abdurashid Zahid'
tp63
a(S'100007082712175'
S'Hamayoon Hamat Mangal'
tp64
a(S'100007298436618'
S'Maryam Wafa'
tp65
a(S'100003356168231'
p66
S'Muhammad Shafiq Bawari Mangal'
tp67
a(S'100002183507376'
S'\\u0632\\u0631\\u063a\\u0648\\u0646\\u0647 \\u062e\\u0627\\u0646\\u0647'
tp68
a(S'100002085311776'
S'Mena Mangal'
tp69
a(S'100003661411033'
S'Sharafyar Mangal'
tp70
a(S'100004288143966'
p71
S'Muhammad Gul Musafer Mangal'
tp72
a(S'100000184183062'
S'Waris Himat'
tp73
a(S'100004400735855'
S'Mohamammad Qayom Mangal'
tp74
a(S'100006919265575'
S'\\u062f\\u0645\\u0646\\u06ab\\u0644\\u0648\\u06cc\\u0648\\u0648\\u0627\\u0644\\u064a\\u060c \\u0639\\u0644\\u0645\\u064a \\u0627\\u0648\\u06a9\\u0644\\u062a\\u0648\\u0631\\u064a \\u0634\\u0648\\u0631\\u0627'
tp75
a(S'1830894994'
S'Ezatullah Adib'
tp76
a(S'100003567154087'
p77
S'Momtaz Karkhel'
tp78
a(S'100005463901930'
S"Hero's OfMangal"
tp79
a(S'100006580573258'
S'\\u062c\\u0645\\u06cc\\u0644\\u0647 \\u06ab\\u0631\\u062f\\u06cc\\u0632\\u06cc'
tp80
a(S'1672908028'
p81
S'Bilal Mangal'
tp82
a(S'100002050290860'
S'Kamal Naser Osuli'
tp83
a(S'100001366729645'
S'Sangeen Zahidyar'
tp84
a(S'100001885493486'
S'Ihsanullah Mahjoor'
tp85
a(S'100000400955927'
S'Naqibullah Mangal'
tp86
a(S'100001000762814'
S'Moqeem Nyazi'
tp87
a(S'100001605317825'
S'Sahil Mangal'
tp88
a(S'100003575059140'
S'Qari Nasim'
tp89
a(S'100004085972349'
p90
S'Sharifullah Mutmaeen'
tp91
a(S'100000712025333'
S'Hazrat Khan Mangal'
tp92
asS'id'
p93
S'100001752374231'
p94
sS'name'
p95
S'Saeed Rahman'
p96
s.