(dp1
S'name'
p2
S'Adnan Ajmal'
p3
sS'current_class'
p4
S'pakistan'
p5
sS'home_class'
p6
Vkarachi, pakistan
p7
sS'home_text'
p8
VKarachi, Pakistan\u000aHometown
p9
sS'current_link'
p10
Vhttps://www.facebook.com/l.php?u=https%3A%2F%2Fwww.bing.com%2Fmaps%2Fdefault.aspx%3Fv%3D2%26pc%3DFACEBK%26mid%3D8100%26where1%3D31.549700669186%252C%2B74.343109130859%26name%3DLahore%252C%2BPakistan%26mkt%3Den-IN&h=oAQHkbS3i&s=1
p11
sS'home_link'
p12
Vhttps://www.facebook.com/l.php?u=https%3A%2F%2Fwww.bing.com%2Fmaps%2Fdefault.aspx%3Fv%3D2%26pc%3DFACEBK%26mid%3D8100%26where1%3D24.859999933159%252C%2B67.009735107422%26name%3DKarachi%252C%2BPakistan%26mkt%3Den-IN&h=qAQH1Cyv0&s=1
p13
sS'current_text'
p14
VLahore, Pakistan\u000aCurrent City
p15
sS'friends'
p16
(lp17
sS'id'
p18
S'100007563161927'
p19
s.