(dp1
S'friends'
p2
(lp3
(S'100003811597962'
S'Pratap Fauzdar'
tp4
a(S'100006453800609'
S'Gurudas Dasgupta'
tp5
a(S'100006488326462'
S'Harish Setia'
tp6
a(S'100002353825073'
S'Rajnish Ravi'
tp7
a(S'100000794877949'
S'Sadguru Prakash Tiwari'
tp8
a(S'100005121757722'
S'Ravinder Kumar'
tp9
a(S'1402675142'
S'Om Prakash Jha'
tp10
a(S'100000904230838'
S'Sham Arora'
tp11
a(S'100002330373563'
S'Joginder Dawar'
tp12
a(S'100000584114968'
S'Arun Maheshwari'
tp13
a(S'100005655121078'
S'Sujeet Lal'
tp14
a(S'100000550195510'
S'Archit Anand'
tp15
a(S'100001025082403'
p16
S'\\u092a\\u094d\\u0930\\u0940\\u0924\\u093f \\u0938\\u0941\\u0930\\u093e\\u0928\\u093e'
tp17
a(S'100003044945764'
S'Jitendra Kumar Khanna-Journalist'
tp18
a(S'100002996875806'
S'Manava Adhikar Darpan'
tp19
a(S'100002161603317'
S'Manoj Manas'
tp20
a(S'100002252144780'
S'Satya Soni'
tp21
a(S'100003846819926'
S'Indrajeet Prasad'
tp22
a(S'100002495480625'
S'Paras Madaan'
tp23
a(S'100003698367997'
S'Kavi Sudeep Bhola'
tp24
a(S'100006124441681'
S'Sanjay Jain'
tp25
a(S'100006381189141'
S'Suvesh Yadav'
tp26
a(S'100000832695466'
S'Kumar Atul'
tp27
a(S'100005106213144'
S'Udaiveer Mitharwal'
tp28
a(S'100001188721342'
S'Santbetra Ashoka'
tp29
a(S'100001751783023'
S'\\u0921\\u0949.\\u0927\\u0928\\u091e\\u094d\\u091c\\u092f \\u0938\\u093f\\u0902\\u0939'
tp30
a(S'100002803840805'
S'Virendra Ahuja'
tp31
a(S'1672325522'
S'Aalok Shrivastav'
tp32
a(S'100006491408043'
S'\\u090f\\u0915 \\u0939\\u093f\\u0928\\u094d\\u0926\\u0941\\u0938\\u094d\\u0925\\u093e\\u0928\\u093f'
tp33
a(S'100002659706205'
S'Devendra Bansal'
tp34
a(S'100005686151607'
p35
S'Anup Ojha'
tp36
a(S'535454843'
p37
S'Avinash Chandra'
tp38
a(S'100006528884246'
S'Ve Ra'
tp39
a(S'554032625'
S'Cartoonist Irfan'
tp40
a(S'100002442845111'
S'Durgesh Nagi'
tp41
a(S'100002324256207'
S'Dixit Dankauri'
tp42
a(S'100000545795838'
S'Kishor Srivastava'
tp43
a(S'100004647463015'
S'Pawan Kumar'
tp44
a(S'100006456637981'
S'Poonam Garg'
tp45
a(S'100003326125837'
S'Pawan Arora'
tp46
a(S'100006428439617'
S'Paras Bani'
tp47
a(S'100001728396867'
S'Parminder Pyasa'
tp48
a(S'100003134013437'
S'Suhas Tipnis'
tp49
a(S'100002258715000'
S'Rohit G Rusia'
tp50
a(S'100002281628574'
S'Aarti Tiwari'
tp51
a(S'1128100877'
S'\\u0905\\u0924\\u0941\\u0932 \\u0938\\u0924\\u0940 \\u0905\\u0915\\u094d\\u0938'
tp52
a(S'100006077461789'
S'Ashok Kamboj'
tp53
a(S'1242723467'
S'Prem Shukla'
tp54
a(S'100002257343286'
S'Harpreet Singh'
tp55
a(S'100003734649315'
S'Kajal Sinha'
tp56
a(S'100004159090935'
S'Upendra Singh'
tp57
a(S'100005955042697'
S'Indrajeet Singh Chhabra'
tp58
a(S'1775142107'
S'\\u0938\\u0941\\u0930\\u0947\\u0936 \\u091a\\u094c\\u0927\\u0930\\u0940'
tp59
a(S'100006418775517'
S'Priyanka Tiwari'
tp60
a(S'100000797037122'
S'Mallika Bhattacharya'
tp61
a(S'100000606526693'
S'Vikram Singh Bhadoriya'
tp62
a(S'100004753628989'
S'Neeraj Nirwal'
tp63
a(S'100002170960920'
S'Shere Mewat House'
tp64
a(S'100004707877635'
S'\\u0921\\u0949. \\u0935\\u0947\\u0926 \\u092a\\u094d\\u0930\\u0924\\u093e\\u092a \\u0935\\u0948\\u0926\\u093f\\u0915'
tp65
a(S'100005237560317'
S'Madhu Chaturvedi'
tp66
a(S'100004088911719'
S'Darshanbhalla Bhalla'
tp67
a(S'100003632513420'
S'Arun Goyal'
tp68
a(S'100005359413320'
S'Dev Bharti Geetkar'
tp69
a(S'1504605687'
S'Abhishek Mehrotra'
tp70
a(S'100002714672224'
S'Alpana Kanpurthird'
tp71
a(S'100001366522399'
S'Mohammed Tarique'
tp72
a(S'100002046970890'
S'Janhit Munch'
tp73
a(S'100001413387426'
S'Vm Bechain'
tp74
a(S'100001610340189'
S'Amrendra Artist'
tp75
a(S'100005169819948'
S'Pardeep Kumar Tandon'
tp76
a(S'100000923760921'
S'Rakesh Arya'
tp77
a(S'100002205555981'
S'Giriraj Kishore'
tp78
a(S'100004519093127'
S'Girish Pande'
tp79
a(S'100002375674225'
p80
S'Kavi Deepak Pareek'
tp81
a(S'100004759724111'
S'Charan Pal Gupta'
tp82
a(S'100006115063616'
S'Kumud Ranjan Pandey'
tp83
a(S'100005455050367'
S'Rakesh Sinha'
tp84
a(S'647935518'
S'Pravin Sharma'
tp85
a(S'100000874444893'
S'Gaurav Sharma'
tp86
a(S'100005083115627'
S'Achala Nagar'
tp87
a(S'100001034899999'
p88
S'Kheya Chakraborti'
tp89
a(S'100000498062375'
S'Manoj K Nagpal'
tp90
a(S'100006458356998'
S'Jitendra Kumar'
tp91
a(S'100004183150177'
S'Joginder Singh Joginder Singh'
tp92
a(S'100003318601112'
S'Usha Yadav Usha'
tp93
a(S'100001745814776'
S'Udaya Veer Singh'
tp94
a(S'100003808462244'
S'DrSarojini Tanhaa'
tp95
a(S'1548377489'
S'Mohinder Raj'
tp96
a(S'1350822074'
S'\\u090f\\u0915 \\u092d\\u093e\\u0930\\u0924\\u0940\\u092f'
tp97
a(S'100002725450283'
S'Deepti Shree Pathak'
tp98
a(S'100000148660190'
S'Vk Sharma'
tp99
a(S'1643028913'
S'Lioness Sushil Bansal Sheel'
tp100
a(S'100004967970909'
S'Anshu Singh'
tp101
a(S'100003031710982'
S'Om Saraf'
tp102
a(S'100002393217961'
S'Ansar Qumbri'
tp103
a(S'100006211243988'
S'Dhiraj Kumar'
tp104
a(S'100006482076599'
S'Govtboys Jbdfzk'
tp105
a(S'100006827741511'
S'Alok Joshi'
tp106
a(S'791854913'
S'Ghanshyam Dass'
tp107
asS'id'
p108
S'100001169648769'
p109
sS'name'
p110
S'Joginder Singh'
p111
s.