(dp1
S'friends'
p2
(lp3
(S'100001366969889'
S'Soroosh Hamid'
tp4
a(S'1695712808'
S'Abdul Manan'
tp5
a(S'1013173108'
S'Ahmad Zia Saraj'
tp6
a(S'1316752985'
S'Loris Bolla'
tp7
a(S'630792030'
S'Ritwik Patjoshi'
tp8
a(S'1815177790'
S'Akbar Khan Ahmadzai'
tp9
a(S'673182213'
S'Colette Sherlock MacDonald'
tp10
a(S'810500138'
S'Rashmi Chakravorty'
tp11
a(S'100001583839302'
S'Najeebullah Zazai'
tp12
a(S'1165590146'
S"Nyodominggikmanok P'Ocol"
tp13
a(S'1198451375'
S'Jacob Admiraal'
tp14
a(S'100003338077103'
S'Taeho  Kwon'
tp15
a(S'100001832821941'
S'Pritam Regmi'
tp16
a(S'708126146'
S'Laura Doran'
tp17
a(S'100003780251436'
S'Sadullah Mohmand'
tp18
a(S'100000319930767'
S'Mohtashim Chy'
tp19
a(S'100001824651139'
S'Mina Amani'
tp20
a(S'100001026214525'
S'Diyana Sadat'
tp21
a(S'100003663739172'
S'Ghulamrabani Sediqi'
tp22
a(S'100000590396873'
S'Naoki Abe'
tp23
a(S'1547606154'
S'Abdullah Altoom'
tp24
a(S'596265912'
S'Jay Nelles'
tp25
a(S'100002654134524'
S'Mohammad Nawaz Baz Noorgali'
tp26
a(S'100005689179695'
S'Khalid Kheshkai'
tp27
a(S'100001505872745'
S'Musabbeh Alkaabi'
tp28
a(S'600703237'
S'Simon Bradley'
tp29
a(S'1828400545'
S'Michael Labsch'
tp30
a(S'100000695461420'
S'Zikrullah Mahmoodi'
tp31
a(S'100001049797700'
S'Pardis Haidary'
tp32
a(S'627402132'
S'Lischynskyi Andriy'
tp33
a(S'100000824090159'
S'Qais Mangal'
tp34
a(S'100002168087777'
S'Jameel Jameel'
tp35
a(S'100002996748352'
S'Feroz Khan Ashna Zazai'
tp36
a(S'650932551'
S'Sameer Negi'
tp37
a(S'1188314670'
S'Sumit Bickram Rana'
tp38
a(S'629421165'
S'Barry Doig'
tp39
a(S'100000079437284'
S'Tsutomu Nemoto'
tp40
a(S'100003667090773'
S'Eagle Faqirzoi'
tp41
a(S'100001603627677'
S'Anf Fanaa Zazai'
tp42
a(S'100002923743204'
S'Aman Mangal'
tp43
a(S'100000954593704'
S'Malik Hemat'
tp44
a(S'100005162682979'
S'Nadir Ruzzon'
tp45
a(S'100004631954178'
S'\\u0639\\u0631\\u0628 \\u0642\\u0631\\u06cc\\u0634\\u06cc'
tp46
a(S'1005733893'
S'Anders Jessing'
tp47
a(S'100001080518722'
S'Dhina Nurbaya'
tp48
a(S'100003003973546'
S'\\u0631\\u0641\\u06cc\\u0642 \\u0627\\u0641\\u063a\\u0627\\u0646\\u06cc'
tp49
a(S'100000380674080'
S'Ahmad Ferooz Sakhizada'
tp50
a(S'1328298652'
S'Raivis Melnis'
tp51
a(S'100002094202881'
S'\\u063a\\u0631\\u0685\\u0627\\u0646\\u06cd \\u063a\\u0631\\u0627\\u0646\\u06cd'
tp52
a(S'1657428402'
S'Forster Okae-Yeboah'
tp53
a(S'100001223470666'
S'Mansoor Sayar'
tp54
a(S'1675400261'
S'Ernad Ferhatbegovic'
tp55
a(S'100000720783950'
S'Gulrahman Afzali'
tp56
a(S'100004974272720'
S'Maryam Arab'
tp57
a(S'1204317145'
S'Paulo Mu\\u00f1oz'
tp58
a(S'100002031344567'
S'Naqib Mirzada'
tp59
a(S'100002085311776'
S'Mena Mangal'
tp60
a(S'100001785483773'
S'Ouldnema Mohamed'
tp61
a(S'100000087593474'
S'James Gale'
tp62
a(S'852900440'
S'Jay Harwood'
tp63
a(S'100001842787793'
S'Hela Nazo'
tp64
a(S'100003852951349'
S'Meng Wang'
tp65
a(S'100004160680326'
S'Qayam Mohmmaie'
tp66
a(S'601825'
S'Joshua Yap'
tp67
a(S'100000588401414'
S'Atrafi Zwan'
tp68
a(S'711519548'
S'Merlijn Heiligers'
tp69
a(S'100002010221964'
S'Tamana Amini'
tp70
a(S'1580405770'
S'Ajmal Gharwal'
tp71
a(S'100003833887682'
S'R\\u00e1hm\\u00e1t\\u00fall\\u00e4h Z\\u00e1z\\u00e1i'
tp72
a(S'100002203052818'
S'Dawood Zazai'
tp73
a(S'1520293343'
S'Abubakar Usman Yahaya'
tp74
a(S'100008236459394'
S'Noormohammad Khaliqi'
tp75
a(S'100003296670130'
S'Sultan Aziz Zazai'
tp76
a(S'100001303741096'
S'Rashid Albloshi'
tp77
a(S'100007655045218'
S'Dineez Zazai'
tp78
a(S'100000666272994'
S'Alfa Siera'
tp79
a(S'100006548281852'
S'Qudus Mangal'
tp80
a(S'100003500996664'
S'Zubair Anzary'
tp81
a(S'100001537290337'
S'Farzan Adel'
tp82
a(S'1832761377'
S'Shakib Mohamayee'
tp83
asS'id'
p84
S'100000773575526'
p85
sS'name'
p86
S'Mohammad Yousuf'
p87
s.