(dp1
S'friends'
p2
(lp3
(S'100006327755978'
S'Gunjan Kaushal'
tp4
a(S'100006647525667'
S'Pooja Suri'
tp5
a(S'100004017376845'
S'Geeta Nall'
tp6
a(S'681567272'
S'Nishant Dhalla'
tp7
a(S'100003387153664'
S'Shishir Kaushal'
tp8
a(S'100005811637062'
S'Anmol Suri'
tp9
a(S'100004433290903'
S'Shailly Garg'
tp10
a(S'100001190428222'
S'Vipin Luthra'
tp11
a(S'1376463273'
S'Amit Kaushal'
tp12
a(S'100005500783400'
S'Surinder Verma'
tp13
a(S'100003492025628'
S'Rashmi Gupta'
tp14
a(S'100002188813123'
S'Rajeev Sehdev'
tp15
a(S'100005842329805'
S'Vikky Vikky'
tp16
a(S'100008121277647'
S'Anju Babbar'
tp17
a(S'100004067795087'
S'Richa Alok Nalwa'
tp18
a(S'1100896893'
S'Sanjeev Babbar'
tp19
a(S'1050667960'
S'Pradeep Kaushal'
tp20
a(S'100002631747113'
S'Rakib Mahmud'
tp21
a(S'100002586320419'
S'Dips Luthra'
tp22
a(S'100007555450886'
S'Prateek Babbar'
tp23
a(S'100001218956257'
S'Rajat Babbar'
tp24
a(S'1042247708'
S'Deepika Kathuria Babbar'
tp25
a(S'100006380891433'
S'Jai Sachidanand JI Jind'
tp26
a(S'100003571232176'
S'Aalok Nalwa'
tp27
a(S'100001406826295'
S'Priyanka Kapoor'
tp28
a(S'100001698637757'
S'Megha Kapoor'
tp29
a(S'100007660812736'
S'Sunil Joshi'
tp30
a(S'100001709674374'
S'Vijay Kaushal'
tp31
a(S'100007867901928'
S'Pooja Singhal'
tp32
a(S'100001808509174'
S'Heena Suri'
tp33
a(S'100007858410985'
S'Priyanka Dhalla'
tp34
a(S'100006519973364'
S'Sb Chauhan'
tp35
a(S'100004315452599'
S'Gunjan Dhalla'
tp36
a(S'100006457102371'
S'Ssdn Jai Sacidanand'
tp37
a(S'100004131519800'
S'Priya Kaushal'
tp38
a(S'100003665137774'
S'Aalok Nalwa'
tp39
a(S'100002282493926'
S'Fakhruddin Saifi'
tp40
a(S'100004703822113'
S'Sunita Kaushal'
tp41
asS'id'
p42
S'100007548584212'
p43
sS'name'
p44
S'Vikas Suri'
p45
s.