(dp1
S'friends'
p2
(lp3
(S'100002429799928'
S'Jez Angeles'
tp4
a(S'100001164202165'
S'NJ Beltran Lorimla'
tp5
a(S'100002402508008'
S'Keneth Capellan'
tp6
a(S'100001902825918'
S'Harmanpreet Singh Harry'
tp7
a(S'100001901610550'
S'Evelyn Pusta'
tp8
a(S'100001826476303'
S'Janine Lim'
tp9
a(S'100000133387521'
S'Anand Alvaro Negredo Ghoshal'
tp10
a(S'100002881960754'
S'Riza Soliva Plaza'
tp11
a(S'100002772105971'
S'Aditya Kashyap'
tp12
a(S'100002329191135'
S'Cristina Malazarte Besin'
tp13
a(S'100001561984589'
S'Praveen Anand'
tp14
a(S'100002635653364'
S'Karan Khetwani'
tp15
a(S'100002573887850'
S'Nitin Tanwar'
tp16
a(S'100002631521388'
S'Obena Carlo'
tp17
a(S'100000844949016'
S'Sonu Pradhan'
tp18
a(S'100000087417828'
p19
S'Mayank Makhija'
tp20
a(S'1819119569'
S'Dufuture Trunks'
tp21
a(S'100000439998986'
S'Rj Flaviano'
tp22
a(S'100000116449983'
S'Gwen Faller'
tp23
a(S'100003097738938'
S'Xiang Qin'
tp24
a(S'100001976832893'
S'Cyrene Gonzales Cailing'
tp25
a(S'100002340060244'
S'Anna Hazara'
tp26
a(S'100002150804525'
S'Accuhh Xie Noelskie Maravilla'
tp27
a(S'1486363036'
S'Prashant Kamra'
tp28
a(S'100002678512265'
S'Narender Tomar'
tp29
a(S'100000524671821'
S'Jake Yam Cuu'
tp30
a(S'100002403832483'
S'Rexjin Jama-ani'
tp31
a(S'100002294157455'
S'Fatima Chua Papillares'
tp32
a(S'100002065054078'
S'Marvin Napiza'
tp33
a(S'100002607488379'
S'AiiLubbyuu DhEii'
tp34
a(S'1789030470'
S'Vibhor Tyagi'
tp35
a(S'100001043023488'
S'Anubhav Tomar'
tp36
a(S'100001489868692'
S'Rose Corvera Orjalesa'
tp37
a(S'100000820326458'
S'Riz Gohan'
tp38
a(S'100002744412343'
S'Nikhil Duseja'
tp39
a(S'100002284934881'
S'Edemkrumper Calinog'
tp40
a(S'821164741'
S'Sahl A Shaikh'
tp41
a(S'100002836629024'
S'Deepa Dia'
tp42
a(S'100002948055037'
S'Marryrose Rabadon'
tp43
a(S'100001858735893'
S'Loko Baba'
tp44
a(S'100001174643292'
S'Harshit Sethi'
tp45
a(S'100002172877221'
S'Geneva Mellijor Germino'
tp46
a(S'100001606074776'
S'Farah Salgado'
tp47
a(S'100001693575078'
S'Tressa Mae Adobas'
tp48
a(S'100001880749689'
S'Einnehs Enna Coddy Hidalgo'
tp49
a(S'100001842204997'
S'Woogem Gomez'
tp50
a(S'100000550090586'
S'Jasmine Jessa Marazzi'
tp51
a(S'100002899248513'
p52
S'Little Shaitan Bcha Harsh'
tp53
a(S'100002385931552'
S'Portgas D. Ace'
tp54
a(S'100000618180356'
p55
S'Rohit Gautam'
tp56
a(S'100002283840403'
S'Vea Anngela Legaspi'
tp57
a(S'100002547818127'
S'Kanishka Kumari'
tp58
a(S'100002913171768'
S'Yna Eddessa Patalinghug Zerna'
tp59
a(S'100001695395757'
S'Angelbeth Espina Torrevillas Supas'
tp60
a(S'100002479866357'
S'Joy Cabunillas'
tp61
a(S'100001277598018'
S'Lov\\u00e9ly Clav\\u00e9 Ganad\\u00e9'
tp62
a(S'100000039646708'
S'Earlene Tan'
tp63
a(S'100000205572869'
S'Jozyl Argana'
tp64
a(S'100002186061193'
p65
S'Anuj Pamnani'
tp66
a(S'1121738118'
S'Tarandeep Singh Bansal'
tp67
a(S'100000664271650'
S'Sushant Pandey'
tp68
a(S'100003025161824'
S'Carl Adrian Ramonida'
tp69
a(S'100003138451764'
S'JB Torres'
tp70
a(S'100001862301229'
S'Roldan Licame Amogues Jr.'
tp71
a(S'100002929422977'
S'Raj Yaduwanshi'
tp72
a(S'100001299126503'
S'Alas Grado'
tp73
a(S'100001544004232'
S'Joshua Tumbaga Babad'
tp74
a(S'100001673329306'
S'Shoel Murillo'
tp75
a(S'1815173528'
p76
S'Sagar Khetwani'
tp77
a(S'100002498458037'
S'Neha Sharma'
tp78
a(S'1235918740'
S'Ankit Hans'
tp79
a(S'100002800747190'
S'Mariel A. Martinito'
tp80
a(S'100002001937281'
S'Jezreel Cloma'
tp81
a(S'100002500323758'
S'Govinda Pahuja'
tp82
a(S'100002590814635'
S'Jacky Macwan'
tp83
a(S'100002277698166'
S'Janeth Gandola Martin'
tp84
a(S'100002315217662'
S'Nelson Chua Papillares'
tp85
a(S'100001049248639'
p86
S'Ritesh Ambawata'
tp87
a(S'100001088254996'
S'Sofia Dragon Ball Z'
tp88
a(S'100002252233820'
S'Reynan Tikim Caballo'
tp89
asS'id'
p90
S'100003661417890'
p91
sS'name'
p92
S'Aniket Verma'
p93
s.