(dp1
S'friends'
p2
(lp3
(S'100002540893269'
S'Vicky Pahuja'
tp4
a(S'100002322476151'
S'Riya Pamnani'
tp5
a(S'100003862227680'
S'Gourav Mundai'
tp6
a(S'100002448846082'
S'Harsha Pamnani'
tp7
a(S'100002361188311'
S'Prachi Gopalani'
tp8
a(S'100003475470913'
S'Aniket Verma'
tp9
a(S'100002498175029'
S'Rocky Gujar'
tp10
a(S'643945390'
S'Tusshar Pahuja'
tp11
a(S'100001674147091'
S'Mohit Sadhwani'
tp12
a(S'100003771900041'
S'Sonu Sehgal'
tp13
a(S'100003285866587'
S'Shaitan Bcha Rahul'
tp14
a(S'100003302499817'
S'Sanjay Pahuja'
tp15
a(S'100000033420242'
S'Sahil Koshija'
tp16
a(S'100005718870740'
S'Abhishek Keshwani'
tp17
a(S'100003807246171'
S'Kapil Lohia'
tp18
a(S'100004349173205'
S'Honey Dhamija'
tp19
a(S'100001214289189'
S'Mohit Keshwani'
tp20
a(S'100003588892807'
S'Kapil Nagwani'
tp21
a(S'100000474625797'
S'Deepak Doultani'
tp22
a(S'100003687152832'
S'Mohit Kaushija'
tp23
a(S'100002003340785'
S'Nitin Rawat'
tp24
a(S'100003923615156'
S'Vicky Khetwani'
tp25
a(S'100002317306504'
S'Meenakshi Sansanwal'
tp26
a(S'100002846757834'
S'Sanjay Pahuja'
tp27
a(S'100001899890313'
S'Pawan Vijra'
tp28
a(S'100003373754305'
S'Bhavesh Vanjani'
tp29
a(S'100002304670892'
S'Akshay Prasad'
tp30
a(S'100002522808453'
S'Daman Deep'
tp31
a(S'100000105893283'
S'Piyush Pahuja'
tp32
a(S'100000549931479'
S'Bhawna Pahuja'
tp33
a(S'100002320962116'
S'Chandan Pamnani'
tp34
a(S'1815173528'
S'Sagar Khetwani'
tp35
a(S'100003887457256'
S'Harish Bhatia'
tp36
a(S'100002186061193'
S'Anuj Pamnani'
tp37
a(S'100001904865322'
S'Mandeep Singh'
tp38
a(S'100002152383119'
S'Mohit Kashyap'
tp39
a(S'100000033267551'
S'Jatin Taneja'
tp40
a(S'100002405133670'
S'Monisha Rawaat'
tp41
a(S'100002899248513'
S'Little Shaitan Bcha Harsh'
tp42
a(S'100000006304498'
S'Saurabh Trivedi'
tp43
a(S'100003244429067'
S'Jatin Gautam'
tp44
a(S'100000267735824'
S'Kamal Pahuja'
tp45
a(S'100003574422083'
S'Harsheet Lalwani'
tp46
a(S'100005346606574'
S'Abhishek Kashwani'
tp47
a(S'100002538031698'
S'Amresh Kumar'
tp48
a(S'100000087417828'
S'Mayank Makhija'
tp49
a(S'100004165747819'
S'Kartar Rajput'
tp50
a(S'100002264464063'
S'Tikam Das Pamnani'
tp51
a(S'1588448920'
S'Rajat Jain'
tp52
a(S'100001132848569'
S'Manish Arora'
tp53
a(S'100002033565311'
S'Manish Kumar'
tp54
a(S'100002744412343'
S'Nikhil Duseja'
tp55
a(S'1058472302'
S'Dinesh Khemani'
tp56
a(S'100002082960012'
S'Akshay Nagvani'
tp57
a(S'576273471'
S'Sumit Pahuja'
tp58
a(S'100001856613498'
S'Bharti Chhabra'
tp59
a(S'100003592873390'
S'Harsheet Lalwani'
tp60
a(S'100002679033545'
S'Naveen Panjwani'
tp61
a(S'100002456157896'
S'Khushbu Pahuja'
tp62
a(S'100003678469961'
S'Sneha Duseja'
tp63
a(S'100006450666930'
S'Deurali Ko'
tp64
a(S'100004841377980'
S'Vmy Mundai'
tp65
a(S'100002544274132'
S'Pankaj Kumar'
tp66
a(S'100004072026525'
S'H\\u00ef\\u0165\\u0119\\u00f1 Chandani'
tp67
a(S'100004222810403'
S'Pankaj Rahul'
tp68
a(S'100003791401189'
S'Sanjay Pamnani'
tp69
a(S'100001951204404'
S'Bharat Ahuja'
tp70
a(S'100002500323758'
S'Govinda Pahuja'
tp71
a(S'100002430568556'
S'Kshitij Kamra'
tp72
a(S'100001049248639'
S'Ritesh Ambawata'
tp73
a(S'100001405937926'
S'Vipin Koshija'
tp74
a(S'100003314813140'
S'Sunil Chudhary'
tp75
a(S'100003832849594'
S'Ishana Vijra'
tp76
a(S'100003664116177'
S'Tuf Dan'
tp77
a(S'100001249157329'
S'Nitesh Vanjani'
tp78
a(S'100003275195823'
S'Sunny Vijra'
tp79
a(S'100004159831577'
S'Nikki Sharma'
tp80
a(S'100002550435694'
S'Divya Pahuja'
tp81
a(S'100001416590463'
S'Shuvy Lohia'
tp82
a(S'100002380974385'
S'Gaurav Mundai'
tp83
a(S'100001579118052'
S'Deepak Kumar Pamnani'
tp84
a(S'100000831270502'
S'Anil Doultani'
tp85
a(S'100002067827722'
S'Tushar Pamnani'
tp86
a(S'100003917615094'
S'Garv Kamra'
tp87
a(S'100002910776192'
S'Priya Bhatia'
tp88
a(S'100002236520255'
S'Manish Mundai'
tp89
a(S'100000618180356'
S'Rohit Gautam'
tp90
a(S'100002269654432'
S'Mahesh Kumar Pamnani'
tp91
a(S'100003926030655'
S'Ishaan Pahuja'
tp92
a(S'100003705740533'
S'Bisham Kukreja'
tp93
a(S'100004222984706'
S'Priyanka Ahuja'
tp94
a(S'100000230175624'
S'Harsh Gopalani'
tp95
a(S'100001270799097'
S'Dipesh Nawal'
tp96
a(S'100001738855568'
S'Kashish Pahuja'
tp97
a(S'100001758167838'
S'Amit Badoni'
tp98
a(S'100003701221772'
S'Mukesh Pahuja'
tp99
a(S'100005460420580'
S'Honey Gujjar'
tp100
a(S'100004627083011'
S'Aarti Dhamija'
tp101
a(S'100003272512965'
S'Jaypal Bairwa'
tp102
asS'id'
p103
S'100002206038635'
p104
sS'name'
p105
S'Radhey Lucky'
p106
s.