(dp1
S'friends'
p2
(lp3
(S'100006453669974'
S'Hashmatullah Naiby'
tp4
a(S'100004043891709'
S'Farhadullah Safi'
tp5
a(S'100001835810402'
S'Hassan Sangar'
tp6
a(S'100004730734602'
S'Hashmat Ulla'
tp7
a(S'100006347491281'
S'Hayatullah Hamdard'
tp8
a(S'100006611252315'
S'Hedayatullah Khaksar Sherzad'
tp9
a(S'100002311618744'
S'Zora Soha'
tp10
a(S'100006896040269'
S'Shahin Ahmad'
tp11
a(S'100001403000938'
S'Sheikh Esfand Iar Mandokhail'
tp12
a(S'100006476329429'
S'\\u00cemr\\u00e5\\u00f1 \\u017d\\u00e3\\u0142\\u00e2\\u0144d'
tp13
a(S'100004425973117'
S'Almass Malekzai'
tp14
a(S'100004559284782'
S'S OMaid Hashimi'
tp15
a(S'100002980206327'
S'Safiullah Sherzad'
tp16
a(S'100004386549207'
S'Zabiullah Kamaludin'
tp17
a(S'100000312209060'
S'Hafeez Turab'
tp18
a(S'100002669213686'
S'Aryan Afghan'
tp19
a(S'100002165041424'
S'Ashraf Voluspal'
tp20
a(S'100002273237344'
S'Qayyum Khan'
tp21
a(S'100005851872681'
S'Imran Shirzad'
tp22
a(S'100003973059924'
S'Sahil Emad'
tp23
a(S'100001661046110'
S'Usc Afghanistan'
tp24
a(S'100000137421151'
S'Naweed Shahrukh Nabi'
tp25
a(S'100001842177205'
S'Hematullah Ghayor'
tp26
a(S'100002735005489'
S'Khan Zaman'
tp27
a(S'100002255883848'
S'Waheed Shirzad'
tp28
a(S'100004503728569'
S'Khyber Babak'
tp29
a(S'100003906770172'
S'Arsalan Tasweer'
tp30
a(S'100002804813693'
S'\\u062f\\u0642\\u0628\\u0631 \\u067e\\u0647 \\u063a\\u0627\\u0693\\u0647'
tp31
a(S'100003840658627'
S'Hmat Shirzad'
tp32
a(S'100001699005875'
S'Najeebullah Amin'
tp33
a(S'100002085311776'
S'Mena Mangal'
tp34
a(S'100001794790728'
S'\\u067e\\u069a\\u062a\\u0648\\u0646 \\u062e\\u0648\\u0696\\u06cc\\u0627\\u06bc\\u06cc\\u0648\\u0627\\u0644'
tp35
a(S'100007095426198'
S'Sabawoon Shirzad'
tp36
a(S'100002229047970'
S'Khushal Shirzad'
tp37
a(S'100003235100383'
S'Samiullah Omaid'
tp38
a(S'100005503382231'
S'Sabawoon Saba Tanha'
tp39
a(S'100007602546638'
S'Momtaz Sekandari'
tp40
a(S'100004476003653'
S'Fawad Sedeqi'
tp41
a(S'100005918380813'
S'Wahidullah Sadiq'
tp42
a(S'100001960064069'
S'Naween Ahamdzai'
tp43
a(S'100002293628353'
S'Sabawoon Saba'
tp44
a(S'100000014159480'
S'Sharifullah Sangar'
tp45
a(S'100008004637727'
S'Abdull Khalil'
tp46
asS'id'
p47
S'100003194122636'
p48
sS'name'
p49
S'Sarhad Gulyar'
p50
s.