(dp1
S'friends'
p2
(lp3
(S'100001485748729'
S'Zinab Ahmadi'
tp4
a(S'100001090551715'
S'Maryam Raza'
tp5
a(S'100001899083858'
S'Farzana Naz'
tp6
a(S'100001955721145'
S'Seher Khan'
tp7
a(S'100002065566888'
S'Sundas Shahzadi'
tp8
a(S'100002056777595'
S'Mursal Ahmadi'
tp9
a(S'100002016744392'
S'M Baseer Haqyaar'
tp10
a(S'100001451568391'
S'Mukhtar Ahmadi'
tp11
a(S'100002139462949'
p12
S'\\u0685\\u0627\\u0631\\u06ab\\u0631 \\u0627\\u0641\\u063a\\u0627\\u0646'
tp13
a(S'100002168087777'
S'Jameel Jameel'
tp14
a(S'100001653822945'
S'Sarwaria Sanjay'
tp15
a(S'100002085311776'
S'Mena Mangal'
tp16
a(S'100001339252976'
S'Musarrat Mohmand'
tp17
a(S'100002157076396'
S'Mursal Zeb'
tp18
a(S'100001929705183'
S'Rozina Bangash'
tp19
a(S'100002119782379'
S'Ajnabi Nadan'
tp20
a(S'100001939492835'
S'Roz Shaista'
tp21
asS'id'
p22
S'100002220243927'
p23
sS'name'
p24
S'Sk Kabir'
p25
s.