(dp1
S'friends'
p2
(lp3
(S'100007539184629'
S'Inha Indira'
tp4
a(S'100008225954386'
S'Adriane Fist'
tp5
a(S'100007503312400'
S'Ruma Khan'
tp6
a(S'100008385213029'
S'\\u09b6\\u09c7\\u09b7 \\u09ac\\u09bf\\u0995\\u09be\\u09b2\\u09c7\\u09b0 \\u09ae\\u09c7\\u0998'
tp7
a(S'100008294553427'
S'Kunji Raja'
tp8
a(S'100008296489109'
S'Samoora Kamal'
tp9
a(S'100004828874869'
S'Maheen Ahmad Ahmad'
tp10
a(S'100005530934834'
S'Farhana Ali'
tp11
a(S'100002570215184'
S'Subhas Kundu'
tp12
a(S'100008335896616'
S'Mamani Deka'
tp13
a(S'100008384346892'
S'Nipa Akther'
tp14
a(S'100008333949450'
S'Sara Khan'
tp15
a(S'100007525323976'
S'Somiya Chaudhuri'
tp16
a(S'100005784490092'
S'Pram Pujare'
tp17
a(S'100005630193382'
S'Heena Khan'
tp18
a(S'100008296072845'
S'Anjuma Easmin'
tp19
a(S'100008218246837'
S'Zananr Aslim'
tp20
a(S'100008277213359'
S'Alisha Ador'
tp21
a(S'100007683128303'
S'Angel Paul'
tp22
a(S'100008294061256'
S'Shaurya Singh'
tp23
a(S'100008231771486'
S'Sara Ahmd'
tp24
a(S'100006203264804'
S'Jinti Das'
tp25
a(S'100007233792808'
S'Ses Bikeler Golpo'
tp26
a(S'100006145142298'
S'Sharon Chinwe'
tp27
a(S'100008052695724'
S'Tamanna Akter Reme'
tp28
a(S'100008254789173'
S'Lamia Khan'
tp29
a(S'100007944938827'
S'Songita Boruah'
tp30
a(S'100008293747395'
S"Qory Cii'LadiesGemini"
tp31
a(S'100006729849710'
S'Manoj Singh'
tp32
a(S'100002451567205'
S'Ritqueen Nana Akua Butler'
tp33
a(S'100008023352584'
S'Blessing Yola'
tp34
a(S'100008215650042'
S'Dinamoni Deka'
tp35
a(S'100005467935845'
S'Faith Oge'
tp36
a(S'100004710582914'
S'Ayesha Borah'
tp37
a(S'100007802340263'
S'\\u09b8\\u09c1\\u09ae\\u09be\\u0987\\u09af\\u09bc\\u09be \\u0987\\u09af\\u09bc\\u09be\\u09b8\\u09ae\\u09bf\\u09a8 \\u09b6\\u09cd\\u09b0\\u09be\\u09ac\\u09a8\\u09c0'
tp38
a(S'100007925583741'
S'Aliya Malik'
tp39
a(S'100005546238516'
S'Sabir D Monxtar'
tp40
a(S'100008316220417'
S'Chrizana Gogoi'
tp41
a(S'100008125114076'
S'Niharika Borah'
tp42
a(S'100008394335101'
S'Switi Rajput'
tp43
a(S'100008330735808'
S'\\u0628\\u0631\\u0648\\u0627\\u0633 \\u062d\\u0633\\u064a\\u0646'
tp44
a(S'100003953935011'
S'Sofhi Azmytha Pohan'
tp45
a(S'100008358698782'
S'Hina Mahnoor'
tp46
a(S'100004125755041'
S'Noe Olmedo'
tp47
a(S'100008130399478'
S'Siwty Pandey'
tp48
a(S'100006482846169'
S'Saripah Anisa'
tp49
a(S'100008355340004'
S'Odbud Ochin Manus'
tp50
a(S'100008316439066'
S'Pompi Barman'
tp51
a(S'100005300565365'
S'Riyashree Biswas'
tp52
a(S'100007519421024'
S'Komal Kumari'
tp53
a(S'100008245171370'
S'Sopno Hin Akhi'
tp54
a(S'100008053835386'
S'Nita Patel'
tp55
a(S'100008265072012'
S'Rusana Gul'
tp56
a(S'100004347397948'
S'Tahmeena Khan'
tp57
a(S'100008299057169'
S'Liza Kartika'
tp58
a(S'100003651186677'
S'Simran Kaur'
tp59
a(S'100007942683701'
S'Asma Shareef'
tp60
a(S'100004436685012'
S'Shereen Khan'
tp61
a(S'100005591622929'
S'Aliya Ch'
tp62
a(S'100005772431243'
S'Nidhi Verma'
tp63
a(S'100008387974846'
S'Dikhsita Das'
tp64
a(S'100008327044582'
S'Ranti Rahmawati'
tp65
a(S'100005542579490'
S'Nusrat Mahi'
tp66
a(S'100008393224279'
S'Lovepreet Kaur'
tp67
a(S'100008382065423'
S'Janvi Solnki'
tp68
a(S'100008334733629'
S'Nisha Singh'
tp69
a(S'100007067490602'
S'Priti Durgade'
tp70
a(S'100006202690633'
S'Junmoni Hazarika'
tp71
a(S'100005495910852'
S'Shilpi Das'
tp72
a(S'100008311268629'
S'\\u0b86\\u0bcc\\u0bcc\\u0bcc\\u0bcc\\u0bcc\\u0bcc\\u0bcc\\u0bcc\\u0bcc\\u0bcc\\u0bcc\\u0bcc\\u0bcc\\u0bcc\\u0bcc\\u0bcc\\u0bcc\\u0bcc\\u0bcc\\u0bcc\\u0bcc\\u0bcc\\u0bcc\\u0bcc\\u0bcc\\u0b86\\u0bcc \\u0b86\\u0bcc\\u0bcc\\u0bcc\\u0b86\\u0bcc\\u0bcc\\u0bcc\\u0bcc\\u0bcc\\u0bcc\\u0bcc\\u0bcc\\u0bcc\\u0bcc\\u0bcc\\u0bcc\\u0bcc\\u0bcc\\u0bcc\\u0bcc\\u0bcc\\u0b86\\u0bcc \\u0b86\\u0bcc\\u0bcc\\u0bcc\\u0bcc\\u0bcc\\u0bcc\\u0bcc\\u0bcc\\u0bcc\\u0bcc\\u0bcc\\u0bcc\\u0bcc\\u0bcc\\u0bcc\\u0bcc\\u0bcc\\u0bcc\\u0bcc\\u0bcc\\u0bcc\\u0bcc\\u0bcc\\u0bcc\\u0bcc\\u0bcc\\u0bb1'
tp73
a(S'100008175722387'
S'Rahila Yesmin'
tp74
a(S'100008279298542'
S'Begum Hasina Rahman'
tp75
a(S'100008343394225'
S'Ulfat Jan'
tp76
a(S'100008296997823'
S'Fahmida Akhter'
tp77
a(S'100007130075686'
S'Janiya Swetss'
tp78
a(S'100006588428042'
S'Megla Akter Urmi'
tp79
a(S'100008250552101'
S'Fajriani Fajriani'
tp80
a(S'100007778174818'
S'Monali Patel'
tp81
a(S'100008157307751'
S'\\u0985\\u099a\\u09c7\\u09a8\\u09be \\u09ab\\u09c7\\u0987\\u09b8'
tp82
a(S'100004140429251'
S'Rona Alhamdani'
tp83
a(S'100008007639016'
S'Kolsuma Islam'
tp84
a(S'100004960689750'
S'Haniaa Supriatini Alinsany'
tp85
a(S'100008189881322'
S'Merina Aktar'
tp86
a(S'100005273862354'
S'Tahmida Islam'
tp87
a(S'100008298082990'
S'Rekha Gogoi'
tp88
a(S'100008355307122'
S'Kiran Johar'
tp89
a(S'100007411009254'
S'\\u0633\\u062d\\u0631 \\u0627\\u0644\\u0632\\u064a\\u0628\\u0627\\u0631\\u064a \\u0633\\u062d\\u0631'
tp90
a(S'100007663094319'
S'Urme Ahmed'
tp91
a(S'100008382305573'
S'Tabassom Eram'
tp92
a(S'100008298017757'
S'Moni Akter'
tp93
a(S'100008230905225'
S'Karan Raaz'
tp94
a(S'100004364317624'
S'Prosenjit Mukherjee'
tp95
a(S'100004300242545'
S'Nadia Alfiani'
tp96
a(S'100008330321089'
S'Omowumi Olayiwola'
tp97
a(S'100004101874969'
S'Meghla Rahman Tisha'
tp98
a(S'100008383774296'
S'Pooja Kumari'
tp99
a(S'100008285690347'
S'Susmita Das'
tp100
a(S'100008136696570'
S'Kappeta Sunanda'
tp101
a(S'100008291327737'
S'Parfect XMe'
tp102
a(S'100006304906311'
S'Sandeep Deka'
tp103
a(S'100008246298342'
S'Zaskia'
tp104
a(S'100004760595133'
S'Samina Ali'
tp105
a(S'100008341690195'
S'Peerthi Rajkut'
tp106
a(S'100004499430611'
S'Cinthiaa Nixon'
tp107
a(S'100008324262682'
S'Payal Arora'
tp108
asS'id'
p109
S'100006774766219'
p110
sS'name'
p111
S'MD Amjad Ansari'
p112
s.