(dp1
S'friends'
p2
(lp3
(S'100003716031893'
S'Jubin Talwar'
tp4
a(S'100003166058132'
S'Akshita Sharma'
tp5
a(S'1064095482'
S'Shubham Dudeja'
tp6
a(S'100002232028044'
S'Renuka Sakhuja'
tp7
a(S'100006209227580'
S'Surbhi Singla'
tp8
a(S'100001934276251'
S'Manoj Diwan'
tp9
a(S'100002535048268'
S'Annant Pratap Singh'
tp10
a(S'100001330939748'
S'Himalya Makkad'
tp11
a(S'100001056019973'
S'Anchal Shrivastava'
tp12
a(S'100002453086206'
S'Sankit Bansal'
tp13
a(S'100001119156405'
p14
S'Himanshi Girdhar'
tp15
a(S'100001400436804'
S'Saumya Jindal'
tp16
a(S'100002278182469'
S'Samshir Ansari'
tp17
a(S'736249602'
S'Parul Bhatia'
tp18
a(S'1211783731'
S'Mayur Garg'
tp19
a(S'100001625971558'
S'Rasleen Kour'
tp20
a(S'100001757323256'
S'Rahul Mittal'
tp21
a(S'100003295274832'
S'Mamta Mazumdar'
tp22
a(S'100001497161906'
S'Deepanshu Goel'
tp23
a(S'100003995588104'
S'Ishaan Agnihotri'
tp24
a(S'100001910705954'
S'Nawab Yash Vardhan Singh'
tp25
a(S'1803362883'
S'Pushpi Sardana'
tp26
a(S'100002375267977'
S'Ashish Behl'
tp27
a(S'100001826117234'
S'Shubham Chawla'
tp28
a(S'100004085433032'
S'Varad Sehra'
tp29
a(S'100000733674229'
S'Dikshant Kalra'
tp30
a(S'100004145228045'
S'Medha Singh'
tp31
a(S'100004600440860'
S'Himani Makkad'
tp32
a(S'100003160597821'
S'Abhishek Sharma'
tp33
a(S'100001074179105'
S'Vandita Maheshwari'
tp34
a(S'100006752314494'
S'Jyoti Sharma'
tp35
a(S'100001227901995'
S'Naveen Mittal'
tp36
a(S'100003030246667'
S'Lovely Kakkar'
tp37
a(S'100001252663798'
S'Barkha Goyal'
tp38
a(S'100001614715364'
p39
S'Sakshi Aggarwal'
tp40
a(S'100006467034204'
S'Payal Dewan'
tp41
a(S'100001695756074'
S'Shakti Tomar'
tp42
a(S'100003140742044'
S'Tanuj Kumar'
tp43
a(S'100001781867439'
S'Varad Hte Love'
tp44
a(S'100000577313717'
p45
S'Bhuv Arya'
tp46
a(S'100000096318037'
S'Sudhish Gupta'
tp47
a(S'100000520254389'
p48
S'Shubham Jangra'
tp49
a(S'100003863824832'
S'Madhur Diwan'
tp50
a(S'1310944341'
p51
S'Siddhant Sharma'
tp52
a(S'100001310758137'
S'Amit Dhankhar'
tp53
a(S'100001291279897'
S'Yashika Chhabra'
tp54
a(S'100000904961307'
S'Samikshaa Sinha'
tp55
a(S'100004434064595'
S'Monimandlesh Bhreegu'
tp56
a(S'100006521060764'
S'Amit Dhankhar'
tp57
a(S'100001941706830'
p58
S'Atul Garg'
tp59
a(S'100000574223305'
p60
S'Nitin Gupta'
tp61
a(S'100005595845695'
S'Apoorva Aggarwal'
tp62
a(S'100001739635269'
S'Aman UpAdhyay'
tp63
a(S'100000217261697'
S'Shubham Singla'
tp64
a(S'100006272680830'
S'Komal Diwan'
tp65
a(S'100002917386027'
S'Nikhil Kumar'
tp66
a(S'100004686751476'
S'Ajay Singh Rana'
tp67
a(S'100003920535719'
S'Ajay Dahiya'
tp68
a(S'100002499814945'
S'Garima Rana'
tp69
a(S'100001182610502'
p70
S'Yogesh Panghal'
tp71
a(S'100001122578729'
S'Sahil Mehta'
tp72
a(S'100001145992798'
S'Varun Tanwar'
tp73
a(S'100001208173195'
p74
S'Megha Goyal'
tp75
a(S'100002545303161'
S'Rajan Gogia'
tp76
a(S'1253552338'
S'Samarth Yadav'
tp77
a(S'100003620305013'
S'Shubham Singh Dudeja'
tp78
a(S'1666951304'
S'Sourabh Mehta'
tp79
a(S'1305272063'
p80
S'Tanwar Himanshu'
tp81
a(S'100000335307342'
S'Rajan Gogia'
tp82
a(S'100002179756549'
p83
S'Shagun Chawla'
tp84
a(S'100002326054960'
S'Priyanshu Garg'
tp85
a(S'100008181962952'
S'Annie Choudhary'
tp86
a(S'100004847825483'
S'Sukriti Sahai'
tp87
a(S'100001595058819'
S'Deepak Hooda'
tp88
a(S'100004027876112'
S'Mukul Arora'
tp89
a(S'100001964340797'
S'JP Sharma'
tp90
a(S'100001262634293'
S'Pawan Chhabra'
tp91
a(S'100002468900412'
S'Sugandha Sharma'
tp92
a(S'100001435187996'
S'Geet Gaur'
tp93
a(S'100002476175137'
S'Chintu Gupta'
tp94
a(S'100003249502279'
S'Shelly Kirar'
tp95
a(S'100003531094812'
S'Princess Sophie'
tp96
a(S'100000232864019'
S'Naval Sheoran'
tp97
a(S'100003472470244'
S'Siddharth Sharma'
tp98
a(S'100002546105420'
p99
S'Nikita Aggarwal'
tp100
a(S'100001715415522'
S'Nitin Goyat'
tp101
a(S'100002108587121'
S'Dipesh Taak'
tp102
a(S'100000740798093'
p103
S'Pulkit Singla'
tp104
a(S'100000429310298'
S'Nikhil Sharma'
tp105
a(S'100004140523055'
p106
S'Aanchal Goyal'
tp107
a(S'100003137650820'
S'Narendar Shekhawat'
tp108
a(S'100002075441879'
S'Deepak Jangra'
tp109
a(S'100003044741546'
S'Hitesh Singla'
tp110
a(S'100002861337517'
S'Diwakar Jain'
tp111
a(S'100002425008332'
S'Sahil Mittal'
tp112
a(S'100001179876168'
S'Rajat Jasuja'
tp113
a(S'100004775465144'
S'Kanika Dhankher'
tp114
a(S'100004058573710'
S'Manisha Garg'
tp115
a(S'100002258518965'
S'Deepak Dewan'
tp116
a(S'100005941051859'
S'Aditya Mittal'
tp117
asS'id'
p118
S'100001862812480'
p119
sS'name'
p120
S'Tarun Aggarwal'
p121
s.