(dp1
S'friends'
p2
(lp3
(S'100001519742618'
S'Abasin Rawan'
tp4
a(S'100003032417402'
S'\\u0628\\u062e\\u062a \\u0627\\u0644\\u0644\\u0647 \\u0637\\u0648\\u0637\\u0627\\u062e\\u06cc\\u0644'
tp5
a(S'100002163844300'
S'Zaland Zurmaty'
tp6
a(S'100004321350390'
S'Pagal Ambar'
tp7
a(S'100000947344307'
S'Polad Akbar'
tp8
a(S'100003221060127'
S'Ghorzang Zabit Nasiri'
tp9
a(S'100002341648116'
S'Bakhtullah Roman'
tp10
a(S'100002138237178'
S'Jamal Naser Osoli'
tp11
a(S'100002858439427'
S'Samun Tanai'
tp12
a(S'100000764002038'
S'Talib Mangal'
tp13
a(S'100002800189688'
S'Zahid Almas'
tp14
a(S'100000161747222'
S'Wais Tanai'
tp15
a(S'100005391339224'
S'Azad Pashton'
tp16
a(S'100006654126644'
S'Aziz Ullah'
tp17
a(S'100007796222434'
S'Ghazi Silab'
tp18
a(S'100007652138479'
S'Nur Ali'
tp19
a(S'100002481858972'
S'\\u062e\\u0648\\u0633\\u062a \\u0645\\u0644\\u064a \\u0631\\u0627\\u0689\\u06cc\\u0648 \\u062a\\u0644\\u0648\\u064a\\u0632\\u064a\\u0648\\u0646'
tp20
a(S'1417766294'
S'Ajmal Rohi'
tp21
a(S'100002290768594'
S'Emal Janatzai'
tp22
a(S'100002195949208'
S'Assad Ullah Tanay'
tp23
a(S'100005366448581'
S"Nelson's Mandela"
tp24
a(S'100007204261238'
S'Md Sabuj'
tp25
a(S'100005078740635'
S'Umar Paktiawall'
tp26
a(S'100002050290860'
S'Kamal Naser Osuli'
tp27
a(S'100007940799312'
S'Maiwand Tanai'
tp28
a(S'100005812661581'
S'Nawab Khan'
tp29
a(S'100002635800992'
S'Mukhles Dadwall'
tp30
a(S'100003963356884'
S'Nek Jamal'
tp31
a(S'100001868618012'
S'Rahim Gul Nayel'
tp32
a(S'100005149142879'
S'Shir Agha'
tp33
a(S'100001228196056'
S'Ghani Tani'
tp34
a(S'100000977017686'
S'Muhammad Mubin'
tp35
a(S'100008222025665'
S'Akbarali Hakimi'
tp36
a(S'100008088722153'
S'Qais Qais'
tp37
a(S'783452215'
p38
S'Pacha Khostae'
tp39
a(S'1433051244'
S'Rayhan Azizi'
tp40
a(S'100001392272300'
S'Akbar Jan Azizi'
tp41
a(S'100001584918509'
S'Ashraf Mohammad'
tp42
a(S'100007939472548'
S'Ahmadshah Zadran'
tp43
a(S'100005621737609'
S'Pashton Parasth Wazir'
tp44
a(S'100005843760100'
S'Masood Raihan'
tp45
a(S'100003759498572'
S'Edris Pathanzazai'
tp46
a(S'100002085311776'
S'Mena Mangal'
tp47
a(S'100003487213125'
S'Hazrat Wali Ziarmal'
tp48
a(S'100001501812244'
S'Zohair Zohair'
tp49
a(S'100002316994730'
S'Amin Tanai'
tp50
a(S'100007280193439'
S'Haji Jalil Tani Tani'
tp51
a(S'100004872661939'
S'Sultan  Padshakh'
tp52
a(S'100004434403310'
S'Najib Malikzai'
tp53
a(S'100001963530488'
S'Mangal Wafa'
tp54
a(S'100001944776149'
S'Noor Kochai'
tp55
a(S'100001121552031'
S'Said Jalal'
tp56
a(S'100000116654151'
S'Janat Tanai'
tp57
a(S'100001044753711'
S'\\u0628\\u0647\\u0627\\u0631 \\u062e\\u0648\\u0633\\u062a\\u0649'
tp58
a(S'100002035479245'
p59
S'Helmand Pardes'
tp60
a(S'100008159615764'
S'Besmiullhakhan  Narizwal'
tp61
a(S'100002291270113'
S'Naqibullah Ehsas'
tp62
a(S'100005105378877'
S'Amanullah Mangal'
tp63
a(S'100001751338765'
S'Ahmadullah Ahmadi'
tp64
a(S'100002911760137'
S'Mir Ahmad Shah'
tp65
a(S'100003092212326'
S'\\u0639\\u0628\\u062f\\u0644\\u0644\\u0647 \\u0646\\u0646\\u06ab\\u06cc\\u0627\\u0644'
tp66
a(S'100001382090945'
S'Nasim Liwal'
tp67
a(S'100005916181748'
S'Mushfiqe Osuli'
tp68
a(S'100003450443450'
S'Sabir Mandozai'
tp69
a(S'100003885226196'
S'Duranai Khanzali'
tp70
a(S'100004335284363'
S'Akbarsha  Zadarn'
tp71
a(S'100002202602836'
S'Aziz Pacha'
tp72
a(S'100000934179888'
S'Sabawoon-Awaljan Taniwal'
tp73
a(S'100007821912227'
S'Fiz Tani'
tp74
a(S'100003958225322'
S'Shanzali Muhabbat'
tp75
a(S'100001372826934'
S'Nasirahmad Khosti'
tp76
a(S'100003378772759'
S'Khaja Yousuf'
tp77
a(S'100006460187829'
S'Kismat Khan'
tp78
a(S'100001846395124'
S'\\u067e\\u069a\\u062a\\u0648\\u0646\\u0632\\u06cc \\u0627\\u0635\\u0648\\u0644\\u06cc'
tp79
a(S'759593956'
S'Rahim Khan Tanai'
tp80
a(S'100002923298851'
S'Habib  Abdul'
tp81
a(S'1830698240'
S'Aryan Paktyar'
tp82
a(S'100008054552468'
S'\\u0632\\u0647\\u0631\\u0647 \\u062c\\u0644\\u0627\\u0644'
tp83
a(S'100002456063608'
S'Noorahmad Khan'
tp84
a(S'100001214898907'
S'Sabawoon Storai Mahidi'
tp85
a(S'100004531746206'
S'Sediqullah Ayoubi'
tp86
a(S'100001628948796'
S'Ayoub Tani'
tp87
a(S'100002351571340'
S'\\u062a\\u0631\\u06cc\\u062e \\u062a\\u0631\\u06cc\\u062e'
tp88
a(S'100007976532133'
S'Jamiullah Saad'
tp89
a(S'100000487632548'
S'Muhammed Farooq Shah'
tp90
a(S'1295417933'
S'Noor Mohammad'
tp91
a(S'100000979329828'
S'Abdul Bashir'
tp92
a(S'100006083015278'
S'Fida Afghan Orguni'
tp93
a(S'100002967986692'
S'Karimullah Mashkor'
tp94
a(S'100006145691054'
S'Said  Wali'
tp95
a(S'100000925296914'
S'Rahim Khostwal'
tp96
a(S'100007759682841'
S'Akbar Tanai'
tp97
a(S'100000808494763'
S'Najib Fazli'
tp98
a(S'100001051292231'
S'Amanullah Haqmal'
tp99
a(S'100003383332228'
S'Jalal Khaja'
tp100
a(S'100000932017375'
S'Amir Ahmad Noori'
tp101
a(S'100004366124429'
S'Nik Tani'
tp102
a(S'100000905143697'
S'Eng Samander'
tp103
a(S'100000119038864'
S'Mirwais Amini'
tp104
a(S'100001785529384'
S'Azizullah Wafa'
tp105
asS'id'
p106
S'100001079369092'
p107
sS'name'
p108
S'Rahimullah Tanay'
p109
s.