(dp1
S'friends'
p2
(lp3
(S'100006584316101'
p4
S'Vg Xhah'
tp5
a(S'100004302520952'
S'Muhammed Abrar'
tp6
a(S'100007111201688'
p7
S'Naseeb Jamal'
tp8
a(S'100005447620952'
S'Muhammad Shahzaib Patel'
tp9
a(S'100001833301640'
p10
S'Love Pakistan'
tp11
a(S'100005449324755'
p12
S'Fakhar E Pakstan'
tp13
a(S'100005269686192'
S'Allahnoorkhan Pathan'
tp14
a(S'100004592255090'
S'ChUsman Gujjar Machhiana'
tp15
a(S'100006535448778'
S'Gumname Sipahi'
tp16
a(S'100006528166308'
S'Nazeer Ali'
tp17
a(S'100004680819975'
p18
S'Sher E Pakistan'
tp19
a(S'100005980118247'
p20
S'Rayyan Khattak'
tp21
a(S'100003326046267'
p22
S'Rizwan Methuo'
tp23
a(S'100004095036910'
S'Hina Durrani'
tp24
a(S'100004539001694'
S'Arshad Awan'
tp25
a(S'100006568894243'
p26
S'Noman Khadim'
tp27
a(S'100002044123592'
p28
S'Pak Pakistan'
tp29
a(S'100000109111113'
p30
S'Umar Farooq'
tp31
a(S'762204811'
S'Pakistan Hamari Pehchan'
tp32
a(S'100000979062472'
p33
S'Hamid Qureshi'
tp34
a(S'100007265709531'
S'Yaqoob Khan'
tp35
a(S'100004306802861'
p36
S'Mian Rahman'
tp37
a(S'100000872829768'
p38
S'Ahsan Ali'
tp39
a(S'100004011818311'
S'Loving Heart'
tp40
a(S'1274792157'
S'Mudasser Aziz'
tp41
a(S'100005781455814'
p42
S'Rana E Pakistan'
tp43
a(S'100002399567939'
p44
S'Zakria Zaki M Hassni'
tp45
a(S'100003195130012'
p46
S'Shafiq Ahmad'
tp47
a(S'100003570765829'
p48
S'Raisani Baloch'
tp49
a(S'100004167428071'
S'Muhammad Imran'
tp50
a(S'100001728630541'
S'Adnan Arif'
tp51
a(S'100002611323081'
S'Abbasi \\u00d1\\u00e4\\u00ecf'
tp52
a(S'100000295753887'
p53
S'Pakistan Zindabad'
tp54
a(S'100001675723467'
p55
S'Waqas Yousuf'
tp56
a(S'100003551188670'
S'Uzair Saifi'
tp57
a(S'100006213937440'
S'Sajjad Ali Kalper Bugti'
tp58
a(S'100000699018742'
p59
S'Rayyan Ali Khan'
tp60
a(S'707945991'
S'Fareed Aman'
tp61
a(S'100007800128658'
p62
S'Umar Chattha'
tp63
a(S'100002507854223'
p64
S'Umer Malik'
tp65
a(S'100006966909011'
p66
S'Pak King Baloch'
tp67
a(S'100007030783428'
S'Imran Imran'
tp68
a(S'100006133394069'
S'Muhammad Ashar'
tp69
a(S'100003755130772'
p70
S'Malik Shehroz'
tp71
a(S'100004564626059'
p72
S'Pakistani-Hai Koi Hum Jaisa'
tp73
a(S'100006628716596'
S'Panjabi Munda'
tp74
a(S'100002610923475'
p75
S'Ali Ejaz'
tp76
a(S'100006597845228'
p77
S'Ishtiaq Ahmed Jellani'
tp78
a(S'100004659302993'
p79
S'Pak Janun'
tp80
a(S'100000208062147'
p81
S'Time To Capture India'
tp82
a(S'100006563525889'
p83
S'Azam Gujjar'
tp84
a(S'100004673495957'
S'Lovely Pakistan'
tp85
a(S'100007087415115'
p86
S'Tariq Tareen'
tp87
a(S'100003611126592'
p88
S'Sher Khan'
tp89
a(S'100000351304691'
p90
S'Zubair Hussain'
tp91
a(S'100002739109774'
p92
S'Imrankhan Sherkhan'
tp93
a(S'100002927333185'
p94
S'Gumnaam Spahi'
tp95
a(S'100003025208429'
S'Captian Atif'
tp96
a(S'100008100281886'
S'Hano Ifra'
tp97
a(S'100005475338132'
p98
S'Mohd Imran'
tp99
a(S'100000185346262'
p100
S'Drmubeen Ahmad'
tp101
a(S'100006653018660'
S'Mudassar Hussain'
tp102
a(S'100007519063226'
S'\\u0633\\u0646\\u062f\\u06be \\u0633\\u062c\\u0627\\u06af'
tp103
a(S'100008097576291'
S'Ppm Balochistan Devision'
tp104
a(S'100004286011699'
p105
S'Young PakiStan'
tp106
a(S'100002158938353'
p107
S'Rizwan Sohail'
tp108
a(S'100006109842448'
p109
S'Awaz E Pakistan'
tp110
a(S'100003187840767'
p111
S'Ahmad Nadeem'
tp112
a(S'100005739455864'
p113
S'Asif Mansoor'
tp114
a(S'100003931025312'
p115
S'Muhammad Sadiq'
tp116
a(S'100007380610291'
p117
S'Frahan Farhan'
tp118
a(S'100004334011879'
S'Rauf Ahmed Rufi'
tp119
a(S'100007737068650'
S'Jaffar Khan Baloch'
tp120
a(S'100008033258441'
S'Paakistan Ka Janbazz Beta'
tp121
a(S'100003086442561'
p122
S'Ghulam Fakhar Ud Din'
tp123
a(S'100006434243842'
p124
S'Abdul Rauf'
tp125
a(S'100003967906920'
p126
S'Muhammad Ibrahem'
tp127
a(S'100003083913768'
S'Ghulam Rasool'
tp128
a(S'1143475105'
p129
S'Syed Faraz Ali Zaidi'
tp130
a(S'100001669544920'
p131
S'Ashraf Nawaz'
tp132
a(S'100004078088712'
p133
S'Wali Khan'
tp134
a(S'100006287054549'
p135
S'Mohammad Rafiq'
tp136
a(S'100006695680832'
p137
S'Hamid Qureshi'
tp138
a(S'1488651795'
p139
S'Hasrat Kiani'
tp140
a(S'100000579922983'
p141
S'Fuaad Alawi'
tp142
a(S'100007028974143'
S'\\u067e\\u06cc\\u0627\\u0631\\u0648 \\u067e\\u0627\\u06aa\\u0633\\u062a\\u0627\\u0646'
tp143
a(S'100003617178749'
S'Pakistan Zindabad'
tp144
a(S'100006071050799'
p145
S'Mera Ishq Pakistan'
tp146
a(S'100006285494176'
p147
S'Ali Mughal'
tp148
a(S'100003859147336'
p149
S'Haseeb Arshad Ch'
tp150
a(S'100003356894083'
p151
S'Amaad Khokhar'
tp152
a(S'100002354613599'
p153
S'Mohammad Usman Qadri'
tp154
a(S'100003874886283'
p155
S'Mehar Ali Hassan'
tp156
a(S'100003926764179'
p157
S'Jago Pak'
tp158
a(S'100006778214617'
S'Rao Pak'
tp159
a(S'100004009855403'
p160
S'Abrar Bhai'
tp161
a(S'100004317992250'
p162
S'Azeem Pakistan Pakistan Azeem'
tp163
a(S'100006092916224'
S'Md M\\u00e9\\u00e8ran'
tp164
a(S'100003984558232'
S'Apna Pakistan'
tp165
asS'id'
p166
S'100003949981402'
p167
sS'name'
p168
S'Pyara Pakistan'
p169
s.