(dp1
S'friends'
p2
(lp3
(S'607082340'
p4
S'Hukum C Jain'
tp5
a(S'100006064960867'
S'Kula Saikia'
tp6
a(S'1029713428'
p7
S'Sandip Garg'
tp8
a(S'1144756532'
p9
S'Mukesh Butani'
tp10
a(S'100002660199903'
S'Eesha Sonker'
tp11
a(S'1325143421'
S'Rangnath Jha'
tp12
a(S'751948236'
S'Sunil Gupta'
tp13
a(S'738539735'
p14
S'Deepak Tralshawala'
tp15
a(S'100000670415055'
S'Prakash H Adnur'
tp16
a(S'100002612363833'
S'Jitendra Sonker'
tp17
a(S'1029035216'
S'Shailendra Handa'
tp18
a(S'539995368'
S'Ashu Jain'
tp19
a(S'1048152953'
S'Bala Krishnan'
tp20
a(S'100000093661856'
S'Alankriti Sonkar'
tp21
a(S'100000824456408'
S'Vittal Krishna Kosaraju'
tp22
a(S'1845463428'
S'Sanjay Patra'
tp23
a(S'547892529'
S'Divyasha D Doshi'
tp24
a(S'550139175'
S'Sangeeta Gupta'
tp25
a(S'1428332344'
S'Laxmi Narayan Pant'
tp26
a(S'100002231132691'
S'Bhagchand Meena'
tp27
a(S'100001937269786'
S'Radha Pankaj Sonkar'
tp28
a(S'100001418496888'
S'Sagar TheSea'
tp29
a(S'100000826295855'
S'Nilesh Patel'
tp30
a(S'774855202'
S'Pramila Shrivastav'
tp31
a(S'1201064635'
p32
S'Vinod K Tripathi'
tp33
a(S'100002503183075'
S'Kashish Sonkar'
tp34
a(S'100005057053412'
S'Konika Sonker'
tp35
a(S'1510878500'
S'Shwetang Shankar'
tp36
a(S'770575260'
S'Astha Chandra'
tp37
a(S'517668157'
S'Anup Wadhawan'
tp38
a(S'1029353247'
S'Rup Krishen Baqaya'
tp39
a(S'844052942'
S'Ajit Kumar Jain'
tp40
a(S'100000430009336'
S'Umesh Pratapa'
tp41
a(S'100003964212818'
S'Rup Baqaya'
tp42
a(S'100005624472251'
S'Preeta Harit'
tp43
a(S'1356523648'
S'Subashree Anantkrishnan'
tp44
a(S'1590096191'
S'Ajay Chauhan'
tp45
a(S'100001838326861'
S'Pranab Kumar Das'
tp46
a(S'1317437587'
S'Suman Singh'
tp47
a(S'1340746858'
S'Urvashi Saxena'
tp48
a(S'517669950'
S'Sanjay Bhatia'
tp49
a(S'706830353'
S'Swati Paprunia'
tp50
a(S'100000861852332'
p51
S'Satish Goyal'
tp52
a(S'100002400742304'
S'Udita Chandra Julka'
tp53
a(S'100000610443412'
S'Bibek Bagchi'
tp54
a(S'1058475900'
S'Anup Kumar Dubey'
tp55
a(S'100006013922645'
S'Digvijai Kumar'
tp56
a(S'100006347732916'
p57
S'Abha Kishore'
tp58
a(S'100002448363194'
S'Shaivya Sonkar'
tp59
a(S'100000509470026'
S'Rajib Hota'
tp60
a(S'1052821370'
S'Ajay Kumar'
tp61
a(S'100001377654673'
S'Dharm Vir Singh'
tp62
a(S'100000652928882'
S'Anurradaa S Goyal'
tp63
a(S'100001130414357'
S'Swatantra Kumar'
tp64
a(S'1019416740'
S'Tribhuwan Anand'
tp65
a(S'100001248969772'
S'Shivam Sonkar'
tp66
a(S'100002460257377'
S'DrRamesh Kumar'
tp67
a(S'1621789468'
S'Vijay Shukla'
tp68
a(S'100002007529353'
S'Ankit Sonkar'
tp69
a(S'100000751574554'
S'Puja Agarwal Paprunia'
tp70
a(S'100001979820531'
S'Bharat Kadge'
tp71
a(S'1213639911'
S'Sushil Rathore'
tp72
a(S'100002354058174'
S'Amit Mishra'
tp73
a(S'100000929400639'
S'Aryaman Sonker'
tp74
a(S'1604792492'
S'Devendra Nath Mishra'
tp75
a(S'100000004920842'
p76
S'Pramod Chandra Mody'
tp77
a(S'1156017995'
S'Sushil Madhuk'
tp78
a(S'100001806758778'
S'Shree Kankani'
tp79
a(S'100000957156141'
S'Nikita Agrawal'
tp80
a(S'100002773790504'
S'Ravindra Jain'
tp81
a(S'1609951241'
S'Vidhu Shekher Singh'
tp82
a(S'100003270322690'
S'Nirupma Sonker'
tp83
a(S'731987354'
S'Rajiv Nabar'
tp84
a(S'1471044880'
S'Nitin Kumar Agarwal'
tp85
a(S'566849399'
S'Manu Virmani'
tp86
a(S'100002501205682'
S'Neha Sonkar'
tp87
a(S'100000309082275'
S'Swapnil Sonkar'
tp88
a(S'100002360626738'
S'Kumar Sanjay Krishna'
tp89
a(S'100002145293772'
p90
S'Jatinder Naurath'
tp91
a(S'100001228532393'
S'Chimmi Deora'
tp92
a(S'100000191423461'
S'Manjari Gupta'
tp93
a(S'100000619491617'
S'Milind Bhusari'
tp94
a(S'100003795622109'
S'Sriram Singh'
tp95
a(S'624919279'
S'Rachana Bagdia'
tp96
a(S'1735645389'
S'Neena Kumar'
tp97
a(S'100005582799736'
S'Rajni Sonkar'
tp98
a(S'100000812156618'
S'Shobha Anand'
tp99
a(S'1605216153'
p100
S'Vinod Kumar Pandey'
tp101
a(S'100000611075409'
p102
S'Feroz Khan'
tp103
a(S'100001035681330'
S'Om Prakash Meena'
tp104
a(S'100000877503224'
S'Sitaram Meena'
tp105
a(S'100004519093127'
S'Girish Pande'
tp106
a(S'1453958300'
S'Krishna Sahai'
tp107
a(S'1797366940'
S'Santosh Kumar Jain'
tp108
a(S'100001956117610'
S'Subhakant Sahu'
tp109
a(S'1078860834'
S'Sutirtha Bhattacharya'
tp110
a(S'1061611391'
S'Peeyush Sonkar'
tp111
a(S'100001979433943'
S'RK Bajaj'
tp112
a(S'100000796801229'
S'Upendra Prasad Singh'
tp113
a(S'1136147044'
p114
S'Anand Kishore'
tp115
a(S'100006170340723'
S'Nirupma Sonkar'
tp116
a(S'625135916'
S'Girish N Pande'
tp117
a(S'100004234239253'
S'Kamlesh Chandra Varshney'
tp118
a(S'100003107574736'
S'Priya Prakash'
tp119
a(S'100001998990291'
S'Pankaj Sonkar'
tp120
a(S'100001128369186'
S'Devendra Awasthi'
tp121
a(S'1090457076'
S'Susie Varghese'
tp122
a(S'100001249227472'
S'Garima Pandey'
tp123
a(S'100000606706692'
S'Ashok Roy'
tp124
a(S'562981106'
S'Mamta Kochar'
tp125
a(S'1802024849'
S'Anand Prakash Srivastava'
tp126
a(S'100000020503184'
S'Keyur Narendra Jain'
tp127
a(S'1427071599'
S'Ashok Bal'
tp128
a(S'1020914771'
S'Rajat Bansal'
tp129
a(S'729990414'
S'Sk Singh'
tp130
a(S'666829140'
S'CA Divyang Shah'
tp131
a(S'734608651'
S'Anadee Nath Misshra'
tp132
a(S'642587816'
S'Shamlal Goyal'
tp133
a(S'100000036347644'
S'Sonali Bendre'
tp134
a(S'1015061380'
S'Shubhendu Shrish'
tp135
a(S'1161766982'
S'Girish Chandorkar'
tp136
a(S'1642086280'
S'Suraj Bhan Nain'
tp137
a(S'1109124752'
S'Raghvendra Sonker'
tp138
a(S'100000575200495'
S'Rakesh Pathak'
tp139
a(S'789468621'
S'Arun S Bhatnagar'
tp140
a(S'100000653884006'
S'Gc Srivastava'
tp141
a(S'100001705789820'
S'Kl Maheshwari'
tp142
a(S'849635082'
p143
S'Rajul Awasthi'
tp144
a(S'100002617244995'
S'Mukesh Sonker'
tp145
a(S'100000114619956'
S'Nikita Khanna'
tp146
a(S'100002255018192'
S'Karan Sonkar'
tp147
a(S'1357980742'
S'Rajeev Ranjan'
tp148
a(S'1504201087'
S'Abhinav Mitra'
tp149
a(S'100000049587637'
S'Surinder Jit Singh'
tp150
a(S'1489680635'
S'Niraj N. Kumar'
tp151
a(S'1844194497'
S'Satya Prasant P'
tp152
a(S'572306295'
S'Sunil Suri'
tp153
a(S'100000595901304'
S'Krati Sonkar'
tp154
a(S'100001932508282'
S'Neharika Sonker'
tp155
a(S'1122923246'
S'Avi Chandra'
tp156
a(S'588097433'
S'Rajeev Shahare'
tp157
a(S'100000820547804'
S'Rajeev Sonkar'
tp158
a(S'661100976'
p159
S'Rashmi Singh'
tp160
a(S'544448003'
p161
S'Ajay Mankotia'
tp162
asS'id'
p163
S'100000613879548'
p164
sS'name'
p165
S'Sudhish Sonkar'
p166
s.