(dp1
S'friends'
p2
(lp3
(S'100006614582778'
S'Akash Gautam'
tp4
a(S'100001446435739'
p5
S'Ravi Singh'
tp6
a(S'100005424511370'
S'Neha Choudhary'
tp7
a(S'100006866794375'
S'Rihaansh Arya'
tp8
a(S'100005291229201'
S'Veena Thapa'
tp9
a(S'100007700550180'
S'Pushpa Gautam'
tp10
a(S'100002993982809'
S'Divit Donor'
tp11
a(S'100004035442131'
S'Sh\\u00f9bh\\u00e3m \\u00d1\\u00edm'
tp12
a(S'100002357205962'
S'Sneha Angel'
tp13
a(S'100001902381128'
S'Vikas Gautam'
tp14
a(S'100007956696480'
S'H\\u00ea\\u00e4rt L\\u00f8\\u00e7k\\u00ear Sh\\u00f9bh\\u00e3m \\u00d1\\u00efm'
tp15
a(S'100004181162659'
S'Gaurav Ak'
tp16
a(S'100002951011480'
S'Pooja Gautam'
tp17
a(S'100004582531593'
S'Pinky Gautam'
tp18
a(S'100006640719268'
S'Khatri Sahab'
tp19
a(S'100003644178708'
S'Meenu Gauttam'
tp20
a(S'100003654199038'
S'Parvesh Arya'
tp21
a(S'100004010525689'
S'Karishma Arya'
tp22
a(S'100008254452949'
S'Payal Arya'
tp23
a(S'100005663892397'
S'Shalini Singh'
tp24
a(S'100002982151557'
S'Tarun Love'
tp25
a(S'100006136205575'
S'Bharti Joshi'
tp26
a(S'100003140696574'
S'Neetu Tomer'
tp27
a(S'100006797797825'
S'\\u01a7h\\u0175\\u00ea\\u00ea\\u0163 K\\u012dll\\u00e9r Taru\\u00f1 Kum\\u00e3r'
tp28
a(S'100004247977222'
S'Sonia Choudhary'
tp29
a(S'100008235309853'
S'Shalini Singh'
tp30
a(S'100002497236978'
S'Pinky Gautam'
tp31
a(S'100004006136804'
S'Payal Arya'
tp32
a(S'100007289350115'
S'Parvesh Arya'
tp33
a(S'100004251365619'
S'Parvesh Gautam'
tp34
a(S'100003244429067'
S'Jatin Gautam'
tp35
asS'id'
p36
S'100003454887799'
p37
sS'name'
p38
S'Gitika Cool'
p39
s.