(dp1
S'friends'
p2
(lp3
(S'100006350624455'
S'Malik Khalid'
tp4
a(S'100002013631746'
S'Mir Akbar Khan Raisani'
tp5
a(S'100001476073682'
p6
S'Saif Ali Ali'
tp7
a(S'100005481967222'
S'Muhammad Saleem'
tp8
a(S'100002963165748'
S'Nawaz Baloch'
tp9
a(S'100001421321866'
S'Muqadas Garad'
tp10
a(S'100003209117616'
S'Fatima Ch'
tp11
a(S'100004077430025'
S'Dahri Husain'
tp12
a(S'100006684552244'
p13
S'Sarawan Jawan Force'
tp14
a(S'100004752992402'
p15
S'Brave Gurg'
tp16
a(S'100004140692176'
S'Sumira Khan'
tp17
a(S'100004963931412'
S'Jahad Khan Yousafzai'
tp18
a(S'100001263896724'
S'Waseem U. Khan'
tp19
a(S'100004188073448'
S'Nadeem Akhter'
tp20
a(S'100003952958351'
S'Cartoon Queen'
tp21
a(S'100005117825590'
S'Hayat Khan'
tp22
a(S'100003214907236'
S'Malik Babar'
tp23
a(S'100006848885292'
S'\\u013b\\u1ecdf\\u00e0\\u0159 M\\u0171\\u0148\\u0111\\u00e0'
tp24
a(S'100004408231439'
p25
S'Zakar Baloch'
tp26
a(S'100005781455814'
p27
S'Rana E Pakistan'
tp28
a(S'100005356481330'
S'Salman Baloch Kalpar'
tp29
a(S'100000146195704'
S'Zarshad Zarshadkhan'
tp30
a(S'100002605635149'
S'Syeda Mehreen Zehra'
tp31
a(S'100002464465676'
S'Manish Hotwani'
tp32
a(S'100004024950962'
S'Rahul Kumar'
tp33
a(S'100004342713364'
S'Shahdukht Sara'
tp34
a(S'100003137668603'
S'Pakistaan Khan'
tp35
a(S'100001441353833'
S'Sheraz Khan'
tp36
a(S'100002151450190'
S'Raja Waleed'
tp37
a(S'100004100949271'
S'\\u00d0\\u00e2\\u00f1g\\u00ear Pukht\\u00f6\\u00f6n Afridi'
tp38
a(S'100007627808039'
S'Sarfraz Ahmed'
tp39
a(S'100007559520554'
S'Lovely Khalistan'
tp40
a(S'100003729229442'
S'Waqar Bukhari'
tp41
a(S'100003861311461'
S'Aftab Chaudhary'
tp42
a(S'100002879778996'
S'Smg Khan'
tp43
a(S'100006820473825'
S'Israr Khan Joggezai'
tp44
a(S'100003784977413'
S'Raja Waleed Ahmad'
tp45
a(S'100007099922317'
S'Zakhmi Pukhtoon'
tp46
a(S'100001052079059'
S'Radiolux Olanchito'
tp47
a(S'100001161162196'
S'Max Bak'
tp48
a(S'100007204236264'
S'Sher Dill'
tp49
a(S'100001396313965'
S'Hamid Khan'
tp50
a(S'100005183405355'
S'Shakir Ullah'
tp51
a(S'100007003358380'
S'Gujjar Mlang'
tp52
a(S'100003049283675'
S'Wajiha Atique'
tp53
a(S'100004904622780'
p54
S'HaQqana Tawaar'
tp55
a(S'100004918657954'
p56
S'Proud Pak Kashmiri'
tp57
a(S'100003403393790'
S'Shahan Shani'
tp58
a(S'100002969999077'
S'Sumaiya Shah'
tp59
a(S'100003474165189'
S'Rashed Khan'
tp60
a(S'100003611126592'
p61
S'Sher Khan'
tp62
a(S'100001712893503'
S'Sehraan Malik'
tp63
a(S'100005406790237'
p64
S'Pforpakhtun PforPakistan'
tp65
a(S'100003917811251'
S'Rayyan Khan'
tp66
a(S'100000837167775'
p67
S'Pakistan Zindabad'
tp68
a(S'100004984388776'
S'Saba Jan'
tp69
a(S'100001505505270'
S'Muhammad Tayyab'
tp70
a(S'100000881596688'
S'Afshane Neni'
tp71
a(S'100003735374581'
p72
S'Pak Baloch'
tp73
a(S'100003763402852'
S'\\u0634\\u0647\\u0631 \\u0628\\u0627\\u0646\\u0648 \\u062e\\u0627\\u062a\\u0648\\u0646'
tp74
a(S'100003387810234'
S'Md Nurul Amin'
tp75
a(S'100005354980492'
S'Sohaib Khan Mehsud'
tp76
a(S'100003148256288'
S'Baloch Imran'
tp77
a(S'100004519687043'
S'Hakeem Luqqa'
tp78
a(S'100003183354857'
S'Aliha Butt'
tp79
a(S'100003246813368'
S'Saana Gul'
tp80
a(S'100002758602685'
S'Md Arshad'
tp81
a(S'100007777418849'
S'Pukhtun Yam'
tp82
a(S'100003952571652'
S'Spingul Yar Khan'
tp83
a(S'100004947572617'
S'M Qamar Shahzad'
tp84
a(S'100004101573574'
S'Jasim Uddin Choudhury'
tp85
a(S'100006411813257'
S'Tribal Khan'
tp86
a(S'100002278006297'
S'Mubshir Nawaz'
tp87
a(S'100002399567939'
p88
S'Zakria Zaki M Hassni'
tp89
a(S'100003987204888'
p90
S'Diya Rehman Khan'
tp91
a(S'100000687994266'
S'Danish Naseer'
tp92
a(S'100006109842448'
S'Awaz E Pakistan'
tp93
a(S'100006329384122'
S'Saleem Afridi'
tp94
a(S'100002549342376'
S'Abdullah Al Mamun'
tp95
a(S'100005216790199'
S'Sanam Wazir'
tp96
a(S'100003628948298'
S'Usman Lashkari'
tp97
a(S'100003651793895'
S'Laila Khan'
tp98
a(S'100003570564030'
S'Mansoor Ali'
tp99
a(S'100005490120881'
S'Maya Youal'
tp100
a(S'100002364407409'
S'Mohammed Maaz Siddiqui'
tp101
a(S'100001064857117'
S'Farooq Bugti'
tp102
a(S'100004007726435'
S'Aslam Khan'
tp103
a(S'100003086442561'
p104
S'Ghulam Fakhar Ud Din'
tp105
a(S'100005820820448'
p106
S'Ismail Khan'
tp107
a(S'100003885034160'
S'Son Anwer'
tp108
a(S'100001878883221'
S'Saima Khan'
tp109
a(S'100002003936598'
S"Jhanzaib's World-Widee"
tp110
a(S'100000086032339'
S'Luqman Qayyum'
tp111
a(S'100004067266288'
S'Samer Khan'
tp112
a(S'100003094097566'
S'Awais Khan'
tp113
a(S'100001469989831'
S'Asmat Khan'
tp114
a(S'100002525529701'
S'Angel Fatema'
tp115
a(S'100005246134618'
S'Sandeep Singh'
tp116
a(S'100003398623608'
S'Sahil Khan Afridi'
tp117
a(S'100003214339960'
S'Samia Khan'
tp118
asS'id'
p119
S'100005229124407'
p120
sS'name'
p121
S'Warriors Pakistan'
p122
s.