(dp1
S'name'
p2
S'Abhinav Joshi'
p3
sS'current_class'
p4
S'india'
p5
sS'home_class'
p6
Vnainital, uttarakhand, india
p7
sS'home_text'
p8
VNainital\u000aHometown
p9
sS'current_link'
p10
Vhttps://www.facebook.com/l.php?u=https%3A%2F%2Fwww.bing.com%2Fmaps%2Fdefault.aspx%3Fv%3D2%26pc%3DFACEBK%26mid%3D8100%26where1%3D28.613900916609%252C%2B77.207794189453%26name%3DNew%2BDelhi%252C%2BIndia%26mkt%3Den-IN&h=KAQGljQ83&s=1
p11
sS'home_link'
p12
Vhttps://www.facebook.com/l.php?u=https%3A%2F%2Fwww.bing.com%2Fmaps%2Fdefault.aspx%3Fv%3D2%26pc%3DFACEBK%26mid%3D8100%26where1%3D29.380300633862%252C%2B79.462738037109%26name%3DNainital%26mkt%3Den-IN&h=0AQGn4dP7&s=1
p13
sS'current_text'
p14
VNew Delhi, India\u000aCurrent City
p15
sS'friends'
p16
(lp17
(S'100000246384525'
p18
S'Abhinav Joshi'
tp19
a(S'100008297842170'
p20
S'Preksha Jain Papersentiments'
tp21
a(S'100007487551230'
p22
S'Ravi Verma'
tp23
a(g18
S'Abhinav Joshi'
tp24
a(g20
S'Preksha Jain Papersentiments'
tp25
a(g22
S'Ravi Verma'
tp26
asS'id'
p27
S'100000246384525'
p28
s.