(dp1
S'friends'
p2
(lp3
(S'100006381907688'
S'Abidali Abidali'
tp4
a(S'100006665853131'
S'Naeem Soomro'
tp5
a(S'1033886114'
S'Noor Bugti'
tp6
a(S'100000595903558'
S'Rashid Ali'
tp7
a(S'100001992843030'
S'Qazi Fareed'
tp8
a(S'100000075388950'
S'Imam Bugti'
tp9
a(S'625592519'
S'Hakim Ali'
tp10
a(S'100004730705478'
S'Amrita Ahuja'
tp11
a(S'100000681885524'
S'Mukhtiar Samo'
tp12
a(S'100000655757651'
S'Shuaib Ahmed Jamali'
tp13
a(S'1240860354'
S'Khalid Bugti'
tp14
a(S'728940889'
S'Nabeela Amin Sheikh'
tp15
a(S'100000064770951'
S'Minhaj Mousivi'
tp16
a(S'100003187585832'
S'Lala Barkat Baloch'
tp17
a(S'100005920453021'
S'Ashique Pathan'
tp18
a(S'100001632327881'
S'Tariq Ali'
tp19
a(S'100000568452385'
S'Amir Ali Abro'
tp20
a(S'100001656123289'
S'Naseer Bugti'
tp21
a(S'100001500618410'
S'Irshad Baghi'
tp22
a(S'100006901270223'
S'Areeba Malik'
tp23
a(S'1249599842'
S'Ayaz Hussain'
tp24
a(S'100007059093396'
S'Ali Murad Kamario'
tp25
a(S'1371050485'
S'Tariq Badvi'
tp26
a(S'100007103491906'
S'Moumita Banerjee'
tp27
a(S'100001786014150'
S'Irshad Ali Khuhawar'
tp28
a(S'100001179008134'
S'Nazir Siyal'
tp29
a(S'100000193732744'
S'Mehmood Pathan'
tp30
a(S'100006713133543'
S'Nida Ali'
tp31
a(S'100001560607477'
S'Imdad Ali Kalwar'
tp32
a(S'100008012770188'
S'Sobia Ali'
tp33
a(S'100002468131768'
S'Aslam Rajput'
tp34
a(S'1685828111'
S'Barkat Ali Khokhar'
tp35
a(S'1565269222'
S'Abbas Khan'
tp36
a(S'100006733291556'
S'Ali Akbar'
tp37
a(S'100000439425866'
S'Ali Raza Syed'
tp38
a(S'1265622280'
S'Ncbp Ngo'
tp39
a(S'100000757217333'
S'Aijaz Ali Chandio'
tp40
a(S'100000553356126'
S'Shahid Ali Rind'
tp41
a(S'100003298225789'
S'Wahab Jarwar'
tp42
a(S'100000040277224'
S'Noor Nabi Shaikh'
tp43
a(S'100000324478522'
S'Iftikhar Arain'
tp44
a(S'100000579709583'
S'Rizwan Gul'
tp45
a(S'616027666'
S'Palijo Sindh'
tp46
a(S'100000243840739'
S'Imdad Abbasi'
tp47
a(S'1027014041'
S'Sajid Pirzada'
tp48
a(S'689441637'
S'Muhammad Ali Soomro'
tp49
a(S'100007474866950'
S'Naz Aslam'
tp50
a(S'100000425847822'
S'Zubair Zarar Mangi'
tp51
a(S'100000276528672'
S'Mohammad Zakria Bugti'
tp52
a(S'100007742434534'
S'Muzafar Ali Bugti'
tp53
a(S'100000677888179'
S'Soomro Rashid'
tp54
a(S'100006925572073'
S'Abdul Jabbar Memon'
tp55
a(S'739698914'
S'Jamal Dawoodpoto'
tp56
a(S'100000618903067'
S'Muzamil Yaseen'
tp57
a(S'100000717100118'
S'A Qayoom Chandio'
tp58
a(S'100000151211410'
S'Zaain Pathan'
tp59
a(S'100003756152474'
S'Baloch King'
tp60
a(S'1111676583'
S'Baloch Larkana'
tp61
a(S'100002360409500'
S'Tahir Ali'
tp62
a(S'100004708208420'
S'Nawabzada Zargam Bugti'
tp63
a(S'100000111833532'
S'Asma Amin Khurshid Bhandari'
tp64
a(S'100001245824165'
S'Lala Rehman'
tp65
a(S'100000529527840'
S'Mukhtiar Jagirani'
tp66
a(S'812790838'
S'Shan Dahar'
tp67
a(S'100000473902718'
S'Nadeem Akhtar Soomro'
tp68
a(S'100000488030340'
S'Zahoor Baig Ruhhmauny'
tp69
a(S'100000445499292'
S'Shoaib Thaheem'
tp70
a(S'100003083502420'
S'Mohammad Haneef Suhag'
tp71
a(S'139300409'
S'Arshia Haq'
tp72
a(S'100000434308774'
S'Fayaz Anwar Bukhari'
tp73
a(S'765819869'
S'Syed Muhammad Abbas'
tp74
a(S'1410652657'
S'Asif Jaan'
tp75
a(S'100002038366510'
S'Ali Osaf'
tp76
a(S'100000236530129'
S'Khalil Jibran Abbasi'
tp77
a(S'1834906702'
S'Razak Khatti'
tp78
a(S'1350894682'
S'Sarfraz Ali'
tp79
a(S'100003612072197'
S'Kamran Khuhawar'
tp80
a(S'100001328828270'
S'Sajid Sindhi'
tp81
a(S'100000710856506'
S'Nadir Guramani'
tp82
a(S'100001187966129'
S'Abdul Aleem Lashari'
tp83
a(S'100000125208868'
S'Iftikhar Shah'
tp84
a(S'100003867015830'
S'Shehr Bano'
tp85
a(S'1203494530'
S'Kazi Aijaz'
tp86
a(S'1050462807'
S'Mohram Ali'
tp87
a(S'1185618369'
S'Fayaz Ahmed Memon'
tp88
a(S'100000631476729'
S'Sania Shah'
tp89
a(S'672991607'
S'Qazi Asif'
tp90
a(S'100001026579324'
S'Ghulam Sarwar Sarwarali'
tp91
a(S'100007570841643'
S'Batool Janjua'
tp92
a(S'1557752052'
S'Mohammad Shoaib Yar Khan'
tp93
a(S'100000697401172'
S'Zulifqar Guramani'
tp94
a(S'100000628497810'
S'\\u0642\\u0627\\u0636\\u06cc \\u0641\\u0627\\u0636\\u0644'
tp95
a(S'732350938'
S'Riyaz Hussain Soomro'
tp96
a(S'100000422565674'
S'Manzoor Isran'
tp97
a(S'100002688227037'
S'Nawaz Mangi'
tp98
a(S'100002936373916'
S'Salman Janvri'
tp99
a(S'100006689855622'
S'Shafqat Soomro'
tp100
a(S'100000179489278'
S'Asif Ali Tunio'
tp101
a(S'100000298218353'
S'Abdul Rehman Bhutto'
tp102
a(S'100000541407261'
S'Nida Siddiqui'
tp103
asS'id'
p104
S'100007474204571'
p105
sS'name'
p106
S'Bakhtiar Bugti'
p107
s.