(dp1
S'friends'
p2
(lp3
(S'100004121135295'
S'Nowroz Mangal'
tp4
a(S'100004975410972'
S'Gran Afghanistan'
tp5
a(S'100000254792970'
S'Sabeel Rokhan'
tp6
asS'id'
p7
S'100000254792970'
p8
sS'name'
p9
S'Sabeel Rokhan'
p10
s.