(dp1
S'friends'
p2
(lp3
(S'501541606'
S'Shilpi Singh'
tp4
a(S'1125646959'
S'Amrita Verma Chowdhury'
tp5
a(S'1005353607'
S'Ujjwal Singh'
tp6
a(S'1374272178'
S'Rika Singh'
tp7
a(S'100004739520565'
S'Neena Singh'
tp8
a(S'100000562812443'
S'Sapna Agarwal'
tp9
a(S'1067212471'
S'Roshita Kumar Prasad'
tp10
a(S'1550895676'
S'Shashwat Singh'
tp11
a(S'100000083025677'
S'Sonia Khurana'
tp12
a(S'1082476719'
S'Ritika Bhriguvanshi'
tp13
a(S'529168695'
S'Ajita Singh'
tp14
a(S'1593143249'
S'Nidhi Singh'
tp15
a(S'1071133000'
S'Yashi Singh'
tp16
a(S'527781784'
S'Pragati Bakshi Gupta'
tp17
a(S'100005792592619'
S'Nutan Sinha'
tp18
a(S'100001217521068'
S'Lata Chowdhray'
tp19
a(S'100000721515349'
S'Meenu Dang'
tp20
a(S'662767903'
S'Tulika Sharan'
tp21
a(S'1156343405'
S'Vishwajit Singh'
tp22
a(S'1237401616'
S'Sangeeta Khanna Alka Chopra'
tp23
a(S'100001521291739'
S'Dhoopa Singh'
tp24
a(S'100000205312437'
S'Neena Sharma'
tp25
a(S'652551045'
S'Kajari Kamal'
tp26
a(S'524929030'
S'Madhumita Dutta'
tp27
a(S'100001149404961'
S'Gayatri Singh'
tp28
a(S'100000888028000'
S'Kakoli Tiwari'
tp29
a(S'100000060001981'
S'Meera Kaul Shah'
tp30
a(S'1041153773'
S'Nivedita Israni'
tp31
a(S'1540805323'
S'Neelam Vinay'
tp32
a(S'100001054241373'
S'Archana Chaturvedi'
tp33
a(S'100000664389752'
S'Sheetal Bhasin'
tp34
a(S'1087358484'
S'Meghna Sharma'
tp35
a(S'615632175'
S'Prasenjit Singh'
tp36
a(S'100000675534610'
S'Ritwik Bhriguvanshi'
tp37
a(S'583313409'
S'Vineet Prakash'
tp38
a(S'671211873'
S'Anupam Singh'
tp39
a(S'733595549'
S'Ashok Mukherjee'
tp40
a(S'1712935047'
S'Shivangi Singh'
tp41
a(S'100000074096479'
S'Shobhana Sharma'
tp42
a(S'590536109'
S'Rashmi Verma'
tp43
a(S'1154391250'
S'Shrijit Singh'
tp44
a(S'100001109076529'
p45
S'Shambhavi Bhriguvanshi'
tp46
a(S'594878482'
S'Ravi Singh'
tp47
a(S'100000079433590'
S'Kumar Rakesh'
tp48
a(S'1013755562'
S'Roli Singh Chauhan'
tp49
a(S'1374010667'
S'Rishi Agarwal'
tp50
a(S'1225283963'
S'Rohit Singh'
tp51
a(S'100000695893547'
S'Sapna Sharma'
tp52
a(S'1092395256'
S'Surabhi Singh'
tp53
a(S'1808333513'
S'Rishika Trivedi'
tp54
a(S'100001622190293'
S'Manju Singh'
tp55
a(S'100001024899495'
S'Anurag Kapil'
tp56
a(S'1581936801'
S'Sanjiv Mathur'
tp57
a(S'724163872'
S'Sanjiv Singh'
tp58
a(S'100000524206633'
S'Sanjay Shah'
tp59
a(S'100002447500771'
S'Swati Joshi'
tp60
a(S'579840136'
S'Karishma Singh'
tp61
a(S'726717373'
S'Surya Kumar Singh'
tp62
a(S'736273777'
S'Manish Kumar'
tp63
a(S'780190706'
S'Ram Mohan Tiwari'
tp64
a(S'100005862726066'
S'Tanu Chauhan'
tp65
a(S'1586809762'
S'Rashi Chatterjee'
tp66
a(S'623071365'
S'Richa Kachhwaha'
tp67
a(S'580102714'
S'Kanika Singh'
tp68
a(S'1438634645'
S'Devika Agarwal'
tp69
a(S'1801203890'
S'Nirmala Paul'
tp70
a(S'100001419509073'
S'Shivendra Singh'
tp71
a(S'100001575542012'
S'Ahmed Hyder'
tp72
a(S'100004736552424'
S'Shivangi Bahuguna'
tp73
a(S'100000659469731'
S'Anuradha Guru'
tp74
a(S'100002448528845'
p75
S'Archana Choudhary'
tp76
a(S'1324131165'
S'Benu Singh'
tp77
a(S'100002986706825'
S'Reema Nanda'
tp78
a(S'603130864'
S'Reeta Agarwal'
tp79
a(S'100001295585801'
S'Rashi Dubey'
tp80
a(S'508280199'
S'\\u0928\\u0941\\u092a\\u0942\\u0930 \\u0938\\u093f\\u0902\\u0939'
tp81
a(S'100000595431023'
S'Shalini Shori'
tp82
a(S'1115496790'
S'Amrita Ranjan'
tp83
a(S'100002424919596'
S'Kailash Srivastav'
tp84
a(S'100001767323040'
S'Radhika Loomba'
tp85
a(S'100000761423483'
S'Babli Singh'
tp86
a(S'1015264296'
S'Rahul Singh'
tp87
a(S'100000581030443'
S'Monika Sahai'
tp88
a(S'1597478190'
S'Vandana Verma'
tp89
a(S'1717790566'
S'Raghav Verma'
tp90
a(S'1433731264'
S'Vasundhra Gupta'
tp91
a(S'586786437'
S'Sanjana Raj'
tp92
a(S'502008380'
S'Vitasta Shah'
tp93
a(S'575383727'
S'Yamini Singh'
tp94
a(S'663196732'
S'Vimalendu Verma'
tp95
a(S'730589147'
S'Smita Singh'
tp96
a(S'100003009300630'
S'Radha Rani'
tp97
a(S'100004325403065'
S'Dinesh Katyal'
tp98
a(S'100000301454252'
S'Uththara Iroshini Silva'
tp99
a(S'626227452'
S'Shikha Singh'
tp100
a(S'510598611'
S'Shreya Singh'
tp101
a(S'611764429'
S'Mihika Sinha'
tp102
a(S'548714377'
S'Smita Srivastava'
tp103
a(S'664718806'
S'Vatsala Singh'
tp104
asS'id'
p105
S'100001592067316'
p106
sS'name'
p107
S'Leena Singh'
p108
s.