(dp1
S'current_text'
p2
VIslamabad, Pakistan\u000aCurrent City
p3
sS'name'
p4
S'Azeez AhmAd'
p5
sS'current_class'
p6
S'pakistan'
p7
sS'friends'
p8
(lp9
(S'100008228942996'
p10
S'Azeez AhmAd'
tp11
asS'id'
p12
g10
sS'current_link'
p13
Vhttps://www.facebook.com/l.php?u=https%3A%2F%2Fwww.bing.com%2Fmaps%2Fdefault.aspx%3Fv%3D2%26pc%3DFACEBK%26mid%3D8100%26where1%3D33.699999951882%252C%2B73.166198730469%26name%3DIslamabad%252C%2BPakistan%26mkt%3Den-IN&h=_AQGOt-RO&s=1
p14
s.