(dp1
S'friends'
p2
(lp3
(S'100004035531740'
S'Malay Garg'
tp4
a(S'100003575505119'
S'AbhiJeet AgharKar'
tp5
a(S'100005478577230'
S'Pratik Lahiri'
tp6
a(S'100000278631341'
S'Kartikeya Tripathi'
tp7
a(S'100006869204127'
S'Utsav Kataria'
tp8
a(S'1247514761'
S'Ishita Agarwal'
tp9
a(S'100000120069322'
S'Ujjwala Gulati'
tp10
a(S'100003075472219'
S'Samarjeet Singh'
tp11
a(S'733901528'
S'Ariz Ali'
tp12
a(S'100003980072097'
S'Vidushi Prasad'
tp13
a(S'100000370558728'
S'Divye Ahlawat'
tp14
a(S'1222116687'
S'Anwesha Mishra'
tp15
a(S'1785796568'
S'Pulkit Kejriwal'
tp16
a(S'100004542522423'
S'Ishita Agarwal'
tp17
a(S'100007582146712'
S'Rahul Nanda'
tp18
a(S'100001263287816'
S'Sharanya Sinha'
tp19
a(S'100004178982848'
S'Soumya Sinha'
tp20
a(S'100001808602833'
S'Rohan Danday'
tp21
a(S'100003150386892'
S'Deepank Dewan'
tp22
a(S'100002093772175'
S'Kundana Parchuri'
tp23
a(S'100006953889883'
S'Pramath Misra'
tp24
a(S'100003883774466'
S'Pratyaksh Varma'
tp25
a(S'100003713898743'
S'Adya Jha'
tp26
a(S'823488501'
S'Sobhan Kar'
tp27
a(S'100001335655038'
S'Aridaman Singh'
tp28
a(S'100001482767147'
S'Dhruv Bittoo Sharma'
tp29
a(S'100006255133707'
S'Ayaan Ali'
tp30
a(S'100006136541615'
S'Syed Hamadan Ahmad'
tp31
a(S'100000927902961'
S'Yash Gupta'
tp32
a(S'100004718523052'
S'Dev Kesar'
tp33
a(S'100002144155230'
S'Vedaansh Uberoi'
tp34
a(S'100002485314071'
S'Vageesh Gaur'
tp35
a(S'100007340431060'
S'Shrey Bishnoi'
tp36
a(S'100001253305926'
S'Aviva Tuteja'
tp37
a(S'100002499253266'
S'Pranava Dhar'
tp38
a(S'100000798648979'
S'Rehan Ibrahim'
tp39
a(S'100003213572727'
S'Ishan Parashar'
tp40
a(S'100003488457913'
S'Mehika Arora'
tp41
a(S'1548098511'
S'Ashima Singh'
tp42
a(S'100001671825129'
S'Soumya Goel'
tp43
a(S'633281912'
S'Vijay Rawat'
tp44
a(S'100001038401445'
S'Ayush \\u03a8 Anand'
tp45
a(S'100002134214642'
S'Karamjit S Bedi'
tp46
a(S'100008156083647'
S'Parul Jain'
tp47
a(S'100000816619240'
S'Harsh Vardhan Sah'
tp48
a(S'100001422345767'
S'Sukesh Jain'
tp49
a(S'100000538447544'
S'Swapnil Karki'
tp50
a(S'100000635440487'
S'Aneshaa Bhatnagar'
tp51
a(S'100003605586696'
S'Poonam Tyagi'
tp52
a(S'100001236140496'
S'Ansh Jain'
tp53
a(S'100003087584309'
S'Nimit Rastogi'
tp54
a(S'100001028673280'
S'Pranav Mehrotra'
tp55
a(S'100005050954078'
S'Palak Khurana'
tp56
a(S'100000856032632'
S'Shlok Saraogi'
tp57
a(S'100001740239110'
S'Ujjawal Jain'
tp58
a(S'100007138959173'
S'Rohan Joshi'
tp59
a(S'100006511111873'
S'Yash Verma'
tp60
a(S'100003716284928'
S'Hamza Qureshi'
tp61
a(S'100000562594354'
S'Ayesha Narang'
tp62
a(S'100001757839033'
S'Raghav Batra'
tp63
a(S'100001551940085'
S'Kiran Kumar Mishra'
tp64
a(S'100004565381402'
S'Pranjal Agarwal'
tp65
a(S'1059717834'
S'Shashwat Baxi'
tp66
a(S'100006837463887'
S'Hamza Qureshi'
tp67
a(S'100000563373140'
S'Sahil Gupta'
tp68
a(S'100006348636636'
S'Aishwarya Pandey'
tp69
a(S'100006802779099'
S'Shristi Gupta'
tp70
a(S'100000563967082'
S'Mahir Pandhi'
tp71
a(S'100001977544229'
S'Samarth Jain'
tp72
a(S'100000941892060'
S'Akanksha Kushwaha'
tp73
a(S'100003055909891'
S'Himanshu Mishra'
tp74
a(S'100000186833254'
S'Ayush Narang'
tp75
a(S'100002670724478'
S'Ria Verma'
tp76
a(S'100006726493469'
S'Ishita Mangal'
tp77
a(S'1448291322'
S'Harshita Kejriwal'
tp78
a(S'100001744368651'
S'Sukh Sehaj Singh'
tp79
a(S'100005544576065'
S'Nischint Dhar'
tp80
a(S'100002200088932'
S'Priyal Kothari'
tp81
a(S'100004587693011'
S'Aman Bajpai'
tp82
a(S'100003339344616'
S'Syed Armaan Hussain'
tp83
asS'id'
p84
S'100003600778941'
p85
sS'name'
p86
S'Rishabh Kumar Jain'
p87
s.