(dp1
S'friends'
p2
(lp3
(S'100002769912662'
S'Ashish Arora'
tp4
a(S'100001432496324'
S'Karan Yadav'
tp5
a(S'100005001151238'
S'Harsh Malhotra'
tp6
a(S'100003710054932'
S'Mamta Shrma'
tp7
a(S'100000677710370'
S'Bharti Verma'
tp8
a(S'100004502107465'
S'Barkha Kapoor'
tp9
a(S'100002311291586'
S'Riya Agrawal'
tp10
a(S'100002145432560'
p11
S'Himanshu Sachdeva'
tp12
a(S'100002338242012'
S'Vikram Singh'
tp13
a(S'100001273771354'
S'Vikas Tyagi'
tp14
a(S'100007265349177'
S'Harish Sethi'
tp15
a(S'100002188132249'
S'Aswani Kumar'
tp16
a(S'1138406473'
S'Paras Sharma'
tp17
a(S'100004413876202'
S'Sunil Kumar'
tp18
a(S'100002139148347'
S'Ashish Kumar'
tp19
a(S'1682045273'
S'Prasanta Roy'
tp20
a(S'100003638137554'
S'Deepali Soni'
tp21
a(S'672389813'
S'Himali Chandwani'
tp22
a(S'1767892077'
S'Vikas Malhotra'
tp23
a(S'100001203418175'
S'Sheetal Thakur'
tp24
a(S'100004756270527'
p25
S'Ekta Kapoor'
tp26
a(S'100003310879288'
S'Khushi Saima'
tp27
a(S'708974655'
p28
S'Gautam Bhasin'
tp29
a(S'100000832241672'
S'Piyush Pathak'
tp30
a(S'100001832944401'
S'Anoop Singh'
tp31
a(S'100001782583205'
S'Rajguru Sahani'
tp32
a(S'100004861690327'
S'Raj Sehgal'
tp33
a(S'100002228913876'
p34
S'Annu Gautam'
tp35
a(S'100001556803758'
S'Neha Mishra'
tp36
a(S'100008385185253'
S'Vivek Kataria'
tp37
a(S'100005673221208'
S'Anil Kugiyal'
tp38
a(S'100002749074255'
S'Sayed Maria'
tp39
a(S'100001057451599'
S'Sukhvinder Singh'
tp40
a(S'100003969945268'
p41
S'Neha Sahni'
tp42
a(S'100001365015242'
S'Archna Khushi'
tp43
a(S'1710473469'
S'Bhanu Dhiman'
tp44
a(S'100001650849521'
S'Rachna Sardana'
tp45
a(S'100000580331618'
p46
S'Jay Malhotra'
tp47
a(S'100005384826130'
S'Nazia Naaz'
tp48
a(S'100005349674537'
p49
S'Meenakshi Nijhawan'
tp50
a(S'100004504414809'
S'Chetan Anand'
tp51
a(S'100000823442501'
S'Gaurav Devgan'
tp52
a(S'100002670916631'
p53
S'Divya Sehgal'
tp54
a(S'100008074056534'
S'Aanchal Kapoor'
tp55
a(S'100003937903797'
S'Barkha Kapoor'
tp56
a(S'100001803352609'
S'Bharat B Popping'
tp57
a(S'100002237785024'
S'Divanshu Arora'
tp58
a(S'100001411626964'
S'Govind Naidu'
tp59
a(S'100003017818105'
S'Sameer Sharma'
tp60
a(S'100001919037037'
S'Trisha Sehgal'
tp61
a(S'100000197756403'
S'Manoj Sharma'
tp62
a(S'631186561'
S'Ankush Jain'
tp63
a(S'100005133373796'
p64
S'Veena Sawhney'
tp65
a(S'100003575996504'
S'Sayed Mary'
tp66
a(S'100002901655930'
S'Pankaj Sahni'
tp67
a(S'100001612305927'
S'Awadhesh Kumar B'
tp68
a(S'100002386311326'
S'Shivani Raj Malhotra'
tp69
a(S'100002324063528'
S'Sonia Malhotra'
tp70
a(S'100000028594833'
S'Navneet Singh'
tp71
a(S'100002561130111'
S'Sharad Lohia'
tp72
a(S'836255540'
S'Ajay Sonawane'
tp73
a(S'100005584811113'
S'Amit Nijhawan'
tp74
a(S'100001108294619'
S'Neha Manocha'
tp75
a(S'100000122999020'
S'Aman Kapoor'
tp76
a(S'100000697536671'
S'Neha Tyagi'
tp77
a(S'100006540047229'
S'Ravi Kumar'
tp78
a(S'100002015904499'
S'Harinder Singh'
tp79
a(S'100002118488842'
S'Anand Singh'
tp80
a(S'100000789863654'
S'Bhajji Singh'
tp81
a(S'100004980486062'
S'Tamanna Singh'
tp82
a(S'100004103319893'
S'Rajni Singh'
tp83
a(S'100001563498178'
p84
S'Ravi Sahni'
tp85
a(S'100004329842060'
S'Aman Thehacker'
tp86
a(S'100001656286426'
S'Dev Arora'
tp87
a(S'100001446664115'
S'Smile Erases Anger'
tp88
a(S'100003295315710'
S'Adarsh Singh'
tp89
a(S'100001444652026'
S'Shreyasi Anders'
tp90
a(S'100002911862071'
p91
S'Nikhil Verma'
tp92
a(S'100006415891082'
S'Roli Kapoor'
tp93
a(S'100002008341768'
S'Pooja Khurana'
tp94
a(S'100000452956079'
S'Ojasvi Chandra'
tp95
a(S'100001654780299'
S'Sumit Chawla'
tp96
a(S'100006082693459'
S'Sunny Gupta'
tp97
a(S'100002766061965'
p98
S'Rohit Sehgal'
tp99
a(S'100001759689312'
p100
S'Rohit Kumar Gautam'
tp101
a(S'100003244079136'
S'Sakshi Goswami'
tp102
a(S'100006366427195'
p103
S'Sneha Sharma'
tp104
a(S'100003579806487'
S'SweetyTara Choudhary'
tp105
a(S'100003525793982'
S'Sania Sharma'
tp106
a(S'100001936950757'
S'ArJun MalHotra'
tp107
a(S'100001588027289'
S'Soni Yogesh'
tp108
a(S'100000805880880'
S'Aayushee Adlakha'
tp109
a(S'100001538858692'
S'Mohinder Singh Rathore'
tp110
a(S'100004251365619'
p111
S'Parvesh Gautam'
tp112
a(S'100001729167897'
p113
S'Rohit Sehgal'
tp114
a(S'100003258711802'
p115
S'Vandana Kashyap'
tp116
a(S'100001712342069'
p117
S'Neeraj Sachdeva'
tp118
a(S'100002616004301'
S'Kajal Virmani'
tp119
a(S'100001395709642'
S'Karan Malhotra'
tp120
a(S'100002190988806'
p121
S'Meenu Kapoor'
tp122
a(S'100000315798062'
S'Kuldeep Rawat'
tp123
a(S'100002153760330'
S'Kishan Arora'
tp124
a(S'1036115228'
S'Nitin Manocha'
tp125
a(S'100001599725451'
S'Shazim Ali'
tp126
a(S'100001212391450'
S'Tapan Yadav'
tp127
a(S'100000744186792'
S'Rishabh Rawat'
tp128
a(S'100000662336845'
S'Raghvendra Singh Rajput'
tp129
a(S'100002935470885'
S'Mahima Kapoor'
tp130
a(S'100001649589362'
S'Diya Ds'
tp131
a(S'100003766027037'
S'Bobby Rajput'
tp132
a(S'100004286738054'
S'Suryaveer Singh Rawat'
tp133
a(S'100001334052884'
S'Kajal Sharma'
tp134
a(S'100001442191777'
S'Sachin Aggarwal'
tp135
a(S'100000556427479'
S'Archna Negi'
tp136
a(S'1000117889'
S'Nimmi Saxena'
tp137
a(S'100005957141796'
S'Surabhi Kaur Sudan'
tp138
a(S'100003161307589'
S'Sneha Verma'
tp139
a(S'100001802836020'
S'Rahul Nagar'
tp140
a(S'100002567447993'
S'Barkha Kapoor'
tp141
a(S'100001517080869'
S'Abhay Kumar'
tp142
a(S'100001669447615'
S'King Kailash Rawat'
tp143
a(S'100008048471941'
S'Jagdish Mehra'
tp144
a(S'100001334504592'
S'Shruti Kakkar'
tp145
a(S'100000019479985'
S'Shiva Shankaran'
tp146
a(S'100003923150961'
S'Sandeep Kumar'
tp147
a(S'100001592133422'
S'Sachin Sharma'
tp148
a(S'100001253200660'
S'Adnan Jameel'
tp149
a(S'100006471240541'
p150
S'Vaishali Sahni'
tp151
a(S'100002624448483'
S'Karan Malhotra'
tp152
a(S'100000881600249'
S'Karan Malwal'
tp153
asS'id'
p154
S'100001487140562'
p155
sS'name'
p156
S'Maddy Sawhney'
p157
s.