(dp1
S'friends'
p2
(lp3
(S'1018857597'
S'Rajat Philip'
tp4
a(S'1526994778'
S'Nishant Stephen'
tp5
a(S'745985817'
S'Ashish Joseph'
tp6
a(S'100002389026942'
S'Mathew Joseph'
tp7
a(S'1615018224'
S'Mahasweta Bagchi'
tp8
a(S'100003625499078'
S'Dias Antony Thakidiyel'
tp9
a(S'1006422998'
S'Bhavya Anand'
tp10
a(S'100003064206752'
S'Shakti Singh Arya'
tp11
a(S'557905418'
S'Chhayankdhar Singh Rathore'
tp12
a(S'1508146987'
S'Mudit Aggarwal'
tp13
a(S'707912069'
S'Ayush Ranjan'
tp14
a(S'100002534448098'
S'Vikas Bhati'
tp15
a(S'1327779213'
S'Shruti Sethi'
tp16
a(S'1668459153'
S'Roy Joseph'
tp17
a(S'1148412288'
S'Asmita Goyanka'
tp18
a(S'100004127982894'
S'Jiyash G Philipose'
tp19
a(S'1255101838'
S'Aradhana Gupta'
tp20
a(S'1155828229'
S'Maria Kuruvilla'
tp21
a(S'100000648431978'
S'Tintumol Joseph'
tp22
a(S'100000955489648'
S'Jeny Yaldo'
tp23
a(S'1083090693'
S'Philip Here'
tp24
a(S'1627385259'
S'Anithasree Athiyaman'
tp25
a(S'1259363501'
S'Raghvendra Bishnoi'
tp26
a(S'1115209012'
S'Sneha Khaund'
tp27
a(S'557630277'
S'Antony Aron'
tp28
a(S'1433994034'
S'Siddharth Chakravortty'
tp29
a(S'100002886663879'
S'Preethish Raja'
tp30
a(S'100000609043373'
S'Ashok Vardhan'
tp31
a(S'1004173123'
S'Nitigya Batra'
tp32
a(S'100003693284527'
S'Theresa John Mangalath'
tp33
a(S'100000526351774'
S'Tanya Filbert'
tp34
a(S'100001988937930'
S'Chandrima Attri'
tp35
a(S'1238898949'
S'Arvind Pillai'
tp36
a(S'683720363'
S'Ishaan Bhatia'
tp37
a(S'1069284559'
S'Mayank Garg'
tp38
a(S'100000797637449'
S'Shesy Shaji'
tp39
a(S'1550414142'
S'Simran Keshwani'
tp40
a(S'100004363775519'
S'Anavila Lochan'
tp41
a(S'601897734'
S'Louis Pereira'
tp42
a(S'100003248115814'
S'Salini Johnson'
tp43
a(S'100000534927301'
S'Sunny Thomas'
tp44
a(S'100000106600174'
S'Lawrence Simte'
tp45
a(S'1772051861'
S'Divya Sebastian'
tp46
a(S'1784875826'
S'Aniket Baksy'
tp47
a(S'100001069033719'
S'Navodita Lakra'
tp48
a(S'618581715'
S'Ananya Diwa'
tp49
a(S'1286239621'
S'Indu Nair'
tp50
a(S'1531094084'
S'Divey Setia'
tp51
a(S'1515990716'
S'Ann Varghese'
tp52
a(S'1445351179'
S'Surabhi Gupta'
tp53
a(S'1476228301'
S'Hardik Choudhary'
tp54
a(S'1099905728'
S'Divya Kapur'
tp55
a(S'1175080530'
S'Reuben Noronha'
tp56
a(S'100004004090121'
S'Sylvia Lall'
tp57
a(S'100001171958828'
S'Basit Malik'
tp58
a(S'100000210096158'
S'Vivek George Kuriakose'
tp59
a(S'1645640382'
p60
S'Arjoonn Sharma'
tp61
a(S'1148079329'
S'Agape Mary Mammen'
tp62
a(S'1493471560'
S'Natasha Garg'
tp63
a(S'100000476056207'
S'Sharda Sharma'
tp64
a(S'1564903903'
S'Lakshay Batra'
tp65
a(S'1168756435'
S'Aakash Nain'
tp66
a(S'100001080296049'
S'Suyash Saxena'
tp67
a(S'100001666347060'
S'Rashmi Jain'
tp68
a(S'100002660655416'
S'Prakhar Srivastava'
tp69
a(S'1297392210'
S'Astha Stephen'
tp70
a(S'1303501491'
S'Divya Murugesan'
tp71
a(S'1312204917'
S'Ribhav Pande'
tp72
a(S'100004078954159'
S'Arshia Jacob'
tp73
a(S'100001063677102'
S'Sukrit Joshi'
tp74
a(S'1019804907'
S'Mrittunjoy Guha Majumdar'
tp75
a(S'1362807500'
S'Anuroop Sunny'
tp76
a(S'1448228746'
S'Taisha Antony'
tp77
a(S'543832536'
S'Varun Gupta'
tp78
a(S'100004107336413'
S'Juhi Prasad'
tp79
a(S'1249835516'
S'Vinayak Shanker Sharma'
tp80
a(S'617160017'
S'Nikhil Pandhi'
tp81
a(S'100000622956548'
S'Gagan Mahajan'
tp82
a(S'100002126777269'
S'Muhaymin Khan'
tp83
a(S'1156918437'
S'Alankrit Kharbanda'
tp84
a(S'100000576084005'
S'Param Adiseshiah'
tp85
a(S'100004552329354'
S'Ayushi Kathayat'
tp86
a(S'1353259712'
S'Sangeeth Sugathan'
tp87
a(S'522578085'
S'Natasha Varughese'
tp88
a(S'100002056353777'
S'Athul P Kurian'
tp89
a(S'100000729759879'
S'Jeffrey Mathews'
tp90
a(S'100002466521099'
S'Justrus Mathew'
tp91
a(S'1760217864'
S'Girish Chander Singh'
tp92
a(S'1547162535'
S'Oishee Kundu'
tp93
a(S'1252741009'
S'Saloni Goel'
tp94
a(S'1388410104'
S'Alphie Joseph'
tp95
a(S'100000068054327'
S'Winil Jacob'
tp96
a(S'521717367'
S'Vineet David'
tp97
a(S'100001744400073'
S'David Charles'
tp98
a(S'834762431'
S'Pulkit Bakshi'
tp99
a(S'100003828734614'
S'Janet Joy'
tp100
a(S'1192453296'
S'Nishant Singla'
tp101
a(S'639343096'
S'Kevin Samuel Vineeth'
tp102
a(S'1593084569'
S'Sachu Sanil Chemmalakuzhy'
tp103
a(S'100004244943062'
S'\\u016ar\\u1e47\\u0101 Mukherjee'
tp104
asS'id'
p105
S'100005652701280'
p106
sS'name'
p107
S'Ananya Filbert'
p108
s.