(dp1
S'friends'
p2
(lp3
(S'100003982345238'
S'Leonardo Pelegrin Dos Santos'
tp4
a(S'100004271851726'
S'Nupur Joshi'
tp5
a(S'100004470064326'
S'Hades Elysion'
tp6
a(S'100002180396157'
S'Mariuseugen Bolohan'
tp7
a(S'588063419'
S'Kareem Mohamed Naguib'
tp8
a(S'100000121828555'
S'Sylvie Courde'
tp9
a(S'100002023560675'
S'Dayan Rios Ortiz'
tp10
a(S'100003259732892'
S'Mabii Garcia'
tp11
a(S'100003881834013'
S'Matteo Guedes'
tp12
a(S'100002073031188'
p13
S'Alma Lizbet Flores'
tp14
a(S'100002486359111'
S'Cathy Girard'
tp15
a(S'1733578309'
S'Mickael Scofield'
tp16
a(S'100000694271993'
S'Bluebunny Tan'
tp17
a(S'100004295342669'
S'Toru Kunio'
tp18
a(S'100002508988157'
p19
S'Daniela Tantica'
tp20
a(S'1572548847'
S'Lora Nepamenu'
tp21
a(S'100004290842222'
S'Ni  Ton'
tp22
a(S'100001242318226'
S'Miros\\u0142aw Urba\\u0144ski'
tp23
a(S'100004170608260'
S'Katia Figueroa'
tp24
a(S'1304079597'
S'Fabi Gama'
tp25
a(S'100004052173533'
S'Patryk Kolartych'
tp26
a(S'100000505376045'
S'Sergio Borja'
tp27
a(S'100004734097575'
S'Iuliana Constantin'
tp28
a(S'100003046695638'
S'Ernestine Bl\\u00fctenstaub \\u029a\\u00ef\\u025e'
tp29
a(S'100001004264265'
S'Josues Gomes'
tp30
a(S'100003990186495'
S'Dayane Santos de Souza'
tp31
a(S'1646244760'
S'Monika Meier'
tp32
a(S'100003762822381'
S'Arita Santos'
tp33
a(S'100001774073484'
S'Dana Saniuta'
tp34
a(S'100004043042248'
S'Juan Navarro'
tp35
a(S'100000015680082'
S'Marisabel Ocejo'
tp36
a(S'100004088040886'
S'Samy Suarez'
tp37
a(S'100002946510411'
S'Gonzalo Gayoso Santana'
tp38
a(S'100003962146860'
S'Monster Sami Aydo\\u011fdu'
tp39
a(S'100004007953853'
S'Daniel Del Carmen Carre\\u00f1o Toledo'
tp40
a(S'100003601014744'
S'Thalles Felipe Aziole'
tp41
a(S'100000502466334'
S'Wordiing Word'
tp42
a(S'100002403544324'
S'Josue Souza'
tp43
a(S'100001604076058'
S'Master Cat'
tp44
a(S'100001660877149'
S'Isabel Silva Bravo'
tp45
a(S'1826080503'
S'Salvatore Napoletano'
tp46
a(S'100003674117031'
S'Tereza Sardo'
tp47
a(S'100002410943709'
S'\\u00c1rp\\u00e1d Tarnai'
tp48
a(S'100003070578911'
S'Christian Raspado'
tp49
a(S'100003215833260'
S'Kratos Rain'
tp50
a(S'100000292338960'
S'Dislene Chaves'
tp51
a(S'1467154999'
S'L.a. Chac\\u00f3n'
tp52
a(S'100000680282650'
S'Guadalupe Ramirezmartinez'
tp53
a(S'100001451515792'
S'Charly Good'
tp54
a(S'100003208976374'
S'Milena Oliveira'
tp55
a(S'100003983358434'
S'Bruno Marques'
tp56
a(S'100004647494606'
S'Mustafa Akp\\u0131nar'
tp57
a(S'100001886701726'
S'Pablo Uriel Lamas Velazquez'
tp58
a(S'100000416941618'
S'Sara Soares'
tp59
a(S'100000826241364'
S'Monika Ines Jankowska'
tp60
a(S'100000299157836'
S'Ioan Avramov'
tp61
a(S'100003114700758'
S'Gisele Moura'
tp62
a(S'587766094'
S'Mido Font'
tp63
a(S'100003263853791'
S'Esat Kerem'
tp64
a(S'100003313292126'
S'Nanda Miura'
tp65
a(S'100003901989261'
S'Tiago Oliveira'
tp66
a(S'100002414441370'
S'Isa Schmiege'
tp67
a(S'100001851196182'
S'Bruno Rodrigues'
tp68
a(S'100000921307789'
S'Mirisa Salgon'
tp69
a(S'100002339858710'
S'Bar\\u0131\\u015f Kocada\\u011f'
tp70
a(S'100000854345339'
S'Yafeth Kristian'
tp71
a(S'100003755809103'
S'Monsti Worldi'
tp72
a(S'100006908435935'
S'Elaine Almeida'
tp73
a(S'100001266306924'
S'Juste Pourjouer'
tp74
a(S'100003526665581'
S'Aline Adriane'
tp75
a(S'100002904701132'
S'J\\u00f3zef Kowalski'
tp76
a(S'100003618245259'
S'Marcela Jorquera'
tp77
a(S'100003743529304'
S'Alice Pollita'
tp78
a(S'100003780524135'
S'Adriano Rodrigues'
tp79
a(S'100003715005661'
S'Juan Carlos Maldonado Garcia'
tp80
a(S'100006504124833'
S'Paulo Rodrigues'
tp81
a(S'100002266986690'
S'Lamiiss Ophelie Geraud'
tp82
a(S'1546912275'
S'Fernanda Souza'
tp83
a(S'100001745987006'
S'Gabi Lima'
tp84
a(S'100004152243774'
S'FC Wallace De Souza'
tp85
a(S'100002305033772'
S'Julia Rosa'
tp86
a(S'100002152834399'
S'Nor Syahida Bakri'
tp87
a(S'100003188313987'
S'Daria Nocu\\u0144'
tp88
a(S'100002785410732'
S'Juliana Barbosa'
tp89
a(S'100003326266058'
p90
S'Adda Aleman'
tp91
a(S'100003989812095'
S'Yesim H\\u00fcsbal'
tp92
a(S'100002623524952'
S'Diiame Lopez'
tp93
a(S'100003617074746'
S'Lynda Abella'
tp94
a(S'100000331527760'
p95
S'Marcin Myszor'
tp96
a(S'100003201297351'
S'TC Gayret Caymaz'
tp97
a(S'100002844764389'
S'Arkadiusz Krawiec'
tp98
a(S'100003767964954'
S'Lucas De Souza Caulit'
tp99
a(S'100001035998879'
S'Micky Sergio'
tp100
a(S'100000524978629'
p101
S'Sayda Morales'
tp102
a(S'100001586912886'
S'Luiz Carlos Bonifacio Bonifacio'
tp103
a(S'1830830200'
S'Martha Cervantes'
tp104
a(S'100004770070111'
S'Marcio Tavares'
tp105
a(S'100000573729962'
S'Ewelina Pazera'
tp106
a(S'100003647670794'
S'Karolayne Sthefany'
tp107
a(S'100004532652541'
S'Andreas Wei'
tp108
a(S'100003770716554'
S'Rosimeire Ferreira'
tp109
a(S'100004062462144'
S'Jonny Rizzon'
tp110
a(S'100004336147372'
S'Julia Su'
tp111
a(S'537561845'
S'Danilo Rodrigues'
tp112
a(S'100004319499659'
S'Michalina Mistuk'
tp113
a(S'100004663410796'
S'Adrimarie Gomes'
tp114
a(S'100002044752341'
S'Magdalena Ch\\u0142opek'
tp115
a(S'100000803049259'
S'Katiuska Sarti Soto'
tp116
a(S'100004069542096'
S'Marcela Santos'
tp117
a(S'100004923131931'
S'Adrian Fernando'
tp118
a(S'100005880941032'
S'Denise Santos'
tp119
a(S'100008243957112'
S'Erika Rodrigues Dos Santos'
tp120
a(S'100001923005110'
S'Gustavo Rodrigues Souza'
tp121
a(S'100001780684378'
S'Bar\\u0131\\u015f Yal\\u00e7\\u0131n'
tp122
a(S'100002577455879'
S'Kamel Lamine'
tp123
a(S'100004346855037'
S'Cb Lin'
tp124
a(S'100001167024887'
S'Moreno Manu'
tp125
a(S'100001415667407'
S'Jaqueline Araujo'
tp126
a(S'100003554573328'
S'Jack Daniel'
tp127
a(S'100001279402825'
S'Dherya Jain'
tp128
a(S'1114991969'
S'Eduardo Varillas'
tp129
a(S'100003965477677'
S'Jenny Dauge'
tp130
a(S'100004505105839'
S'Petia Draganova'
tp131
a(S'100002376827105'
S'Regina C\\u00e9lia Santos'
tp132
a(S'100002385063304'
S'Wagner Villas Boas Olivei'
tp133
a(S'1041607444'
S'Quelali Ferchu'
tp134
a(S'100000468718382'
S'Ranen Mena'
tp135
a(S'100001894534086'
S'Aline Alboz'
tp136
a(S'100002378291825'
S'Adriana Maria Gomes'
tp137
a(S'100001193052017'
S'Apple Hp'
tp138
a(S'100004573513696'
S'Mjg Storm'
tp139
a(S'1363246146'
S'David Moreno'
tp140
a(S'100003960949358'
S'Ben Lej'
tp141
a(S'100002940313343'
S'Jaqueline Torres'
tp142
a(S'100003248731047'
S'Bruno Rodrigues'
tp143
a(S'100001618990852'
S'Joseluis Manllokalifa'
tp144
a(S'100001390321488'
S'Mariana Castro'
tp145
a(S'100002338487590'
S'Fabio Vieira Santos'
tp146
a(S'100002805958486'
S'Azzeza Khanza Afifa'
tp147
a(S'100000845426727'
S'Juliana Any'
tp148
a(S'100004280077882'
S'Alan Nagao'
tp149
a(S'100001599882812'
S'Jaque Alves'
tp150
a(S'100004580533618'
S'Monster Worlds'
tp151
a(S'100000255582275'
S'Leno Mascarenhas'
tp152
a(S'100003399623117'
S'Gabby Costa'
tp153
a(S'100004403170327'
S'Meral Kara'
tp154
a(S'100001971962156'
S'Edvaldo De Oliveira Snf'
tp155
a(S'100001796991888'
S'Marcia Souza Silva'
tp156
a(S'1071489905'
S'Anderson Oliveira'
tp157
a(S'100002846361342'
S'Grecia Meza'
tp158
a(S'100003464632662'
S'Roberto Fagundes'
tp159
a(S'100002763182662'
S'Marlene Silva'
tp160
a(S'100008293351315'
S'Edna Amaral'
tp161
a(S'100000797741532'
S'Suely Barbosa'
tp162
a(S'100000001520131'
S'Milena Rizzon'
tp163
a(S'100003674986318'
p164
S'Cristina Henriquez'
tp165
a(S'100002532824966'
S'Kleber Gomes'
tp166
a(S'100000738078479'
S'Evaldo De Lima Pinto'
tp167
a(S'100004121651517'
S'Stick Savi'
tp168
a(S'100000870156260'
S'Gilvania Pires Barreto'
tp169
a(S'1007839681'
S'Sonia Cuellar'
tp170
a(S'100001477125914'
S'Samantha Celi'
tp171
a(S'100002356744751'
S'Mary Mimi Cool'
tp172
a(S'100003917477419'
S'Lurdes ETeixeira'
tp173
a(S'100002412243547'
S'Nan Navarro'
tp174
a(S'100002398677011'
S'Martinez Marin'
tp175
a(S'100004180753993'
S'Cesar Costa Gomes'
tp176
a(S'1138909368'
S'Javaid Akhtar'
tp177
a(S'100002095857941'
S'Ju Turno'
tp178
a(S'100004641432175'
S'Farmer Sammy'
tp179
a(S'1671693841'
S'Pearl Michelle'
tp180
a(S'100003124722040'
S'Hashim Hassan'
tp181
a(S'100002209935628'
S'Nany Felix'
tp182
a(S'1602571779'
S'Monster Michael'
tp183
a(S'1555008693'
S'Jos\\u00e9 Roberto Nunes'
tp184
a(S'100003427863795'
S'Lucia Garov\\u00e1'
tp185
a(S'100003143162382'
S'Iara Moura Castro'
tp186
a(S'100003980907523'
S'Javiel Montero Mateo'
tp187
a(S'100001441902599'
S'Eduardo Soares'
tp188
a(S'1406707436'
S'Nathalie Condroyer'
tp189
a(S'100004167781103'
S'Mostfa Cab'
tp190
a(S'100004317998494'
S'Vila Monte Alegre'
tp191
a(S'100005876828774'
S'Inco Nue'
tp192
a(S'100003786877813'
S'Viti Alonso Fraile'
tp193
a(S'100004356151941'
S'Thoth Trismegistus'
tp194
a(S'1236595461'
S'Daniel Reidt'
tp195
a(S'100002170820649'
S'Sally Nolivos Jimenez'
tp196
a(S'1795545338'
S'Marija Zavir\\u0161ek'
tp197
a(S'100004377852359'
S'Gusano Duhart'
tp198
a(S'1634142575'
S'Jorge Vela'
tp199
a(S'100001760623903'
S'Natal Moraes'
tp200
a(S'100004467550413'
S'Gabriel Dos Santos'
tp201
a(S'100003135333711'
S'Nicoly Silva'
tp202
a(S'100002992448324'
S'Vera Lucia Freitas Ferreira'
tp203
a(S'100000135458048'
S'Edyta Lis'
tp204
a(S'100002514363710'
S'Terry Bogard'
tp205
a(S'100004463165130'
S'Rose Rosa'
tp206
a(S'100004404074046'
S'Arthur Pinheiro'
tp207
a(S'100003000709048'
S'Guzman Fernandez'
tp208
a(S'100004400913608'
S'Ana Gonzalez'
tp209
a(S'100000514453984'
S'Edgar Rocha'
tp210
a(S'100003980946637'
S'Cristina Silva'
tp211
a(S'100000345617456'
S'Sandra Dos Santos'
tp212
a(S'100000025374860'
S'Roseli Maria G Dos Reis'
tp213
a(S'100000128848532'
S'Natii Santos'
tp214
a(S'100001329691150'
S'Magdalena Wilczek'
tp215
a(S'100004511370893'
S'Micha\\u0142 G\\u00f3rka'
tp216
a(S'100000133841317'
S'Solange Hidalgo'
tp217
a(S'100004078642730'
S'Rafa Souza'
tp218
a(S'100004065938205'
S'Ckrickyew Numbertwo'
tp219
a(S'100004712410190'
S'Maritza Hernandez'
tp220
a(S'100001233146265'
S'Adriana Espinola'
tp221
a(S'100003037330257'
S'Ali Aras'
tp222
a(S'100002584650897'
S'Camila Anjos'
tp223
a(S'100002853744890'
S'Ramiro Asencio Siguenza'
tp224
a(S'1276110623'
S'Che Rojo'
tp225
a(S'1073700444'
S'Lucarelli Souza'
tp226
a(S'100003814586978'
S'Jo\\u00e3o Gabriel Class'
tp227
a(S'777184677'
S'Alicia Ivana Moore'
tp228
a(S'100000673624640'
S'Marie Rafaelova'
tp229
a(S'100001600407701'
S'Marisa Finotti'
tp230
a(S'100001598603694'
S'Mar\\u00eda Antonia Fajardo Salguero'
tp231
a(S'100001218515651'
S'Diego Andr\\u00e9s Rodr\\u00edguez \\u00c1lvarez'
tp232
a(S'100002322015070'
S'Kimberlyn Silva'
tp233
a(S'100001312250021'
S'Mauricio Souza'
tp234
a(S'100003606010269'
S'Angelo Rinaldi'
tp235
a(S'100004039357430'
S'Buba Dos Santos'
tp236
a(S'100004016206013'
S'Vivi Ane'
tp237
a(S'100003212575350'
S'Estela Abao'
tp238
a(S'100004090507458'
S'Itayetzy Mendoza'
tp239
a(S'100000491733196'
S'Maria Magdalena'
tp240
a(S'100003994152168'
S'Tom M\\u00fcller'
tp241
a(S'100003787815900'
S'Adilson Santos'
tp242
a(S'100000090098002'
S'Cvetelina Koseva'
tp243
a(S'100002285762326'
S'Guui Henriique'
tp244
a(S'100005007853109'
S'Paloma Almeida de Jesus'
tp245
a(S'100003752745235'
S'Fabiana Alves'
tp246
a(S'100004292586293'
S'Carool Lima Franco'
tp247
a(S'100000042833684'
S'Marta Catalina Girazoles'
tp248
a(S'100004042269792'
p249
S'Monster Elleven'
tp250
a(S'100006105693133'
S'Washington Petinelli de Souza'
tp251
a(S'100004317037431'
S'G\\u00fcl Devran Atasoy'
tp252
a(S'100000818471424'
S'Brenda Dinorah Duron Ovalle'
tp253
a(S'100001767267645'
S'S\\u00f3nia Almeida'
tp254
a(S'100003165436539'
S'Alexandre Luciana'
tp255
a(S'100004446194615'
S'Alice Borges'
tp256
a(S'100002103775226'
S'Lis Bazan'
tp257
a(S'1398230228'
S'Thierry Dijon'
tp258
a(S'100001702273113'
S'Carmela Pileio'
tp259
a(S'100002381203687'
S'Priscilla Dos Santos'
tp260
a(S'100007766524020'
S'Fabio Almeida'
tp261
a(S'100003981006673'
S'Kenn Mayer De La Rosa Gonzalez'
tp262
a(S'100001930153225'
S'Angelika Gontarska'
tp263
a(S'100003247064777'
S'Anamica Rajaiha'
tp264
a(S'100004240235678'
S'Licha De la Hoz'
tp265
a(S'100003808112275'
S'Dry Pires'
tp266
a(S'100000415902961'
S'C\\u00e9sar Shigueo Hirai'
tp267
a(S'100000461668817'
S'Cristian Nieto'
tp268
a(S'100003034220444'
S'David Rodrigues Rodrigues Junior'
tp269
a(S'100002029839818'
S'Dorota Borowiak'
tp270
a(S'100002821877937'
S'Ania Mika'
tp271
a(S'100003296165161'
S'Renan Soares'
tp272
a(S'100003504287518'
S'Shelley Alford'
tp273
a(S'100000682868393'
S'Yennifer Tatiana Altamirano'
tp274
a(S'100002993904915'
S'Ribamar Coimbra'
tp275
a(S'100003517286314'
S'Tatiane Ribeiro'
tp276
a(S'100005910303729'
S'Nelson Pereira da Silva'
tp277
a(S'100002356203948'
S'Cleide Lima'
tp278
a(S'100002995328655'
S'Ludimile Silva'
tp279
a(S'100007358948919'
S'Cleide Gon\\u00e7alves Santos'
tp280
a(S'100003739906853'
S'Sabina Francescano'
tp281
a(S'100002466228332'
S'Flavia Francisco'
tp282
a(S'100003738085739'
S'Osvaldo Abade'
tp283
a(S'100007541711844'
S'F\\u00e1tima Santos'
tp284
a(S'100002087017956'
S'Edisson Ivan Rodriguez Aulestia'
tp285
a(S'1851841120'
S'Branca Gomes'
tp286
a(S'100003034057684'
S'Beatriz Batista'
tp287
a(S'100003826875579'
S'Adam Piotr Zab\\u0142ocki'
tp288
a(S'100000426787541'
S'Marceline Pacheco'
tp289
a(S'1267243934'
S'Hisham Saed'
tp290
a(S'100002825182568'
S'Black Charm'
tp291
a(S'100001448323266'
S'Titine Popo Poher'
tp292
a(S'100000996877954'
S'Carmen Gam'
tp293
a(S'100003293906930'
S'Biiah Santos Almeida'
tp294
a(S'100003651091761'
S'Liliana Tejada'
tp295
a(S'100004013174624'
S'Irven Oliveira'
tp296
a(S'100003064662679'
S'Kainan Dos Santos'
tp297
a(S'765902660'
S'Seda Yetim'
tp298
a(S'100002827055121'
S'Monica Felauto'
tp299
a(S'1038790953'
S'\\u00fcmit Zorba'
tp300
a(S'100003467718112'
S'Ursula Kelsz'
tp301
a(S'100002251297679'
S'Vivien T\\u00f6rpilla Moln\\u00e1r'
tp302
a(S'100001461998593'
p303
S'Soltanof Jaber'
tp304
a(S'100000001008719'
S'Lobegara Lobegara'
tp305
a(S'100004401191347'
S'Juste Pour Jouer'
tp306
a(S'100004071554735'
S'Brayan Gonzalez'
tp307
a(S'100003291418680'
S'Marco Heida'
tp308
a(S'1416982678'
S'Josefina Muniente Plou'
tp309
a(S'100003264511141'
S'Luis Bito'
tp310
a(S'100001921826532'
S'Levis Daniel Aguilar'
tp311
a(S'100004352978087'
S'Bessy Trochez'
tp312
a(S'100001343811509'
S'Pitcha Tungtong'
tp313
a(S'100001686858048'
S'Renato M. Mattos Mattos'
tp314
a(S'100002994835302'
S'Bivia Lara'
tp315
a(S'100000110690637'
S'Ricardo Couto'
tp316
a(S'1774861972'
S'Maria Alice Borges'
tp317
a(S'100004096161279'
S'Pablo Pablo'
tp318
a(S'100004425272868'
S'William Pereira'
tp319
a(S'100004192540953'
S'Mu Ko'
tp320
a(S'100003463289015'
S'Jeh Angelotti'
tp321
a(S'100002267415577'
S'Patricia Chanquet'
tp322
a(S'723839803'
S'Mondal Piyush'
tp323
a(S'100003826798089'
S'Carlos Pereira'
tp324
a(S'100001540838536'
S'Liliana Alves'
tp325
a(S'100004073791435'
S'Serious Sam'
tp326
a(S'100003915644724'
S'GR Agua Funda'
tp327
a(S'100004572901751'
S'Lorenzo Von Smith'
tp328
a(S'100003978870397'
S'Sascha Mini'
tp329
a(S'100004617780242'
S'Filip Kucharski'
tp330
a(S'100004321629408'
S'Francy Annunci'
tp331
a(S'100001544562101'
S'Marie Bornhake'
tp332
a(S'100002991906072'
S'Cristtina de Jesus'
tp333
a(S'100003469329658'
S'Simone Dos Santos'
tp334
a(S'100002882110169'
S'Felipe Petinelli'
tp335
a(S'100004125612664'
S'Spelletjes Spelen'
tp336
a(S'100002187176372'
S'\\u00dcmran Utkucu'
tp337
a(S'100003876441080'
S'Esther Marin'
tp338
a(S'100003876332525'
S'Raquel Garcia'
tp339
a(S'100001652969152'
S'Eliane Soares Silveira'
tp340
a(S'100002220274260'
p341
S'Olivia Olivares'
tp342
a(S'100003302286781'
S'Gaby Lins'
tp343
a(S'100002333665203'
S'Roberto Ferrari'
tp344
a(S'100001818284690'
S'Andrea Verderio'
tp345
a(S'100003763998904'
S'Eduardo Gon\\u00e7alves Dos Reis Dudu'
tp346
a(S'100002066473939'
S'Danilo Ramos de Sales'
tp347
a(S'100004598621441'
S"N\\u00e9mo L'oranda"
tp348
a(S'100003581027476'
S'Yu  Lin'
tp349
a(S'100002203627021'
S'Michelle Spilker'
tp350
a(S'100002380492044'
S'Isabelly Pires'
tp351
a(S'100003539089987'
S'Thomas Pires Barreto Cancian'
tp352
a(S'100003485776056'
S'Edgar Eleis Delosreyes Lojeda'
tp353
a(S'100004166142786'
S'Jhon Fredy Zapata'
tp354
a(S'100002039310115'
S'Ana Lilia Salazar Obispo'
tp355
a(S'100002647610595'
S'Richi Kern'
tp356
a(S'1698050470'
S'Rafael Adriano'
tp357
a(S'100000866436003'
S'Dani Santos'
tp358
a(S'100007376826141'
S'Laura Felix'
tp359
a(S'100003403517747'
S'Erzebet Djapjas Albert'
tp360
a(S'100004662580460'
S'Alberto Oliveira Gravatinha'
tp361
a(S'100004159271842'
S'Gaby Dani'
tp362
a(S'100001594215968'
S'Rafael Monteiro de Queiroz'
tp363
a(S'100003297251570'
S'MWorld Kamyla'
tp364
a(S'100004145223386'
S'Caio Lee'
tp365
a(S'100004065594454'
S'Gato Gris Carbonero'
tp366
a(S'100000987025853'
S'Emilia Nizia\\u0142ek'
tp367
a(S'100002952037669'
S'Truskawkowa Truskawka'
tp368
a(S'100003858377703'
S'Camilly Santos de Oliveira'
tp369
a(S'100000814840151'
S'Shonia Mariela Becker'
tp370
a(S'100002524575542'
S'Alfred Gaguech'
tp371
a(S'100004371030238'
S'Monterlouloute Word'
tp372
a(S'100002401773454'
S'Roberto F\\u00e9ra'
tp373
a(S'100002647766575'
S'Leonardo Pereira'
tp374
a(S'100001628651119'
S'Antonio Consiglio'
tp375
a(S'1190427032'
S'Felipe Alberto Mu\\u00f1oz Quezada'
tp376
a(S'100004416667882'
S'Quiron Regnum'
tp377
a(S'1499755587'
S'Paolo de Grandi'
tp378
a(S'100004411447661'
S'Danielle Santos'
tp379
a(S'100001770388489'
S'Sebastian Leandro Torres'
tp380
a(S'1483495734'
S'Vazquez Yure'
tp381
a(S'100004519957683'
S'Alfred Wyw\\u0142oka'
tp382
a(S'100001026498383'
S'Aline Barreto'
tp383
a(S'100003480357066'
S'Andressa Fellipe'
tp384
a(S'100001620510382'
S'Nils Weber'
tp385
a(S'100005286253137'
S'Marcia Almeida'
tp386
a(S'100001975298514'
S'Teresa Jurasz'
tp387
a(S'100003061059566'
S'Paloma Almeida'
tp388
a(S'100000335226839'
p389
S'Marita Canales'
tp390
a(S'100002944890971'
S'Chris Megane'
tp391
a(S'100002113960587'
p392
S'Erdinc \\u00d6zkan'
tp393
a(S'100003997963797'
S'F\\u00e3s Serginho V\\u00f4lei'
tp394
a(S'100002619356296'
S'Julio Bruschi'
tp395
a(S'100001619224666'
S'A Claude GirlMonster'
tp396
a(S'100000883217129'
S'J\\u00f4 Souza'
tp397
a(S'100002756931275'
S'Michel Le Marin'
tp398
a(S'100003198757572'
S'Diamante Blu'
tp399
a(S'1646445094'
S'Jhonatan Morales'
tp400
a(S'100004413429524'
S'Paulo Rogerio Maia da Silva'
tp401
a(S'1768282874'
S'Dulce Arroyo Rodriguez'
tp402
a(S'100002618424675'
S'Gislene Vieira'
tp403
a(S'100002823627389'
S'Wasim Mullick'
tp404
a(S'100003118621758'
S'Vin\\u00edcius Sena'
tp405
a(S'100004516327843'
S'Rodrigo Piva'
tp406
a(S'100003160302466'
S'Marcelo Augusto de Barros'
tp407
a(S'588877783'
S'Leire Zu\\u00f1iga Etxaide'
tp408
a(S'100001154257003'
S'Andr\\u00e9 Luiz'
tp409
a(S'100003286943198'
S'Ines Paez'
tp410
a(S'100001202098681'
S'Jaydeep Dulhani'
tp411
a(S'100003555673058'
S'Juliana Angelotti'
tp412
a(S'100003189830280'
S'Veysel Veys'
tp413
a(S'100004264052261'
S'Werner Huz'
tp414
a(S'100004355857084'
S'Kevin Alan'
tp415
a(S'100004357804098'
S'Gustavo Terra'
tp416
a(S'100002019876876'
S'Marcos Do Nascimento'
tp417
a(S'100002531836774'
S'Aj Celis'
tp418
a(S'100000954320339'
S'Murat B\\u00fcy\\u00fckke\\u00e7eci'
tp419
a(S'100002947862866'
S'Noara Stancov'
tp420
a(S'100003964383023'
S'Rubens Gabriel Celici Meira'
tp421
a(S'1614885341'
S'Tomas Peralta'
tp422
a(S'100003086053574'
S'Arnaldo Saccomani'
tp423
a(S'100004038107447'
S'Pikena Dos Santos'
tp424
a(S'100003655488043'
S'Rose Dawson'
tp425
a(S'100003667759671'
S'Geovan Barreto'
tp426
a(S'100002034264594'
S'Ildik\\u00f3 Moln\\u00e1r'
tp427
a(S'686943138'
S'R\\u00e9dha Ha'
tp428
a(S'100000295258899'
S'Harllei Dias Araujo'
tp429
a(S'100000064321230'
S'Alex Sander Tavares'
tp430
a(S'100004181347768'
S'Juliana Karla'
tp431
a(S'100004131666153'
S'Faf\\u00e1 Faf\\u00e1'
tp432
a(S'100004465115566'
S'Aurela\\u00efe Aurela\\u00efe'
tp433
a(S'100004580801351'
S'Selin G\\u00f6re'
tp434
a(S'100003307463966'
S'Fabiana Arend'
tp435
a(S'100004231477942'
S'Monster Unterm Sofa'
tp436
a(S'100004295113421'
S'Monica F Lima'
tp437
a(S'100002573123039'
S'Ar-tits Art'
tp438
a(S'100002526255074'
S'Nice Silva'
tp439
a(S'100003590038171'
S'Buka Pista'
tp440
a(S'100003473085005'
S'Maikor Rafael Alvarez Castellano'
tp441
a(S'100007711686253'
S'Beatriz Dos Santos Almeida'
tp442
a(S'100002835085219'
S'Marilyn Medina'
tp443
a(S'100003825035557'
S'Marcelo De Jesus Xavier'
tp444
a(S'100004531514169'
S'Thalita Gomes Fernandes'
tp445
a(S'100003201475079'
S'Bia Drummond'
tp446
a(S'100000894430505'
S'Sonia Lourdes Hernandez'
tp447
a(S'100003726862483'
S'Yanii Lopez'
tp448
a(S'100002725513335'
S'Conchita Borboa'
tp449
a(S'100000094803557'
S'Aymen Aymenn'
tp450
a(S'100001945115079'
S'Luz Reza de Diaz'
tp451
a(S'100004195535263'
S'Anderson Silva Oliveira'
tp452
a(S'100000468903486'
S'Derya K\\u0131l\\u0131\\u00e7'
tp453
a(S'1647146358'
S'Fernando Carvalho'
tp454
a(S'100003944112759'
S'Danyh Pereira'
tp455
a(S'100003264209440'
S'Lauralee Pierrard'
tp456
a(S'100003339637801'
S'Sefora Gutierrez Vazquez'
tp457
a(S'100003589037749'
S'Lurdes Rodrigues Nunes'
tp458
a(S'100003115809849'
S'Vinicius Petiinelly'
tp459
a(S'100003735566657'
S'Daniel Rodrigez'
tp460
a(S'100004069749691'
S'M\\u00e1rcia Marina Ivaldo'
tp461
a(S'100002976021425'
S'Costa Alexandrina'
tp462
a(S'100003073595553'
S'Keith Matney'
tp463
a(S'100001436578750'
S'Eloana Nogueira'
tp464
a(S'100000151555016'
S'Monster Gee'
tp465
a(S'100004179070186'
S'Cecilio Alvarado Trevi\\u00f1o'
tp466
a(S'1248765150'
S'Paola Berris'
tp467
a(S'100002912963161'
S'R\\u00f4mulo Ribeiro de Figueiredo'
tp468
a(S'1168873052'
S'Douglas Gon\\u00e7alves'
tp469
a(S'100001230977562'
S'Ubaldo Ruiz'
tp470
a(S'100003323818047'
S'Yesica Falcon'
tp471
a(S'100004241740288'
S'Monster Marley'
tp472
a(S'1666845733'
S'Nataly Moimoi'
tp473
a(S'100005493271486'
S'Nelson Silva'
tp474
a(S'100003057281084'
S'Marcello Crisci'
tp475
a(S'100002707950988'
S'Mont Kemel Familia'
tp476
a(S'100003823681213'
S'Maryanne Gon\\u00e7alves'
tp477
a(S'100000276590465'
S'Ol\\u00e1h Anna'
tp478
a(S'100003990104494'
S'Alex Papi Marco'
tp479
a(S'100003066851816'
S'Lucyflavia Martins'
tp480
a(S'100002697579140'
S'Alonizio Silva'
tp481
a(S'100001485871122'
S'Vinicius Ribeiro'
tp482
a(S'100002599988692'
S'Erika Nunes'
tp483
a(S'100000563782621'
S'Cristina Fernandes Maceiras'
tp484
a(S'100000464063917'
p485
S'Evy Pur'
tp486
a(S'100001933734778'
S'Jorginho Jp'
tp487
a(S'1362957556'
p488
S'Saulo Melo Da Paz'
tp489
a(S'100007671133021'
S'Victor Rodrigues'
tp490
a(S'100000904558559'
S'Angie Marengo'
tp491
a(S'100004241108624'
S'MonsterWorld Wooga'
tp492
a(S'1668253507'
S'Ang\\u00e9lique Minck'
tp493
a(S'100001645360965'
S'Krone Hit Marian Muscalu'
tp494
a(S'100000267703832'
S'Monika Harajda'
tp495
a(S'100001096197159'
S'Cl\\u00e1udia Daiana Otto'
tp496
a(S'1818223818'
S'Maria Ilha'
tp497
a(S'100004057090670'
S'Ikkaz Casillaz'
tp498
a(S'100002772805786'
S'Carmen Carmenchina'
tp499
a(S'100004472167119'
S'Julian Wielki'
tp500
a(S'100001509771027'
S'Rodrigo Valderrey'
tp501
a(S'100002486727293'
S'Tha\\u00eds Bento Lima'
tp502
a(S'100002742893920'
S'Filipe Augusto Faccion Ferraz'
tp503
a(S'100002678577110'
S'Paraguay Nascimento'
tp504
a(S'100001332148772'
S'Waleska Mendon\\u00e7a'
tp505
a(S'100002148533850'
S'Lia Sousa'
tp506
a(S'100004449879455'
S'Katarzyna Czubak'
tp507
a(S'100004434523956'
S'Analia Carante'
tp508
a(S'100004602870288'
S'Rubens J Lucas'
tp509
a(S'100003730566023'
S'Belen Butron Marin'
tp510
a(S'100004332219221'
S'Davi Gomes Garramona'
tp511
a(S'100003463690639'
S'Juliana Borges'
tp512
a(S'650657120'
S'Alis Zu\\u00f1iga'
tp513
a(S'100002096786651'
p514
S'Mario Barti'
tp515
a(S'100000086364718'
S'Zolt\\u00e1n Hajdu'
tp516
a(S'100003181710537'
S'Faith Obi'
tp517
a(S'100001005369500'
S'Geize Batista'
tp518
a(S'100003377974234'
S'Gladys Martinez Nunez'
tp519
a(S'100004772854387'
S'Ednaldo Alves'
tp520
a(S'100002933613858'
S'Sherley Kikine Malika'
tp521
a(S'100001793367893'
S'Michele Reolon Serafini'
tp522
a(S'100001605862270'
S'N\\u00e1dia Maria Sena'
tp523
a(S'100002490434135'
S'Luis Basurco Hermoza'
tp524
a(S'100002849299795'
S'Pamela Freitas'
tp525
a(S'100001270618028'
S'Leon Yamaner'
tp526
a(S'1356944241'
S'Ruben Cobos'
tp527
a(S'100003143083494'
S'Junior Macgiver Fran\\u00e7a'
tp528
a(S'100003376128494'
S'Simone Lopes Petinelli'
tp529
a(S'100000709882568'
S'Damien Garreau'
tp530
a(S'100004308460294'
S'Hieu Luong'
tp531
a(S'100003159857505'
S'Andy  Lee'
tp532
a(S'1756610994'
S'Lucarelli Souza'
tp533
a(S'100001915442820'
S'Mary Gastelum'
tp534
a(S'100001175979911'
S'Ygor Vila Magica'
tp535
a(S'100001251411648'
S"Marcio Borja's"
tp536
a(S'100002175213919'
S'Jose Cirso Alves'
tp537
a(S'100004529141418'
S'Linda Twice'
tp538
a(S'100000769288101'
S'Marco Romero'
tp539
a(S'100003302802432'
S'Victoria Soares Peretti'
tp540
a(S'100001887926564'
S'Isabela Oak'
tp541
a(S'100001483147764'
S'Patricia Mu\\u00f1oz Campos'
tp542
a(S'100002653328672'
S'Thorsten Krause'
tp543
a(S'100001554765249'
S'Ale Madriaga'
tp544
a(S'100000386869717'
S'Claudio Petinelli'
tp545
a(S'1527806006'
S'Rodolfo Cruz'
tp546
a(S'100001702651423'
S'Semus Engel'
tp547
a(S'100001215406161'
S'Is Rahim'
tp548
a(S'100003824209393'
S'Ma\\u0142gorzata Bednarska'
tp549
a(S'100000834120198'
S'Piotr Muller'
tp550
a(S'100005519107042'
S'Thayna Belo Belo'
tp551
a(S'100001496127606'
S'Abdelaziz Aitraiss'
tp552
a(S'100003271645246'
S'Marcia Oliveira'
tp553
a(S'100000277856266'
S'Enis Merve Ayd\\u0131n'
tp554
a(S'100001917485983'
S'Celi Martina Garcia'
tp555
a(S'100000503889993'
S'Nita Laurentiu'
tp556
a(S'100004153146275'
S'Karla Alegria'
tp557
a(S'100003897663137'
S'Emperatriz Zu\\u00f1iga Hinojosa'
tp558
a(S'100003740038913'
S'Kacpersuper Gajda'
tp559
a(S'100004492839005'
S'Volker Ritter'
tp560
a(S'100003999805227'
S'Lina Couceiro'
tp561
a(S'100000361331222'
S'Anja Sch\\u00f6nell'
tp562
a(S'1262721512'
S'Anja Schmidt'
tp563
a(S'100004328372557'
S'Antonia Lins'
tp564
a(S'100003116198534'
S'Anasol Toniolo'
tp565
a(S'100002212873096'
S'Weronika Ch\\u0142opek'
tp566
a(S'100001825659642'
S'Brens Alex'
tp567
a(S'100000744094457'
S'Olga Gladis Trueba'
tp568
a(S'1720827100'
S'Kelinha Silva'
tp569
a(S'100003987828354'
S'Rog\\u00e9rio Oliveira'
tp570
a(S'100002073895251'
p571
S'Monster Toic'
tp572
a(S'100001422014590'
S'Osmar Souza'
tp573
a(S'100001806534667'
S'Vin Sang'
tp574
a(S'100002392078333'
S'Soraia Martins Reis'
tp575
a(S'1103920067'
S'Lucia Rodriguez'
tp576
a(S'100002449914180'
S'\\u00c1lvaro Alonso Garcia'
tp577
a(S'100005260594224'
S'Renan Soares'
tp578
a(S'100002637242884'
S'Nicusor Bagiu'
tp579
a(S'100000846093214'
S'Laurian Bernab\\u00e9'
tp580
a(S'100000093564949'
S'Mario Bell'
tp581
a(S'100000869708955'
S'Nenita Lmn'
tp582
a(S'100003508880713'
S'Cris Pacheco'
tp583
a(S'100004533548130'
S'Keano Vandenborre'
tp584
a(S'100004096729468'
S'Sylwunia Fryc'
tp585
a(S'100001748907476'
S'Ana Sanjuan Aguilar'
tp586
a(S'100003482446594'
S'Telma Cerqueira'
tp587
a(S'100001261208877'
S'Joao Barracho'
tp588
a(S'100000326081187'
S'Israel Monteiro de Queiroz'
tp589
a(S'100003293445361'
S'Luise Bayraktar'
tp590
a(S'100002016863896'
p591
S'To\\u00f1o Torre'
tp592
a(S'100002127317621'
S'Sheila Silva Gon\\u00e7alves'
tp593
a(S'100001971393710'
S'Jessika Falcao'
tp594
a(S'100002853772964'
S'Ariiel Acu\\u00f1a'
tp595
a(S'100001582805945'
S'Antonio Gon\\u00e7alves'
tp596
a(S'100003396259937'
S'Karen Monst Word'
tp597
a(S'1570852757'
S'Joanna F. F. Bell'
tp598
a(S'100004419611321'
S'Kalila Maysoon'
tp599
a(S'1589295313'
S'Eliane Camilo Pedro'
tp600
a(S'100000150315741'
S'Kenneth Romeo Stephano'
tp601
a(S'100008169002599'
S'Valter Jos\\u00e9 de Matos'
tp602
a(S'100003870618954'
S'Mirian Silva'
tp603
a(S'100000260728618'
S'Manoli Luna Gago'
tp604
a(S'100001631123644'
S'Ma\\u0142gorzata Pi\\u0105tek'
tp605
a(S'100004058526046'
S'Nina Nona'
tp606
a(S'100004134632759'
S'Michel Azevedo'
tp607
a(S'100001878837207'
S'Audrey Emma Titi'
tp608
a(S'100003346543662'
S'Larissa Pedrosa'
tp609
a(S'100003951163333'
S'MariFer Yelop'
tp610
a(S'100002639077679'
S'Neide Fellipe'
tp611
a(S'100004637404375'
S'Djeri Tom'
tp612
a(S'100002475310288'
S'Regina Fernandes'
tp613
a(S'100001603460447'
S'Katarzyna Perkowska'
tp614
a(S'100003733144420'
S'Eilen Valera'
tp615
a(S'100003706823303'
S'Monika Pyszkiewicz'
tp616
a(S'100004365821134'
S'Ad\\u0131g\\u00fczel \\u00c7ardak'
tp617
a(S'100001397431669'
S'Kurysutian Dark'
tp618
a(S'1219643956'
S'\\u0e1a\\u0e34\\u0e4a\\u0e01\\u0e1a\\u0e2d\\u0e2a \\u0e08\\u0e30\\u0e04\\u0e23\\u0e2d\\u0e07 \\u0e42\\u0e25\\u0e01'
tp619
a(S'100003159247744'
S'Edson Anselmo da Silva'
tp620
a(S'100004525062953'
S'Vanessa Moreira'
tp621
a(S'605993569'
S'Hatice Sorensen Sorensen'
tp622
a(S'100004312866965'
S'Sylviane Creton'
tp623
a(S'100002301472701'
S'Ana Raquel Silva'
tp624
a(S'100002442101639'
S'Frank Pop'
tp625
a(S'100003030708598'
S'Vanessa Reis'
tp626
a(S'100004651927268'
S'Barbara Ignacia'
tp627
a(S'1570848370'
S'Apokalipsis Miguelmp'
tp628
a(S'100004411424114'
S'Wagner Ojeda Rocha'
tp629
a(S'100001258928067'
S'Ariane Ramos'
tp630
a(S'100001859429224'
S'Andi Monister'
tp631
a(S'639553137'
S'Sara Elvira Contreras Gamarra'
tp632
a(S'100002450255458'
S'Diego Margarete Toyoda'
tp633
a(S'100004967190338'
S'Cleide Gon\\u00e7alves'
tp634
a(S'100000054162799'
S'Mariana Zandomenico Reis'
tp635
a(S'100001469736806'
S'Jaros\\u0142aw Piwowarczyk'
tp636
a(S'100002692046091'
S'Sabine van Acken'
tp637
a(S'100003277391956'
S'Nadine Godefroy'
tp638
a(S'100003634336277'
S'Reyner Ricardo'
tp639
a(S'100001662665391'
S'Marios Matheou'
tp640
a(S'100003791352496'
S'Luna Anahi'
tp641
a(S'100004063239358'
S'Bianca Christofolli'
tp642
a(S'100003189521783'
S'Ricardo Camarinha'
tp643
a(S'100004616976727'
S'Isaias Tomas Ramos Flores'
tp644
a(S'100003589891820'
S'Amlys Medina'
tp645
a(S'100003088295565'
S'River Futsal \\u00c1gua Funda'
tp646
a(S'100004357051783'
S'Cinthia Moreno'
tp647
a(S'100004531923806'
S'Cristiano Silva'
tp648
a(S'100004588393278'
S'Jm Gara'
tp649
a(S'100002306357613'
S'Matias Sarmiento'
tp650
a(S'100003010212048'
S'Gelcina Reis'
tp651
a(S'100004281607883'
S'Sibel Engin Akkaya'
tp652
a(S'100003771777020'
S'Janek Kowalski'
tp653
a(S'100002785826177'
S'Kaidee Borra'
tp654
a(S'100000516298215'
S'Vivien Oszt Ch\\u0151\\u0151'
tp655
a(S'1083308879'
S'Anderson Trajano Sayff'
tp656
a(S'100001011249126'
S'Petty Oliveira'
tp657
a(S'100002583554355'
S'Domino Blu'
tp658
a(S'100003511209593'
S'Joe Young'
tp659
a(S'100001906594384'
S'Eva Neubauer'
tp660
a(S'100004546893052'
S'Gloria Di'
tp661
a(S'100002478932106'
S'Edmund Poszadel'
tp662
a(S'100001332974808'
S'Akary Spyrit'
tp663
a(S'100002626170378'
S'Maria Caliope de Sousa'
tp664
a(S'1782087953'
S'Ismael Arturo Martinez'
tp665
a(S'100003483379592'
S'Rosana Cortez'
tp666
a(S'100004540150142'
S'Vania Silva Farias'
tp667
a(S'100003177797949'
S'Lin Yun'
tp668
a(S'100001026990607'
S'Cesar Cf'
tp669
a(S'100001852418622'
S'Gely Gomez'
tp670
a(S'100002044528707'
p671
S'Zenek \\u015amietana'
tp672
a(S'100002309255043'
S'Otto Schneider'
tp673
a(S'100002952399154'
S'Pahola Karina Varela'
tp674
a(S'100003940530714'
S'Mone Silva'
tp675
a(S'100002017997025'
S'Birgit Z\\u00fchlke'
tp676
a(S'737266475'
S'Luz Del Alba'
tp677
a(S'1777200426'
S'Pah Kecho'
tp678
a(S'100000260004489'
S'Rodrigo Mello'
tp679
a(S'100004634501200'
S'Chiquito Nascimento'
tp680
a(S'100001128798865'
S'Cintia Brown'
tp681
a(S'100004406654551'
S'Rubia Polyvrin'
tp682
a(S'100003371725579'
S'Jieh Chau'
tp683
a(S'100003133187359'
S'Anderson Jrz Avalos Ramirez'
tp684
a(S'100002036157730'
p685
S'Ana Matei'
tp686
a(S'100003739160492'
S'Karina Santana'
tp687
a(S'100003470974263'
S'Talita Santos'
tp688
a(S'100001849129848'
S'Furkan Rami T\\u00fcre'
tp689
a(S'100004139979432'
S'Marcin Balicki'
tp690
a(S'100002834957735'
S'Byron Santino'
tp691
a(S'100004002335294'
S'Josef Escherig'
tp692
a(S'100003238298064'
S'Kevin Rodriguez'
tp693
a(S'100000110763814'
S'Jaqueline Moreira Maia'
tp694
a(S'100003684080061'
S'Melina Contreras'
tp695
a(S'1202514430'
S'Lorena Sanchez'
tp696
a(S'100005644146271'
S'Ospequeninos Af'
tp697
a(S'100000570997278'
S'Jacqueline van Opstal'
tp698
a(S'100004523430478'
S'S\\u0142awek Szacik'
tp699
a(S'100002290217181'
S'Monica Gomes'
tp700
a(S'100000441636867'
S'Andressa Alboz'
tp701
a(S'100001238586005'
S'Yenyen Ng'
tp702
a(S'100002234346813'
S'Ana Paula Azevedo'
tp703
a(S'100003253282769'
S'Francantonio Rinaldi'
tp704
a(S'100000328677507'
S'Dana Elena'
tp705
a(S'100003560270586'
S'Rui Nunes'
tp706
a(S'100003198226192'
S'Sole Del del Vento'
tp707
a(S'100001647902951'
S'Oscar Navarro'
tp708
a(S'832400928'
S'Javier Molina Duran'
tp709
a(S'100004425789464'
S'Francesca Estefania Martinez Jorquera'
tp710
a(S'100001162507707'
S'Asenop Ruam'
tp711
a(S'100002204344380'
S'Yennifer Sanchez Vivas'
tp712
a(S'100003785644985'
S'Katherin Andrea Ahumada Aguilera'
tp713
a(S'100001680991080'
p714
S'MarTina Ittrich'
tp715
a(S'100002141466657'
S'Minerva Angulo de Rodriguez'
tp716
a(S'100000290031026'
S'Michael Dai'
tp717
a(S'100002646018499'
S'Erick de Jesus'
tp718
a(S'100003681578472'
S'Bonny Claid'
tp719
a(S'100004312450101'
S'Dan Darkquz Electronik'
tp720
a(S'100000922105634'
S'Fabio Souza'
tp721
a(S'100003611942281'
S'Nice Fran\\u00e7a'
tp722
a(S'1457506253'
S'Deise Benedito'
tp723
a(S'100000740055160'
S'Tain\\u00e3 Bonifacio'
tp724
a(S'100000868029173'
S'Camilla Vicentin'
tp725
a(S'100004450272075'
S'Zygmunt Baberek'
tp726
a(S'100000784378898'
S'Johny Martinez'
tp727
a(S'1400154234'
S'Hale \\u00d6zer Arslan'
tp728
a(S'100002868824763'
S'Michael Thomaz Tomaz'
tp729
a(S'100003359089534'
S'Ciulei Daniel'
tp730
a(S'100003531680248'
S'Pedro Henrique Andrade Trevisan'
tp731
a(S'100000261111081'
S'S\\u00e9rgio Nogueira'
tp732
a(S'100001831028740'
p733
S'Can\\u0131mda Cans\\u0131n'
tp734
a(S'100003211082149'
S'Fabio Alves DE Oliveira'
tp735
a(S'100000586537837'
S'Ana Carolina Matos'
tp736
a(S'100002053521213'
S'Justyna Michalec'
tp737
a(S'100002799960851'
S'Claudinho Agua Funda'
tp738
a(S'1007186000'
S'Niko Evan Jack'
tp739
a(S'100002173946737'
S'Eriquinha Silva'
tp740
a(S'100001014786433'
S'Samuel Silva'
tp741
a(S'1626421705'
S'Luziana Mascarenhas'
tp742
a(S'100004186926443'
S'Nicolas Gabriel'
tp743
a(S'100004041288867'
S'Anna Luisa Ortega Guadian'
tp744
a(S'100003577541221'
S'Gianne Pires'
tp745
a(S'100004275700128'
S'EriiKiita Love'
tp746
a(S'100002222049742'
S'Viviane Silva'
tp747
a(S'100004013878202'
S'Felipe Ferras'
tp748
a(S'100003833314241'
S'Saw Raai'
tp749
a(S'100003165406265'
S'Frank Reising'
tp750
a(S'100003799717561'
S'Pri Santa Flor'
tp751
a(S'100004358443516'
S'Gizem \\u00c7elen'
tp752
a(S'100003833166599'
S'Raulito Voleibol'
tp753
a(S'100003600299153'
S'Adela Bordas'
tp754
a(S'100002657955643'
S'Marcela Marquez'
tp755
a(S'100003540300656'
S'Patrick Jarosz'
tp756
a(S'100003040894266'
S'Marco Guzm\\u00e1n'
tp757
a(S'1014983844'
S'T\\u00fclay \\u00c7elik'
tp758
a(S'100003597309514'
S'Nihat Saban'
tp759
a(S'100000057312078'
S'Sara Gomes'
tp760
a(S'100004103050792'
S'Amel Amoula'
tp761
a(S'100004142320051'
S'Erika Lino'
tp762
a(S'1440003219'
p763
S'Christophe Morvany'
tp764
a(S'100001376646682'
S'Adriana Dias'
tp765
a(S'100002179134264'
S'Juste Pourfarmheroes'
tp766
a(S'100005299745176'
S'Leidy Viviana Sabogal Morales'
tp767
a(S'100003255420032'
S'Sandra Gon\\u00e7alves'
tp768
a(S'100004062780238'
S'Danih Costa'
tp769
a(S'1812562607'
S'Maxime Georges'
tp770
a(S'544268223'
S'Silvia Barros'
tp771
a(S'100004134458945'
S'Debora Zimmer'
tp772
a(S'100001333615760'
S'Yendwin Alfonso Santos Calderon'
tp773
a(S'100004518276454'
S'Jhostyn Hernan Sincha Sisalima'
tp774
a(S'100001862724558'
S'Claudia Alina Raduta'
tp775
a(S'100003603311052'
S'Kuba Jablonski'
tp776
a(S'100003688578914'
S'Danger Danger'
tp777
a(S'100003870532988'
S'Deise Edna Freire da Costa'
tp778
a(S'100003581352014'
S'Gabriela Alves'
tp779
a(S'100001371823975'
S'Bahtiyar Akb\\u0131y\\u0131k'
tp780
a(S'100000283119047'
S'Ana No Para'
tp781
a(S'100004283622871'
S'F\\u00e1tima Santos'
tp782
a(S'100004049955815'
S'Jan Nowak'
tp783
a(S'100000249894445'
S'\\u674e\\u4ea6'
tp784
a(S'100004272963281'
p785
S'G\\u00fcl G\\u00fcl\\u00fcm'
tp786
a(S'1385144057'
S'Cecilia Ivonne Garay Castillo'
tp787
a(S'100001151411403'
S'Ildik\\u00f3 F\\u00fcl\\u00f6p'
tp788
a(S'100004134123304'
S'Joao Paulo'
tp789
a(S'100004248578519'
S'Mark Renton'
tp790
a(S'100000593234837'
S'Cristina Garrucho Perez'
tp791
a(S'100004355942942'
S'Arelim Nipsirc'
tp792
a(S'100004347912320'
S'GamMy MW'
tp793
a(S'100000748684317'
S'Juliana Oliveira Policarpo'
tp794
a(S'100001866813289'
S'Nana VCifoni'
tp795
a(S'100001126775260'
S'Isa Rmz'
tp796
a(S'864230383'
S'Wanda A Bell Harris'
tp797
a(S'1507964345'
S'PakioOux Cortes'
tp798
a(S'100003630847898'
S'Demetrios Carmo Bueno'
tp799
a(S'100002257690252'
S'Carlos Pereira'
tp800
a(S'100001439278120'
S'Leandro Klinkerfuss'
tp801
a(S'100000468614275'
S'Tadeu Bonifacio'
tp802
a(S'100002226050034'
S'Anita Rodriguez'
tp803
a(S'100003215353326'
S'Monika Mokrzycka'
tp804
a(S'100003576574326'
S'Dri Magalhaes'
tp805
a(S'100004638580601'
S'Saule MonsterWorld'
tp806
a(S'100003777185104'
S'Fernanda Queila Souza'
tp807
a(S'100003340947456'
S'Janice Holzmann'
tp808
a(S'100002255690721'
S'Alan Nagao'
tp809
a(S'100003188171454'
S'Eric Di Lorenzo'
tp810
a(S'100002060614337'
S'Amanda Souza'
tp811
a(S'100001470738050'
S'Il Franz Francesco Fabiani'
tp812
a(S'100003212037311'
S'Marco Dias Moreno'
tp813
a(S'100001800348395'
S'Natalia Rodrigues'
tp814
a(S'100000449793820'
S'Suniya Dureed'
tp815
a(S'100005105461974'
S'Geno Souza'
tp816
a(S'100004043546082'
p817
S'Abcj MonsterWprld'
tp818
a(S'100004662818099'
S'Mon Zeta'
tp819
a(S'1270522036'
S'Vanessa Durocher'
tp820
a(S'100004422309756'
S'Aso Hetlar'
tp821
a(S'100001770147447'
S'Raquel Martinez Minyette'
tp822
a(S'100003650557136'
S'\\u0e19\\u0e31\\u0e07\\u0e21\\u0e32\\u0e23\\u0e27\\u0e38\\u0e48\\u0e19\\u0e27\\u0e32\\u0e22 \\u0e01\\u0e31\\u0e1a\\u0e19\\u0e32\\u0e22\\u0e0b\\u0e37\\u0e48\\u0e2d\\u0e1a\\u0e37\\u0e49\\u0e2d'
tp823
a(S'100005242117872'
S'Marcia Louren\\u00e7ia'
tp824
a(S'100004412313924'
S'Simona Cimaglia'
tp825
a(S'100001614639240'
S'Joao Augusto Bonifacio'
tp826
a(S'100002455481612'
S'Tatiana Carvalho'
tp827
a(S'100002697314369'
S'Sidenir Felipe'
tp828
a(S'1724962897'
S'M\\u00e1rcia Batista'
tp829
a(S'100000055500876'
S'Renato P. Franco'
tp830
a(S'100000411079802'
p831
S'Marco Salvetti'
tp832
a(S'100003946782201'
S'Asim Asim'
tp833
a(S'100002061980825'
S'Gra\\u00e7a Morais'
tp834
a(S'523375802'
S'Bado Love'
tp835
a(S'100002568296638'
S'Daniel Vitor Machado'
tp836
a(S'100001667024736'
p837
S'Anderson Marcel'
tp838
a(S'100004800750156'
S'Joshua Rene Sandoval Mu\\u00f1oz'
tp839
a(S'100003280102159'
S'Gabriel Matos'
tp840
a(S'100001554376956'
S'Jin Hiranlalkna'
tp841
a(S'100004735594440'
S'Maria Clara Melo Costa'
tp842
a(S'100002975950024'
S'Ugd Room'
tp843
a(S'100000946753678'
S'Mkipper Kipper'
tp844
a(S'1006574306'
S'Leung Tit Wing'
tp845
a(S'1686931533'
S'Marta Silva'
tp846
a(S'100004017733829'
S'Mabii Soy'
tp847
a(S'100004095127476'
S'Bar\\u00e1th Klaudia'
tp848
a(S'100002553785773'
S'Edson Gomes'
tp849
a(S'100002547011343'
S'Lumerii Gv'
tp850
a(S'100001948656656'
S'Justyna Polcyn'
tp851
a(S'100001806083893'
S'Adam W\\u0142odarczyk'
tp852
a(S'100000534284811'
S'Mairim Gonzalez'
tp853
a(S'100004526020338'
S'Herry Jhon'
tp854
a(S'100004447301187'
S'Ahmet Mithat Harzem\\u015faho\\u011fullar\\u0131'
tp855
a(S'100002940459631'
S'Familia Treze Graus Futsal'
tp856
a(S'100003998690395'
S'Kees van Mierloo'
tp857
a(S'100003851149880'
S'Wellington Petinelli Petinelli'
tp858
a(S'100003696822419'
S'Uwe Lohn'
tp859
a(S'1624930122'
S'Hola Gente'
tp860
a(S'100000741469835'
S'Julian Yoel'
tp861
a(S'100000856776162'
S'Bernadette Lefint'
tp862
a(S'100003257654474'
S'Monica Roberta Franco Lima'
tp863
a(S'100004292042018'
S'\\u4f1f\\u6d69\\u9648'
tp864
a(S'100003619216127'
S'Nora Sacchi'
tp865
a(S'1275645644'
S'Romeo Cortes'
tp866
a(S'100004445107668'
S'Artur Grzegorz'
tp867
a(S'100003815532836'
S'Joh Oliveira'
tp868
a(S'100000359203314'
S'Yolande van der Westhuizen'
tp869
a(S'100000319451237'
S'Ivan Martin Rodriguez'
tp870
a(S'100003178900047'
p871
S'Francisco Suliano Filho'
tp872
a(S'100003034452642'
S'Sampa Crew'
tp873
a(S'100004365905513'
S'Bianca Lima'
tp874
a(S'100000437843893'
S'Rafael Guzman Lenis'
tp875
a(S'100004467516070'
S'Hasan Kuru'
tp876
a(S'100003700218193'
S'Guih Lins'
tp877
a(S'100001313260018'
S'Urszula Wasilewska'
tp878
a(S'100001652588020'
S'Renato Chaves'
tp879
a(S'100001211787743'
S'Ramesh Kumar'
tp880
a(S'100002629434401'
S'Krisztina M\\u00e1rkus'
tp881
a(S'100000241227412'
S'Bada Candido'
tp882
a(S'100000047726964'
S'Diego Hernandez'
tp883
a(S'100000630313783'
S'Fatima Ribeiro'
tp884
a(S'100002538776882'
S'Nath\\u00e1lia Marisa'
tp885
a(S'100001630698789'
S'Andre Monteiro'
tp886
a(S'100000449694181'
S'Ebson de Lima'
tp887
a(S'100003541858104'
S'Torsten Escherig'
tp888
a(S'100000703297271'
S'Yamal Nava'
tp889
a(S'100004260128415'
S'Debora Leiva'
tp890
a(S'100003640987906'
S'Anderson Tuca'
tp891
a(S'100002188343659'
S'Priscila Santos'
tp892
a(S'100001545692794'
S'Janusz Janusz'
tp893
a(S'100002826793179'
S'Matteo Morettosec'
tp894
a(S'100001687563429'
S'Veronica Martins Dos Santos'
tp895
a(S'100002975978870'
S'Markus Scherf'
tp896
a(S'100003594069809'
S'Maria Joaquina'
tp897
a(S'100004183321411'
S'Jos\\u00e9 Marques'
tp898
a(S'100002648978610'
S'Rodrigo Muniz Morgado'
tp899
a(S'685702959'
S'Jane Wong'
tp900
a(S'100000333341488'
S'Angela Mu\\u00f1oz Folgar'
tp901
a(S'100004206608128'
S'Zbigniew Mochalski'
tp902
a(S'100001490271118'
S'Erick Royer Azcame'
tp903
a(S'100000694377825'
p904
S'Ilginch Zekerieva'
tp905
a(S'100001929417552'
S'Chatyta Rodriguez'
tp906
a(S'100001058208364'
S'Suely Queiroz'
tp907
a(S'100003330860553'
S'Daniel Fonseca'
tp908
a(S'100000451868645'
p909
S"Marinella D'errico"
tp910
a(S'100002246664728'
S'Flavio Luiz Kishimoto'
tp911
a(S'100003607446882'
S'Daniele de Oliveira'
tp912
a(S'100002176927171'
S'Gislaine Santo Monteiro'
tp913
a(S'100005975494284'
S'Glecio Reis'
tp914
a(S'100004545578013'
S'Beren Yolcu'
tp915
a(S'100003653598699'
S'Samir Abdelkader'
tp916
a(S'558612055'
S'Maddy Noting'
tp917
a(S'100001796703803'
S'Get Over'
tp918
a(S'100003955496574'
S'Allyssia Victoria Fran\\u00e7a'
tp919
a(S'100007152151996'
S'Edson Jesus'
tp920
a(S'100008301545998'
S'Tania Batista'
tp921
a(S'100004097479020'
S'Ronaldo Ronald'
tp922
a(S'100000932310760'
S'Idham Faizal Mohd Yusof'
tp923
a(S'100003945760218'
S'Ana Garcia'
tp924
a(S'100004423481771'
S'Monster Melo'
tp925
a(S'100002634345271'
S'Karolina Kasprzyk'
tp926
a(S'100003827887381'
S'J\\u00f3zek Adamczyk'
tp927
a(S'100003082434198'
S'Natasya Aqila'
tp928
a(S'100001923322957'
S'Marcus Vinicius Machado Pereira'
tp929
a(S'100004138269648'
S'Derya Y\\u0131ld\\u0131r\\u0131m'
tp930
a(S'100002514732571'
S'Alejandro Guerra'
tp931
a(S'100000829356138'
S'Javi E Ulloa'
tp932
a(S'100003194241058'
S'Cesar Moraes'
tp933
a(S'100004144416484'
S'Nicole Mirella'
tp934
a(S'100003510849425'
S'Rik Nies'
tp935
a(S'100002282951214'
S'Cristina Moraes'
tp936
a(S'100002286739780'
S'Alex Meza Hernandez'
tp937
a(S'100001700868988'
S'Raz Sarbast'
tp938
a(S'100001246013400'
S'Kira\\u00e7 Bob'
tp939
a(S'100002956676775'
S"Monster World's"
tp940
a(S'1024639009'
S'Katiuska Sarti'
tp941
a(S'100003874789959'
S'EP Phanarat'
tp942
a(S'100000823930043'
S'Maike Ehlers'
tp943
a(S'100004411268664'
S'Racer Racer'
tp944
a(S'100000402330888'
S'Becky Compton'
tp945
a(S'100002541928986'
S'Adrian Cardoso'
tp946
a(S'100002135312006'
S'Willian Gon\\u00e7alves'
tp947
a(S'100002492228690'
S'Neide Batalha'
tp948
a(S'100000774108327'
S'Kamila Groman'
tp949
a(S'100004507359886'
S'Maria Luisa Lugo'
tp950
a(S'100003600551186'
S'Meral Kara'
tp951
a(S'100005177833472'
S'Wellington Petinelli'
tp952
a(S'100004512009975'
S'Mahl Zeit'
tp953
a(S'854600003'
S'Mohammad Waseem Sajjad Doslani'
tp954
a(S'100004555571146'
p955
S'Francisca Soledad'
tp956
a(S'100000052543617'
S'Manuel Santos'
tp957
a(S'100002167456444'
S'Tuinui Hongpracha'
tp958
a(S'100004010343202'
S'Alex Christ\\u00f3folli'
tp959
a(S'100004688141371'
S'Fabio Rossi'
tp960
a(S'1817755835'
S'Ha\\u00edbe Barcellos'
tp961
a(S'100002312644519'
S'Monster Power'
tp962
a(S'100004562556090'
S'Ana Julia Dos Santos Lima'
tp963
a(S'100002517414894'
S'Solange Ribeiro'
tp964
a(S'100004014776400'
S'Kai Cara'
tp965
a(S'100004629632161'
S'Susi Tretter'
tp966
a(S'100003079782460'
S'Brenda Bittencourt'
tp967
a(S'1112382659'
S'Fim Tamayo'
tp968
a(S'100003247656438'
S'Nohelia Del Carmen Barreto Gonzalez'
tp969
a(S'100000606401852'
S'Mauro Bigdog'
tp970
a(S'1726425508'
S'Ada Margarita Cohn'
tp971
a(S'100004350812752'
p972
S'Duc Hieu'
tp973
a(S'100001507160061'
S'Andre Dos Santos'
tp974
a(S'100004460678842'
S'Norma Avila Gardu\\u00f1o'
tp975
a(S'100003401148512'
S'Nathan Vinicius'
tp976
a(S'100002977948060'
S'Alessandra Dos Anjos'
tp977
a(S'100003731633479'
S'Roque Gemme'
tp978
a(S'100001239302245'
S'Munteanu Monica'
tp979
a(S'1020025957'
S'Monster Marcos'
tp980
a(S'100002703597163'
S'Alexandre Lima'
tp981
a(S'100001184794804'
S'Mauricio Ignacio Saez'
tp982
a(S'100001614988271'
S'Alexis Carucha M\\u00fcller'
tp983
a(S'100002373712494'
S'Melfiz Adrian Made'
tp984
a(S'100000717638985'
S'Halina Kuntz-piechnik'
tp985
a(S'1198343396'
p986
S'Roxi La-chiki'
tp987
a(S'100001240420562'
S'Iga Klimecka'
tp988
a(S'1101401452'
S'Sayed Gomla'
tp989
a(S'100001443510823'
S'Paula Gomez Diaz'
tp990
a(S'735240021'
S'Jorge Puga Green'
tp991
a(S'1672936095'
S'Ximena Montalvan'
tp992
a(S'100001926268950'
S'Jo\\u00e3o Paulo Bonif\\u00e1cio'
tp993
a(S'100003566145266'
S'Felipe Martins'
tp994
a(S'1024386654'
S'Marlon Palomino'
tp995
a(S'100002345353177'
S'Elke Irving'
tp996
a(S'100007410187969'
S'J\\u00falia Victorya'
tp997
a(S'100000944467973'
S'Gloria Mendoza'
tp998
a(S'100004211383176'
S'Daniele Graziele'
tp999
a(S'100003102682214'
S'Fabyo Bonif\\u00e1cio da Silva'
tp1000
a(S'100002484513036'
S'Fernanda Petinelli'
tp1001
a(S'100000007700310'
S'Rafael Costa'
tp1002
a(S'100002794264898'
S'Apolo Bandeira'
tp1003
a(S'100003174475407'
S'Mar Gs'
tp1004
a(S'100002974412525'
S'Marcos Alfredo'
tp1005
a(S'100004353333970'
S'Taenoi Ngeon'
tp1006
a(S'100004383940010'
p1007
S'Olga Damasceno'
tp1008
a(S'100003164408229'
S'Igor Gondo'
tp1009
a(S'100002441558915'
S'Elghazi Baadie'
tp1010
a(S'100006179652155'
S'JT PlanetModa Artigos'
tp1011
a(S'100000950767327'
S'Judyta Lenarcik'
tp1012
a(S'100004624981909'
S'Johny Nowak'
tp1013
a(S'100002181624472'
S'Menin\\u00e3o Silva'
tp1014
a(S'100003201368669'
S'Rosilene Fran\\u00e7a'
tp1015
a(S'100004525413272'
S'Ola Andruszkiewicz'
tp1016
a(S'1228465849'
S'A Sheila Monstersworlds'
tp1017
a(S'572784180'
S'Estefania Valencia Bartolano'
tp1018
a(S'100003159614824'
S'Erika Rodrigues Dos Santos'
tp1019
a(S'100001540214764'
S'Hamza Idirisa'
tp1020
a(S'100004423748924'
S'Daniel Baroni'
tp1021
a(S'100002761964233'
p1022
S'Beto Quaglia'
tp1023
a(S'100003342518093'
S'Esteban Guillermo Gonzalez'
tp1024
a(S'100002094352558'
p1025
S'Juste Pour Certain Jeux'
tp1026
a(S'100002787777647'
S'Daniela Fagundes'
tp1027
a(S'100003104462683'
S'Viviane Moreira'
tp1028
a(S'100000711588204'
S'V\\u00edtor Cardoso'
tp1029
a(S'100005023064090'
S'Paloma Jesus'
tp1030
a(S'100003330873880'
S'Adrian Piwowarczyk'
tp1031
a(S'100004065953472'
S'Mari Medeiros'
tp1032
a(S'100001530665564'
S'Rodrigo Barrientos'
tp1033
a(S'100003621994716'
S'Dariusz Monsterss'
tp1034
a(S'100004570722909'
S'Danny BA'
tp1035
a(S'1836715312'
S'Gustavo Casar\\u00e3o'
tp1036
a(S'100003230011560'
S'Julia Adzlina'
tp1037
a(S'1356675158'
S'Marcela Silva Sarti'
tp1038
a(S'100004112408664'
S'Legray Chamette'
tp1039
a(S'100000561048910'
S'Sanji Kovintharaja'
tp1040
a(S'100004048807105'
S'Ericky Santos de Oliveira'
tp1041
a(S'100004241952863'
S'Adriana Souza'
tp1042
a(S'100003686224438'
S'Petra Ranzijn'
tp1043
a(S'100000580877272'
S'S\\u00fcnden Bock'
tp1044
a(S'100002456223389'
S'Kinha Lima'
tp1045
a(S'100004767095713'
S'Maria Cardoso'
tp1046
a(S'100004282754173'
S'Justyna Td'
tp1047
a(S'100000591909827'
S'Gisela Lourdes Guarnieri'
tp1048
a(S'100002164168225'
S'Luis Ernesto Ibarra Quevedo'
tp1049
a(S'100003102923169'
S'Matheus Bueno'
tp1050
a(S'100004298104524'
S'Victoria E Totoya Tobon'
tp1051
a(S'100003601944163'
S'Mike Cole'
tp1052
a(S'100004620454264'
S'Marco Busley'
tp1053
a(S'100002147615458'
S'Eileen Aus Bramfeld'
tp1054
a(S'100000228373444'
S'Lila Moreira Fernandes'
tp1055
a(S'100003248072946'
S'Geomaira Delgado'
tp1056
a(S'100000697742856'
S'Guto Martinez'
tp1057
a(S'100002604991228'
S'Rita Ticona'
tp1058
a(S'100000848952785'
S'Paola Liliana Tejada Buitrago'
tp1059
a(S'100001533036483'
S'Serena Prata'
tp1060
a(S'100002991886007'
S'L\\u00e9ia Martins'
tp1061
a(S'100000401043655'
S'Rogeria Moreira Moreira'
tp1062
a(S'1191597724'
S'Gabriela Andrea Rotter Rojas'
tp1063
a(S'100004104592310'
S'Monster Datcu'
tp1064
a(S'100006383565093'
S'Pikena Santos'
tp1065
a(S'100004344451800'
S'Hieu Luongduc'
tp1066
a(S'100004305990024'
S'Raj Sexsena'
tp1067
a(S'100004561752427'
S'Gabriela Mendoza'
tp1068
a(S'100001106789051'
S'Roma Estiel'
tp1069
a(S'100001973823424'
S'Vicky Molina-Flores'
tp1070
a(S'100004475021163'
S'Vera Traum'
tp1071
a(S'100004294334007'
S'Kelly Analy'
tp1072
a(S'100003528283259'
S'Zofia Kubasik'
tp1073
a(S'100004045637689'
p1074
S'Tina Kilmer'
tp1075
a(S'100002674030364'
S'Tina Martin'
tp1076
a(S'599482171'
S'Miguel Angel Vera Rodriguez'
tp1077
a(S'100003475249574'
S'Lucas Izidoro'
tp1078
a(S'100004566515554'
S'Felipe Fonseca'
tp1079
a(S'100003158782964'
S'Erika Carmo Bueno'
tp1080
a(S'100003769971253'
S'Sandra Horn'
tp1081
a(S'100002906461175'
S'\\u00c9rika Reis'
tp1082
a(S'100001680574627'
S'Michael Navarro'
tp1083
a(S'634491167'
S'Agabio Netto'
tp1084
a(S'100004457354431'
S'Roberta Franco Lima'
tp1085
a(S'100004075383393'
S'Monster Vitor'
tp1086
a(S'1403392536'
S'Ale Gutierrez'
tp1087
a(S'100004067641876'
S'Beata Lewandowska-Pogorzelska'
tp1088
a(S'100001838247149'
S'Tabatta Goncalves'
tp1089
a(S'100003304632561'
S'Gustavo Comandini'
tp1090
a(S'100003162241056'
S'\\u00c1gnes Ol\\u00e1h'
tp1091
a(S'100003364783378'
S'Cassie Harvey'
tp1092
a(S'699321032'
S'Alex Sander Tavares'
tp1093
a(S'100003593598757'
S'Adriana Doce'
tp1094
a(S'100000081734858'
S'Raissa Almeida'
tp1095
a(S'100002627126628'
S'Loohan Santos'
tp1096
a(S'100003228015510'
S'Daniel Santos'
tp1097
a(S'100003231570510'
S'Eni Gma'
tp1098
a(S'1686021314'
S'Monster Ola'
tp1099
a(S'100002321132828'
S'Felipe Cunha'
tp1100
a(S'100003721791144'
S'Jo\\u00e3o Oliveira'
tp1101
a(S'1663819863'
S'Mar\\u00eda Alejandra Ricciardi Moyano'
tp1102
a(S'100003405790594'
S'Felipe Eduardo Domingos Faria'
tp1103
a(S'683191397'
S'Nina Raychuk'
tp1104
a(S'100001728178250'
S'Ivan Barajas'
tp1105
a(S'100003090625040'
S'Claudio Henrique DA Silva'
tp1106
a(S'100002026507747'
S'Araken Coelho Vasconcellos'
tp1107
a(S'100004361621916'
S'Woogoo Tchtcha'
tp1108
a(S'100003379294873'
S'Arek Kasprzyk'
tp1109
a(S'100001929867580'
S'Nithael Lima Pinto Barros'
tp1110
a(S'100000400904242'
S'Ana Srhek'
tp1111
a(S'100002502943264'
S'Duran Karde\\u015fler'
tp1112
a(S'1019451317'
S'Burhan Ongun'
tp1113
a(S'100004533697704'
S'Bolek Lolek'
tp1114
a(S'100004359572705'
S'Trotter Ken'
tp1115
a(S'100004652073677'
p1116
S'Leandro Risoto'
tp1117
a(S'100002515185088'
S'Maikinho Cerqueira'
tp1118
a(S'1000950535'
S'Faria Khan'
tp1119
a(S'100004566879685'
S'Imagina Crea Scribe'
tp1120
a(S'100003687147832'
S'Vinny MW'
tp1121
a(S'100004058253898'
S'Hb Hb'
tp1122
a(S'100001125769176'
S'Patricia Adriana Alancay'
tp1123
a(S'100002879718992'
S'Gilvaneide De Lima Silva'
tp1124
a(S'100004428309080'
S'Lucia Mattos'
tp1125
a(S'100004096953338'
S'Dany Silva'
tp1126
a(S'100001995271992'
S'Luis Caballero'
tp1127
a(S'100001417288691'
S'Anka M\\u0142y\\u0144ska'
tp1128
a(S'100003334114269'
S'Marilene Soares'
tp1129
a(S'1349522258'
S'Luzma Cabrera'
tp1130
a(S'100003624250225'
S'Gustavo Christofolli'
tp1131
a(S'100002592956571'
S'Dayane Estefany'
tp1132
a(S'100004441893653'
S'Alejandra Susana Roriguez'
tp1133
a(S'100004317631601'
S'SandyLou Field'
tp1134
a(S'100003172974191'
S'Anna Puritani'
tp1135
a(S'100004017676320'
S'Jennifer Sanchez'
tp1136
a(S'100000218152707'
S'Crissupercool Cristina'
tp1137
a(S'100003737574460'
S'Umar Abdullah'
tp1138
a(S'100002325384332'
S'Rayan Cossi Cossetti'
tp1139
a(S'100003471438297'
S'Julya Segatto'
tp1140
a(S'100003792173628'
S'Tiffany Santos de Oliveira'
tp1141
a(S'100004486087897'
S'Thais Ramila'
tp1142
a(S'1407226625'
S'Rene Cruz'
tp1143
a(S'100004613970714'
S'Roberto Eduardo Rodr\\u00edguez Gonz\\u00e1lez'
tp1144
a(S'100002541356552'
S'Conchi Cuadrado Alvarez'
tp1145
a(S'100002420097535'
S'Monalisa Carmo Bueno'
tp1146
a(S'100002395799232'
S'Pedro Pablo Martinez Anton'
tp1147
a(S'100002418537031'
S'Jo\\u00e3o Santos'
tp1148
a(S'100004068709644'
S'Lia Borges'
tp1149
a(S'1562530788'
S'Tomasz Nocu\\u0144'
tp1150
a(S'100003244736530'
S'Glaucia Melo'
tp1151
a(S'100005513894527'
S'Danilo Silva'
tp1152
a(S'100004605880344'
S'Sueli Souza'
tp1153
a(S'100003683356027'
S'Fritzin M\\u00fcller'
tp1154
a(S'100002405419016'
S'Marita Rodriguez'
tp1155
a(S'100003364267817'
S'Jacqueline Henck'
tp1156
a(S'100000883407438'
S'In\\u00eas Castro Delalibera'
tp1157
a(S'773234591'
S'H\\u00e3\\u0160\\u0161\\u00e3\\u014b \\u00c5\\u00df\\u00f6 \\u021c\\u0141i'
tp1158
a(S'100000636223008'
S'Anggun Pratiwi'
tp1159
a(S'100003657690335'
S'Raquel L\\u00facia Dognini Schramm'
tp1160
a(S'100001365448453'
S'T\\u00fcnde Gurbai'
tp1161
a(S'100000670478146'
S'Burhan Korkmaz'
tp1162
a(S'100003127660789'
S'Maximo Torres'
tp1163
a(S'100003779240003'
S'Sonia Corona Lara'
tp1164
a(S'100001026753054'
S'Taa Gaa'
tp1165
a(S'100002212025970'
S'Bastian Thieler'
tp1166
a(S'100002767376123'
S'Sanke Wooga'
tp1167
a(S'100002834758159'
S'S\\u0131la Okuyan'
tp1168
a(S'100001035498451'
S'Felipe Gon\\u00e7alves de Santana'
tp1169
a(S'100008314790613'
S'Buba Santos'
tp1170
a(S'100003338107850'
S'Julia Frieyro'
tp1171
a(S'100004139286703'
S'Wellington Silva'
tp1172
a(S'100003948769099'
S'Zbych Mochalski'
tp1173
a(S'100002283750259'
S'Priscila Mello'
tp1174
a(S'100003629738893'
p1175
S'Kleintje Mathijs'
tp1176
a(S'100000110640896'
S'Vanessa Lopes Masschmann'
tp1177
a(S'100001189561013'
S'Sandra Rael'
tp1178
a(S'100004585892446'
S'Kamil Modli\\u0144ski'
tp1179
a(S'100004609863390'
S'Seb Monsterworld'
tp1180
a(S'100001428684252'
S'Lizzy Medina'
tp1181
a(S'100000429522556'
S'Klebinho Miranda'
tp1182
a(S'100001078107391'
S'Lele Mi'
tp1183
a(S'100003051243696'
S'Dalila Petinelli'
tp1184
a(S'100002528440588'
S'Ivan Bonifa'
tp1185
a(S'100004394653073'
S'Felipe Fonseca'
tp1186
a(S'100003957262450'
S'Giovani Andrade'
tp1187
a(S'100004168900653'
S'Claudine Baudry'
tp1188
a(S'100004091886726'
S'Francisco Moreira'
tp1189
a(S'100000977770245'
S'Larissa Alves de Queiroz'
tp1190
a(S'100002339458033'
S'Marcela P S Rovani'
tp1191
a(S'100000582540490'
S'Agata Malino'
tp1192
a(S'1771158620'
S'Claudia Heloisa'
tp1193
a(S'100001958802934'
S'Pawe\\u0142 Cygan'
tp1194
a(S'100001946667575'
S'Vane Gaallardo'
tp1195
a(S'100004405357464'
S'Tamma Watjana'
tp1196
a(S'100002057210288'
S'Cleide Alves Duarte'
tp1197
a(S'100003612883010'
S'R Guimar\\u00e3es Zen'
tp1198
a(S'100001266761799'
S'Alexandra Vargas Mendoza'
tp1199
a(S'100003192646936'
S'Pelagia Mateo'
tp1200
a(S'100003848233571'
S'Yanira Francisca Terraza Suarez'
tp1201
a(S'100003900796654'
S'As Zug'
tp1202
a(S'1349521308'
S'Walter Muller'
tp1203
a(S'100004325743732'
S'Juan Antonio Pizzi'
tp1204
a(S'100000935265131'
S'Soni Colla'
tp1205
a(S'100003338417093'
S'Luis Miguel Angel Maravi Apolinario'
tp1206
a(S'100003861528657'
S'Carla Dias'
tp1207
a(S'100002539338328'
S'Ciro Tadeu'
tp1208
a(S'100002463670285'
S'Carlos de Lima'
tp1209
a(S'100004372591681'
S'Thu Xikito Emoxito Xavier Borjas'
tp1210
a(S'100001421275830'
S'Selma Marluce'
tp1211
a(S'100004205018413'
S'Yasmin Luna'
tp1212
a(S'100002945416805'
S'T\\u00eeago Yung N\\u00easto'
tp1213
a(S'100004376131412'
S'Monster Monsterworld'
tp1214
a(S'100001487398977'
S'Leidinara Raquel'
tp1215
a(S'100000810517836'
S'Celia Pelegrin'
tp1216
a(S'100002469178068'
S'Maria Pit'
tp1217
a(S'100004504540468'
S'Vasile Ionica'
tp1218
a(S'100003491180910'
S'Fernando Mancini'
tp1219
a(S'100004299850878'
S'Mohannad Bashir'
tp1220
a(S'100000071874617'
S'Englel Siboney Martinezze Bello'
tp1221
a(S'100003822817304'
S'Junior Augusto'
tp1222
a(S'100003202348356'
S'Flopi Florchi'
tp1223
a(S'100002917697972'
S'Bella Mia'
tp1224
a(S'100000708718980'
S'Luis Hernandez'
tp1225
a(S'100004032438641'
S'Simone Lessa'
tp1226
a(S'100001462085885'
S'Markus Fuhrmann'
tp1227
a(S'100000474333168'
S'Manuel Araujo'
tp1228
a(S'1757865492'
S'Cintia Aguirre'
tp1229
a(S'100001317398431'
S'Joanadarc Oliveira'
tp1230
a(S'100004444565188'
S'Gabriel Morales'
tp1231
a(S'100003364555229'
S'Chis Mosin'
tp1232
a(S'100000493738200'
S'Igor Azevedo'
tp1233
a(S'100003305338255'
S'Jouse Barrouse'
tp1234
a(S'100001134885404'
S'Jay McHugh'
tp1235
a(S'1054793192'
S'Ercan \\u00d0a\\u011fl\\u0131'
tp1236
a(S'100000736674810'
S'Alicja Kowalska'
tp1237
a(S'100001100445587'
S'Chen-jia Lin'
tp1238
a(S'100000663759690'
S'Nazare Albuquerque'
tp1239
a(S'100003768206953'
S'Jc Alzuate'
tp1240
a(S'100000381657472'
S'Mariza Brum'
tp1241
a(S'100003133321436'
S'Thiago Olivera'
tp1242
a(S'100002659752676'
S'Irma Benitez Benitez'
tp1243
a(S'100001662666043'
S'Sandy Joyeloy'
tp1244
a(S'100003845288677'
S'Nalan Yasemin Koc'
tp1245
a(S'100000347064840'
S'Abdurrahman Enes Balkan'
tp1246
a(S'100002329573967'
S'Ana Reis'
tp1247
a(S'728466291'
S'Ivan Phang'
tp1248
a(S'100001514291181'
S'Vaclovas Novogrodskis'
tp1249
a(S'100002176038945'
S'Fernando Feba'
tp1250
a(S'100003932554852'
S'Rosa Petinelli'
tp1251
a(S'1580511652'
S'Jorge Ramirez'
tp1252
a(S'100000381497973'
S'Kamil B\\u0105czyk'
tp1253
a(S'1158203458'
S'Jussara Silva'
tp1254
a(S'100001586529304'
S'Teresita Duarte'
tp1255
a(S'100002539446082'
S'Marcos Vinicius'
tp1256
a(S'100004235619126'
S'Tio La Vara de Vara'
tp1257
a(S'100001532233211'
S'Sueli Petinelli'
tp1258
a(S'100000442092366'
S'Gleci Silva Souza'
tp1259
a(S'100004580795331'
S'Kozio\\u0142ek Mato\\u0142ek'
tp1260
a(S'100003649419424'
S'Perla Bustos'
tp1261
a(S'100000470304502'
S'Adolfo Antonio Cardenas Gonzalez'
tp1262
a(S'100000485511437'
S'Vera L\\u00facia Junqueira Lamberti'
tp1263
a(S'100002176874302'
S'Ralph Santos'
tp1264
a(S'1008374638'
S'Claudia Sugey Gutierrez Arredondo'
tp1265
a(S'100002944913353'
S'Rita Pereira de Santana'
tp1266
a(S'100004653610904'
S'Edna Pereira'
tp1267
a(S'1423570987'
S'Monstrua Rosa'
tp1268
a(S'100002037342522'
S'Luigi Bobby Liburdi'
tp1269
a(S'100001093007350'
S'Emiliana Vargas'
tp1270
a(S'1195577043'
S'Jesus Cristiano de Oliveira'
tp1271
a(S'100003992752149'
S'Serdar Yilmaz'
tp1272
a(S'100004396420781'
S'Josycris Mendes'
tp1273
a(S'100001152402989'
S'Maria Angela Balcazar Ibarra'
tp1274
asS'id'
p1275
S'100003187390334'
p1276
sS'name'
p1277
S'F\\u00e1tima Dos Santos'
p1278
s.