(dp1
S'friends'
p2
(lp3
(S'100003364834387'
S'Sudhanshu Singh Rathore'
tp4
a(S'100002598881001'
S'Avinash Pandey'
tp5
a(S'100002212586232'
S'Sandeep Rajput'
tp6
a(S'100003764043052'
S'Sindhu Patamsetti'
tp7
a(S'100002798499822'
S'Hritik Sharma'
tp8
a(S'100001316877272'
S'Sachin Sharma'
tp9
a(S'100003673759001'
S'Suhail Khan'
tp10
a(S'100001583822694'
S'Prince Ajay'
tp11
a(S'100000269883659'
S'Manoj Chinchurkar'
tp12
a(S'100001736741820'
S'Rajesh Saini'
tp13
a(S'100002948055483'
S'Ambrose Trindade'
tp14
a(S'100002678865177'
S'Arshid Hussain'
tp15
a(S'100001559634080'
S'Aakash Mehra'
tp16
a(S'100003505716982'
S'Zeeshan Kausar'
tp17
a(S'1041122316'
p18
S'Pallavi Arora'
tp19
a(S'100002886237864'
S'Aryan Raj'
tp20
a(S'100003104503266'
S'Subham Kamboj'
tp21
a(S'100002209940272'
S'Deepak Bargav'
tp22
a(S'100000283158595'
S'Suryaa Bhatia'
tp23
a(S'1784620673'
S'Munish Nanda'
tp24
a(S'100001876207026'
S'Nikita Malhotra'
tp25
a(S'1365763581'
S'Hamsa Raina'
tp26
a(S'100001739242378'
S'Anshika Goel'
tp27
a(S'100004123780478'
S'Angel Saba'
tp28
a(S'100003805164249'
S'Deepak Kumar'
tp29
a(S'100002647226727'
S'Sourabh Tiwari'
tp30
a(S'100003777673120'
S'Glen Fernandes'
tp31
a(S'100001217786279'
S'Akshit Sinha'
tp32
a(S'100003705980627'
S'Navpreet Choudhary'
tp33
a(S'100002700015871'
S'Abhay Sharma'
tp34
a(S'100001654580025'
S'Vijayant Sharma'
tp35
a(S'100003365275828'
S'Deepak Yadav'
tp36
a(S'100003767801038'
S'Sandip Sharma'
tp37
a(S'568073483'
S'Shweta Misra'
tp38
a(S'100002314362366'
S'Milind Fanat'
tp39
a(S'100002164187995'
S'Shaheriyar Khan'
tp40
a(S'100003530353967'
S'Shankar Dey'
tp41
a(S'1771582643'
S'Chirag Gambhir'
tp42
a(S'100000435767680'
S'Abhishek Sharma AbBy'
tp43
a(S'100003477958801'
S'Navjot Brar'
tp44
a(S'100001512635737'
S'Sonu Jain'
tp45
a(S'100000908426701'
S'Ajeet Akela'
tp46
a(S'100001786845480'
S'Gaurav Dixit'
tp47
a(S'100003236567136'
S'Rahul Saini'
tp48
a(S'100003292939298'
S'Sam Rox'
tp49
a(S'100003671171869'
S'Meheran Ali'
tp50
a(S'100002252615309'
S'Shreya Malhotra'
tp51
a(S'100000746052348'
S'Monty Sharma'
tp52
a(S'100003664812883'
S'Saheba Reza'
tp53
a(S'100003253093981'
S'Rahul Singh'
tp54
a(S'100002950811809'
S'Ishita Sharma'
tp55
a(S'1728514930'
S'Vikas Solanki'
tp56
a(S'100000033382263'
S'Karan Hanslas'
tp57
a(S'100002689879986'
S'Nishi Malhotra'
tp58
a(S'100003652658414'
S'\\u00c3k\\u00e3\\u015d\\u0125 D\\u00ea\\u00eap'
tp59
a(S'100002712294439'
S'Rahul Mahesh'
tp60
a(S'100002860102856'
S'Dee Jx Thakran'
tp61
a(S'100002129251832'
S'Gunjan Sharma'
tp62
a(S'1037542495'
S'Anvii Gupta'
tp63
a(S'714510612'
p64
S'Siddhant Sharma'
tp65
a(S'100003095320542'
S'Abhay Chouhan'
tp66
a(S'100003493075087'
S'Om Chaudhary'
tp67
a(S'100002670022849'
S'Vikas Rajput'
tp68
a(S'100004035263060'
S'Kaviya Singh'
tp69
a(S'100003059410574'
S'Madan Singh Solanki'
tp70
a(S'100002902227916'
S'Yogesh Yadav'
tp71
a(S'100004506910401'
S'Prerna Khandaitkar'
tp72
a(S'100002906880131'
S'Vikas Radhe'
tp73
a(S'100002321166790'
S'Hr\\u00eet\\u00edk Sh\\u00e3rm\\u00e3'
tp74
a(S'100003247564184'
S'Simran Malik'
tp75
a(S'100002750458905'
S'Saurabh Sharma'
tp76
a(S'100000920536300'
S'Girish Mourya'
tp77
a(S'100001374804345'
S'Sandeep Pandey'
tp78
a(S'1348333804'
S'Satvik Kumar'
tp79
a(S'100000439048579'
S'Shagun Chhillar'
tp80
a(S'100000727635652'
S'Rohit Bansal'
tp81
a(S'100002281655138'
S'Sandy Bhati'
tp82
a(S'100000591392982'
S'Deep Kumar'
tp83
a(S'100002382964760'
S'Piter Gomes'
tp84
a(S'100001986947027'
S'Akash Singh Chauhan'
tp85
a(S'1382456700'
S'Ria Sharma'
tp86
a(S'100003303174188'
S'Khushboo Sharma'
tp87
a(S'100002171947628'
S'Dinesh Saini'
tp88
a(S'100001475895629'
S'Saagar Nayyar'
tp89
a(S'1124404790'
S'Candy Shorot'
tp90
a(S'1029171052'
S'Karan Jhunja'
tp91
a(S'100002566514258'
S'Dinesh Kaushik'
tp92
a(S'100003647867388'
S'Shubham Malik'
tp93
a(S'100002288584990'
S'Ronak Sharma'
tp94
a(S'100003609699472'
S'Aayan Sharma'
tp95
a(S'1748598220'
S'Archit Rathi'
tp96
a(S'100002845021896'
S'Moni Yadav'
tp97
a(S'100003210205042'
S'Shashi Ranga'
tp98
a(S'100002542179417'
S'Puneet Saini'
tp99
a(S'100002619230196'
S'Nikhil Bharadwaj'
tp100
a(S'100002234269341'
S'Prashant Rao'
tp101
a(S'100002945541855'
S'AtIf KhAn'
tp102
a(S'100003613440037'
S'Abhishek Gangawat'
tp103
a(S'100002344189707'
S'Gracias Fernandes'
tp104
a(S'100004073766108'
S'Lahori Munda'
tp105
asS'id'
p106
S'100003968198674'
p107
sS'name'
p108
S'Sneha Sharma'
p109
s.