(dp1
S'name'
p2
S'Arko Dey'
p3
sS'current_class'
p4
S'india'
p5
sS'home_class'
p6
Vhometown, street number 104, sub-central business district(action area 1), action area i, rajarhat newtown, kolkata, west bengal 700156, india
p7
sS'home_text'
p8
VCalcutta, India\u000aHometown
p9
sS'current_link'
p10
Vhttps://www.facebook.com/l.php?u=https%3A%2F%2Fwww.bing.com%2Fmaps%2Fdefault.aspx%3Fv%3D2%26pc%3DFACEBK%26mid%3D8100%26where1%3D-33.92529884627%252C%2B18.422698974609%26name%3DCape%2BTown%252C%2BWestern%2BCape%26mkt%3Den-IN&h=PAQHdAqTe&s=1
p11
sS'home_link'
p12
Vhttps://www.facebook.com/l.php?u=https%3A%2F%2Fwww.bing.com%2Fmaps%2Fdefault.aspx%3Fv%3D2%26pc%3DFACEBK%26mid%3D8100%26where1%3D22.569700842892%252C%2B88.368530273438%26name%3DCalcutta%252C%2BIndia%26mkt%3Den-IN&h=fAQEwDd7k&s=1
p13
sS'current_text'
p14
VCape Town, Western Cape\u000aCurrent City
p15
sS'friends'
p16
(lp17
(S'100006137492720'
S'Aman Sandhu'
tp18
a(S'100001830830595'
S'Viven Viven'
tp19
a(S'100007705093753'
S'Red Puzzle'
tp20
a(S'1226396601'
S'Pranav Jain'
tp21
a(S'1645640382'
S'Arjoonn Sharma'
tp22
a(S'100005773897749'
S'Vibhu Sehrawat'
tp23
a(S'1459734806'
S'Siddhant Sawarkar'
tp24
a(S'100002593169238'
S'Pragyan Shakya Ghale'
tp25
a(S'1183157318'
S'Aashika Joseph'
tp26
a(S'100000700020118'
S'Siddharth Pradhan'
tp27
a(S'100005815476815'
S'Anjali Arora'
tp28
a(S'100003666490896'
S'Surabhi Mitra'
tp29
a(S'100007701044434'
S'Sayan Kumar'
tp30
a(S'701970173'
S'Ngawang Jimmy'
tp31
a(S'100000180299008'
S'Sreedharan Nadeson'
tp32
a(S'553295141'
S'Niina Kawarazaki'
tp33
a(S'100001287642558'
S'Rajat Soni'
tp34
a(S'1161434719'
S'Sarthak Kataria'
tp35
a(S'792469570'
S'Sampras Selvaraj'
tp36
a(S'1550703681'
S'Pragyan Ghale'
tp37
a(S'1097082141'
S'Varun Kupusamy'
tp38
a(S'1068313111'
S'Akil Fiaz Hameed'
tp39
a(S'100003749071291'
S'Kart Yuvi'
tp40
a(S'100005859542695'
S'Shru Patial II'
tp41
a(S'100005479933705'
S'Priya Chouhan'
tp42
a(S'1163619202'
S'Lakshya Vohra'
tp43
a(S'100001296030697'
S'Deep Thetattoomaker'
tp44
a(S'100005233504702'
S'Bbudapest Bar'
tp45
a(S'100001578157180'
S'Mavish Abas'
tp46
a(S'100003988434999'
S'Partyy Animalz'
tp47
a(S'1041122316'
S'Pallavi Arora'
tp48
a(S'1069717666'
S'priyank sukhija'
tp49
a(S'1365124002'
S'Stephen Das'
tp50
a(S'100002443504625'
S'Flashwave Entertaintments'
tp51
a(S'100006991988977'
S'Tani Roy'
tp52
a(S'528022614'
S'Siddharth Marya'
tp53
a(S'1461072935'
S'Akshansh Animesh'
tp54
a(S'100003150635129'
S'Vikram Garg'
tp55
a(S'1228423052'
S'Kashish Gajrawala'
tp56
a(S'100001122800416'
S'Ajmeer Metha'
tp57
a(S'100000072943337'
S'Matthew Gordon'
tp58
a(S'100004656223577'
S'Niovana Ewa'
tp59
a(S'100002365982938'
S'Siddhant Dutta'
tp60
a(S'100005397104173'
S'MMickle M Rai'
tp61
a(S'100003187881337'
S'Saroj Kumar Dhal'
tp62
a(S'100002653163878'
S'Rahul Srk Mondal'
tp63
a(S'696732625'
S'Manya Mirchandani'
tp64
asS'id'
p65
S'100004256771017'
p66
s.