(dp1
S'friends'
p2
(lp3
(S'100002507124158'
S'Sarwar Rizvi'
tp4
a(S'100000169850620'
S'Amar Agarwal'
tp5
a(S'844052942'
S'Ajit Kumar Jain'
tp6
a(S'100001167068627'
S'Yogender Chaudhry'
tp7
a(S'100001691613639'
S'Kaushal Singh'
tp8
a(S'1185075957'
S'Sreekant Bhatnagar'
tp9
a(S'100000328975078'
S'LK Agarwal'
tp10
a(S'1057808456'
S'Ramesh Narain Parbat'
tp11
a(S'1621364767'
S'Mima Sorefan'
tp12
a(S'749133437'
S'Yogesh Verma'
tp13
a(S'1029713428'
S'Sandip Garg'
tp14
a(S'683253090'
S'Arvind Srivastava'
tp15
a(S'1496460610'
S'Ashok K Manchanda'
tp16
a(S'702506242'
S'Salil Gupta'
tp17
a(S'100000290138748'
S'Sundeep Nayak'
tp18
a(S'1496400927'
S'Shyam Benupani'
tp19
a(S'100002134108607'
S'Yogendra Kumar Singh'
tp20
a(S'780843935'
S'Ashish Abrol'
tp21
a(S'1328930985'
S'Ashutosh Mishra'
tp22
a(S'100001093797042'
S'Payal Garg'
tp23
a(S'832517178'
S'Anirudh Tewari'
tp24
a(S'100001984217848'
S'Bhupendra Singh Rawat'
tp25
a(S'750462361'
S'Mala Paropkari'
tp26
a(S'1058475900'
S'Anup Kumar Dubey'
tp27
a(S'100000178568235'
S'Dinesh Mohan'
tp28
a(S'100000091292740'
S'Rajkumar Karwani'
tp29
a(S'100001393566058'
S'Bhavesh Shah'
tp30
a(S'1112834612'
S'Rabi Narayan Dash'
tp31
a(S'729990414'
S'Sk Singh'
tp32
a(S'100000257200507'
S'Kalhan Karwani'
tp33
a(S'734608651'
S'Anadee Nath Misshra'
tp34
a(S'1355430427'
S'Chandra Nath Banerji'
tp35
a(S'100000405043117'
S'Kamal Yadav'
tp36
a(S'100002095278418'
S'Shri Prakash Tripathi'
tp37
a(S'100002303735163'
S'Rajiv Mathur'
tp38
a(S'100002125983950'
S'Lal Chand'
tp39
a(S'1037131183'
S'Vijay Kumar'
tp40
a(S'1735645389'
S'Neena Kumar'
tp41
a(S'100000291901823'
S'Raj Mehrotra'
tp42
a(S'100000128142406'
S'Jayant Kumar'
tp43
a(S'1627283743'
S'Prabodh Saxena'
tp44
a(S'100003046965572'
S'Rajan Singla'
tp45
a(S'1346035339'
S'Mamta Bansal'
tp46
a(S'100000012296346'
S'Madhukar Kant'
tp47
a(S'1087822653'
S'Dinesh Ahuja'
tp48
a(S'849335647'
S'Sangeeta K Karwani'
tp49
a(S'100000944586698'
S'Amitabh Agarwal'
tp50
a(S'663196732'
S'Vimalendu Verma'
tp51
a(S'1015676253'
S'Joe Sebastian'
tp52
a(S'100000611075409'
S'Feroz Khan'
tp53
a(S'1589762581'
S'Lalit Dehiya'
tp54
a(S'688977287'
S'Pooja Rastogi'
tp55
a(S'1066806180'
S'Amit Mohan Govil'
tp56
a(S'100000984780961'
S'Shrikant Ambastha'
tp57
a(S'100000145453354'
S'Savita Gupta'
tp58
a(S'553267215'
S'Nidhi Srivastava'
tp59
a(S'1287439787'
S'Achla Seth'
tp60
a(S'1668155431'
S'Mahesh Kumar'
tp61
a(S'1774346407'
S'Vijay Agarwal'
tp62
a(S'595629126'
S'Piyush Kumar Singh'
tp63
a(S'1109934626'
S'Hemant Kumar'
tp64
a(S'100000611066894'
S'Rita Shrimali'
tp65
a(S'100000633777683'
S'Syed Naiyer Ali Najmi'
tp66
a(S'100001716668330'
S'Pranjal Seth'
tp67
a(S'100000308580192'
S'Smita Shah'
tp68
a(S'100001249132013'
S'Sandip Pradhan'
tp69
a(S'100004599343731'
S'Sanjay Chola'
tp70
a(S'1044820496'
S'Vivek Chitravanshi'
tp71
a(S'100000838977311'
S'Deepak Shah'
tp72
a(S'100000473738423'
S'Vachaspati Srivastava'
tp73
a(S'550969067'
S'Satyendra Mishra'
tp74
a(S'731057544'
S'Nivedita Biswas'
tp75
a(S'100001216597401'
S'Nasir Ali'
tp76
a(S'1114457433'
S'Avinash Mishra'
tp77
a(S'100001255948339'
S'Madhukar Arvind'
tp78
a(S'100000280374252'
S'Anand Upadhyay'
tp79
a(S'100001209437027'
S'Ravi Sarangal'
tp80
asS'id'
p81
S'100001934147403'
p82
sS'name'
p83
S'Prabodh Seth'
p84
s.