(dp1
S'name'
p2
S'Manjari Kacker'
p3
sS'current_class'
p4
S'india'
p5
sS'home_class'
p6
Vkanpur, uttar pradesh, india
p7
sS'home_text'
p8
VKanpur, Uttar Pradesh\u000aHometown
p9
sS'current_link'
p10
Vhttps://www.facebook.com/l.php?u=https%3A%2F%2Fwww.bing.com%2Fmaps%2Fdefault.aspx%3Fv%3D2%26pc%3DFACEBK%26mid%3D8100%26where1%3D18.975000641097%252C%2B72.825622558594%26name%3DMumbai%252C%2BMaharashtra%252C%2BIndia%26mkt%3Den-IN&h=0AQGn4dP7&s=1
p11
sS'home_link'
p12
Vhttps://www.facebook.com/l.php?u=https%3A%2F%2Fwww.bing.com%2Fmaps%2Fdefault.aspx%3Fv%3D2%26pc%3DFACEBK%26mid%3D8100%26where1%3D26.460700824266%252C%2B80.33203125%26name%3DKanpur%252C%2BUttar%2BPradesh%26mkt%3Den-IN&h=CAQHjMTLw&s=1
p13
sS'current_text'
p14
VMumbai, Maharashtra, India\u000aCurrent City
p15
sS'friends'
p16
(lp17
(S'500510109'
S'Devika Srivastava'
tp18
a(S'193110465'
S'Isha Kacker'
tp19
a(S'1325319960'
S'Brahma Prakash Gaur'
tp20
a(S'100002230174389'
S'Suman Sharma'
tp21
a(S'100002294400233'
S'Bela Khanna'
tp22
a(S'1736259042'
S'Usha Gupta'
tp23
a(S'736785469'
S'Meeta Bajpai'
tp24
a(S'100003831474608'
S'Hardeep Srivastava'
tp25
a(S'100001238804568'
S'Medisetti Tirumala Kumar'
tp26
a(S'717246013'
S'Deepa Joshi'
tp27
a(S'575835787'
S'Abhinav Shrivastava'
tp28
a(S'100000266861114'
S'Madhu Kapoor'
tp29
a(S'100001626874587'
S'Rama Das'
tp30
a(S'651191086'
S'Shitij Kacker'
tp31
a(S'100000841286162'
S'Ashima Jauhry'
tp32
a(S'100000022127300'
S'Ranjana Sinha'
tp33
a(S'1545349799'
S'Munindra Mohan Das'
tp34
a(S'100000546444784'
S'Roli Srivastava Lakhotia'
tp35
a(S'1340746858'
S'Urvashi Saxena'
tp36
a(S'544180974'
S'Natasha Kacker Saini'
tp37
a(S'670588482'
S'Nikkie Bajpai'
tp38
a(S'718021069'
S'Akhilesh Prasad'
tp39
a(S'100003811791578'
S'Saroj Arya Bhushan'
tp40
a(S'1003705539'
S'Kusum Bajpai'
tp41
a(S'1023252891'
S'Ajeet Prasad'
tp42
a(S'100003234594982'
S'Meenakshi Singh'
tp43
a(S'648074961'
S'Anshu Shrivastav-Virmani'
tp44
a(S'828600592'
S'Arvind Srivastava'
tp45
a(S'100002240108419'
S'Saroj Bala'
tp46
a(S'100002867002390'
S'Ranjana Singh'
tp47
a(S'100000002564366'
S'GS Narang'
tp48
a(S'100002219070676'
S'Madhu Srivastava'
tp49
a(S'100007029911731'
S'Neeru Rastogi'
tp50
a(S'100000216930960'
S'Rupinder Pannu Brar'
tp51
a(S'100000026876990'
S'Virendra K Srivastava'
tp52
a(S'100004462270242'
S'Bela Jain'
tp53
a(S'100001081161967'
S'Shailly Rastogi'
tp54
a(S'1216478818'
S'Mridula Srivastava'
tp55
a(S'100001979433943'
S'RK Bajaj'
tp56
a(S'100000069949033'
S'Rama Das'
tp57
a(S'814350003'
S'Arti Srivastava'
tp58
a(S'1256627713'
S'Hardial S Aulakh'
tp59
a(S'100000706779126'
S'Kavita Srivastava'
tp60
a(S'1079453739'
S'Karun K Ojha'
tp61
a(S'1207910600'
S'Shiv Sewak'
tp62
a(S'517319029'
S'Sneha Kapoor Tandon'
tp63
a(S'1317437587'
S'Suman Singh'
tp64
a(S'644060799'
S'Shivam Khanna'
tp65
a(S'671086214'
S'Gagan Saini'
tp66
a(S'1409795991'
S'Hemant Sarangi'
tp67
a(S'725987106'
S'Aditi Srivastav'
tp68
a(S'100000783631707'
S'Mamta Mohan'
tp69
a(S'1052958592'
S'Adarsh Modi'
tp70
a(S'738245834'
S'Abhay Damle'
tp71
a(S'631330595'
S'Devyani Argal-Dhaliwal'
tp72
a(S'536227656'
S'Dhruv Lakhotia'
tp73
a(S'1467253058'
S'Sandeep Behl'
tp74
a(S'100000280374252'
S'Anand Upadhyay'
tp75
a(S'100003012909389'
S'Shivani Pujara Kacker'
tp76
a(S'674423657'
S'Harish Kumar'
tp77
asS'id'
p78
S'100002039233852'
p79
s.