(dp1
S'friends'
p2
(lp3
(S'100003743529304'
p4
S'Alice Pollita'
tp5
a(S'100004028814534'
S'AR Monsterworld'
tp6
a(S'100004441893653'
S'Alejandra Susana Roriguez'
tp7
a(S'100002547011343'
p8
S'Lumerii Gv'
tp9
a(S'100004462058723'
S'Robert Toto'
tp10
a(S'100003897116618'
S'Sharolita Monster Puc'
tp11
a(S'100004472523715'
S'Brad Tentaculo'
tp12
a(S'100001638668730'
S'Nohelia Ramirez'
tp13
a(S'100003924953496'
p14
S'Maria Fernanda'
tp15
a(S'100002201889918'
S'Dinoraah Murbach'
tp16
a(S'100004547226774'
S'Monster Serdar \\u00d6nemlimi'
tp17
a(S'100002460288503'
S'Lucia Monteiro'
tp18
a(S'100003682193117'
S'Daniel Orcotoma Zegarra'
tp19
a(S'100002880985272'
S'Monster Friend'
tp20
a(S'100000197747837'
S'Priscilla Pompi'
tp21
a(S'100004277190687'
S'Donna Leon'
tp22
a(S'100003360127377'
S'Monster Ralf'
tp23
a(S'1363246146'
S'David Moreno'
tp24
a(S'100000449793820'
S'Suniya Dureed'
tp25
a(S'100003186963410'
S'Ricardo Fernandes'
tp26
a(S'100003215833260'
S'Kratos Rain'
tp27
a(S'100000042833684'
S'Marta Catalina Girazoles'
tp28
a(S'516922409'
S'Agustina Mariel Luna'
tp29
a(S'100004365821134'
S'Ad\\u0131g\\u00fczel \\u00c7ardak'
tp30
a(S'100004903598242'
S'Monster Candy'
tp31
a(S'100001619224666'
S'A Claude GirlMonster'
tp32
a(S'100003554573328'
p33
S'Jack Daniel'
tp34
a(S'100004651982299'
S'Eva Crete'
tp35
a(S'517016233'
S'Carolina Caba\\u00f1as'
tp36
a(S'100003528283259'
p37
S'Zofia Kubasik'
tp38
a(S'100004357051783'
S'Cinthia Moreno'
tp39
a(S'100001100445587'
S'Chen-jia Lin'
tp40
a(S'524973459'
S'Topircean Ilie'
tp41
a(S'100002337747667'
p42
S'Ibrahim Etem Co\\u015fkun'
tp43
a(S'100003980907523'
S'Javiel Montero Mateo'
tp44
a(S'100001699214762'
S'Anderson Ferreira'
tp45
a(S'100002629434401'
S'Krisztina M\\u00e1rkus'
tp46
a(S'100003224305737'
S'Laura Sousa'
tp47
a(S'1258404892'
S'Harm Van Vondel'
tp48
a(S'100001096927209'
S'Mihaela Turuc Pop'
tp49
a(S'100003770716554'
S'Rosimeire Ferreira'
tp50
a(S'100000981870497'
S'Gladis Saurel'
tp51
a(S'100001787074467'
S'Marcos Medeiros'
tp52
a(S'100004054042751'
S'Anderson Possari'
tp53
a(S'100004526020338'
S'Herry Jhon'
tp54
a(S'1078050558'
S'\\u0130lhan \\u0130kiz'
tp55
a(S'100002466720239'
S'Marcus Oliveira'
tp56
a(S'100003851713718'
S'Thain\\u00e1 Mendon\\u00e7a'
tp57
a(S'100004159271842'
S'Gaby Dani'
tp58
a(S'100004372689699'
p59
S'Mareck Sate'
tp60
a(S'100002683569113'
p61
S'Schwob Schwoby'
tp62
a(S'519632845'
S'Lic Evelyn Gutovich'
tp63
a(S'100003544655416'
S'Kurt Jacobs'
tp64
a(S'100004376079503'
S'LJ Silva Silva'
tp65
a(S'100004615238248'
S'Grazyna Drezyna'
tp66
a(S'710619895'
S'Pam Monsterworld'
tp67
a(S'100001248366085'
S'Ania Czeremchowska'
tp68
a(S'100004332691741'
S'Pinky Brain'
tp69
a(S'100002529639678'
S'Kurt Cristian Gerardo Erdmann'
tp70
a(S'100000371013823'
p71
S'Wiola Wasilewska'
tp72
a(S'100001451515792'
S'Charly Good'
tp73
a(S'100001634238101'
S'Ane Tindari'
tp74
a(S'1537351748'
S'Eveline Schreurs'
tp75
a(S'100002603964603'
S'Kevyn Thup Lokito'
tp76
a(S'100000150315741'
S'Kenneth Romeo Stephano'
tp77
a(S'1632679234'
p78
S'Dariana Gomez Acosta'
tp79
a(S'100003698447253'
p80
S'Marta Karwacka'
tp81
a(S'100004533697704'
S'Bolek Lolek'
tp82
a(S'100002239414324'
S'Jeronimo Mario Santos Almeida'
tp83
a(S'100000144825144'
S'Creudilea Gomes de Oliveira'
tp84
a(S'100003266951508'
S'Alesita Gamboa Soto'
tp85
a(S'1051951766'
S'Ed Patrick Trindade'
tp86
a(S'100003572569204'
p87
S'Trudi Trudel'
tp88
a(S'100002823627389'
p89
S'Wasim Mullick'
tp90
a(S'100000179566626'
S'Pat Anusirikul'
tp91
a(S'100003808112275'
S'Dry Pires'
tp92
a(S'551937444'
S'Jean Carlos Nu\\u00f1ez Lara'
tp93
a(S'100002904701132'
S'J\\u00f3zef Kowalski'
tp94
a(S'100000225905175'
p95
S'Ghass Ihdoosh'
tp96
a(S'1391130368'
S'Giovanni Coaro'
tp97
asS'id'
p98
S'100004042269792'
p99
sS'name'
p100
S'Monster Elleven'
p101
s.