(dp1
S'friends'
p2
(lp3
(S'100004014261796'
S'Rahul Soni'
tp4
a(S'1485967650'
S'Sajid Ansari'
tp5
a(S'100001810666790'
S'Radhe Krishan'
tp6
a(S'100001119070022'
S'Ankur Jha'
tp7
a(S'100004292170611'
S'Rehan Khan'
tp8
a(S'100002354289460'
S'Mohd Hussain'
tp9
a(S'100001237955394'
S'Tanveer Ansari'
tp10
a(S'100004486991187'
S'Megh Nadh'
tp11
a(S'100002153995684'
S'Amar Sharma'
tp12
a(S'100002781230330'
S'Manju Shkula'
tp13
a(S'100002075333348'
S'Salman Khan'
tp14
a(S'100003611630190'
S'Dinesh Shukla'
tp15
a(S'100003449125198'
S'Sushil Kumar Rathee Insa'
tp16
a(S'100003796113288'
S'Archana Kukreja'
tp17
a(S'100006016655565'
S'Alzma Ansari'
tp18
a(S'100004575722442'
S'Mahavir Singh Kandari'
tp19
a(S'100001100696868'
S'Janardan Mehto'
tp20
a(S'100002321949242'
S'Amit Patyal'
tp21
a(S'1038182803'
S'Pankaj Dahiya'
tp22
a(S'1754870260'
S'Mahipal Singh Adhikari'
tp23
a(S'1786246340'
S'Kamal Kumar'
tp24
a(S'100002206120729'
S'Tarun Koli'
tp25
a(S'703112755'
S'Aroon Gurung'
tp26
a(S'100003791085204'
S'Pradeep Kumar'
tp27
a(S'100008179025453'
S'Shagufta Khan'
tp28
a(S'100001884358085'
S'Anjali Bhushan'
tp29
a(S'100001361343529'
S'Sandeep Kaviraj'
tp30
a(S'100002655057480'
S'Richard Franklin Ekka'
tp31
a(S'100001216864835'
S'Simmi Simmi'
tp32
a(S'100004881758416'
S'Ahmad Deen'
tp33
a(S'100004655712879'
S'Sujata Sharma'
tp34
a(S'100003052900537'
S'Asif Gouri'
tp35
a(S'100001014455846'
S'Ravi Sagar'
tp36
a(S'100002426937710'
S'Dilip Kumar'
tp37
a(S'100001264206224'
S'Navaneetha Pramod'
tp38
a(S'100005644541278'
S'Franklin Ekka'
tp39
a(S'100001488044473'
S'Shabnam Ansari'
tp40
a(S'100003179934749'
S'Rakesh Kumar'
tp41
a(S'100003706620423'
S'Srikant Kumar'
tp42
a(S'100004571284626'
S'Balbir Singh Rawat'
tp43
a(S'100000987530335'
S'Sameer Sharma'
tp44
a(S'100002115045010'
S'Sourav Vaish'
tp45
a(S'100001227891876'
S'Omkar Singh'
tp46
a(S'100000900813115'
S'Amit Garg'
tp47
a(S'100000778478617'
S'Vishal Sharma'
tp48
a(S'100006695354330'
S'Rakesh Kumar'
tp49
a(S'100001213941550'
S'Chandra Shekhar Singh'
tp50
a(S'100001090137576'
S'Kamal Kumar'
tp51
a(S'100004314430171'
S'Tyag Singh'
tp52
a(S'100003470808816'
S'Chaman Rakta'
tp53
a(S'100002990649427'
S'Rajinder Singh Dhiman'
tp54
a(S'100000649725329'
S'Satya Prakash Arya'
tp55
a(S'100002060281521'
S'Ram Swaroop Meena'
tp56
a(S'100002271225074'
S'Asif Khan'
tp57
a(S'100003379811881'
S'Manish Mewati'
tp58
a(S'100000311708405'
S'Pintu Vishwakarma'
tp59
a(S'100006596381153'
S'Mukesh Rao'
tp60
a(S'1762969892'
S'Mahinder Singh'
tp61
a(S'100001753197857'
S'Faridulla Sarkar'
tp62
a(S'100004801659218'
S'Bobby Khan'
tp63
a(S'100001314515933'
S'Navin Kumar Rajak'
tp64
a(S'100004181291089'
S'Danish Gauri'
tp65
a(S'100001610871065'
S'Satish Kumar'
tp66
a(S'100003455127437'
S'Ramel Singh'
tp67
a(S'100002701034472'
S'Shubhangi Jonnalagadda'
tp68
a(S'100004517822189'
S'Rajender Adhikari'
tp69
a(S'100001566548131'
S'Mohammed Knaseem Haidernager'
tp70
a(S'100004694672819'
S'Jaibhagwan Sain'
tp71
a(S'100002244114972'
S'Atish Atish'
tp72
a(S'100001211787743'
S'Ramesh Kumar'
tp73
a(S'100004289864593'
S'Baines IG'
tp74
a(S'100001232739083'
S'Binay Kumar'
tp75
a(S'100003191252384'
S'Balbir Rauthan'
tp76
a(S'100006480268404'
S'Kasim Gauri'
tp77
a(S'100000685944384'
S'Hemant Sharma'
tp78
a(S'100003391840942'
S'Nasanakota Viswanath'
tp79
a(S'100004016664208'
S'Rakesh Sharma'
tp80
a(S'100003312016803'
S'Adil Khan'
tp81
a(S'100003538538699'
S'Shambhu Datt Sati'
tp82
a(S'100002124837275'
S'Anjali Dahiya'
tp83
asS'id'
p84
S'100002827675096'
p85
sS'name'
p86
S'Rashid Ahmed'
p87
s.