(dp1
S'friends'
p2
(lp3
(S'1109470429'
S'Ashwani Koul'
tp4
a(S'1295415742'
S'Monica Jandial'
tp5
a(S'785392738'
S'Makarand Tayade'
tp6
a(S'100000553901579'
S'Komal Koul'
tp7
a(S'100000002370517'
S'Vinay Raina'
tp8
a(S'1828459900'
S'Sandeep Patil'
tp9
a(S'1262864879'
S'Amit Choudhary'
tp10
a(S'812268683'
S'Ashwani Bhat'
tp11
a(S'100000856773895'
S'Raman Kaul'
tp12
a(S'100001522463015'
S'Rajesh Sharma'
tp13
a(S'100000951786200'
S'Manik Deshpande'
tp14
a(S'100000014209553'
S'Rakesh Pandit'
tp15
a(S'783545091'
S'Ajoy Labroo'
tp16
a(S'100002697590402'
S'Kishor Jadhav'
tp17
a(S'100001507541940'
S'Shishir Tiwari'
tp18
a(S'1205127994'
S'Adarsh Raina'
tp19
a(S'100001158914355'
S'Sunny Kaul'
tp20
a(S'845164587'
S'Rohit Raina'
tp21
a(S'558647432'
S'Namita Kohli Arora'
tp22
a(S'522002336'
S'Masood Salem'
tp23
a(S'100001046823480'
S'Meenakshi Bhat Dhar'
tp24
a(S'681226978'
S'Mohit Bindroo'
tp25
a(S'1369202726'
S'Dipan Thacker'
tp26
a(S'1585236709'
S'Meenakshi Koul Bhat'
tp27
a(S'100000850577660'
S'Sachin Pawar'
tp28
a(S'1175271537'
S'Mahima Kaul Raina'
tp29
a(S'1319265827'
S'Lahun Synrem'
tp30
a(S'100002436178078'
S'Sandeep Abhang'
tp31
a(S'698316786'
S'Priyanka Raina'
tp32
a(S'100000457892687'
S'Anil Raina'
tp33
a(S'727421895'
S'Rohit Dhar'
tp34
a(S'100001530378530'
S'Sonia Thacker'
tp35
a(S'1140102940'
S'Shilpa Gupta'
tp36
a(S'100001357792521'
S'Naveen Garg'
tp37
a(S'745527827'
S'Khalid Pervez Syed'
tp38
a(S'1166203008'
S'Manish Kitchloo'
tp39
a(S'1340588858'
S'Vrunda Jahagirdar'
tp40
a(S'1291413089'
S'Hemanshu Pandita'
tp41
a(S'100000009397140'
S'Tanupriya Gupta'
tp42
a(S'555127595'
S'Arun Kaushik'
tp43
a(S'100001603163170'
S'Rishi Ganeriwala'
tp44
a(S'100004251367509'
S'Rahul Raina'
tp45
a(S'1094449996'
S'Sunny Raina'
tp46
a(S'100000575470562'
S'Chetna Daftari Pandita'
tp47
a(S'705299030'
S'Anirudha Saware'
tp48
a(S'100000706668572'
S'Amit Koul'
tp49
a(S'100005891372273'
S'Jyotsna Peer'
tp50
a(S'785702808'
S'Yashwant Udachan'
tp51
a(S'1095133339'
S'Shanu Bhat'
tp52
a(S'1661254195'
S'Pankaj Dhar'
tp53
a(S'589748958'
S'Manoj Sail'
tp54
a(S'100000862471690'
S'Ajay Pandita'
tp55
a(S'737038025'
S'Leena Ravichand'
tp56
a(S'638795536'
S'Abhijeet Advant'
tp57
a(S'1575468181'
S'Jenny Jayprakash'
tp58
a(S'100000155134557'
S'Deepak Dhar'
tp59
a(S'640172798'
S'Vivek Jain'
tp60
a(S'100000281248015'
S'Abhijitsingh Parmar'
tp61
a(S'1470485317'
S'Sagar Tikoo'
tp62
a(S'100000025789785'
S'Nanarao Kharate'
tp63
a(S'565718098'
S'Smita Raina Dass'
tp64
a(S'1027166020'
S'Kajal Raina'
tp65
a(S'100001340972739'
S'Mohan Dayma'
tp66
a(S'100000455516930'
S'Vinod Pandita'
tp67
a(S'100000586253238'
S'Priyanka Manjeet Singh'
tp68
a(S'1477338306'
S'Vipin Garg'
tp69
a(S'1416330993'
S'Amit Jamwal'
tp70
a(S'698481813'
S'Alok Bhat'
tp71
a(S'524642315'
S'Rahul Pandita'
tp72
a(S'100000110727366'
S'Nikhil Abhyankar'
tp73
a(S'1626122008'
S'Ashish Wadekar'
tp74
a(S'1451890007'
S'Ritisha Dasani'
tp75
a(S'100000605685394'
S'Appa Pawar'
tp76
a(S'1057393717'
S'Nitin Verma'
tp77
a(S'1657249464'
S'Shaikh Moin'
tp78
a(S'100001073217853'
S'Chetan Daftari'
tp79
a(S'100000687763583'
S'Rajesh Batra'
tp80
a(S'100000552904599'
S'Kelvin Kohli'
tp81
a(S'1477273179'
S'Purnima Sumbly Ishan Talwar'
tp82
a(S'1074686057'
S'Milli Kaul'
tp83
a(S'791803947'
S'Sanjula Kaul'
tp84
a(S'1539815629'
S'Sanjay Ambardar'
tp85
a(S'100000128106974'
S'Anoop Singh'
tp86
a(S'1134323402'
S'Shaikh Imran'
tp87
a(S'596647393'
S'Tejas Thakker'
tp88
a(S'798994426'
S'Amit Kunwar Litt'
tp89
a(S'100000507946375'
S'Megha Dogra'
tp90
a(S'100000620471351'
S'\\u00d0im Bhat'
tp91
a(S'618976726'
S'Harvinder Sethi'
tp92
a(S'629396956'
S'Sandeep Bhat'
tp93
a(S'100000214046757'
S'Amit Khazanchi'
tp94
a(S'100000676929154'
S'Chaudhary Saurabh Singh Narbar'
tp95
a(S'664551319'
S'Abhishek Jhamb'
tp96
a(S'100000061991376'
S'Bharti Koul'
tp97
a(S'100000201004466'
S'Dushyant Singh'
tp98
a(S'100005952183870'
S'Shikha Bharati Razdan'
tp99
a(S'100004242421404'
S'Karuna Sharma SinGh'
tp100
asS'id'
p101
S'100000655241873'
p102
sS'name'
p103
S'Rohit Pandita'
p104
s.