(dp1
S'friends'
p2
(lp3
(S'1193498088'
S'Neeraj Singh'
tp4
a(S'100003005664057'
S'Manish Singh'
tp5
a(S'100006421474230'
S'Preet Pranjal'
tp6
a(S'100000688716691'
S'Dhruv Singh'
tp7
a(S'1287740515'
S'Saurabh Singh'
tp8
a(S'100002747923168'
S'Abhishek Singh'
tp9
a(S'100008117346917'
S'Ram Sevak Yadav'
tp10
a(S'100003766493692'
S'Akhilesh Singh'
tp11
a(S'100006265838555'
S'Priyanka Singh'
tp12
a(S'100001593981357'
S'Anup Kumar'
tp13
asS'id'
p14
S'100000688716691'
p15
sS'name'
p16
S'Dhruv Singh'
p17
s.