(dp1
S'friends'
p2
(lp3
(S'100001351338828'
S'Sam John'
tp4
a(S'100002686142473'
S'Ashish Anthony'
tp5
a(S'100002541043565'
S'Manish Papney'
tp6
asS'id'
p7
S'100002421828367'
p8
sS'name'
p9
S'Ajay Anthony'
p10
s.