(dp1
S'friends'
p2
(lp3
(S'787492864'
S'\\u0645\\u0648\\u0633\\u0649 \\u0627\\u0644\\u0639\\u0645\\u0631'
tp4
a(S'100001955583201'
S'Javid Ghurbandy'
tp5
asS'id'
p6
S'100001955583201'
p7
sS'name'
p8
S'Javid Ghurbandy'
p9
s.