(dp1
S'name'
p2
S'Syed Naiyer Ali Najmi'
p3
sS'current_class'
p4
S'india'
p5
sS'current_link'
p6
Vhttps://www.facebook.com/l.php?u=https%3A%2F%2Fwww.bing.com%2Fmaps%2Fdefault.aspx%3Fv%3D2%26pc%3DFACEBK%26mid%3D8100%26where1%3D28.613900916609%252C%2B77.207794189453%26name%3DNew%2BDelhi%252C%2BIndia%26mkt%3Den-IN&h=AAQGtNztp&s=1
p7
sS'current_text'
p8
VNew Delhi, India\u000aCurrent City
p9
sS'friends'
p10
(lp11
(S'100002410240997'
S'Sanjay Sah'
tp12
a(S'100001526186379'
S'Parveen Asif Khan'
tp13
a(S'733901528'
S'Ariz Ali'
tp14
a(S'100000140531740'
S'Visheshwar Gaba'
tp15
a(S'1737208500'
S'Yashwant Bhaskar'
tp16
a(S'100004097168066'
S'Sanjay Mishra'
tp17
a(S'1656909542'
S'Binod Kumar Singh'
tp18
a(S'1464366406'
S'Krishna Dixit'
tp19
a(S'100000680452022'
S'Anam Kazmi'
tp20
a(S'100001731071171'
S'Kumar Sanjay'
tp21
a(S'100001648838625'
S'Zeya Imam'
tp22
a(S'100001047997429'
S'Anupriya Rana'
tp23
a(S'1015062777'
S'Anurag Srivastava'
tp24
a(S'100001904876257'
S'Anusha Khurana'
tp25
a(S'100001391228752'
S'Afshan Fatima Husain'
tp26
a(S'1613414529'
S'Vivek Batra'
tp27
a(S'792360542'
S'Navneet Manohar'
tp28
a(S'100003472632403'
S'Sujoy Das'
tp29
a(S'100002307308202'
S'Mokhtar Ali'
tp30
a(S'1064547969'
S'Amitabh Kumar'
tp31
a(S'100000244373505'
S'Sudhir Sharma'
tp32
a(S'1541500888'
S'Reefat Rasool'
tp33
a(S'100001182626917'
S'Ram Bilash Meena'
tp34
a(S'100000029398252'
S'Kazim Ali'
tp35
a(S'100000463313475'
S'Anil P. Chaware'
tp36
a(S'702506242'
S'Salil Gupta'
tp37
a(S'1290281390'
S'Syed Murtuza Naqvi'
tp38
a(S'678921450'
S'Mini Verma'
tp39
a(S'1435347523'
S'Amal Garg'
tp40
a(S'100001467104570'
S'Sudhanshu Rai'
tp41
a(S'1789895039'
S'Milap Jain'
tp42
a(S'100000089901198'
S'Madnesh Kumar Mishra'
tp43
a(S'646063145'
S'Shakeel Hasan Shamsi'
tp44
a(S'100004049701395'
S'Bala Krishna'
tp45
a(S'100001117963049'
S'Salil Mishra'
tp46
a(S'800964615'
S'Mohammad Yusuf Hussain'
tp47
a(S'799414665'
S'Bhagwan Swarup Srivastava'
tp48
a(S'100000479264011'
S'Satinder Rana'
tp49
a(S'100001727432423'
S'Yasmeen Kazmi'
tp50
a(S'100000497521371'
S'Syed Zaheer'
tp51
a(S'100006347732916'
S'Abha Kishore'
tp52
a(S'100001879851288'
S'Harish Chandra Singh'
tp53
a(S'1058475900'
S'Anup Kumar Dubey'
tp54
a(S'100000408645865'
S'Sunita Kejriwal'
tp55
a(S'100000417199565'
S'Gangadhar Panda'
tp56
a(S'100003499737421'
S'Mohd Waseem Khan'
tp57
a(S'567708456'
S'Shishir Srivastava'
tp58
a(S'652998347'
S'Chandrajit Singh'
tp59
a(S'100001015305440'
S'Jainendra Kumar'
tp60
a(S'100002855870644'
S'Syed Nasir Raza'
tp61
a(S'1044641886'
S'Krishna Kishore Jasthi'
tp62
a(S'100000590307294'
S'Govind Singhal'
tp63
a(S'100004025179626'
S'Imtiaz Husain'
tp64
a(S'100000795472791'
S'Zaman Hussain'
tp65
a(S'1207910600'
S'Shiv Sewak'
tp66
a(S'633832082'
S'Shefali Shah'
tp67
a(S'100002523043072'
S'Rajanikant Gupta'
tp68
a(S'100001719262694'
S'Shayan Ali'
tp69
a(S'100000842904583'
S'Arti Aggarwal'
tp70
a(S'1399427386'
S'Alok Sinha'
tp71
a(S'100000605060456'
S'Rajeev Kumar'
tp72
a(S'1309816534'
S'Syed Wasim Raza'
tp73
a(S'782648995'
S'Ravi Agrawal'
tp74
a(S'1658827438'
S'Shravan Kumar'
tp75
a(S'100001636965086'
S'Rajesh Mittal'
tp76
a(S'100003359187395'
S'Subramanian Chandrasekhar'
tp77
a(S'100000924810796'
S'Ram Mohan Singh'
tp78
a(S'100002772974379'
S'Aashi Naqvi'
tp79
a(S'100003315026231'
S'Wajihul Nisa Shazi'
tp80
a(S'100000599228847'
S'Avadhesh Kumar'
tp81
a(S'100004839333385'
S'Abeer Zainab Naqvi'
tp82
a(S'100002366034975'
S'Durga Dutt'
tp83
a(S'100001654338029'
S'Ajit Kumar Singh'
tp84
a(S'824637019'
S'Basanta Rajkumar'
tp85
a(S'100001192462656'
S'Jawed Haider'
tp86
a(S'1147182958'
S'S Hussain Haider'
tp87
a(S'100000162973670'
S'Nilamber Choudhary'
tp88
a(S'735129880'
S'Deepali Bahadur'
tp89
a(S'100001162664475'
S'Shishir Dhamija'
tp90
a(S'733015724'
S'Peeyush Samariya'
tp91
a(S'768477003'
S'Danish Rizvi'
tp92
a(S'100002607984412'
S'Renga Raj'
tp93
a(S'100002545189474'
S'Suhail Ahmad Rizvi'
tp94
a(S'41702466'
S'Sheeraz Asghar Naqvi'
tp95
a(S'573673290'
S'DrSatyendra V. Vikram'
tp96
a(S'1589762581'
S'Lalit Dehiya'
tp97
a(S'1605216153'
S'Vinod Kumar Pandey'
tp98
a(S'603134173'
S'Baqir Ali Alvi'
tp99
a(S'100001845982680'
S'Kujhwa PG'
tp100
a(S'100001035681330'
S'Om Prakash Meena'
tp101
a(S'100000647556818'
S'Sanjay Gupta'
tp102
a(S'528591616'
S'Zehra Kazmi'
tp103
a(S'716509190'
S'Reema Prakash'
tp104
a(S'100000110686082'
S'Zeeshan Ali Zaidi'
tp105
a(S'100002718501020'
S'Mohammed Arif'
tp106
a(S'100001628468153'
S'Meenakshi Malhotra Pandey'
tp107
a(S'100003067412460'
S'Yasmeen Kazmi'
tp108
a(S'100001979433943'
S'RK Bajaj'
tp109
a(S'1099973937'
S'Prem Ravi'
tp110
a(S'1486491918'
S'Sanjay Shivam'
tp111
a(S'100007376439708'
S'Punam Yadav'
tp112
a(S'780190706'
S'Ram Mohan Tiwari'
tp113
a(S'100000815004995'
S'Ajay Saini'
tp114
a(S'1484495268'
S'Anurag Srivastava'
tp115
a(S'100001600838563'
S'Zohair Abbas Abdi'
tp116
a(S'1533476602'
S'Manoj Kumar'
tp117
a(S'100003906879166'
S'Ashok D Suri'
tp118
a(S'100000094640701'
S'Dinesh Singh'
tp119
a(S'100001565867609'
S'Prabha Kant'
tp120
a(S'1507856410'
S'Abbas Syed'
tp121
a(S'633799414'
S'Prashant Jha'
tp122
a(S'1746377670'
S'Asghar Hussain'
tp123
a(S'1577889574'
S'Ajay Pandey'
tp124
a(S'1020914771'
S'Rajat Bansal'
tp125
a(S'669042657'
S'Sanjay Kumar'
tp126
a(S'100003225213037'
S'Afsar Kazmi'
tp127
a(S'100000353799436'
S'Shabab Haider'
tp128
a(S'1417767463'
S'Renuka Jaingupta'
tp129
a(S'100002221931926'
S'Sunita Singh'
tp130
a(S'1577439466'
S'Pankaj Kr'
tp131
a(S'574507019'
S'Ashutosh Baranwal'
tp132
a(S'100000625487513'
S'Sushil Yadav'
tp133
a(S'100000687852619'
S'Shailendra Tiwary'
tp134
a(S'100001216597401'
S'Nasir Ali'
tp135
a(S'100002437282991'
S'Gopal Mukherjee'
tp136
a(S'100000628185303'
S'Majeed Shaikh'
tp137
a(S'100001432897750'
S'Rajendra Kumar Ahirwar'
tp138
a(S'100001095787524'
S'Athar Hussain Rufi Rufi'
tp139
a(S'100007544587062'
S'Pradeep Kumar'
tp140
a(S'100004119810928'
S'Syed Ali Imran Kazmi'
tp141
a(S'738984739'
S'Batsala Jha'
tp142
a(S'100003558034625'
S'KV Reddy'
tp143
a(S'100001249132013'
S'Sandip Pradhan'
tp144
a(S'1040277860'
S'Nrusingh Swain'
tp145
a(S'519994336'
S'Sree Harsha'
tp146
a(S'1241898173'
S'Sunil Kumar'
tp147
a(S'100001089108376'
S'Abbas Naqvi'
tp148
a(S'535593718'
S'Sahir Alvi'
tp149
a(S'100000817926541'
S'Shammi Abidi'
tp150
a(S'100002597345286'
S'Aslam Raza Khan Khan'
tp151
a(S'100000661325471'
S'Bishwanath Jha'
tp152
a(S'1120697074'
S'Rakesh Gupta'
tp153
a(S'1532139990'
S'Anshu Shukla Pandey'
tp154
a(S'100002987261816'
S'Binod Kumar'
tp155
a(S'100000901437387'
S'Sudhakara Rao Dirisam'
tp156
a(S'662633310'
S'Jahanzeb Akhtar'
tp157
a(S'100003214354607'
S'Hindi Urdu Duas'
tp158
a(S'759424765'
S'Gulshan Raj'
tp159
a(S'100001899093137'
S'Syed Asghar Ali'
tp160
a(S'100005988122059'
S'Abhijeet Kumar'
tp161
a(S'100000793551063'
S'Akhil Mittal'
tp162
a(S'1112393447'
S'Asit Kumar Mohapatra'
tp163
a(S'1043191382'
S'Satpal Gulati'
tp164
a(S'1472344034'
S'Kc Badhok'
tp165
a(S'1665353347'
S'Amber Rana'
tp166
a(S'100001397974468'
S'David Z. Chawngthu'
tp167
a(S'1216435107'
S'Rajeev Ranade'
tp168
a(S'724163872'
S'Sanjiv Singh'
tp169
a(S'572647969'
S'Kedia Rajeshkumar'
tp170
a(S'1626159715'
S'Anurag Sahay'
tp171
a(S'100001892106701'
S'Azra Naqvi'
tp172
a(S'1845463428'
S'Sanjay Patra'
tp173
a(S'1005336247'
S'Amitabh Shukla'
tp174
a(S'100000678888738'
S'Shoa Zaidi'
tp175
a(S'1505863443'
S'Shyam Gandhi'
tp176
a(S'1003793720'
S'Paramjeet Singh'
tp177
a(S'100001296017510'
S'Mukesh Raval'
tp178
a(S'100003249373722'
S'Manoj Pandey'
tp179
a(S'1598071299'
S'Durgesh Sumrott'
tp180
a(S'100000280374252'
S'Anand Upadhyay'
tp181
a(S'1062241364'
S'Anurag Goyal'
tp182
a(S'844052942'
S'Ajit Kumar Jain'
tp183
a(S'100002635514521'
S'Harishankar Kumar Lal'
tp184
a(S'1490490599'
S'Rahul Navin'
tp185
a(S'100000157928004'
S'Chheang Sok'
tp186
a(S'603085976'
S'Sadia Dehlvi'
tp187
a(S'704998225'
S'Rajeev Harit'
tp188
a(S'1340746858'
S'Urvashi Saxena'
tp189
a(S'1532362722'
S'Arfa Khanum'
tp190
a(S'100000879306045'
S'Huma Zaidi'
tp191
a(S'100000044092352'
S'Bratati Mukherjee'
tp192
a(S'708065305'
S'Dhirendra Ojha'
tp193
a(S'100000949946050'
S'Ahsan Raza'
tp194
a(S'100000671967433'
S'Anurag Prasad'
tp195
a(S'100000509470026'
S'Rajib Hota'
tp196
a(S'656171918'
S'Prashant Ranjan'
tp197
a(S'1482808107'
S'Sanjay Singh'
tp198
a(S'100002611225301'
S'Jayant Tripathi'
tp199
a(S'100000169340713'
S'Jitender Kumar'
tp200
a(S'536502662'
S'Abid Alvi'
tp201
a(S'100003403875086'
S'Rajesh Kumar'
tp202
a(S'100002610024253'
S'Narender Chand'
tp203
a(S'597854076'
S'Anuj Sharma'
tp204
a(S'100001549926398'
S'Dapindra Singh Chawla'
tp205
a(S'100000969736684'
S'Rinku Singh'
tp206
a(S'100003808518806'
S'Ravi Ramachandran'
tp207
a(S'100001507493654'
S'Ips Bindra'
tp208
a(S'100002589002893'
S'Careerwithcare Educayional Consultancy'
tp209
a(S'100001021955071'
S'Syed Dilshad Haider'
tp210
a(S'574502956'
S'Samir Tekriwal'
tp211
a(S'100001694107495'
S'Shibendu Moharana'
tp212
a(S'100001029699102'
S'Syed Haider'
tp213
a(S'1064440639'
S'Anupama Anand'
tp214
a(S'100002519169755'
S'Syed Haider Raza'
tp215
a(S'1412190924'
S'Somogyan Pal'
tp216
a(S'100000171562713'
S'Neehar Pandey'
tp217
a(S'612704316'
S'Abhinav Gupta'
tp218
a(S'1379745728'
S'Ashok Kardam'
tp219
a(S'661298074'
S'Sukumar Sharma'
tp220
a(S'100000428966758'
S'Kalika Singh'
tp221
a(S'100002156485374'
S'Yunus Husain'
tp222
a(S'1018065028'
S'Naveen Chandra'
tp223
a(S'1325319960'
S'Brahma Prakash Gaur'
tp224
a(S'704665592'
S'Nazish Zaidi'
tp225
a(S'100001035101105'
S'Farhat Naqvi'
tp226
a(S'100001882032152'
S'Mohd Usman'
tp227
a(S'100005403307015'
S'Upendra Singh'
tp228
a(S'100001238804568'
S'Medisetti Tirumala Kumar'
tp229
a(S'1047828270'
S'Devinder Kalyan'
tp230
a(S'100002024647486'
S'Apesh Jha'
tp231
a(S'100002447500771'
S'Swati Joshi'
tp232
a(S'100004411591592'
S'Syed Kazman Zaidi'
tp233
a(S'100001010075468'
S'Anjum Fatma'
tp234
a(S'100000192455286'
S'Lovish Kumar'
tp235
a(S'100000024847564'
S'Uroos Fatima'
tp236
a(S'100000984780961'
S'Shrikant Ambastha'
tp237
a(S'100000537702663'
S'Deepak Sehgal'
tp238
a(S'648551536'
S'Munesh Kumar'
tp239
a(S'100001062952469'
S'Satender Singh Rana'
tp240
a(S'100002605163109'
S'Mujahid Ali Hussain'
tp241
a(S'100000496743295'
S'Sarah Najmi'
tp242
a(S'100001934147403'
S'Prabodh Seth'
tp243
a(S'100003597548043'
S'Dinesh Singh Negi'
tp244
a(S'100000126657856'
S'Md Mohsin Alam'
tp245
a(S'819468699'
S'Sanjay Agrawal'
tp246
a(S'1785805523'
S'Abha Singh'
tp247
a(S'1420890721'
S'Om Prakash Kant'
tp248
a(S'100000107628946'
S'Bhim Singh'
tp249
a(S'100001772200087'
S'Wequar Haider'
tp250
a(S'100000561184612'
S'Romita Arora'
tp251
a(S'1337934193'
S'Abhilasha Shanker'
tp252
a(S'100002219262963'
S'Zeestar Zeestar Zeestar'
tp253
a(S'100000788637622'
S'Sharat Pandey'
tp254
a(S'100005143123003'
S'Husan Ara Trust'
tp255
a(S'100005912646832'
S'Alok Srivastava'
tp256
a(S'1061611391'
S'Peeyush Sonkar'
tp257
a(S'100002362658663'
S'Selvaganesh Puvaneswaran'
tp258
a(S'1337583577'
S'Ashish Gupta'
tp259
a(S'100001028442335'
S'Farhat Naqvi'
tp260
a(S'1178796539'
S'Ranjita Sahay'
tp261
a(S'100000759077890'
S'Sameer Srivastava'
tp262
a(S'100000150831103'
S'Ritesh Parmar'
tp263
a(S'100000565097558'
S'Rakesh Kumar'
tp264
a(S'1496400927'
S'Shyam Benupani'
tp265
a(S'100004941690444'
S'Qamar Zaidi'
tp266
a(S'1292688629'
S'Neeraj Kumar'
tp267
a(S'100007084892357'
S'Arvind Kumar'
tp268
a(S'100000606164639'
S'Devendra N Sharma'
tp269
a(S'1844194497'
S'Satya Prasant P'
tp270
a(S'1093426958'
S'Deepak Tiwari'
tp271
a(S'100004159990769'
S'Amod Prasad'
tp272
a(S'1225126470'
S'Dhirendra Mishra'
tp273
a(S'100000892003127'
S'Jamil Ahmad'
tp274
a(S'100000247115680'
S'Bhupender Kumar Gupta'
tp275
a(S'100001552105332'
S'\\u0160\\u0105hil K\\u0105zmi'
tp276
a(S'100006054492324'
S'Lalam Zaidi'
tp277
a(S'1105334973'
S'Surendra Singh'
tp278
a(S'100002507357925'
S'Preeti Jain Das'
tp279
a(S'1222959180'
S'Suresh Yadav'
tp280
a(S'1508636113'
S'Sunita Billa'
tp281
a(S'1079950134'
S'Manu Malik'
tp282
a(S'673830812'
S'Chetan W. Bhende'
tp283
a(S'663196732'
S'Vimalendu Verma'
tp284
a(S'849635082'
S'Rajul Awasthi'
tp285
a(S'1779099645'
S'Shabab Anwar'
tp286
a(S'520164800'
S'Pradeep Kumar'
tp287
a(S'100002156858109'
S'Mrityunjoy Barnwal'
tp288
a(S'100002928168289'
S'Jay Kant Chaudhary'
tp289
a(S'100001355939032'
S'Ashok Tambi'
tp290
a(S'100006298294876'
S'Shafaque Ahmad'
tp291
a(S'1484520200'
S'Sunil Chander Sharma'
tp292
a(S'1745483154'
S'Prafulla Prusty'
tp293
a(S'1052958592'
S'Adarsh Modi'
tp294
a(S'1234507026'
S'Amaresh Singh'
tp295
a(S'100000159486283'
S'Ashok Jha'
tp296
a(S'738339999'
S'Pathlavath Peerya'
tp297
a(S'100000548982391'
S'Mayank Sarvapriya'
tp298
a(S'100000157832970'
S'Ajai Singh'
tp299
a(S'100004373198709'
S'Hasan Afsar Kazmi'
tp300
a(S'1601252761'
S'Syed Dilber Javed Rizvi'
tp301
a(S'100000468823739'
S'BV Gopinath'
tp302
a(S'1180115049'
S'Shikha Darbari'
tp303
a(S'100001520925524'
S'Sohail Malik Ansari'
tp304
a(S'100001482584784'
S'Prashant Bhushan'
tp305
a(S'1061764312'
S'Manish Mishra'
tp306
a(S'722833299'
S'Adeel Naqvi'
tp307
a(S'816969061'
S'Anshu Prakash'
tp308
a(S'100002846382914'
S'Anup Biswas'
tp309
a(S'1470984793'
S'Devi Sharan Singh'
tp310
a(S'100001822183394'
S'Syed Haider'
tp311
a(S'845428359'
S'Sanjeet Singh'
tp312
a(S'100000820762320'
S'Jk Mishra'
tp313
a(S'1281622114'
S'Santosh Kumar'
tp314
a(S'100000992621359'
S'Anuja Vivek'
tp315
a(S'100000812713383'
S'Rakesh Verma'
tp316
a(S'710321996'
S'Dilip Sharma'
tp317
a(S'1608699390'
S'Amrita Misra'
tp318
a(S'594466992'
S'Shobha Basu'
tp319
a(S'1552910105'
S'Deepika Mittal'
tp320
a(S'100004783363191'
S'Farhan Ali Naqvi'
tp321
a(S'547510861'
S'Paresh Johri'
tp322
a(S'1265053360'
S'Jay Hiremath'
tp323
a(S'100001335320737'
S'Lalit Pandey'
tp324
a(S'575369502'
S'Jitender Kalra'
tp325
a(S'100002653914259'
S'Sanjay Sinha'
tp326
a(S'672792890'
S'Vinay Kumar Singh'
tp327
a(S'1454216589'
S'Tauseef Hussain Rezavi'
tp328
a(S'590249185'
S'Vikram Batra'
tp329
a(S'1009712369'
S'Sanjay Kumar'
tp330
a(S'100000783942310'
S'Pramod Kumar Gupta'
tp331
a(S'1705435961'
S'Awadhesh Kushwaha'
tp332
a(S'1029713428'
S'Sandip Garg'
tp333
a(S'100001816699802'
S'Iqbal Rizvi'
tp334
a(S'100002231132691'
S'Bhagchand Meena'
tp335
a(S'1428332344'
S'Laxmi Narayan Pant'
tp336
a(S'1634395939'
S'Krishan Kumar Mittal'
tp337
a(S'1592435991'
S'Gautam Mandal'
tp338
a(S'100005228951049'
S'Aman Singh'
tp339
a(S'100000753801915'
S'Ca Ashwani Gupta'
tp340
a(S'1345662977'
S'Ananth Rupanagudi'
tp341
a(S'1424920022'
S'Sudesh Garg'
tp342
a(S'655794371'
S'Parneet Sachdev'
tp343
a(S'703621333'
S'Rajeev Harit'
tp344
a(S'627288422'
S'Nishat Ali'
tp345
a(S'100000404370975'
S'AR Raza'
tp346
a(S'1140524850'
S'Sanjeev Singh'
tp347
a(S'1785969821'
S'Najaf Naqvi'
tp348
a(S'713170827'
S'Shahid Khan'
tp349
a(S'744478729'
S'Rajeev Harit'
tp350
a(S'100001232289002'
S'Syeddain Zaidi'
tp351
a(S'728487528'
S'Rajesh Jogpal'
tp352
a(S'100001511731951'
S'Ali Akbar'
tp353
a(S'100001795114506'
S'Kamal Haider Amrohvi'
tp354
a(S'100004790014779'
S'Zoya Qamar'
tp355
a(S'1052821370'
S'Ajay Kumar'
tp356
a(S'1526778067'
S'Rizwan Ahmad'
tp357
a(S'100000948178962'
S'Alok Singh'
tp358
a(S'100000640447941'
S'Fahmi Ali'
tp359
a(S'1690670545'
S'Pallavi Agarwal'
tp360
a(S'100005660920997'
S'Haider Imam'
tp361
a(S'100001312425461'
S'Mahendra Ranga'
tp362
a(S'100000263868771'
S'Raza Hasnain'
tp363
a(S'1244644496'
S'Noor Alam'
tp364
a(S'100000252478099'
S'Syed Wequar Haider'
tp365
a(S'1403033056'
S'Narayan Prasad Bhagat'
tp366
a(S'568602703'
S'Muzaffar Hussain'
tp367
a(S'100002559789659'
S'Shaurya Garg'
tp368
a(S'100004369536227'
S'Asim Ali'
tp369
a(S'100001534425037'
S'Ramarao Metta'
tp370
a(S'1014527879'
S'Anadee Nath Misshra'
tp371
a(S'100000026821339'
S'Salman Khan'
tp372
a(S'573032079'
S'Shravan Gotru'
tp373
a(S'100000835019199'
S'Yusha Ali'
tp374
a(S'100000654072270'
S'Seemab Hussain'
tp375
a(S'689213282'
S'Tazeen Pasha'
tp376
a(S'1409795991'
S'Hemant Sarangi'
tp377
a(S'100001872996948'
S'Asad Raza'
tp378
a(S'694349807'
S'Aman Husain'
tp379
a(S'100000854317180'
S'Rajeshwar Yadav'
tp380
a(S'100001779441164'
S'Rashida Kapadia'
tp381
a(S'100000911611015'
S'Sanjay Tripathi'
tp382
a(S'100000597845240'
S'Shyam Saroj Radhey'
tp383
a(S'1393880668'
S'Wasim Haque'
tp384
a(S'100000775016154'
S'Syed Asim Ali'
tp385
a(S'100000024196966'
S'Imtiaz Ahmed'
tp386
a(S'823488501'
S'Sobhan Kar'
tp387
a(S'1818571464'
S'Syed Javed Mohsin'
tp388
a(S'100000187207519'
S'Vanitha Vaidialingam'
tp389
a(S'100005615463196'
S'Najam Askari'
tp390
a(S'100000035288462'
S'Himanshu Shekhar Sinha'
tp391
a(S'100001168710571'
S'Vivek Verma'
tp392
a(S'100000060348278'
S'Rajesh Jha'
tp393
a(S'625135916'
S'Girish N Pande'
tp394
a(S'1573729708'
S'Chittaranjan Dash'
tp395
a(S'100003614191294'
S'Sunita Rao'
tp396
a(S'100002677241431'
S'Syed Ahmed Mehdi Kazmi'
tp397
a(S'1016325388'
S'Mohan Kumar Singhania'
tp398
a(S'100000264490376'
S'Govind Manish'
tp399
a(S'100000175655251'
S'Amod Choudhary'
tp400
a(S'100000137414698'
S'Tahir Husain'
tp401
a(S'100002583365173'
S'Hina Zaidi'
tp402
a(S'100003149460343'
S'Shadan Imam'
tp403
a(S'100002452939857'
S'Jawwad Khan'
tp404
a(S'1751390301'
S'Deepali Chandra'
tp405
a(S'1011548334'
S'Surendra Kumar'
tp406
a(S'1797366940'
S'Santosh Kumar Jain'
tp407
a(S'100000989600569'
S'Md Kamran'
tp408
a(S'100000781570298'
S'Mayank Priyadarshi'
tp409
a(S'1717361512'
S'Purushottam Tripuri'
tp410
a(S'100000787736306'
S'Manoj Kumar'
tp411
a(S'100001343232771'
S'Shashi Prakash'
tp412
a(S'100002475103716'
S'Avinash Kumar'
tp413
a(S'100003172005882'
S'Umesh Chandra Pandey'
tp414
a(S'100001776240766'
S'Pramod Kumar'
tp415
a(S'100003779280225'
S'Asghar Imam'
tp416
a(S'704582193'
S'Kunal Madhukar'
tp417
a(S'1355734850'
S'Mazhar Akm'
tp418
a(S'100003780540450'
S'Ansar Zaidi'
tp419
a(S'1466015771'
S'Jasdeep Singh'
tp420
a(S'100001446976180'
S'Abhay Das'
tp421
a(S'100000637453107'
S'Sishir Sinha'
tp422
a(S'100002108675125'
S'Zain Zaidi'
tp423
a(S'100000001180862'
S'Vikram Sankhala'
tp424
a(S'100001090545437'
S'Sardar Meena'
tp425
a(S'1156017995'
S'Sushil Madhuk'
tp426
a(S'1041211328'
S'Puja Jindal'
tp427
a(S'100004419548367'
S'Masood Ul Hasan'
tp428
a(S'100001314423423'
S'Dinesh Vyavahare'
tp429
a(S'100002134108607'
S'Yogendra Kumar Singh'
tp430
a(S'100000632563326'
S'Mohsin Taqvi'
tp431
a(S'670772796'
S'Paramita M. Biswas'
tp432
a(S'100002447540983'
S'Sarha Kolkata'
tp433
a(S'1771763174'
S'C.k. Upadhyay'
tp434
a(S'100001633354145'
S'Falak Ali Imam'
tp435
a(S'100003062838762'
S'Rambabu Gupta'
tp436
a(S'100000116665816'
S'Raju Sharan'
tp437
a(S'100002623723053'
S'Alok Kumar'
tp438
a(S'1136704414'
S'Md Shadab Ahmed'
tp439
a(S'100007251662419'
S'Srinivas Danda'
tp440
a(S'100001438449887'
S'Syed Shajar Ali'
tp441
a(S'100000632485980'
S'Syed Amir'
tp442
a(S'100000075752601'
S'Dhirendra Kumar Jha'
tp443
a(S'100000772236731'
S'Sukoon Mirza'
tp444
a(S'100006754038540'
S'Rajesh Kumar Gupta'
tp445
a(S'100002151474579'
S'Kashif Hussain'
tp446
a(S'728480715'
S'Syed Raghib Abidi'
tp447
a(S'1037131183'
S'Vijay Kumar'
tp448
a(S'1807947248'
S'Madhukar Bhagat'
tp449
a(S'100000388006761'
S'Tabish Zaidi'
tp450
a(S'1287318712'
S'Naresh Balodia'
tp451
a(S'756199384'
S'Navneet Soni'
tp452
a(S'1013810633'
S'Rajeev Kumar'
tp453
a(S'677426655'
S'Amir Naqvi'
tp454
a(S'100001275327786'
S'Rajneesh Arvind'
tp455
a(S'100003148549109'
S'Sarwar Ali'
tp456
a(S'100003041959177'
S'Syed Wasi'
tp457
a(S'1325190196'
S'Rajeev P Singh'
tp458
a(S'100004232649291'
S'Nand Lal Sharma'
tp459
a(S'100000975691337'
S'Shakeel Hussain'
tp460
a(S'100000542252260'
S'Ahtesham Khan'
tp461
a(S'100001336478618'
S'Aar Ravi Vidrohee'
tp462
a(S'100001350115423'
S'Chandip Singh'
tp463
a(S'1100703227'
S'Raman Kant Garg'
tp464
a(S'555812484'
S'Sanjay Bahadur'
tp465
a(S'1112834612'
S'Rabi Narayan Dash'
tp466
a(S'1370554854'
S'Oma Sharma'
tp467
a(S'100002069681842'
S'Pirthi Lal'
tp468
a(S'783118675'
S'Danish Shaila Kazmi'
tp469
a(S'100002063369015'
S'Syed Z Hassan'
tp470
a(S'100001120930467'
S'Rajesh Pandey'
tp471
a(S'1213292358'
S'Anand Baiwar'
tp472
a(S'100000051174510'
S'Suresh Battini'
tp473
a(S'1623427993'
S'Prafulla Mishra'
tp474
a(S'100001266176810'
S'Aditya Kushwaha'
tp475
a(S'100002904670562'
S'Satish Goyal'
tp476
a(S'1057808456'
S'Ramesh Narain Parbat'
tp477
a(S'100000162130222'
S'Rajiv Singh'
tp478
a(S'760149560'
S'Syed Salman Ali Bilgrami'
tp479
a(S'550139175'
S'Sangeeta Gupta'
tp480
a(S'100000716951002'
S'Ajay Puri'
tp481
a(S'615632175'
S'Prasenjit Singh'
tp482
a(S'100002186143165'
S'Saman Imam'
tp483
a(S'1546128562'
S'Salman Bilgrami'
tp484
a(S'688072801'
S'Sameer Sharma'
tp485
a(S'100002202381059'
S'Ravi Mishra'
tp486
a(S'1465966631'
S'Sunil Bajpai'
tp487
a(S'100004080202242'
S'Ashok Kumar Suman'
tp488
a(S'566448852'
S'Debjyoti Das'
tp489
a(S'100002908166072'
S'Dharmendra Kumar Shahi'
tp490
a(S'1351275734'
S'Prem Chandra Maurya'
tp491
a(S'100002588226238'
S'Ishtiyaque Ahmed'
tp492
a(S'656135928'
S'Vishvajit Sahay'
tp493
a(S'100002197236747'
S'Gulzar Wani'
tp494
a(S'1494454259'
S'Prabir Jha'
tp495
a(S'100002477435385'
S'Sam Rizvi'
tp496
a(S'1496460610'
S'Ashok K Manchanda'
tp497
a(S'100001217567223'
S'Maimun Alam'
tp498
a(S'100000613835423'
S'Dolly Sinha'
tp499
a(S'1841868073'
S'Rumana Rizvi'
tp500
a(S'100000278632765'
S'Magpen R Bhutia'
tp501
a(S'1140693202'
S'Prakhar Viplava Gupta'
tp502
a(S'1181884886'
S'Pradeep Krishnannair'
tp503
a(S'100001099793341'
S'Rashid Hussain'
tp504
a(S'1428456663'
S'Syed Shadab Mujtaba'
tp505
a(S'1277236948'
S'Ansuman Pattnaik'
tp506
a(S'100000469594761'
S'Qamar Mukhtar'
tp507
a(S'100001222980541'
S'Rajmani Sinha'
tp508
a(S'100001422345767'
S'Sukesh Jain'
tp509
a(S'100001257924385'
S'Rajiv Singh'
tp510
a(S'100005860832403'
S'Raghubir S Upadhyay'
tp511
a(S'100002118817124'
S'Alok Kumar'
tp512
a(S'100001207827203'
S'Soumitra Majumdar'
tp513
a(S'100000225005320'
S'Sushma Singh'
tp514
a(S'539406123'
S'Sebastian James'
tp515
a(S'100000128142406'
S'Jayant Kumar'
tp516
a(S'100002543273918'
S'Ali Iqbal Alvi'
tp517
a(S'100002591418072'
S'Ram Sewak Dubey'
tp518
a(S'100005778246700'
S'Sarwat Kazmi'
tp519
a(S'100002895657570'
S'Warda Husain'
tp520
a(S'572793560'
S'Zakir Thomas'
tp521
a(S'573261608'
S'Ima Kazmi'
tp522
a(S'749133437'
S'Yogesh Verma'
tp523
a(S'1261705541'
S'Sabihur Rahman'
tp524
a(S'100002143757740'
S'Ramesh Danday'
tp525
a(S'780843935'
S'Ashish Abrol'
tp526
a(S'100002333562368'
S'Maulana Mumtaz Ali Murtazavi'
tp527
a(S'504298530'
S'Syed Asad Abbas Zaidi'
tp528
a(S'1019588446'
S'DurgaCharan Dash'
tp529
a(S'100000622034394'
S'Sanjay Kumar'
tp530
a(S'100004092841689'
S'Azra Raza'
tp531
a(S'100002650132364'
S'Kazim Ali'
tp532
a(S'519925430'
S'Tashoo Alvi'
tp533
a(S'1438047944'
S'Amrish Bedi'
tp534
a(S'1268243548'
S'Rahul Dhawan'
tp535
a(S'1079453739'
S'Karun K Ojha'
tp536
a(S'100000316006534'
S'Yogesh Verma'
tp537
a(S'100002976377362'
S'Vakil Hakim'
tp538
a(S'100000307058516'
S'N Anand Nair'
tp539
a(S'100000813233702'
S'Jasbir Chouhan'
tp540
a(S'1843502792'
S'Abid Hussain'
tp541
a(S'100002020612984'
S'Chandraprakash Saroj'
tp542
a(S'1288876382'
S'Jagadish Irs'
tp543
a(S'100000611075409'
S'Feroz Khan'
tp544
a(S'100001963035825'
S'Gm Doss'
tp545
a(S'100001217762913'
S'Ram Phool Meena'
tp546
a(S'1340474143'
S'Prasad Reddy'
tp547
a(S'590842634'
S'Saif Qezilbash'
tp548
a(S'100001285621510'
S'Amardeep Rana'
tp549
a(S'1407826336'
S'P Soma Shekar Reddy'
tp550
a(S'100001455266228'
S'Syed Rizwan Ali'
tp551
a(S'100001484205123'
S'Rajesh Ranjan Prasad'
tp552
a(S'1567385476'
S'Yagya Dutt Sharma'
tp553
a(S'100001548972819'
S'Bandhana Deori'
tp554
a(S'100001956117610'
S'Subhakant Sahu'
tp555
a(S'100001279176589'
S'Rabab Mirza'
tp556
a(S'738245834'
S'Abhay Damle'
tp557
a(S'100000328975078'
S'LK Agarwal'
tp558
a(S'1136147044'
S'Anand Kishore'
tp559
a(S'100000538775462'
S'Manvendra Goyal'
tp560
a(S'543760762'
S'Anand Kumar Kedia'
tp561
a(S'100002360817955'
S'Ravinder Maini'
tp562
a(S'100004234239253'
S'Kamlesh Chandra Varshney'
tp563
a(S'1480530641'
S'Sree Kar'
tp564
a(S'1110282033'
S'Lekha Kumar'
tp565
a(S'1139846903'
S'Puneet Kumar'
tp566
a(S'683531770'
S'Asif Naqvi'
tp567
a(S'100006152256691'
S'Drzahid Hadi'
tp568
a(S'100001438657973'
S'Debashis Chanda'
tp569
a(S'684104354'
S'Asit Singh'
tp570
a(S'100002628310148'
S'Vivek Wadekar'
tp571
a(S'546631509'
S'Ashok Mittal'
tp572
a(S'572762813'
S'Sabina Kazmi'
tp573
a(S'825870827'
S'Sandeep Raj'
tp574
a(S'734608651'
S'Anadee Nath Misshra'
tp575
a(S'100001250923545'
S'\\u0930\\u093e\\u0923\\u093e \\u0930\\u093e\\u091c \\u0915\\u0947. \\u0938\\u093f\\u0902\\u0939'
tp576
a(S'100001356223146'
S'Rajeev Soham'
tp577
a(S'1129547000'
S'Vinodanand Jha'
tp578
a(S'100000591004974'
S'Nikhil Choudhary'
tp579
a(S'1011158492'
S'Logapathi Manikannan'
tp580
a(S'100001841441284'
S'Rita Tulsaney'
tp581
a(S'1629036526'
S'Sohail Naqvi'
tp582
a(S'100000450150558'
S'Kj Singh'
tp583
a(S'100001116995904'
S'Kanhaiya Lal Kanak'
tp584
a(S'1137571482'
S'Uma Shankar Dhyani'
tp585
a(S'1218933608'
S'Anushri Prasad'
tp586
a(S'1065136920'
S'Sanjay Goyal'
tp587
a(S'100000179410967'
S'Arulappa Balasubramanian'
tp588
a(S'100002261614981'
S'Nahid Khan'
tp589
a(S'1459954530'
S'Shantanu Dhamija'
tp590
a(S'100004079746612'
S'Najaf Hussain'
tp591
a(S'1822000273'
S'Ashok Kumar'
tp592
a(S'100000214695551'
S'Komal Jogpal'
tp593
a(S'1811860103'
S'Srinivas Goka'
tp594
a(S'550969067'
S'Satyendra Mishra'
tp595
a(S'1240970471'
S'Wajahat Rizvi'
tp596
a(S'100000378435446'
S'Vibha Bhalla'
tp597
asS'id'
p598
S'100000633777683'
p599
s.