(dp1
S'friends'
p2
(lp3
(S'1668998437'
S'Yessy Anggrayni'
tp4
a(S'100001959566852'
S'Vithya Rajesh'
tp5
a(S'100000892550153'
S'Arun Sathya'
tp6
a(S'100002188659828'
S'Jitto Joy Valiyamattam'
tp7
a(S'752951027'
S'Anish George'
tp8
a(S'100002233196419'
S'Keerthivasan Devarajulu'
tp9
a(S'818314455'
S'Janarthanan Balakrishnan'
tp10
a(S'100001158761740'
S'Kalai Palanisamy'
tp11
a(S'100001136024066'
S'Vasanth Madeswaran'
tp12
a(S'1051872739'
S'Guna Ranganathan'
tp13
a(S'100002341440152'
S'Tsp Prabu'
tp14
a(S'1480696741'
S'Gopikrishnan Periasamy'
tp15
a(S'100000746902811'
S'Steffy Jacob'
tp16
a(S'1142417709'
S'Tamil Arasan'
tp17
a(S'100000861594933'
S'Sibi Prasanna'
tp18
a(S'100000421057740'
S'Moataz Ahmed Eissa'
tp19
a(S'1585816959'
S'Vishnu Prabhu'
tp20
a(S'100002085311776'
p21
S'Mena Mangal'
tp22
a(S'1615458906'
S'Chandrasekar Selvam'
tp23
a(S'100001013258341'
S'Marija Boskovic Dokic'
tp24
a(S'100001757905261'
S'Anithraj Ramakrishnan'
tp25
a(S'100001185954471'
S'Adarsh Venugopal'
tp26
a(S'100000510417178'
S'Haresh Hbk'
tp27
a(S'1037110747'
S'Dinesh Duraisami'
tp28
a(S'100001481524918'
S'Sudarsan Rajendran'
tp29
a(S'100000124452651'
S'Vijay Anand'
tp30
a(S'100003344178478'
S'Boja Rajan'
tp31
a(S'100005819287993'
S'Raj Kumar'
tp32
a(S'100002163116729'
S'Sounthar Rajan'
tp33
a(S'561734489'
S'Santhosh Kumar'
tp34
a(S'100000919655447'
S'Manjunath Ramachandran'
tp35
a(S'100000450937954'
S'Krupa Rangaraj'
tp36
a(S'100000127659924'
S'Senthilkumar Karunakaran'
tp37
a(S'100000933333621'
S'Rajesh Kumar'
tp38
a(S'1544432400'
S'Ranga Arumugam'
tp39
a(S'1360231582'
S'Praveen Kumar'
tp40
a(S'100000722874815'
S'Shobana Bommayan'
tp41
a(S'100000981382043'
S'Prathiba Nandagopal'
tp42
a(S'100000867651457'
S'Prabhakar Papu'
tp43
a(S'100000265086556'
S'Natraj Shanmugam'
tp44
a(S'1481141073'
S'Bonny Thokchom'
tp45
a(S'581907467'
S'Padmanand Vasanthasekaran'
tp46
a(S'100000098005281'
S'Sarothini Vighnesh'
tp47
a(S'1436806946'
S'\\u0b9a\\u0bc1. \\u0bb0\\u0bbe'
tp48
a(S'100000751364788'
S'Vasanth Pillai'
tp49
a(S'545374055'
S'Ravindran Mannath'
tp50
a(S'100001289576142'
S'Senthil Kumar'
tp51
a(S'100000964348827'
S'Karpagam Pechimuthu'
tp52
a(S'100000945106458'
S'Prabha Haran'
tp53
a(S'100000624417725'
S'Raja Senthil'
tp54
a(S'1721149557'
S'Anbu Muthu'
tp55
a(S'100002910909124'
S'Anbu AsAlways'
tp56
a(S'1070266381'
S'Albert Marshall'
tp57
a(S'100000171914353'
S'Arun Kumar'
tp58
a(S'100000374435858'
S'Aruran Minnakkal Shanmugam'
tp59
a(S'100002144838618'
S'Vimal Raj'
tp60
a(S'100000622271385'
S'Siva Kumar'
tp61
a(S'100000533211991'
S'Dena Dayalan'
tp62
a(S'100001316747903'
S'Suresh Babu'
tp63
a(S'100001475700118'
S'Bala AR'
tp64
a(S'677909327'
S'Philip Clements Samuelraj'
tp65
a(S'1019046698'
S'Nandhu Nandheswaran'
tp66
a(S'631829765'
S'Saravana Kumar'
tp67
a(S'100000444498145'
S'Nitta Bhosaley'
tp68
a(S'100001007253380'
S'Ganapathy Gana'
tp69
a(S'100000640824247'
S'Muthu Nagarajan J'
tp70
a(S'1290107507'
S'Rakesh Kumar'
tp71
a(S'100000467820677'
S'Dinesh Karuppiah'
tp72
a(S'100002124457090'
S'Vasanth Pillai'
tp73
a(S'100000796740904'
S'Brian O Connor'
tp74
a(S'100001650004795'
S'Praveen Michael'
tp75
a(S'100001023818947'
S'Makesh Pugazhenthi'
tp76
a(S'100000550510339'
S'Venkatesa Chandran'
tp77
a(S'100000530721359'
S'Rj Gokul'
tp78
a(S'100000632460519'
S'Wilson Paul'
tp79
a(S'100000369610726'
S'Thirumeni Bommayan'
tp80
a(S'100001422654669'
S'Gugan VijayaKumar'
tp81
a(S'100001130401261'
S'Mohan Sundaram'
tp82
a(S'1810925646'
S'Prem Sidharth'
tp83
a(S'528477337'
S'Minette Onler'
tp84
asS'id'
p85
S'100000745931558'
p86
sS'name'
p87
S'Ganapathy Gana'
p88
s.