(dp1
S'friends'
p2
(lp3
(S'1125379123'
S'Mahboob Salamzai'
tp4
a(S'100000874502592'
S'\\u0641\\u0636\\u0644 \\u0627\\u0644\\u0631\\u062d\\u06cc\\u0645 \\u0628\\u0644\\u062f\\u06cc \\u0648\\u0627\\u0644'
tp5
a(S'100002836521935'
S'Kerry Shawn Keys'
tp6
a(S'100000565305753'
S'Safi Jahrullah'
tp7
a(S'100001188412276'
S'Shakirullah Irfan'
tp8
a(S'100001096869078'
S'Farid Suror'
tp9
a(S'592844814'
S'Mirza Salman Hossain Beg'
tp10
a(S'100000887675366'
S'Arif Ishaqzai'
tp11
a(S'100000026260770'
S'Najib Amirzai'
tp12
a(S'100005890274412'
S'Sohiba Isaqzai'
tp13
a(S'100000993269188'
S'Abdul Qahar Pashton'
tp14
a(S'100001016746066'
S'Faiz Rahman'
tp15
a(S'100001339963160'
S'Anwar Khan'
tp16
a(S'100001176559142'
S'Noor Ul Haq Esaaqzai'
tp17
a(S'100000048649585'
S'Mfazil Hurmat Essaqzai'
tp18
a(S'100001220501485'
S'Moqim Sajed'
tp19
a(S'1363517836'
S'Hamidullah Hassanyar'
tp20
a(S'100001034539511'
S'\\u0628\\u0644\\u0627\\u0644 \\u0628\\u062f\\u0644\\u0648\\u0646'
tp21
a(S'1341622190'
S'Lailatu Rohmah'
tp22
a(S'1703209956'
S'Kudzai Makoni'
tp23
a(S'100000591810073'
S'Angelyn Jeans'
tp24
a(S'100001417941465'
S'Ahmad Iqbal Ahmadi'
tp25
a(S'1699765629'
S'Sebghatullah Is-haqzai'
tp26
a(S'641095689'
S'Oliver J. Kaufman'
tp27
a(S'1613702830'
S'Esmatullah Qudratzai-Zadran'
tp28
a(S'100004402233358'
S'Zahir Pashtoon'
tp29
a(S'100000811524559'
S'Wahid Qarizada'
tp30
a(S'100001369582668'
S'Ansari Eshaqzai'
tp31
a(S'1188570373'
S'Mohamed Ali'
tp32
a(S'100006479324740'
S'Abdul Halim Ishaqzai'
tp33
a(S'100000471335822'
S'Rohullah Mukhlis'
tp34
a(S'1482470351'
S'Naqeeb Eshaqzai'
tp35
a(S'549862585'
S'Sayed Omar Atef'
tp36
a(S'100001174263232'
S'Mansoor Jamalzai'
tp37
a(S'100000784741671'
S'\\u0633\\u06cc\\u062f \\u0645\\u062d\\u0645\\u062f \\u063a\\u06cc\\u0648\\u0631'
tp38
a(S'1792129583'
S'Farid Mountainboy'
tp39
a(S'100000365199024'
S'Mohibullah Ishaqi'
tp40
a(S'100000651213835'
S'Sayedanwershah Abed'
tp41
a(S'100001530031437'
S'Sanaulhaq Rahimi Sanaulhaq Rahimi'
tp42
a(S'100000770840416'
S'Griffin Jones'
tp43
a(S'100001163935742'
S'Najibullah Nangialay'
tp44
a(S'100003316478878'
S'Fazal Ahmad Isaqzai'
tp45
a(S'100000365266955'
S'Katherine De Guzman Gonzales'
tp46
a(S'100001052981757'
S'Junaid Khan'
tp47
a(S'100001505087036'
S'Sodel Faisal Kakar'
tp48
a(S'100001713896743'
S'Habib Ul Rahman Wardak'
tp49
a(S'100000994992853'
S'Salam Love'
tp50
a(S'100001206913638'
S'Khanzada Izhar Ul Haq'
tp51
a(S'100000804395374'
S'AbdulRasheed Sherzai'
tp52
a(S'100000110663604'
S'Stephen Anderson'
tp53
a(S'100002085311776'
S'Mena Mangal'
tp54
a(S'100001131243219'
S'Atiqullah Afghan'
tp55
a(S'100000673355440'
S'Muhammad Nawaz'
tp56
a(S'100000138222833'
S'Sadiq Ishaqzai'
tp57
a(S'100000832454593'
S'Zia Esaqzey'
tp58
a(S'1307863449'
S'Naqeebullah Isaczai'
tp59
a(S'100003595711096'
S'Mohammadullah Mandozay'
tp60
a(S'100002164373979'
S'Roohullah Hijran'
tp61
a(S'100000424561196'
S'Abdul Barry'
tp62
a(S'1668414489'
S'Alhaj Ismail'
tp63
a(S'100000488054384'
S'Nasir Ahmad Hemat'
tp64
a(S'100001686114165'
S'Kakagul Sport'
tp65
a(S'100001670184342'
S'Ajmal Kakar'
tp66
a(S'100001033224040'
S'Abdullah Tasal'
tp67
a(S'100001084849929'
S'Malikfaisal Kakar'
tp68
a(S'100000911538952'
S'Zar Jan'
tp69
a(S'100001339808232'
S'Rahmatullah Hashimi'
tp70
a(S'100000684612148'
S'Abdul Qavi Khan'
tp71
a(S'1691665622'
S'Faiza Gul'
tp72
a(S'100001242574183'
S'Zainullah Mandozai'
tp73
a(S'1677434340'
S'Abdulqadeer Wardak'
tp74
a(S'100000898300879'
S'Samar Seerat'
tp75
a(S'1335823255'
S'Ahmad Nasir Es-haqzai'
tp76
a(S'100000235957447'
S'Shah Pour Abdulrahimzai'
tp77
a(S'100000934179888'
S'Sabawoon-Awaljan Taniwal'
tp78
a(S'100000248822908'
S'Mary Jane Curry'
tp79
a(S'100001220437820'
S'Zabihulla Zaki Isaqzai'
tp80
a(S'758707494'
S'Ali Mujtaba'
tp81
a(S'1334119802'
S'Zakirullah Shinwari'
tp82
a(S'100000517903143'
S'Mohammad Gul Amirzai'
tp83
a(S'100000358323104'
S'Saamee Aejaz'
tp84
a(S'1399240370'
S'Afri Yanti'
tp85
a(S'100005904786186'
S'DrAbdullah Masoom'
tp86
a(S'100001004666794'
S'Qanit Huda'
tp87
a(S'100004575935501'
S'Tajali Sabir'
tp88
a(S'100005653271065'
S'\\u0635\\u0627\\u062f\\u0642 \\u0635\\u0627\\u0628\\u0631'
tp89
a(S'1251950526'
S'Mohammad Hossin Yosofy'
tp90
a(S'100000953566100'
S'Asadullah Eshaqzai'
tp91
a(S'1411664225'
S'Mia Zara Hamzah'
tp92
a(S'1444122850'
S'Wajid Ishaqzai'
tp93
a(S'100000327772638'
S'Murtaza Ishaqzai'
tp94
a(S'1691349008'
S'Sahar Mohammad'
tp95
a(S'100002321147495'
S'Muhammad Basheer'
tp96
a(S'1790074994'
S'Noor Ul Haq'
tp97
a(S'100000434299295'
S'Amin Fazlee'
tp98
a(S'1424063770'
S'Ajmal Sultani'
tp99
a(S'1671398481'
S"Lela'Elsa Sany' Sanaky"
tp100
a(S'100003082736360'
S'Mirwais Sahar'
tp101
asS'id'
p102
S'100001489331115'
p103
sS'name'
p104
S'Faizullah Isaqzai'
p105
s.