(dp1
S'friends'
p2
(lp3
(S'100000667728886'
S'Mohan Krishan'
tp4
a(S'1593264450'
S'Deepak Gupta'
tp5
a(S'702279472'
S'Vishal Kohli'
tp6
a(S'100003043687153'
S'Qazi Nauman'
tp7
a(S'100000517603656'
S'Syed Mahmood Kadri'
tp8
a(S'100003560323622'
S'Neelu Wani'
tp9
a(S'100000300060499'
S'Neha Sharma Kandhari'
tp10
a(S'1015706754'
S'Aga Nadeem'
tp11
a(S'586812549'
S'Kapil D. Jamwal'
tp12
a(S'100004192812566'
S'Rk Koul'
tp13
a(S'100002142242382'
S'Anoop Tandon'
tp14
a(S'100000316659364'
S'Malik Naseer'
tp15
a(S'100001286702798'
S'Gourav Chibber'
tp16
a(S'100001895998281'
S'Malik Suhail'
tp17
a(S'100001529425110'
S'Mona Kour'
tp18
a(S'100002340955690'
S'Abhay Sharma'
tp19
a(S'1407545959'
S'Sidharth Bindroo'
tp20
a(S'683892512'
S'Vikrant Jaiswal'
tp21
a(S'1594879935'
S'Huma Nadeem Ali'
tp22
a(S'100001588511409'
S'Suruchi Gupta'
tp23
a(S'100002456185229'
S'Mohd Ashraf'
tp24
a(S'668507027'
S'Akash Prashar'
tp25
a(S'1585997278'
S'Shahid Hussain'
tp26
a(S'100000360348289'
S'Naveen Mahajan'
tp27
a(S'1504642004'
S'Ishfaq Nazeer'
tp28
a(S'1512844116'
S'Faheem Ahmad Patloo'
tp29
a(S'100001470049935'
S'Haamid Jan'
tp30
a(S'758423754'
S'Raktima Goswami Bhanot'
tp31
a(S'100000815001818'
S'Ajay Koul'
tp32
a(S'100007703945778'
S'Archna Koul'
tp33
a(S'100003893264315'
S'Michael Joanna'
tp34
a(S'100001409766795'
S'Bhatt Rashmi'
tp35
a(S'1463627758'
S'Jahangir Aslam Makhdoomi'
tp36
a(S'586210607'
S'Vimarsh Raina'
tp37
a(S'100000463876913'
S'Mehmood Qadri'
tp38
a(S'100000798336114'
S'Gaurav Kalra'
tp39
a(S'100001948490984'
S'Meenakshi Koul'
tp40
a(S'100000888848976'
S'Sawan Koul'
tp41
a(S'100002073561150'
S'Atul Kesharia'
tp42
a(S'1056221032'
S'Syed Ayjaz Qadri'
tp43
a(S'535493068'
S'Sandeep Mawa'
tp44
a(S'1382856469'
S'Jb Koul'
tp45
a(S'1384350624'
S'Murtaza Fazal Ali'
tp46
a(S'509613663'
S'Kunal Gupta'
tp47
a(S'100006514801272'
S'Ramesh Kumar'
tp48
a(S'100001287618927'
S'Aarti Gupta'
tp49
a(S'100001682022775'
S'Jyoti Raina'
tp50
a(S'100002541194019'
S'Raj Mohan ManGotra'
tp51
a(S'100002699112355'
S'Roopika Sambyal'
tp52
a(S'100001493452566'
S'Anuja Koul'
tp53
a(S'100001254124265'
S'Swati Shama'
tp54
a(S'100000330860386'
S'Monica Kapoor'
tp55
a(S'645150991'
S'Agnivesh Tikoo'
tp56
a(S'773574081'
S'Arun Kumar Gupta'
tp57
a(S'100000352354570'
S'Richa Basit'
tp58
a(S'100001477477719'
S'Majid Masoodi'
tp59
a(S'100003069089030'
S'Archana Bhat'
tp60
a(S'1393675938'
S'Urvashi Goja'
tp61
a(S'100001408230566'
S'Burhana Jan'
tp62
a(S'1084748308'
S'Sheikh Ozair'
tp63
a(S'100004373588565'
S'Anju Sharma'
tp64
a(S'1767897505'
S'Sushil Aggarwal'
tp65
a(S'738783067'
S'Ameeta Koul'
tp66
a(S'711333651'
S'Nitin Koul'
tp67
a(S'100000543253329'
S'Anisa Nisar Jan'
tp68
a(S'100000917926326'
S'Rahul Katna'
tp69
a(S'100000555336623'
S'Nadeem Niyaz Jan'
tp70
a(S'100001387872030'
S'Nasreen Ali Kalla'
tp71
asS'id'
p72
S'100002094751938'
p73
sS'name'
p74
S'Anita Koul'
p75
s.