(dp1
S'name'
p2
S'Mihir Kumar'
p3
sS'current_class'
p4
S'india'
p5
sS'home_class'
p6
S'france'
p7
sS'current_link'
p8
Vhttps://www.facebook.com/l.php?u=https%3A%2F%2Fwww.bing.com%2Fmaps%2Fdefault.aspx%3Fv%3D2%26pc%3DFACEBK%26mid%3D8100%26where1%3D28.610000412388%252C%2B77.229766845703%26name%3DDelhi%252C%2BIndia%26mkt%3Den-IN&h=xAQHCnE96&s=1
p9
sS'home_link'
p10
Vhttps://www.facebook.com/l.php?u=https%3A%2F%2Fwww.bing.com%2Fmaps%2Fdefault.aspx%3Fv%3D2%26pc%3DFACEBK%26mid%3D8100%26where1%3D28.610000412388%252C%2B77.229766845703%26name%3DDelhi%252C%2BIndia%26mkt%3Den-IN&h=CAQG53sIE&s=1
p11
sS'current_text'
p12
VDelhi, India\u000aCurrent City
p13
sS'friends'
p14
(lp15
(S'100000633649402'
S'George Joseph'
tp16
a(S'100005877031867'
S'Gv Praseeda'
tp17
a(S'100002050552786'
S'Debasmita Baruah'
tp18
a(S'100002963597795'
S'\\u0938\\u094b\\u0928\\u093e\\u0915\\u094d\\u0937\\u0940 \\u0915\\u092a\\u0930\\u0941\\u0935\\u093e\\u0928'
tp19
a(S'100000785043339'
S'Kartik Mathur'
tp20
a(S'100000203081974'
S'Kopal Gupta'
tp21
a(S'100003659300538'
S'Ravi Chaurasia'
tp22
a(S'100006358411989'
S'Wakalemzee Pitzee'
tp23
a(S'100002831373003'
S'Ayesha Singh'
tp24
a(S'100001391564295'
S'Ayah Ragiel'
tp25
a(S'1355352371'
S'Nikita Pande'
tp26
a(S'100003083503411'
S'Shubhankar Aggarwal'
tp27
a(S'100000821499186'
S'Savin Varshney'
tp28
a(S'100000111853090'
S'FedEx Ravi Kiran'
tp29
a(S'1628569306'
S'Pulkit Malhotra'
tp30
a(S'1468138053'
S'Krishna Singhal'
tp31
a(S'100000544276034'
S'Neeraj Chaurasia'
tp32
a(S'100004114872882'
S'Anupriya Bajaj'
tp33
a(S'100000050921608'
S'Shubham Ruhela'
tp34
a(S'100003770983131'
S'Deiksha Singh Rathore'
tp35
a(S'100004236704238'
S'Pragati Mishra'
tp36
a(S'100004154560429'
S'Shubhra Happy Saxena'
tp37
a(S'1103001687'
S'Ajit Deshpande'
tp38
a(S'100000934338364'
S'Jordan Kinchum Tshering Namchu'
tp39
a(S'100006028382905'
S'Anurag Sharma'
tp40
a(S'100001108650592'
S'Ritwik Shrimali'
tp41
a(S'100000061741154'
S'Soutik Banerjee'
tp42
a(S'100001201171582'
S'Ishaan Gupta'
tp43
a(S'100004034491938'
S'Ashish Dubey'
tp44
a(S'100003485760802'
S'Lovely Singh'
tp45
a(S'100006648184136'
S'Jyotiprasad Borah'
tp46
a(S'100002013162895'
S'Younus Khan'
tp47
a(S'100003514954623'
S'Grace Vaiphei'
tp48
a(S'100004066460634'
S'Reena Yadav'
tp49
a(S'100003506801038'
S'Harkeerat Singh'
tp50
a(S'626163234'
S'Gurpreet Kainth'
tp51
a(S'100002063331302'
S'Anjali Godyal'
tp52
a(S'1364336822'
S'Gunjan Nanda'
tp53
a(S'100001418593743'
S'Suneet Thakur'
tp54
a(S'100001926024422'
S'Sarmistha Bhagawati'
tp55
a(S'100001408909574'
S'Ishita Negi'
tp56
a(S'1254821599'
S'Shivi Uppal'
tp57
a(S'100002564371949'
S'Syed Tafri Haque'
tp58
a(S'100002507078563'
S'Palak Agarwal'
tp59
a(S'100002016034818'
S'Pranjal Sharma'
tp60
a(S'100001367366355'
S'Pankaj Meena'
tp61
a(S'100007554274732'
S'Pandey Nidhi'
tp62
a(S'100000961772842'
S'Amar Nath Mishra'
tp63
a(S'100000710513308'
S'Shikhar Choudhary'
tp64
a(S'100000698116553'
S'Ravi Kumar Singh'
tp65
a(S'100001063677102'
S'Sukrit Joshi'
tp66
a(S'100002858820603'
S'Tamaswini Buragohain'
tp67
a(S'100000243395327'
S'Ajit Gaurav'
tp68
a(S'100003989095949'
S'Alarka Paul'
tp69
a(S'100002229911117'
S'Maushum Shyam'
tp70
a(S'1837492658'
S'Mukund Marodia'
tp71
a(S'100000827643953'
S'Varun Kumar'
tp72
a(S'100001030822088'
S'Priyanka Meena'
tp73
a(S'100003837954130'
S'Chandrabhan Singh'
tp74
a(S'100000803910292'
S'Dwaipayan Saha'
tp75
a(S'100007143607069'
S'Nandita Verma'
tp76
a(S'100001210826742'
S'Aaditya Adyot Shrivastava'
tp77
a(S'100002515694020'
S'Varun Elders'
tp78
a(S'1288465913'
S'Mansi Bansal'
tp79
a(S'100000800121669'
S'Paras Rana'
tp80
a(S'1051385350'
S'Sawan Rawat'
tp81
a(S'100000813893326'
S'Mayank Yadav'
tp82
a(S'100003600087816'
S'Siyona Tripathi'
tp83
a(S'100000757757698'
S'Yogeshwari Yaffa'
tp84
a(S'1609939483'
S'Vatsal Prakash'
tp85
a(S'1264708135'
S'Saiket Talukdar'
tp86
a(S'100000581614662'
S'Abhinav Kumar'
tp87
a(S'100001388893793'
S'Tapas Paul'
tp88
a(S'1108297787'
S'Deepanjana Dasgupta'
tp89
a(S'1035887544'
S'Yaashicaa Negi'
tp90
a(S'100006484982593'
S'Ananya Mishra'
tp91
a(S'100001641160459'
S'Sudhanshu Singh Panwar'
tp92
a(S'100002496360317'
S'Shahnawaz Amin'
tp93
a(S'1642795044'
S'Ketan Singh'
tp94
a(S'100002093981463'
S'Isha Sweet'
tp95
a(S'562058865'
S'Gautam Chaurasia'
tp96
a(S'100001250997305'
S'Ria Sen'
tp97
a(S'100002715338530'
S'Aniket Sharma'
tp98
a(S'100001398292261'
S'Shohail Quadir Hazarika'
tp99
a(S'100001093637987'
S'Maitraiyee Tiwari'
tp100
a(S'100000786858112'
S'Vikesh Kumar Verma'
tp101
a(S'100001277350523'
S'Shardul Tomar'
tp102
a(S'559780146'
S'Kartikay Dhar'
tp103
a(S'100001925683610'
S'Richard Abraham'
tp104
a(S'1431192088'
S'Debayan Chakraborty'
tp105
a(S'100001676715759'
S'Shubham Gupta'
tp106
a(S'100001443385103'
S'Liza Shyam'
tp107
a(S'1201299484'
S'Sudhir Pratap Singh Charan'
tp108
a(S'100001935106377'
S'Madhusmita Bhattacharjee'
tp109
a(S'100000048757791'
S'Shubham Gupta'
tp110
a(S'100002727681207'
S'Maanya Chariyo'
tp111
a(S'1449547944'
S'Anisha Angelina Victor'
tp112
a(S'100001842174366'
S'Junk Trash'
tp113
a(S'100002423424993'
S'Ravi Chaurasia'
tp114
a(S'100002274762140'
S'Prandeep Bhattacharjee'
tp115
a(S'100003813040148'
S'Amit Lochab'
tp116
a(S'100002094621175'
S'Drishti Babu'
tp117
a(S'100001422910479'
S'Ashish Mamgain'
tp118
a(S'1445872761'
S'Sushant Vohra'
tp119
a(S'1589209107'
S'Ashima Mohan'
tp120
a(S'100000238187259'
S'Akash Banerjee'
tp121
a(S'100002155084867'
S'Anneshan Sarmah D-guitarist'
tp122
a(S'100001808410674'
S'Aaziya Nazeer'
tp123
a(S'100005587060934'
S'KirTi Pal'
tp124
a(S'100003000407857'
S'Pratibha Raturi'
tp125
a(S'100002578161634'
S'Sweata Deb Barman'
tp126
a(S'100000045652066'
S'Sonali Verma'
tp127
a(S'100001077703497'
S'Plavan Barua'
tp128
a(S'100000951355159'
S'Rishabh Oberoi'
tp129
a(S'100002056060237'
S'Pranjal Sharma'
tp130
a(S'100004078954159'
S'Arshia Jacob'
tp131
a(S'100003547726111'
S'Sumedha Kaushik'
tp132
a(S'100005164531231'
S'Vishal Kumar'
tp133
a(S'100002399004331'
S'Bedanga Sonowal'
tp134
a(S'100002572389930'
S'Dipesh Kapil'
tp135
a(S'1794055466'
S'Shivam Sharma'
tp136
a(S'100000585274525'
S'Pavika Saini'
tp137
a(S'100000989551213'
S'Karan Gaur'
tp138
a(S'100000747989164'
S'Sachit Jain'
tp139
a(S'1663583264'
S'Pradyumna Duwarah'
tp140
a(S'1301229032'
S'Abhishek Bansal'
tp141
a(S'100001140625452'
S'Sudipto Bharali'
tp142
a(S'100001059912619'
S'Raja Pandit'
tp143
a(S'100003898591616'
S'Isha Singh'
tp144
a(S'100000054250526'
S'Tonmoy Mistry'
tp145
a(S'100002356098331'
S'Anirban Bhuyan'
tp146
a(S'100003094461298'
S'Drrishi Chaurasia'
tp147
a(S'100001951976844'
S'Mohit Sharma'
tp148
a(S'100001988937930'
S'Chandrima Attri'
tp149
a(S'100001594825777'
S'Noor Ahmed'
tp150
a(S'100001242238362'
S'Shivam Dixit'
tp151
a(S'100000230330110'
S'Arunabh Borah'
tp152
a(S'100001302758144'
S'Bhaumik T. Patel'
tp153
a(S'100001322718150'
S'Tarun Tewari'
tp154
a(S'1403252199'
S'Aditi Ramchandra'
tp155
a(S'100004220734914'
S'Prateeksha Darabdhara'
tp156
a(S'100002591823054'
S'Mehul Rajvanshi'
tp157
a(S'100006313989911'
S'Kriti Vashisht'
tp158
a(S'100002463143650'
S'Shaun Martin'
tp159
a(S'100001751721815'
S'\\u00d0ebashish D Ripper'
tp160
a(S'100001378040178'
S'Hansraj Vijay'
tp161
a(S'100003576280868'
S'Parul Aggarwal'
tp162
a(S'100003005259403'
S'Vishal Singh'
tp163
a(S'100000524182143'
S'Abhijit Shyam'
tp164
a(S'100000482145975'
S'Akshya Onadia'
tp165
a(S'100001764358052'
S'Prasanjit Ruj'
tp166
a(S'100003712720272'
S'Sugandha Garg'
tp167
a(S'100000836100942'
S'Dipti Roy'
tp168
a(S'100003325941017'
S'Anusha Gupta'
tp169
a(S'100004879355005'
S'Wodehouse Ssc'
tp170
a(S'100000708470039'
S'Ambuj Pawar'
tp171
a(S'100001478199700'
S'Sagar Pant'
tp172
a(S'100000692065691'
S'Kartik Gupta'
tp173
a(S'100001442482578'
S'Ashish Khamesra'
tp174
a(S'1317738068'
S'Neeraj Gupta'
tp175
a(S'100000063250477'
S'Banashree Bhagawati'
tp176
a(S'100002679478660'
S'Nitesh K. Mahlawat'
tp177
a(S'100003714885944'
S'Anamika Sarma'
tp178
a(S'100000068848606'
S'Parth Bhatt'
tp179
a(S'100004040742358'
S'Aditendra Singh Chandel'
tp180
a(S'1593084569'
S'Sachu Sanil Chemmalakuzhy'
tp181
a(S'100000427611070'
S'Archies Banerjee'
tp182
a(S'1831125896'
S'Aniket Gupta'
tp183
a(S'100002602762929'
S'Suh-nee Paul'
tp184
a(S'100007738060160'
S'Alarka D Poseur'
tp185
a(S'100001151523379'
S'Ashneet Singh'
tp186
a(S'100000971502647'
S'Harsh Verma'
tp187
a(S'548344709'
S'Raghav Dahuja'
tp188
a(S'100000366092512'
S'Khushbu Sharma'
tp189
a(S'100001309477447'
S'Rakesh Kumar Pal'
tp190
a(S'100000796792964'
S'Sukanya Borthakur'
tp191
a(S'100002966317315'
S'Piyush Gupta'
tp192
a(S'100002383271392'
S'Abhinab Das'
tp193
a(S'100001396894787'
S'Uddish Borpujari'
tp194
a(S'100001258969582'
S'Dharmveer Sharma'
tp195
a(S'100004413393473'
S'Ritom Baruah'
tp196
a(S'100005989204436'
S'Anuj Sharma'
tp197
a(S'100001335637961'
S'Gitartha Das'
tp198
a(S'1231585611'
S'Neha Singh'
tp199
a(S'100001166321817'
S'Ruchi Singh'
tp200
a(S'100004672081339'
S'Neeraj Nishant'
tp201
a(S'100003127725577'
S'A\\u00f1\\u00fcR\\u00e3g H\\u00e3Z\\u00e4r\\u00eek\\u00e3'
tp202
a(S'100000033642472'
S'Vignesh Vs'
tp203
a(S'100001660885451'
S'Vishal Sarma'
tp204
a(S'100003804879148'
S'Nikita Gupta'
tp205
a(S'1312204917'
S'Ribhav Pande'
tp206
a(S'100006996482392'
S'Priyashree Konwar'
tp207
a(S'702251169'
S"Leroy Leo D'Souza"
tp208
a(S'100003969813777'
S'Nikhil Sharma'
tp209
a(S'100005615855548'
S'Naraharisetty Vijay'
tp210
a(S'667209688'
S'Satender Singh Vijayran'
tp211
a(S'1605848028'
S'Apala Mishra'
tp212
a(S'100001398901108'
S'Abhishek Sharma'
tp213
a(S'100004060549791'
S'Charmain Lartoyar Peterson'
tp214
a(S'1636386248'
S'Shourya Awasthi'
tp215
a(S'100000423471477'
S'Brojesh Baidya'
tp216
a(S'100000295998931'
S'Rituparna Das'
tp217
a(S'100003848610237'
S'Sanchit Katiyar'
tp218
a(S'100001144082919'
S'Pranjal Kaushiley'
tp219
a(S'1316028019'
S'Anuj Sanghi'
tp220
a(S'100002600816823'
S'Ayesha Negi'
tp221
a(S'533668558'
S'Ankur Thapliyal'
tp222
a(S'100002660655416'
S'Prakhar Srivastava'
tp223
a(S'100001812893847'
S'Sahil Sethi'
tp224
a(S'100000400545414'
S'Avni Singh'
tp225
a(S'100002517099540'
S'Pallab Hazarika'
tp226
a(S'100002337943165'
S'Suryabhan Singh'
tp227
a(S'100004452334074'
S'Nitin Mogra'
tp228
a(S'100002107091662'
S'Abhinav Mamgain'
tp229
a(S'100003359768486'
S'Arun Xonuwal'
tp230
a(S'100000705404912'
S'Navneet Mridul Hazarika'
tp231
a(S'100002144509704'
S'Surya Nath'
tp232
a(S'100007208260042'
S'Jopen Yein'
tp233
a(S'100001705457511'
S'Avinav Duggal'
tp234
a(S'100006589080514'
S'Vishal Kumar Singh'
tp235
a(S'100001765197822'
S'Himangshu Deori'
tp236
a(S'100002298044366'
S'Rahul Sarma'
tp237
a(S'100000578282709'
S'Bhumika Arora'
tp238
a(S'100001815366712'
S'Rituraj Borah'
tp239
a(S'100001138545614'
S'Chittaranjan Sharma'
tp240
a(S'100004353756451'
S'Saumya Bora'
tp241
a(S'100001304092500'
S'Ankur Shyam'
tp242
a(S'100001090701462'
S'Asveen Kaur'
tp243
a(S'100002492552830'
S'Minakshi Das'
tp244
a(S'100005707712307'
S'Sonu Chhillar'
tp245
a(S'1796645268'
S'Vinay Joshi'
tp246
a(S'100001679160046'
S'Shivendra Raghav'
tp247
a(S'100001568360589'
S'Raghav Rana'
tp248
a(S'100003908252664'
S'Kiran Arora'
tp249
a(S'100003699084198'
S'Vishakha Nayal'
tp250
a(S'100006810667751'
S'Rimzhim Neog'
tp251
a(S'100001658831413'
S'Payal Kashyap'
tp252
a(S'100000977829585'
S'Dhanraj Karel'
tp253
a(S'100000987782194'
S'Vaibhav Gaur'
tp254
a(S'100003038951439'
S'Rohit Kumar'
tp255
a(S'1659546932'
S'Rishabh Rishu Jolly'
tp256
a(S'100001121625715'
S'Kritika Pandey'
tp257
a(S'100001031228831'
S'Prateek Chetry'
tp258
a(S'100004200223201'
S'Himanshu Kashyb'
tp259
a(S'100001594544145'
S'Himadri Deori'
tp260
a(S'100003070053496'
S'Vedika Joshi'
tp261
a(S'1524290251'
S'Lavanya Sherin'
tp262
a(S'100002606762617'
S'Chaurasiarajesh Rajeshchaurasia'
tp263
a(S'100002391288281'
S'Darshanam Jude Lama'
tp264
a(S'100000308206113'
S'Vaibhav Singh'
tp265
a(S'100000624544059'
S'Sarfraz Hussain'
tp266
a(S'100000934111297'
S'Akshat Jain'
tp267
a(S'100003967824907'
S'Indrani Hazarika'
tp268
a(S'1413918589'
S'Aakash Saikia'
tp269
a(S'100002460888339'
S'Nishi Gandha Misra'
tp270
a(S'647584679'
S"Raghav 'Roalts' Apoorv"
tp271
a(S'100001896153186'
S'Saksham Singhal'
tp272
a(S'100001871601565'
S'Rosy Bordoloi'
tp273
a(S'100000047671650'
S'Kriti Gupta'
tp274
a(S'100003725292438'
S'Subhrata Borthakur'
tp275
a(S'1517870967'
S'Sagar Pant'
tp276
a(S'100001021178007'
S'Sakshi Mittal'
tp277
a(S'100000940417367'
S'Anurag Jain'
tp278
a(S'100001044346696'
S'Udhav Gogoi'
tp279
a(S'100004017267709'
S'Aishwarya Gupta'
tp280
a(S'100002984583778'
S'Himanshu Neog'
tp281
a(S'100000069098863'
S'Cyril Thomas'
tp282
a(S'100000646921834'
S'Sukanya Arora'
tp283
a(S'100002346593396'
S'Mohit Sharma'
tp284
a(S'100001731355327'
S'Swati Singh'
tp285
a(S'100000911934951'
S'Pranjal Shapeshifter'
tp286
a(S'1143541821'
S'Dhawal Singh Rawat'
tp287
a(S'100001292336330'
S'Uttam Kumar Sah'
tp288
a(S'100001879349146'
S'Ailita Kashyap'
tp289
a(S'100001555911443'
S'Kavel Baruah'
tp290
a(S'100003796920216'
S'Shilpika Kakoty'
tp291
a(S'100001095133061'
S'Isaac George Varghese'
tp292
a(S'100001685436344'
S'Uday Bisht'
tp293
a(S'100001017541481'
S'Pritom Bharali'
tp294
a(S'100002340917186'
S'Prabal Hazarika'
tp295
a(S'100001155078827'
S'Nikita Malik'
tp296
a(S'100005633882094'
S'Ahaana Saanvi'
tp297
a(S'100000239325901'
S'Leena Sharma'
tp298
a(S'100001518561939'
S'Aman Maheshwari'
tp299
a(S'100001771897676'
S'Aachal Kashyap'
tp300
a(S'100002568148332'
S'Mann Dahiya'
tp301
a(S'100003356344817'
S'Sukanya Borah'
tp302
a(S'100002886326399'
S'Kajol Chatterjee'
tp303
a(S'100001702418782'
S'Aryan Kumar'
tp304
a(S'100003253497663'
S'Amit Thakur'
tp305
a(S'100003059064959'
S'Debashree Konwar'
tp306
a(S'100001405447796'
S'Tushar Bhatt'
tp307
a(S'100000656458868'
S'Dheeraj Chourasiya'
tp308
a(S'100003292310529'
S'Gourav Dahiya'
tp309
a(S'100001138607994'
S'Xuruj Xzz'
tp310
a(S'100001042861292'
S'Ankit Shriwal'
tp311
a(S'100000249696900'
S'Suyash Tyagi'
tp312
a(S'100002052512581'
S'Angana Mallick'
tp313
a(S'100005014386724'
S'Debashree Konwar'
tp314
a(S'1273664126'
S'Priyakhi Borkotoky'
tp315
a(S'100001377357873'
S'Dimple Ramchandani'
tp316
a(S'1701708347'
S'Nina Borah'
tp317
a(S'100002043450258'
S'Sidharth D Rapper'
tp318
a(S'1629012608'
S"Tanisha D'souza"
tp319
a(S'100001105840195'
S'Ritika Jain'
tp320
a(S'1212440672'
S'Abhinav Shyam'
tp321
a(S'100001437002393'
S'Anugya Agarwal'
tp322
a(S'100001193796282'
S'Devanuj Duara'
tp323
a(S'100001650619424'
S'Shubhangi Aggarwal'
tp324
a(S'100000093675886'
S'Anubhav Phukan'
tp325
a(S'1241481613'
S'Reuben Das'
tp326
a(S'610682391'
S'Kapil Joshi'
tp327
a(S'100001205073708'
S'Dsn Raju'
tp328
a(S'100001733192814'
S'Talha Shamsi'
tp329
a(S'1530094168'
S'Aayush Chandna'
tp330
a(S'100003971466551'
S'Nihar Sonowal'
tp331
a(S'100000703018397'
S'Ayush Rai'
tp332
a(S'100001084918335'
S'NSenorita Gogoi'
tp333
a(S'100003235039516'
S'NEha Chaudhary'
tp334
a(S'100002425525704'
S'Kalyan Phukan'
tp335
a(S'100003549761780'
S'Panchami Goswami'
tp336
a(S'100001033746206'
S'Kanishk Bhatt'
tp337
a(S'100001123267745'
S'Anubhuti Joshi'
tp338
a(S'100001765044279'
S'Sh\\u00e5nat\\u00ecc Rit\\u00eck\\u00e4'
tp339
a(S'100003966767849'
S'Prarthana Goswami'
tp340
a(S'100004823850442'
S'Harkeerat Singh'
tp341
a(S'100001493848151'
S'Maninderjeet Singh Kochar'
tp342
a(S'100004366412846'
S'Atima Shahi'
tp343
a(S'100002981300668'
S'Mary Jane Fernandez'
tp344
a(S'100000489236178'
S'Sourabh Navani'
tp345
a(S'100001007907488'
S'Manisha Chetia-Boni'
tp346
a(S'100003775470137'
S'Gaurish Kant Shukla'
tp347
a(S'1672677132'
S'Annu Malhotra'
tp348
a(S'100003210010538'
S'Susheel Chaudhary'
tp349
asS'id'
p350
S'100000067600638'
p351
s.