(dp1
S'friends'
p2
(lp3
(S'100006919177100'
S'\\u0633\\u0646\\u062f\\u0631\\u063a\\u0627\\u0693\\u0649 \\u0631\\u062e\\u064a\\u0645 \\u062c\\u0627\\u0646 \\u0645\\u0646\\u06ab\\u0644'
tp4
a(S'100003586673897'
S'\\u0642\\u0627\\u062f\\u064a\\u0631 \\u0645\\u0646\\u0643\\u0644'
tp5
a(S'100007514742526'
S'\\u0628\\u062e\\u062a \\u0627\\u0644\\u0644\\u0647 \\u063a\\u064a\\u0631\\u062a'
tp6
a(S'100001956406336'
p7
S'Saif Ullah Tajzoi'
tp8
a(S'100001512536493'
S'Navid Noori'
tp9
a(S'100002427051911'
S'Logar Azra'
tp10
a(S'100002609499561'
S'Zabih Qayumi'
tp11
a(S'100005540499374'
S'Zarlashta Safi'
tp12
a(S'100003501653053'
S'Eid Mar Jan Mangal'
tp13
a(S'100004740512691'
S'Nawroz Mangal'
tp14
a(S'100007482012750'
p15
S'Rauf Jan Himat'
tp16
a(S'100003616392693'
S'Dostag\\u00fcl Mangal'
tp17
a(S'100004983604342'
S'Fares Rashidy'
tp18
a(S'100002083145176'
S'Mujahid Ullha Mujahid'
tp19
a(S'100003543732974'
S'Akbar Baheer Mangal'
tp20
a(S'100007304670455'
S'\\u0643\\u0644\\u062b\\u0648\\u0645 \\u062b\\u0645\\u0631'
tp21
a(S'100002221678420'
S'Jamaludin Badar'
tp22
a(S'100007058227884'
S'Rahmatulah Mangal'
tp23
a(S'100002490510845'
S'Kefayat Malizai'
tp24
a(S'100007134311011'
S'\\u0645\\u0627\\u0644\\u064a \\u062d\\u0627\\u0646 \\u0646\\u064a\\u0627\\u0632\\u064a'
tp25
a(S'100005934103897'
p26
S'Saidrauf Wafa'
tp27
a(S'100007327088775'
S'Riaz Shwgeer'
tp28
a(S'100006363098865'
S'Ahmad Shah'
tp29
a(S'100006483562888'
S'Shahmd Takal'
tp30
a(S'100004751495755'
S'Ghiasudin Ayobi'
tp31
a(S'100002016653203'
S'Abdulbasir Matoonwal'
tp32
a(S'100007641941852'
S'Tofan Singer'
tp33
a(S'100002143391926'
S'Qadim Afghan'
tp34
a(S'100007714924023'
S'\\u0633\\u0627\\u062c\\u06cc\\u062f\\u0645\\u06cc\\u0646\\u0648\\u0627\\u0644 \\u0645\\u0646\\u06ab\\u0644'
tp35
a(S'100004371793083'
S'\\u0641\\u0631\\u06cc\\u0634\\u062a\\u0647 \\u0633\\u0639\\u0627\\u062f\\u062a \\u0633\\u0639\\u0627\\u062f\\u062a'
tp36
a(S'100006948883992'
S'\\u0628\\u0631\\u06d0\\u069a\\u0646\\u0627 \\u0627\\u0645\\u06d0\\u0644'
tp37
a(S'100002765570009'
S'Shams Gayle Honest'
tp38
a(S'100006765634701'
S'Lemar Lemar'
tp39
a(S'100007356396170'
S'Ihsanullah Haseen'
tp40
a(S'100005171312778'
S'Lalmir Mangal'
tp41
a(S'100006967535590'
S'Tamana Kabuli'
tp42
a(S'100003496988673'
S'\\u0645\\u0645\\u0644\\u0647 \\u0633\\u06cc\\u0644\\u06cd'
tp43
a(S'100004093531730'
S'Abdul Rahim Ayoubi'
tp44
a(S'100004130765651'
p45
S'Sifullah Mangal'
tp46
a(S'100002299955370'
S'Baz Muhammad Mangal'
tp47
a(S'100004710366737'
S'\\u0645\\u0633\\u0639\\u0648\\u062f \\u0627\\u0641\\u063a\\u0627\\u0646'
tp48
a(S'100005536264452'
S'Baheer Mangal'
tp49
a(S'100003852192593'
S'Abdulwali Niazi'
tp50
a(S'100006472285764'
S'\\u062d\\u0627\\u062c\\u064a \\u0627\\u0646\\u0632\\u0631\\u0643\\u0644 \\u0645\\u0646\\u0643\\u0644'
tp51
a(S'100003400607895'
S'\\u0634\\u0627\\u0647 \\u062f\\u062e\\u062a \\u0628\\u062f\\u062e\\u0634\\u0627\\u0646\\u06cc'
tp52
a(S'100005187990948'
S'Zahoor Khan'
tp53
a(S'100002085311776'
S'Mena Mangal'
tp54
a(S'100001663334521'
S'Akbar Jan Yaseeni'
tp55
a(S'100003156963221'
p56
S'Ail Khan Neakmal'
tp57
a(S'100002059060630'
S'Zarin Anzor Mangal'
tp58
a(S'100006257137782'
S'Marouf Mangal'
tp59
a(S'100003264046817'
S'Lali Hamidzai'
tp60
a(S'100004283201998'
S'\\u0628\\u064a\\u0646\\u0648\\u0627 \\u0637\\u0648\\u0637\\u0627\\u062e\\u064a\\u0644'
tp61
a(S'100007818873637'
S'\\u062e\\u0627\\u0644\\u062f\\u06c1 \\u0627\\u0641\\u063a\\u0627\\u0646\\u06cc'
tp62
a(S'100007020306584'
S'Wafa Niazi'
tp63
a(S'100005397722572'
S'Qasimullah Momand'
tp64
a(S'100003569878952'
S'\\u067e\\u069a\\u062a\\u0648\\u0646 \\u0681\\u0644\\u0645\\u06cc'
tp65
a(S'100005857686416'
S'Wali Jan Mangal'
tp66
a(S'100007179905548'
S'Jamil Ahmad Safi'
tp67
a(S'100007609897502'
S'Zahir Afghan'
tp68
a(S'100007841490494'
S'Mohammad Mangal'
tp69
a(S'100007682134678'
S'\\u0645\\u06cc\\u0631\\u0632\\u0627\\u062e\\u0627\\u0646 \\u0645\\u0646\\u06af\\u0644'
tp70
a(S'100006926409114'
S'Azatullah Sharaf'
tp71
a(S'100001476336839'
S'Zarif Atal'
tp72
a(S'100004529820560'
S'Saifullah Niazi'
tp73
a(S'100003829951792'
S'Musa Armaghan'
tp74
a(S'100000711594973'
S'Nasir Mangal'
tp75
a(S'100007147544088'
p76
S'Baryali Pason'
tp77
a(S'100002340617292'
S'Jahad Ullah Gaheez'
tp78
a(S'100005041777166'
S'Rahmatgul Niazi'
tp79
a(S'100004724100969'
S'Abdullah Noori'
tp80
a(S'100007664802994'
S'\\u0639\\u0627\\u0628\\u062f \\u0648\\u0641\\u0627 \\u0645\\u0646\\u06ab\\u0644'
tp81
a(S'100003800686745'
S'Shpoon Mangal'
tp82
a(S'1022972890'
S'Aziz Alemzay'
tp83
a(S'100007699507469'
S'\\u0627\\u062d\\u0633\\u0627\\u0646 \\u0627\\u0644\\u0644\\u0647 \\u06ab\\u06cc\\u0644\\u0627\\u0645\\u0646 \\u0645\\u0646\\u06ab\\u0644'
tp84
a(S'622330691'
S'Jawed Ghafoor'
tp85
a(S'100001720459619'
S'Momin Mangal'
tp86
a(S'100004831359604'
S'Afghan Yaar'
tp87
a(S'100007170991885'
S'\\u0627\\u0646\\u062a\\u0638\\u0627\\u0631 \\u0627\\u0645\\u0646\\u06af\\u0644'
tp88
a(S'1269686538'
S'Noorshah Noorani'
tp89
a(S'100000155568405'
S'Noorkhan Mangal'
tp90
a(S'100002611716607'
S'Attiq Noori'
tp91
a(S'100004710307541'
S'Pardis Amini'
tp92
a(S'100005840223793'
p93
S'\\u0639\\u0628\\u062f\\u0627\\u0644\\u0644\\u06c1 \\u0633\\u0631\\u06af\\u0631'
tp94
a(S'100007758160618'
S'\\u0627\\u0644\\u062d\\u0627\\u062c \\u0635\\u0627\\u062d\\u0628 \\u0645\\u0646\\u06af\\u0644'
tp95
a(S'100004797250409'
S'Liwal Khost'
tp96
a(S'100004464934042'
S'Ahmadshah Mangal'
tp97
a(S'100003967680024'
S'\\u0641\\u0636\\u0644 \\u06cc\\u0627\\u0631 \\u0645\\u0646\\u06ab\\u0644'
tp98
a(S'100005148552152'
S'Sadrazam Shaheen'
tp99
a(S'100007477537446'
S'Safir Mangal'
tp100
a(S'100006599474053'
S'Shazeya Naaz'
tp101
a(S'100007710635324'
S'Hamimshah Balkhil'
tp102
a(S'100003661411033'
S'Sharafyar Mangal'
tp103
a(S'100006981434190'
S'Said Wali Mangal'
tp104
a(S'100003964808806'
S'Jahad Noor Ansar'
tp105
a(S'100003467798775'
S'Sahil Afghan'
tp106
a(S'100001785088381'
S'Walikhan Mangal'
tp107
a(S'100004373829807'
S'Shabir Ahmadzai'
tp108
a(S'100007501752183'
S'Marya Sahar'
tp109
asS'id'
p110
S'100005044754356'
p111
sS'name'
p112
S'Ahmad Sayed'
p113
s.