(dp1
S'name'
p2
S'Bryan Escobar'
p3
sS'current_class'
p4
S'philippines'
p5
sS'home_text'
p6
VTayug, Pangasinan\u000aHometown
p7
sS'current_link'
p8
Vhttps://www.facebook.com/l.php?u=https%3A%2F%2Fwww.bing.com%2Fmaps%2Fdefault.aspx%3Fv%3D2%26pc%3DFACEBK%26mid%3D8100%26where1%3D14.643900087619%252C%2B121.03637695312%26name%3DQuezon%2BCity%252C%2BPhilippines%26mkt%3Den-IN&h=PAQHdAqTe&s=1
p9
sS'home_link'
p10
Vhttps://www.facebook.com/l.php?u=https%3A%2F%2Fwww.bing.com%2Fmaps%2Fdefault.aspx%3Fv%3D2%26pc%3DFACEBK%26mid%3D8100%26where1%3D16.026700085642%252C%2B120.74798583984%26name%3DTayug%252C%2BPangasinan%26mkt%3Den-IN&h=qAQH1Cyv0&s=1
p11
sS'current_text'
p12
VQuezon City, Philippines\u000aCurrent City
p13
sS'friends'
p14
(lp15
(S'100008221333725'
S'Adien Sy'
tp16
a(S'100008118637874'
S'Yza Baguioro'
tp17
a(S'100001891837845'
S'Christian Ray Abuan'
tp18
a(S'100003821323489'
S'Khrisha Kate Snmgl Nicdao'
tp19
a(S'100001614041386'
S'Pretty-Naughty Yuna'
tp20
a(S'100007033084965'
S'Myrach Lazeh Cacalda'
tp21
a(S'100002599920369'
S'Zydrix Bueno'
tp22
a(S'100008212723511'
S'Cindie Riella Arco'
tp23
a(S'100001528292632'
S'Badette Hufana'
tp24
a(S'100008068303194'
S'\\u0e27\\u0e32\\u0e2a\\u0e19\\u0e32 \\u0e23\\u0e38\\u0e49\\u0e07\\u0e41\\u0e27\\u0e07'
tp25
a(S'100003785545772'
S'Mchl Angl Dydy'
tp26
a(S'100008230964373'
S'Rica Damasco'
tp27
a(S'100008247341709'
S'Jhenesa Milet'
tp28
a(S'100008221238277'
S'Ana Marie Smith'
tp29
a(S'100008302593061'
S'Jeremiah Sangalang'
tp30
a(S'100008202517188'
S'Reymark Espuritu'
tp31
a(S'100008193364749'
S'Mariel Tingig'
tp32
a(S'100008088371714'
S'Shekainah Grace Badua'
tp33
a(S'100008317027134'
S'\\u0e40\\u0e1f\\u0e2a\\u0e1a\\u0e38\\u0e4a\\u0e04 \\u0e04\\u0e19\\u0e14\\u0e31\\u0e07'
tp34
a(S'100007353786913'
S'GlenDa Mae C. Abreo'
tp35
a(S'100008118872638'
S'Cigie Alvarez'
tp36
a(S'100008309583790'
S'Gaston Manga'
tp37
a(S'100007860042201'
S'Azle Cell'
tp38
a(S'100005114084176'
S'Jessa Mercado'
tp39
a(S'100002441250910'
S'Jessa Pasion Andaya'
tp40
a(S'100003211324568'
S'Maevin Marticio'
tp41
a(S'100005544214724'
S'Jamon Kimjay Alejo'
tp42
a(S'100007714986907'
S"Dj'Sweet Angel Flores Gulla"
tp43
a(S'100007401334894'
S'Ryan Jay Bugarin'
tp44
a(S'100008211071725'
S'Abigail Park Suhoon'
tp45
a(S'100001153637123'
S'Abegail Sanchez'
tp46
a(S'100004072116341'
S'Ranjit Paulo Gonzales Ganigan'
tp47
a(S'100008260690139'
S'Jhallyson Leoncily'
tp48
a(S'100003763010476'
S'Jeannica Alberto'
tp49
a(S'100002517802771'
S'Silver Ladia Velasco'
tp50
a(S'100008219386044'
S'Marj Putian'
tp51
a(S'100007171870090'
S'Princess Kisha'
tp52
a(S'100001117539966'
S'Jayson Chaneco David'
tp53
a(S'100008198024293'
S'Luhan BD'
tp54
a(S'100008190311894'
S'Lusy Hasdiantii'
tp55
a(S'100006796064186'
S'Ynamarie Gilbero'
tp56
a(S'100008285708689'
S'Harvy Castor'
tp57
a(S'100005701357839'
S'Keycelyn Fragata'
tp58
a(S'100008258974403'
S'Cella Diandra'
tp59
a(S'100004523381902'
S'Rosemarie Silis'
tp60
a(S'100008317263473'
S'Kimberly Villano'
tp61
a(S'100002623726480'
S'Marvin Bucsit'
tp62
a(S'100007039870084'
S'Shian Labxyow'
tp63
a(S'100008274756099'
S'\\u0628\\u0646 \\u0644\\u0627\\u062f\\u0646 \\u0627\\u0633\\u0627\\u0645\\u0647'
tp64
a(S'100008145941241'
S'Emy Dumaguing Herman'
tp65
a(S'100000496606009'
S'Toberts Toberts'
tp66
a(S'100005809059203'
S'Edralene Joyce Balase'
tp67
a(S'100008181283022'
S'Arnold Ayang'
tp68
a(S'100005807888970'
S'Ako Si Sunshine'
tp69
a(S'100008050483536'
S'John Rustico Quejada'
tp70
a(S'100008282833242'
S'Kai Kim GC'
tp71
a(S'100008223438152'
S'Real Anna'
tp72
a(S'100007319583892'
S'Bandarie Kaye Sanchez Isip'
tp73
a(S'100004714654007'
S'Sam Dong'
tp74
a(S'100008293654840'
S'Jackylou Barbon'
tp75
a(S'100006459920759'
S'Helen Castil Omo'
tp76
a(S'100004533995162'
S'Angelo Florentin'
tp77
a(S'100007011482983'
S'Jessa Mendoza'
tp78
a(S'100008233415861'
S'Jhen Hyun De Guzman'
tp79
a(S'100008146423123'
S'Wilmita Babanto Circulado'
tp80
a(S'100006516722324'
S'Mary Ann Reynoso Rosendo'
tp81
a(S'100008295844585'
S'Gosho Aoyama'
tp82
a(S'100008287898937'
S'Kristel Joy Cura Paguio'
tp83
a(S'100008192134331'
S'Elven Galise Dumaguing'
tp84
a(S'100005052462954'
S'Aprilyn Adloc de Leon'
tp85
a(S'100007079977737'
S'Jessa Rivera'
tp86
a(S'100001760077887'
S'Abhie Magtaka'
tp87
a(S'100005938327640'
S'Lermalyn Singpet'
tp88
a(S'100002304704032'
S'Jovelyn Cahucom'
tp89
a(S'100004266641328'
S'Jaypee Villanueva'
tp90
a(S'100008196211316'
S'Oriqq Fame Chixx'
tp91
a(S'100006410409078'
S'John Michael Estabillo'
tp92
a(S'100008291730599'
S'Jessa Megan'
tp93
a(S'100002356984573'
S'Jojo Magpali'
tp94
a(S'100006244476642'
S'Shannen Yzrah Miguel'
tp95
a(S'100008242357393'
S'Jane Angela Vivas-suhoon'
tp96
a(S'100008032182879'
S'Maricris Samson'
tp97
a(S'100001795268456'
S'Sheharazade Dapasen Bunaguen'
tp98
a(S'100008229914669'
S'Kelvin Clay Amate'
tp99
a(S'100008301374002'
S'Sephie Nichole'
tp100
a(S'100008314534165'
S'Julius Alcover'
tp101
a(S'100008238376743'
S'Lina  Dyukeyt'
tp102
a(S'100003405318671'
S'Joyce Macayan'
tp103
a(S'100006456660758'
S'Sheena Mae Carmelo'
tp104
a(S'100008308683749'
S'Nikkah Jung'
tp105
a(S'100008237320510'
S'Nishka Mano'
tp106
a(S'100008275032280'
S'Rio Marie Faulkerson'
tp107
a(S'100007178320661'
S'Jachelle Mae Billena'
tp108
a(S'100002595938453'
S'Cabrera Kenberly Anne Shyne'
tp109
a(S'100003737457334'
S'Gagan Singh Chouhan'
tp110
a(S'100005005307740'
S'Kenberly Anne Shyne Abuan'
tp111
a(S'100005889397695'
S'Mhaleey Espiritu'
tp112
a(S'100005345617092'
S'AbBiegail Alberto Siasat'
tp113
a(S'100008012863671'
S'Roxan Balliner'
tp114
a(S'100008259163971'
S'Poom Pakpoom'
tp115
a(S'100007745611627'
S'Mar\\u013aon Escobar'
tp116
a(S'100005686243234'
S'Menchie Legaspi'
tp117
a(S'100008331180197'
S'Michael Andy'
tp118
a(S'100003634616904'
S'Sushie SusilLawatie Eanqselalu Tersakitie'
tp119
a(S'100005982493895'
S'Jezza Narawi Escarcha'
tp120
a(S'100008315616991'
S'Pierre Madrigal'
tp121
a(S'100008063648873'
S'Lovely Dayos'
tp122
a(S'100003534729241'
S'Gibo NatiCs XD'
tp123
a(S'100007171118831'
S'Kevin Rubert Marquez'
tp124
a(S'100000300218321'
S'Mark Eson Antipolo Espiritu'
tp125
a(S'100008147014596'
S'Nikki Gulapa'
tp126
a(S'100000420915263'
S'Demy Marquez'
tp127
a(S'100008238914223'
S"Ijef D'Boys"
tp128
a(S'100008274338674'
S'Mariestella Racal'
tp129
a(S'100008224210400'
S'Novia Indah Sarie'
tp130
a(S'100008294318552'
S'Zaifulfadaza Chelaeh'
tp131
a(S'100001706947937'
S'Apple Joy Ballesteros Calpan'
tp132
a(S'100008270533218'
S'Abigail Lacsina'
tp133
a(S'100008328900587'
S'Mark Philip Florentino'
tp134
a(S'100008181337336'
S'Katy Ash Mendez'
tp135
a(S'100006416347954'
S'Rustan Bugarin'
tp136
a(S'100008238489175'
S'Princess Althea Tan'
tp137
a(S'100008256974582'
S'Cedric Otentic'
tp138
a(S'100007377392397'
S'Aila Clludihati Clmax'
tp139
a(S'100003779064399'
S'Krystle Nidoy Ortiz'
tp140
a(S'100007426261322'
S'Eedeih De Guzman'
tp141
a(S'100000933189194'
S'Edesio Leprozo'
tp142
a(S'100006810849431'
S'Rowen Britanico'
tp143
a(S'100002241628761'
S'Jonathan A Menosaba'
tp144
a(S'100006654961473'
S'Chris Mesias'
tp145
a(S'100008274012572'
S'Lykimber Amlac'
tp146
a(S'100008223242632'
S'Ennaira Lopez'
tp147
a(S'100003074274917'
S'Gabriel Domingo'
tp148
a(S'100005743146633'
S'Marie AraShe'
tp149
a(S'100003064067146'
S'Rizel Ann Ramos'
tp150
a(S'100008319544199'
S'Clark Jilvee Tubera'
tp151
a(S'100002912948455'
S'Joeinnah Castro'
tp152
a(S'100007762950489'
S'Jhim Vee Labsyuu'
tp153
a(S'100007720780484'
S'Ronnel Marquez Santiago'
tp154
a(S'100007125820462'
S'Oscar Abalos'
tp155
a(S'100007601109944'
S'Jeoffrey Fragata'
tp156
a(S'100008245934293'
S'Isaiah Madu'
tp157
a(S'100008246047479'
S'Zushikamiku Chimotofu Zusmorito'
tp158
a(S'100008165712982'
S'Arlyn Torres'
tp159
a(S'100008305717420'
S'Gerlee Altangerel'
tp160
a(S'100004318778591'
S'Mary Grace Resolme'
tp161
a(S'100008195110921'
S'Rose Maximo'
tp162
a(S'100008133614004'
S'Rowela Patacsil'
tp163
a(S'100008066048913'
S'Rose Ann Segundo Bataan'
tp164
a(S'100008256009475'
S'Kathryn Bernardo'
tp165
a(S'100008246261486'
S'Dan Wayne Corrales'
tp166
a(S'100008300588365'
S'Irgi Nizam'
tp167
a(S'100001048938354'
S'Myra Dayos'
tp168
a(S'100000873837993'
S'Roy Rayos Pulmones'
tp169
a(S'100006235863035'
S'Christopher Sumio'
tp170
a(S'100007103404169'
S'Illyes Puthri Dhiansyah'
tp171
a(S'100008205721903'
S'Anna Ramzyl Cajigas Abad'
tp172
a(S'100008290149683'
S'Rechie Bandiala'
tp173
a(S'100008321761674'
S'\\u0e40\\u0e21\\u0e22\\u0e4c\\u0e23\\u0e35\\u0e48 \\u0e22\\u0e34\\u0e49\\u0e21\\u0e41\\u0e09\\u0e48\\u0e07'
tp174
a(S'100001888908144'
S'Jessa Mendoza'
tp175
a(S'100001638339147'
S'Raynor Domingo Mangaoang'
tp176
a(S'100008266625764'
S'Sharlene Oronce'
tp177
a(S'100000543764059'
S'Lyann Kate Doctolero Alvarez'
tp178
a(S'100007404252309'
S'Ellah Pagaduan'
tp179
a(S'100007366573092'
S'Ramae Flores'
tp180
a(S'100000954934482'
S'Dyann Leiine'
tp181
a(S'100002363865261'
S'Caroline Quinit Villanueva'
tp182
a(S'100007722125924'
S'Antonette Romenez'
tp183
a(S'100007858503403'
S'Gemma C Benitez'
tp184
a(S'100008200383350'
S'Bryan Ramos'
tp185
a(S'100004634856777'
S'Mark Emil Joven'
tp186
a(S'100004870057488'
S'Ma Cristina Bustillo Sabado'
tp187
a(S'100003002229692'
S'Jaymark Salvosa'
tp188
a(S'100008199190612'
S'Trixie Montalvan'
tp189
a(S'100005881056491'
S'Angel Eicka Espiritu'
tp190
a(S'100008251211516'
S'Jaylee Ramos'
tp191
a(S'100008072942439'
S'Inggit Ka Lang'
tp192
a(S'100003707290722'
S'Ely Equila Caballero'
tp193
a(S'100008166905011'
S'Rich Love U II'
tp194
a(S'100005708588573'
S'\\u0139emmor Manahan Padilla'
tp195
a(S'100005255711551'
S'Carl Bellon'
tp196
a(S'100006892153108'
S'Jayson Maligsay'
tp197
a(S'100007622202158'
S'Samson Rivera II'
tp198
a(S'100008220407853'
S'Maria Conceicao Almeida Dw Souza'
tp199
a(S'100001348886436'
S'Jessa Mendoza'
tp200
a(S'100006558551993'
S'Egoistic Talha'
tp201
a(S'100008294944500'
S'Feona Afrina'
tp202
a(S'100008285679021'
S'Chabelita David'
tp203
a(S'100008106605591'
S'Love Kita Romero'
tp204
a(S'100008270010049'
S'Amy Rose E Calsada'
tp205
a(S'100007856767208'
S'Angelo Rodriguito'
tp206
a(S'100008264225301'
S"Dhava Jeger'z Kasotan Part II"
tp207
a(S'100008326200567'
S'Rein Denis'
tp208
a(S'100008233054365'
S'Valirie Vall Garcia'
tp209
a(S'100007808653519'
S'Eannie Zip'
tp210
a(S'100004780836838'
S'Marah Calaoagan'
tp211
a(S'100001362305123'
S'Lemiram Atisy Nisali'
tp212
a(S'100008252112185'
S'Leandra Silva'
tp213
a(S'100008286151651'
S'Princess Summer Light Vancouser-Lee'
tp214
a(S'100008288644884'
S'Ria May Alfonso David'
tp215
a(S'100008303103611'
S'Jek Jek Serolf'
tp216
a(S'100003670348120'
S'Juvell Esquivel'
tp217
a(S'100008228310704'
S'Jenny Onnagan'
tp218
a(S'100004577828480'
S'ShelaMay Tejeros Escribano'
tp219
a(S'100004068712781'
S'Jonald Pamatian'
tp220
a(S'100007254692863'
S'Ging Biazon'
tp221
a(S'100000475985628'
S'Rhealyn Fragata Delovino'
tp222
a(S'100007715502638'
S'Kevin Gabiran'
tp223
a(S'100008275358664'
S'Pogi Crime'
tp224
a(S'100008253704503'
S'Sheila May Lahaylahay'
tp225
a(S'100000145135947'
S'Christian Michael Alvarez Domingo'
tp226
a(S'100007380304089'
S'Algeo Espiritu'
tp227
a(S'100004826288578'
S'Germane Marticio'
tp228
a(S'100004985738905'
S'Ery Edane'
tp229
a(S'100003305270127'
S'Espiritu Levi Graxia'
tp230
a(S'100000888797971'
S'Jeana Columna Lacson'
tp231
a(S'100008294745863'
S'Agostinho Francisco Cutchibe'
tp232
a(S'100005862247429'
S'Reynadith Abad'
tp233
a(S'100007148730768'
S'Roselyn Lasta Putis'
tp234
a(S'100001251923497'
S'Stephanie Palis'
tp235
a(S'100001773984380'
S'Shandae Dones'
tp236
a(S'100001695395064'
S'Nayr Aian'
tp237
a(S'100006824169718'
S'Maria Sancha A Argosino'
tp238
a(S'100007927713344'
S'Brecy Bodoy'
tp239
a(S'100001999604779'
S'May Farrah Agyapas'
tp240
a(S'100008289510064'
S'Luedehnz Bagawa Rabe'
tp241
a(S'100008244224161'
S'Lo Ve You'
tp242
a(S'100007969754306'
S'Ruth Sarmiento'
tp243
a(S'100007830003403'
S'Evelyn Tabangin'
tp244
a(S'100002422691189'
S'Nieselle Villanueva'
tp245
a(S'100006237936840'
S'Mae Ann Millares'
tp246
a(S'100007885034331'
S'Curl John Mejia'
tp247
a(S'100007753652150'
S'Jaymar Sabado'
tp248
a(S'100008232456646'
S'Mary Ann Nabalta'
tp249
a(S'100008302388031'
S'Car Paras'
tp250
a(S'100008247884827'
S'Rey Daniel Famor'
tp251
a(S'100007953097291'
S'Yrah Yrah'
tp252
a(S'100003380168718'
S'Daryl Glenn Quinit'
tp253
a(S'100001929255322'
S'Demylosh Sarmiento'
tp254
a(S'100006936185387'
S'Gurshibe Singh'
tp255
a(S'100008338950690'
S'Ranjith Kumar'
tp256
a(S'100007160171038'
S'Dewi Azka Ariyani'
tp257
a(S'100005543856471'
S'Sebastian James Aquijo'
tp258
a(S'100008286607540'
S'Julieanne Gibas'
tp259
a(S'100008241044321'
S'Romeo Zacarias'
tp260
a(S'100000505417812'
S'Maria Fe Abiad'
tp261
a(S'100000921110366'
S'Rosemarie Tomanan'
tp262
a(S'100002437625233'
S'Love Cheska'
tp263
a(S'100002107269847'
S'Cla Rissa Alap'
tp264
a(S'100008247554768'
S'Jerick Ylanan'
tp265
a(S'100007945723031'
S'Mae Parayno'
tp266
a(S'100003094789364'
S'Ron Jhonny Guerrero'
tp267
a(S'100008326590131'
S'Chotiyara Rajak'
tp268
a(S'100006743373603'
S'Sam DGzmn'
tp269
a(S'100008254024458'
S'Mhaii Urbano'
tp270
a(S'100001195681696'
S'Marynella Anos'
tp271
a(S'100005886693682'
S'T\\u1ef1 Ho\\u00e0n Thi\\u1ec7n'
tp272
a(S'100008289849023'
S'Brianna Gail Sanchez'
tp273
a(S'100008242659060'
S'Bakla Ako Promise'
tp274
a(S'100008033710233'
S'John Mark Estioco'
tp275
a(S'100007182754353'
S'Laeyla Ramadhany'
tp276
a(S'100002839408929'
S'Isaya Kulitz AqOh'
tp277
a(S'100004620312992'
S'Jonathan Cagonia Rivera'
tp278
a(S'100008103196367'
S'Vina Yvanne Clorion'
tp279
a(S'100008249440363'
S'\\u0130layda \\u00c7\\u0131tak'
tp280
a(S'100003807952225'
S'Michelle Bumatay'
tp281
a(S'100008315313139'
S'Oschiel Mae Agabon Felipe'
tp282
a(S'100008200839996'
S'Ashley Tuazon'
tp283
a(S'100008394605365'
S'Riechelle Ortia'
tp284
a(S'100008314260112'
S'Novia Anggraini'
tp285
a(S'100008258050515'
S'Abigale Palacio'
tp286
a(S'100005527422109'
S'Miyaka Mae II'
tp287
a(S'100008236390048'
S'Awishka Minaj'
tp288
a(S'100007900812317'
S'Brent Patrick Bodoy Mayandoc'
tp289
a(S'100008213437252'
S'Nanda Halsya'
tp290
a(S'100003085601381'
S'Jeraline Lacap'
tp291
a(S'100003496601854'
S'Joanna Marie Miguel'
tp292
a(S'100000645713838'
S'Larrabel Corales'
tp293
a(S'100008276917002'
S'Ghielyn Soria'
tp294
a(S'100008217469013'
S'\\u0e40\\u0e01\\u0e34\\u0e14\\u0e21\\u0e32\\u0e40\\u0e1e\\u0e37\\u0e48\\u0e2d \\u0e08\\u0e30\\u0e23\\u0e31\\u0e01\\u0e40\\u0e17\\u0e2d'
tp295
a(S'100002397514853'
S'Melody T. Ato'
tp296
a(S'100001560231994'
S'Yuen Andre Calusa'
tp297
a(S'100007704721378'
S'Anna Marie Dela Cruz'
tp298
a(S'100008266866383'
S'Lovely Lopez'
tp299
a(S'100006464863564'
S'Antonio Cagonia Rivera'
tp300
a(S'100007819832770'
S'Myra Pascan'
tp301
a(S'100002473814781'
S'Sinem \\u00d6zbal'
tp302
a(S'100008117400732'
S'Dinara Supaeva'
tp303
a(S'100008236338140'
S'Marie Fe Batin'
tp304
a(S'100005484906973'
S'Brigette Ignacio Bodoy'
tp305
a(S'100008297498220'
S'Vi\\u1ec7t My'
tp306
a(S'100008264680859'
S'Lijo Joy'
tp307
a(S'100005809623694'
S'Donnalyn Mapalo'
tp308
a(S'100008314651702'
S'Christian Ignacio Cipres'
tp309
a(S'100002669932285'
S'Sofia Blair Lee'
tp310
a(S'100008175308232'
S'Eni Nuraeni'
tp311
a(S'100007773692547'
S'Deejhayy Uy'
tp312
a(S'100001279535830'
S'Renalyn Silvestre Ventura'
tp313
a(S'100008257360214'
S'Kurly Cruz'
tp314
a(S'100003318259997'
S'Kimberly Timbang'
tp315
a(S'100002926000700'
S'Val Mendoza'
tp316
a(S'100008202092337'
S'Megha Mamuaya'
tp317
a(S'100008247195168'
S'Raleigh Indigo Norris Scott'
tp318
a(S'100007881394521'
S'Vivie Andesztan Poenya Umam'
tp319
a(S'100004843631949'
S'Angel Marie Ilar'
tp320
a(S'100004219243831'
S'Ermalyn Arquero'
tp321
a(S'100005167837771'
S'Daryl Glenn Quinit'
tp322
a(S'100008242475708'
S'Susi Ygcellalu Cyg Dia'
tp323
a(S'100008315132685'
S'Kim Rae Mun'
tp324
a(S'100003888363218'
S'Alvinson Villasista Molina'
tp325
a(S'100007847500856'
S'Zumala Anifatul'
tp326
a(S'100007383553329'
S'Eva Nova'
tp327
a(S'100008212727777'
S'Dewapro Id'
tp328
a(S'100002043407209'
S'Margaux Lazaro Ramos'
tp329
a(S'100008223697358'
S'Jeoffrey Guieb Fragata'
tp330
a(S'100003297965219'
S'Rasec Omar Tubera Ramirez'
tp331
a(S'100005283815453'
S'ElLand Suyat'
tp332
a(S'100008218368304'
S'Pogi Canlas'
tp333
a(S'100008219117538'
S'Lhady Jhayne Villaluz'
tp334
a(S'100008219112899'
S'Chin Yao'
tp335
a(S'100008103168255'
S'Jhane Dela Cruz'
tp336
a(S'100008319871972'
S'Laixsana Neixl Daine Sharpe'
tp337
a(S'100007791582490'
S'Novelyn Laderas'
tp338
a(S'100008280882969'
S'Osana Elmae II'
tp339
a(S'100004041504641'
S'Carmela Mae Santos'
tp340
a(S'100007776004680'
S'Yojiram Seravilo'
tp341
a(S'100002382519481'
S'Irish Hyuri Serquina'
tp342
a(S'100008319547555'
S'Hanirose Aglanang'
tp343
a(S'100008065479097'
S'Markoliver Enriquez'
tp344
a(S'100008212832967'
S'Lorraine Annabelle Marchadesch Dominique II'
tp345
a(S'100005452416353'
S'Bobby Dapuyan'
tp346
a(S'100003817900181'
S'Blessed Love Mejia Lina'
tp347
a(S'100000593808310'
S'Christine Perez Naraja'
tp348
a(S'100008116655507'
S'Lornz Delos Santos'
tp349
a(S'100008244374867'
S'Jurna Flores'
tp350
a(S'100008067844307'
S'Rynielle Tres'
tp351
a(S'100005868694011'
S'Raihan Mamaluba Usop'
tp352
a(S'100006855454461'
S'Erica Trisha Ramos'
tp353
a(S'100007716698899'
S'Muskaan Khan'
tp354
a(S'100005948324305'
S'MbAh'
tp355
a(S'100008224443611'
S'Jennylene Cariazo'
tp356
a(S'100003110570766'
S'Bhozx Ellimac Sebay'
tp357
a(S'100008241272634'
S'Love Adrian Limos'
tp358
a(S'100001584699575'
S'MArk Judelle TobiAs ParaGas'
tp359
a(S'100008233781104'
S'Shamil Xiamsxszztkhiee'
tp360
a(S'100008273082368'
S'Bryan Gatbunton'
tp361
a(S'100008253967838'
S'Sarayan Angel'
tp362
a(S'100001187815396'
S'Denise Marquez'
tp363
a(S'100008204374190'
S'Grace Bitoon Ramos'
tp364
a(S'100008250483453'
S'Emma Allinna King'
tp365
a(S'100000937278603'
S'Reyven Ivan SB'
tp366
a(S'100008238453987'
S'Rhys Gleian Artajo'
tp367
a(S'100007006840540'
S'James Nicole Cacalda'
tp368
a(S'100003202505523'
S'Richzalyn Zhian Pestola'
tp369
a(S'100008262133740'
S'Junrey Salamanca'
tp370
a(S'100007714683663'
S'Jayhou Alberto'
tp371
a(S'100008224691836'
S'Stacey Violet Takahashi'
tp372
a(S'100008308890458'
S'Christian Lamarca'
tp373
a(S'100006987732019'
S'Emelyn Delacruz'
tp374
a(S'100001207558373'
S'Ira Novelle Urbano'
tp375
a(S'100008239690421'
S'Ruth Salazar'
tp376
a(S'100003921769651'
S'Aubrey Cabanilla'
tp377
a(S'100006929018417'
S'Christopher Calano'
tp378
a(S'100008293389125'
S'Cevi Novaldi'
tp379
a(S'100007467242117'
S'Oussama Madridi'
tp380
a(S'100000691404081'
S'Nick Francis Hiruma Domingo'
tp381
a(S'100004025268939'
S'Jamelle Cyene Barigues'
tp382
a(S'100006803644778'
S'Rogene Esteves Bautista'
tp383
a(S'100008199223147'
S'Sandra Rara'
tp384
a(S'100000943497461'
S'Aprielle Grace'
tp385
a(S'100002199320870'
S'Mary Jane Garcia'
tp386
a(S'100008315047642'
S'Ako Ikawlng'
tp387
a(S'100008038057348'
S'Kristine Ferialde'
tp388
asS'id'
p389
S'100008217527708'
p390
s.