(dp1
S'friends'
p2
(lp3
(S'100002920503684'
S'Pawan Pathak'
tp4
a(S'100002380689752'
S'Ipsha Deshwal'
tp5
a(S'100001579481716'
S'Shaurya Singh'
tp6
a(S'100002393767458'
S'SDinesh Sharma'
tp7
a(S'100002347208357'
S'Sharma Himanshu'
tp8
a(S'100002530075185'
S'Prateek Gupta'
tp9
a(S'100002475885607'
S'Darshna Bhadana'
tp10
a(S'100002029402299'
S'Mridul Joshi'
tp11
a(S'100002455432848'
S'P\\u00f6\\u00f4j\\u00e2 N\\u00e2ss\\u00e2'
tp12
a(S'100002520238546'
S'Ashu Pal'
tp13
a(S'100002602832492'
S'Vikrant Arya'
tp14
a(S'100002926074459'
S'Harsh Kumar'
tp15
a(S'100002554266220'
S'Sayali Rajpoot'
tp16
a(S'100001065341589'
S'Angelic Ash'
tp17
a(S'100001162858548'
S'Rohit Sharma'
tp18
a(S'100000698308654'
S'Jaity Panchal'
tp19
a(S'100002662671861'
S'Puneet Nittin Verma'
tp20
a(S'100002347567363'
S'Ankit Bisla'
tp21
a(S'100002745663632'
S'Shivi Jaskoti'
tp22
a(S'100001863575898'
S'Priyanka Bhardwaj'
tp23
a(S'100003060948675'
S'Khusbu Arora'
tp24
a(S'100002498408170'
S'Gundeep Kashyap'
tp25
a(S'100001927655514'
S'Aashna Garg'
tp26
a(S'100002527996622'
S'Vivek Sheoran'
tp27
a(S'100002223032368'
S'Kashish Sharma'
tp28
a(S'100002209994772'
S"Mann's Misra"
tp29
a(S'100001544678860'
S'Ann Nacua'
tp30
a(S'100002482021716'
S'Veenu Choudhary'
tp31
a(S'100002674257592'
S'Amit Olla'
tp32
a(S'100001348351866'
S'SuDeshna Jana'
tp33
a(S'100001213804192'
S'Anirudh Ghosh'
tp34
a(S'100004998544765'
S'Love Liyana'
tp35
a(S'100003059437621'
S'HoNey SiNgh'
tp36
a(S'100002230769067'
S'Sheetal Metho'
tp37
a(S'100002656419532'
S'Manish Chaudhary'
tp38
a(S'100001863594602'
S'Mobark Alli'
tp39
a(S'100002208746647'
S'Praveen Bhati'
tp40
a(S'100002366490731'
S'Aashi Tyagi'
tp41
a(S'100000455843803'
S'Ochena Manush'
tp42
a(S'100003063930040'
S'Joshi Anand'
tp43
a(S'100002924196327'
S'Rohini Sharma'
tp44
a(S'100001999602458'
S'Noor Arora'
tp45
a(S'100002656804996'
S'Naved Ahmad'
tp46
a(S'100002622393331'
S'Anil Inld'
tp47
a(S'100002657930801'
S'Dimple Rana'
tp48
a(S'100001962511122'
S'Mahesh Nagar'
tp49
a(S'100002657880124'
S'Supriya Singh'
tp50
a(S'100001976290390'
S'Jaanvi Sweet'
tp51
a(S'100002997871467'
S'Anjali Singh'
tp52
a(S'100001576533269'
S'Abhijatya Banerjee'
tp53
a(S'100002796730347'
S'Kapil Nagar'
tp54
a(S'100008237166853'
S'Lata Pandey'
tp55
a(S'100000497130735'
S'Johna Williams'
tp56
a(S'100002036947433'
p57
S'Shifa Christina Nicholson'
tp58
a(S'100002600690286'
S'Vishal Gahlot'
tp59
a(S'100001347235663'
S'Abhishek Kataria'
tp60
a(S'100002561707950'
S'Pr\\u00ed\\u00f1\\u00e7\\u00ea Singh'
tp61
a(S'100002886326187'
S'Pankaj Yadav'
tp62
a(S'100000456945443'
S'Sushant Nagpal'
tp63
a(S'100004199520810'
S'Saloni Jain'
tp64
a(S'100002623887836'
S'\\u00c2ng\\u00eal M\\u00f5n\\u00eec\\u00e3'
tp65
a(S'100001490148377'
S'Harsh Vardhan Kunwar'
tp66
a(S'100002192869862'
S'Prashant Sengar'
tp67
a(S'100003033406632'
S'Harsha Joshi'
tp68
a(S'100003871947418'
S'Shanaya Khan'
tp69
a(S'100002720852479'
S'Mohit Martolia'
tp70
a(S'100001602423356'
S'Jitender Dagar'
tp71
a(S'100002575219969'
S'Alicia Love Fox'
tp72
a(S'100001755035626'
S'Amit Nath'
tp73
a(S'100002362328179'
S'Rahull Kuntal'
tp74
a(S'100001644687276'
S'Apoorva Verma'
tp75
a(S'100001063782156'
S'Chakshu Joshi'
tp76
a(S'100001184067554'
S'Sdinesh Sharma'
tp77
a(S'100002910859242'
S'Misha Garg'
tp78
a(S'100002236752500'
S'Dharmendra Chauhan'
tp79
a(S'100002637791649'
S'Kashish Sharma'
tp80
a(S'100001918256089'
S'Emmillee Barbie Natad'
tp81
a(S'100001773986610'
S'Akash Kumar'
tp82
a(S'100002235504085'
S'Vishvender Bhadana'
tp83
a(S'100000042599424'
S'Kamini Chopara'
tp84
a(S'100001223827289'
S'Shivankush Chauhan'
tp85
a(S'100002509563498'
S'Aman Kumar'
tp86
a(S'100001122229337'
S'Ashwani Singh'
tp87
a(S'100001804935653'
S'Ayush Pal'
tp88
a(S'100002662140859'
S'Sam Rock'
tp89
a(S'100002448818918'
S'Arun Rawal'
tp90
a(S'100002393183895'
S'Puneet Vashisht'
tp91
a(S'100001022519018'
S'Gaurav Bisht'
tp92
a(S'100002642981927'
S'Kabita Aktar'
tp93
a(S'100003046377344'
S'SuMit Joshi'
tp94
a(S'100002485614841'
S'Mohit Mor'
tp95
a(S'100002561899946'
S'Shania Tyagi'
tp96
a(S'100002559752322'
S'Himanshu Pundir'
tp97
a(S'100002195982714'
S'Priya Mirchandani'
tp98
a(S'100002612366156'
S'Neha Bateja'
tp99
a(S'100002147479938'
S'Abhinav Moudgil'
tp100
a(S'100001558087256'
S'Rohit Singh'
tp101
a(S'100002734603988'
S'Jasleen Kaur'
tp102
a(S'100002645020074'
S'Anoushka Shah'
tp103
a(S'100002587678189'
S'Nikhil Kumar'
tp104
asS'id'
p105
S'100002758471663'
p106
sS'name'
p107
S'Nitiz Joshi'
p108
s.