(dp1
S'friends'
p2
(lp3
(S'100003631778847'
S'Karan Chavan'
tp4
a(S'100000990930713'
S'Hemchander Upadhyay'
tp5
a(S'100001148927054'
S'Tushar Ladole'
tp6
a(S'100001852596465'
p7
S'Sanket Tingre'
tp8
a(S'100002129945727'
S"Richard D'mello"
tp9
a(S'100002049464354'
S'Saeed Pathan'
tp10
a(S'100000587018804'
S'Znat Shaikh'
tp11
a(S'100000564385886'
S'Chirag Somani'
tp12
a(S'100001096367526'
S'Sonali Rao'
tp13
a(S'100002096060188'
S'Karan Kolhe'
tp14
a(S'100004226228698'
S'Shaunak Karle'
tp15
a(S'100001330607734'
S'Ayushi Mehta'
tp16
a(S'100002473497145'
S'D.j. Santy'
tp17
a(S'613547110'
S'Girija Kannal'
tp18
a(S'1247593046'
S'Umaima Dalal'
tp19
a(S'100001697147931'
S'Shilpaj Bhalerao'
tp20
a(S'1845995665'
S'Shubham Salunkhe'
tp21
a(S'100002598371114'
S'Kunal Jagdale'
tp22
a(S'100003148440850'
S'Vivek Thorat'
tp23
a(S'1819031739'
S'Madhurika Joshi'
tp24
a(S'100001606492309'
S'Sangram Barawkar'
tp25
a(S'688386256'
S'Nitin Asmallu'
tp26
a(S'100000597464575'
S'Alok Ankush Tambaku'
tp27
a(S'100006430582787'
S'Pushkar More'
tp28
a(S'100000212444683'
S'Dinesh Girolla'
tp29
a(S'100001345688475'
S'Neha Aspat'
tp30
a(S'100004083099390'
S'Mohanish Kadlakh'
tp31
a(S'100000889464812'
S'Mangesh Shintre'
tp32
a(S'100000662424196'
S'Nikita Parbate'
tp33
a(S'100001525554784'
S'Shishir Gadhave'
tp34
a(S'100001487111483'
S'Vishal Bhat'
tp35
a(S'100001850630389'
S'Vaibhav Kadam'
tp36
a(S'1067533251'
S'Jaai Kannal-Jog'
tp37
a(S'1716306139'
S'Amitabh Kannal'
tp38
a(S'100002049707306'
S'Girish Dhadge'
tp39
a(S'100003393783758'
S'Nagesh Ayate'
tp40
a(S'100001096845473'
S'Mayur Chougule'
tp41
a(S'100002190471349'
S'Abhishek Battelu'
tp42
a(S'100001187623539'
S'Akshay Londhe'
tp43
a(S'100001340888483'
S'Gaurav Savant'
tp44
a(S'100001715545594'
S'Yashodhan Chopade'
tp45
a(S'100002439588288'
S'Sayali Aspat'
tp46
a(S'100000346945717'
S'Shreejit Nair'
tp47
a(S'100001216050353'
S'Sameer Gaikwad'
tp48
a(S'100001201845975'
S'Shekhar Sankpal'
tp49
a(S'100000789880730'
S'Sujeet Nair'
tp50
a(S'100001882531660'
S'Nihal Kapare'
tp51
a(S'100000563312968'
S'Shubham Autade'
tp52
a(S'100000701340164'
S'Vaibhav Karpur'
tp53
a(S'100003642099400'
S'Sachin Khot'
tp54
a(S'1191309587'
S'Rudhee Sehgal'
tp55
a(S'100000757593168'
S'Mangesh Kulkarni'
tp56
a(S'100002995318761'
S'Abhishek Chavan'
tp57
a(S'100002182890216'
p58
S'Dhanraj Tingre'
tp59
a(S'100003117422644'
S'Shubham Sawant'
tp60
a(S'100002349400710'
S'Manoj Ghorpade'
tp61
a(S'100001195198511'
S'Kushal Gupta'
tp62
a(S'100004579716965'
S'\\ufc5e\\ufc5e \\ufc5e\\ufc5e'
tp63
a(S'100004125878369'
S'Abhishek Kedari'
tp64
a(S'100002274916089'
S'Shubham Aspat'
tp65
a(S'681322697'
S'Pranav Kurlap'
tp66
a(S'100001251736058'
S'Trishula Manda'
tp67
a(S'100004234320461'
S'Ruchira Mupid'
tp68
a(S'100000989675444'
S'Siddharth Kumbhojkar'
tp69
a(S'100001038860602'
S'Prajay Meshram'
tp70
a(S'100002310616737'
S'Monashri Aspat Kanade'
tp71
a(S'100001462073982'
S'Abhay Tambaku'
tp72
a(S'100002368831192'
S'Suraj Patti'
tp73
a(S'100000403053720'
S'Trupti Bhosale Asmallu'
tp74
a(S'100001337123897'
S'Ashok Choudhary'
tp75
a(S'100001530234195'
S'Sameer Kulkarni'
tp76
a(S'100002026606961'
S'Bhushan Khairkhar'
tp77
a(S'100001635504842'
S'Shriraj Bhosale'
tp78
a(S'100000990514241'
S'Leo Paul'
tp79
a(S'1811327467'
S'Regeena Mathew'
tp80
a(S'100003532605332'
S'Akshay Rajput'
tp81
a(S'100002805091436'
S'Yo Yo Yogesh Jakkal'
tp82
a(S'100003372266874'
S'Akshay Dumbre'
tp83
a(S'100002612337600'
S'Rvrj Parande'
tp84
a(S'100003628449444'
S'Tejas Agarwal'
tp85
a(S'100001215755219'
S'Suyash Shah'
tp86
a(S'100001438491666'
S'Tanushri Aspat'
tp87
a(S'100000887520257'
S'Rajeshwari Dasika'
tp88
a(S'100001887198805'
p89
S'Amey Shewale Patil'
tp90
a(S'1638535271'
S'Rajish Nair'
tp91
a(S'100001147754052'
S'Aniket Muppid'
tp92
a(S'100001435816967'
S'Nirmay Sonawane'
tp93
a(S'710782531'
S'MaDhur Gaikwad'
tp94
a(S'100001426970187'
S'Rashdeep Sethi'
tp95
a(S'100006635975077'
S'Sheetal Shetty'
tp96
a(S'100008236748296'
S'Shivanand Bedre'
tp97
a(S'100002058032578'
S'Ajit Gaikwad'
tp98
a(S'757569580'
S'Manoj Bhore'
tp99
a(S'100001466094696'
S'Suraj Thorat'
tp100
a(S'100001258324987'
S'Advait Puram'
tp101
a(S'100000205592263'
S'Aishwarya Iyer'
tp102
a(S'100001047619450'
S'Sanket Kulkarni'
tp103
a(S'100001781803947'
S'Saurabh Pandule'
tp104
a(S'100001174260134'
S'Saeeli Motadoo'
tp105
a(S'100000642191837'
S'Kainath Sorathiya'
tp106
asS'id'
p107
S'100001450905960'
p108
sS'name'
p109
S'Sanket Aspat'
p110
s.