(dp1
S'friends'
p2
(lp3
(S'100001476672038'
S'Karan Khurana'
tp4
a(S'100003715366102'
S'Garima Tandon'
tp5
a(S'100001283689700'
S'Aishwarya Agarwal'
tp6
a(S'100000419348516'
S'Sahiba Gill'
tp7
a(S'1151613009'
S'Akanksha Agarwal'
tp8
a(S'1728115631'
S'Manu Verma'
tp9
a(S'100001307694490'
S'Shradha Verma'
tp10
a(S'100000927232772'
S'Niharika Goyal'
tp11
a(S'600375010'
S'Nishank Gulati'
tp12
a(S'569973581'
S'Shiv Sharma'
tp13
a(S'1024630291'
S'Sonal Mahajan'
tp14
a(S'1575602738'
S'Parveen Poonia'
tp15
a(S'100001162566139'
S'Paras Soni'
tp16
a(S'100004840782455'
S'Meghna Phor Chaudhary'
tp17
a(S'671938715'
S'Sakshi Mittal'
tp18
a(S'1601377742'
S'Gautam Nagpal'
tp19
a(S'100001209706460'
S'Komal Madan'
tp20
a(S'100001965695335'
S'Supriya Mrighwani'
tp21
a(S'1164353363'
S'Supinder Pal'
tp22
a(S'1376649978'
S'Paramveer Singh'
tp23
a(S'100001673622801'
S'Meenu Khurana'
tp24
a(S'100001709595299'
S'Jatin Pannu'
tp25
a(S'100001104502390'
S'Shelly Shiroha'
tp26
a(S'100000107671790'
S'Jiny Midha'
tp27
a(S'100001939051186'
S'Naman Mittal'
tp28
a(S'100000050926059'
S'Deven Khurana'
tp29
a(S'100002496156343'
S'Eshaan Khurana'
tp30
a(S'100000501606754'
S'Rohan Makkar'
tp31
a(S'1177775624'
S'Anuj Dhingra'
tp32
a(S'100003879671647'
S'Shyla Katiyar'
tp33
a(S'1110933432'
S'Siddhant Jain'
tp34
a(S'1611578910'
S'Shreya Bhatnagar'
tp35
a(S'100000283386645'
S'Diksha Trika'
tp36
a(S'1086591407'
S'Anubhav Jain'
tp37
a(S'612973688'
S'Sakshi Dhingra Batra'
tp38
a(S'100002081906172'
S'Tushar Chawla'
tp39
a(S'100000966767446'
S'Shreya Chachan'
tp40
a(S'1752911598'
S'Mayunk Gulati'
tp41
a(S'100000903800730'
S'Sahiba Chhabra'
tp42
a(S'100001117235811'
S'Kirti Ahlawat'
tp43
a(S'100000116645978'
S'Sameer Kapoor'
tp44
a(S'1718204097'
S'Ketki Hedao'
tp45
a(S'100004681569107'
S'Shefali Gaba'
tp46
a(S'100000903604877'
S'Meghna Chauhan'
tp47
a(S'100001988937930'
S'Chandrima Attri'
tp48
a(S'1136143092'
S'Shubham Arora'
tp49
a(S'1195031551'
S'Shubham Bajaj'
tp50
a(S'100000507155910'
S'Saumya Mittal'
tp51
a(S'100000960996056'
S'Akshaj Sharma'
tp52
a(S'100001219383876'
S'Juhi Gupta'
tp53
a(S'100003716389332'
S'Cheshta Chhabra'
tp54
a(S'100002215058389'
S'Roshi Jolly'
tp55
a(S'100000788855835'
S'Sagar Arora'
tp56
a(S'100001194725695'
S'Diwu Nagpal'
tp57
a(S'100000809390644'
S'Shweta Seth'
tp58
a(S'100002927043373'
S'Surbhi Nagpal'
tp59
a(S'100002115307241'
S'Ankita Sharma'
tp60
a(S'100003712691930'
S'Cutee Angel'
tp61
a(S'100001702989524'
S'Prashansha Gupta'
tp62
a(S'100001133503925'
S'Rahul Agrawal'
tp63
a(S'1616820919'
S'Ashutosh Gupta'
tp64
a(S'100000388865674'
S'Kritika Setia'
tp65
a(S'1101415614'
S'Tanya Khursija'
tp66
a(S'1233942587'
S'Niharika Agarwal'
tp67
a(S'100000993317992'
S'Anshul Patel'
tp68
a(S'1060706336'
S'Yuvraj Juneja'
tp69
a(S'100001342097375'
S'Vishal Beohar'
tp70
a(S'100002227415390'
S'Somya Goel'
tp71
a(S'1506609991'
S'Sanjay Dhonchak'
tp72
a(S'100001846336285'
S'Sunitika Vashisht'
tp73
a(S'685310728'
S'Vivek Ahuja'
tp74
a(S'1328528147'
S'Aanchal Gupta'
tp75
a(S'674570087'
S'Kushali Gulati'
tp76
a(S'100001670053308'
S'Mehak Bajaj'
tp77
a(S'100003386663631'
S'Misha Mehra'
tp78
a(S'100004123933831'
S'Asmita Verma'
tp79
a(S'100002376393701'
S'Anmol Suneja'
tp80
a(S'100003376686356'
S'Raghav Khurana'
tp81
a(S'617482129'
S'Ramit Gulati'
tp82
a(S'100000193585471'
S'Ashrut Goel'
tp83
a(S'739068532'
S'Aayush Agarwal'
tp84
a(S'100000246875156'
S'Mriga Tuli'
tp85
a(S'100001784177114'
S'Tanya Katiyar'
tp86
a(S'100001889407692'
S'Shubham Aghi'
tp87
a(S'1345460357'
S'Urvashi Modi'
tp88
a(S'100000937144457'
S'Sanskriti Ahuja'
tp89
a(S'100000538371672'
S'Aashna Sajdeh'
tp90
a(S'1100076572'
S'AkshiKa BouRa'
tp91
a(S'1249132705'
S'Dixa Bajaj'
tp92
a(S'100001711646420'
S'Vinay Singla'
tp93
a(S'752393938'
S'Nikita Sehgal'
tp94
a(S'100002147050607'
S'Rhea Thakur'
tp95
a(S'100000239624395'
S'Rigzin Angmo'
tp96
a(S'100001669779594'
S'Aryan Khurana'
tp97
a(S'100000146242650'
S'Harshita Agarwal'
tp98
a(S'100003061464361'
S'Minal Sharma'
tp99
a(S'1023065448'
S'Meenal Chhabra'
tp100
a(S'100003038147801'
S'Payal Juneja'
tp101
a(S'1049209734'
S'Priyanka Sharma'
tp102
a(S'100000893027994'
S'Mohit Handa'
tp103
asS'id'
p104
S'100002400624940'
p105
sS'name'
p106
S'Rashim Khurana'
p107
s.