(dp1
S'friends'
p2
(lp3
(S'100001831554614'
p4
S'Farida Ahmadi'
tp5
a(S'100004304286806'
S'Hamed Roshanzada'
tp6
a(S'100007706382567'
S'Abdullah Rahman'
tp7
a(S'100007004316712'
S'Sher Ahmad Muhammadi'
tp8
a(S'100003984979983'
S'\\u062e\\u0631\\u0627\\u0633\\u0627\\u0646 \\u0628\\u0632\\u0631\\u06af'
tp9
a(S'100001069619204'
S'Amir Habibullah Khan'
tp10
a(S'100002081122969'
S'Ahmad Zahirdin Azhar'
tp11
a(S'100004635433953'
S'Nawid Amiry'
tp12
a(S'100004984447064'
S'Mujeebullah Jahanmal'
tp13
a(S'100000257981400'
S'Osman Noori'
tp14
a(S'100007920762958'
S'Marshal Mohammad Qasem Fahim'
tp15
a(S'100004775617934'
S'Zabijohn Zabi'
tp16
a(S'100002230867514'
S'Mustafa Arya'
tp17
a(S'100004972092559'
p18
S'Omar Mukhtar'
tp19
a(S'100000463166851'
S'Mustafa Ahmadzai'
tp20
a(S'100004833571906'
S'\\u067e\\u06cc\\u06a9\\u0627\\u0631 \\u06af\\u0631'
tp21
a(S'100003201830045'
S'\\u0630\\u06a9\\u06cc \\u0627\\u0641\\u0634\\u0627\\u0631'
tp22
a(S'100003294526319'
S'Mohammad Zahir'
tp23
a(S'100004921112684'
S'Jawad Nassiri'
tp24
a(S'100003026854492'
S'\\u0631\\u0647\\u0628\\u0631\\u062c\\u0647\\u0627\\u062f\\u060c\\u0645\\u0642\\u0627\\u0648\\u0645\\u062a \\u0648\\u0635\\u0644\\u062d \\u0645\\u0631\\u062f\\u0645 \\u0627\\u0641\\u063a\\u0627\\u0646\\u0633\\u062a\\u0627\\u0646'
tp25
a(S'100002340192341'
S'\\u0622\\u0631\\u06cc\\u0646 \\u0628\\u0627\\u062e\\u062a\\u0631\\u06cc'
tp26
a(S'100002073996793'
S'Abdull Malik'
tp27
a(S'100003601724802'
S'Ahmad Zubair Khurasani'
tp28
a(S'1606848535'
S'Rahim Mirzad'
tp29
a(S'100001764332331'
p30
S'Masood Khalili'
tp31
a(S'100007803521257'
S'Obaid Ullah'
tp32
a(S'100004118619363'
S'Hazratwali Tanai'
tp33
a(S'100003645769434'
S'Baktash Noorzad'
tp34
a(S'100004479462790'
S'\\u067e\\u06cc\\u0627\\u0645 \\u067e\\u06cc\\u0627\\u0645'
tp35
a(S'100000757746815'
S'Shafiq Walizada'
tp36
a(S'100005039376832'
S'Esmatullah Esmati'
tp37
a(S'100004295652636'
S'Esmat Ghulamy'
tp38
a(S'100002327592970'
S'Mubariz Mubariz'
tp39
a(S'100002701360679'
S'Hasib Jamalzada'
tp40
a(S'100005711228961'
S'Ahmad Massoud'
tp41
a(S'100005087292133'
S'Freedom Azadi'
tp42
a(S'100000893432170'
S'Tariq Noor'
tp43
a(S'100000981122650'
S'Ahmad Sieya'
tp44
a(S'100000578792438'
S'Abdullah Saleemi'
tp45
a(S'100000225697906'
S'Massoud Salih'
tp46
a(S'100004448643300'
S'\\u0646\\u0635\\u06cc\\u0631\\u0627\\u062d\\u0645\\u062f \\u0627\\u06cc\\u062b\\u0627\\u0631'
tp47
a(S'100007006391987'
S'\\u0636\\u064a\\u0627 \\u0627\\u0644\\u0644\\u0647 \\u0635\\u062f\\u0627\\u0642\\u062a'
tp48
a(S'100007964233977'
S'\\u0645\\u062d\\u0645\\u062f.\\u0627\\u0645\\u064a\\u0646 \\u0645\\u062d\\u0645\\u062f\\u0627\\u0645\\u064a\\u0646'
tp49
a(S'100000906202063'
S'Tamim Afghan'
tp50
a(S'100004527280641'
p51
S'\\u0622\\u06cc\\u0646\\u062f\\u0647 \\u062f\\u0631 \\u0642\\u0644\\u0645\\u0631\\u0648 \\u0627\\u0633\\u0644\\u0627\\u0645'
tp52
a(S'100000165789057'
p53
S'Jalal Khan'
tp54
a(S'100004561811889'
S'Wali Jan'
tp55
a(S'100002118710119'
S'Sameer Rasa'
tp56
a(S'100000579259620'
S'Aziz Rhman'
tp57
a(S'100002085311776'
p58
S'Mena Mangal'
tp59
a(S'100001493633837'
S'Lotfullah Alefi'
tp60
a(S'100004695870895'
S'Faizullah Haji'
tp61
a(S'100001511206653'
S'Hashmat Salhi'
tp62
a(S'100002961220261'
S'\\u0645\\u0631\\u0632\\u0627 \\u0645\\u062d\\u0645\\u062f'
tp63
a(S'100008270194862'
S'\\u062d\\u0643\\u0645\\u062a \\u0627\\u0644\\u0644\\u0647 \\u0644\\u0637\\u064a\\u0641\\u064a'
tp64
a(S'100007282959148'
S'Samim Muhammadi'
tp65
a(S'100001048282059'
S'Feda Attaye'
tp66
a(S'100004157562459'
S'\\u0627\\u062f\\u0631\\u06cc\\u0633 \\u0639\\u0628\\u062f\\u0627\\u0644\\u0647\\u06cc'
tp67
a(S'100001897015935'
S'Fazel Rashidi'
tp68
a(S'100001731507971'
S'Mawlawy Haiatuddin Sahibi'
tp69
a(S'100003752820856'
S'\\u1e66\\u00f5h\\u0211\\u00e2\\u00df \\u00c3\\u0240i\\u1e3fi'
tp70
a(S'100003132620624'
S'Ghulam Rabani Jailani'
tp71
a(S'100002698282300'
S'\\u0633\\u062a\\u0627\\u0645\\u064a\\u0693\\u0627\\u0646\\u064a \\u0633\\u0644\\u0627\\u0645'
tp72
a(S'100002299295935'
S'Sajjad Ameeri'
tp73
a(S'100008241096941'
S'\\u0639\\u0628\\u062f\\u0627 \\u0627\\u0644\\u0639\\u0632\\u06cc\\u0632'
tp74
a(S'100005325840833'
S'Bashir Ansari'
tp75
a(S'100003109400158'
S'Mohammad Qurban Haqjo'
tp76
a(S'100002961686359'
S'Ilyas Rahimi'
tp77
a(S'100003825482690'
S'Nesar Ahmad Obaidy'
tp78
a(S'100003182768596'
S'Khalid Ayubi'
tp79
a(S'100002818384286'
S'Ahmad Wali Sangar'
tp80
a(S'100005006023766'
S'\\u0627\\u0645\\u0627\\u0645 \\u0627\\u0639\\u0638\\u0645 \\u0627\\u0628\\u0648\\u062d\\u0646\\u06cc\\u0641\\u0647 \\u0631\\u062d'
tp81
a(S'100003067960573'
S'Sameer Afg'
tp82
a(S'1462279237'
p83
S'Basir Bina'
tp84
a(S'100004238251661'
S'Genral Sabor Sabor'
tp85
a(S'100003594515616'
S'Jawed Shamal'
tp86
a(S'100002174575578'
S'Mawlana Farid'
tp87
a(S'100002073979722'
S'Baktash Arman'
tp88
a(S'597608385'
S'Mohammad Yahya Massoudy'
tp89
a(S'100002213071883'
S'Jamil Madani'
tp90
asS'id'
p91
S'100002025539806'
p92
sS'name'
p93
S'Shir Mohammad Siddiqy'
p94
s.