(dp1
S'friends'
p2
(lp3
(S'100003366164937'
S'Nilesh Nigade'
tp4
a(S'100001852596465'
p5
S'Sanket Tingre'
tp6
a(S'100004243234743'
S'Dada Sonavane'
tp7
a(S'100002309448192'
S'Nilesh Pardeshi'
tp8
a(S'100002853305086'
S'Harshad Gujar'
tp9
a(S'100007408327286'
S'Nilesh Jadhav'
tp10
a(S'100002411613833'
S'Ashish Pardeshi'
tp11
a(S'100002988470745'
S'Vishal Laigude'
tp12
a(S'100003682824885'
S'Amol Belhekar'
tp13
a(S'100006510440734'
p14
S'Balasaheb Prabhat'
tp15
a(S'100000567912510'
S'Sagar Sonawane'
tp16
a(S'100002676327659'
S'Appa Gaikwad'
tp17
a(S'100001570116050'
S'Akshay Pardeshi'
tp18
a(S'100007191635152'
S'\\u0928\\u0935\\u0928\\u093e\\u0925 \\u0915\\u094b\\u0921\\u0940\\u0924\\u0915\\u0930'
tp19
a(S'1444353447'
S'Nikhil Bhorde'
tp20
a(S'100002498715826'
S'Yogesh Gavhane'
tp21
a(S'100001733270125'
S'Pravin Kalbhor'
tp22
a(S'100003051134762'
S'Vinod Tambe'
tp23
a(S'100000733250630'
S'Abhay Dhaigude'
tp24
a(S'100004071260734'
S'Balasaheb Kobal'
tp25
a(S'100000406351609'
S'Prathamesh Jadhav'
tp26
a(S'100007093956503'
S'Adil Shaikh'
tp27
a(S'100003172928924'
S'Sourabh Khutwad'
tp28
a(S'1744433329'
S'Amit Deshmukh'
tp29
a(S'100000864382200'
S'Vijay Kakade'
tp30
a(S'100002009116705'
S'Vishal Ohal'
tp31
a(S'100000349092542'
S'Prince'
tp32
a(S'100002156520615'
S'Atif Khan'
tp33
a(S'100003226898099'
S'Ritesh Pardeshi'
tp34
a(S'100000403459889'
S'Kamaljit Singh'
tp35
a(S'100003001792893'
S'Amita Sakore'
tp36
a(S'100003605508286'
S'Vinod Kurhade'
tp37
a(S'100003252687834'
S'Bapu Sawant'
tp38
a(S'100003780533447'
S'Jayesh Orse'
tp39
a(S'100003398925066'
S'D J Prash Pradeep'
tp40
a(S'100002739940696'
S'Yogesh Shelar'
tp41
a(S'100007416032077'
S'Vilas Kale'
tp42
a(S'100002474524033'
S'Raj Salunke'
tp43
a(S'100007122157459'
S'SuShant Chavan'
tp44
a(S'100002747806359'
S'Bhau Gogawale'
tp45
a(S'100002675256736'
S'Shankar Pawar'
tp46
a(S'100002938228627'
S'Amol Kute'
tp47
a(S'100007552055789'
S'Nitin Joshi'
tp48
a(S'100003181393946'
S'Ashish Sablepatil'
tp49
a(S'100003012379047'
S'Mangesh Bhivare'
tp50
a(S'100000773907286'
S'Ganesh Gangawane'
tp51
a(S'100001907184370'
S'Kushal Shinde'
tp52
a(S'100007482373034'
S'Shreenath Ganesh Mandal'
tp53
a(S'100000739607353'
S'Prashant Theurkar'
tp54
a(S'100005306137808'
S'Sachin Waghmare'
tp55
a(S'100000157180348'
S'Amit Chorge'
tp56
a(S'100002530729810'
S'Shrikant Gawali'
tp57
a(S'100004012892042'
S'Sandeep Dada Gaikwad'
tp58
a(S'100003219061521'
S'Tejal Sonawane'
tp59
a(S'100001095763831'
S'Swap-nil Pawar'
tp60
a(S'100004853562277'
S'Sachin Gaikwad'
tp61
a(S'100002364831903'
S'Shubham Mhatre'
tp62
a(S'100000864783121'
S'Vijay Ghavane'
tp63
a(S'100001744136607'
S'Tushar Balwadkar'
tp64
a(S'100001031843460'
S'Ajinkya Gajare'
tp65
a(S'100001087261796'
S'Ranjeet Khatal'
tp66
a(S'100003261353711'
S'Vinod Shinde'
tp67
a(S'100003303286534'
S'\\u092e\\u093e. \\u0938\\u094d\\u0935\\u092a\\u094d\\u0928\\u093f\\u0932 \\u092e\\u094b\\u0930\\u0947'
tp68
a(S'100002372566065'
S'Rahul Khaire'
tp69
a(S'100003787388765'
S'Dinesh Choudhari'
tp70
a(S'100002135719550'
S'Amir Khan'
tp71
a(S'100003253776130'
S'Abhaysinha D Bhosale'
tp72
a(S'100003219768430'
S'Swapnil Suryawanshi'
tp73
a(S'100002571213778'
S'Sandeep Ghorpade'
tp74
a(S'100002742051266'
S'Virendra Gat'
tp75
a(S'100004909382316'
S'Ajit Kalbhor'
tp76
a(S'100001815411465'
S'Suyog A. Bhave'
tp77
a(S'100002542181352'
S'Sandesh Wanjale'
tp78
a(S'100001371655716'
S'Siddharth Darwatkar'
tp79
a(S'100005924563757'
S'DineshDada Gaikwad'
tp80
a(S'100006754352079'
S'Amol G Bhegade'
tp81
a(S'100003627690396'
S'Sagar Tanpure'
tp82
a(S'100004618118686'
S'Nil Borade'
tp83
a(S'100006178471369'
S'\\u0917\\u0923\\u0947\\u0936 \\u0936\\u0947\\u0932\\u093e\\u0930'
tp84
a(S'100007424078189'
S'Anil Thorat'
tp85
a(S'100002149838376'
S'Amit Paygude'
tp86
a(S'100003061175784'
S'Shashi Balwadkar'
tp87
a(S'100003054712576'
S'Anand Rithe'
tp88
a(S'100002294035217'
S'Chiku Bhau'
tp89
a(S'100003363098208'
S'Abhijit Shinde'
tp90
a(S'100002391377306'
S'Nilesh Gandekar'
tp91
a(S'100004826974414'
S'Rohan Bhoir'
tp92
a(S'100002423685146'
S'Ganesh Pawar'
tp93
a(S'100003064939525'
S'Tushar Salunke'
tp94
a(S'100005787912911'
S'\\u092c\\u093e\\u0933\\u093e \\u092e\\u094d\\u0939\\u0938\\u094d\\u0915\\u0947'
tp95
a(S'100003216634874'
S'Rahul Shirole'
tp96
a(S'100000476999175'
S'Omkar Patkar'
tp97
a(S'100006926016937'
S'Prashant Kamble'
tp98
a(S'100003912405035'
S'Nilesh Pardeshi'
tp99
a(S'100004160012903'
S'Ajinkya Milind Bibave'
tp100
a(S'100002276145215'
S'Lalit Mhasekar'
tp101
a(S'100005067223170'
S'Yogesh Khedekar'
tp102
a(S'100002580236124'
S'Anil Taras'
tp103
a(S'100004113061914'
S'Ajinkya Shedute'
tp104
a(S'100001384014823'
S'Umesh Wagh'
tp105
asS'id'
p106
S'100007362217396'
p107
sS'name'
p108
S'ShankarBhau Bhorde'
p109
s.