(dp1
S'name'
p2
S'Sriram Singh'
p3
sS'current_class'
p4
S'india'
p5
sS'home_class'
p6
Vpuraniks hometown, ghodbandar road, sai nagar, anand nagar, thane west, thane, maharashtra 400615, india
p7
sS'home_text'
p8
VMumbai, Maharashtra, India\u000aHometown
p9
sS'current_link'
p10
Vhttps://www.facebook.com/l.php?u=https%3A%2F%2Fwww.bing.com%2Fmaps%2Fdefault.aspx%3Fv%3D2%26pc%3DFACEBK%26mid%3D8100%26where1%3D18.975000641097%252C%2B72.825622558594%26name%3DMumbai%252C%2BMaharashtra%252C%2BIndia%26mkt%3Den-IN&h=BAQEdeXnP&s=1
p11
sS'home_link'
p12
Vhttps://www.facebook.com/l.php?u=https%3A%2F%2Fwww.bing.com%2Fmaps%2Fdefault.aspx%3Fv%3D2%26pc%3DFACEBK%26mid%3D8100%26where1%3D18.975000641097%252C%2B72.825622558594%26name%3DMumbai%252C%2BMaharashtra%252C%2BIndia%26mkt%3Den-IN&h=uAQGoVgsk&s=1
p13
sS'current_text'
p14
VMumbai, Maharashtra, India\u000aCurrent City
p15
sS'friends'
p16
(lp17
(S'510670224'
S'Sitanshu Singh'
tp18
a(S'1325319960'
S'Brahma Prakash Gaur'
tp19
a(S'1112834612'
S'Rabi Narayan Dash'
tp20
a(S'100002947648368'
S'Apurbajyoti Majumdar'
tp21
a(S'100003818923169'
S'Dibakar Chatterjee'
tp22
a(S'100004159090935'
S'Upendra Singh'
tp23
a(S'1791320987'
S'Daya Shanker'
tp24
a(S'625135916'
S'Girish N Pande'
tp25
a(S'729859750'
S'Krishna Mohan Prasad'
tp26
a(S'100000616382866'
S'Vaibhav Singh'
tp27
a(S'100001238804568'
S'Medisetti Tirumala Kumar'
tp28
a(S'1756314801'
S'Haresh Kumar'
tp29
a(S'1107802857'
S'Amol Kamat'
tp30
a(S'1090457076'
S'Susie Varghese'
tp31
a(S'1496400927'
S'Shyam Benupani'
tp32
a(S'1545349799'
S'Munindra Mohan Das'
tp33
a(S'713170827'
S'Shahid Khan'
tp34
a(S'100004778111671'
S'Manoj Misra'
tp35
a(S'1340746858'
S'Urvashi Saxena'
tp36
a(S'100002116154677'
S'Sujit Kumar'
tp37
a(S'100004707877635'
S'\\u0921\\u0949. \\u0935\\u0947\\u0926 \\u092a\\u094d\\u0930\\u0924\\u093e\\u092a \\u0935\\u0948\\u0926\\u093f\\u0915'
tp38
a(S'738539735'
S'Deepak Tralshawala'
tp39
a(S'100000107608498'
S'Shambhunath Shukla'
tp40
a(S'1107394859'
S'Romit Singh'
tp41
a(S'100000858094224'
S'Vinay Singh'
tp42
a(S'715232363'
S'Khan Akramul Jabbar'
tp43
a(S'100000509470026'
S'Rajib Hota'
tp44
a(S'100000661325471'
S'Bishwanath Jha'
tp45
a(S'1567385476'
S'Yagya Dutt Sharma'
tp46
a(S'100000370264497'
S'Ashok Gautam'
tp47
a(S'734608651'
S'Anadee Nath Misshra'
tp48
a(S'100000162130222'
S'Rajiv Singh'
tp49
a(S'1827947545'
S'Rakesh Kumar Paliwal'
tp50
a(S'594466992'
S'Shobha Basu'
tp51
a(S'100000934416190'
S'Punit Singh'
tp52
a(S'100001130414357'
S'Swatantra Kumar'
tp53
a(S'1263593128'
S'Kalyan Chand'
tp54
a(S'100000477841995'
S'Vivek Ojha'
tp55
a(S'1201064635'
S'Vinod K Tripathi'
tp56
a(S'100001064182586'
S'Anand Saxena'
tp57
a(S'100001629824720'
S'KP Singh'
tp58
a(S'100002221931926'
S'Sunita Singh'
tp59
a(S'100005403307015'
S'Upendra Singh'
tp60
a(S'100000889316695'
S'Srinivas Donigiri'
tp61
a(S'100003662518981'
S'Kamlakant Tripathi'
tp62
a(S'1058551080'
S'Piyush Kulshreshtha'
tp63
a(S'100002633900373'
S'Laxman Das'
tp64
a(S'100004985254523'
S'Pushpendra Kumar'
tp65
a(S'1029353247'
S'Rup Krishen Baqaya'
tp66
a(S'789468621'
S'Arun S Bhatnagar'
tp67
a(S'1587991248'
S'Virendra Ojha'
tp68
a(S'673830812'
S'Chetan W. Bhende'
tp69
a(S'1177660803'
S'Shabana Parveen'
tp70
a(S'100005860832403'
S'Raghubir S Upadhyay'
tp71
a(S'1064547969'
S'Amitabh Kumar'
tp72
a(S'100001006504636'
S'Anoop Garg'
tp73
a(S'100000396114388'
S'Ahmad Fareed'
tp74
a(S'100000611075409'
S'Feroz Khan'
tp75
a(S'1515729664'
S'Laxminarayan Attal'
tp76
a(S'1655298042'
S'Rajesh Mahajan'
tp77
a(S'1029713428'
S'Sandip Garg'
tp78
a(S'600415155'
S'Aditi Gupta'
tp79
a(S'1207910600'
S'Shiv Sewak'
tp80
a(S'1428332344'
S'Laxmi Narayan Pant'
tp81
a(S'100000621370268'
S'Madhusudan P Thanvi'
tp82
a(S'100000861516332'
S'Ajay Singh'
tp83
a(S'100001083611208'
S'Vinita Singh'
tp84
a(S'633209247'
S'Vineet Agrawal'
tp85
a(S'100000123298035'
S'Pradip Kumar Das'
tp86
a(S'1453958300'
S'Krishna Sahai'
tp87
a(S'1726491855'
S'Ashwani Kumar'
tp88
a(S'100002940174622'
S'Hemmanoher Gupta'
tp89
a(S'100007251662419'
S'Srinivas Danda'
tp90
a(S'1577889574'
S'Ajay Pandey'
tp91
a(S'100007916433374'
S'Arun Kumar'
tp92
a(S'744510367'
S'Anup Jaiswal'
tp93
a(S'100000932994805'
S'Namita Singh'
tp94
a(S'100000126657856'
S'Md Mohsin Alam'
tp95
a(S'100003781085775'
S'Vijayakumar Menon'
tp96
a(S'100002588226238'
S'Ishtiyaque Ahmed'
tp97
asS'id'
p98
S'100003795622109'
p99
s.