(dp1
S'friends'
p2
(lp3
(S'100004775766000'
S'Lotan Ji Caterers'
tp4
a(S'507702895'
S'Infected Mushroom'
tp5
a(S'1262455363'
S'Sandeep Miglani'
tp6
a(S'100003166720040'
S'Sid Rons'
tp7
a(S'100004590033653'
S'Sourav Sinandhi'
tp8
a(S'100001440805840'
S'Mohd Iqbal'
tp9
a(S'100002973430097'
S'Mayank Ujjainwal'
tp10
a(S'100005578784571'
S'Neha Verma'
tp11
a(S'1495690348'
S'Ankit Kapoor'
tp12
a(S'1442062281'
S'Parvesh Choudhary'
tp13
a(S'661410369'
S'Aradhya Harshwardhan Singh'
tp14
a(S'100003739016228'
S'Arun Kumar'
tp15
a(S'514642615'
S'Vaibhav Bhardwaj'
tp16
a(S'100001130648727'
S'Simmi Mehta'
tp17
a(S'100001158721257'
S'Vinay Kumar'
tp18
a(S'100000776292304'
S'Kishan Singh'
tp19
a(S'100003139887410'
S'Mohd Iqbal'
tp20
a(S'100001942953787'
S'Tanya Singh'
tp21
a(S'100001600860358'
S'Anchor Vishesh'
tp22
a(S'100001048998864'
S'Shublove Gupta'
tp23
a(S'1613765166'
S'Arup Banerjee'
tp24
a(S'602925271'
S'Karen Gunning Wbff Figure'
tp25
a(S'695867436'
S'Nirrbhaye Singh'
tp26
a(S'100005925843258'
S'Tanisha Singh'
tp27
a(S'100000839634754'
S'Anwar Alam'
tp28
a(S'677133666'
S'Vinay Dwivedi'
tp29
a(S'629278375'
S'Subhash Shanker'
tp30
a(S'1423031597'
S'Klnv Prasad'
tp31
a(S'100000254939156'
S'Rajesh Yadav'
tp32
a(S'100000575217900'
S'Sahil Chopra'
tp33
a(S'100002852077204'
S'Suraj Uniyal'
tp34
a(S'100002300235718'
S'Saurab Sood'
tp35
a(S'100002228913876'
p36
S'Annu Gautam'
tp37
a(S'507072401'
S'Sanya Dhir'
tp38
a(S'1671591203'
S'Sheetal Bhatnagar'
tp39
a(S'100001844715428'
S'Vaishali Bhat Sumbly'
tp40
a(S'100001384116700'
S'Gaurav Kakkar'
tp41
a(S'1666876851'
S'Dhruv Aditya Mehta'
tp42
a(S'1115566989'
S"'Rishabh Jain'"
tp43
a(S'100006555611654'
S'Prem Chugh'
tp44
a(S'503440274'
S'Atit Bhatia'
tp45
a(S'100004478770592'
S'Abdul Salam'
tp46
a(S'504764951'
S'Amit Bhagat'
tp47
a(S'572350995'
S'Akhil Chugh'
tp48
a(S'100001323441912'
S'Jitz Chhabra'
tp49
a(S'100001777762638'
S'Rakesh Juneja'
tp50
a(S'100002538324095'
S'Himanshu Verma'
tp51
a(S'100002614628233'
S'Aksh Singh'
tp52
a(S'100002896470109'
S'Anantika Arora'
tp53
a(S'619725690'
S'Jungbir Singh'
tp54
a(S'100003057262636'
S'Nitesh Ujjainwal'
tp55
a(S'502829741'
S'Sanuj Birla'
tp56
a(S'738139372'
S'Deepak Rawat'
tp57
a(S'1074171796'
S'Rajiv Wadhwa'
tp58
a(S'607672795'
S'Sharad Khattar'
tp59
a(S'100001726427509'
S'Bhawna Ahuja'
tp60
a(S'100004996325531'
S'Ashish Multani'
tp61
a(S'727276786'
S'Sonali Chowdhery'
tp62
a(S'100005627856495'
S'Neeraj Kumar'
tp63
a(S'627635152'
S'Raahul Chaudhary'
tp64
a(S'624474556'
S'Gurmehar Singh'
tp65
a(S'100003396455534'
S'Punya Sinandhi'
tp66
a(S'1679810454'
S'Dimple Goel'
tp67
a(S'1650782338'
S'Dhiraj Singh'
tp68
a(S'100002357049914'
S'Amit Katyal'
tp69
a(S'1684750033'
S'Ashish Parcha'
tp70
a(S'100004908069861'
S'Manish Kumar'
tp71
a(S'100004545126934'
S'Rajesh Kumar'
tp72
a(S'100004670894448'
S'Tanish Singh Sood'
tp73
a(S'100004594655143'
S'Apurva Mehra'
tp74
a(S'100002981470012'
S'Ajeet Singh'
tp75
a(S'696783305'
S'Mickey Mehta'
tp76
a(S'100000373720098'
S'Mohit Tyagi'
tp77
a(S'544145530'
S'Varun Nagrath'
tp78
a(S'523408309'
S'Vikas Malhotra'
tp79
a(S'506090630'
S'Deepti S Suri'
tp80
a(S'100000411245042'
S'Saurabh Gupta'
tp81
a(S'100003359954101'
S'Dalip Sagwan'
tp82
a(S'100002217432416'
S'Riya Sharma'
tp83
a(S'100003382093168'
S'Love Khairwal'
tp84
a(S'863725622'
S'Jeevesh Sabharwal'
tp85
a(S'1294043155'
S'Shivalika Midha'
tp86
a(S'667235253'
S'Karan Nagrath'
tp87
a(S'613928454'
S'Dhruv Kumar'
tp88
a(S'100002862924269'
S'Prabhat Kumar'
tp89
a(S'100005137778382'
S'Mayank Sood'
tp90
a(S'639391382'
S'Bimaldip Siingh'
tp91
a(S'100003540782163'
S'Rohan Kumar'
tp92
a(S'100002368166308'
S'Parveen Pawar'
tp93
a(S'100000179756509'
S'Bal Nanda'
tp94
a(S'621795404'
S'Anuj Chhabra AJ'
tp95
a(S'100000257770381'
S'Dhruv Kandhari'
tp96
a(S'708362360'
S'Vinay Mohan'
tp97
a(S'100001803237613'
S'Yashusingh Lg'
tp98
a(S'100004995581909'
S'Ankur Sagwan'
tp99
a(S'1347378213'
S'Deepak Kapoor Rdk'
tp100
a(S'734648453'
S'Amit Vig'
tp101
a(S'1411786289'
S'Rajan Jain'
tp102
a(S'100005001403894'
S'Nitin Nigam'
tp103
a(S'789650614'
S'Prateek Madaan'
tp104
a(S'100006050796110'
S'Banshul Singh'
tp105
a(S'1392351447'
S'Rakesh Sharma'
tp106
a(S'100003395293866'
S'Umi Kumar'
tp107
a(S'514398146'
S'Dhruv Kathuria'
tp108
a(S'100001501477401'
S'Bhupinder Singh Chadha'
tp109
a(S'100001139350520'
S'Danish Alam'
tp110
a(S'100006590502942'
S'Nitin Nigam'
tp111
a(S'100004047403028'
S'Rohit Kumar'
tp112
a(S'1615124322'
S'Sachin Kumar'
tp113
a(S'100001505161707'
S'Arun Saxena'
tp114
a(S'1614246147'
S'Kabir Lamba'
tp115
a(S'100004859134490'
S'Shinu Sharma'
tp116
a(S'1534805440'
S'Brijesh Nanda'
tp117
a(S'651944462'
S'Mani Singh'
tp118
a(S'100003258485392'
S'Manish Jain'
tp119
a(S'100003323128823'
S'Saurabh Kumar'
tp120
a(S'746500452'
S'Shubham Torani'
tp121
a(S'100004309622934'
S'Paras Ujjainwal'
tp122
a(S'100000399467329'
S'Dikshit Bhatia'
tp123
a(S'100000618180356'
p124
S'Rohit Gautam'
tp125
a(S'1028226900'
S'Shreya Rathore'
tp126
a(S'100007035194391'
S'Yash Singhania'
tp127
a(S'503435424'
S'Ankish Madhan'
tp128
a(S'100000818130109'
S'Rohit Bajaj'
tp129
a(S'100002099010274'
S'Shiv Kumar'
tp130
a(S'100001878648099'
S'Mukesh Kumar'
tp131
a(S'564070290'
S'Deepali Karki'
tp132
a(S'100003984165281'
S'Rahul Chadha'
tp133
a(S'517946144'
S'Ayesha Dutt'
tp134
a(S'703271332'
S'Hargur Jaggi'
tp135
a(S'100003133629936'
S'Arun Multani'
tp136
a(S'100006258973001'
S'Vinay Lohia'
tp137
asS'id'
p138
S'100002437468833'
p139
sS'name'
p140
S'Dhawan Sagwan'
p141
s.