(dp1
S'friends'
p2
(lp3
(S'100000990480261'
S'Laileey Dawood'
tp4
a(S'1266131422'
S'\\u0648\\u062d\\u06cc\\u062f\\u0627\\u0644\\u0644\\u0647 \\u0648\\u0631\\u062f\\u06a9'
tp5
a(S'100001640251629'
S'Jebraeil Wardak Janan'
tp6
a(S'100002252109050'
S'Yashal Asim'
tp7
a(S'100001693756598'
S'Haji Imran Sahibzada'
tp8
a(S'100001288526336'
S'Hikmat Wardak'
tp9
a(S'100001884413683'
S'Mahmood Hamidi'
tp10
a(S'721107194'
S'Abdulaziz Niazi'
tp11
a(S'100000911568660'
S'Shabana Mehryar'
tp12
a(S'100000771576866'
S'Shabnam Afghan'
tp13
a(S'100001019753616'
S'Musawir Ibrar Shinwari'
tp14
a(S'100002278629346'
S'Ailyas Khan Hamdard'
tp15
a(S'100001895457358'
S'Shabana Afghan Afghanstani'
tp16
a(S'100000776653422'
S'\\u067e\\u069a\\u062a\\u0648 \\u0698\\u0628\\u0647'
tp17
a(S'100001305507843'
S'Hamna Bano'
tp18
a(S'100001692377495'
S'Sonia Yaseen'
tp19
a(S'100001446976489'
S'Zohra Wafa Wafa'
tp20
a(S'100001149151324'
S'Prince Sana'
tp21
a(S'100002155277069'
S'Princess Maryam Hamdard'
tp22
a(S'100001298030067'
S'Kabul H H Afghan'
tp23
a(S'100001031196491'
S'Laila Khan'
tp24
a(S'100001892944979'
S'Surgar Afg'
tp25
a(S'100001792496345'
S'Ailyas Khan Hamdard'
tp26
a(S'100001103113222'
S'Paulene Enriquiz'
tp27
a(S'100002085311776'
S'Mena Mangal'
tp28
a(S'100001320922175'
S'Zarlasht Wardak'
tp29
a(S'100002098208202'
S'Uzma Ali'
tp30
a(S'100001778408384'
S'\\u0645\\u0644\\u0627\\u0644\\u064a \\u0645\\u064a\\u0648\\u0646\\u062f'
tp31
a(S'100001714351515'
S'Mmansoor Wardak'
tp32
a(S'100000740572121'
S'Mir Ahmad Shah Sadat'
tp33
a(S'100002139462949'
S'\\u0685\\u0627\\u0631\\u06ab\\u0631 \\u0627\\u0641\\u063a\\u0627\\u0646'
tp34
a(S'100002183507376'
S'\\u0632\\u0631\\u063a\\u0648\\u0646\\u0647 \\u062e\\u0627\\u0646\\u0647'
tp35
a(S'100001576931276'
S'Nasir Saleem'
tp36
a(S'100002113441730'
S'Spogmai Mangal'
tp37
asS'id'
p38
S'100001730957131'
p39
sS'name'
p40
S'Hameedullah Mohammadi'
p41
s.