(dp1
S'name'
p2
S'Azeem Chaudhry'
p3
sS'current_class'
p4
S'united arab emirates'
p5
sS'current_link'
p6
Vhttps://www.facebook.com/l.php?u=https%3A%2F%2Fwww.bing.com%2Fmaps%2Fdefault.aspx%3Fv%3D2%26pc%3DFACEBK%26mid%3D8100%26where1%3D25.362200241812%252C%2B55.390319824219%26name%3DSharjah%252C%2BUnited%2BArab%2BEmirates%26mkt%3Den-IN&h=fAQEwDd7k&s=1
p7
sS'current_text'
p8
VSharjah, United Arab Emirates\u000aCurrent City
p9
sS'friends'
p10
(lp11
(S'100001486738301'
p12
S'Azeem Chaudhry'
tp13
a(S'100007315000254'
p14
S'Ch Asim Raza'
tp15
a(g14
S'Ch Asim Raza'
tp16
a(g12
S'Azeem Chaudhry'
tp17
asS'id'
p18
g12
s.