(dp1
S'friends'
p2
(lp3
(S'100002734656278'
S'Faraz Ahmed Odho'
tp4
a(S'100004726450658'
S'Chavash Baloch'
tp5
a(S'100004709953017'
S'Hafeez Baloch'
tp6
a(S'100004003589173'
S'King AR'
tp7
a(S'100006054547898'
S'Wadaar Baloch'
tp8
a(S'100005346930220'
S'Rohail MenGal'
tp9
a(S'100001960471595'
S'Mir Hammal Nazir'
tp10
a(S'100005939199034'
S'Ghulam Sarwar'
tp11
a(S'100006116984536'
S'Sheed Fasal Baloch Baloch'
tp12
a(S'100003181240063'
S'Beurag Baloch'
tp13
a(S'100007000712986'
S'Saeed MenGal'
tp14
a(S'100000269190026'
S'Razzak Sarbazi'
tp15
a(S'100006955152601'
S'Nawaz Baloch'
tp16
a(S'100004694169977'
S'Paroomi Baloch'
tp17
a(S'100001815451100'
S'Doda Baloch'
tp18
a(S'100006645487341'
S'Haq NA Tawar'
tp19
a(S'100004725151122'
S'Attaullah Baloch'
tp20
a(S'100004720592378'
S'Saima Khan'
tp21
a(S'100006684552244'
S'Sarawan Jawan Force'
tp22
a(S'100001989075297'
S'Sarfaraz Baloch'
tp23
a(S'100004752992402'
S'Brave Gurg'
tp24
a(S'100001304375918'
S'Bal Baloch'
tp25
a(S'1677124430'
S'Waheed Buledi'
tp26
a(S'100006456187347'
S'Mir Shahjhan Gurginary'
tp27
a(S'100004346737072'
S'Salahuddin Sana'
tp28
a(S'100004579538064'
S'Yasir Baloch'
tp29
a(S'100004235141387'
S'Kohda Baloch'
tp30
a(S'100003127019054'
S'Ishaq Chakar Buledi'
tp31
a(S'100001923530504'
S'Sh\\u00e5k\\u00eb\\u00eal B\\u00e5lOch'
tp32
a(S'100005197023573'
S'Abdullah Karim'
tp33
a(S'100004109074388'
S'Bramsh Baloch'
tp34
a(S'100003876122808'
S'Afzal Murad Baloch'
tp35
a(S'100001538065797'
S'Ehsan Ullah Baloch'
tp36
a(S'100005213288455'
S'Mushtaq Arb'
tp37
a(S'100003713874678'
S'Sarmachar Baloch'
tp38
a(S'100006384519131'
S'Saeed Saleh Baloch'
tp39
a(S'100003348090115'
S'Noori Baloch'
tp40
a(S'100003204010615'
S'Ehsan Aslam'
tp41
a(S'100006359172022'
S'Shaheed Ijazbaloch'
tp42
a(S'100006157387299'
S'Denar Baloch'
tp43
a(S'100004101172869'
S'Tanveer Shambezai'
tp44
a(S'100001746754955'
S'Rb Baloch Buledai'
tp45
a(S'100002925908207'
S'Redag Baloch'
tp46
a(S'100002813677528'
S'M\\u00ecr Sh\\u00e5h\\u00e4k Baluch'
tp47
a(S'100003919050957'
S'Bahadur Muradzai'
tp48
a(S'100008378554526'
S'Nazeer Baloch'
tp49
a(S'100002614009579'
S'Nako Haji'
tp50
a(S'100002615432298'
S'Mohammad Adnan'
tp51
a(S'100001973486703'
S'Arif Haleem Baloch'
tp52
a(S'100004832162282'
S'B Jan Khan'
tp53
a(S'100000655491864'
S'Khurshid Baloch'
tp54
a(S'100000976465469'
S'Mir Mengal'
tp55
a(S'100004993170011'
S'Mir ShahZaman Gurginary'
tp56
a(S'100004436171823'
S'Nisar Muradzai'
tp57
a(S'100000416498798'
S'Yaqoob Baloch'
tp58
a(S'100004439917143'
S'Anees Baloch'
tp59
a(S'100006482458107'
S'Lal Baloch'
tp60
a(S'100008247368183'
S'\\u0632\\u0631\\u062f\\u0627\\u0646 \\u062c\\u0627\\u0646'
tp61
a(S'100001233009642'
S'Jasim Jan'
tp62
a(S'100005798530495'
S'Azad Panchi'
tp63
a(S'100004408231439'
p64
S'Zakar Baloch'
tp65
a(S'100004510572038'
S'Tanveer Nizar'
tp66
a(S'100003064953244'
S'Aslam Asad'
tp67
a(S'100005209261117'
S'Mir Zaman Gurginary'
tp68
a(S'100005207823477'
S'Murad Sabzal'
tp69
a(S'100002399567939'
S'Zakria Zaki M Hassni'
tp70
a(S'100005768024332'
S'Muhsin Faqeer'
tp71
a(S'100005276581651'
S'Jan Baloch Baloch'
tp72
a(S'100004396804331'
S'Kamalan Baloch'
tp73
a(S'100001278216008'
S'Mir Zaid Mengal'
tp74
a(S'100004119067652'
S'Rashid Abid Baloch'
tp75
a(S'100004351754545'
S'Maqbool Ahmed'
tp76
a(S'100005668354845'
S'Meer Qamber Raees'
tp77
a(S'100004559833557'
S'Adil Aslam'
tp78
a(S'100008073300507'
S'Shaheed Salman Jan'
tp79
a(S'100004442733869'
S'Dashteeg Baloch'
tp80
a(S'100002124315304'
S'Shah Jan Dawoodi'
tp81
a(S'100004013720543'
S'Umar Majed'
tp82
a(S'100003347964389'
S'Shehak Khalil Kashani'
tp83
a(S'100003818281978'
S'Wazeer Sattar'
tp84
a(S'100005875836656'
S'Basham Badal Baloch'
tp85
a(S'100002534830906'
S'DurJan Adam Baloch'
tp86
a(S'100004628580663'
S'Atiq Rahman Baloch'
tp87
a(S'100006938351830'
S'Jhanghwi Baloch'
tp88
a(S'100004074039028'
S'Waseem Ilyas'
tp89
a(S'100001955850796'
S'Rafiq Chakar'
tp90
a(S'100007006692706'
S'Shaheed Gayass Jan'
tp91
a(S'100004631400642'
S'Waheed Baloch'
tp92
a(S'100004009597493'
S'Aziz Mengal'
tp93
a(S'100003889561321'
S'Dilawer Baloch'
tp94
a(S'100001700981921'
S'Hafeez Hasrat'
tp95
a(S'100004613648731'
S'Salman Rostum'
tp96
a(S'100001345358189'
S'Nawaz Dashti'
tp97
a(S'100004422132320'
S'Farhad Umar'
tp98
a(S'100000084445285'
S'Ikram Satti'
tp99
a(S'100004793675613'
S'Aslam Ayaz'
tp100
a(S'100004075503543'
S'Balochi Pajjar'
tp101
a(S'100001479508224'
S'Waseem Khan'
tp102
a(S'100002295819884'
S'Nazar Dost'
tp103
a(S'100003226296090'
S'Najam Jojo'
tp104
a(S'100002555924830'
S'Sajjad Baloch'
tp105
a(S'100003712076523'
S'Gulab Jan Baloch'
tp106
a(S'100003610215664'
S'Abdullah Rahi'
tp107
a(S'100001780886919'
S'Lala Faheem Baloch'
tp108
a(S'100001318935654'
S'Oreez Baloch'
tp109
a(S'100000476943605'
S'Obaidullah Baloch'
tp110
a(S'100001515287783'
S'Jaan Rahe Baloch'
tp111
a(S'100004101631330'
S'Raees Baloch'
tp112
a(S'100000792098699'
S'Tribal Khan'
tp113
a(S'100001931235865'
S'Farhad Safeer Baloch'
tp114
a(S'100004898469330'
S'Aslam Jan Gurginary'
tp115
a(S'100002840808369'
S'Nohan Nawab'
tp116
a(S'100004759691896'
S'Tallar Baloch Baloch'
tp117
a(S'100004711389850'
S'Mulla Baloch'
tp118
a(S'100003284250742'
S'Sanaullah Shambazei'
tp119
a(S'100003700292633'
S'Khalid Murad Baloch'
tp120
a(S'100004541624541'
S'Mani Jane Balochistan'
tp121
a(S'100002205700729'
S'Jan Baloch'
tp122
a(S'100004240323044'
S'Attaullah Mengal'
tp123
a(S'100005255492850'
S'Sarawan Lions'
tp124
a(S'100004381865272'
S'Qauym Baloch'
tp125
a(S'100002858524630'
S'Saif Rahman Baloch'
tp126
a(S'100004732334537'
S'Gulam Sarwar'
tp127
a(S'100003704265539'
S'Mirak Baloch'
tp128
a(S'100005959751572'
S'Asif Lal'
tp129
a(S'100006218083692'
S'Fareed Goorkieezie'
tp130
a(S'100003830880024'
S'Haseeb Ehsan'
tp131
a(S'100002838640322'
S'Mujeeb Baloch Shahdadzai'
tp132
a(S'100003046038829'
S'Shahdad Shahdadzai'
tp133
a(S'100003480680496'
S'Zahoor Fazal'
tp134
a(S'100005264287720'
S'Mahal Baloch'
tp135
a(S'100002735330384'
S'Manzoor Bismil'
tp136
a(S'100003555147732'
S'Shahsawar Alim'
tp137
a(S'100004524099085'
S'Zubair Baloch'
tp138
a(S'100003297500300'
S'Khair Jan Baqiri'
tp139
a(S'100004675358768'
S'Zahir Baloch'
tp140
a(S'100004736433653'
S'Asif Sulaman'
tp141
a(S'100001873348822'
S'Jameel Buledi'
tp142
a(S'100001837327657'
S'Sanaullah Qumi'
tp143
a(S'100004366924858'
S'Engr Hamad Baloch'
tp144
a(S'100004315031451'
S'Baloch Sarmachar'
tp145
a(S'100005977568015'
S'Farooq Shambezai'
tp146
a(S'100000427426591'
S'Tahir Shambezai'
tp147
a(S'100003361211706'
S'Ashfaq Baloch'
tp148
a(S'100004414741593'
S'Dilwash Baloch Mirwadi'
tp149
a(S'100008375200494'
S'Umer Farooq'
tp150
a(S'100002730424492'
S'Mohd Naeem'
tp151
a(S'100005604193666'
S'Sardarzada GurGinary'
tp152
a(S'100004618804051'
S'Shaeed Zahid Jan'
tp153
a(S'100002630161875'
S'Chegu Vera'
tp154
a(S'100004746095347'
S'Aajoo Balochistan'
tp155
a(S'100002993308516'
S'Saba Jan'
tp156
a(S'100004467458604'
S'Sohail Sachaan Paroomi'
tp157
a(S'100000300380996'
S'Naveed Akram'
tp158
a(S'100003465584923'
S'Jalil Baloch'
tp159
a(S'100004618359699'
S'Pada Baloch'
tp160
a(S'100003358052939'
S'Ishfaq Baloch'
tp161
a(S'100004642448342'
S'Shey Ragam'
tp162
a(S'100003366401948'
S'Rukiya Dar'
tp163
a(S'100003486156180'
S'AMar Baloch'
tp164
a(S'100006028204100'
S'Salman Baloch'
tp165
a(S'100005539927993'
S'Noodan Shambezai'
tp166
a(S'100005860749110'
S'Akram Daad'
tp167
a(S'100004688974936'
S'Hani Mani Mathain Watan'
tp168
a(S'100003401471762'
S'Muhib Fatih Shambezai'
tp169
a(S'100001791979740'
S'Malik Saleh Baloch'
tp170
a(S'1556425674'
S'Iqbal Zaheer Baloch'
tp171
a(S'100005184484529'
S'KhalId Bin WalEed'
tp172
a(S'100008197920305'
S'Meer E Gurg'
tp173
a(S'100002259997870'
S'Jaleel Albalushi'
tp174
a(S'100003204798494'
S'Baloch Baloch'
tp175
a(S'100005537680546'
S'Qamber Shambezai'
tp176
a(S'100003721548728'
S'Shaheen E Baloch'
tp177
a(S'100004455460985'
S'Rabia Baloch'
tp178
a(S'100004381057575'
S'Chamrok Baloch'
tp179
a(S'100004768803150'
S'Adeel Raheem'
tp180
a(S'100004667467325'
S'Bohair Baloch'
tp181
a(S'100004396299042'
S'Watan Dostw'
tp182
a(S'100005458892347'
S'Dawood Baloch'
tp183
a(S'100000237156597'
S'Homer Keeya'
tp184
a(S'100003332959351'
S'Noroz Baloch'
tp185
a(S'100003876205805'
S'Kooh Yaar Baloch'
tp186
a(S'100002306139014'
S'Mir Faisal Gurginari'
tp187
a(S'100004100454552'
S'Degreecollege Panjgur'
tp188
a(S'100007073614460'
S'Meraj Baloch'
tp189
a(S'100004998483682'
S'Sarbast Kareem'
tp190
a(S'100006383795024'
S'Nodaan Baloch'
tp191
a(S'100004577617165'
S'Qamar Abbas'
tp192
a(S'100003002184131'
S'Meher Aflak'
tp193
a(S'100005340974124'
S'Saarban Baloch'
tp194
a(S'100006455963592'
S'Habeeb Ullah Baloch'
tp195
a(S'100002850503396'
S'Naveed Noor'
tp196
a(S'100000645688654'
S'Kaleem Qadir'
tp197
a(S'100003688813692'
S'Meehfooz Muheem'
tp198
a(S'100004904622780'
S'HaQqana Tawaar'
tp199
a(S'100003840529727'
S'Hamdan Al Baloshi'
tp200
a(S'100003580778262'
S'Asif Ahmed'
tp201
a(S'100004454737367'
S'Victorious Baloch'
tp202
a(S'100003902895811'
S'Imdad Umait'
tp203
a(S'100004680611085'
S'Balach Dost'
tp204
a(S'100003684972206'
S'Fateh Baloch'
tp205
a(S'100003241603647'
S'Merhan Albalushi'
tp206
a(S'100003217757821'
S'Shah AL Balushi'
tp207
a(S'100007995192579'
S'Yassin Shambezai'
tp208
a(S'100003339460917'
S'Umar Kashani Baloch'
tp209
a(S'100005918533777'
S'Ghulam Farooq Baloch'
tp210
a(S'100004003119537'
S'Jaffar Khan Mirwani'
tp211
a(S'100003562988742'
S'Baloch Warna'
tp212
a(S'100004891533168'
S'Aadil Hussain'
tp213
a(S'100000499928922'
S'Amjed Shehzad Baloch'
tp214
a(S'100006032135403'
S'Noor Waseem'
tp215
a(S'100002334487150'
S'Bla Baloch'
tp216
a(S'100005653803694'
S'Asad Baloch'
tp217
a(S'100002916778948'
S'Hafiaz Hasrat'
tp218
a(S'100001152178907'
S'Panjguri Baloch'
tp219
a(S'100006965890278'
S'WarNa MenGal'
tp220
a(S'100003669398078'
S'Rotara Shams'
tp221
a(S'100004683939765'
S'Shere Mujahid'
tp222
a(S'100004426326370'
S'Saoud Baloch'
tp223
a(S'100003254440191'
S'Pri\\u0220c\\u00e8 Ameer J\\u00e8\\u00e8Hand'
tp224
a(S'100006028482130'
S'Baloch FC Panjgur'
tp225
a(S'100005207313992'
S'Pazeer Paroomi'
tp226
a(S'100004355949534'
S'Ayaz Baloch'
tp227
a(S'100000572547179'
S'Slaved Baloch'
tp228
a(S'100003555937344'
S'Fahad Baloch'
tp229
a(S'100004406714288'
S'Yar Jan Baloch'
tp230
a(S'100008243200595'
S'Cheehaal Baloch'
tp231
a(S'100002247108069'
S'Asim Baloch'
tp232
a(S'100001161937169'
S'Bramsh Balochistan'
tp233
a(S'100007035660437'
S'Aziz Mengal'
tp234
a(S'100000001043235'
S'Agha Zarrar Shah'
tp235
a(S'1830812781'
S'Saeed Baloch'
tp236
a(S'100004446788010'
S'Isr\\u00e4r B\\u00e4l\\u00fc\\u00e7h'
tp237
a(S'100004214321278'
S'Younus Baloch'
tp238
a(S'100000178545765'
S'Hafeez Ali Baloch'
tp239
a(S'100003004848350'
S'Sohail Baloch'
tp240
a(S'100008100281071'
S'Shista Jan'
tp241
a(S'100004596695607'
S'Wadar Phatan'
tp242
a(S'100001936827148'
S'Shapchirag Baloch'
tp243
a(S'1833145549'
S'Atta Ullah Qomi'
tp244
a(S'100003304630382'
S'Shabir Albaloshi'
tp245
a(S'100000798678055'
S'Zakir Kashani'
tp246
a(S'100004502053551'
S'Mir Basham'
tp247
a(S'100005158180175'
S'Mir Kohda'
tp248
a(S'100003727237517'
S'Khalid Naseer Gurginari'
tp249
a(S'100004986090384'
S'Taj Baloch'
tp250
a(S'100006087849397'
S'Surbaz Gurginari'
tp251
a(S'100001694918767'
S'Israr Baloch'
tp252
a(S'100000369093319'
S'Nasir Shambazai'
tp253
a(S'100004147235367'
S'Mehmood Shah'
tp254
a(S'100004734030641'
S'Mansoor Ali Baloch'
tp255
asS'id'
p256
S'100004726573460'
p257
sS'name'
p258
S'Mureed Koohi'
p259
s.