(dp1
S'friends'
p2
(lp3
(S'1158562344'
S'Priyanka Renjen Kumar'
tp4
a(S'1721739562'
p5
S'Govind Bali'
tp6
a(S'100001070591803'
S'Ashita Talwar'
tp7
a(S'100000054480939'
S'Rishabh Pachory'
tp8
a(S'100001238482504'
S'Sartaj Dhillon'
tp9
a(S'100001828698814'
S'Devender Singh'
tp10
a(S'100000885521940'
p11
S'Ronald Michael'
tp12
a(S'1298287426'
p13
S'Vansh Kukreja'
tp14
a(S'100000896754960'
S'Musa Mehdi'
tp15
a(S'100001043259703'
S'Kangan Loomba'
tp16
a(S'100000573053869'
S'Aditya Rekhi'
tp17
a(S'100001264530061'
S'Vikrant Rathore'
tp18
a(S'100001833100089'
S'Kashish Bakshi'
tp19
a(S'100003695530253'
S'Anoushka Dhaka'
tp20
a(S'100005604336406'
S'Harshita Wadhwa'
tp21
a(S'1810136434'
S'Vaibhav Tyagi'
tp22
a(S'100001245462940'
S'Akanksha Pushkar'
tp23
a(S'100008383572032'
S'Mehek Mahendroo'
tp24
a(S'100001071119037'
S'Esha Chadha'
tp25
a(S'100001523837215'
S'Sukanya Hosmani'
tp26
a(S'100000363025783'
S'Nakul Paliwal'
tp27
a(S'100001607596467'
S'Paranjay Kotiyal'
tp28
a(S'1432072258'
S'Kreshaang Bhola'
tp29
a(S'100000095556845'
S'Raghav Kirpekar'
tp30
a(S'100000214637411'
S'Neel Sharma'
tp31
a(S'100002382727485'
S'Raunaq Bhatti'
tp32
a(S'100001185845844'
S'Shreshth Sharma'
tp33
a(S'100001717734899'
S'Shashwat Parashar'
tp34
a(S'100006254830510'
S'Jayati Palsokar'
tp35
a(S'100000594770642'
S'Harsh Sohi'
tp36
a(S'100002335442486'
S'Yashita Vashishth'
tp37
a(S'100000269878356'
S'Riddhi Johar'
tp38
a(S'1079260814'
S'Rhea Tomar'
tp39
a(S'100001053785742'
S'Prerna Datta'
tp40
a(S'100006334145992'
S'Aditya Batra'
tp41
a(S'100002301917547'
S'Siddharth Jyoti'
tp42
a(S'100000732306782'
S'Ayush Varshney'
tp43
a(S'100001988311776'
S'Akash Tyagaraj'
tp44
a(S'100003292848077'
p45
S'Srijan Bhan'
tp46
a(S'1303075223'
S'Bishwa Jeet'
tp47
a(S'100000506442209'
S'Prableen Kaur Sethi'
tp48
a(S'100007656963800'
S'Malikarjun Prasanna'
tp49
a(S'100002823078248'
S'Esha Elesha Rao'
tp50
a(S'100000234848867'
S'Sarmandeep Bhullar'
tp51
a(S'100003364461833'
S'Payal Mehta'
tp52
a(S'100002196577628'
S'Kabeer Ali'
tp53
a(S'100000911101974'
S'Shivansh Jaswal'
tp54
a(S'100002274146714'
S'Simran Pundir'
tp55
a(S'1348280551'
S'Pablo Khan'
tp56
a(S'100004378153222'
S'Kirti Gosain'
tp57
a(S'1405698736'
S'Navya Bhatnagar'
tp58
a(S'100001970792649'
S'Sonal Gupta'
tp59
a(S'1769601122'
S'Abhimanyu Trikha'
tp60
a(S'1250943228'
S'Aparna Ananth'
tp61
a(S'100002207266406'
S'Anjna Dahiya'
tp62
a(S'100003645338634'
S'Divija Kumar'
tp63
a(S'100000546500505'
S'Archie Gunnerforever Biswas'
tp64
a(S'100003947648780'
S'Tammana Malik'
tp65
a(S'1266376384'
S'Sachi Gupta'
tp66
a(S'1065345531'
S'Kavita Wazalwar'
tp67
a(S'100002564477735'
S'Varun Mehta'
tp68
a(S'1131193179'
S'Mohit Mahendroo'
tp69
a(S'1813237556'
p70
S'Kavya Maini'
tp71
a(S'100005974655082'
S'Siddharth Jyoti'
tp72
a(S'100004094596866'
S'Rohan Chengappa'
tp73
a(S'100004729027839'
S'Amoha Ananth'
tp74
a(S'100000449962923'
S'Atharva Vitekar'
tp75
a(S'100000796970146'
S'Arsh Jyot'
tp76
a(S'1752178613'
p77
S'Udbhav Saha'
tp78
a(S'100002838013130'
S'Himadri Agrawal'
tp79
a(S'100000901825031'
S'Fiza Fatima'
tp80
a(S'100000697524500'
S'Aayushi Thakur'
tp81
a(S'100000559166063'
S'Hailstorm Jishnu'
tp82
a(S'100007513713601'
S'Sharvari Ranade'
tp83
a(S'100002418380813'
S'Vrishali Lal'
tp84
a(S'578622724'
S'Varun Bhatnagar'
tp85
a(S'100000128060086'
S'Mona Bhatnagar Mahendroo'
tp86
a(S'1353050834'
S'Payal Mittal Talwar'
tp87
a(S'100000718645635'
S'Kevin Deadpool Goldsmith'
tp88
a(S'100001706082565'
S'Anjali Priya'
tp89
a(S'100003528189279'
S'Sam Iyer'
tp90
a(S'100002449235193'
S'Serene Punnose'
tp91
a(S'100002006051404'
S'Suhana Saini'
tp92
a(S'100002397370878'
S'Suhani Verma'
tp93
a(S'100003273395552'
S'Siddhant Talwar'
tp94
a(S'1371515864'
S'Aanchal Rai'
tp95
a(S'100001032226374'
S'Jaskirat Kaur'
tp96
a(S'100008027460274'
S'Manyata Kumar'
tp97
a(S'100002150165077'
S'Aayushi Das'
tp98
a(S'100001145228826'
S'Siddharth Verma'
tp99
a(S'100001022434331'
S'Simran Kaur'
tp100
a(S'100002124919281'
S'Alina Shanker'
tp101
a(S'100000397209629'
S'Anirudh Murali'
tp102
a(S'1112200283'
S'Aakriti Thakur'
tp103
a(S'100002469655239'
S'Sparsh Sondhi'
tp104
a(S'100003699610309'
S'Ananya Pushkar'
tp105
a(S'100001006832187'
S'Shaurya Purohit'
tp106
a(S'100000293431737'
p107
S'Manan Katoch'
tp108
a(S'100000743273596'
S'Akshat Shandilya'
tp109
a(S'100004228629648'
S'Pragya Srikanth'
tp110
asS'id'
p111
S'100000586754336'
p112
sS'name'
p113
S'Mesha Mahendroo'
p114
s.