(dp1
S'friends'
p2
(lp3
(S'100001531432213'
S'Abhishek Anand'
tp4
a(S'100003155330675'
S'Priyanka Mehta'
tp5
a(S'563827303'
S'Sam Fotography'
tp6
a(S'100004008046697'
S'Sakshi Garg'
tp7
asS'id'
p8
S'100001531432213'
p9
sS'name'
p10
S'Abhishek Anand'
p11
s.