(dp1
S'friends'
p2
(lp3
(S'100002888250141'
S'Ravi Shankar Jha'
tp4
a(S'100002412826846'
S'Anu Shivangi'
tp5
a(S'100003012270709'
S'Ravi Shankar Jha'
tp6
a(S'100003320651836'
S'Prashant Kumar Jha'
tp7
a(S'100001634939196'
S'Badri Mishra'
tp8
a(S'100000403822096'
S'Uma Shankar Jha'
tp9
a(S'560992796'
S'Suvendra Kumar Jha'
tp10
a(S'100005389327644'
S'Raushan Kumar Mishra'
tp11
a(S'100000599613501'
S'Suraj Kumar'
tp12
a(S'100002834659885'
S'Tribhuwan Mishra'
tp13
a(S'100003333404699'
S'Amrita Mishra'
tp14
a(S'100005627800325'
S'Raman Mishra'
tp15
a(S'100006068431105'
S'Pratibha Jha'
tp16
a(S'100001484622225'
S'Rakesh Ranjan'
tp17
a(S'100001967709579'
S'Hemant Mishra'
tp18
a(S'100002767298222'
S'Shankar Prakash'
tp19
a(S'100001717362415'
S'Amrita Roy'
tp20
a(S'100003855958916'
S'Bagisha Shivangi Jha'
tp21
a(S'831667221'
S'Mayank Mishra'
tp22
a(S'100006552879146'
S'Prabhavati Thakur'
tp23
a(S'100000154809304'
S'Pradeep Pandey'
tp24
a(S'100007010529625'
S'Aditya Mishra'
tp25
a(S'100007459811759'
S'Doli Jha'
tp26
a(S'100001801362832'
S'Ankita Jha'
tp27
a(S'100002727743343'
S'Kunal Pushkar'
tp28
a(S'100003472479587'
S'Rakesh Jha'
tp29
a(S'100001252021242'
S'Ravi Shankar Jha'
tp30
a(S'100004073254028'
S'Pooja Shree'
tp31
a(S'100001976810128'
S'Shyam Prakash'
tp32
a(S'100000534454425'
S'Pintoo Jha'
tp33
a(S'100002817872642'
S'Manishankar Jha'
tp34
a(S'100000428145933'
S'Ankit Jha'
tp35
a(S'100003634226511'
S'Ravi Jha'
tp36
a(S'100001689318746'
S'Gyanesh Kumar'
tp37
a(S'100000677910062'
S'Prajna Jha'
tp38
a(S'100001550638482'
S'Anku Jha'
tp39
asS'id'
p40
S'100006418002530'
p41
sS'name'
p42
S'Bageshwari Jha Bageshwari Jha'
p43
s.