(dp1
S'friends'
p2
(lp3
(S'1253418184'
S'Salma Udayan'
tp4
a(S'100000898307809'
S'Ansh Khanna'
tp5
a(S'100003495526465'
S'Sam Heart'
tp6
a(S'100000572487044'
S'Lynette Hicks'
tp7
a(S'100003245146933'
S'Shelly Walia'
tp8
a(S'100001839085696'
S'Aditya Kapoor'
tp9
a(S'100001719937019'
S'Sagar Babbar'
tp10
a(S'100002617831703'
S'Sambhavi Jain'
tp11
a(S'100001153623303'
S'Vatsala Ranganathan'
tp12
a(S'100003538239186'
S'Shaikh Saniya'
tp13
a(S'100003706624746'
S'Amit Sharma'
tp14
a(S'100000425548213'
S'Namrata Singh'
tp15
a(S'100003358536794'
p16
S'Simran Gupta'
tp17
a(S'100001459263702'
S'Rishabh Gupta'
tp18
a(S'100000062830131'
S'Sushil Sharma'
tp19
a(S'100000119590501'
S'Utsav Makkar Ji'
tp20
a(S'100001552321380'
S'Gaurav Pipal'
tp21
a(S'100002185812753'
S'Preeti Sharma'
tp22
a(S'100001991383364'
S'Simran Kaur'
tp23
a(S'100001405690672'
S'Ashu Kumar'
tp24
a(S'100002737198888'
S'Anushka Singh'
tp25
a(S'100000466863276'
S'Jayesh Patil'
tp26
a(S'1433929691'
S'Bhavya Kumar'
tp27
a(S'100002545541935'
p28
S'Aryan Sharma'
tp29
a(S'100001103810086'
p30
S'Avinash Kaur'
tp31
a(S'100000944365242'
S'Aadil Qureshi'
tp32
a(S'100002010354606'
S'V\\u00eej\\u00e5\\u00ff \\u00c3r\\u00f8r\\u00e5'
tp33
a(S'100002995384742'
S'Nisha Kaur'
tp34
a(S'100001053083818'
p35
S'Shaaz Qureshi'
tp36
a(S'100003212791598'
S'Priya Singh'
tp37
a(S'100001001825701'
S'Aastha Sharma'
tp38
a(S'100002012367390'
S'Samuel Sagar'
tp39
a(S'100002810361331'
S'Amy Kapoor'
tp40
a(S'100001561742514'
S'Suresh Babbar'
tp41
a(S'100001219198926'
S'Sanya Meaow'
tp42
a(S'100002482972812'
S'Amol Shegokar'
tp43
a(S'100002182745958'
S'Sherish Ansari'
tp44
a(S'100001692762195'
p45
S'Vijayanti Sharma'
tp46
a(S'100002806861925'
S'Aniket Kumar'
tp47
a(S'100002640804359'
S'Sugar Anisha'
tp48
a(S'100001182870455'
S'Lisha Jain'
tp49
a(S'100001284579995'
p50
S'Saumya Kaur'
tp51
a(S'100001137762158'
S'\\u0a39\\u0a30\\u0a2a\\u0a4d\\u0a30\\u0a40\\u0a24 \\u0a38\\u0a3f\\u0a70\\u0a18'
tp52
a(S'100002808200570'
p53
S'Sameer Khurana'
tp54
a(S'100002554593884'
S'Janvi Juneja'
tp55
a(S'100001748916756'
S'Aman Jaiswal'
tp56
a(S'100003007843631'
S'Keira Karlin'
tp57
a(S'100000115837405'
S'Tanisha Sinha'
tp58
a(S'100001936946925'
S'Iqra Qureshi'
tp59
a(S'100001132597961'
p60
S'Shahrukh Qureshi'
tp61
a(S'100001333235673'
S'Elisa Herman'
tp62
a(S'100001638865868'
S'Himanshu Chawla'
tp63
a(S'100001844309101'
S'Sachin Dargan'
tp64
a(S'100003984666064'
S'Zaira Malik'
tp65
a(S'100001246931593'
S'Aarushi Kapoor'
tp66
a(S'100001528568287'
p67
S'Shoaib Riyaz'
tp68
a(S'100001412607339'
p69
S'Mohd Shadab'
tp70
a(S'100000884307612'
S'Nataly Rayan'
tp71
a(S'1591454755'
S'Kashish Kathuria'
tp72
a(S'100003162142342'
S'Priyanka Jangid'
tp73
a(S'100003372884288'
S'Meh Jabeen'
tp74
a(S'100001640238148'
p75
S'Ifrah Khan'
tp76
a(S'100000390916362'
S'Salman Khan'
tp77
a(S'100001202169053'
S'Ankita Gattani'
tp78
a(S'100001077486535'
S'Kanika Taneja'
tp79
a(S'100002547142133'
S'Sam Sachin'
tp80
a(S'100001078899095'
S'Priya Sharma'
tp81
a(S'100000946347409'
p82
S'Sonia Sharma'
tp83
a(S'100002592191726'
p84
S'\\u00c4bh\\u00ec\\u00f1\\u00e5v S\\u00ec\\u00f1gh'
tp85
a(S'100000888283801'
S'Madhur Narang'
tp86
a(S'100003012658983'
S'Tanya Singh'
tp87
a(S'100003063515849'
S'Pooja Yadav'
tp88
a(S'100001588982180'
S'Alina Khan'
tp89
a(S'100003708645802'
S'Tripti Raj'
tp90
a(S'100003140088657'
S'Jenny Fatima'
tp91
a(S'100002590809522'
p92
S'Noty Sahil'
tp93
a(S'100002277145069'
S'Gaurav Cool'
tp94
a(S'100000941166064'
S'Sakshi Kapoor'
tp95
a(S'100000437258465'
S'Manish Soni'
tp96
a(S'100003169877997'
S'Maan Arora'
tp97
a(S'100003110617137'
S'Ykshita Singh Chauhan'
tp98
a(S'100002562425453'
S'Payal Mohanty'
tp99
a(S'100003947412808'
S'Anit Sharma'
tp100
a(S'100003271516811'
S'Krishika Khanna'
tp101
a(S'100000305739487'
S'Akshay Gupta'
tp102
a(S'100001242178364'
S'Lavanya Khanna'
tp103
a(S'100001545196095'
S'Divi Singh'
tp104
a(S'100003392271057'
S'Raaz RJ Gupta'
tp105
a(S'100002547268221'
S'Kavya Basu'
tp106
a(S'100001558943523'
S'Rahul Mittal'
tp107
a(S'100002931933752'
S'Gurpreet Khurana'
tp108
a(S'100002959901995'
S'Pranay Gogia'
tp109
a(S'100001257116378'
p110
S'Aisha Aggarwal'
tp111
a(S'1181361925'
S'Siddhant Mahapatra'
tp112
a(S'100001916738334'
p113
S'Nicole Rao'
tp114
a(S'100002925947536'
S'Shivani Malhotra'
tp115
a(S'100000944484591'
S'Deepak Sharma'
tp116
a(S'100000642125605'
S'Mohit Chandaliya'
tp117
a(S'100000974254097'
S'Riya Sharma'
tp118
a(S'100002629981213'
S'Akansha Singh'
tp119
a(S'100001838421552'
p120
S'Prashant Kashyap'
tp121
a(S'100002512911364'
p122
S'Baqir Qureshi'
tp123
a(S'100000123541043'
p124
S'Sagar Makkar'
tp125
a(S'100002149948374'
S'Megha Vats'
tp126
a(S'100003617942500'
S'Sonali Sharma'
tp127
a(S'100001257522628'
S'Jennifer Kaur'
tp128
a(S'100002543678989'
S'Ronit Dagar'
tp129
a(S'100003549159900'
S'Anchal Soni'
tp130
a(S'1362755633'
S'Sumidha Rana'
tp131
a(S'100001463785868'
S'Abhay Sharma'
tp132
a(S'100003191191365'
S'Nitesh Chauhan'
tp133
a(S'1239349831'
p134
S'Ashutosh Mishra'
tp135
a(S'100002360651980'
S'Priyanka Khandelwal'
tp136
a(S'100000657773776'
S'Aditi Cherupara'
tp137
a(S'100000729518756'
S'PuJa RoXs'
tp138
a(S'100003960022555'
S'Rose Fatima'
tp139
a(S'100001034218058'
S'Ria Arora'
tp140
a(S'100003290401687'
S'Gaurav Kayat'
tp141
a(S'100001633820210'
S'Ashwani Verma'
tp142
a(S'100000710351407'
S'Fiza Ali'
tp143
a(S'1690618400'
p144
S'Zahid Nabi'
tp145
a(S'100003389511597'
S'Andy Das'
tp146
a(S'100003378669882'
S"Ur's Buddy Sandy"
tp147
a(S'100001685222346'
S'Rahul Raiya'
tp148
a(S'100003296541161'
S'Shefali Sharma'
tp149
a(S'100000838692440'
S'Antara Rabha'
tp150
a(S'100003653255582'
S'Nitika Sharma'
tp151
a(S'100003329378647'
S'Isha Varma'
tp152
a(S'100003715572116'
S'Abhinav SinGh'
tp153
a(S'100001670231107'
p154
S'Dhruv Aggarwal'
tp155
a(S'100000070768961'
S'Aniket Thakur'
tp156
a(S'100000729044495'
S'Chii Pebriee'
tp157
a(S'100000588369190'
S'P\\u00e4r\\u00e4s V\\u00earm\\u00e4'
tp158
a(S'100001032545714'
S'Kunjan Kashyap'
tp159
a(S'100001794911614'
S'Riya Sharma'
tp160
a(S'100001430527754'
S'Lokesh Bhatia'
tp161
a(S'100002097174758'
S'Farheen Ali'
tp162
a(S'100003889198881'
S'Pricess Sofia'
tp163
a(S'100002592974351'
S'Nidhi Sharma'
tp164
a(S'100000655371505'
p165
S'Ab\\u0127\\u012f\\u0146\\u0105v S\\u00ec\\u00f1\\u0123\\u0127'
tp166
a(S'100001637943493'
S'Nikas Sharma'
tp167
a(S'100000753120417'
S'Sneh Thakur'
tp168
a(S'100001539668224'
S'Dia Tiwari'
tp169
a(S'100001420205301'
S'Varun Chauhan'
tp170
a(S'100001693338526'
S'Sahil Frnd'
tp171
a(S'100002716441791'
S'Nisha Arora'
tp172
a(S'100003164300698'
S'Bunty Chandel'
tp173
asS'id'
p174
S'100001163995012'
p175
sS'name'
p176
S'Manas Sharma'
p177
s.