(dp1
S'friends'
p2
(lp3
(S'1513454919'
S'Meena Sharma'
tp4
a(S'1136147044'
S'Anand Kishore'
tp5
a(S'832517178'
S'Anirudh Tewari'
tp6
a(S'735129880'
S'Deepali Bahadur'
tp7
a(S'100000244257622'
S'D.r. Pathak'
tp8
a(S'100000097491563'
S'Trailokya Jena'
tp9
a(S'100000417199565'
S'Gangadhar Panda'
tp10
a(S'1523171032'
S'Vikas Bhardwaj'
tp11
a(S'564604202'
S'Shilpi Kapur'
tp12
a(S'736983436'
S'Ambika Khatua'
tp13
a(S'1179104734'
S'Devendra Swaroop Saksena'
tp14
a(S'596672844'
S'Shveta Bhardwaj'
tp15
a(S'1496400927'
S'Shyam Benupani'
tp16
a(S'100000044092352'
S'Bratati Mukherjee'
tp17
a(S'844052942'
S'Ajit Kumar Jain'
tp18
a(S'1340746858'
S'Urvashi Saxena'
tp19
a(S'100000306665791'
S'Nand Kapoor'
tp20
a(S'1464366406'
S'Krishna Dixit'
tp21
a(S'1222959180'
S'Suresh Yadav'
tp22
a(S'100000428602467'
S'Ritesh Sinha'
tp23
a(S'100000333151928'
S'Richa Bhardwaj'
tp24
a(S'1725624896'
S'Anil Kumar Agrawal'
tp25
a(S'100000025721518'
S'Loveleen Kacker'
tp26
a(S'100002159859145'
S'Shikha Dixit'
tp27
a(S'1123353585'
S'Archana Ranjan'
tp28
a(S'1805147280'
S'Ameeta Saini'
tp29
a(S'1020914771'
S'Rajat Bansal'
tp30
a(S'1112834612'
S'Rabi Narayan Dash'
tp31
a(S'791282907'
S'Preeti Vasishtha'
tp32
a(S'100002823256176'
S'Hesha Chimah'
tp33
a(S'751948236'
S'Sunil Gupta'
tp34
a(S'1766709413'
S'Binod Kumar'
tp35
a(S'734608651'
S'Anadee Nath Misshra'
tp36
a(S'1156017995'
S'Sushil Madhuk'
tp37
a(S'651517216'
S'Swati Vasishtha'
tp38
a(S'1397981641'
S'Sushil Chapa Sahai'
tp39
a(S'607832438'
S'Surabhi Sinha'
tp40
a(S'1428332344'
S'Laxmi Narayan Pant'
tp41
a(S'1328196698'
S'Anita Kapur'
tp42
a(S'1123064846'
S'Sriharsha Mohapatra'
tp43
a(S'1105334973'
S'Surendra Singh'
tp44
a(S'1367111666'
S'Sadhna Shanker'
tp45
a(S'1245455223'
S'Rohit Mehra'
tp46
a(S'1385420620'
S'Nidhi Dhawan Chopra'
tp47
a(S'1071792305'
S'Neelam Shukla'
tp48
a(S'100002986805022'
S'Rani Nair'
tp49
a(S'100000564503647'
S'Manoj Dudeja'
tp50
a(S'1090658808'
S'Rahul Sinha'
tp51
a(S'789468621'
S'Arun S Bhatnagar'
tp52
a(S'701045646'
S'Himanshu Bhardwaj'
tp53
a(S'649145018'
S'Vipul Pathak'
tp54
a(S'100000606934542'
S'Rajendra Kumar Tandon'
tp55
a(S'100000327832285'
S'Kiran Oberoi Vasudev'
tp56
a(S'1064547969'
S'Amitabh Kumar'
tp57
a(S'100000199825296'
S'Vinay Vasishtha'
tp58
a(S'100000611075409'
S'Feroz Khan'
tp59
a(S'1029713428'
S'Sandip Garg'
tp60
a(S'638479045'
S'Kaushik Mukerjee'
tp61
a(S'1216699031'
S'Akshya Panda'
tp62
a(S'1064440639'
S'Anupama Anand'
tp63
a(S'1433267447'
S'Daya Dutta'
tp64
a(S'633832082'
S'Shefali Shah'
tp65
a(S'738984739'
S'Batsala Jha'
tp66
a(S'588085578'
S'Ravi Kapoor'
tp67
a(S'100000615734569'
S'Vatsala Subramoni'
tp68
a(S'1713384807'
S'Bal Krishna Misra'
tp69
a(S'1453958300'
S'Krishna Sahai'
tp70
a(S'1789895039'
S'Milap Jain'
tp71
a(S'100000176024193'
S'Deepa Krishan'
tp72
a(S'1254223937'
S'Syed Ashraf'
tp73
a(S'100000660001763'
S'Satyagopal Rajguru'
tp74
a(S'644049682'
S'Virendra Singh'
tp75
a(S'653829578'
S'Srishti Sharma Bhardwaj'
tp76
a(S'1409795991'
S'Hemant Sarangi'
tp77
a(S'1144756532'
S'Mukesh Butani'
tp78
a(S'100000547787782'
S'Tanima Tewari'
tp79
a(S'1036774344'
S"'Ashwajit Singh"
tp80
a(S'100000280374252'
S'Anand Upadhyay'
tp81
a(S'586916556'
S'Prachi Sinha'
tp82
a(S'1403033056'
S'Narayan Prasad Bhagat'
tp83
asS'id'
p84
S'100000087174575'
p85
sS'name'
p86
S'Promila Bhardwaj'
p87
s.