(dp1
S'friends'
p2
(lp3
(S'1694207982'
S'Dhruv Luthra'
tp4
a(S'100001817287854'
S'Saloni Sharma'
tp5
a(S'100000703776914'
S'Anish Sharma'
tp6
a(S'1227464645'
S'Svetlana Guthrie'
tp7
a(S'100000049176409'
S'Neerav Bhatia'
tp8
a(S'100001604625991'
S'Simarpreet Kapoor'
tp9
a(S'100000415222668'
S'PaRth Arora'
tp10
a(S'100007083881825'
S'Muteeb Bhat'
tp11
a(S'1139269212'
S'Rachit Kapoor'
tp12
a(S'100001055885090'
S'Fauzan Mirza'
tp13
a(S'100000179652812'
S'Simran Saini'
tp14
a(S'1808738222'
S'Aditya Mahajan'
tp15
a(S'100000089037317'
S'Akshay Sarna'
tp16
a(S'100000557702983'
S'Nishtha Madnani'
tp17
a(S'100003715890335'
S'Annie Vij'
tp18
a(S'1076655975'
S'Sahil Chopraa'
tp19
a(S'100005555280310'
S'Zainab Siddiqui'
tp20
a(S'639690411'
S'Rohan Nangia'
tp21
a(S'100005992563875'
S'Shanaya Singh Rawat'
tp22
a(S'1555957226'
S'Cheryl Grover'
tp23
a(S'100002457653966'
S'Dhananjay Bhardwaj'
tp24
a(S'1402621932'
S'Mridul Sharma'
tp25
a(S'100000351300942'
S'Archisha Satyarthi'
tp26
a(S'100002708238922'
S'Tripti Khurana'
tp27
a(S'100001072287875'
S'Wasif Ziad Bcod'
tp28
a(S'100002115473018'
S'Yash Sharma'
tp29
a(S'100000598827437'
S'Usman Ghani'
tp30
a(S'672787880'
S'Numaan Matto'
tp31
a(S'100000716882819'
S'Jatin Singh Meen'
tp32
a(S'100001660056513'
S'Chahat Dhupar'
tp33
a(S'705168510'
S'Srishti Marwah'
tp34
a(S'100002335119745'
S'Rishabh Rawat'
tp35
a(S'524231728'
S'Aakar Sharma'
tp36
a(S'1251488562'
S'Stanly Toppo'
tp37
a(S'1712820885'
S'Anoushka Chopra'
tp38
a(S'100000412658105'
S'Tanuj Gupta'
tp39
a(S'100000313073077'
S'Khalid Matto'
tp40
a(S'100000433329846'
S'Melvin Das'
tp41
a(S'730127908'
S'Ashna Singh'
tp42
a(S'100005774071247'
S'Vrinda Chugh'
tp43
a(S'1782840184'
S'Saad Mustafa'
tp44
a(S'1241481613'
S'Reuben Das'
tp45
a(S'100003754820675'
S'Tolstoy Paonam'
tp46
a(S'1665371189'
S'Nishtha Pathela'
tp47
a(S'1180925888'
S'Sahil Gochhayat'
tp48
a(S'1493828121'
S'Avijit Singh'
tp49
a(S'1424004469'
S'Akash Pawar'
tp50
a(S'100005754211579'
S'Mubeen Akhtar'
tp51
a(S'100005581471587'
S'Mubeen Akhtar'
tp52
a(S'1837417738'
S'Nikhil Varghese'
tp53
a(S'100002685278443'
S'Yatharth Shahrawat'
tp54
a(S'100001667353711'
S'Parth Bansal'
tp55
a(S'1123851184'
S'Osman Siddiqi'
tp56
a(S'100001044301618'
S'\\u00dd\\u00c2sh \\u00c4g\\u00e2rw\\u00e5l'
tp57
a(S'1702410396'
S'Riya Arora'
tp58
a(S'100006788885184'
S'Radhika Karel'
tp59
a(S'1832874767'
S'Harshita Dhingra'
tp60
a(S'1494529814'
S'Ayush Yesudas'
tp61
a(S'1519350525'
S'Angel Vij'
tp62
a(S'100001987316656'
S'Tarunjeet Singh Jolly'
tp63
a(S'100000498334318'
S'Sana Khan'
tp64
a(S'100001106755856'
S'Mark Vivian'
tp65
a(S'100000086778364'
S'Felix Toppo'
tp66
a(S'1714757698'
S'Amal Thomas'
tp67
a(S'100001221947274'
S'Nikita Pradhan'
tp68
a(S'1520437078'
S'Avdhesh Batra'
tp69
a(S'100002101545091'
S'Yatin Kumar'
tp70
a(S'100004183963689'
S'Hafsa Khan'
tp71
a(S'1782917734'
S'Neetu Sebastian'
tp72
a(S'100002011917407'
S'Huzaifa Iftikhar'
tp73
a(S'100000057497978'
S'Henry Kunjumon'
tp74
a(S'1280332044'
S'Ubaid Kamaal'
tp75
a(S'100006664358784'
S'Ali Khan'
tp76
a(S'100001205407490'
S'Adriana Dann'
tp77
a(S'1579632176'
S'Mallika Arora'
tp78
a(S'100002377874389'
S'Ubaid Anwaar'
tp79
a(S'100001686468590'
S'Ripudaman Sanger'
tp80
a(S'100008087310696'
S'Amaan Ullah Turkei'
tp81
a(S'1213805124'
S'Rashi Gupta'
tp82
a(S'100003128060722'
S'Manvi Singh'
tp83
a(S'100002206906422'
S'Shantam Khanna'
tp84
a(S'1252797744'
S'Deeksha Porwal'
tp85
a(S'100001194982055'
S'Sobia Nadeem Siddiqui'
tp86
a(S'100000629599551'
S'Amritansh Rattanmani'
tp87
a(S'516375196'
S'Marcos Paulo Mendon\\u00e7a Gomes'
tp88
a(S'100003686573150'
S'Sumeet Wilson'
tp89
a(S'100000968665224'
S'Safwan Hashmi'
tp90
a(S'100000172100844'
S'Nelbin Sebastian'
tp91
a(S'100001811814560'
S'Clinton Robert'
tp92
a(S'100001098725244'
S'Norman Almeida'
tp93
a(S'100001039963815'
S'Mehul Saini'
tp94
a(S'100001716571977'
S'Kriti Wadhera'
tp95
a(S'1743417341'
S'Tolstoy Paonam'
tp96
a(S'100001719992334'
S'Neethu Varghese'
tp97
a(S'1527889280'
S'Meelad Badri'
tp98
a(S'1401342988'
S'Shrey Malhotra'
tp99
a(S'1329440184'
S'Mustafa Alvi'
tp100
a(S'1649711756'
S'Sajid Rizvi'
tp101
a(S'100001055533390'
S'Vaibhav Suri'
tp102
a(S'1372380325'
S'Khushvinder Bhatia'
tp103
asS'id'
p104
S'100001461441143'
p105
sS'name'
p106
S'Mohammad Tajuddin Khalid'
p107
s.