(dp1
S'name'
p2
S'Fawad Butt'
p3
sS'current_class'
p4
S'pakistan'
p5
sS'home_class'
p6
Vlahore cantt., lahore, pakistan
p7
sS'home_text'
p8
VLahore Cantonment, Punjab, Pakistan\u000aHometown
p9
sS'current_link'
p10
Vhttps://www.facebook.com/l.php?u=https%3A%2F%2Fwww.bing.com%2Fmaps%2Fdefault.aspx%3Fv%3D2%26pc%3DFACEBK%26mid%3D8100%26where1%3D31.549700669186%252C%2B74.343109130859%26name%3DLahore%252C%2BPakistan%26mkt%3Den-IN&h=dAQFb7sXA&s=1
p11
sS'home_link'
p12
Vhttps://www.facebook.com/fawad.butt.771?sk=info#
p13
sS'current_text'
p14
VLahore, Pakistan\u000aCurrent City
p15
sS'friends'
p16
(lp17
(S'100000425116060'
S'Abdul Rehman'
tp18
a(S'100006975822513'
S'Mohsin Raza'
tp19
a(S'100004314461786'
S'Rashid Nazir Ali'
tp20
a(S'100003156939118'
S'Khurram Malik'
tp21
a(S'1032982526'
S'Ajmal Zareef'
tp22
a(S'100004089672186'
S'Vickey Askey'
tp23
a(S'100004893936024'
p24
S'Fawad Butt'
tp25
a(S'100001841932949'
S'Alon Bird'
tp26
a(S'100004238864158'
S'Sameer Khan'
tp27
a(S'100008237378824'
S'Mikaal Mannan'
tp28
a(S'512822572'
S'Jamal Khan'
tp29
asS'id'
p30
g24
s.