(dp1
S'friends'
p2
(lp3
(S'100001950532773'
S'Dilshad Ali'
tp4
a(S'100001470829216'
S'Sandesh Mishra'
tp5
a(S'100002385132473'
S'Avi Raj'
tp6
a(S'100002406884387'
S'Adarsh Bharadwaj'
tp7
a(S'100001325553960'
S'Shubham Kumar Original'
tp8
a(S'100002469507119'
S'Bilal Khan'
tp9
a(S'100000702672579'
S'Aman Verma'
tp10
a(S'1321194137'
S'Piyush Maskara'
tp11
a(S'100001972410359'
S'Vishal Gaurav'
tp12
a(S'100001581648749'
S'Sumant Kumar'
tp13
a(S'100003355134033'
S'Rishu Roy'
tp14
a(S'100003032243627'
S'Rohit Remo'
tp15
a(S'1437127800'
S'Rishabh Anand'
tp16
a(S'100002114331151'
S'Vikash Kumar'
tp17
a(S'100003379740900'
S'Himanshu Sharma'
tp18
a(S'100003295710591'
S'Chirag Jain'
tp19
a(S'100002497820479'
S'Lavish Soni'
tp20
a(S'100001574927315'
S'Mohit \\u0287\\u0131\\u0265o\\u026f'
tp21
a(S'100000173410685'
S'Som Shekhar'
tp22
a(S'100003134019997'
S'Saif Anwar Quraishi'
tp23
a(S'100001323811628'
S'ER Gopal Kumar'
tp24
a(S'100004654930659'
S'Prakhar Mehrotra'
tp25
a(S'100001381112022'
S'Md Javed'
tp26
a(S'100007964202326'
S'Rakesh Ranjan'
tp27
a(S'100004368600915'
S'Ajay Sinha'
tp28
a(S'100002036315346'
S'Harsh Parasher'
tp29
a(S'100004303957172'
S'Shrishti Rox'
tp30
a(S'100007427943685'
S'Mantu Choudhary'
tp31
a(S'100005370011397'
S'Akanksha Gautam'
tp32
a(S'100002917453504'
S'Jay Singh'
tp33
a(S'100000023615584'
S'Rishabh Anand'
tp34
a(S'100000354840835'
S'Abhishek Sharma'
tp35
a(S'100006340534385'
S'Rishi Gaurav'
tp36
a(S'100003761199588'
S'Sandesh Mishra'
tp37
a(S'100003307011107'
S'Aviisha XD'
tp38
a(S'100000064335895'
S'Chiraag Kingston'
tp39
a(S'100000586070563'
S'Shikhar Joshi Khareda'
tp40
a(S'100002394733840'
S'Sumant Kumar'
tp41
a(S'100001805214441'
S'Vinay Daga'
tp42
a(S'100000321689353'
S'Anikesh Srivastava'
tp43
a(S'100000602854787'
S'Dhruv Jain'
tp44
a(S'100003274209200'
S'Rishi Rockin'
tp45
a(S'100000429686684'
S'Harsh Patel'
tp46
a(S'100000610955266'
S'Nirvik Soni'
tp47
a(S'100003186966991'
S'Mayank Manikya'
tp48
a(S'100001029541628'
S'Nikhil Reddy Pathuri'
tp49
a(S'100000428011465'
S'Bhavesh Saharan'
tp50
a(S'100004328220007'
S'Vishal Meena'
tp51
a(S'100006359527609'
S'Ruchir Kumar'
tp52
a(S'100003655498957'
S'Quashid Mehboob'
tp53
a(S'100002099918096'
S'Mukul Kumar'
tp54
a(S'100001144206306'
S'Naveen Pugalia'
tp55
a(S'100001362842654'
S'Shubham Singhal'
tp56
a(S'100003122746092'
S'Harshit Jain'
tp57
a(S'100001702292205'
S'Deepak Khemka'
tp58
a(S'100002831273498'
S'Monika Singh'
tp59
a(S'100000120822928'
S'Saurav Singh'
tp60
a(S'100003557232961'
S'Shahbaz Ahmad'
tp61
a(S'100002222856368'
S'Sushant Raj'
tp62
a(S'100001728548445'
S'Atul Jakhar'
tp63
a(S'100002487549879'
S'Shwetesh Shivam'
tp64
a(S'100005042470040'
S'Sameer Sam'
tp65
a(S'100000425320264'
S'Shubham Singh'
tp66
a(S'100001795132322'
S'Nagendra Jeet Singh'
tp67
a(S'100000377513675'
S'Akshay Deshpande'
tp68
a(S'1562598825'
S'Abid Iqbal'
tp69
a(S'100003869808974'
S'Piyush Ranjan'
tp70
a(S'100002191175974'
S'Rajneesh Rao'
tp71
a(S'100005239630319'
S'Makarand Patil'
tp72
a(S'100003221979698'
S'Harsh Manu'
tp73
a(S'100002669119077'
S'Diksha Kumari'
tp74
a(S'100003299036881'
S'Viket Rana'
tp75
a(S'100002498757304'
S'Adarsh Kumar'
tp76
a(S'100003382087438'
S'Vikash Singh'
tp77
a(S'100000118541756'
S'Namit Tiwary'
tp78
a(S'100001168409177'
S'DeviloKing Keshav'
tp79
a(S'100001772960565'
S'Abhishek Prashant'
tp80
a(S'100001296664930'
S'Naman Agrawal'
tp81
a(S'100002855540829'
S'Aman Chaudhary'
tp82
a(S'100000921407566'
S'Nikhil Kejariwal'
tp83
a(S'100006382844596'
S'Pushkar Gautam'
tp84
a(S'100004418945292'
S'Ravi Roy'
tp85
a(S'100002500504976'
S'Mrinal Sinha'
tp86
a(S'100003138042003'
S'Vaibhaw Kumar Singh'
tp87
a(S'100001159692897'
S'Shrey Satyajit'
tp88
a(S'100002621046116'
S'Mukund Rajhans'
tp89
a(S'100007445470361'
S'Abhinav Kumar'
tp90
a(S'100001521208387'
S'Aman'
tp91
a(S'100001245223904'
S'Ram Kumar'
tp92
a(S'100006604574588'
S'Pranav Chouhdary'
tp93
a(S'100002414623328'
S'Sharma Awanish'
tp94
a(S'100004196769878'
S'Aman Singh'
tp95
a(S'1672734904'
S'Aditya Nangia'
tp96
a(S'100004730011261'
S'Ajay Meena'
tp97
a(S'100002917637352'
S'Vikash Bhartiya'
tp98
a(S'100001574975318'
S'Raghav Nandwani'
tp99
a(S'100002280286471'
S'Fouji Singh Sabbarwal'
tp100
a(S'100005218264703'
S'Vishwakarma Behara'
tp101
a(S'100001147061801'
S'Maruti Shankar'
tp102
a(S'100005655338999'
S'Nasir Shaikh'
tp103
a(S'100002276469754'
S'Pankaj Kumar'
tp104
a(S'100003888126502'
S'Drishti Jha'
tp105
a(S'100002824625048'
S'Nehal Ahmed'
tp106
a(S'1013184616'
S'Nishoo Oo'
tp107
a(S'100004208952672'
S'Anjana Jha'
tp108
a(S'100001376816753'
S'Pranav Verma'
tp109
a(S'100002194269903'
S'Vishal Kumar Gupta'
tp110
a(S'100007995335117'
S'Medha Priya'
tp111
a(S'100002489158405'
S'Avinash Singh'
tp112
a(S'100001948910084'
S'Vishal Aaryan'
tp113
a(S'100003072625223'
S'Keshav Kumar Thakur'
tp114
a(S'100003455963535'
S'Priya Kumar'
tp115
a(S'100002468342423'
S'Rajesh Sinha'
tp116
a(S'100002091625824'
S'Hwsarang Boro'
tp117
a(S'100000937473687'
S'Lokender Rathore'
tp118
a(S'100002626571337'
S'Bishwajeet Kumar'
tp119
a(S'100003086951700'
S'Aditya Sudhakar'
tp120
a(S'100003498161712'
S'Rahul Shandilya'
tp121
a(S'100004331197563'
S'Arquam Arshad'
tp122
asS'id'
p123
S'100000646348754'
p124
sS'name'
p125
S'Tushar Sinha'
p126
s.