(dp1
S'friends'
p2
(lp3
(S'100002889593509'
p4
S'Sam Baba'
tp5
a(S'100003980838045'
S'Ajay Singh'
tp6
a(S'100002301416978'
S'Lavishka Rajput'
tp7
a(S'100002092065577'
S'Tushar Sinha'
tp8
a(S'100001706063179'
S'Tarun Shivam'
tp9
a(S'100001933886364'
S'Srijan Jaiswal'
tp10
a(S'100006082443669'
S'Ayan Thevar'
tp11
a(S'100000075606980'
S'Aadesh Gola'
tp12
a(S'100000421494433'
S'Kshitiz Sharma'
tp13
a(S'100001216720445'
S'Ishit Monga'
tp14
a(S'100001423806092'
S'Sparsh Garg'
tp15
a(S'100000950943737'
S'Ronit Malhotra'
tp16
a(S'100001357264802'
S'Vivin Kulani'
tp17
a(S'100003300870002'
S'Abhishek Nadar'
tp18
a(S'100000560460529'
p19
S'Aman Mehndiratta'
tp20
a(S'1250317311'
S'Prerna Chawla'
tp21
a(S'100001300837035'
S'Kunal Vij'
tp22
a(S'100000642434527'
S'Amy Raghav'
tp23
a(S'100003322254839'
S'Zaid Qureshi'
tp24
a(S'100002136769339'
S'Prithvi Katira'
tp25
a(S'100001042867796'
S'Venkatesh Dada'
tp26
a(S'100003390949233'
S'Varun Varma'
tp27
a(S'100004453356180'
S'\\u00d0\\u00e4\\u00ecv\\u00edk J\\u00e5\\u00ee\\u00f1'
tp28
a(S'100002358713612'
p29
S'Harsh Deep Singh'
tp30
a(S'100002305993326'
S'Sumit Rathore'
tp31
a(S'100001528568287'
S'Shoaib Riyaz'
tp32
a(S'100001268647357'
S'Ashish Harimohan'
tp33
a(S'100003895597929'
S'Saurabh Tomar'
tp34
a(S'100002387091741'
S'Kanishka Mathur'
tp35
a(S'100003122989109'
p36
S'Rocking Mohit'
tp37
a(S'100001193533232'
S'Yash Cool Sharma'
tp38
a(S'100001231636620'
S'Prajapathy Srt'
tp39
a(S'100001595606059'
S'Lakshay Seth'
tp40
a(S'100001484979967'
S'Ayush Kumar'
tp41
a(S'100003635708959'
S'Mohammad Yasir'
tp42
a(S'100000922072493'
S'Jebin Paul'
tp43
a(S'100002386950330'
S'Gopi Akai'
tp44
a(S'100001422570342'
S'Shelley Trickstar'
tp45
a(S'100001191098088'
S'Rohit Cris R'
tp46
a(S'100001827371006'
S'Mohammed Wasim'
tp47
a(S'100002044735102'
S'Prashant Kumar'
tp48
a(S'100001929098277'
S'Harsh Singh'
tp49
a(S'100000879790635'
S'Usman Qureshi'
tp50
a(S'100000946347409'
S'Sonia Sharma'
tp51
a(S'100003004954602'
S'Maddy Harsh'
tp52
a(S'100000929462524'
S'Raghav Bhatia'
tp53
a(S'100001760052656'
S'Naveed Ahamd'
tp54
a(S'100001670287048'
S'Suhani Khalid'
tp55
a(S'100001334782862'
S'Yasar Arfaat'
tp56
a(S'100002158094635'
p57
S'Sarthak Khurana'
tp58
a(S'100000437258465'
S'Manish Soni'
tp59
a(S'100000607075094'
S'Sri Nath'
tp60
a(S'100003332471933'
S'Mukul Kumar'
tp61
a(S'100000722123448'
S'Shiv Kumar'
tp62
a(S'100002326150607'
S'Bunty Goyal'
tp63
a(S'100003390695725'
S'Maddy Harsh'
tp64
a(S'100001057474088'
S'\\u0466\\u0432\\u043d\\u0456\\u0456\\u0455\\u043d\\u0435\\u043a \\u0422\\u043e\\u043c\\u0467\\u044f'
tp65
a(S'100003305813997'
S'Abdullah Khan'
tp66
a(S'100002135131742'
S'Hari Haran'
tp67
a(S'554967299'
S'Vipin Rawat'
tp68
a(S'100004791366768'
S'Lakshay Seth'
tp69
a(S'100002938508984'
S'Chauhan Sahb'
tp70
a(S'100001257116378'
S'Aisha Aggarwal'
tp71
a(S'100001430527754'
S'Lokesh Bhatia'
tp72
a(S'100001916738334'
S'Nicole Rao'
tp73
a(S'100000642125605'
S'Mohit Chandaliya'
tp74
a(S'100003523598720'
S'Govind Kumar'
tp75
a(S'100001838421552'
S'Prashant Kashyap'
tp76
a(S'100000123541043'
p77
S'Sagar Makkar'
tp78
a(S'100001395031958'
S'Rashmi Rawat'
tp79
a(S'100006200709633'
S'Srk Sharukh'
tp80
a(S'100004916253238'
S'Vaishnavi Sharma'
tp81
a(S'100002637952112'
S'Aditya Jain'
tp82
a(S'100001412607339'
S'Mohd Shadab'
tp83
a(S'100001988897570'
p84
S'Naveed Ahmad'
tp85
a(S'100002339222524'
p86
S'Utkarsh Jaiswal'
tp87
a(S'100002619241022'
S'Kavy Singh'
tp88
a(S'100003450655333'
S'F\\u00e6\\u00edz\\u00e5\\u00f1 M\\u00e3l\\u00edk'
tp89
a(S'100003357504573'
S'Sparsh Suri'
tp90
a(S'100001557619747'
S'Blake Lorenzo'
tp91
a(S'100003496101395'
S'Rohit Thevar'
tp92
a(S'100002864940384'
S'Diksha Rawat'
tp93
a(S'100000734536748'
S'\\u05d0\\u05d9\\u05e6\\u05d9\\u05e7 \\u05d6\\u05de\\u05d9\\u05e8'
tp94
a(S'100001633820210'
S'Ashwani Verma'
tp95
a(S'100003058724288'
S'Simran Sharma'
tp96
a(S'100001868902215'
S'Shahrukh Nawab'
tp97
a(S'100002803457500'
S'Ayaan Khan'
tp98
a(S'100001568661532'
S'Utkarsh Sharma'
tp99
a(S'100002590809522'
p100
S'Noty Sahil'
tp101
a(S'100000588369190'
S'P\\u00e4r\\u00e4s V\\u00earm\\u00e4'
tp102
a(S'100005373219442'
S'Shabana Shafi'
tp103
a(S'100002522582277'
p104
S'Abhishek Sharma'
tp105
a(S'100001532626150'
S'Vakul Vaid'
tp106
a(S'100001452034239'
S'Sharad Vikram Singh'
tp107
a(S'100000655371505'
p108
S'Ab\\u0127\\u012f\\u0146\\u0105v S\\u00ec\\u00f1\\u0123\\u0127'
tp109
a(S'100002272039230'
S'Harshna Suri'
tp110
a(S'100001249326397'
S'S\\u00e5\\u00fbd Q\\u00fb\\u0157\\u00eb\\u015fh\\u00ee'
tp111
a(S'100001501468223'
p112
S'Mohd Hamza'
tp113
a(S'100001270082527'
S'Hritik Dhawan'
tp114
a(S'100001925140666'
S'Shelley Slim Shaddy'
tp115
asS'id'
p116
S'100001551440589'
p117
sS'name'
p118
S'Gopal Krishna Verma'
p119
s.