(dp1
S'friends'
p2
(lp3
(S'100008187182186'
S'Aseel Jan'
tp4
a(S'662051905'
S"Zabi 'Laghmani' Husseinkhil"
tp5
a(S'100006454216328'
S'\\u0633\\u0645\\u0633\\u0648\\u0631 \\u0644\\u063a\\u0645\\u0627\\u0646 \\u0633\\u0645\\u0633\\u0648\\u0631\\u0644\\u063a\\u0645\\u0627\\u0646'
tp6
a(S'100007355588260'
S'Jamal Satar'
tp7
a(S'100004775765152'
S'Zabihullah Bahar'
tp8
a(S'100008000402750'
S'Love Islam'
tp9
a(S'100008184133604'
S'Fariba Balkhi'
tp10
a(S'100007901011895'
S'Laghman Sunger'
tp11
a(S'100001295358043'
S'Wali Hazrat'
tp12
a(S'100003540975532'
S'Ghulamrahman Rasooli'
tp13
a(S'100000490718496'
p14
S'Hamida Durani'
tp15
a(S'100002679597522'
S'Mateen Ehsas'
tp16
a(S'100003539216566'
S'Jamaluddin Jabarkhel'
tp17
a(S'100000159544786'
S'Ahmad Abdullah Jabarkhil'
tp18
a(S'100006815172254'
S'Haseebullah Asad'
tp19
a(S'100004367523988'
S'Abdulqadeer Hadi'
tp20
a(S'100008214251228'
S'Sadya Wafa'
tp21
a(S'100008339859551'
S'Mohammad Awaz Laghmani'
tp22
a(S'100001010893719'
S'Mushfiq Othmanzai'
tp23
a(S'100004536544293'
S'Adulqadeer Hadi'
tp24
a(S'100008161175001'
S'\\u067e\\u069a\\u062a\\u0646\\u0647 \\u067e\\u06cc\\u063a\\u0644\\u0647'
tp25
a(S'100000689868237'
S'Qari Muheb'
tp26
a(S'729849101'
S'Malyar Jabarkhel'
tp27
a(S'100008102347222'
S'Frishta Alokozay'
tp28
a(S'100002031594797'
S'Abu Nabeel Olfat'
tp29
a(S'100005295517830'
S'Faisal Alc'
tp30
a(S'100002680412136'
S'Haji Pirbakhsh Gardiwal'
tp31
a(S'100006438102117'
S'Sayedmuheed Sharifi'
tp32
a(S'100006135276392'
S'Qais Popalzai'
tp33
a(S'100008009773892'
S'\\u0628\\u06cc\\u0646\\u0648\\u0627 \\u0645\\u0644\\u06a9\\u0632\\u06cc'
tp34
a(S'632606380'
S'Ahmad Saleem'
tp35
a(S'100002502073557'
S'Haroon Jabarkhel'
tp36
a(S'100008044830666'
S'Hamid Laghmani'
tp37
a(S'100005674242631'
S'Polad Alemdar'
tp38
a(S'100008111525810'
S'Kabir Ahmad'
tp39
a(S'100001232775936'
S'Fahim Hamid'
tp40
a(S'100005786019354'
S'Zabihullah Malikzai'
tp41
a(S'100002685618711'
S'Hilal Udden'
tp42
a(S'100006534159375'
S'Shafiullah Shafi'
tp43
a(S'100004137940126'
S'\\u0634\\u0627\\u0632\\u064a\\u0647 \\u062f\\u0644\\u0633\\u0648\\u0632'
tp44
a(S'100007087686969'
S'\\u0628\\u0644\\u0627\\u0644 \\u0627\\u0632\\u0627\\u062f \\u0627\\u0644\\u062d\\u0646\\u0641\\u064a'
tp45
a(S'100004927800191'
S'Hejratullah Naseri'
tp46
a(S'100001096753967'
S'Misbah Hedayat'
tp47
a(S'100008151126476'
S'Laghman Green Province'
tp48
a(S'100004162022305'
S'Ahmad Fatah Habibyar'
tp49
a(S'100000352850311'
S'Mohammad Bilal Qarizada'
tp50
a(S'100002989446811'
S'Niamatullah Barakat'
tp51
a(S'100007547225030'
S'Aziz Ullah'
tp52
a(S'100000413579366'
S'Malik Sahibzada'
tp53
a(S'100005422536763'
S'Sayed Fahim Naqshbandi'
tp54
a(S'1121240887'
S'Baryally Baheer'
tp55
a(S'100007964773112'
S'Mohammad Khalid OM Arzai'
tp56
a(S'100005121906759'
S'Najeebullah Zaheer Naseri'
tp57
a(S'100002697258691'
S'Khosraw Yousufzai'
tp58
a(S'100005791773918'
p59
S'Mohammad Faisal Sarwary'
tp60
a(S'100004173039572'
S'Ziaullah Salem'
tp61
a(S'100001473019728'
S'Ahmad Javid'
tp62
a(S'1624480126'
S'Elyas Jabarkhel'
tp63
a(S'100002923655658'
S'Ejaz Ulhaq'
tp64
a(S'100008259315638'
S'Zubair Umarzai'
tp65
a(S'100008019993960'
S'Nilab Sultani'
tp66
a(S'100007544613710'
S'Faqeer Ahmad Sahari'
tp67
a(S'100006750494757'
S'\\u0634\\u0627\\u0639\\u0631\\u06cc \\u0698\\u0648\\u0646\\u062f\\u0648\\u0646'
tp68
a(S'100005642745653'
S'\\u0646\\u0627\\u0647\\u06cc\\u062f \\u0641\\u0631\\u06cc\\u062f'
tp69
a(S'100005837250140'
S'Rafipopal Popal'
tp70
a(S'100001086988469'
S'Raheem Quraishi'
tp71
a(S'100008189437623'
S'Khoaja Mohammadi'
tp72
a(S'100006748020604'
S'Hanifullah Bashaar'
tp73
a(S'100004093819275'
S'Anwarulhaq Jabarkhail'
tp74
a(S'100007952435235'
S'Fawad Niazi'
tp75
a(S'100007706469009'
S'\\u0627\\u0644\\u062d\\u0627\\u062c \\u0645\\u062d\\u0645\\u062f \\u0638\\u0627\\u0647\\u0631'
tp76
a(S'100008222612033'
S'Naseebullah Ahmadzi'
tp77
a(S'100006353194174'
S'Waseem Nayel'
tp78
a(S'100002085311776'
S'Mena Mangal'
tp79
a(S'100005152269774'
S'Hamid Ahadi'
tp80
a(S'100002972927200'
S'Laghman Cricket'
tp81
a(S'100005874186411'
S'Salahuddin Karimi'
tp82
a(S'100006347204425'
S'Ahmadullah Habibi'
tp83
a(S'100008228444283'
p84
S'Iqbal Azizi'
tp85
a(S'100008048230331'
S'Naveed Laghmani'
tp86
a(S'100007410210806'
S'Raj Kumar'
tp87
a(S'100002369116347'
S'Hash Mat'
tp88
a(S'100006634061070'
S'Umidullah Danish'
tp89
a(S'100008042041828'
S'Ahmadsamim Ghafoori'
tp90
a(S'100008266034369'
S'Hamimullah Fareed'
tp91
a(S'100000251148969'
S'Saif Hotak'
tp92
a(S'100007711144793'
S'\\u0634\\u0628\\u0646\\u0645 \\u0646\\u0646\\u06af\\u0631\\u0647\\u0627\\u0631\\u06cc'
tp93
a(S'100003472798409'
S'Eng M A Mobarez'
tp94
a(S'100008168380073'
S'Pacha Phokhtonyar'
tp95
a(S'100007720417402'
S'Kader Hotak'
tp96
a(S'100002707554382'
S'Daud Hashemi'
tp97
a(S'100007964973230'
S'Hedayathamdard Jabarkhil'
tp98
a(S'100006518288523'
S'Mansoor Hotak'
tp99
a(S'100007114140162'
S'Naweedullah Adel'
tp100
a(S'100006740076152'
S'DrAhmadzia Habibi'
tp101
a(S'100002255061361'
S'Abdullah Habibyar'
tp102
a(S'100007975600895'
S'Zahid Asad Latifi'
tp103
a(S'100005951345235'
S'\\u0631\\u0627\\u0647 \\u062c\\u0646\\u062a'
tp104
a(S'100005563686477'
S'Ateequllah Nasiri'
tp105
a(S'100007412400601'
S'Laghman Afghanistan'
tp106
a(S'100004077215344'
S'\\u0641\\u0647\\u06cc\\u0645\\u0647 \\u0627\\u0645\\u06cc\\u0631\\u06cc'
tp107
a(S'100005004422212'
S'\\u062f\\u0644\\u063a\\u0645\\u0627\\u0646 \\u0681\\u0648\\u0627\\u0646\\u0627\\u0646\\u0648 \\u0641\\u0631\\u0647\\u0646\\u06af\\u06cc \\u062a\\u0648\\u0644\\u0646\\u0647'
tp108
a(S'100007877528104'
S'Sh\\u00e5k\\u00ecl \\u00c2hm\\u00e9\\u00f0'
tp109
a(S'674587420'
p110
S'David Mccastle'
tp111
a(S'100005983963331'
S'Ajmal Wafa'
tp112
a(S'100007905791980'
S'Shafiqullah Shaiq'
tp113
a(S'100000719762784'
S'Shafiq Khan'
tp114
a(S'100004764636080'
S'Shir Hassan Shaiq'
tp115
a(S'100005809692493'
S'Sayed Jamaluddin'
tp116
a(S'100008144714094'
S'\\u0627\\u062d\\u0645\\u062f\\u0634\\u0645\\u06cc\\u0631 \\u0647\\u0627\\u062f\\u06cc'
tp117
a(S'100001855795139'
S'Sharifullah Timor Omari'
tp118
a(S'100007977301662'
S'Askar Sadaat'
tp119
a(S'100000371684845'
p120
S'Zefnoon Safi'
tp121
a(S'100001868779437'
S'Sharifullah Habibyar'
tp122
a(S'100006925632459'
S'\\u062c\\u0648\\u0627\\u0646\\u0627\\u0646 \\u0631\\u0648\\u0634\\u0646 \\u0641\\u06a9\\u0631 \\u0644\\u063a\\u0645\\u0627\\u0646'
tp123
a(S'100002186396679'
S'\\u0645\\u062d\\u0645\\u062f \\u0632\\u0628\\u064a\\u0631 \\u062a\\u0631\\u06a9\\u0649'
tp124
a(S'100008238753768'
S'Hafiz Ullah Khatak'
tp125
a(S'100003952410678'
S'Sangar Habibi'
tp126
a(S'100006975342604'
S'Haroon Haidari'
tp127
a(S'100008281148474'
S'\\u0644\\u063a\\u0645\\u0627\\u0646 \\u0646\\u06cc\\u0627\\u0632\\u06cc'
tp128
a(S'100006684426462'
S'Sediq Asad Laghmani'
tp129
a(S'100008383922911'
S'\\u0647\\u0627\\u0631\\u0648\\u0646 \\u0627\\u0634\\u0646\\u0627'
tp130
a(S'100007121744310'
S'Sameerahmad Haqyar'
tp131
a(S'100007753891847'
S'Sadamhussain Omaid'
tp132
a(S'100006687491767'
S'\\u0646\\u0693\\u06cc\\u0648\\u0627\\u0644 \\u067e\\u0631\\u0645\\u062e\\u062a\\u06ab \\u0627\\u0646\\u0633\\u062a\\u06cc\\u062a\\u0648\\u062a'
tp133
a(S'100004902127017'
S'Jhangeer Arab'
tp134
a(S'1019155179'
S'Ubaidullah Abid'
tp135
a(S'100003142228594'
S'Mahbob Sahil'
tp136
a(S'100000349306412'
S'Safi Ullah Faizi'
tp137
a(S'100002613614495'
S'Wafa Azim'
tp138
a(S'100007695964536'
S'\\u062f\\u0639\\u0632\\u06cc\\u0632\\u062e\\u0627\\u0646 \\u06a9\\u0685 \\u0634\\u0648\\u0631\\u0627'
tp139
a(S'100003056205832'
S'Nadia Naseem'
tp140
a(S'100006512731500'
S'Adil Mangal'
tp141
a(S'100007440844111'
S'Mohmmad Qasim Rawan'
tp142
a(S'100008102622694'
S'Hasina Wafa'
tp143
a(S'100003666699068'
S'Shams Rahman'
tp144
a(S'100001111933142'
p145
S'Shafi Jailani'
tp146
a(S'100005604340707'
S'Tariqaziz Ahmadi'
tp147
a(S'100001657897902'
S'Zubair Jabarkhail'
tp148
a(S'100007511433807'
S'Hashmatullah Atazada'
tp149
a(S'803649089'
S'Muhammad Asif Shah Siddiqui'
tp150
a(S'100005343492073'
S'Farishta Laghmani'
tp151
a(S'100008030802167'
S'\\u0628\\u0631\\u064a\\u0634\\u0646\\u0627 \\u0627\\u0645\\u06cc\\u0644'
tp152
a(S'100008069614356'
S'Abdullah Sahar'
tp153
a(S'795760053'
p154
S'Aziz Hewad'
tp155
a(S'100008274281488'
S'Khairkhwa Wushu'
tp156
a(S'100000156968928'
S'Shirzad Safi Laghmani'
tp157
a(S'100006698405273'
S'Sultanwais Tanha'
tp158
a(S'100008000862818'
S'Bilal Nasiry'
tp159
a(S'100001792431740'
p160
S'Abdul Majeed Jabarkhil'
tp161
a(S'100005362597392'
S'Yasir Hamdard'
tp162
a(S'100007180957728'
S'Drmohmadali Habibi'
tp163
a(S'100006874088595'
S'Imranullah Hamraz'
tp164
a(S'100001401494604'
S'Abdul Saboor Safi'
tp165
a(S'100000845219120'
p166
S'M Shah Siddiqi'
tp167
a(S'100004667522793'
S'Shams Noori'
tp168
a(S'100007198110967'
S'Nasihullah Nasih'
tp169
a(S'100003025243158'
S'Graan Dawari'
tp170
a(S'100001802357361'
S'Najeebhemat Malikzai'
tp171
a(S'100004017065250'
S'Habib Rasool Masuod'
tp172
a(S'100000559325568'
S'Abdul Saboor Sabiri'
tp173
a(S'100002069657218'
S'Sami Ullah Laghmani'
tp174
a(S'100007567360944'
S'Najibullah Khan'
tp175
a(S'100004136310956'
S'Akip Mike'
tp176
a(S'100007278335158'
S'Laghman Zindabad'
tp177
a(S'100006810696559'
S'Karim Habibi'
tp178
a(S'100008057190468'
S'\\u0627\\u0646\\u062c\\u06cc\\u0646\\u0631\\u0627\\u062d\\u0633\\u0627\\u0646 \\u0627\\u0644\\u0644\\u0647 \\u0648\\u0632\\u06cc\\u0631\\u0632\\u06cc \\u0648\\u0631\\u062f\\u06af'
tp179
a(S'100005165678311'
S'Ziaullah Sahil'
tp180
a(S'100004662841382'
S'Irfanullah Mashal Nasery'
tp181
a(S'100000538034532'
S'\\u0641\\u0631\\u064a\\u0634\\u062a\\u0647 \\u0642\\u0627\\u062f\\u0631\\u064a'
tp182
a(S'100008191682901'
S'Ashratullah Laghmani'
tp183
a(S'100006701915312'
S'Seema Sadat'
tp184
asS'id'
p185
S'100008240853382'
p186
sS'name'
p187
S'Sarwar Haidari'
p188
s.