(dp1
S'friends'
p2
(lp3
(S'100004083310308'
S'Nirmal Dubey'
tp4
a(S'100004056726289'
S'Uttam Dutta Bjp'
tp5
a(S'100002962325220'
S'Bjp Delhi Pradesh Convener'
tp6
a(S'100006803946889'
S'Raju Lohia'
tp7
a(S'100001482978054'
S'Deep Om Pushap'
tp8
a(S'100004569635231'
S'Hindu Sena'
tp9
a(S'100001563972139'
S'Anil Kumar'
tp10
a(S'100000650495207'
S'Nawab Satpal Tanwar'
tp11
a(S'100005917122426'
S'Virender Sehrawat Binde'
tp12
a(S'100004584127278'
S'Kumbhsingh Rathore Siwana Bjym'
tp13
a(S'100004094920526'
S'Dharmendra Vaishnav Rss'
tp14
a(S'100004055650133'
S'Rupesh Madan'
tp15
a(S'100002299240844'
S'Prempal Singh'
tp16
a(S'100002596327765'
S'Amresh Chaubey'
tp17
a(S'100003471426598'
S'Ajay Singh'
tp18
a(S'100003183097367'
S'Saroj Sansanwal'
tp19
a(S'100002778670160'
S'Narender Janoti'
tp20
a(S'100003605593537'
S'Sunil Rai'
tp21
a(S'100003705643733'
S'Radhey Shyam Sharma'
tp22
a(S'100001572724508'
S'Dushyant Kumar Gautam'
tp23
a(S'100000050746491'
S'Narinder Chugh'
tp24
a(S'100002482130590'
S'Shiv Panwar Gujjar'
tp25
a(S'100001885517792'
S'Narender Thakur'
tp26
a(S'100006520714361'
S'Babloo Gehlaut'
tp27
a(S'100005021078452'
S'Baijnath Gupt'
tp28
a(S'100000779015270'
S'Nishant Dwivedi'
tp29
a(S'100005209950064'
S'\\u0939\\u093f\\u0902\\u0926\\u0942 \\u0938\\u0902\\u0938\\u094d\\u0915\\u0943\\u0924\\u093f \\u0938\\u0902\\u0917\\u0920\\u0928'
tp30
a(S'100003215565089'
S'Narayan Singh Dewal Bjp'
tp31
a(S'100003095708711'
S'Manoj Shokeen'
tp32
a(S'100004975594826'
S'Nitin Goel'
tp33
a(S'100005118192134'
S'Harmeet Singh Sandhu'
tp34
a(S'100005060052532'
S'Narendramodi Youthbrigade'
tp35
a(S'100003571270624'
S'Gau Sevagroup'
tp36
a(S'100000900194266'
S'Deep Silodi Anchal Cassettes'
tp37
a(S'100004078747820'
S'Gulshan Bansal'
tp38
a(S'100003877796141'
S'Shambhu Singh Rathore Tinwari'
tp39
a(S'100005430224228'
S'Madhavarao Rajole'
tp40
a(S'100000861128505'
S'Sher Singh Dagar'
tp41
a(S'100000193239431'
S'Anand Gates'
tp42
a(S'100003198021670'
S'Dinesh Jat'
tp43
a(S'100004370676755'
S'Ankit Parihar'
tp44
a(S'1077060099'
S'Anand Singh'
tp45
a(S'100001985195207'
S'Narender India'
tp46
a(S'100003685333811'
S'Jeewraj Jangid'
tp47
a(S'100003195120346'
S'Muthu Swamy Kms'
tp48
a(S'100006547658376'
S'Bjp Brahm Prakash Tokas'
tp49
a(S'100002373915636'
S'Jitendra Mehta'
tp50
a(S'100004865924633'
S'Raghuwar Das'
tp51
a(S'100001394485119'
S'Rajesh Prasad'
tp52
a(S'100001662436038'
S'Kishan Ojha'
tp53
a(S'100004900563659'
S'\\u0920\\u093e\\u0915\\u0941\\u0930 \\u0905\\u0935\\u093f\\u0928\\u093e\\u0936 \\u0938\\u093f\\u0901\\u0939 \\u0905\\u092e\\u0947\\u0920\\u093f\\u092f\\u093e'
tp54
a(S'100005021855610'
S'Sharma Pravin'
tp55
a(S'100000707436486'
S'Vikash Tiwari'
tp56
a(S'100004557515657'
S'Anita Srivastava'
tp57
a(S'100000532114180'
S'\\u0938\\u0947\\u0928\\u0940\\u0926\\u093e\\u0928 \\u0938\\u093f\\u0902\\u0939 \\u091a\\u093e\\u0930\\u0923 \\u0909\\u0926\\u0930\\u093e\\u0938\\u0930'
tp58
a(S'1068183415'
S'Lokesh Passi'
tp59
a(S'100005144821572'
S'Dhanraj Nagar'
tp60
a(S'100001610686303'
S'Anil Sharma'
tp61
a(S'100002756817952'
S'Yogesh Shokeen'
tp62
a(S'100001995239068'
S'Sumit Goel'
tp63
a(S'100006379710942'
S'Hukam Nagar'
tp64
a(S'100005004403052'
S'Arun Chaurasiya'
tp65
a(S'100000561595993'
S'Vanar Sena'
tp66
a(S'100005143991587'
S'Kanhaiyalal Mishra'
tp67
a(S'688457747'
S'Ajay Gargi'
tp68
a(S'742492431'
S'Shyam Sharma'
tp69
a(S'100001845650431'
S'Chandan Kumar Singh'
tp70
a(S'100003321461133'
S'Prashant Bharti'
tp71
a(S'100005138825025'
S'Raaj Modi'
tp72
a(S'100002949417361'
S'Yogesh Tripathi'
tp73
a(S'100005171796633'
S'Bjp Kodigehalli'
tp74
a(S'100003381790901'
S'Suresh Singresiya'
tp75
a(S'100003366583481'
S'Puneet Singh'
tp76
a(S'100005565910453'
S'Sarika Verma'
tp77
a(S'100003012243154'
S'Vinod Gaur'
tp78
a(S'100000916190935'
S'Sushant Gupta'
tp79
a(S'100004457440466'
S'Vasant Thakur'
tp80
a(S'100005519403490'
S'Okorie Gift'
tp81
a(S'100004301525085'
S'Vinod Sharma'
tp82
a(S'100006686559696'
S'Acp Narenderjanoti'
tp83
a(S'100005064818930'
S'Vinod Bjp'
tp84
a(S'100001434654753'
S'Monu Sahu'
tp85
a(S'100004917307987'
S'Rajendra Nagar Abvp Tigers'
tp86
a(S'100002202685553'
S'Deepak Diwakar'
tp87
a(S'100005171882783'
S'Akhil Dhawan'
tp88
a(S'100000865124623'
S'Hari Tiwari'
tp89
a(S'100000409655295'
p90
S'Gaurav Kumar'
tp91
a(S'100003262018551'
S'Krishan Kalirawna'
tp92
a(S'100003628436812'
S'Gujarat Yuva'
tp93
a(S'100002580743952'
S'Raj Kumar Prajapat'
tp94
a(S'100005133069982'
S'Don K Friday'
tp95
a(S'100001697331093'
S'Sanjay Aggarwal'
tp96
a(S'100003683760048'
S'Pankaj Mishra'
tp97
a(S'100003575876163'
S'Shanu M Nair'
tp98
a(S'100005174853578'
S'Fourette Maiga'
tp99
a(S'100003376818305'
S'Dilip Sharma'
tp100
a(S'100002129158022'
S'Kamlender Bhushan Sharma'
tp101
a(S'100001084714660'
S'Hari Singh'
tp102
a(S'100002646823167'
S'Satyam Patel'
tp103
a(S'100003706826742'
S'\\u0930\\u092e\\u0947\\u0936\\u091a\\u0928\\u094d\\u0926\\u094d\\u0930 \\u092a\\u0930\\u092e\\u093e\\u0930 \\u092a\\u0902\\u091a\\u0926\\u0947\\u0939\\u0930\\u093f\\u092f\\u093e \\u092d\\u093e\\u091c\\u092a\\u093e'
tp104
asS'id'
p105
S'100005165161859'
p106
sS'name'
p107
S'Narender Modi Rk Puram'
p108
s.