(dp1
S'name'
p2
S'Ahona Mehzaben'
p3
sS'current_class'
p4
S'bangladesh'
p5
sS'home_class'
p6
Vdhaka, bangladesh
p7
sS'home_text'
p8
VDhaka, Bangladesh\u000aHometown
p9
sS'current_link'
p10
Vhttps://www.facebook.com/l.php?u=https%3A%2F%2Fwww.bing.com%2Fmaps%2Fdefault.aspx%3Fv%3D2%26pc%3DFACEBK%26mid%3D8100%26where1%3D23.700001017166%252C%2B90.374908447266%26name%3DDhaka%252C%2BBangladesh%26mkt%3Den-IN&h=sAQH_VT0j&s=1
p11
sS'home_link'
p12
Vhttps://www.facebook.com/l.php?u=https%3A%2F%2Fwww.bing.com%2Fmaps%2Fdefault.aspx%3Fv%3D2%26pc%3DFACEBK%26mid%3D8100%26where1%3D23.700001017166%252C%2B90.374908447266%26name%3DDhaka%252C%2BBangladesh%26mkt%3Den-IN&h=XAQHdl2QS&s=1
p13
sS'current_text'
p14
VDhaka, Bangladesh\u000aCurrent City
p15
sS'friends'
p16
(lp17
(S'100007443723919'
S'Rakib Hossain'
tp18
a(S'100006922486593'
S'Nazim Uddin'
tp19
a(S'100007546869125'
S'Akon Sagor'
tp20
a(S'100008156113758'
S'Khorshed Alam'
tp21
a(S'100002934002466'
p22
S'Ahona Mehzaben'
tp23
a(S'100006091577094'
S'Rana Naveed'
tp24
a(S'100007129060964'
S'Mojahedul Islam Arfan'
tp25
a(S'100005914121301'
S'Fakibaj Er Don'
tp26
a(S'100005162297354'
S'\\u09b8\\u09be\\u099c\\u09c0\\u09a6 \\u09b0\\u09b9\\u09ae\\u09be\\u09a8 \\u09b0\\u09bf\\u09b6\\u09be\\u09a6'
tp27
a(S'100008329146620'
S'Farhan Ahamed Uzzal'
tp28
a(S'100004307379681'
S'\\u0627\\u0644\\u0641\\u0647\\u062f \\u0627\\u0644\\u062d\\u0627\\u0632\\u0645\\u064a'
tp29
a(S'100007725395988'
S'Sabbir Hossain'
tp30
a(S'100008394037025'
S'Md Saiful Islam'
tp31
asS'id'
p32
g22
s.