(dp1
S'current_text'
p2
VKarachi, Pakistan\u000aCurrent City
p3
sS'name'
p4
S'Iffe Jutt'
p5
sS'current_class'
p6
S'pakistan'
p7
sS'friends'
p8
(lp9
(S'100000420070165'
S'Haram Atif'
tp10
a(S'100003687010458'
S'Sana Meer'
tp11
a(S'100003361497692'
S'Quratulain Bano'
tp12
a(S'100003411621051'
S'Dazzling Irfan'
tp13
a(S'100001105307069'
S'Ainee Irfan'
tp14
a(S'100003662301824'
S'Iffi Hamaiti'
tp15
a(S'100001993825663'
S'Khan Muxxamal'
tp16
a(S'100003843789693'
S'Irfan Ali Ifee'
tp17
a(S'100001982555114'
S'Mewish Jabeen'
tp18
a(S'100003655964651'
S'Ayesha Ali'
tp19
a(S'100001528792934'
S'Nayyab Khan'
tp20
a(S'100004613470085'
S'Aine Butt'
tp21
asS'id'
p22
S'100004588418876'
p23
sS'current_link'
p24
Vhttps://www.facebook.com/l.php?u=https%3A%2F%2Fwww.bing.com%2Fmaps%2Fdefault.aspx%3Fv%3D2%26pc%3DFACEBK%26mid%3D8100%26where1%3D24.859999933159%252C%2B67.009735107422%26name%3DKarachi%252C%2BPakistan%26mkt%3Den-IN&h=LAQHvCdHC&s=1
p25
s.