(dp1
S'friends'
p2
(lp3
(S'100006403149164'
S'Akhil Chandran'
tp4
a(S'100003850976270'
S'Jerin George'
tp5
a(S'100005697254472'
S'Anish Mahendran'
tp6
a(S'100003359236075'
S'Gracious John Samuel'
tp7
a(S'100005646637535'
S'Jithin Manohar'
tp8
a(S'100006695802422'
S'Anushka Raj'
tp9
a(S'100004114177606'
S'Sree Lekshmi R'
tp10
a(S'100006027429981'
S'Nowfal Sakkeer'
tp11
a(S'100003968530618'
S'Sudheesh Babu'
tp12
a(S'100003669532267'
S'Midhun Viswam'
tp13
a(S'100003010788838'
S'SaaNu K ThoMas'
tp14
a(S'100004394680338'
S'Santhanu Laoch'
tp15
a(S'100003860394448'
S'Saneesh Benny'
tp16
a(S'100007412562532'
S'Archanaramachandran Ramachandran'
tp17
a(S'100003349936615'
S'Ashik Pop Rockzz'
tp18
a(S'100006051004334'
S'Amal Valsalan'
tp19
a(S'100008214011370'
S'Anshad Appu'
tp20
a(S'100007804656981'
S'Sudeep SIvan'
tp21
a(S'725148053'
S'Yasiq Razak'
tp22
a(S'100000751416012'
S'Manu ThanniThodu'
tp23
a(S'100003108191456'
S'Sam Shaji'
tp24
a(S'100003568783796'
S'Sachu Krishna'
tp25
a(S'100004895823681'
S'Ratheesh Chandran Pattazhi'
tp26
a(S'100002884391301'
S'Abhin Srk Abi'
tp27
a(S'100008231979412'
S'Aiswarya Appukuttan'
tp28
a(S'100004035166540'
S'Appu Ps'
tp29
a(S'100004203245240'
S'Koickal Lijo Jose Thomas'
tp30
a(S'100001775779382'
S'Priya Mohandas'
tp31
a(S'100002882974803'
S'Santo Thomas'
tp32
a(S'100005521395809'
S'Gary Jacob Mathew'
tp33
a(S'100006431591662'
S'Siju Ks Elanthoor'
tp34
a(S'100004354841983'
S'Jishnu Vijayan'
tp35
a(S'100004730109606'
S'Ratheesh TR'
tp36
a(S'100003273995523'
S'Appu Abhi SpRz'
tp37
a(S'100006539715646'
S'Robin Philip'
tp38
a(S'511947139'
S'Anoop Viswam'
tp39
a(S'100004266250088'
S'Anu Th\\u00f8mas'
tp40
a(S'100007227032064'
S'Ana N Dh UZ'
tp41
a(S'100006607866244'
S'Jobin Raju'
tp42
a(S'100004253617218'
S'Akhil Pariyaram'
tp43
a(S'100006685051103'
S'Sumesh Kn'
tp44
a(S'100002357247296'
S'Sibi Thum\\u00dfon'
tp45
a(S'100008138204610'
S"Aswathi Achu's"
tp46
a(S'100003126213531'
S'Fyzal Pathanapuram'
tp47
a(S'100007743816330'
S'Shyam Saji'
tp48
a(S'100002442630385'
S'Derin Philip Varugheez'
tp49
a(S'100008379302986'
S'Rahul Achu'
tp50
a(S'100004440930076'
S'Lejin Varghese Dqr'
tp51
a(S'100008244186803'
S'Saranya S Aranmula'
tp52
a(S'100003797184610'
S'Nirm Al Gopi'
tp53
a(S'100004790648003'
S'Melvin Trivandrum'
tp54
a(S'100001138839380'
S'Arun Kumar Pg'
tp55
a(S'100006912973839'
S'Anandhu Kurumthar'
tp56
a(S'100002632596751'
S'Pradeep Vazhamuttom'
tp57
a(S'100007783534046'
S'Manu Karamvely'
tp58
a(S'100005084593872'
S'Binoy Maramon'
tp59
a(S'100004025380525'
S'Hamiya Hassan'
tp60
a(S'100003218296938'
S'Anandhu Krish'
tp61
a(S'100004897273433'
S'Krishnanand Krishna'
tp62
a(S'100002813290811'
S'Kiran K Raj'
tp63
a(S'100002951376315'
S'Rafeek Konni'
tp64
a(S'100002646247478'
S'Joji C J Thannithode'
tp65
a(S'100007993834323'
S'Ammu Ammus'
tp66
a(S'100006746953322'
S'Adithya S Nair'
tp67
a(S'100001007071608'
S'Sijo Mathew'
tp68
a(S'100002348525733'
S'Renny P Joy'
tp69
a(S'100003641528938'
S'ALan BaJu'
tp70
a(S'100002711025725'
S'Joshwin Lukose'
tp71
a(S'100007783354784'
S'Priyanka Priya'
tp72
a(S'100001438628377'
S'Vishnu Ks'
tp73
a(S'100008134502235'
S'Ammu Gopi Krishnan'
tp74
a(S'100003499305425'
S'Jithu Abraham'
tp75
a(S'100005267011443'
S'Adesh K Kumar'
tp76
a(S'100004106556314'
S'Rahul Raju'
tp77
a(S'100006504438803'
S'Jishnu Jishnu'
tp78
a(S'100003336651808'
S'Santhanu Karma'
tp79
a(S'100007993809724'
S'Appu Poppinz'
tp80
a(S'100006571445921'
S'Athira Krishnan'
tp81
a(S'100003647551051'
S'Renjith Pathanapuram'
tp82
a(S'100003785041379'
S'Jince Abraham Puthenpurail'
tp83
a(S'100002231329577'
S'Jomon Thomas'
tp84
a(S'100006941442578'
S'Minnu Mol'
tp85
a(S'100008003133616'
S'Shah Sehrish'
tp86
a(S'1007425928'
S'Nandu Ks'
tp87
a(S'100002668160889'
S'Sijo Abraham'
tp88
a(S'100002751395373'
S'Smrithi S Krishna'
tp89
a(S'100007578995189'
S'Anoop Anil'
tp90
a(S'100008132971999'
S'Jeena Mathew'
tp91
a(S'100006889080575'
S'Rahul Pathanamthitta'
tp92
a(S'100004947932451'
S'Sarath Kumar M'
tp93
a(S'100005191295566'
S'Adarsh J Chandran Rkz'
tp94
a(S'100007275062819'
S'Rahul Rajan'
tp95
a(S'100002141771942'
S'Anish Animon'
tp96
a(S'100003032930872'
S'Par Mes Ido'
tp97
a(S'100002424502523'
S'Manu Krishna'
tp98
a(S'100006016208539'
S'Manu Murali'
tp99
a(S'100006678515439'
S'Bi J IN'
tp100
a(S'100003980979032'
S"Red Army's Karakkad"
tp101
a(S'100008160581763'
S'Archana Raj'
tp102
a(S'100001614782810'
S'Anu Joseph'
tp103
a(S'100003859971547'
S'Sajina Doley'
tp104
a(S'100005577878758'
S'Sanoop Soman'
tp105
a(S'100005158986411'
S'Vishnu Das'
tp106
a(S'100006529096417'
S'Akhilesh Ram'
tp107
a(S'100008184699779'
S'Hema Chaithanya'
tp108
a(S'100005254478977'
S'Robin Raju'
tp109
a(S'100004287335232'
S'Anandu Aji'
tp110
a(S'100005979099258'
S'Vishnu Prasad'
tp111
a(S'100008081953184'
S'Akhil Suresh'
tp112
a(S'100005302230429'
S'Shiva M Shiva M'
tp113
a(S'100003815866170'
S'Adesh Kumar'
tp114
a(S'100000337435726'
S'Sajay Johns'
tp115
a(S'100004700131694'
S'Angel Mary Aby'
tp116
a(S'100008251892084'
S'Pooja S Krishna'
tp117
a(S'100005800263847'
S'Vinesh Kalanjoor'
tp118
a(S'100004384332696'
S'Hari R Chandran'
tp119
a(S'100002034730080'
S'Shibin David'
tp120
a(S'100002991325379'
S'Faisal Faisu'
tp121
a(S'100004996831044'
S'Jibin Kumbanad'
tp122
a(S'100005082403006'
S'Sobhana Gopalan'
tp123
a(S'100004860460676'
S'Anish Kalayil Pullad'
tp124
a(S'100003062773693'
S'Jebin Joseph Adoor'
tp125
a(S'100003034792509'
S'Soumya Biju'
tp126
a(S'100004623272494'
S'Deepthi Emozzy'
tp127
a(S'100002826653987'
S'Arun C Nair'
tp128
a(S'100006652920428'
S'Abhijith Prasad Achary'
tp129
a(S'100006799152251'
S'Jobin Raju'
tp130
a(S'100004034408533'
S'Akhil Karakkattu'
tp131
a(S'100007377369035'
S'Sreelakshmi Sree'
tp132
a(S'100008305458759'
S'Jishnu NM'
tp133
a(S'100004717655255'
S'Midhun Manohar'
tp134
a(S'100005627143069'
S'Jibin Mathew'
tp135
a(S'100003828619560'
S'Jishnu Chikku'
tp136
a(S'100003561904652'
S'Aravind K Reji'
tp137
a(S'100000285317331'
S'Roshen P. Raju'
tp138
a(S'100006312870110'
S'Muhammad Ashik'
tp139
a(S'100001292629144'
S'Nithin Sreekumar'
tp140
a(S'100005811188055'
S'Robin Raju'
tp141
a(S'100005617173501'
S'Jerr\\u00een S\\u00e1m'
tp142
a(S'100007898531053'
S'Parvathi S Nair'
tp143
a(S'100004788753450'
S'Anoop Sfi'
tp144
a(S'100003104859162'
S'Linu Varghese'
tp145
a(S'100004953121856'
S'Jibin B Sam'
tp146
a(S'100004342982458'
S'Anjali Pillai'
tp147
a(S'100008262046453'
S'Aparna R Kurup'
tp148
a(S'100006437148863'
S'Jeffin Johnson Kayyalackal'
tp149
a(S'100003308142499'
S'Pravinesh Kumar'
tp150
a(S'100006589902856'
S'Vishnu Prasad'
tp151
a(S'100003241445617'
S'Niyas Nazeer'
tp152
a(S'100003059723313'
S'Jyothish Pjoshua'
tp153
a(S'100007273232384'
S'Archana Achu'
tp154
a(S'100007961765000'
S'Bapputty Karamveli'
tp155
a(S'100003684893465'
S'Meghna S Siva'
tp156
a(S'100000644689879'
S'Jithin J Kurup'
tp157
a(S'100006465419748'
S'Nandhu Nandhu'
tp158
a(S'100006388421182'
S'Vichu V\\u00efsh\\u00e4l'
tp159
a(S'100002567890093'
S'Sreethu Sree BVz'
tp160
a(S'100006799414976'
S'Sreethu Punkz Jr.'
tp161
a(S'100003901616236'
S'Praise Jose'
tp162
a(S'100002615791310'
S'Aalia Chopra'
tp163
a(S'100004577044306'
S'Gouri Kichu'
tp164
a(S'100005782778181'
S'Vishnu Raj'
tp165
a(S'100005546345954'
S'Reji Kuzhikandathil Gangadharan'
tp166
a(S'100002779276060'
S'Sudheer S Nair'
tp167
a(S'100005253609014'
S'Aneesh Nair Arakkuparamba'
tp168
a(S'100002684232337'
S'Maneesh Babu'
tp169
a(S'100006801487350'
S'Shyju K Abraham'
tp170
a(S'100005617026615'
S'Aravind Regi'
tp171
a(S'100006358479634'
S'Preethu Deepu'
tp172
a(S'100002070957231'
S'Jobin Kizhakethil'
tp173
a(S'100003734592906'
S'Aswin Rbz'
tp174
a(S'100001494554771'
S'Jafee James'
tp175
a(S'100007401397578'
S'Aparna R Kurup'
tp176
a(S'100002666197551'
S'Elwin B Simon'
tp177
a(S'100003826873761'
S'Rahul Raveedran Achari'
tp178
a(S'100002647294746'
S'Kannan K Prakash'
tp179
a(S'100006422500350'
S'Anju Priya'
tp180
a(S'100002633833881'
p181
S'Benny Pj'
tp182
a(S'100007263062858'
S'Adhi Dheve'
tp183
a(S'100002480832404'
S'Aravind Saji'
tp184
a(S'100006579452421'
S'Christin Varghese'
tp185
a(S'100005460032859'
S'Alan Rlz'
tp186
a(S'100006649964587'
S'Ashik Bin Abdulmajeed'
tp187
a(S'100004279981964'
S'Rinkesh Rn\\u00dfx InsoMnaic'
tp188
a(S'100005004301361'
S'Sandeep Kumar S Appu'
tp189
a(S'100003558264248'
S'Devan P Suresh'
tp190
a(S'100005857601617'
S'Abhilash Rajan'
tp191
a(S'100003866651751'
S'Ajin Ajith'
tp192
a(S'100002240815094'
S'Litto CT'
tp193
a(S'100001403750815'
S'Joby Soman'
tp194
a(S'100001770386556'
S'Shijo Orange'
tp195
a(S'100002500244956'
S'Binas Konni Sfi'
tp196
a(S'100005548659409'
S'Bineesh B Nair'
tp197
a(S'100005724241621'
S'JIs H Nu'
tp198
a(S'100008089512682'
S'Maya Chandhran'
tp199
a(S'100002748183391'
S'Soju Lckr'
tp200
a(S'100004322311014'
S'Binoop P Bhadran'
tp201
a(S'100005761027676'
S'Vineeth Mohanan'
tp202
a(S'100003479341908'
S'Bellet Binu Kalanjoor'
tp203
a(S'100002842615138'
S'Rahul R Pillai'
tp204
a(S'100004029386256'
S'Abhijith Hari'
tp205
a(S'100003069486443'
S'Anantha Krishnan M'
tp206
a(S'100002748964976'
S'Rumba Brothers'
tp207
a(S'100002928686504'
S'Jishnu Somaraja Varma Sfi'
tp208
a(S'100002410875394'
S'Rajesh Rajan'
tp209
a(S'100003240985010'
S'Job Jacob'
tp210
a(S'100006666845234'
S'Amal S Pillai'
tp211
a(S'100004863512814'
S'Alan Babu Kitchu'
tp212
a(S'100003562811569'
S'Jobin Johnson'
tp213
a(S'100006391272478'
S'Prasanth Prashu'
tp214
a(S'100002343320607'
S'\\u0126\\u00eb\\u0105\\u0159tt \\u00df\\u0119\\u00e2t Nikkit\\u00e2'
tp215
a(S'100003597075456'
S'Greeshma S Nair'
tp216
a(S'100004258301556'
S'Elvin Edge'
tp217
a(S'100007167304897'
S'Vijesh Vm'
tp218
a(S'100004092582830'
S'Ligin Varghese'
tp219
a(S'100006696134438'
S'Subash Ks'
tp220
a(S'100006110798598'
S'Appu Aswin'
tp221
a(S'100002939571966'
S'Subin P Sam SmtByz'
tp222
a(S'100007442432793'
S'Amal Nellikala'
tp223
a(S'100002555582310'
S'Monish Muttumannil'
tp224
a(S'100003356104891'
S'Santhanu Karma Prince'
tp225
a(S'100002990162028'
S'Aswin Prakash'
tp226
a(S'100003465230446'
S'Richu Babu'
tp227
a(S'100005738404530'
S'Abhijith Hari'
tp228
asS'id'
p229
S'100002863183022'
p230
sS'name'
p231
S'Bijin B Shaji'
p232
s.