(dp1
S'friends'
p2
(lp3
(S'100001410642545'
S'Parveen Bairwa'
tp4
a(S'100001477878803'
S'Harish Chand Sharma'
tp5
a(S'100001025588649'
S'Harish Pancholi'
tp6
a(S'100002007604995'
S'Parul Agarwal'
tp7
a(S'100000370421944'
S'Rathore Abhay Singh'
tp8
a(S'100003142554481'
S'Sakshi Sharma'
tp9
a(S'100001996145259'
S'Riya Gupta'
tp10
a(S'100000575655339'
S'Dinkar Agarwal'
tp11
a(S'100001322325022'
S'Priya Sharma'
tp12
a(S'100002651293549'
S'Manish Nemani'
tp13
a(S'100001213430043'
S'Ashish Dhawan'
tp14
a(S'100001988814140'
S'Abhimanyu Choudhary'
tp15
a(S'100001529973831'
S'Ankur Sharma'
tp16
a(S'100002212615932'
S'Ruchi Rathore'
tp17
a(S'100002173153031'
S'Raj Roy'
tp18
a(S'100000543197926'
S'Dharmendra Singh Rajawat'
tp19
a(S'100001903855286'
S'Himanshu Soni'
tp20
a(S'100001201969502'
S'Azam Ali'
tp21
a(S'100002887239854'
S'Rohit Soni'
tp22
a(S'100002574795322'
S'Mujtaba Javaid'
tp23
a(S'100002276678541'
S'Navneet Thakur'
tp24
a(S'1739242629'
S'Kirti Agarwal'
tp25
a(S'100001887666892'
S'Rajesh Bral'
tp26
a(S'100001056575137'
S'Sachin Sharma'
tp27
a(S'100002035541774'
S'Aditi Sharma'
tp28
a(S'100000104547623'
S'Chaman Prakash Ray'
tp29
a(S'100001981419431'
S'Anjali Sharma'
tp30
a(S'100002587535000'
S'Paramveer Singh Khangarot'
tp31
a(S'100000851713965'
S'Kuldeep Boudh'
tp32
a(S'100002414516154'
S'Radha Saini'
tp33
a(S'100001117356094'
S'Farooq Khatr Farooq'
tp34
a(S'100001786531346'
S'Rakesh Sharma'
tp35
a(S'100001743977374'
S'Shalini Shah'
tp36
a(S'100002212610535'
S'Jalpa Mori'
tp37
a(S'100004095834226'
S'Avinandan Sharma'
tp38
a(S'100001776632434'
S'Rameez Raja'
tp39
a(S'100001414618640'
S'Rakhi Mittal'
tp40
a(S'100002351808360'
S'Sweetu Patel'
tp41
a(S'100001329845732'
S'Diya Agrawal'
tp42
a(S'100002923307272'
S'Prince Bharat Sharma'
tp43
a(S'100002076197842'
S'Vishnu Singh Rajput'
tp44
a(S'100001919037037'
S'Trisha Sehgal'
tp45
a(S'100000012563142'
S'Rishi Garg'
tp46
a(S'100001162573626'
S'Abhi Shri'
tp47
a(S'100002615495358'
S'Jaipur Choice'
tp48
a(S'1614093655'
S'Tarun Choudhary'
tp49
a(S'100002337613074'
S'Sarvesh Vengurlekar'
tp50
a(S'100001833868181'
S'Neeraj Kanoi'
tp51
a(S'100002392878927'
S'Ishika Sharma'
tp52
a(S'1317743517'
S'Nupur Anirudh Gupta'
tp53
a(S'100002518497505'
S'Dev Koli'
tp54
a(S'100002017450034'
S'Kiran Yadav'
tp55
a(S'100001931946864'
S'Ekta Sharma'
tp56
a(S'100000749060770'
S'Ankit Agarwal'
tp57
a(S'100002361046923'
S'Ramakant Sharma'
tp58
a(S'100001089774055'
S'Randy Troy'
tp59
a(S'100000982434396'
S'Hemant Tayal'
tp60
a(S'100002185474345'
S'ErGaurav Kuntal'
tp61
a(S'100000752928078'
S'Rahul Gaurav'
tp62
a(S'100000724033693'
S'Shagun Rishi'
tp63
a(S'100001645429266'
S'Anjali Singh Choudary'
tp64
a(S'100000808639554'
S'Reyan Khan'
tp65
a(S'100000900517242'
S'Saket Nandan'
tp66
a(S'100001407077513'
S'Ashima Sharma'
tp67
a(S'100002266952195'
S'Amit Kakkad'
tp68
a(S'100001879898085'
S'Ravi Santani'
tp69
a(S'100002547205267'
S'Ankita Dahiya'
tp70
a(S'100001090488507'
S'Er Deepak Choudhary'
tp71
a(S'100002425723480'
S'Mahesh Kumawat'
tp72
a(S'100002113974636'
S'Deepakmani Sharma'
tp73
a(S'100001987803136'
S'Rafeek Mohammed'
tp74
a(S'100001359821989'
S'Mahender Nath'
tp75
a(S'100002065617002'
S'Vishal Vishal Don'
tp76
a(S'100001860087202'
S'Suresh Kumar'
tp77
a(S'786397761'
S'Asad Said'
tp78
a(S'100001689617796'
S'Golla Prasad Raj'
tp79
a(S'100000329080492'
S'Deepak Pathak'
tp80
a(S'100000814129003'
S'Rohit Bansal'
tp81
a(S'100000914062062'
S'Shubham Thakur'
tp82
a(S'100000263788774'
S'Rajan Mangvana'
tp83
a(S'1596729819'
S'Miikka M\\u00f6rsky'
tp84
a(S'100002420765118'
S'Saurav Kumar'
tp85
a(S'100002359017233'
S'Rekha Rajput'
tp86
a(S'100002347152570'
S'Manish Mhaprolkar'
tp87
a(S'100002449034180'
S'Dharmendra Gupta'
tp88
a(S'100001373332925'
S'Aasha Sharma'
tp89
a(S'100000344456341'
S'Robin Beniwal'
tp90
a(S'100001487140562'
S'Maddy Sawhney'
tp91
a(S'100002345388498'
S'Ananya Roy'
tp92
a(S'100002627857238'
S'Nemet Abishov'
tp93
a(S'100001565467984'
S'Brijesh Sahu'
tp94
a(S'100002266726863'
S'Aniket Phutane'
tp95
a(S'100001866505164'
S'Atul Tailwal'
tp96
a(S'100002733360689'
S'Saikh Aasif'
tp97
a(S'100000558623073'
S'Bhavya Joshi'
tp98
a(S'100002286653652'
S'Suneel Kumar'
tp99
a(S'100002279598562'
S'Akash Sonawane'
tp100
a(S'100002302240970'
S'Ajit Chahar'
tp101
a(S'100002117118410'
S'Nadiya Tanwar'
tp102
a(S'100001487312526'
S'Dr-Sahil Garg'
tp103
asS'id'
p104
S'100002311291586'
p105
sS'name'
p106
S'Riya Agrawal'
p107
s.