(dp1
S'friends'
p2
(lp3
(S'100000338229551'
S'Kartik Mittal'
tp4
a(S'1605848028'
p5
S'Apala Mishra'
tp6
a(S'100002021904371'
S'Hyder Amin'
tp7
a(S'1474832891'
S'Hemang Bansal'
tp8
a(S'1535667795'
S'Ipsita Bajaj'
tp9
a(S'1248570574'
S'Shreya Saldi'
tp10
a(S'100000020469726'
S'Lehar Malhotra'
tp11
a(S'1658131285'
S'Siddhant Suri'
tp12
a(S'100003033804015'
S'Aayush Kwatra'
tp13
a(S'100000275890091'
S'Kunal Handa'
tp14
a(S'591110195'
p15
S'Vibhuti Batra'
tp16
a(S'100002433359200'
S'Piyush Thakkar'
tp17
a(S'100000629789062'
S'Parth Singhal'
tp18
a(S'1227931149'
S'Sukriti Agnihotri'
tp19
a(S'1170768532'
S'Mohak Papola'
tp20
a(S'737138262'
S'Pallav Bhagat'
tp21
a(S'100000170820845'
S'Moully Ahuja'
tp22
a(S'1122427633'
S'Shivang Singh'
tp23
a(S'100002198448884'
S'Akshay Jain'
tp24
a(S'1729135649'
S'Ankit Jain'
tp25
a(S'1545789906'
S'Anshul Gupta'
tp26
a(S'693143639'
S'Nishita Gupta'
tp27
a(S'100004202615897'
S'Swati Bakshi'
tp28
a(S'749003769'
S'Abhinav Agrawal'
tp29
a(S'1308591110'
S'Vidit Taneja'
tp30
a(S'100001445580193'
S'Yashasvini Chowdhary'
tp31
a(S'526485896'
p32
S'Shivya Chadha'
tp33
a(S'100000058602782'
S'Pragun Prasad'
tp34
a(S'100000365182509'
S'Sagarika Nangia'
tp35
a(S'1140208370'
S'Pranav Mittal'
tp36
a(S'100000990549764'
S'Marshal Girdhar'
tp37
a(S'100001097128686'
S'Ajay Rana'
tp38
a(S'1769095236'
S'Neha Parti'
tp39
a(S'100001803688913'
S'Abhishek Arora'
tp40
a(S'100001505346515'
S'Ronit Babbar'
tp41
a(S'100003811530956'
S'Kunal Handa'
tp42
a(S'1646470990'
S'Chirag Bansal'
tp43
a(S'100000309998942'
S'Armaan Srivastava'
tp44
a(S'736508524'
S'Rishab Aggarwal'
tp45
a(S'704519082'
p46
S'Anupam Sharma'
tp47
a(S'100000627521711'
S'Sakhi Gupta'
tp48
a(S'100000220494582'
S'Rijul Dewan'
tp49
a(S'1698082325'
S'Aseem Jain'
tp50
a(S'100000032126634'
S'Yash Tyagi'
tp51
a(S'1492241457'
S'Gunjan Dalal'
tp52
a(S'100000231975517'
S'Riya Kapur'
tp53
a(S'100000323616974'
S'Sarthak Bhutani'
tp54
a(S'100000073040349'
S'Aditi Pruthi'
tp55
a(S'1127534114'
p56
S'Aahat Mehta'
tp57
a(S'1097534051'
S'Shreyans Jain'
tp58
a(S'100000774207883'
S'Gaurika Dhawan'
tp59
a(S'1743932165'
S'Meghna Manchanda'
tp60
a(S'1149993903'
p61
S'Nehal Garg'
tp62
a(S'100003596897987'
S'Antara Dey'
tp63
a(S'1760194261'
S'Trisha Roy'
tp64
a(S'764583451'
S'Shivika Jain'
tp65
a(S'1547897660'
S'Jasmine Sablok'
tp66
a(S'1610912504'
S'Shreya Chopra'
tp67
a(S'1246468188'
S'Ishita Bajaj'
tp68
a(S'754523251'
S'Vaanshik Mahindroo'
tp69
a(S'100001675446550'
S'Anisa Seth'
tp70
a(S'100001258070420'
S'Akshat Garg'
tp71
a(S'1476536209'
S'Abhinav Aggarwal'
tp72
a(S'592557164'
S'Pranav Shivani Hasija'
tp73
a(S'534814302'
S'Maitray Oberoi'
tp74
a(S'1656938967'
S'Sohail Singh'
tp75
a(S'100000510002154'
S'Tanvi Jain'
tp76
a(S'1696160769'
S'Saguna Datt'
tp77
a(S'100003981465251'
S'VJ Bani'
tp78
a(S'100001543462264'
S'Ayushi Kumar'
tp79
a(S'100001015402625'
S'Mayank Patawari'
tp80
a(S'100000574108871'
p81
S'Sharika Amin'
tp82
a(S'100000138915710'
S'Dishank Goyal'
tp83
a(S'100000474790857'
S'Raghav Bansal'
tp84
a(S'1519161165'
S'Rachita Arora'
tp85
a(S'1784679559'
S'Sanchit Dua'
tp86
a(S'100001087024168'
S'Siddhant Sethi'
tp87
a(S'1821911158'
S'Sugandh Gupta'
tp88
a(S'1508995929'
S'Lakshay Anand'
tp89
a(S'100000097252082'
S'Ikshita Parihar'
tp90
a(S'100000065900201'
S'Aishwarya Grover'
tp91
a(S'1532997669'
S'Mahima Juneja'
tp92
a(S'100002490141780'
S'Kriteesha Jain'
tp93
a(S'100001352845891'
S'Saahil Yadav'
tp94
a(S'1594178816'
S'Anshika Garg'
tp95
a(S'1145055751'
S'Shantanu Bhattacharjee'
tp96
a(S'1715394422'
S'Aneesh Saldi'
tp97
a(S'100000266610101'
S'Kartik Aggarwal'
tp98
a(S'1304118122'
S'Deepali Gulati'
tp99
a(S'100000167663117'
S'Akshit Wadhwa'
tp100
a(S'1143515962'
S'Arnav Aggarwal'
tp101
a(S'100001709540439'
S'Kanupriya Verma'
tp102
a(S'722843385'
S'Nitish Mittal'
tp103
a(S'1561419772'
S'Prateek Kathuria'
tp104
a(S'100000555242899'
S'Garima Taneja'
tp105
a(S'1781340865'
S'Jaskaran Singh Bindra'
tp106
a(S'100000169842142'
S'Riya Sachdev'
tp107
a(S'100002948643919'
S'Riya Deepak Duggal'
tp108
a(S'100002538353711'
S'Raghav Gupta'
tp109
a(S'1286796569'
S'Urvi Narang'
tp110
asS'id'
p111
S'100002661116237'
p112
sS'name'
p113
S'Lakshay Anand'
p114
s.