(dp1
S'friends'
p2
(lp3
(S'100002113221563'
S'Nakul Singh'
tp4
a(S'100002279885371'
S'Rizwan Ahmed'
tp5
a(S'100001707940612'
S'Devendra Jhariya'
tp6
a(S'100002057873774'
S'Nitin Goswami'
tp7
a(S'100001608004624'
S'Neha Gupta'
tp8
a(S'100002252869832'
S'Honey Jain'
tp9
a(S'100001488469200'
S'Disha Khanna'
tp10
a(S'100001032723456'
S'Kapil Jain'
tp11
a(S'100002127436619'
S'Ankit Raj Singh'
tp12
a(S'100002153976352'
S'Atikarsh Singh'
tp13
a(S'100001407057806'
S'Bharat Soni'
tp14
a(S'100000060654265'
S'Shane Eggers'
tp15
a(S'100001177558263'
S'Vishal Jaiswal'
tp16
a(S'100002230263090'
S'Anshul Jaypad Jain'
tp17
a(S'100002289878022'
S'Sonu Mali'
tp18
a(S'100002421613308'
S'A Cool Sharma'
tp19
a(S'100002227391148'
S'Pinkoo Nalkheda'
tp20
a(S'100001539010899'
S'\\u00c7h\\u00ebt\\u00e4\\u00f1 J\\u00e4\\u00ee\\u00f1'
tp21
a(S'100002243364371'
S'Abrar Ahmed'
tp22
a(S'100000352091152'
S'Mayank Manjul'
tp23
a(S'100000584409549'
S'Shuvol Bishash'
tp24
a(S'100002233358459'
S'Sharad Malani'
tp25
a(S'100001316879154'
S'Mohsin Qazi'
tp26
a(S'100001658656953'
S'Vijay Sharma'
tp27
a(S'100001705415566'
S'Anjali Agarwal'
tp28
a(S'100002329942108'
S"'Aismeen' Kaur"
tp29
a(S'100002290058668'
S'Manish Solanki'
tp30
a(S'100001936288012'
S'Pratham Pal Singh Rana'
tp31
a(S'100000722505948'
S'Ishwarsingh Solanki'
tp32
a(S'100002253972861'
S'Aditya Mishra'
tp33
a(S'100002158776186'
S'Maryada Jain'
tp34
a(S'100000700645562'
S'Rosy Rathore'
tp35
a(S'100002277306097'
S'Babu Jain'
tp36
a(S'100002134331372'
S'Assasin Kreedz'
tp37
a(S'100002353449367'
S'Kuldeep Kaleshiya'
tp38
a(S'100002397079547'
S'Ramsewak Kain'
tp39
a(S'100001720399116'
S'Kylie May Lamanilao Saturos'
tp40
a(S'100001197701356'
S'Siddhartha Maru'
tp41
a(S'100002196182967'
S'Gourav Panday Jain'
tp42
a(S'100002289607585'
S'Mishra Pashupati'
tp43
a(S'1581138596'
S'Vivek Soni'
tp44
a(S'100000074491114'
S'Nick Higgins'
tp45
a(S'100002219439904'
S'Santosh Mali'
tp46
a(S'1177844942'
S'Blagoja Petreski'
tp47
a(S'100002038770275'
S'Eswar Rao'
tp48
a(S'100002342818044'
S'Ram Kumar'
tp49
a(S'100000763977921'
S'Ankit Jain'
tp50
a(S'100002134630492'
S'Shanu Mittal'
tp51
a(S'100001516898712'
S'Abhishak Bajaj'
tp52
a(S'1362861339'
S'Rahul Jain Maru'
tp53
a(S'100001644027151'
S'Vipindra Jain Singhai'
tp54
a(S'1735435531'
S'Tarun Khamora'
tp55
a(S'100002391236407'
S'Prayank Ladda'
tp56
a(S'100001201888494'
S'Arish Khan'
tp57
a(S'831667221'
S'Mayank Mishra'
tp58
a(S'100002375923181'
S'Dipesh Soni'
tp59
a(S'100001036689575'
S'Rakesh Kakkar'
tp60
a(S'100001779616776'
S'Brea Patterson'
tp61
a(S'100002112136735'
S'Urvashi Arora'
tp62
a(S'100000172499260'
S'Ishani Kumari'
tp63
a(S'100002040617777'
S'Opss M Prince'
tp64
a(S'100001901697467'
S'Suyash Jain'
tp65
a(S'100001897933142'
S'Lokendra Jain'
tp66
a(S'100000712383134'
S'Niraj Jat'
tp67
a(S'100000208608785'
S'Bheem Soni'
tp68
a(S'100002002820311'
S'Krishnapal Singh Rajput'
tp69
a(S'100002133049432'
S'Kapil Solanki Tonu'
tp70
a(S'100002178646683'
S'Akash Agrawal'
tp71
a(S'100002323861580'
S'Vinoth Subash'
tp72
a(S'100002040049423'
S'G\\u00f2L\\u00fa G\\u00e2rg'
tp73
a(S'100002378210185'
S'Dipesh Saini'
tp74
a(S'100002296158576'
S'Abvp Madhyabharat First'
tp75
a(S'100002376522100'
S'Mahesh Sharma'
tp76
a(S'100001569390298'
S'Kalpesh Patel'
tp77
a(S'100001945773271'
S'Gautam Singh Rathore'
tp78
a(S'100001499174110'
S'Mayank Garg'
tp79
a(S'100002282763040'
S'Kashish Sharma'
tp80
a(S'100001130245079'
S'Avinash Kumar Soni'
tp81
a(S'100002235812814'
S'Anshul Jain Babu'
tp82
a(S'100002088366013'
S'Balraj Kunder Singh'
tp83
a(S'100000444928924'
S'Sourabh Maru'
tp84
a(S'100001509381999'
S'Nayansinh Chavda'
tp85
a(S'100002077855731'
S'Mayank Kasera'
tp86
a(S'100001934545475'
S'Krishna Nandan Kumar'
tp87
a(S'100001580596648'
S'Navin Jindal'
tp88
a(S'100002014131630'
S'Shontelle Aparece'
tp89
a(S'100002379364808'
S'Yash Sharma'
tp90
a(S'100004575875830'
S'Vikash Chauhan'
tp91
a(S'100001532384857'
S'Sam Iam'
tp92
a(S'100001534178277'
S'Arif Mirza'
tp93
a(S'100002412501051'
S'Anshul Jain'
tp94
a(S'100001325272534'
S'Abi Ummwhatever'
tp95
a(S'100002217985202'
S'Soniya Jain'
tp96
a(S'1217846438'
S'Rohit Maru'
tp97
a(S'100002064360267'
S'Rajveer Singh Rajput'
tp98
a(S'100002190326104'
S'Mayank Jain'
tp99
a(S'100002122434606'
S'Pawan Malani'
tp100
a(S'100002390275939'
S'Sumit Panday'
tp101
a(S'100001212013641'
S'Vishwas Chouhan'
tp102
a(S'100001584941222'
S'Despina Koceva'
tp103
a(S'100000042599424'
p104
S'Kamini Chopara'
tp105
a(S'100002160078380'
S'Jain Anish'
tp106
a(S'100002223252533'
S'Pankaj Soni'
tp107
a(S'100001633482708'
S'Arun Kumar Jaiswal'
tp108
a(S'100002324856178'
S'Amit Jain'
tp109
a(S'100001942618670'
S'Ankit Garg'
tp110
a(S'100002312831007'
S'Mohit Nagar'
tp111
a(S'100002153587519'
S'Rohit Chandel'
tp112
a(S'100002386651018'
S'Aamil Lala'
tp113
a(S'100002277326972'
S'Loveraj Rana'
tp114
a(S'100001971557590'
S'Gourav Panday'
tp115
a(S'100001314219639'
S'Kailash Prajapat'
tp116
a(S'100002410125844'
S'Ravi Singodiya Mali'
tp117
a(S'100001942197242'
S'Aishwarya Sakhuja'
tp118
a(S'100001649651978'
S'Dumpy Jain'
tp119
a(S'100001895160843'
S'Mahendra Joshi'
tp120
a(S'1318388724'
S'Navneet Pandey'
tp121
a(S'100001418242924'
S'Awanish Tripathi'
tp122
a(S'100002404313633'
S'Pankaj Gupta'
tp123
a(S'1850815467'
S'Prakash Vishvkarma'
tp124
asS'id'
p125
S'100003227894002'
p126
sS'name'
p127
S'Brocken Heart'
p128
s.