(dp1
S'friends'
p2
(lp3
(S'100007496559521'
S'Izat Jan'
tp4
a(S'100007834598276'
S'Abdulwahed Karger'
tp5
a(S'100005374778460'
S'Azizomar Omari'
tp6
a(S'100002412473284'
S'Mashal Khadim Khadim'
tp7
a(S'100007615540258'
S'Mostufa Bahaar'
tp8
a(S'100004851390238'
S'Haji Shah Wali'
tp9
a(S'100002138528935'
S'Khan Mohammad Takal'
tp10
a(S'100005553330277'
S'\\u0645\\u062d\\u0645\\u062f \\u0633\\u0644\\u06cc\\u0645 \\u0648\\u0627\\u0634\\u06cc\\u0631\\u06cc'
tp11
a(S'100007331473940'
S'Sheragha Maroofi'
tp12
a(S'100007579053159'
S'\\u0632\\u0645\\u0627\\u06af\\u0631\\u0627\\u0646 \\u0627\\u0641\\u063a\\u0627\\u0646\\u0633\\u062a\\u0627\\u0646'
tp13
a(S'100007202373505'
S'\\u0646\\u0648\\u06cc \\u0628\\u0633\\u062a \\u0633\\u06cc\\u0627\\u062d\\u062a\\u06cc \\u0634\\u0631\\u06a9\\u062a'
tp14
a(S'100006301274221'
S'\\u0639\\u0628\\u062f \\u0627\\u0644\\u0631\\u0632\\u0627\\u0642 \\u062e\\u0627\\u0644\\u062f'
tp15
a(S'100002703462111'
S'Dawood Noorzai'
tp16
a(S'100002318332295'
S'Mohammad Qaseem Samimi'
tp17
a(S'100000216667813'
S'Hekmatullah Afghanzai'
tp18
a(S'100007792780270'
S'Gulab Shah Ahmady'
tp19
a(S'548462448'
S'Habibullah Habibi'
tp20
a(S'718291748'
S'Rauf Lawang'
tp21
a(S'100005912975484'
S'Mjafar Samin'
tp22
a(S'100004961622345'
S'\\u0633\\u06cc\\u062f \\u062f\\u0627\\u0648\\u062f \\u0622\\u063a\\u0627 \\u0647\\u0627\\u0634\\u0645\\u06cc'
tp23
a(S'100005422987017'
S'Haroon Popal'
tp24
a(S'100002006538373'
S'Marhom Abdul Ghafar Pashton'
tp25
a(S'100007654295214'
S'Mirwaise Sultanee'
tp26
a(S'100000986990404'
S'Hameed Malang'
tp27
a(S'100007558569504'
S'Jalil Khan'
tp28
a(S'100006464814761'
S'Nazir Mahbobi'
tp29
a(S'100004099944878'
S'Bismillah Kamali Achakzai'
tp30
a(S'100008163573166'
S'\\u0646\\u0639\\u0645\\u062a \\u0627\\u0644\\u0644\\u0647 \\u062d\\u0628\\u06cc\\u0628\\u06cc'
tp31
a(S'100003528478947'
S'Ishaq Mapton'
tp32
a(S'100006956743466'
S'Afghan National-Army'
tp33
a(S'100002553293805'
S'Abdulhafiz V Elham'
tp34
a(S'100000441111307'
S'Mohammad Khan Wasifhy'
tp35
a(S'100003798577857'
S'Samiullah Sadiqi'
tp36
a(S'100006901901496'
S'\\u062d\\u06cc\\u0627\\u062a \\u0627\\u0644\\u0644\\u0647 \\u062d\\u0642\\u06cc\\u0627\\u0631'
tp37
a(S'100000942360659'
p38
S'Iqbal Iqbal Safi'
tp39
a(S'100002640766190'
S'Sadiq Bosty'
tp40
a(S'100006616262837'
S'\\u0639\\u0628\\u062f\\u0627\\u0644\\u0645\\u0627\\u0644\\u06a9 \\u0631\\u0648\\u062d\\u0627\\u0646\\u064a'
tp41
a(S'100007065584185'
S'Naveed Ahmad Alizai'
tp42
a(S'100007316253878'
S'Hamidullah Dawary'
tp43
a(S'1309407027'
S'\\u0627\\u0633\\u062f\\u0627\\u0644\\u0644\\u0647 \\u062e\\u0627\\u0637\\u0631'
tp44
a(S'100005870164707'
S'Farzana Naz'
tp45
a(S'1053713897'
S'Mohammad Edriss Noorzai'
tp46
a(S'100008030286927'
S'K\\u0103rimull\\u00e3h T\\u0151b\\u0103g\\u00e3r'
tp47
a(S'100003924060464'
p48
S'Muhammad Fahim'
tp49
a(S'100001544964511'
S'Pokhtanah Kochy'
tp50
a(S'100007638850551'
S'Bilal Ahmad'
tp51
a(S'100001418013334'
S'Faridullah Omari'
tp52
a(S'100001925392771'
S'Nooradin Usmany'
tp53
a(S'100008103663915'
S'Farid Ahmad Azizi Alizai'
tp54
a(S'100005546500155'
S'Hamidullah Farhang Barakzai'
tp55
a(S'100007845494452'
S'Agha Wali Ziarmal'
tp56
a(S'100005484222065'
S'Sarwan Tani'
tp57
a(S'100007468239458'
S'Abdul Naseer Sapand'
tp58
a(S'100002324915676'
S'Abdul Hakim Hakimi'
tp59
a(S'100002221254829'
S'\\u0628\\u0631\\u06cc\\u0627\\u0644\\u06cc \\u063a\\u0648\\u0631\\u0681\\u0646\\u06ab'
tp60
a(S'100006710797956'
S'Naibullah Khan Afghan'
tp61
a(S'100007488518012'
S'Preince Komaile Bakhtyar'
tp62
a(S'100007903240906'
S'Surab Kamran'
tp63
a(S'100007692729083'
S'\\u062d\\u0627\\u062c\\u06cc \\u062e\\u0648\\u0627\\u062c\\u0647 \\u0645\\u062d\\u0645\\u062f \\u0628\\u0627\\u0631\\u06a9\\u0632\\u06cc'
tp64
a(S'100006662861896'
S'Helmand Bost'
tp65
a(S'100000415813756'
S'Hidayat Rahmatzai'
tp66
a(S'100006991514176'
S'\\u0641\\u062f\\u0627\\u0645\\u062d\\u0645\\u062f\\u0642\\u06cc\\u0627\\u0645 \\u0647\\u0644\\u0645\\u0646\\u062f \\u0627\\u0641\\u063a\\u0627\\u0646\\u0633\\u062a\\u0627\\u0646'
tp67
a(S'100004746730489'
S'Ahmad Shah Ahmadi'
tp68
a(S'100006664270566'
S'Mohammad Naim Alizai'
tp69
a(S'100007194341851'
S'Gul Ahmad Gilani'
tp70
a(S'100006794735059'
S'Ilyas Khan'
tp71
a(S'100008118877496'
S'Rahim Khan Shida'
tp72
a(S'100005507629444'
S'\\u0627\\u062d\\u0645\\u062f \\u0645\\u0628\\u0627\\u0631\\u06a9'
tp73
a(S'100005908956057'
S'\\u0645\\u062d\\u0645\\u062f\\u0646\\u0639\\u06cc\\u0645 \\u0631\\u062d\\u0645\\u0627\\u0646\\u06cc'
tp74
a(S'100008075134328'
S'\\u0635\\u062f\\u064a\\u0642 \\u0627\\u0644\\u0644\\u0647 \\u0645\\u0646\\u0635\\u0648\\u0631'
tp75
a(S'100006815294604'
S'Hewad Mal'
tp76
a(S'100006754905144'
S'Kahlied Afkan'
tp77
a(S'100008107392313'
S'Say Ed'
tp78
a(S'100006962527536'
S'Asdaullah Zaland'
tp79
a(S'100005406516234'
S'Ab Wahid Khamosh'
tp80
a(S'100003579771081'
S'Zabihullah Esmatzoy Hussinkhil'
tp81
a(S'100007451467904'
S'\\u0633\\u0627\\u0631\\u0627 \\u0633\\u0647\\u0627\\u0631'
tp82
a(S'100007449404342'
S'\\u063a\\u0644\\u0627\\u0645 \\u0641\\u0636\\u0644\\u06cc'
tp83
a(S'100006176408901'
S'Mohd Ehsan Mohandespoor'
tp84
a(S'100000463098420'
S'Rahmaty Mohammad'
tp85
a(S'100007852719734'
S'\\u0645\\u062d\\u0645\\u062f \\u0646\\u0633\\u06cc\\u0645 \\u062d\\u0642\\u0645\\u0644'
tp86
a(S'100007604653140'
S'\\u062d\\u0627\\u062c\\u06cc \\u0639\\u0644\\u06cc \\u0645\\u062d\\u0645\\u062f \\u0645\\u06cc\\u0648\\u0646\\u062f\\u06cc'
tp87
a(S'100007544652916'
S'Ghulam Reza Noorzai'
tp88
a(S'100001403398151'
S'\\u062d\\u0628\\u06cc\\u0628 \\u0627\\u0644\\u0644\\u0647 \\u0627\\u06a9\\u0628\\u0631\\u064a'
tp89
a(S'100006998463270'
S'Abdulwali Noori'
tp90
a(S'100001231489963'
S'Khudainoor Khanzad'
tp91
a(S'100007505593361'
S'\\u0645\\u0637\\u06cc\\u0639 \\u0627\\u0644\\u0644\\u0647 \\u0627\\u062e\\u0646\\u062f\\u0632\\u0627\\u062f\\u0647'
tp92
a(S'100006891634116'
S'Nafi Selab'
tp93
a(S'100007546535815'
S'Abdullah Sawet'
tp94
a(S'100002329763264'
S'Rozi Mohammad Haqparast Helmand'
tp95
a(S'100007393418994'
S'\\u067e\\u069a\\u062a\\u0648\\u0646 \\u067e\\u069a\\u062a\\u0648\\u0646'
tp96
a(S'100007397220748'
S'Mohammad Khan Mohib'
tp97
a(S'100007203037007'
S'Naqib Ullah Barakzi'
tp98
a(S'100004140451842'
S'\\u062f\\u064a\\u0646\\u064a \\u0645\\u0627\\u0644\\u0648\\u0645\\u0627\\u062a \\u067e\\u0647 \\u067e\\u069a\\u062a\\u0648'
tp99
a(S'100001894705827'
S'Toofan Waziri'
tp100
a(S'100002271615181'
S'Hashmat Momand'
tp101
a(S'100007360963966'
S'Ghullam Dastagir Helmandwall'
tp102
a(S'100007288051353'
S'Najib Hamkar'
tp103
a(S'100007197759405'
S'Haji Zulmay'
tp104
a(S'100006258880279'
S'Abdulghani Siraj'
tp105
a(S'100003218257975'
S'Nazir Ahmad Kamran'
tp106
a(S'100006300605370'
S'Aminulah Amini'
tp107
a(S'100005961061537'
S'Noori Omid'
tp108
a(S'100001911169027'
S'Sadiqullah Ziarmal'
tp109
a(S'100002747009148'
S'Noor Ahmad Aimall'
tp110
a(S'100002720243196'
S'Abdul Ahad Mobin'
tp111
a(S'100007696806118'
S'Ahsanullah Karizwal'
tp112
a(S'100008341631126'
S'Abdulrahim Yosofi'
tp113
a(S'100001517649233'
S'\\u0639\\u0628\\u062f\\u0627\\u0644\\u0645\\u062a\\u064a\\u0646 \\u0645\\u0624\\u062d\\u062f'
tp114
a(S'100000884620083'
S'Sayim Rahmatian'
tp115
a(S'1343761241'
p116
S'Nematullah Zaheer'
tp117
a(S'100004311155744'
S'Salih Mohammad Hotak'
tp118
a(S'100007206691180'
S'Wahidullah Sadiq'
tp119
a(S'100004797517769'
S'Zirak Achakzai'
tp120
a(S'100003343422253'
S'Abdultawab Alizai'
tp121
a(S'100002245753657'
S'Abdul Sattar Barai'
tp122
a(S'100007490590099'
S'Abdul Jabar Mahraban'
tp123
a(S'100006614234082'
S'Haji Jan M'
tp124
a(S'100007611224615'
S'Shear Ahmmad'
tp125
a(S'100003066879027'
S'Javeed Fahim'
tp126
a(S'1300917649'
p127
S'Rafiullah Stanikzai'
tp128
a(S'100001636194567'
S'Haroon Faroqi'
tp129
a(S'100003606736004'
S'Saeed Shinwari'
tp130
a(S'100003245186486'
S'Niamatullah Hashimi'
tp131
a(S'100005791351041'
S'Basher Ahmad Shirzad'
tp132
a(S'100004098900001'
S'Maqsood Jurat'
tp133
a(S'100000781050495'
S'\\u0646\\u062b\\u0627\\u0631\\u0627\\u062d\\u0645\\u062f \\u0635\\u0627\\u0644\\u062d'
tp134
a(S'100006456759847'
S'\\u062c\\u0646\\u062a \\u06af\\u0644 \\u0639\\u0644\\u06cc\\u0632\\u06cc'
tp135
a(S'100003428608496'
S'Asadullah Sherzad'
tp136
a(S'100004100650987'
S'Hussain Amini'
tp137
a(S'100005020233207'
S'Edris Alizai'
tp138
a(S'100007276623869'
S'Naweed Tareen'
tp139
a(S'100006570453678'
S'Khalil Ahmad'
tp140
a(S'100002368682314'
S'Nazeefullah Nazeef'
tp141
a(S'100006798784833'
S'Noor Agha Noori'
tp142
a(S'100003128864381'
S'Ashraf Sultani'
tp143
a(S'100006511039925'
S'\\u062a\\u0648\\u0631\\u064a\\u0627\\u0644\\u064a \\u0627\\u064a\\u0645\\u0644'
tp144
a(S'100005589967693'
S'Hekmatullah Hakimi'
tp145
a(S'100002245907063'
S'Ayub Omar Omari'
tp146
a(S'100007106927097'
S'\\u0685\\u0631\\u0627\\u063a \\u0639\\u0627\\u0644\\u06cc \\u069a\\u0648\\u0646\\u0681\\u06cc \\u0627\\u0648\\u0693\\u06a9\\u062a\\u0648\\u0646'
tp147
a(S'100008002091431'
S'Noorzai Sab'
tp148
a(S'100007371884584'
S'\\u0647\\u0627\\u0631\\u0648\\u0646 \\u0648\\u0641\\u0627'
tp149
a(S'100006268717615'
S'\\u062e\\u0627\\u0644\\u064a\\u062f\\u0647 \\u0627\\u0641\\u063a\\u0627\\u0646'
tp150
a(S'100007355594134'
S'Niamatullah Sammadi Noorzai'
tp151
a(S'100000804440262'
S'Mohammad Khan Safi'
tp152
a(S'1003545554'
S'Mohammad Saber Yaqin'
tp153
a(S'100005199216515'
S'Ab Qayoum Sapand'
tp154
a(S'100007624174254'
S'Naved Samimi'
tp155
a(S'100007720475216'
S'Abdulnasir Alokozay'
tp156
a(S'100008336144097'
S'\\u0639\\u0628\\u062f\\u0627\\u0644\\u0647\\u0627\\u062f\\u06cc \\u0627\\u0644\\u0647\\u0627\\u0645'
tp157
a(S'100000782686519'
S'Mohammadullah Aryen'
tp158
a(S'100006587741575'
S'\\u062f\\u0647\\u0644\\u0645\\u0646\\u062f \\u0648\\u0644\\u0627\\u06cc\\u062a \\u0645\\u0644\\u06cc \\u0647\\u0644\\u0645\\u0646\\u062f'
tp159
a(S'100003528273611'
S'Karim Toran'
tp160
a(S'1331799869'
S'Mohmmadullah Hamedi'
tp161
a(S'100006598685271'
S'Gull Badin'
tp162
a(S'100002429013715'
S'Abdul Haq Haqmal'
tp163
a(S'100005829034877'
S'Saranwal Bawari'
tp164
a(S'100007848729737'
S'\\u0645\\u06cc\\u0631\\u0648\\u06cc\\u0633 \\u0633\\u0646\\u06af\\u0631'
tp165
a(S'100008369047246'
S'Ahmadullah Ahmadi'
tp166
a(S'100005073069534'
S'\\u0633\\u0645\\u06cc\\u0639 \\u0627\\u0644\\u0644\\u0647 \\u0646\\u0648\\u0631\\u06cc'
tp167
a(S'100005065514164'
S'Zabiullah Sadat'
tp168
a(S'100001677891228'
S'Khalid Hadi'
tp169
a(S'100003649994830'
S'\\u064a\\u062d\\u064a\\u06cc \\u0639\\u0627\\u0628\\u062f'
tp170
a(S'100008078822366'
S'Zmarai Afghan'
tp171
a(S'100006244543186'
S'Nematullah Danesh'
tp172
a(S'100003477736735'
S'Naqeebullah Barak'
tp173
a(S'100007697010909'
S'Naqibullah Khan'
tp174
a(S'100000872786211'
S'Rohullah Modaqiq Wardak'
tp175
a(S'100003376568442'
S'Azizullah Zazai'
tp176
a(S'100002596588096'
S'Noor Ahmad Himat'
tp177
a(S'100003743786335'
S'Ahmad Faisal Barakzai'
tp178
a(S'100007069362845'
S'Myrna Jose'
tp179
a(S'100007777235822'
S'Rahmatullah Nazari'
tp180
a(S'100003484022679'
S'Mirza Mohammad'
tp181
a(S'100003734408429'
S'Juma Gul Nikmal'
tp182
a(S'100003758710592'
S'\\u0631\\u0641\\u06cc\\u0639 \\u0627\\u0644\\u0644\\u0647 \\u0641\\u0631\\u06cc\\u0627\\u062f'
tp183
a(S'100001865899502'
S'Pukhtoon Khan'
tp184
a(S'100007582991027'
S'M Sadeq Sharifi'
tp185
a(S'100001711708504'
p186
S'Shafi Khan'
tp187
a(S'100007011576105'
S'Helmand Omari'
tp188
a(S'100006587164009'
S'Qaseem Sherzad'
tp189
a(S'100007139379807'
S'Aghajan Durani'
tp190
a(S'100007028563006'
S'Wali Muhammad Haqiyar'
tp191
a(S'100007912539153'
S'To Day Faishan'
tp192
a(S'100006809045841'
S'Khalil Ahmad Kherkhwa'
tp193
a(S'100006680375114'
S'Shaista Sadat Lameh'
tp194
a(S'100006512475699'
S'Hikmatullah Sakhizada'
tp195
a(S'100002533372522'
S'Muhammad Wali Sabeer'
tp196
a(S'100006119172021'
S'Ahsanullah Barak'
tp197
a(S'100007289522171'
S'Waheed Dawar'
tp198
a(S'100006654812460'
S'Aimal Afghan'
tp199
a(S'100007699144527'
S'\\u0627\\u062d\\u0633\\u0627\\u0646 \\u0627\\u0644\\u0644\\u0647 \\u0630\\u0647\\u064a\\u0646'
tp200
a(S'100005334823137'
S'\\u0639\\u0628\\u062f\\u0627\\u0644\\u0645\\u0646\\u0627\\u0646 \\u062f\\u0627\\u0646\\u0634'
tp201
a(S'100007315814230'
S'Eng Mohammad Yousaf Amin'
tp202
a(S'100002599852932'
S'Nurul Habib Nisar'
tp203
a(S'100002429412125'
S'Abdul Khaliq Kandaharai'
tp204
a(S'100007214353171'
S'Aghajan Baraak'
tp205
a(S'100001671323218'
p206
S'Sahil Zahidi'
tp207
a(S'100001264111039'
S'Izhar Ahmad Izhar'
tp208
a(S'100007112798494'
S'\\u0639\\u0628\\u062f\\u0627\\u0644\\u0648\\u0644\\u06cc \\u0639\\u0645\\u0631\\u06cc'
tp209
a(S'100007219571888'
S'Abdulrahman Noorzai'
tp210
a(S'100003878295057'
S'Mohammad Fazal Safiy'
tp211
a(S'100003821496050'
S'Jamil Nazari Nazari'
tp212
a(S'100001113551140'
S'Mohammad Sadiq Noorzai'
tp213
a(S'100005520070102'
S'Muhammad Wali Zirak'
tp214
a(S'100002930927192'
S'Zabihullah Aman Zai'
tp215
a(S'100007049109659'
S'Atteequllah Aashna'
tp216
a(S'100006381903116'
S'Yalda Bayat'
tp217
a(S'100003804726932'
S'\\u0634\\u06cc\\u0631\\u0627\\u063a\\u0627 \\u0627\\u062d\\u0645\\u062f\\u06cc'
tp218
a(S'100008266325470'
S'Genral Jilani'
tp219
a(S'100007728480663'
S'Alamgul Paktiwal'
tp220
a(S'100000580661334'
S'Fareed Ahmad Sadiqi'
tp221
a(S'100004593671200'
S'Ahmadullah Aqbal'
tp222
a(S'100003133023038'
S'Noor Ahmad Imall'
tp223
a(S'100000582709552'
p224
S'Kader Helmandia'
tp225
a(S'100006572175154'
S'Mohammadnasir Achakzai'
tp226
a(S'100005552384526'
S'Hikmatullah Azizi'
tp227
a(S'100001254740876'
p228
S'A-rahim Mutmyan'
tp229
a(S'100003159641359'
S'\\u0645\\u062d\\u0645\\u062f \\u0627\\u0633\\u0644\\u0645 \\u0633\\u0631\\u0648\\u0631\\u06cc'
tp230
a(S'1777911109'
S'Khalilullah Mayar'
tp231
a(S'100007559621260'
S'Mohammad Naim Kakar'
tp232
a(S'100006632737243'
S'Sagar Gee'
tp233
a(S'100001585265260'
S'Azizullah Halimy'
tp234
a(S'100006626833356'
S'Habib Rahimi'
tp235
a(S'100004995457310'
S'Helmand Jan'
tp236
a(S'100001543312913'
S'\\u06a9\\u0646\\u062f\\u0647\\u0627\\u0631\\u064a \\u0681\\u0648\\u0627\\u0646\\u0627\\u0646'
tp237
a(S'100006247663298'
S'Shapeqa Norane'
tp238
a(S'100005990797969'
S'Abdul Ghafoor Zaheer'
tp239
a(S'100000730883372'
S'\\u0639\\u0628\\u062f\\u0627\\u0644\\u0628\\u0627\\u0631\\u06cc \\u062d\\u06cc\\u0631\\u0627\\u0646'
tp240
a(S'100001582346234'
S'Atifrahman Niazy'
tp241
a(S'100006270812661'
S'\\u062c\\u0627\\u0648\\u06cc\\u062f \\u0635\\u0627\\u0641\\u06cc'
tp242
a(S'100006985500146'
S'Haji Faiz Mohammad Kakar'
tp243
a(S'100005142844689'
S'Jamaladine Noorzai'
tp244
a(S'100008348594980'
S'Abdul Qader Mal'
tp245
a(S'100007621209779'
S'Aga Azan'
tp246
a(S'100003838890883'
S'Samiulah Saqib'
tp247
a(S'100004766176247'
S'\\u0641\\u0631\\u06cc\\u062f \\u0627\\u0648\\u0631\\u0628\\u0644'
tp248
a(S'100005070399609'
S'Ahmad Faisal Jamalzai'
tp249
a(S'100006686550229'
S'Hayatullah Khan'
tp250
a(S'100003776205621'
S'Wali Mohmmad Zahid'
tp251
a(S'100000000947090'
S'Rohullah Kakar'
tp252
a(S'100005390379152'
S'Said Gulahmad Sadat'
tp253
a(S'100006267551489'
S'Barak Helmand'
tp254
a(S'100007265714096'
S'\\u062e\\u0627\\u0644\\u062f \\u06a9\\u0627\\u06a9\\u0631'
tp255
a(S'100006245194369'
S'Fahim Musazoi'
tp256
a(S'100006263083144'
S'Naqibullah Noorzai'
tp257
a(S'100001171124680'
S'\\u0634\\u0645\\u0644\\u0647 \\u062e\\u0627\\u0646\\u0647'
tp258
a(S'100002548931989'
S'Mohammad Ismail Sherzy'
tp259
a(S'100002336431355'
S'\\u062e\\u0648\\u0627\\u0696\\u0647 \\u067e\\u069a\\u062a\\u0627\\u0646\\u0647 \\u0681\\u0648\\u0627\\u0646\\u0627\\u0646'
tp260
a(S'100003725959944'
S'Zalmai Zabuli'
tp261
a(S'100006461959058'
S'\\u0639\\u0628\\u062f\\u0627\\u0644\\u0634\\u06a9\\u0648\\u0631 \\u0634\\u06cc\\u062f\\u0627'
tp262
a(S'100005137113260'
S'Khalid Mangal'
tp263
a(S'100007615449023'
S'Qudratullah Baloch'
tp264
a(S'100006622271742'
S'Javid Sahel'
tp265
a(S'100007861572827'
S'Luqman Arhan'
tp266
a(S'100003468056525'
S'Mehrabuddin Pazhwak'
tp267
a(S'100001874231955'
S'Ahmad Ullah'
tp268
a(S'100003339970329'
S'Naseeb Zurmati'
tp269
a(S'100002536607064'
S'Afghan Nang'
tp270
a(S'1633699859'
S'Hamid Yousafi'
tp271
a(S'100006154391779'
S'Anwar Shah Agha Sadaat'
tp272
a(S'100007379163429'
S'Saifullah Helmand'
tp273
a(S'100006253202087'
S'\\u067e\\u069a\\u062a\\u0627\\u0646\\u0647 \\u0633\\u0631 \\u062a\\u0627\\u062c \\u062f\\u0627\\u0641\\u063a\\u0627\\u0646\\u0633\\u062a\\u0627\\u0646'
tp274
a(S'100005952572738'
S'Helmand Afghan'
tp275
a(S'100002171730158'
S'Arif Danish'
tp276
a(S'100007158032585'
S'Ab Hakem Sapand'
tp277
a(S'100005775012885'
S'\\u0639\\u0628\\u062f\\u0627\\u0644\\u0645\\u0627\\u0644\\u06a9 \\u062c\\u0627\\u0646'
tp278
a(S'100004061890144'
S'Ahmad Fareed Niazi'
tp279
a(S'100005552923079'
S'Mohammad Nasim Rahmani'
tp280
a(S'100001794709562'
S'Mateen Waziri'
tp281
a(S'100004129004438'
S'\\u0634\\u0628\\u0627\\u0646\\u0647 \\u0639\\u0632\\u064a\\u0632\\u064a'
tp282
a(S'100003048855406'
S'Hazrat Khan'
tp283
a(S'100006204391092'
S'Hayatullah Bashardost'
tp284
a(S'100006121114757'
S'Qari Anayatullah'
tp285
a(S'100007153450094'
S'Wali Omari'
tp286
a(S'100002905756943'
S'Qader Agha'
tp287
a(S'100007665041812'
S'\\u0646\\u0642\\u06cc\\u0628 \\u0628\\u0647\\u0627\\u0646'
tp288
a(S'100005942079018'
S'Qadar Khan Abid'
tp289
a(S'1205476906'
S'Robert Du Plooy'
tp290
a(S'100001479017795'
p291
S'Tooryalai Rafiq'
tp292
a(S'100000483048604'
S'David Hanif'
tp293
a(S'100007601049247'
S'Essa Mohammadzai'
tp294
a(S'100000763202591'
S'Ahmadshah Wardak'
tp295
a(S'100008146754261'
S'\\u0645\\u062d\\u064a\\u0628 \\u0627\\u0644\\u0644\\u0647'
tp296
a(S'100000698221270'
S'Nawab Khan Himmat'
tp297
a(S'100003813377422'
S'\\u0627\\u062d\\u0645\\u062f\\u0646\\u0635\\u06cc\\u0631 \\u0627\\u062d\\u0645\\u062f\\u06cc'
tp298
a(S'100003841883064'
S'Sorgul Sandakhil'
tp299
a(S'100006636543145'
S'Ahrar Muhammady'
tp300
a(S'100006960734207'
S'\\u0639\\u0628\\u062f\\u0627\\u0644\\u062d\\u06a9\\u06cc\\u0645 \\u0645\\u062b\\u0645\\u0631'
tp301
a(S'100007554365847'
S'Naqib Wafa Wafa'
tp302
a(S'100006750582639'
S'Rahim Safi'
tp303
a(S'100006494116166'
S'Abdul Rahman Adil'
tp304
a(S'100006411159266'
S'Ahmadullah Haqmalzai'
tp305
a(S'100005478365755'
S'H\\u00e3b\\u00eeb\\u00fbll\\u00e3h S\\u00e3h\\u00eel'
tp306
a(S'100006216695194'
S'Malik Anis'
tp307
a(S'1104365267'
S'Naqibullah Skandari Helmand'
tp308
a(S'100007222060400'
S'Asadullah Noorzai'
tp309
a(S'100006522340064'
S'Abdul Ghani Youldash'
tp310
a(S'100001043005177'
S'Enayatrahman Mayar'
tp311
a(S'100007740693296'
S'\\u0639\\u0628\\u062f\\u0627\\u0644\\u062e\\u0627\\u0644\\u0642 \\u062e\\u0627\\u062f\\u0645'
tp312
a(S'100004087028065'
S'Sayed Sameer Arya'
tp313
a(S'100007626396859'
S'Haji Habibullah Haqyar'
tp314
a(S'100007648806193'
S'Abdulhadi Taskin'
tp315
a(S'100007067713491'
S'Faridahmad Nazari'
tp316
a(S'100006478434157'
S'Taher Liwal'
tp317
a(S'100006350462671'
S'\\u062f\\u0643\\u0646\\u062f\\u0647\\u0627\\u0631 \\u0648\\u0638\\u064a\\u062a'
tp318
a(S'100005101026141'
S'Hafiz Ahmad Nasrat'
tp319
a(S'100004004057823'
S'Hilal Ajez'
tp320
a(S'100005156372580'
S'Ehsanullah Ehsan'
tp321
a(S'100005450141647'
S'Esmatullah Hemat'
tp322
a(S'100006434816622'
S'Abdul Hakim Asik'
tp323
a(S'100001770159388'
S'Eng Habibullah Haqparast Alizai'
tp324
a(S'100002291810073'
p325
S'Eng Kawoon Sahak'
tp326
a(S'100006343062994'
S'Ishaq Omarinstitute Helmand'
tp327
a(S'100007029871097'
S'Shaker Rosy'
tp328
a(S'100006885485993'
S'Qudratullah Noori'
tp329
a(S'100001348318084'
S'Almasa Jan'
tp330
a(S'100005120859179'
S'Rohullah Mohmand'
tp331
a(S'100006813965269'
S'\\u0639\\u0628\\u062f\\u0627\\u0644\\u0635\\u0645\\u062f \\u062a\\u0648\\u062e\\u06cc'
tp332
a(S'100006954841348'
S'Shafeeq Afghan'
tp333
a(S'100006638023569'
S'\\u0641\\u0631\\u0634\\u062a\\u0647 \\u06a9\\u0627\\u0628\\u0644\\u06cc'
tp334
a(S'100000421833771'
S'Jabar Islami'
tp335
a(S'100007527008301'
S'Nisar Ahmadhamdard'
tp336
a(S'100005317329412'
S'Hedayetullah Maihan'
tp337
a(S'100006409506151'
S'Ezatullah Mashal'
tp338
a(S'100007589680148'
S'\\u0627\\u062d\\u0645\\u062f. \\u0627\\u0639\\u062a\\u0645\\u0627\\u062f\\u064a'
tp339
a(S'100008394187084'
S'\\u062e\\u0627\\u06cc\\u0646\\u0627\\u0646 \\u0647\\u0644\\u0645\\u0646\\u062f \\u0644\\u0639\\u0646\\u062a'
tp340
a(S'100002973239018'
S'\\u062f\\u0631\\u0627\\u0632\\u0648\\u0646\\u0648\\u069a\\u06a9\\u0627\\u0631\\u0647 \\u06a9\\u0648\\u0644 \\u0647\\u0644\\u0645\\u0646\\u062f'
tp341
a(S'100001878687953'
S'Abdul Madad Sakhizadah'
tp342
a(S'100006484659889'
S'Nimatullah Sahil'
tp343
a(S'100004353669347'
S'Ehsanullah Afghan'
tp344
a(S'100008223639323'
S'Fahim Ahmadi'
tp345
a(S'100007590341556'
S'Zarip Jan Azizy'
tp346
a(S'100000634616226'
S'\\u0627\\u0646\\u0642\\u0644\\u0627\\u0628\\u064a \\u0627\\u0641\\u063a\\u0627\\u0646\\u064a \\u067e\\u064a\\u063a\\u0644\\u064a'
tp347
a(S'100007590814691'
S'Afghan Afghan'
tp348
a(S'100006345666648'
S'Ahsanullah Qazizada'
tp349
a(S'100002577701996'
S'Attiqullah Amini'
tp350
a(S'100000914224797'
S'Farid Agha Fatimi'
tp351
a(S'100002503427912'
S'Wahidullah Mayar'
tp352
a(S'100004782700287'
S'Aziz Noorzai'
tp353
a(S'100000690490091'
S'Gazala Javed'
tp354
a(S'100003811866379'
S'Esmail Hadi'
tp355
a(S'100008104630894'
S'Basir Ahmad'
tp356
a(S'100006111013365'
S'Abdullsatar Mjroh'
tp357
a(S'100008007874822'
S'Nadem Noor'
tp358
a(S'100006172896675'
S'\\u0635\\u062f\\u0631 \\u0645\\u0638\\u0644\\u0648\\u0645 \\u064a\\u0627\\u0631'
tp359
a(S'100006301954386'
S'\\u062f\\u067e\\u0648\\u0646\\u0627\\u0646\\u0648 \\u062e\\u0628\\u0631\\u064a'
tp360
a(S'100007837510231'
S'Sardar Mohammad Yawri'
tp361
a(S'100003799866065'
S'Sayed Rafeullah Qalam'
tp362
a(S'100006798936167'
S'Asmatullah Eshaqzai'
tp363
a(S'100002393723832'
S'\\u06ab\\u0644 \\u0622\\u063a\\u0627 \\u0634\\u06cc\\u0631\\u0632\\u064a'
tp364
a(S'100003163691930'
S'Najibullah Ibrahimkhail'
tp365
a(S'100007735023549'
S'Abdul Wali'
tp366
a(S'100004694015739'
S'Abdulla Afghan'
tp367
a(S'100007156803739'
S'Naser Barak'
tp368
a(S'100007057274121'
S'\\u0639\\u0628\\u062f\\u0627\\u0644\\u062d\\u0642 \\u0648\\u062f\\u0627\\u0646'
tp369
a(S'100007729954032'
S'Nizam Amin'
tp370
a(S'100007535943967'
S'Mirwais Fana'
tp371
a(S'100002249390790'
S'Gulojan Sadat'
tp372
a(S'100000838914638'
S'Mashal Khan Mashal'
tp373
a(S'100004694371389'
S'Mohammad Yaqub'
tp374
a(S'100003252334023'
S'Sailab Hashemi'
tp375
a(S'580731995'
S'\\u0633\\u06cc\\u062f\\u0639\\u0628\\u062f\\u0627\\u0644\\u0644\\u0647 \\u0648\\u0644\\u064a \\u0632\\u06cc'
tp376
a(S'100003174679583'
S'Hikmat Yaqoobi'
tp377
a(S'100006918733891'
S'Wahidullah Sahil'
tp378
a(S'100002687135904'
S'Sayed Abdul Wahab Saeedi'
tp379
a(S'100004437090859'
S'Zahid Ahmad Attal'
tp380
a(S'100006193838280'
S'Khadija Noori'
tp381
a(S'100000913989619'
p382
S'\\u067e\\u069a\\u062a\\u0648\\u0646 \\u0681\\u0648\\u0627\\u0646'
tp383
a(S'100006697122800'
S'Naqibullah Barakzai'
tp384
a(S'100003276273280'
S'\\u062f\\u0648\\u0633\\u062a \\u067e\\u0627\\u06cc\\u06cc\\u0632'
tp385
a(S'100007034111141'
S'\\u0642\\u062f\\u0631\\u062a \\u0627\\u0644\\u0644\\u0647 \\u062f\\u0627\\u0648\\u0631\\u06cc'
tp386
a(S'100007693113606'
S'\\u06be\\u0627\\u0634\\u0645\\u06cc \\u0627\\u0641\\u063a\\u0627\\u0646 \\u06be\\u0627\\u0634\\u0645\\u06cc \\u0627\\u0641\\u063a\\u0627\\u0646'
tp387
a(S'100004844284370'
S'Majid Hashemi'
tp388
a(S'100002455673537'
S'Saydullah Salam'
tp389
a(S'100002105185892'
S'Sayedwali Weyal'
tp390
a(S'100006989977254'
S'Ahmad Arif'
tp391
a(S'100003855722905'
p392
S'Abdull Satar Saadat'
tp393
a(S'100003968341185'
S'\\u0633\\u06cc\\u062f\\u0645\\u062d\\u0645\\u062f \\u062d\\u06cc\\u0631\\u062a'
tp394
a(S'100005459318097'
S'\\u0635\\u062f\\u0627\\u0645 \\u062d\\u0633\\u06cc\\u0646 \\u0645\\u0646\\u0635\\u0648\\u0631'
tp395
a(S'100008086412099'
S'\\u0646\\u062c\\u06cc\\u0628\\u0647 \\u06a9\\u0644\\u062a\\u0648\\u0631\\u06cc'
tp396
a(S'100001501261348'
S'Saharudin Totakhail'
tp397
a(S'100004726540194'
S'Samim Sahar'
tp398
a(S'100005637184981'
S'Qadeer Haqyar'
tp399
a(S'100000837012139'
S'Esa Sahel'
tp400
a(S'100005961245732'
S'\\u0681\\u0644\\u0627\\u0646\\u062f \\u06a9\\u0627\\u06a9\\u0693'
tp401
a(S'100000070763213'
S'Sayeed Abas'
tp402
a(S'100006114164291'
S'Esmat Alizai'
tp403
a(S'100006537128390'
S'Hamdullah Sabir'
tp404
a(S'100006235842438'
S'Ismail Samsoor'
tp405
a(S'100006646061119'
S'Shaheed Hadayatullah Nikzad'
tp406
a(S'100000701276715'
S'Yousaf Khan Noorzai'
tp407
a(S'100006454719759'
S'Daesa Sappsapa'
tp408
a(S'100006411001398'
S'Samad Safai'
tp409
a(S'100008246854124'
S'Hafiz Ullah'
tp410
a(S'100006035283048'
S'Muhammad Zahir Rasully'
tp411
a(S'100005787540760'
S'\\u0634\\u06cc\\u0631\\u06cc\\u0646 \\u0622\\u0631\\u06cc\\u0646'
tp412
a(S'100007856437049'
S'\\u063a\\u0645\\u06cc \\u062c\\u0627\\u0646 \\u067e\\u0648\\u067e\\u0644'
tp413
a(S'100000904000529'
S'Jamshed Numan'
tp414
a(S'100007861443563'
S'\\u0639\\u06cc\\u0648\\u0636 \\u062c\\u0627\\u0646'
tp415
a(S'100000620916880'
S'Ahmad Jawid Sdiqi'
tp416
a(S'100006414935255'
S'\\u0639\\u0645\\u062c\\u0646\\u0647 \\u0627\\u0631\\u0645\\u0627\\u0646'
tp417
a(S'100005283900176'
S'Faiz Mohammad Halimi'
tp418
a(S'100008084560313'
S'Alhaj Jawedahmad Barak'
tp419
a(S'100002179682696'
S'Hikmatullah Husseinkhil'
tp420
a(S'100006287288049'
S'Ahsanullah Sail'
tp421
a(S'100007396295046'
S'Abdul Haleem Rahimi'
tp422
a(S'100002634602071'
S'Gran Afghan'
tp423
a(S'100004268342992'
S'Khjjlk Trherther'
tp424
a(S'100007768956123'
S'\\ufe8d\\ufeb3\\ufea4\\ufe8e\\ufed5 \\ufee3\\ufec8\\ufee0\\ufeee\\ufee1'
tp425
a(S'100007723987605'
S'\\u0646\\u0648\\u0631\\u0627\\u062d\\u0645\\u062f \\u0639\\u0632\\u06cc\\u0632\\u06cc'
tp426
a(S'100006919452813'
S'\\u0633\\u0627\\u0641\\u067c \\u0648\\u06cc\\u0631 \\u062c\\u0648\\u0693\\u0648\\u0646\\u0647'
tp427
a(S'100003111610990'
S'Majeed Qarar'
tp428
a(S'100003115518657'
S'Sherkhan Omari'
tp429
a(S'100000898585350'
S'Mohammad Yousuf'
tp430
a(S'100007530934785'
S'\\u0633\\u0645\\u06cc\\u0639 \\u0627\\u0644\\u0644\\u0647 \\u0632\\u0647\\u06cc\\u0631'
tp431
a(S'100002042092824'
S'Hekmatullah Motahawi'
tp432
a(S'100007485248156'
S'Farid Obaid'
tp433
a(S'100007207991926'
S'\\u0634\\u0627\\u0647 \\u0645\\u062d\\u0645\\u0648\\u062f \\u0627\\u0634\\u0646\\u0627'
tp434
a(S'100006524439476'
S'Mohammad Arif Arifi'
tp435
a(S'100003585966415'
S'Touryalai Sayedkhail'
tp436
a(S'100006467231075'
S'Ahmad Zia Barakzai'
tp437
a(S'100000591434758'
S'Eng Ahmad Ansari'
tp438
a(S'100007020120455'
S'Ahmadjan Khadim'
tp439
a(S'100002920891731'
S'Prince Aziz'
tp440
a(S'100004086675391'
S'Wm Khadem'
tp441
a(S'100007687020246'
S'Rahimullah Rahimi'
tp442
a(S'100006190026203'
S'Mohammad Zarif Tarin'
tp443
a(S'100001494630095'
S'Mohammad Shah Mushfiq'
tp444
a(S'100003471625698'
S'M Jawed Andari'
tp445
a(S'100006287977783'
S'Niaz Mohammad Walizada'
tp446
a(S'100003292519673'
S'Rahmadin Noorzai'
tp447
a(S'100001389964299'
S'Azatullah Skandari'
tp448
a(S'100007595880622'
S'Har Afghan Ta Salam'
tp449
a(S'100000273119171'
S'Fareed Ahmad Khorram'
tp450
a(S'100007641431937'
S'Rahim Ullah'
tp451
a(S'100007503041170'
S'Emraan Gulistaani'
tp452
a(S'100008369440314'
S'\\u062a\\u0648\\u0641\\u0627\\u0646 \\u0647\\u0644\\u0645\\u0646\\u062f'
tp453
a(S'100000915588529'
S'Snow James'
tp454
a(S'100001665841539'
S'Sha Mhmmad Haqyar'
tp455
a(S'100007236907296'
S'\\u062f\\u0646\\u0627\\u0648\\u064a \\u0645\\u0644\\u06d0 \\u067e\\u0648\\u0644\\u06cc\\u0633'
tp456
a(S'100005642916792'
S'Khaliqdad Jalal'
tp457
a(S'100002995058154'
S'Mohammad Omer'
tp458
a(S'100001055630778'
S'Emraan Khan'
tp459
a(S'100005767293427'
S'Samiullah Wafa'
tp460
a(S'100000891934429'
S'Lily Zadran'
tp461
a(S'100004444237203'
S'Zamry Zaland'
tp462
a(S'100006726971884'
S'\\u062e\\u0644\\u06cc\\u0644 \\u0627\\u062d\\u0645\\u062f \\u062e\\u0648\\u0634\\u062d\\u0627\\u0644'
tp463
a(S'100008032210137'
S'\\u062b\\u0646\\u0627 \\u0627\\u0641\\u063a\\u0627\\u0646 \\u0645\\u0644'
tp464
a(S'100006816044603'
S'Derwish Azizi'
tp465
a(S'100001465998345'
p466
S'Ismatullah Mayar'
tp467
a(S'753133826'
p468
S'Ahmad Tassal'
tp469
a(S'100000838451879'
S'Sifat Samoon'
tp470
a(S'100006309425961'
S'\\u0645\\u0698\\u06af\\u0627\\u0646 \\u0634\\u0645\\u0633\\u06cc'
tp471
a(S'100006220867874'
S'\\u0689\\u0627\\u06a9\\u067c\\u0631\\u0639\\u0628\\u062f\\u0627\\u0644\\u0642\\u06cc\\u0648\\u0645 \\u0630\\u06a9\\u064a'
tp472
a(S'100001398396983'
S'Asadullah Amani'
tp473
a(S'100006039042614'
S'Hajy Mohsin Haqmal'
tp474
a(S'100007355821844'
S'Enayatullah Mubariz'
tp475
a(S'100008111584443'
S'Abdul Jamea Serajey'
tp476
a(S'100005480743334'
S'\\u0646\\u0648\\u06cc\\u062f\\u0627\\u0644\\u0644\\u0647 \\u0646\\u0648\\u0631\\u06cc\\u0627\\u0646'
tp477
a(S'100006464005254'
S'\\u0627\\u0633\\u062f\\u0627\\u0644\\u0644\\u0647 \\u0647\\u0644\\u0645\\u0646\\u062f'
tp478
a(S'100006993070430'
S'Salem Khan'
tp479
a(S'100008001462404'
S'Haya Ehsas'
tp480
a(S'100006335527481'
S'\\u0639\\u0628\\u062f\\u0627\\u0644\\u062c\\u0627\\u0645\\u0639 \\u0633\\u0631\\u0627\\u062c\\u06cc'
tp481
a(S'100007096480926'
S'Afghanzai Achkzai'
tp482
a(S'100006457714897'
S'Mehran Sherry'
tp483
a(S'100002571798519'
S'Farid Ahmad Afghan'
tp484
a(S'100003957793351'
S'\\u0639\\u0628\\u062f\\u0627\\u0644\\u0646\\u0627\\u0635\\u0631 \\u06be\\u0645\\u062a'
tp485
a(S'100005486343821'
S'Qasam Khan Hemat'
tp486
a(S'100004062390029'
S'Masood Barak'
tp487
a(S'100005109102769'
S'Aliyawar Hamidi'
tp488
a(S'100002074358729'
S'Asmatullah Asim'
tp489
a(S'100004941705784'
S'Abdul Wali'
tp490
a(S'100005540287626'
S'Ferooz Sherzia'
tp491
a(S'100002792788883'
S'Rahman Karizwal'
tp492
a(S'100006155910018'
S'Mohammad Ali Abid'
tp493
a(S'100001116905701'
S'Fahim Sadat'
tp494
a(S'100007595041894'
S'Qudratullah Fhem'
tp495
a(S'100006495945815'
S'Nasrin Barakzai'
tp496
a(S'100005826640919'
S'Qadeer Dawari'
tp497
a(S'100007010313421'
S'Abdul Jabar Khadiam'
tp498
a(S'100003466424873'
S'Ilyas Uddin'
tp499
a(S'100008258610777'
S'\\u0627\\u0633\\u0644\\u0627\\u0645 \\u0627\\u0644\\u062f\\u064a\\u0646 \\u062f\\u0648\\u0633\\u062a'
tp500
a(S'100006355265064'
S'Amerkhan Ameri'
tp501
a(S'100006202419641'
S'Malik Khan Afghan'
tp502
a(S'100004586622745'
S'Rahimullah Delawar'
tp503
a(S'100006137290708'
S'Elham Rahimi'
tp504
a(S'100007615182764'
S'\\u0633\\u0631\\u0648\\u0631\\u06a9\\u0648 \\u0633\\u0646\\u06ab\\u0631\\u0646\\u0647 \\u0648\\u0631\\u06a9\\u0648'
tp505
a(S'100006467964241'
S'\\u0645\\u062d\\u0645\\u062f\\u0639\\u06cc\\u0633\\u06cc \\u0627\\u0644\\u0641\\u062a'
tp506
a(S'100007410850404'
S'\\u0632\\u0647\\u06cc\\u0631 \\u06cc\\u0627\\u0631'
tp507
a(S'100000883224636'
p508
S'\\u062e\\u0628\\u0631\\u06cc\\u0627\\u0644 \\u0648\\u06cc\\u0628 \\u067e\\u0627\\u06bc\\u0647'
tp509
a(S'100003354397914'
S'Noor Ahmad Jan Ahmadi'
tp510
a(S'100003231096653'
S'Zahid Hussain Khan'
tp511
a(S'100004331348865'
S'Amin Safi'
tp512
a(S'100007496106823'
S'Ahmad Barak'
tp513
a(S'100005842273376'
S'Qadar Khan'
tp514
a(S'100006936218902'
S'\\u062d\\u0627\\u062c\\u06cc \\u0645\\u062d\\u0645\\u062f\\u0646\\u0639\\u06cc\\u0645 \\u0628\\u0627\\u0631\\u06a9 \\u0647\\u0644\\u0645\\u0646\\u062f\\u06af\\u0631\\u06cc\\u0634\\u06a9'
tp515
a(S'100006561944864'
S'\\u0639\\u0628\\u062f\\u0627\\u0644\\u0645\\u0646\\u0627\\u0646 \\u062f\\u0627\\u0646\\u0634'
tp516
a(S'100000955836187'
p517
S'\\u0628\\u062e\\u062a \\u0635\\u062f\\u064a\\u0642\\u064a'
tp518
a(S'100006832141343'
S'Basir Sirat'
tp519
a(S'1695784202'
S'\\u0698\\u0645\\u0646 \\u0648\\u0631\\u062f\\u06ab'
tp520
a(S'100006649800320'
S'Nasar Abdul Sattar'
tp521
a(S'100005019428502'
S'Pashtoon Khan'
tp522
a(S'100001452769164'
S'Wali Hemat'
tp523
a(S'100004201028886'
S'\\u067c\\u0648\\u0644\\u0646\\u06cc\\u0632\\u0647 \\u0631\\u0633\\u0646\\u06cd'
tp524
a(S'1336462683'
S'\\u0647\\u0644\\u0645\\u0646\\u062f \\u0698\\u0648\\u0646\\u062f\\u06cc \\u0648\\u06cc'
tp525
a(S'100007017791823'
S'Zahir Noori'
tp526
a(S'100006540180869'
S'Ahmad Rashad Yarmand'
tp527
a(S'100007598143062'
S'Saleeha Salih'
tp528
a(S'100002504222199'
S'Mirwais Popal'
tp529
a(S'100001675200573'
p530
S'Mohammad Din Hamdard'
tp531
a(S'100006830583560'
S'\\u0627\\u0641\\u063a\\u0627\\u0646 \\u063a\\u0645\\u062e\\u0648\\u0631'
tp532
a(S'100001411159639'
S'Abdul Hakim Ayubi'
tp533
a(S'100005959873522'
S'Hajji Hakim Baloch Zarifi'
tp534
a(S'100006529776692'
S'Ehsanullah Ehsan'
tp535
a(S'100008301013236'
S'Wali Safi'
tp536
a(S'100007321202245'
S'\\u0646\\u06cc\\u0645\\u06af\\u0691\\u06cc \\u0698\\u0648\\u0646\\u062f'
tp537
a(S'100004484704179'
S'Saleh Mohammad Sarwari'
tp538
a(S'100006486156742'
S'Hedayatullah Khan Ghazali'
tp539
a(S'100006616321479'
S'Ismail Azizi'
tp540
a(S'100007494961924'
S'\\u06ab\\u0644 \\u0627\\u062d\\u0645\\u062f \\u0647\\u0645\\u0646\\u0648\\u0627'
tp541
a(S'100003661605918'
S'Yahyakhan Barak'
tp542
a(S'100006718830121'
S'\\u0627\\u0631\\u0632\\u0648 \\u0645\\u06cc\\u0646\\u0647'
tp543
a(S'100007531094438'
S'\\u0639\\u0628\\u062f\\u0627\\u0644\\u0633\\u0644\\u0627\\u0645 \\u062d\\u0646\\u06cc\\u0641\\u06cc'
tp544
a(S'100006004602619'
S'Abdul Qadeer Islami'
tp545
a(S'1025304245'
p546
S'Jalal Zaki'
tp547
a(S'100004974604209'
S'Sohrab Aslami'
tp548
a(S'100000568155085'
S'\\u06cc\\u0648\\u0633\\u0641 \\u0633\\u0627\\u067e\\u06cc'
tp549
a(S'100007677612799'
S'Sultan Samsoor'
tp550
a(S'100007326120381'
S'\\u062d\\u0645\\u06cc\\u062f\\u06af\\u0644 \\u0635\\u0627\\u0628\\u0631\\u06cc'
tp551
a(S'100008190998474'
S'Rahmatullah Hanefi'
tp552
a(S'100004512334617'
S'Boor Jan Jahadmal'
tp553
a(S'100005003379599'
S'Qudratullah Pashtonyar'
tp554
a(S'100004787475384'
S'\\u0627\\u0633\\u062f\\u0627\\u0644\\u0644\\u0647 \\u0646\\u0648\\u0631\\u0632\\u06cc'
tp555
a(S'100003998312141'
S'Waheedullah Danish'
tp556
a(S'100006949172971'
S'Mahbat Karizwal'
tp557
a(S'100001725428649'
S'Mashal Zaki'
tp558
a(S'100005363551216'
S'A Shakoor Serat Noorzai'
tp559
a(S'100006280056930'
S'\\u0645\\u0646\\u0635\\u0648\\u0631 \\u0631\\u0639\\u062f\\u0628\\u0631\\u0642'
tp560
a(S'100006286087940'
S'Hafizullah Zaland'
tp561
a(S'100008229070666'
S'Ali Asghar Neyazi'
tp562
a(S'100004296817412'
S'Matiullah Wesa'
tp563
a(S'100007254643454'
S'Khaliqdad Roshan'
tp564
a(S'100006246764475'
S'\\u0632\\u0645\\u0627\\u062f\\u0644\\u0631\\u06d0-\\u0648\\u0637\\u0646 \\u06cc\\u0627\\u0631\\u0647'
tp565
a(S'100007716728639'
S'\\u062d\\u0643\\u0645\\u062a \\u0627\\u0644\\u0644\\u0647 \\u062e\\u067e\\u0644\\u0648\\u0627\\u0643'
tp566
a(S'100007296190103'
S'\\u0635\\u062f\\u06cc\\u0642 \\u0627\\u0644\\u0644\\u0647 \\u0635\\u0645\\u06cc\\u0645'
tp567
a(S'100002272101793'
S'Ashraf Ghani'
tp568
a(S'100002348833011'
S'\\u0639\\u0628\\u062f\\u0627\\u0644\\u0647\\u0627\\u062f\\u06cc \\u0639\\u0645\\u0631\\u06cc'
tp569
a(S'100002169432823'
S'Malika Helmandi'
tp570
a(S'100006400092211'
S'Barishna Garishk'
tp571
a(S'100007065401561'
S'Ab Sikandar'
tp572
a(S'100006973631913'
S'Shakib Samimi'
tp573
a(S'100004933330814'
S'Mohammad Gul Alizi'
tp574
a(S'100007655832436'
S'\\u0627\\u0645\\u06cc\\u0631\\u0645\\u062d\\u0645\\u062f \\u0627\\u0645\\u06cc\\u0644'
tp575
a(S'100007759054818'
S'Mahmood Noorzai'
tp576
a(S'100001591852190'
S'Tamim Latifi'
tp577
a(S'100000311320515'
p578
S'Maiwand Fida'
tp579
a(S'100006309878049'
S'\\u0628\\u06cc\\u06af\\u0627\\u0646\\u0647 \\u0648\\u0641\\u0627'
tp580
a(S'100007507269615'
S'\\u0641\\u0627\\u0646\\u06cc \\u062f\\u0646\\u06cc\\u0627'
tp581
a(S'100001269858210'
p582
S'Afghan YouthAgenda'
tp583
a(S'100006719863020'
S'Jan Agha'
tp584
a(S'100007384873935'
S'Mohammad Tawab Ziaar'
tp585
a(S'100000072650282'
S'\\u0425\\u0430\\u043c\\u0435\\u0434 \\u0425\\u0430\\u0448\\u0438\\u043c\\u0438'
tp586
a(S'100004535949038'
S'Arian Yun'
tp587
a(S'100003900014962'
S'Ahmad Shah Safari'
tp588
a(S'100007631442215'
S'Mohammad Dawood Umarzad'
tp589
a(S'100002285098262'
S'Hadi Rahmani'
tp590
a(S'100004960024010'
S'Fatima Wafa'
tp591
a(S'100004101242275'
S'RaeesAhmad Danish'
tp592
a(S'100006486379472'
S'Mohammad Rasol'
tp593
a(S'100003694105267'
S'Habibullah Zaki'
tp594
a(S'100005451963455'
S'Haji Ahmad Ahmad'
tp595
a(S'100007580522425'
S'Abdul Ahad Momand'
tp596
a(S'100005052668848'
S'Markaz Sawad'
tp597
a(S'100007446274146'
S'Shirzad Safizada'
tp598
a(S'100002113441730'
p599
S'Spogmai Mangal'
tp600
a(S'100008130154527'
S'Hewad Omar'
tp601
a(S'100006337153493'
S'Ghulam Hamidi'
tp602
a(S'100006881767804'
S'\\u0632\\u0645\\u0631\\u06cc\\u0627\\u0644\\u06cc \\u0648\\u0641\\u0627'
tp603
a(S'100007660565020'
S'\\u0628\\u0631\\u06cc\\u0627\\u0644\\u06cc \\u067e\\u0631\\u0648\\u0627\\u0646\\u0647'
tp604
a(S'100006850561361'
S'Haji Noorullah Jalali'
tp605
a(S'100005776413546'
S'Loy Kandahar'
tp606
a(S'100007925642480'
S'Alirahman Rahman'
tp607
a(S'100001201935497'
S'Sharif Ahmad'
tp608
a(S'100002050977959'
S'Faridullah Muzzammil'
tp609
a(S'100007325204533'
S'\\u0641\\u0636\\u0644 \\u0628\\u0627\\u0631\\u06cc \\u0627\\u0646\\u062a\\u0638\\u0627\\u0631'
tp610
a(S'100002504246125'
S'Noor Jamal Khan'
tp611
a(S'100006439471204'
S'\\u0645\\u06cc\\u0648\\u0646\\u062f \\u0645\\u06cc\\u0693\\u0646\\u06cc'
tp612
a(S'100006106335672'
S'\\ufe9f\\ufee4\\ufbff\\ufee0\\ufeea \\u0645\\u0632\\u0627\\u0631\\u06cc'
tp613
a(S'100007297356326'
S'Sayed Mohammad'
tp614
a(S'100006841442729'
S'Stanikzai Stanikzai'
tp615
a(S'100006335162869'
S'Noor Ahmad'
tp616
a(S'100001876152098'
S'Ashuqullah Atif'
tp617
a(S'1012560773'
S'Shafiullah Aziz'
tp618
a(S'100000955342002'
S'Pakhtoon Unity'
tp619
a(S'100006225102500'
S'\\u062e\\u0648\\u0628 \\u0646\\u0647 \\u0631\\u0627\\u0681\\u06cc'
tp620
a(S'100003038824278'
S'Sattar Stoory'
tp621
a(S'100004438600737'
S'Sadiqullah Khan'
tp622
a(S'100000167320580'
S'Hamida Paktianay'
tp623
a(S'100001239113035'
S'\\u067e\\u069a\\u062a\\u0648\\u0646 \\u0634\\u06cc\\u0631\\u0632\\u0627\\u062f \\u0646\\u0646\\u06ab\\u06cc\\u0627\\u0644\\u06cc'
tp624
a(S'100004232016862'
S'\\u0645\\u062d\\u0628 \\u0627\\u0644\\u0644\\u0647 \\u0639\\u0637\\u0627\\u06cc\\u06cc'
tp625
a(S'100001494746980'
S'Rahmatullah Roufi'
tp626
a(S'100006847721546'
S'\\u0639\\u0628\\u062f\\u0627\\u0644\\u0633\\u0644\\u0627\\u0645 \\u0627\\u0641\\u063a\\u0627\\u0646'
tp627
a(S'100003960526758'
S'Afghan Amin'
tp628
a(S'100004632910940'
S'\\u0645\\u062d\\u0645\\u062f \\u0646\\u0628\\u06cc \\u062d\\u0646\\u0641\\u06cc'
tp629
a(S'100004323241298'
S'Shohab Afghan'
tp630
a(S'100007560189475'
S'Haji Ghulam Mohammad'
tp631
a(S'100003512299301'
S'D\\u00eb\\u0175\\u00e2\\u00f1 \\u00ca\\u0161hq'
tp632
a(S'100008206022011'
S'Zahirjan Zaheer'
tp633
a(S'100006365174170'
S'\\u0634\\u0647\\u06cc\\u062f\\u062f\\u0627\\u06a9\\u062a\\u0631\\u0646\\u062c\\u06cc\\u0628 \\u0627\\u0644\\u0644\\u0647 \\u0627\\u062d\\u0645\\u062f\\u0632\\u06cc'
tp634
a(S'100006162158412'
S'Toryaly Rahimi'
tp635
a(S'100006303759225'
S'\\u069a\\u06a9\\u0644\\u06cc \\u0627\\u0641\\u063a\\u0627\\u0646\\u0627\\u0646'
tp636
a(S'100000572380331'
S'Hamidullah Sadat'
tp637
a(S'100007895198084'
S'\\u0647\\u0631\\u0627\\u062a\\u060c\\u06a9\\u0627\\u0628\\u0644 \\u0644\\u0648\\u06cc\\u0647 \\u0644\\u0627\\u0631'
tp638
a(S'100001998852710'
S'\\u062e\\u0648\\u0633\\u062a \\u0643\\u0644\\u064a\\u062f \\u0631\\u0627\\u0689\\u06cc\\u0648'
tp639
a(S'100007254934487'
S'Ahmad Shah Afghan'
tp640
a(S'100000305324200'
S'Elmudin Faizi Torakhil'
tp641
a(S'100002585450545'
S'Parwiz Habibi'
tp642
a(S'100006269407584'
S'Shakoor Rawan Sapi'
tp643
a(S'100008085198101'
S'Boy Jan'
tp644
a(S'100006556990719'
S'Abdullah Turabi'
tp645
a(S'100003020280285'
S'Dellawar Barak'
tp646
a(S'100005942792436'
S'Mohmmad Jan Watanwal'
tp647
a(S'100004900898522'
S'FaridAhmad Sahel'
tp648
a(S'100003298451459'
S'\\u0645\\u062d\\u0645\\u062f \\u0635\\u0627\\u062f\\u0642 \\u0635\\u0627\\u062f\\u0642'
tp649
a(S'754010782'
S'Reena Ramsaran'
tp650
a(S'100008113146103'
S'\\u0641\\u0636\\u0644\\u06cc \\u0627\\u062d\\u0645\\u062f \\u0641\\u0636\\u0644\\u06cc'
tp651
a(S'100004058471404'
S'Dost Mohammad Nabzadh'
tp652
a(S'100006299679138'
S'Ahmad Shah Afghan'
tp653
a(S'100001606301947'
S'Mujtaba Hashemi'
tp654
a(S'100008251603715'
S'Haji Zulmi'
tp655
a(S'100007572971119'
S'\\u0633\\u0645\\u06cc\\u0639 \\u0627\\u0644\\u0644\\u0647 \\u062b\\u0627\\u0642\\u06cc\\u0628'
tp656
a(S'100007089909814'
S'Amir Mohammad'
tp657
a(S'100000797471709'
S'Ghulam Yahya Sargand'
tp658
a(S'100001778408384'
S'\\u0645\\u0644\\u0627\\u0644\\u064a \\u0645\\u064a\\u0648\\u0646\\u062f'
tp659
a(S'100005699856167'
S'Habibrhman Azizi'
tp660
a(S'100006094360460'
S'Haji Israyel Noorzai'
tp661
a(S'100004103541382'
S'Eng Mohd Qasam Helmand'
tp662
a(S'100002068477028'
S'\\u0628\\u0631\\u0645\\u0644 \\u067e\\u0631\\u0647\\u0631'
tp663
a(S'100006719203174'
S'Qudratullah Sadozay'
tp664
a(S'100004010144252'
S'Abdul Rashid Hakimi'
tp665
a(S'100004724372113'
S'Aliasghar Neyazi'
tp666
a(S'100006186122672'
S'Zulmai Barakzai'
tp667
a(S'100001529794925'
S'Hashmat Ullah Atid'
tp668
a(S'100007795772438'
S'\\u0627\\u0633\\u062f\\u0644\\u0644\\u0647 \\u0648\\u0641\\u0627'
tp669
a(S'100003520477168'
S'Farid Reshitin'
tp670
a(S'100003602041435'
S'Asad Ullah'
tp671
a(S'100006238210152'
S'Aziz GilanWal'
tp672
a(S'100005307338820'
S'Habibshabab Helmand'
tp673
a(S'100005628933129'
S'Aminullah Aminullah Khan Ahamadi'
tp674
a(S'100007663331208'
S'Hikmatullah Miwand'
tp675
a(S'100002999224189'
S'Nasir Zia Nasiry'
tp676
a(S'100006488933269'
S'Abdul Khalil Daqiq'
tp677
a(S'100003245943809'
S'Benafsha Wafa'
tp678
a(S'100004462114092'
S'Enayatullah Rezwan'
tp679
a(S'100007780120339'
S'\\u0645\\u062c\\u06cc\\u0628 \\u0627\\u0644\\u0631\\u062d\\u0645\\u0646 \\u0631\\u062d\\u0645\\u0627\\u0646\\u06cc'
tp680
a(S'100007674482398'
S'\\u0689\\u06cc\\u0648\\u0631\\u0646\\u0689 \\u0644\\u06cc\\u0643 \\u0646\\u0647 \\u0645\\u0646\\u0648'
tp681
a(S'100006601718931'
S'\\u0639\\u0628\\u062f\\u0627\\u0644\\u062d\\u06a9\\u06cc\\u0645 \\u062d\\u06a9\\u06cc\\u0645\\u06cc'
tp682
a(S'100007600239655'
S'\\u0627\\u0641\\u063a\\u0627\\u0646 \\u0632\\u0645\\u0631\\u06cc'
tp683
a(S'100006497731779'
S'\\u0631\\u0648\\u063a \\u0645\\u0644\\u0627\\u0639\\u0645\\u0631'
tp684
a(S'100007742171788'
S'Zahid Waziri'
tp685
a(S'100006510469917'
S'\\u0647\\u0644\\u0645\\u0646\\u062f \\u0696\\u063a'
tp686
a(S'100000307006110'
S'Samiullah Rahimi'
tp687
a(S'100006473822271'
S'\\u0633\\u06a9\\u06cc\\u0646\\u0647 \\u0633\\u0627\\u062f\\u0627\\u062a'
tp688
a(S'100006570722682'
S'Noorya Hamdard'
tp689
a(S'100006379595099'
S'Lashkargah Plus'
tp690
a(S'100007543891448'
S'\\u0627\\u0644\\u0647\\u0627\\u0645 \\u06a9\\u062a\\u0648\\u0627\\u0632\\u06cc'
tp691
a(S'100002224648526'
S'Mohammad Sohail Shahzad'
tp692
a(S'100007554125578'
S'\\u0622\\u0635\\u0641 \\u062c\\u0627\\u0646 \\u062c\\u0647\\u0627\\u0646\\u06af\\u06cc\\u0631'
tp693
a(S'100006985654297'
S'Noorullhaq Noorzai'
tp694
a(S'100007259614134'
S'AkhtarMohammad Dawari'
tp695
a(S'100005360701067'
S'Barakatullah Rohani'
tp696
a(S'100007068573871'
S'\\ufead\\ufea3\\ufee4\\ufe96 \\u0627\\ufedf\\ufee0\\ufeea \\ufe91\\ufeae\\ufef3\\ufe8e\\ufedf\\ufef2'
tp697
a(S'100001739644851'
S'Masood Syllab'
tp698
a(S'100007326662377'
S'\\u067e\\u0631 \\u062c\\u0627\\u0646\\u0627\\u0646 \\u062f\\u0631\\u0648\\u062f \\u0648\\u0648\\u0627\\u06cc\\u06c1'
tp699
a(S'100006671586633'
S'Khudidad Faryabi'
tp700
a(S'100006955390651'
S'Shahwalli Abed'
tp701
a(S'100001533143521'
p702
S'Tawab Turabi'
tp703
a(S'100007498453929'
S'Niaz Mohammad Khaksar'
tp704
a(S'100002267199583'
S'Qudratullah Liwal'
tp705
a(S'100006814622882'
S'Lalmohammad Maiwand'
tp706
a(S'100006328181576'
S'Ajmal Saber'
tp707
a(S'783171154'
S'Asad Danish'
tp708
a(S'100007535171982'
S'Basir Ahmad Hashemi'
tp709
a(S'100004418080226'
S'\\u0627\\u0644\\u062d\\u0627\\u062c \\u0639\\u0628\\u06cc\\u062f\\u0627\\u0644\\u0644\\u0647 \\u0628\\u0627\\u0631\\u06a9\\u0632\\u06cc'
tp710
a(S'100008264686064'
S'Khair Mohammad'
tp711
a(S'100006966151703'
S'Mahdi Khan Noorzai'
tp712
a(S'100004975687594'
S'\\u06af\\u0644 \\u0645\\u062d\\u0645\\u062f \\u0646\\u0648\\u0631\\u06cc'
tp713
a(S'100007718492508'
S'Azatullah Azat'
tp714
a(S'100003683045928'
S'Imall Noorzai'
tp715
a(S'100008092056942'
S'Mohammad Osman Ayuobi'
tp716
a(S'100004441117713'
S'Bhaudin Khosti'
tp717
a(S'100001742725022'
S'\\u0633\\u06cc\\u062f \\u0645\\u062d\\u0645\\u062f \\u0632\\u06cc\\u0627\\u0631\\u0645\\u0644'
tp718
a(S'100007190324506'
S'Jamil Ahmad Barakzai'
tp719
a(S'100003391387322'
S'Noor Ahmad Himat'
tp720
a(S'100006636276880'
S'\\u0645\\u0644\\u0627 \\u0689\\u06cc\\u0633\\u06a9\\u0648'
tp721
a(S'100001203865085'
S'Qamosona Pashto Dictionary'
tp722
a(S'100007287613112'
S'Khoshhal Ayubi'
tp723
a(S'100007718916282'
S'Nikmohammad Shirzad'
tp724
a(S'100007690510955'
S'\\u0630\\u0628\\u064a\\u062d \\u0627\\u0644\\u0644\\u0647 \\u0632\\u0627\\u0647\\u062f\\u064a'
tp725
a(S'596293830'
S'Hamidullah Ilham'
tp726
a(S'100007621060384'
S'Ziaulrahman Barakzai'
tp727
a(S'100001547243360'
S'Abdul Salam Wafa'
tp728
a(S'100003169150048'
S'Ahmad Zaheer'
tp729
a(S'100000243089003'
S'Gul Ahmad Waziri'
tp730
a(S'100004760379050'
S'Tooryalai Afghan'
tp731
a(S'100002663889699'
S'Akhter Mohammad Barakzai'
tp732
a(S'100003584839752'
S'Ahmad Shah Ahmadi'
tp733
a(S'100003137408390'
S'Loy Amarkhil'
tp734
a(S'100007538352551'
S'Bost Print'
tp735
a(S'100006389880849'
S'M Alemjanbaz Janbaz'
tp736
a(S'100005974296372'
S'Blo Cked Id'
tp737
a(S'100003120531437'
S'\\u0646\\u0630\\u06cc\\u0631\\u0627\\u062d\\u0645\\u062f \\u0631\\u069a\\u062a\\u0646\\u06cc'
tp738
a(S'100006415838212'
S'Niamat Ullahbreach'
tp739
a(S'100003999123320'
S'\\u0639\\u0628\\u062f\\u0627\\u0644\\u062a\\u0648\\u0627\\u0628 \\u062e\\u067e\\u0644\\u0648\\u0627\\u06a9'
tp740
a(S'100004219565576'
S'Zabihullah Noorzi Afghan'
tp741
a(S'100003142522434'
S'Bismellah Khan'
tp742
a(S'100006233371305'
S'Zia Khan Safi'
tp743
a(S'100002572697333'
S'Mohammad Arif Karizwal'
tp744
a(S'100007696621681'
S'Mostafa Atabay'
tp745
a(S'100000959088795'
S'Sayed Ahmad Afghan'
tp746
a(S'100006510512638'
S'Samiullah Khan'
tp747
a(S'100007331678913'
S'\\u0633\\u0643\\u064a\\u0646\\u0647 \\u0645\\u064a\\u0646\\u0647'
tp748
a(S'100001341022826'
S'Said Ahmad Wror'
tp749
a(S'100006843492104'
S'\\u0645\\u062d\\u0645\\u062f \\u0637\\u0627\\u0647\\u0631 \\u0627\\u0644\\u06a9\\u0648\\u0632\\u06cc'
tp750
a(S'100007492772455'
S'Ajmal Safi'
tp751
a(S'100007622975940'
S'Najeebullah Parwani'
tp752
a(S'100007639904038'
S'Seyad Wali Noori'
tp753
a(S'100007681808945'
S'Kdr Times'
tp754
a(S'100007639061150'
S'\\u067e\\u0648\\u0644\\u06cc\\u0633 \\u062f\\u067c\\u0648\\u0644\\u0646\\u06cc \\u062e\\u062f\\u0645\\u062a\\u06ab\\u0627\\u0631 \\u067e\\u0648\\u0644\\u06cc\\u0633'
tp755
a(S'100007636261574'
S'Leo Messi'
tp756
a(S'632423591'
S'Baaz Abid'
tp757
a(S'100000672889267'
S'Daud Junbish'
tp758
a(S'100001554829005'
S'Nan Afghan'
tp759
a(S'100001083775640'
p760
S'Rahmatullah Hamid'
tp761
a(S'100007744354946'
S'Khan Jaman'
tp762
a(S'100005825341663'
S'Naeem Katawazai'
tp763
a(S'100007721144320'
S'Masood Mojadadi'
tp764
a(S'100007932874511'
S'\\u0635\\u0627\\u0644\\u062d \\u0645\\u062d\\u0645\\u062f \\u0627\\u064a\\u0648\\u0628\\u064a'
tp765
a(S'100002194622708'
S'Iqbal Khyber'
tp766
a(S'100004124168548'
S'Nazifa Kazimy'
tp767
a(S'100006946987345'
S'\\u0627\\u062d\\u0633\\u0627\\u0646 \\u0627\\u0644\\u0644\\u0647 \\u0628\\u0627\\u0631\\u06a9'
tp768
a(S'100006246518934'
S'Mohammad Sadiq Arman'
tp769
a(S'100006843570793'
S'Samsor Mobin'
tp770
a(S'100006304001510'
S'Zabihullah Lash'
tp771
a(S'100007094255230'
S'Gull Mohammad Noori'
tp772
a(S'100007169310503'
S'Ahmad Sadiqi'
tp773
a(S'100004286469052'
S'Farhad Nasiri'
tp774
a(S'100006957399670'
S'Idrise Rohual'
tp775
a(S'100001065952691'
S'Mirza Cch'
tp776
a(S'100001923162331'
S'\\u064a\\u0643 \\u0627\\u0641\\u063a\\u0627\\u0646'
tp777
a(S'100002835040967'
S'Mohammad Daud Farhang'
tp778
a(S'100001269020631'
p779
S'Helmand Khamosh'
tp780
a(S'100006233743724'
S'Naqib Ahmadi'
tp781
a(S'100002441370351'
S'\\u0648\\u064a\\u0633\\u0627 \\u062e\\u067e\\u0644\\u0648\\u0627\\u0643\\u0647 \\u0648\\u0631\\u0681\\u067e\\u0627\\u06bc\\u0647'
tp782
a(S'100007322139347'
S'Umar Umari'
tp783
a(S'100008172068949'
S'Loy Afghanistan'
tp784
a(S'100007538589055'
S'Zalmi Fazli'
tp785
a(S'100001663515771'
p786
S'\\u0645\\u062d\\u0645\\u062f\\u0646\\u0639\\u06cc\\u0645 \\u0631\\u062d\\u0645\\u0627\\u0646\\u06cc'
tp787
a(S'100004395491721'
S'Gulalai Ehsas'
tp788
a(S'100006779765806'
S'Naqib Noorzai'
tp789
a(S'100002193779168'
S'\\u0647\\u06d0\\u0648\\u0627\\u062f \\u067c\\u0644\\u0648\\u06d0\\u0632\\u06cc\\u0648\\u0646'
tp790
a(S'1788301713'
S'Tam Tamim'
tp791
a(S'100003534187160'
S'Hamidullah Hewad'
tp792
a(S'100007861450898'
S'\\u067e\\u0648\\u0644\\u06cc\\u0633 \\u06a9\\u0627\\u06a9\\u0627'
tp793
a(S'100006525672111'
S'Naqeebullah Zmarial'
tp794
a(S'100003396464616'
S'Mustafa Boss Tasal'
tp795
a(S'100003211935210'
S'Saleem Popal'
tp796
a(S'100005815308342'
S'Farid Ahmad Nazari'
tp797
a(S'100006231215618'
S'Shukrullah Helmandi'
tp798
a(S'743668666'
S'Afghan Ryahan'
tp799
a(S'100006617048018'
S'Muhammad Rahman\\u0131'
tp800
a(S'100006500373613'
S'Nooria Wafa'
tp801
a(S'100004740663437'
S'\\u0698\\u0648\\u0646\\u062f\\u06cc \\u062f\\u06cc \\u0648\\u06cc \\u067e\\u069a\\u062a\\u0648\\u0646'
tp802
a(S'100002319814129'
S'\\u0645\\u062d\\u0645\\u062f \\u0634\\u0631\\u06cc\\u0641 \\u0634\\u06cc\\u0631\\u0632\\u06cc'
tp803
a(S'100001970422479'
S'Eng Matiullah Bahier'
tp804
a(S'100007482186462'
S'Farid Azizi'
tp805
a(S'100007654506291'
S'Atiqullah Salehi'
tp806
a(S'100001231175956'
S'Shah Wali Sahil'
tp807
a(S'100008289999067'
S'Meena Afghan'
tp808
a(S'100001427050027'
S'Toryalai Rahmani'
tp809
a(S'100007786903368'
S'Abdulhamid Seelab'
tp810
a(S'100007577883488'
S'\\u0631\\u0646\\u06af\\u064a\\u0646 \\u062f\\u0641\\u062a\\u0627\\u0646\\u064a'
tp811
a(S'100001362451043'
S'Ahmad Shah Arian Haidari'
tp812
a(S'100007532083677'
S'\\u0647\\u0644\\u0645\\u0646\\u062f\\u062a\\u0647 \\u0633\\u0644\\u0627\\u0645'
tp813
a(S'100007708831854'
S'Samiullah Nizami'
tp814
a(S'100007447021104'
S'Ziaulhaq Noorzai'
tp815
a(S'100007476372544'
S'Mohabullah Azemi'
tp816
a(S'100007261690209'
S'Hedayatullah Popal'
tp817
a(S'100008303439061'
S'Abdul Wahid Dawary'
tp818
a(S'100008142725737'
S'Bacha Mandokhil'
tp819
a(S'100007680781087'
S'\\u0645\\u0639\\u062a\\u0635\\u06cc\\u0645 \\u0627\\u0641\\u063a\\u0627\\u0646'
tp820
a(S'740225654'
S'Pamir Cardcom'
tp821
a(S'100006240731371'
S'Mehrab Shaeda'
tp822
a(S'100000274318628'
p823
S'\\u0627\\u062d\\u0645\\u062f\\u062c\\u0627\\u0646 \\u062e\\u0627\\u062f\\u0645'
tp824
a(S'100007688954043'
S'Asmat Ullah Ameni'
tp825
a(S'100000602141032'
S'Qais Alizai'
tp826
a(S'100004858662992'
S'Waheedullah Amiri'
tp827
a(S'100002085311776'
S'Mena Mangal'
tp828
a(S'100006274543622'
S'MIrafzal Jaan'
tp829
a(S'100006420128670'
S'Agha Jan Ashna'
tp830
a(S'100003781868494'
S'Nader Shah Haqmal'
tp831
a(S'100007877970466'
S'Noor Mohammad Zia'
tp832
a(S'100001211830403'
S'King Wakeel Moneeb'
tp833
a(S'100000993560513'
S'Shamsudin Muhib'
tp834
a(S'100007931260535'
S'Zahir Kakar'
tp835
a(S'100006398102867'
S'Graan Afghanistan'
tp836
a(S'100007654323936'
S'\\u0627\\u0633\\u062f\\u0627\\u0644\\u0644\\u0647 \\u06a9\\u0627\\u06a9\\u0693'
tp837
a(S'100008240718682'
S'Sardar Mohammad'
tp838
a(S'100007608911572'
S'Muhamad Khan'
tp839
a(S'100007573920576'
S'Allawadin Helmand'
tp840
a(S'100007072953880'
S'Abdulhabib Baris'
tp841
a(S'100006562695392'
S'\\u0645\\u062d\\u0645\\u062f\\u062f\\u0627\\u0648\\u062f \\u0631\\u0646\\u062c\\u0628\\u0631'
tp842
a(S'100006474197859'
S'\\u0639\\u0628\\u062f\\u0627\\u0644\\u0633\\u0644\\u0627\\u0645 \\u0639\\u0627\\u062f\\u0644'
tp843
a(S'100005093853829'
S'Jawad Balouch'
tp844
a(S'100003693964599'
S'Masood Ahmad'
tp845
a(S'100001370945838'
p846
S'Abdul Rahman Sahar'
tp847
a(S'100007717531458'
S'\\u062d\\u0627\\u062c\\u06cc \\u063a\\u0644\\u0627\\u0645 \\u0646\\u0628\\u06cc \\u0647\\u0644\\u0645\\u0646\\u062f\\u06cc'
tp848
a(S'100008250255169'
S'Hewad Afghan'
tp849
a(S'100006491597440'
S'Ahmadzai Kakar'
tp850
a(S'100001786148590'
S'Toryalai Noori'
tp851
a(S'100005390610968'
S'Noorjan Sadat'
tp852
a(S'100001628162624'
S'Delawar Pardees'
tp853
a(S'100007661770486'
S'\\u0646\\u0639\\u0645\\u062a \\u0634\\u0627\\u0647 \\u062d\\u0636\\u0631\\u062a\\u06cc'
tp854
a(S'100003728677271'
S'Masood Zaland'
tp855
a(S'100004656453054'
S'Shahwali Ziarmal Helmand'
tp856
a(S'100007501020225'
S'\\u0646\\u0648\\u06cc\\u062f \\u0627\\u062d\\u0645\\u062f \\u0645\\u0647\\u0631\\u0628\\u0627\\u0646'
tp857
a(S'100007740127216'
S'Wahidullah Nang'
tp858
a(S'100006532531175'
S'\\u0633\\u06cc\\u062f \\u0646\\u0630\\u06cc\\u0631\\u0647\\u0627\\u0634\\u0645\\u064a \\u06cc\\u0646'
tp859
a(S'1551117031'
S'Shael Gyan'
tp860
a(S'100007962305949'
S'Mohammad Younas Afghan'
tp861
a(S'100007391765976'
S'Hidayatullah Agha'
tp862
a(S'100007257906634'
S'Samiullah Wafadar'
tp863
a(S'100002163109771'
p864
S'Hameeda Ahmadzai'
tp865
a(S'100002288928048'
p866
S'Touryalai Sayed Khail'
tp867
a(S'100001348920482'
p868
S'Zainullah Stanikzai'
tp869
a(S'656867706'
S'Kamal Hashimi'
tp870
a(S'100007294862062'
S'M Younas Popal'
tp871
a(S'100006384844429'
S'Obaid Afghan'
tp872
a(S'100001740252339'
S'Abdul Haq Zwakman'
tp873
a(S'100000848906012'
S'Ali Mohammad Wasif'
tp874
a(S'100004094866886'
S'\\u0622\\u0631\\u0627\\u06a9\\u0648\\u0632\\u06cc\\u0627 \\u067e\\u0648\\u0647\\u0646\\u062a\\u0648\\u0646'
tp875
a(S'100000129217893'
S'Farhad Barakzai'
tp876
a(S'100005090195779'
S'Sayed Mateen Hashimi'
tp877
a(S'100008139900294'
S'Rahem Khan Shida'
tp878
a(S'100007237751712'
S'Shafiq Hamidee'
tp879
a(S'784066795'
p880
S'Asif Nang'
tp881
a(S'100007320973573'
S'Rahmatullah Omari'
tp882
a(S'100005646127892'
S'Abbas Zirak'
tp883
a(S'100005971957763'
S'Asadullah Zaland'
tp884
a(S'100006733989188'
S'Malik Helmand'
tp885
a(S'100002576350974'
S'Eng Mohammad Zahir B'
tp886
a(S'100006782294172'
S'Ezat Khan'
tp887
a(S'100001408313986'
S'Sardar Mohammad Sarwari'
tp888
a(S'100007171743178'
S'\\u0630\\u0628\\u06cc\\u062d \\u0627\\u0644\\u0644\\u0647 \\u062c\\u0627\\u0646 \\u0627\\u0641\\u063a\\u0627\\u0646'
tp889
a(S'100006930100215'
S'Khoshal Ameri'
tp890
a(S'100007676138109'
S'\\ufeaf\\ufedf\\ufee4\\ufbfd \\u0628\\u0627\\u0631\\u06a9'
tp891
a(S'100005504766925'
S'Sayedamanullah Sadat'
tp892
a(S'100007453294426'
S'Helmandbost Agri'
tp893
a(S'100006454380383'
S'Nasir Afghan Mobarak'
tp894
a(S'100008121243823'
S'Nabi Ahmad'
tp895
a(S'100004665162309'
S'Mohammad Idrise Sultani'
tp896
a(S'100001688652510'
S'Mirwais Haqmal'
tp897
a(S'100007180181748'
S'Abdul Qayoum Hemat'
tp898
a(S'100005840323652'
S'Nisar Ahmad Barak'
tp899
a(S'100001677289294'
S'Abdul Ahad Khalili'
tp900
a(S'100007592172499'
S'Aqalnoori Noori'
tp901
a(S'100005385577704'
S'Shahwali Mobariz'
tp902
a(S'100006667896773'
S'Qudratullah Azizi'
tp903
a(S'100005878446309'
S'\\u0645\\u062d\\u0645\\u062f\\u0627\\u0628\\u0631\\u0627\\u0647\\u06cc\\u0645 \\u0627\\u0641\\u063a\\u0627\\u0646\\u06cc\\u0627\\u0631'
tp904
a(S'100007251994959'
S'H Mnaim Barkzai Hlmand'
tp905
a(S'100001813407936'
S'Basira Shirzay'
tp906
a(S'100000800222378'
S'Qawi Barak'
tp907
a(S'100003239528716'
S'Masood Raqeeb'
tp908
a(S'100006800980275'
S'\\u0634\\u0645\\u06cc\\u0644\\u0627 \\u0648\\u0641\\u0627'
tp909
a(S'100003170691910'
S'Mir Wais Nazari'
tp910
a(S'100006774221358'
S'Loy Helmand'
tp911
a(S'100005486020630'
S'Ghulamhazrat Ahmadi'
tp912
a(S'100003613526047'
S'Qasam Adil'
tp913
a(S'100004675083745'
S'Noor Mohammad Achickzai'
tp914
a(S'100006655781362'
S'\\u0646\\u0639\\u0645\\u062a \\u0627\\u0644\\u0644\\u0647 \\u062f\\u0644\\u0633\\u0648\\u0632'
tp915
a(S'100003816468281'
S'Mohammad Wali Rahib'
tp916
a(S'100002657735239'
S'\\u0645\\u062d\\u0645\\u062f \\u0627\\u0646\\u0648\\u0631 \\u062d\\u06cc\\u062f\\u0631\\u064a'
tp917
a(S'100006471454459'
S'\\ufea9\\ufbac\\ufedf\\ufee4\\ufee8\\ufeaa\\ufeed\\ufefb\\ufbfe\\ufe95 \\u062f\\u0681\\u0648\\ufe8d\\ufee7\\ufe8e\\ufee7\\ufeee \\u0622\\u062f\\u0628\\u06cc \\u067c\\u0648\\u0644\\u0646\\u0647'
tp918
a(S'100008113717811'
S'Namatullah Ameni'
tp919
a(S'100007619160069'
S'\\u062e\\u0644\\u06cc\\u0644 \\u0627\\u062d\\u0645\\u062f \\u062e\\u0648\\u0634\\u062d\\u0627\\u0644'
tp920
a(S'100002774641702'
S'Mohammad Agha Fayaz'
tp921
a(S'100006474292664'
S'\\u062c\\u0627\\u0648\\u06cc\\u062f \\u0627\\u0641\\u063a\\u0627\\u0646'
tp922
a(S'100006459241160'
S'Parwiz Paeroz'
tp923
a(S'100003383964780'
S'Omarsha Noorzai'
tp924
a(S'100003073095537'
S'Wali Kashany'
tp925
a(S'100004064503194'
S'Samiullah Wali'
tp926
a(S'100004746492189'
S'Farzana Naz'
tp927
a(S'100001775269764'
p928
S'\\u0634\\u0645\\u0634\\u0627\\u062f \\u062d\\u064a\\u062f\\u0631'
tp929
a(S'100006474571883'
S'Fahema Zadran'
tp930
a(S'100002240560762'
S'\\u0634\\u0631\\u0631 \\u0633\\u0627\\u067e\\u064a'
tp931
a(S'100000984542100'
S'Sayed Faridullah Muzzammil'
tp932
a(S'100000404032149'
S'Mohammad Wali Adel'
tp933
a(S'100004800340575'
S'Sardarwali Halim'
tp934
a(S'100007535166080'
S"M C'ek"
tp935
a(S'100007443545656'
S'\\u0639\\u0628\\u062f\\u0644\\u0647\\u0627\\u062f\\u06cc \\u062f\\u0644\\u0633\\u0648\\u0632'
tp936
a(S'100006679652788'
S'Mohammad Hakim Angar'
tp937
a(S'100004972092559'
S'Omar Mukhtar'
tp938
a(S'100001824651139'
S'Mina Amani'
tp939
a(S'100008381731824'
S'Zma Helmand'
tp940
a(S'100002605484199'
S'Niaz Mohammad Zahidi'
tp941
a(S'100004309991491'
S'Asadullah Khan Kakar'
tp942
a(S'100002156477811'
p943
S'Habib Mirkhel'
tp944
a(S'100006270182231'
S'Asadullah Asad'
tp945
a(S'1277439985'
S'Khatera Asahaqzai'
tp946
a(S'100000278150111'
S'Hamid Sahil'
tp947
a(S'100006896016621'
S'Hizathullah Khan'
tp948
a(S'100000180455962'
S'\\u0641\\u0631\\u06cc\\u062f\\u0648\\u0646 \\u0641\\u06cc\\u0631\\u0648\\u0632'
tp949
a(S'100008381979734'
S'Gahfor Khan'
tp950
a(S'100004857660633'
S'M Nabi Barakzai'
tp951
a(S'100003595508164'
S'Muneer Silab'
tp952
a(S'100006224893030'
S'\\u0639\\u0628\\u062f\\u0627\\u0644\\u0648\\u062f\\u0648\\u062f \\u062e\\u0627\\u06a9\\u0633\\u0627\\u0631'
tp953
a(S'100004643347571'
S'Rasoly Hedayat'
tp954
a(S'100006598742855'
S'Nazim Noomyalai'
tp955
a(S'100000429653227'
S'Alamgul Sahar'
tp956
a(S'100007402020777'
S'\\u0627\\u0635\\u0644\\u0627\\u062d\\u06cc \\u067e\\u06cc\\u063a\\u0627\\u0645\\u0648\\u0646\\u0647'
tp957
a(S'100000874870198'
S'Farhad Dawari'
tp958
a(S'100006052266774'
S'Za Afghan Yamm AF'
tp959
a(S'100007299214800'
S'\\u062a\\u0648\\u0631\\u064a\\u0627\\u0644\\u064a \\u0633\\u0631\\u062f\\u0627\\u0631'
tp960
a(S'100005477467018'
S'Nazo Khanabari'
tp961
a(S'100007398214133'
S'Rahat Shah Barak'
tp962
a(S'100004695429203'
S'RaeesAhmad Danish'
tp963
a(S'100004391252523'
S'Sher Ahmad Ahmadi'
tp964
a(S'100005081192685'
S'EngQudratullah Serat'
tp965
a(S'100005895271869'
S'Nasrullah Zaheer'
tp966
a(S'100006048211492'
S'Hela Sadid'
tp967
a(S'100003135437588'
S'Emal Pasarly'
tp968
a(S'100008275651456'
S'Ahmad Patsoon'
tp969
a(S'100007081862283'
S'Fahim Hilal'
tp970
a(S'100007688132967'
S'Ahmad Alizai'
tp971
a(S'100008072742001'
S'Rahmatullah Zaland Afghan'
tp972
a(S'100007660771190'
S'Haroon Sahil'
tp973
a(S'100007536480032'
S'\\u0632\\u0644\\u0627\\u0646\\u062f \\u067e\\u0631\\u0648\\u0688\\u06a9\\u0634\\u0646'
tp974
a(S'100008324351435'
S'Mohib Ullah Mazlomyar'
tp975
a(S'100005520283426'
S'\\u0628\\u064a \\u0628\\u064a \\u0632\\u0627\\u0647\\u062f\\u0647 \\u0627\\u0641\\u063a\\u0627\\u0646'
tp976
a(S'100002422061008'
S'Jahanzeeb Afghan'
tp977
a(S'100007364923848'
S'\\u062d\\u0627\\u062c\\u06cc \\u0646\\u0627\\u0646\\u06cc \\u0646\\u0648\\u0631\\u0632\\u06cc'
tp978
a(S'100006398232165'
S'Muhib Muqam'
tp979
a(S'100001504594193'
p980
S'Zafar Khan'
tp981
a(S'100006404472671'
S'Abdulmalik Muneeb'
tp982
a(S'100006989910567'
S'Mohmmad Anwar Hydari'
tp983
a(S'100006368703518'
S'Pasarli Dawari'
tp984
a(S'100007237504615'
S'Qahraman Aziz Ahmad Nikyar'
tp985
a(S'100007223763561'
S'Akbar Jan'
tp986
a(S'100004632071093'
S'\\u0647\\u0627\\u0634\\u0645\\u064a \\u0622\\u063a\\u0627'
tp987
a(S'100001758774921'
S'Nabeela Sthomaan'
tp988
a(S'100004089555976'
S'Kandahar Khan'
tp989
a(S'100001687720758'
S'Farid Ahmad Farahi'
tp990
a(S'100007633830194'
S'\\u0645\\u062d\\u0645\\u062f \\u0647\\u0627\\u0631\\u0648\\u0646 \\u0648\\u0641\\u0627'
tp991
a(S'100000213330728'
S'Baheer Aw'
tp992
a(S'100006426148075'
S'Feroz Ahmad Zaheer'
tp993
a(S'100006453423403'
S'\\u0630\\u0628\\u06cc\\u062d \\u0627\\u0644\\u0644\\u06c1 \\u0633\\u0639\\u0627\\u062f\\u062a'
tp994
a(S'100006005612825'
S'Shabnam Barak'
tp995
a(S'1146075057'
S'Sailab Barakzai'
tp996
a(S'100008195203484'
S'Bashir Ahmad'
tp997
a(S'100007612478361'
S'Hashimi Wahid Khan'
tp998
a(S'100006170981560'
S'Abdul Ghaffar Khan'
tp999
a(S'100006433042326'
S'Sharifullah Dost'
tp1000
a(S'100006999608734'
S'Setarzada Setarzadahanife'
tp1001
a(S'100003213455104'
S'Habib Rahman'
tp1002
a(S'100007164431515'
S'Azatullah Mobariz'
tp1003
a(S'100007508800237'
S'\\u0637\\u0627\\u06cc\\u0628 \\u062e\\u0648\\u06ab\\u06cc\\u0627\\u06bc\\u06cc'
tp1004
a(S'100007294081161'
S'Ezatullah Ehsas'
tp1005
a(S'100005784576183'
S'Haji Karem Popal'
tp1006
a(S'100005357136544'
S'Eng Shah Muhammad Zhman'
tp1007
a(S'100002365662911'
S'Edrees Momand'
tp1008
a(S'100003166103785'
S'Seyed Ali Akbar Musavi'
tp1009
a(S'100003492160088'
S'Khpalwak Dareez'
tp1010
a(S'100006610567629'
S'Helmand Awcc'
tp1011
a(S'100008100518204'
S'Walijan Zozai'
tp1012
a(S'100007767090966'
S'\\u0639\\u0628\\u062f\\u0627\\u0644\\u0627\\u062d\\u062f \\u0627\\u0644\\u0647\\u0627\\u0645'
tp1013
a(S'100002044846969'
S'Matiullah Matie'
tp1014
a(S'100003323564581'
p1015
S'Abdulrahman Arian'
tp1016
a(S'100003621381191'
S'Abdul Razaq Ahmadi'
tp1017
a(S'100000037989283'
p1018
S'Gul Mohamad Aryobi'
tp1019
a(S'100005180194510'
S'Ghosullah Tavhid Eshaqzai'
tp1020
a(S'100001640429223'
S'Abdulbari Jahane'
tp1021
a(S'100008214859287'
S'\\u06af\\u06cc\\u0644\\u0627\\u0646\\u0648\\u0627\\u0644 \\u062a\\u0631\\u0647 \\u06a9\\u06cc'
tp1022
a(S'100004203497089'
S'\\u069a\\u06a9\\u0644\\u064a \\u067e\\u069a\\u062a\\u0648\\u0646'
tp1023
a(S'589328219'
S'Ahmad Popal'
tp1024
a(S'100002648089132'
S'Abdulwasi Gowhar'
tp1025
a(S'100003079271453'
S'\\u0622\\u0631\\u0632\\u0648 \\u0647\\u0645\\u062f\\u0631\\u062f'
tp1026
a(S'100007625289218'
S'Janatgul Ashiq'
tp1027
a(S'100007488009887'
S'Sifatullah Nazari'
tp1028
a(S'100002201795934'
S'Mahmood Anwari'
tp1029
a(S'100007245338989'
S'Nobhaar Nobhaar Ghamjan'
tp1030
a(S'100007670204124'
S'Mohsin Shaikh'
tp1031
a(S'100007775431881'
S'E Faridullah Farhat Wardak'
tp1032
a(S'571962146'
p1033
S'Naveed Nazari'
tp1034
a(S'100006904333936'
S'Nasebullah Hemat'
tp1035
a(S'100004617991208'
S'Mirwais Kanai'
tp1036
a(S'100001573726374'
p1037
S'Hayatullah Ulfat'
tp1038
a(S'100004649171533'
S'Rohullah Rohani Afghan'
tp1039
a(S'100008283495476'
S'\\u0646\\u062c\\u0644\\u0627 \\u0639\\u0631\\u0641\\u0627\\u0646'
tp1040
a(S'100002940794693'
S'Enayatullah Habibi'
tp1041
a(S'100000759937147'
S'Nisar Samandar'
tp1042
a(S'718821435'
p1043
S'Haseeb Shinwary'
tp1044
a(S'100002555394628'
S'Ehsanullah Ehsan'
tp1045
a(S'100008388671300'
S'\\u0645\\u062d\\u0645\\u062f\\u06ab\\u0644\\u0627\\u0628 \\u06ab\\u0644\\u0627\\u0628'
tp1046
a(S'100007183272720'
S'\\u0645\\u062d\\u0645\\u062f\\u0646\\u0628\\u06cc \\u0645\\u062d\\u0645\\u062f\\u06cc'
tp1047
a(S'100007084278928'
S'Hashimi Wardak'
tp1048
a(S'100007253051084'
S'Fida Mohmad Dilsoz'
tp1049
a(S'100007892166876'
S'Matiullah Fazli'
tp1050
a(S'100000464922545'
S'Obaidullah Hussam'
tp1051
a(S'100007372235877'
S'Abdul Mateen Barak'
tp1052
a(S'100006432214326'
S'\\u0647\\u0645\\u0627\\u064a\\u0648\\u0646 \\u0633\\u0644\\u0637\\u0627\\u0646\\u064a'
tp1053
a(S'100001415932090'
S'Hikmatullah Kandahary'
tp1054
a(S'100006499909801'
S'Abdullah Kazime'
tp1055
a(S'100007748912168'
S'\\u0644\\u0639\\u0646\\u062a \\u067e\\u0631\\u067e\\u0646\\u062c\\u0627\\u067e'
tp1056
a(S'100008077063124'
S'\\u067e\\u069a\\u062a\\u0648\\u0646 \\u0627\\u0641\\u063a\\u0627\\u0646'
tp1057
a(S'100004033698015'
S'Wali Shah Pasoon'
tp1058
a(S'100006585612469'
S'Asadullah Salemi'
tp1059
a(S'100004626189675'
S'Aziz Ullah'
tp1060
a(S'100006769622249'
S'Ismatullah Syllab'
tp1061
a(S'100007678154424'
S'\\u0635\\u062f\\u0627\\u06cc \\u0642\\u0637\\u063a\\u0646'
tp1062
a(S'100006071370205'
S'Abdul Bari Kamran'
tp1063
a(S'100005435981736'
S'Bilal Alkozai'
tp1064
a(S'100006955387984'
S'Mohammadsadiqe Helmandy'
tp1065
a(S'100007448533465'
S'Nisar Ahmad'
tp1066
a(S'1851804816'
S'Tal Waddan'
tp1067
a(S'100005354405767'
S'Abdul Matin Abid'
tp1068
a(S'100002831533213'
S'Saleh Wahdat'
tp1069
a(S'100006894905163'
S'Jalil Ahmad Azizi'
tp1070
a(S'100007578462256'
S'Sayed Yaseen Hashimi'
tp1071
a(S'100007593103295'
S'Ghafar Elham'
tp1072
a(S'100001347188758'
S'Wakil Ahmad Anwary'
tp1073
a(S'100005352484310'
S'Azatullah Bakhabar'
tp1074
a(S'100006265593450'
S'Qandol Ak'
tp1075
a(S'100005574334164'
S'Hafizdawood Mudaqiq'
tp1076
a(S'100004891146541'
S'Sultanshah Safari'
tp1077
a(S'100007655263138'
S'\\u0641\\u0631\\u0647\\u0627\\u062f \\u062a\\u062e\\u0627\\u0631\\u06cc'
tp1078
a(S'100002289519783'
S'Shahzia Masood'
tp1079
a(S'100007131931085'
S'Khan Noorzi'
tp1080
a(S'100003570859911'
S'Abdul Haq Noorzai'
tp1081
a(S'100005979097889'
S'Tufaan Yema'
tp1082
a(S'100007535921278'
S'Akbar Khakrizwal'
tp1083
a(S'100005198529832'
S'Nahida Safi'
tp1084
a(S'100007091291475'
S'Abdulhaq Noorzai'
tp1085
a(S'100006494444686'
S'\\u0646\\u0648\\u0631 \\u0627\\u0644\\u0644\\u0647 \\u062f\\u0648\\u0644\\u062a\\u0632\\u0627\\u064a'
tp1086
a(S'100006359288603'
S'Mohammadasif Aloko'
tp1087
a(S'100006428287651'
S'Aminullah Baheer'
tp1088
a(S'100006647947849'
S'Wahid Afghan'
tp1089
a(S'100006499668841'
S'\\u0631\\u062d\\u0645\\u062a \\u0627\\u0644\\u0644\\u0647 \\u0642\\u0633\\u0645\\u062a \\u062e\\u0648\\u0627\\u0631'
tp1090
a(S'100005652549868'
S'Afghan Olas'
tp1091
a(S'100007554515630'
S'Abdulsaboor Saberi'
tp1092
a(S'100007478465523'
S'Zmarialy Zaher Barak'
tp1093
a(S'100007218314177'
S'Wahed Ulah Farotan'
tp1094
a(S'100007504483960'
S'Hakmatullah Hakfars'
tp1095
a(S'100006932371958'
S'\\u0633\\u0631\\u062f\\u0627\\u0631\\u0648\\u0644\\u064a \\u067e\\u069a\\u062a\\u0648\\u0646\\u0632\\u0648\\u06cc'
tp1096
a(S'100001061264317'
p1097
S'Ajmal Hodman'
tp1098
a(S'100001628492136'
S'\\u0689\\u0627\\u06a9\\u062a\\u0631\\u0648\\u0644\\u064a \\u0646\\u0648\\u0631\\u064a'
tp1099
a(S'100006832352742'
S'Sami Sahar'
tp1100
a(S'100005296081345'
S'Haje Agh Mohmmad Popal'
tp1101
a(S'100006880080056'
S'Ezatullah Wafa'
tp1102
a(S'100007736343498'
S'\\u0645\\u0647\\u0627\\u062c\\u0631 \\u0633\\u0644\\u0637\\u0627\\u0646\\u06cc'
tp1103
a(S'100000666851600'
S'Mirwais Shalgarai'
tp1104
a(S'100007317970869'
S'Matiullah Rozganai'
tp1105
a(S'100007656461233'
S'Ebrahim Zaki'
tp1106
a(S'100001673827416'
S'Zabihullah Khan'
tp1107
a(S'100001532787611'
S'Hikmat Noori'
tp1108
a(S'100001293906627'
S'Horya Muhamady'
tp1109
a(S'100007154371049'
S'Eshaq Khan'
tp1110
a(S'100004432903063'
S'Muqamuddin Muhib'
tp1111
a(S'100007642513504'
S'Jannat Gul Hosainyar'
tp1112
a(S'100007559773458'
S'Sefatullah Haqmal'
tp1113
a(S'100007053132125'
S'Saleh Mohammd Naizi'
tp1114
a(S'100006751053489'
S'Afghan Afghan'
tp1115
a(S'100006922386761'
S'Nazir Ahmad Zwak'
tp1116
a(S'100000242758666'
p1117
S'Saidrahman Niazai'
tp1118
a(S'100006674353003'
S'Abdullsabor Anwari'
tp1119
a(S'100007253344331'
S'\\u0630\\u0628\\u06cc\\u062d \\u0627\\u0644\\u0644\\u0647 \\u0632\\u06cc\\u0627\\u0631\\u0645\\u0644'
tp1120
a(S'100007784611532'
S'Rahimullah Tobagar'
tp1121
a(S'100000163420539'
S'Mahmood Marhoon'
tp1122
a(S'100006434431265'
S'Naqibullah Qayel'
tp1123
a(S'100003719098319'
S'Sayed Noori'
tp1124
a(S'100007608132081'
S'AB Qadim Hilal'
tp1125
a(S'100001297719195'
S'Ahmad Jan Rahmani'
tp1126
a(S'100000788648763'
S'Naqib Quraishi'
tp1127
a(S'100000670205800'
S'Alia Rawi Akbar'
tp1128
a(S'100001325244403'
S'Muhammad Kamil Halim'
tp1129
a(S'100003212077933'
S'Muhammad Irfan'
tp1130
a(S'100007350310802'
S'Javed Asak'
tp1131
a(S'100007833163704'
S'\\u0645\\u062d\\u0645\\u062f \\u0646\\u0628\\u06cc \\u0631\\u0648\\u063a \\u0644\\u06cc\\u0648\\u0646\\u06cc'
tp1132
a(S'100007854067602'
S'\\u0644\\u0637\\u06cc\\u0641\\u0647 \\u0644\\u0637\\u06cc\\u0641\\u06cc'
tp1133
a(S'100000803823804'
S'Shamsuddin Wafa'
tp1134
a(S'100007356034599'
S'\\u069a\\u0627\\u0631\\u0648\\u0627\\u0644 \\u0627\\u06a9\\u0627'
tp1135
a(S'100007413394508'
S'\\u063a\\u0631\\u06cc\\u0628 \\u06cc\\u0627\\u0631 \\u0627\\u0641\\u063a\\u0627\\u0646\\u0633\\u062a\\u0627\\u0646'
tp1136
a(S'100004877533657'
S'Pashtoon Afghan'
tp1137
a(S'100001383638679'
S'Hilay Wafa'
tp1138
a(S'100008224233064'
S'Jawad Darman'
tp1139
a(S'100007066303824'
S'Haji Toryalai Hemat'
tp1140
a(S'100003163474060'
S'Mohammad Musa Alami'
tp1141
a(S'100002357673589'
S'Ahmad Saba Saba'
tp1142
a(S'100007394136811'
S'Emal Nahiz'
tp1143
a(S'100000402282316'
S'Naqeeb Miakhail'
tp1144
a(S'100001715542053'
S'Sadiqullah Sadiqi'
tp1145
a(S'100003702936029'
S'Baryalai Rafi'
tp1146
a(S'100003584983295'
S'Haseebullah Hakimzai'
tp1147
a(S'100007897623132'
S'\\u062f\\u0631\\u0648\\u06cc\\u0632\\u0647 \\u0645\\u0641\\u062a\\u0648\\u0646'
tp1148
a(S'100005446783334'
S'Dastagir Zahir'
tp1149
a(S'100003243470305'
S'Sardar M Sadiqi'
tp1150
a(S'100007196525765'
S'\\u0639\\u0645\\u0631\\u06cc \\u062e\\u067e\\u0631\\u0646\\u062f\\u0648\\u06cc\\u0647 \\u062a\\u0648\\u0644\\u0646\\u0647'
tp1151
a(S'1194577374'
S'Hafiza Mohammed'
tp1152
a(S'100002560032543'
S'Nisar Ahmad Jamal'
tp1153
a(S'645087337'
p1154
S'Farzad Lameh'
tp1155
a(S'669558230'
S'Ghazi Mohammad Zahin'
tp1156
a(S'100000880964142'
S'Qudratullah Bahram'
tp1157
a(S'100006088927426'
S'Wali Khan'
tp1158
a(S'100003128867796'
S'Mirhamza Sabeeri'
tp1159
a(S'100006325929635'
S'\\u0633\\u0631\\u062d\\u062f\\u064a \\u0634\\u0627\\u0647\\u064a\\u0646'
tp1160
a(S'100002173596358'
p1161
S'Khalil Arghistani'
tp1162
a(S'100004334109272'
S'Naveed Ahmad'
tp1163
a(S'100004659660563'
S'Asmatullah Samimy'
tp1164
a(S'100008227925245'
S'Ahmad Khan'
tp1165
a(S'100001501812244'
p1166
S'Zohair Zohair'
tp1167
a(S'100005323089207'
S'Ahsanullah Zahin'
tp1168
a(S'100005661631266'
S'Bilal Omer'
tp1169
a(S'100007667143714'
S'Mateen Khan'
tp1170
a(S'100001670580592'
S'Noor Ahmad Wali'
tp1171
a(S'100008046429125'
S'SaidDawood Mirsalemy'
tp1172
a(S'100007678174146'
S'\\u0634\\u0641\\u06cc\\u0639 \\u0627\\u0644\\u0644\\u0647 \\u0634\\u0627\\u06a9\\u0631\\u06cc'
tp1173
a(S'100007148135882'
S'Murtaza Saadat'
tp1174
a(S'100007381872265'
S'Salim Karimi'
tp1175
a(S'100003239509941'
S'Abdulmateen Wafa'
tp1176
a(S'100002015279478'
S'Sayed Kabir Shah Sikandari'
tp1177
a(S'100005758594194'
S'Jawid Abid'
tp1178
a(S'100007599844008'
S'\\u0627\\u0633\\u0627\\u062a\\u0630\\u0629 \\u0627\\u0644\\u0639\\u062b\\u0645\\u0627\\u0646\\u064a\\u0629'
tp1179
a(S'100006978332438'
S'Abdulqadir Barak'
tp1180
a(S'100006312425994'
S'Hizburrahman Noori'
tp1181
a(S'100004792805533'
S'Shahzamaan Rahmani'
tp1182
a(S'100006755794449'
S'\\u0634\\u0641\\u06cc\\u0639 \\u0627\\u0644\\u0644\\u0647 \\u062c\\u0627\\u0646 \\u0648\\u0635\\u0627\\u0644'
tp1183
a(S'100001387984949'
S'Wahedullah Ulfat'
tp1184
a(S'100007786239478'
S'\\u0632\\u0645\\u0627\\u0646 \\u0632\\u0627\\u0628\\u0644\\u064a \\u062a\\u0648\\u062e\\u064a'
tp1185
a(S'100004519205766'
S'Habib Stanikzai'
tp1186
a(S'100002026657675'
S'Khan Zakhmi'
tp1187
a(S'100001626986586'
S'Abdul Hadi Samsoor'
tp1188
a(S'100004290432827'
S'Mohammad Ismail'
tp1189
a(S'100004122332348'
S'Hamayoun Alizai'
tp1190
a(S'100001362376067'
S'Agha Mohammad Qurishi'
tp1191
a(S'100005691819347'
S'Abdulkafi Barakzai'
tp1192
a(S'100007885928851'
S'Makarull Sk'
tp1193
a(S'100000381325654'
S'Zia Omed'
tp1194
a(S'698119108'
S'Farid Ahmad'
tp1195
a(S'100005780920845'
S'Hekmatullah Barak'
tp1196
a(S'100008256258156'
S'Azaad Shaheen'
tp1197
a(S'100003320154334'
S'Akhtar Muhammad Sherzad'
tp1198
a(S'100007764960642'
S'Zadran Nazeershah'
tp1199
a(S'100005961167985'
S'Zaland Barakzai'
tp1200
a(S'100007313293024'
S'Hammadia Madrasa'
tp1201
a(S'100007087181800'
S'Janan Watan'
tp1202
a(S'1702369680'
S'Jameer Hosein'
tp1203
a(S'100002936794281'
S'Niamatullah Totakhail'
tp1204
a(S'100004627182707'
S'Bashir Ahamd Basharmal'
tp1205
a(S'100007277886605'
S'Sadiq Omer Omeri'
tp1206
a(S'100000913716851'
p1207
S'Kawoon Sahak'
tp1208
a(S'100001992624343'
S'Shafiullah Hassan'
tp1209
a(S'100004149761554'
S'Ehsaanullah Ishaaq'
tp1210
a(S'100000420433625'
S'Banoo Najib Akbari'
tp1211
a(S'100006626862492'
S'Haji Irshad'
tp1212
a(S'100007599071043'
S'\\u0627\\u0645\\u0627\\u0646 \\u0627\\u0644\\u0644\\u0647 \\u062c\\u0627\\u0646'
tp1213
a(S'100006996814188'
S'\\u0631\\u0633\\u062a\\u0645 \\u0635\\u0627\\u0628\\u0631 \\u0635\\u0627\\u0628\\u0631'
tp1214
a(S'100001602575146'
S'Faisal Ansari'
tp1215
a(S'100007107223260'
S'Qayoum Helmandi'
tp1216
a(S'100006481721188'
S'Sher Agha Haqmal'
tp1217
a(S'100007723745941'
S'\\u062c\\u0627\\u0648\\u06cc\\u062f\\u0627\\u062d\\u0645\\u062f \\u062c\\u0648\\u0627\\u062f'
tp1218
a(S'100007761551887'
S'\\u062f\\u063a\\u0631\\u06cc\\u0628\\u0627\\u0646\\u0648 \\u0645\\u0644\\u0627\\u062a\\u0631'
tp1219
a(S'100007954861652'
S'Masood Ahmad'
tp1220
a(S'100007463880999'
S'Eng Mohammad Yousaf Amin'
tp1221
a(S'100007627604045'
S'Abdul Malik Bawari'
tp1222
a(S'100007190561221'
S'Asadullah Karizwal'
tp1223
a(S'100007286082864'
S'\\u0628\\u0648\\u0631\\u0627 \\u0627\\u0648\\u069a\\u06a9\\u0647'
tp1224
a(S'100000218358313'
S'Qudratullah Jan'
tp1225
a(S'100001971946426'
S'Niaz Khan'
tp1226
a(S'100001285176280'
p1227
S'Tahir Abshar'
tp1228
a(S'100007922611461'
S'\\u0633\\u06cc\\u062f\\u06ab\\u0644 \\u0622\\u0644\\u06a9\\u0648\\u0632\\u06cc\\u0626'
tp1229
a(S'100001441590844'
S'Lal Sadat'
tp1230
a(S'100006885724948'
S'Shaista Azizi'
tp1231
a(S'100001546677164'
S'Mohammad Javeed Watanwal'
tp1232
a(S'100002137652885'
S'Jan Mohammad Shirzad'
tp1233
a(S'100008245276337'
S'M Jafar Darmal'
tp1234
a(S'100007645172762'
S'Khoushal Sultani'
tp1235
a(S'100005137291683'
S'Hamayoun Noori'
tp1236
a(S'100006752017071'
S'\\u06cc\\u0645\\u0627 \\u0622\\u0631\\u06cc\\u0627'
tp1237
a(S'100008388218819'
S'\\u0627\\u0633\\u0644\\u0627\\u0645\\u064a \\u0628\\u064a\\u0627\\u0646 \\u0627\\u0648 \\u062d\\u0642\\u064a\\u0642\\u062a'
tp1238
a(S'100001825286207'
S'Mohammad Saber Atif'
tp1239
a(S'100007749399801'
S'Ahmad Khan Jawad'
tp1240
a(S'100003933442285'
S'Hekmat Afghan'
tp1241
a(S'100006935233714'
S'\\u0633\\u0648\\u0633\\u0646 \\u0648\\u0641\\u0627 \\u0633\\u0648\\u0633\\u0646 \\u0648\\u0641\\u0627'
tp1242
a(S'100005652191716'
S'\\u0627\\u062d\\u0645\\u062f \\u0634\\u0627\\u0647 \\u0642\\u06cc\\u0633\\u0645\\u062a'
tp1243
a(S'100002472690407'
S'\\u062c\\u0627\\u0646 \\u062c\\u0627\\u0646 \\u0627\\u0641\\u063a\\u0627\\u0646\\u0633\\u062a\\u0627\\u0646'
tp1244
a(S'100007309121245'
S'Shir Rahmad Zaland'
tp1245
a(S'100006259538385'
S'\\u06be\\u0644\\u0645\\u0646\\u062f\\u067e\\u0648\\u06be\\u0646\\u062a\\u0648\\u0646 \\u0645\\u062d\\u0635\\u0644\\u06cc\\u0646'
tp1246
a(S'100002485120670'
S'Omide Khan'
tp1247
a(S'100005272590951'
S'Haji Mohmmad Naim'
tp1248
a(S'100000274808426'
p1249
S'Afghan Masood'
tp1250
a(S'100006248496712'
S'Noorulah Mazlomyar'
tp1251
a(S'100004306806244'
S'Muska Zakhmi'
tp1252
a(S'100004993110912'
S'Nader Noorzi'
tp1253
a(S'100001446576650'
S'Najibullah Zeyarmal'
tp1254
a(S'100006548925225'
S'Bakur Swati'
tp1255
a(S'100005371351455'
S'\\u0647\\u0644\\u0645\\u0646\\u062f \\u067e\\u0648\\u0647\\u0646\\u062a\\u0648\\u0646'
tp1256
a(S'100006590371500'
S'Razia Kandahar'
tp1257
a(S'100004897508121'
S'Momin Khan'
tp1258
a(S'100001999835056'
S'\\u067e\\u0627\\u0685\\u0648\\u0646 \\u067e\\u069a\\u062a\\u0648\\u0646 \\u0648\\u0631\\u062f\\u06ab'
tp1259
a(S'100006311830499'
S'Eltaf Haidary'
tp1260
a(S'100005166090331'
S'Akbar Nazari'
tp1261
a(S'100003285398516'
S'Abdul Rashid Nasiri'
tp1262
a(S'100006288638597'
S'Khalil Maidanwal'
tp1263
a(S'100004350303925'
S'Nasim Masror'
tp1264
a(S'100007419614105'
S'Asadullah Baryali'
tp1265
a(S'100002274657095'
S'Nazeer Ahmad Zari Alokozay'
tp1266
a(S'100006058835527'
S'Ikram Zawak'
tp1267
a(S'100006684426520'
S'Mohammad Umer Daudzai'
tp1268
a(S'100001033348696'
S'Abdul Khaliq Yoon'
tp1269
a(S'100001251850976'
S'Hood Afghanistan'
tp1270
a(S'100007248669644'
S'Gull Ahmad Gilani'
tp1271
a(S'100006936452494'
S'Jalil Khan'
tp1272
a(S'100003594006421'
S'Abdulsalam Wafa'
tp1273
a(S'100006401672102'
S'Lal Mohammad Sabir'
tp1274
a(S'100003494354973'
S'Basir Ahmad Ismailzoy'
tp1275
a(S'100007160283490'
S'\\u0639\\u0628\\u062f\\u0627\\u0644\\u0633\\u062a\\u0627\\u0631 \\u06a9\\u06cc\\u0647\\u0627\\u0646'
tp1276
a(S'100007233367314'
S'Abdul Ghani Ehsas'
tp1277
a(S'100006965383250'
S'Benawa Zadran'
tp1278
a(S'100000630992990'
S'Muskhan Khan'
tp1279
a(S'100008353212517'
S'\\u0646\\u0631\\u06ab\\u06cc\\u0633 \\u0632\\u06cc\\u0628\\u0627'
tp1280
a(S'100008190602130'
S'Gull Ahmad'
tp1281
a(S'100000814864838'
S'Pachakhan Shakir'
tp1282
a(S'100006773402605'
S'Taj Mohd'
tp1283
a(S'100004821510837'
S'Halem Khan Khan'
tp1284
a(S'100007186237759'
S'Nasibullah Jan'
tp1285
a(S'100006469847944'
S'Drjawad Nasiri'
tp1286
a(S'100006401591743'
S'Salihmuhammad Himat'
tp1287
a(S'100001184539873'
S'Marwand Helal'
tp1288
a(S'100005653545347'
S'\\u062d\\u0627\\u062c\\u06cc \\u0645\\u062d\\u0645\\u062f \\u0646\\u0633\\u06cc\\u0645'
tp1289
a(S'100002222628204'
S'Arshad Khan'
tp1290
a(S'100002236257232'
S'Loya Aryaana'
tp1291
a(S'100002191765119'
S'Zoya Kamrran'
tp1292
a(S'100007465710567'
S'Sharif Omar Omari'
tp1293
a(S'100005043070831'
S'Ali Mohammad Sarwary'
tp1294
a(S'100000730202792'
p1295
S'Roullah Yaqobi'
tp1296
a(S'100008375315632'
S'\\u062d\\u0628\\u064a\\u0628 \\u0627\\u0644\\u0631\\u062d\\u0645\\u0646 \\u0646\\u0648\\u0631\\u0632\\u064a'
tp1297
a(S'100001260227995'
S'Saadat Khan Saadat'
tp1298
a(S'100007352052023'
S'\\u06ab\\u0644\\u0627\\u0644\\u06cc \\u0627\\u062e\\u0644\\u0627\\u0642\\u064a'
tp1299
a(S'100005864108827'
S'Haji M Karim Atal'
tp1300
a(S'100007418324235'
S'Khier Mohmmad Kamen'
tp1301
a(S'100006593407216'
S'Donya Ghazal'
tp1302
a(S'100005361695720'
S'Salih Mohmmad Salih'
tp1303
a(S'100007045781279'
S'Sameem Hashimi'
tp1304
a(S'100006690363631'
S'\\u0633\\u0645\\u06cc\\u0639 \\u0627\\u0644\\u0644\\u0647 \\u0635\\u0645\\u062f\\u064a'
tp1305
a(S'100005383144532'
S'Khan Muhammad Abid'
tp1306
a(S'100003867019675'
S'Abdul Karim Afghan'
tp1307
a(S'100004092790033'
S'Omer Zawak'
tp1308
a(S'100007622822989'
S'Ismayel Khan Afghan'
tp1309
a(S'100001482308921'
p1310
S'Nisar Ahmad Ahmadi'
tp1311
a(S'100008380656351'
S'\\u0635\\u062f\\u06cc\\u0642 \\u0631\\u062d\\u0645\\u06cc'
tp1312
a(S'100002357675799'
p1313
S'Qanoon Haq Wainaa'
tp1314
a(S'100001446976489'
S'Zohra Wafa Wafa'
tp1315
a(S'100007246294587'
S'Jumakhan Ziyarmal'
tp1316
a(S'100006825970675'
S'Nasrullah Zurmati'
tp1317
a(S'100007874260784'
S'Akram Khan'
tp1318
a(S'100007540891832'
S'Mohammad Edris Pashtoon'
tp1319
a(S'100002327979344'
p1320
S'Asmat Ullah Yaqoobi'
tp1321
a(S'100008234051744'
S'Naseeb Ullah Qesmat'
tp1322
a(S'100006761229360'
S'Arakozia Helmand'
tp1323
a(S'100006962263825'
S'Khatera Omari'
tp1324
a(S'100000661455600'
S'Naseer Ahmad Azizi'
tp1325
a(S'100007381720303'
S'Aesmatullah Sultani'
tp1326
a(S'100001027092187'
p1327
S'Zaki Mohammad Wasif'
tp1328
a(S'100007672243537'
S'Faizullah Faizi'
tp1329
a(S'100002800020144'
S'\\u0633\\u0645\\u06cc\\u0639 \\u0627\\u0644\\u0644\\u0647 \\u0698\\u0648\\u0646\\u062f'
tp1330
a(S'100003118391971'
S'\\u0628\\u0633\\u062a \\u067e\\u0648\\u0647\\u0646\\u062a\\u0648\\u0646'
tp1331
a(S'100007254934392'
S'Abdulmatin Shirzad'
tp1332
a(S'100007542552131'
S'Ghulam Mohammad Zaheer'
tp1333
a(S'100007577852101'
S'Sami Ullah'
tp1334
a(S'100006703715764'
S'Hikmatullah Miakhail'
tp1335
a(S'100006187860838'
S'Wranga Khosti'
tp1336
a(S'100006300157229'
S'Azimullah Yousofzai'
tp1337
a(S'100005754252594'
S'\\u0647\\u0644\\u0645\\u0646\\u062f\\u0645\\u062f\\u0646\\u064a \\u067c\\u0648\\u0644\\u0646\\u0647'
tp1338
a(S'100006466704919'
S'Naserullah Alizai'
tp1339
a(S'100006488974777'
S'Nasratullah Nasrat'
tp1340
a(S'100007404913385'
S'Sharifullah Noori'
tp1341
a(S'100008057190468'
S'\\u0627\\u0646\\u062c\\u06cc\\u0646\\u0631\\u0627\\u062d\\u0633\\u0627\\u0646 \\u0627\\u0644\\u0644\\u0647 \\u0648\\u0632\\u06cc\\u0631\\u0632\\u06cc \\u0648\\u0631\\u062f\\u06af'
tp1342
a(S'100003297985426'
S'Fareed Ahmad Bahir Sameer'
tp1343
a(S'100004908399788'
S'Amin Jan'
tp1344
a(S'100006773133452'
S'Ajmal Hadiry'
tp1345
a(S'100001818888222'
S'Nagluval Fazil Rakhman HusainKhil'
tp1346
a(S'100004551126448'
S'Nurini Siaman'
tp1347
a(S'100006348606628'
S'Noor Ahmad Noory'
tp1348
a(S'100002450953017'
S'Afg Dilsoz'
tp1349
a(S'100001999241909'
S'Najebullah Sahil'
tp1350
a(S'100007201029960'
S'\\u0645\\u062d\\u0645\\u062f \\u0627\\u0633\\u0645\\u0627\\u0639\\u06cc\\u0644 \\u0627\\u0641\\u063a\\u0627\\u0646'
tp1351
a(S'100006228840557'
S'Marina Wafa'
tp1352
a(S'100006863201130'
S'\\u0642\\u0648\\u0645\\u0646\\u062f\\u0627\\u0646 \\u0639\\u0628\\u062f\\u0627\\u0644\\u0631\\u0627\\u0632\\u0642'
tp1353
a(S'100006905353979'
S'\\u0644\\u0631\\u0627\\u0648\\u0628\\u0631 \\u0622\\u062a\\u0644\\u0627\\u0646 \\u0628\\u0644\\u0648\\u0685\\u0627\\u0646'
tp1354
a(S'100007663992577'
S'Akramolh Helmand'
tp1355
a(S'100007607290027'
S'\\u0645\\u062d\\u0645\\u062f\\u063a\\u0646\\u06cc \\u0632\\u06cc\\u0627\\u0631\\u06a9\\u0634'
tp1356
asS'id'
p1357
S'100001272196793'
p1358
sS'name'
p1359
S'\\u062d\\u0628\\u06cc\\u0628 \\u0634\\u0627\\u0647 \\u062a\\u0693\\u0648\\u0646'
p1360
s.