(dp1
S'friends'
p2
(lp3
(S'100006367088274'
S'Atique Bahaar'
tp4
a(S'100006211576240'
S'Afghan Enidc ID Card'
tp5
a(S'100008235570499'
S'HS Afghan'
tp6
a(S'100006548197329'
S'Younis Chohan'
tp7
a(S'100008277189443'
S'Dawood Kamali'
tp8
a(S'100008240748371'
S'\\u06cc\\u0648 \\u0648\\u0627\\u0644\\u06cc \\u0627\\u0648 \\u0648\\u0631\\u0648\\u0631\\u0648\\u0644\\u064a'
tp9
a(S'100007227911477'
S'\\u0681\\u0648\\u0627\\u0646 \\u0696\\u063a'
tp10
a(S'100008305514079'
S'Mohammad Agha Afghan'
tp11
a(S'100008237822165'
S'Sanaullah Barakzai'
tp12
a(S'100005597915022'
S'Suliman Barekzai'
tp13
a(S'100007756687196'
S'\\u062c\\u0627\\u0646\\u0627\\u0646 \\u062c\\u0627\\u0646\\u0627\\u0646'
tp14
a(S'100007786771475'
S'\\u0627\\u0633\\u062f\\u0627\\u0644\\u0644\\u06c1 \\u0628\\u0631\\u0626'
tp15
a(S'100007661563455'
S'Irshad Ahmad'
tp16
a(S'100008143627813'
S'\\u0633\\u0646\\u06ab\\u06cc\\u0646 \\u0627\\u0641\\u063a\\u0627\\u0646'
tp17
a(S'100001474846389'
S'Sadiqullah Afghan'
tp18
a(S'100008203544506'
S'King Pashton'
tp19
a(S'100006917442861'
S'Ahmad Khan'
tp20
a(S'100008334072041'
S'Sadiq Sheranai'
tp21
a(S'100007992220152'
S'\\u0639\\u0628\\u062f\\u0627\\u0644\\u0646\\u0627\\u0641\\u0639 \\u062e\\u0627\\u06a9\\u0633\\u0627\\u0631'
tp22
a(S'100005539039170'
S'Hedayatullah Mulla'
tp23
a(S'100007793134063'
S'\\u0639\\u0638\\u064a\\u0641\\u0647 \\u0628\\u0647\\u0627\\u0631'
tp24
a(S'100008223790801'
S'Wakil Saleemi'
tp25
a(S'100006853033735'
S'Ahsan Jan'
tp26
a(S'100007778682458'
S'Ahmad Ullah Jalalzai'
tp27
a(S'100004826415903'
S'Abdul Ghafar Musbah'
tp28
a(S'100007820234567'
S'\\u0645\\u062d\\u0645\\u062f \\u0639\\u0644\\u06cc \\u067e\\u06a9\\u062a\\u06cc\\u0627\\u0648\\u0627\\u0644'
tp29
a(S'100007031851555'
S'Mashuq Jan'
tp30
a(S'100008332689498'
S'Naweed Ezam'
tp31
a(S'100008343722046'
S'\\u0627\\u062d\\u0645\\u062f \\u0634\\u0627\\u0647 \\u0627\\u0641\\u063a\\u0627\\u0646\\u064a\\u0627\\u0631'
tp32
a(S'100006398556721'
S'Umar Khan'
tp33
a(S'100008275651456'
S'Ahmad Patsoon'
tp34
a(S'100008157307690'
S'Abdul Bari'
tp35
a(S'100007895174928'
S'Abdul Wadud Sangin'
tp36
a(S'100007219630479'
S'\\u0641\\u0648\\u0632\\u0627\\u0646 \\u0642\\u0631\\u064a\\u0634\\u064a'
tp37
a(S'100008344845802'
S'Abdull Wali Afghan'
tp38
a(S'100004429980104'
S'Mohammad Baryal'
tp39
a(S'100008042046940'
S'\\u062a\\u0627\\u062c \\u0645\\u062d\\u0645\\u062f \\u0646\\u0648\\u0631\\u06cc'
tp40
a(S'100008144883151'
S'Abdul Rahman'
tp41
a(S'100008390257177'
S'\\u062f\\u0633\\u0648\\u0644\\u064a \\u0644\\u069a\\u06a9\\u0631'
tp42
a(S'100008289691307'
S'Muhammad Rafiq'
tp43
a(S'100003383824583'
S'Mohammad Ibrahim'
tp44
a(S'100001966133342'
S'Javed Khan Ahmadzai'
tp45
a(S'100005126889944'
S'Nazir Tajzada'
tp46
a(S'100006564371777'
S'\\u0639\\u0644\\u0627\\u0645 \\u062d\\u064a\\u062f\\u0631'
tp47
a(S'100007781078260'
S'Shaista Khan'
tp48
a(S'100008174136847'
S'Haroon Aziz'
tp49
a(S'100006961206402'
S'Ali Mohammad'
tp50
a(S'100008271810259'
S'Heela Afghan'
tp51
a(S'100008299320042'
S'Basir Mahmadi'
tp52
a(S'100007044971473'
S'Zaman Khan'
tp53
a(S'100002619748976'
S'Manish Sharma'
tp54
a(S'100006171723684'
S'Mahmood Khan'
tp55
a(S'100008181875904'
S'\\u0627\\u0633\\u0644\\u0627\\u0645\\u06cc \\u0634\\u0631\\u0639\\u06cc \\u0631\\u0627\\u0632\\u0648\\u0646\\u0647'
tp56
a(S'100008319199983'
S'Asadullah Agha'
tp57
a(S'100008066944713'
S'Hameed Ullah'
tp58
a(S'100001217752043'
S'Anusha Sharma'
tp59
a(S'100008119380546'
S'\\u0632\\u0631\\u063a\\u0648\\u0646 \\u0644\\u0631\\u0645'
tp60
a(S'100001586113098'
S'Nazir Ahmad'
tp61
a(S'100008145494018'
S'\\u0627\\u0634\\u0646\\u0627 \\u062a\\u0639\\u0644\\u06cc\\u0645\\u06cc \\u0645\\u0631\\u06a9\\u0632'
tp62
a(S'100007571859151'
S'Sardar Khan'
tp63
a(S'100007457382001'
S'\\u0639\\u0628\\u062f\\u0627\\u0644\\u062d\\u0646\\u0627\\u0646 \\u0628\\u0627\\u0631 \\u0628\\u0627\\u0631\\u06a9'
tp64
a(S'100006961058606'
S'\\u0639\\u0627\\u062f\\u0644 \\u0631\\u0636\\u0648\\u0627\\u0646'
tp65
a(S'100006921555678'
S'Nazir Kakar'
tp66
a(S'100007765572755'
S'Niaz Khan'
tp67
a(S'100008164628050'
S'Achakzai Abdullah'
tp68
a(S'100006608019468'
S'S.m. Younas'
tp69
a(S'100008217662806'
S'Abdul Salam'
tp70
a(S'100008339230415'
S'\\u0627\\u062a\\u0641\\u0627\\u0642 \\u062a\\u06cc\\u0644\\u06cc\\u06a9\\u0627\\u0645 \\u06a9\\u0646\\u062f\\u0647\\u0627\\u0631'
tp71
a(S'100007643289178'
S'\\u0627\\u062a\\u062d\\u0627\\u062f \\u0641\\u0679\\u0628\\u0627\\u0644 \\u0644\\u0648\\u0628\\u0688\\u0644\\u0647 \\u0627\\u062a\\u062d\\u0627\\u062f'
tp72
a(S'100007389211869'
S'Abdul Hanan Himat'
tp73
a(S'100008143866536'
S'\\u0646\\u0633\\u06cc\\u0645\\u0647 \\u0631\\u062e\\u0634\\u0627\\u0646\\u06cc'
tp74
a(S'100008214817429'
S'Farhan Khan'
tp75
a(S'100007114596656'
S'Waqas Ali'
tp76
a(S'100008271458815'
S'Aziz Rahman Wardak'
tp77
a(S'100006940924674'
S'\\u0642\\u062f\\u0631\\u062a \\u0627\\u0644\\u0644\\u0647'
tp78
a(S'100007843111150'
S'Habib Rahman'
tp79
a(S'100008140183260'
S'\\u0627\\u0645\\u06cc\\u0646 \\u06cc\\u0627\\u0635\\u0631'
tp80
asS'id'
p81
S'100001474846389'
p82
sS'name'
p83
S'Sadiqullah Afghan'
p84
s.