(dp1
S'friends'
p2
(lp3
(S'100001011975608'
S'Zoha Gillani'
tp4
a(S'100006997332704'
S'Neelam Rao'
tp5
a(S'100004509271173'
S'Zoha Khalid'
tp6
a(S'100007847654064'
S'Javeria Khan'
tp7
a(S'100004676611320'
S'Shakeel Ansari'
tp8
a(S'100005278507549'
S'Sara Amin'
tp9
a(S'100008184630534'
S'Fathima Hasina'
tp10
a(S'100003589138872'
S'Farah Ali'
tp11
a(S'100007341554555'
S'Izza Malik'
tp12
a(S'100007504081861'
S'Hina Jamal'
tp13
a(S'100002286222485'
S'Amir Sadiq'
tp14
a(S'100007808556159'
S'Azan Ali'
tp15
a(S'100001256807367'
S'Laiq Rehman'
tp16
a(S'100005685364516'
S'Naeem Jaan'
tp17
a(S'100000538809659'
S'Shani Cool'
tp18
a(S'100008051255629'
S'Shazia Kabuli'
tp19
a(S'100001461432495'
S'Junaid Azam'
tp20
a(S'100005759582360'
S'Bonny Raida'
tp21
a(S'100005096940125'
S'Mn Naeem Fabrication Prodcation'
tp22
a(S'100004241553227'
S'Nida Anwer'
tp23
a(S'100008324836835'
S'Areesha Zaman'
tp24
a(S'100001801716359'
S'Aamir Chaudhry'
tp25
a(S'100000508841371'
S'Ali Raza'
tp26
a(S'100002464785739'
S'\\ufc5e\\ufc5e\\ufc5e \\ufc5e\\ufc5e\\ufc5e'
tp27
a(S'100005697247487'
S'Laura Avalos'
tp28
a(S'100007975993729'
S'Ch Usman'
tp29
a(S'100007248090806'
S'Hania Zafar'
tp30
a(S'100008084592736'
S'Ruma Javed'
tp31
a(S'100003978211242'
S'Pakeeza Khan'
tp32
a(S'100008249382982'
S'Shista Lodhi'
tp33
a(S'100004745653413'
S'WaLeed Butt'
tp34
a(S'100004026892269'
S'Sana Asid'
tp35
a(S'100003675113944'
S'Muhammad Sohail Hassan'
tp36
a(S'100007971841206'
S'Fatima Abbasi'
tp37
a(S'1015795558'
S'Umair Akram'
tp38
a(S'100002473131758'
S'Ayesha Asghar'
tp39
a(S'100004604703688'
S'Huma Khan'
tp40
a(S'100006941165250'
S'Shaina Sadullah'
tp41
a(S'100005010517822'
S'Maria Khan'
tp42
a(S'100002685744377'
S'Lallo Badshah Badshah'
tp43
a(S'100006624097185'
S'Xtylixh Aqsa'
tp44
a(S'100003702962137'
S'Zariya Nabeel'
tp45
a(S'100004387688201'
S'Muhammad Ali'
tp46
a(S'100004195749072'
S'Anglina Angle'
tp47
a(S'100008075170865'
S'Qasim Tariq'
tp48
a(S'785269973'
S'Naeem Wazir'
tp49
a(S'100003713537233'
S'Mian Mohsin'
tp50
a(S'100006062915203'
S'Ayesha Jameel'
tp51
a(S'100003113130150'
S'Amna Khan'
tp52
a(S'100006760560220'
S'Ali Khan Khan'
tp53
a(S'100007093718735'
S'Shumaila Sarfraz'
tp54
a(S'100000452005523'
S'Zahid Hussain Sameer'
tp55
a(S'100002030184502'
S'Evention Eventmanagement'
tp56
a(S'100004776543475'
S'Zoya Khan'
tp57
a(S'100003253053485'
S'Saira Baloch'
tp58
a(S'100002379363078'
S'Maiyam Jacki'
tp59
a(S'100004788554824'
S'Samina Gul'
tp60
a(S'100005170873501'
S'Rahul Singh'
tp61
a(S'100000862874875'
S'Anum Shah'
tp62
a(S'100007687146481'
S'Muneeb Hassan'
tp63
a(S'100004520705005'
S'Urwa Malik'
tp64
a(S'100006766231629'
S'Maaham Jee'
tp65
a(S'100002447056597'
S'Sallu Khan'
tp66
a(S'100004444714031'
S'Abdul Waase'
tp67
a(S'100007227782103'
S'Sitara Khan'
tp68
a(S'100001309651579'
S'Rabia SheIkh'
tp69
a(S'100006655260270'
S'Faisal Faisal'
tp70
a(S'100002972270971'
S'Aniya Khan'
tp71
a(S'100003028429711'
S'Wahid Jamshed'
tp72
a(S'100006620650007'
S'Madiha Ox OX'
tp73
a(S'100000740502409'
S'Syed Irfan'
tp74
a(S'100002954741643'
S'Djadee Jhon'
tp75
a(S'100002048855515'
S'Amir Khan Magsi'
tp76
a(S'100003519521023'
S'Study Minded'
tp77
a(S'100002547486658'
S'Karachi Compny'
tp78
a(S'100002906508617'
S'Vicky Waqara'
tp79
a(S'100001060886505'
S'Asim Khan Asim Khan'
tp80
a(S'100002385798004'
S'Maha Khan'
tp81
a(S'100005755720654'
S'Snawal Prince'
tp82
a(S'100001990107820'
S'Aamir Shahzad'
tp83
a(S'100003340500700'
S'Noreen Shahid'
tp84
a(S'100003850370757'
S'Mawaz Khan'
tp85
a(S'100004625190257'
S'Sameera Tanvar'
tp86
a(S'100008306267277'
S'Rana Safdar'
tp87
a(S'100006926493369'
S'Zoya Khan'
tp88
a(S'100008222982808'
S'Laiba Hoor'
tp89
a(S'100008206660432'
S'Zunaira Ali'
tp90
a(S'100007033423977'
S'Evention Advertisement'
tp91
a(S'100008289021010'
S'\\u0647\\u062f\\u064a\\u0631 \\u0631\\u0648\\u0631\\u0648'
tp92
a(S'1315375520'
S'Innocent Bacha'
tp93
a(S'100003902058300'
S'Rajveer Singh'
tp94
a(S'100008056502710'
S'Iqra Saleem'
tp95
a(S'100003934973792'
S'Basit Basit'
tp96
a(S'100003532730937'
S'Hira Zia'
tp97
a(S'100000002900955'
S'Ayeza Khan'
tp98
a(S'100006762999649'
S'Cynthia Pereira'
tp99
a(S'100002866486864'
S'Neha Ansari'
tp100
a(S'1817259128'
S'M Naveed Butt'
tp101
a(S'100008316245898'
S'Hira Zahra'
tp102
a(S'100002773080054'
S'Rana Aurang Zaib'
tp103
a(S'100006080760242'
S'Rita Isabel Cabrera'
tp104
a(S'100003156810147'
S'Sheeza Naeem'
tp105
a(S'100007910560613'
S'MD Hussain Batt'
tp106
a(S'100001367104440'
S'Imran Iqbal'
tp107
a(S'100007436108320'
S'Meetha Bacha'
tp108
a(S'100003930345601'
S'Maham Butt'
tp109
a(S'100004085146080'
S'Rida Baloch'
tp110
a(S'100003934044395'
S'Rohit Shukla'
tp111
a(S'100003192221954'
S'Mian Ali Warsii'
tp112
a(S'100007009871774'
S'Tabasum Heena'
tp113
a(S'100004856649163'
S'Aysha Ali'
tp114
a(S'100002807832415'
S'Mone Imran'
tp115
a(S'100004185824278'
S'Iram Gee'
tp116
a(S'100004947540014'
S'Naseer Ahmad'
tp117
a(S'100008236729239'
S'Laraib Khan'
tp118
a(S'100005360409919'
S'Natalia Milena Vera'
tp119
a(S'100008228942996'
S'Azeez AhmAd'
tp120
a(S'100000947455274'
S'Mian Ateeq'
tp121
a(S'100007908516540'
S'Nimra Shazadi'
tp122
a(S'100002645311847'
S'Adnan Bashir'
tp123
a(S'100008309643761'
S'Mohammad Ishaq'
tp124
a(S'100008080743793'
S'Maryam Nawaz'
tp125
a(S'100008018498308'
S'Ely Sanabria'
tp126
a(S'100000010725354'
S'Yasir Ali'
tp127
a(S'100008283468142'
S'Maano Jaan'
tp128
a(S'100007916804273'
S'Ali Hussain'
tp129
a(S'100006835626559'
S'Syed Hussnain Raza'
tp130
a(S'100002849448611'
S'Muhammad Iqbal Bakht'
tp131
a(S'100002899063597'
S'Amit Meena'
tp132
a(S'100002829381070'
S'Zunaira Kiyani'
tp133
a(S'100002363025765'
S'Mohsin Rao'
tp134
a(S'100004051606311'
S'Majid Butt'
tp135
a(S'583385191'
S'Ali Rana'
tp136
a(S'100008084942102'
S'Nargis Khan'
tp137
a(S'100003784003138'
S'Hamid Ali Ali'
tp138
a(S'100000130983549'
S'Salman Chaudhary'
tp139
a(S'100003165850495'
S'Zahid Mughal'
tp140
a(S'100004946043520'
S'Laiba Haseeb'
tp141
a(S'100008248686746'
S'Areeba Ali'
tp142
a(S'100006326041402'
S'Naeem Jaan'
tp143
a(S'100005131386398'
S'Mian M Waqar'
tp144
a(S'100002383151776'
S'Sara Jee'
tp145
a(S'100006055417953'
S'Mehru Sheikh'
tp146
a(S'1108407858'
S'Mian Ahad'
tp147
a(S'100004604018666'
S'Safa Marwa'
tp148
a(S'100001866448180'
S'Asif Bhatti'
tp149
a(S'100003465926148'
S'Muhammad Awais'
tp150
a(S'555026507'
S'Muhammad Abdullah Idrees'
tp151
a(S'100001240368807'
S'Zahid Jamshaid'
tp152
a(S'100002935922307'
S'Areeba Khan'
tp153
a(S'100001558400722'
S'Daniyal Dani'
tp154
a(S'100008288181449'
S'Maricel Ortega'
tp155
a(S'100008144261007'
S'Saima Khan'
tp156
a(S'100000642794920'
S'Alexander Nieczyporowski'
tp157
a(S'100003826773504'
S'Zara Khan'
tp158
a(S'100004272608691'
S'Nawty Mahi'
tp159
a(S'100004653011851'
S'Bilal Arshad'
tp160
a(S'100000901900513'
S'Fahad Jamshaid'
tp161
a(S'100002697713018'
S'Zulfiqar Awan'
tp162
a(S'100008180744509'
S'Sana Ch'
tp163
asS'id'
p164
S'100004427203790'
p165
sS'name'
p166
S'Wahid Wahid'
p167
s.