(dp1
S'friends'
p2
(lp3
(S'100001759689312'
p4
S'Rohit Kumar Gautam'
tp5
a(S'1404600139'
S'Amit Kumar Verma'
tp6
a(S'100004502107465'
p7
S'Barkha Kapoor'
tp8
a(S'100002145432560'
p9
S'Himanshu Sachdeva'
tp10
a(S'100000855393008'
S'John Cartar'
tp11
a(S'100002338242012'
p12
S'Vikram Singh'
tp13
a(S'100001273771354'
p14
S'Vikas Tyagi'
tp15
a(S'100005710205911'
S'Sanskaarschool Rishikesh'
tp16
a(S'100005957141796'
p17
S'Surabhi Kaur Sudan'
tp18
a(S'100003638137554'
p19
S'Deepali Soni'
tp20
a(S'100001266575417'
S'Ru Pika'
tp21
a(S'100003256535327'
S'Angel Meena'
tp22
a(S'100001415796999'
S'Arjun Singh'
tp23
a(S'1767892077'
p24
S'Vikas Malhotra'
tp25
a(S'100002135101794'
S'Priya Khurana'
tp26
a(S'100004756270527'
p27
S'Ekta Kapoor'
tp28
a(S'100002906711236'
S'Sunil Rana'
tp29
a(S'100001832944401'
p30
S'Anoop Singh'
tp31
a(S'100002228913876'
p32
S'Annu Gautam'
tp33
a(S'100002461493230'
S'Rita Tiwari'
tp34
a(S'1119452965'
S'Shalini Sharma'
tp35
a(S'100005664362721'
S'Geeta Sahni'
tp36
a(S'100008385185253'
p37
S'Vivek Kataria'
tp38
a(S'100005673221208'
p39
S'Anil Kugiyal'
tp40
a(S'100004384200891'
S'Anju Sethi'
tp41
a(S'100003969945268'
p42
S'Neha Sahni'
tp43
a(S'100002848605068'
S'Tara Sharma'
tp44
a(S'1044303677'
S'Astha Gupta'
tp45
a(S'100005349674537'
p46
S'Meenakshi Nijhawan'
tp47
a(S'100008322004974'
S'Manni Rawat'
tp48
a(S'100002231444061'
S'Vikas Kumar'
tp49
a(S'100002670916631'
p50
S'Divya Sehgal'
tp51
a(S'100008074056534'
p52
S'Aanchal Kapoor'
tp53
a(S'100007879926080'
S'Simar Kaur'
tp54
a(S'100006567996900'
S'Sangeeta Khushi'
tp55
a(S'100002901655930'
p56
S'Pankaj Sahni'
tp57
a(S'100002386311326'
p58
S'Shivani Raj Malhotra'
tp59
a(S'100002214815239'
S'Mamta Tyagi'
tp60
a(S'100002324063528'
p61
S'Sonia Malhotra'
tp62
a(S'1333578188'
S'Rishi Sharma'
tp63
a(S'100003760227063'
S'Aarti Khurana'
tp64
a(S'100005584811113'
p65
S'Amit Nijhawan'
tp66
a(S'100001108294619'
p67
S'Neha Manocha'
tp68
a(S'100000122999020'
p69
S'Aman Kapoor'
tp70
a(S'100000697536671'
p71
S'Neha Tyagi'
tp72
a(S'100002118488842'
p73
S'Anand Singh'
tp74
a(S'100003940865439'
S'TamAnna Rawat'
tp75
a(S'100001444560851'
S'Monica Bhardwaj'
tp76
a(S'100004103319893'
p77
S'Rajni Singh'
tp78
a(S'100001563498178'
p79
S'Ravi Sahni'
tp80
a(S'100001656286426'
p81
S'Dev Arora'
tp82
a(S'100003295315710'
p83
S'Adarsh Singh'
tp84
a(S'100002911862071'
p85
S'Nikhil Verma'
tp86
a(S'100002008341768'
p87
S'Pooja Khurana'
tp88
a(S'100006695316383'
S'Harish Sethi'
tp89
a(S'100002766061965'
p90
S'Rohit Sehgal'
tp91
a(S'100005001151238'
p92
S'Harsh Malhotra'
tp93
a(S'100006366427195'
p94
S'Sneha Sharma'
tp95
a(S'100001588027289'
p96
S'Soni Yogesh'
tp97
a(S'100003689499045'
S'Agentvinod Rana'
tp98
a(S'100002405137581'
S'Kuldeep Singh'
tp99
a(S'100005512172107'
S'Bhawna Sharma'
tp100
a(S'100001729167897'
p101
S'Rohit Sehgal'
tp102
a(S'100003551710194'
S'Ashi Khan'
tp103
a(S'100001712342069'
p104
S'Neeraj Sachdeva'
tp105
a(S'100005415154629'
p106
S'Prince Sahni'
tp107
a(S'100001544781649'
S'Shweta Singh'
tp108
a(S'100002190988806'
p109
S'Meenu Kapoor'
tp110
a(S'100002153760330'
p111
S'Kishan Arora'
tp112
a(S'100000616439217'
S'Pradeep Chauhan'
tp113
a(S'100004458665968'
S'Anamika Pandey'
tp114
a(S'100002624448483'
p115
S'Karan Malhotra'
tp116
a(S'100001487140562'
p117
S'Maddy Sawhney'
tp118
a(S'100001649589362'
p119
S'Diya Ds'
tp120
a(S'100003766027037'
p121
S'Bobby Rajput'
tp122
a(S'100004286738054'
p123
S'Suryaveer Singh Rawat'
tp124
a(S'100001334052884'
p125
S'Kajal Sharma'
tp126
a(S'100003576181628'
S'Tamanna Rawat'
tp127
a(S'1000117889'
p128
S'Nimmi Saxena'
tp129
a(S'100003762926961'
S'Manish Khurana'
tp130
a(S'100001669447615'
p131
S'King Kailash Rawat'
tp132
a(S'100008110321475'
S'Harsh Tyagi'
tp133
a(S'100000754054725'
S'Zia Khan'
tp134
a(S'100006471240541'
p135
S'Vaishali Sahni'
tp136
a(S'100001650849521'
p137
S'Rachna Sardana'
tp138
asS'id'
p139
S'100005133373796'
p140
sS'name'
p141
S'Veena Sawhney'
p142
s.