(dp1
S'friends'
p2
(lp3
(S'1444791776'
S'Ravi Raina'
tp4
a(S'100001291767331'
S'Girish Sharma'
tp5
a(S'100003799504865'
S'Umesh Razdan'
tp6
a(S'100001238443703'
S'Rajesh Deb'
tp7
a(S'100001821993606'
S'Harender Negi'
tp8
a(S'100000815001818'
S'Ajay Koul'
tp9
a(S'100000716834797'
S'RootsIn Kashmir'
tp10
a(S'100000585246327'
S'Pramod Gupta'
tp11
a(S'100000336942061'
S'Bhatoa Kajal'
tp12
a(S'1425427786'
S'Sunil Pandita'
tp13
a(S'1303385919'
S'Atin Marjara'
tp14
a(S'100001889349179'
S'Ashik D. Tadvi'
tp15
a(S'100000368296424'
S'Jitendra Yadav'
tp16
a(S'681226978'
S'Mohit Bindroo'
tp17
a(S'100002518861213'
S'Ashish Gupta'
tp18
a(S'100003963460834'
S'Sahil Mahajan'
tp19
a(S'100002183290932'
S'Neha Hare-Chougule'
tp20
a(S'100001039687418'
S'Sanjay Kashkari'
tp21
a(S'1307853865'
S'Manmeet Singh'
tp22
a(S'100002543195325'
S'Yogesh Sahareya'
tp23
a(S'100002027451938'
S'Rahul Rajput'
tp24
a(S'100001178816371'
S'Sahil Safaya'
tp25
a(S'100002625090767'
S'Anil Kumar'
tp26
a(S'538010138'
S'Avinash Koul'
tp27
a(S'1470485317'
S'Sagar Tikoo'
tp28
a(S'1057490804'
S'Mech B Oy'
tp29
a(S'525302297'
S'Parag Tiwari'
tp30
a(S'1352178840'
S'Sanjeev Kumar'
tp31
a(S'100002732245086'
S'Neesha Raina'
tp32
a(S'100000552607615'
S'Amit Koul'
tp33
a(S'100001508265280'
S'Ashok Koul'
tp34
a(S'100006032201194'
S'Manish Koul'
tp35
a(S'100001751560992'
S'Sameer Bhat'
tp36
a(S'652590189'
S'Nitin Rawat'
tp37
a(S'1371892558'
S'Rahul Raina'
tp38
a(S'100000467482164'
S'Neha Kaul Tikoo'
tp39
a(S'657663917'
S'Uday Bhan'
tp40
a(S'100000651742043'
S'Jai Shankar'
tp41
a(S'100001317982419'
S'Arun Razdan'
tp42
a(S'100001110885388'
S'Sharma Amet'
tp43
a(S'100002499885668'
S'Pamposh Koul'
tp44
a(S'100001699728769'
S'Sana Bhat'
tp45
a(S'100001777168340'
S'Sameer Bhat'
tp46
a(S'100005025820433'
S'Vicky Anthal'
tp47
a(S'100001527260627'
S'Avii Razdan'
tp48
a(S'666824768'
S'Nischal Bhan'
tp49
a(S'100000266138864'
S'Shiralee Peer'
tp50
a(S'100001620019349'
S'Sanjay Saini'
tp51
a(S'100000053170740'
S'Vikas Verma'
tp52
a(S'100000706668572'
S'Amit Koul'
tp53
a(S'754761888'
S'Riwaz Shankar Kulshrestha'
tp54
a(S'1811823360'
S'Rajesh Verma'
tp55
a(S'100002387778875'
S'Indra Dev Sharma'
tp56
a(S'100001948490984'
S'Meenakshi Koul'
tp57
a(S'100000888848976'
S'Sawan Koul'
tp58
a(S'100001234245187'
S'Avneesh Thakur'
tp59
a(S'100000738404256'
S'Avisek Padhi'
tp60
a(S'100004208643979'
S'Anita Safaya Kaul'
tp61
a(S'1009091916'
S'Vishal Magotra'
tp62
a(S'100001831427761'
S'Rahul Ghanekar'
tp63
a(S'100000627522888'
S'Vaishali Wagh'
tp64
a(S'100001151983333'
S'Jay Karan'
tp65
a(S'100002673601777'
S'Monica Raina'
tp66
a(S'1594107965'
S'Ashish Avhad'
tp67
a(S'100006962402246'
S'Pankaj Koul'
tp68
a(S'1439216136'
S'Pankaj Binjola'
tp69
a(S'100001966220698'
S'Girish Gaur'
tp70
a(S'100006494017111'
S'Dheeraj Safaya'
tp71
a(S'1482407273'
S'Harendra Sharma'
tp72
a(S'100001652755350'
S'Sudeep Chanda'
tp73
a(S'100001021356370'
S'Priya Bhat'
tp74
a(S'1011577113'
S'Amit Sapru'
tp75
a(S'1478804537'
S'Sandeep Kalla'
tp76
a(S'1049129294'
S'Amit Mattoo'
tp77
a(S'1062863903'
S'Amit Kaul'
tp78
a(S'30822513'
S'Amit Raina'
tp79
a(S'100001942413828'
S'Vikrant Singh'
tp80
a(S'100001339280675'
S'Monika Sadhu'
tp81
a(S'1674662544'
S'Rewa Dhar'
tp82
a(S'100000023699256'
S'Rohit Dhar'
tp83
asS'id'
p84
S'100000664485685'
p85
sS'name'
p86
S'Amit Safaya'
p87
s.