(dp1
S'friends'
p2
(lp3
(S'100005067188824'
S'Priya Krishnapal Panwar'
tp4
a(S'100004088737458'
S'Suresh Dhakad'
tp5
a(S'100003037455679'
S'Vipul Sanora'
tp6
a(S'100000908599700'
S'Nisha Jazz'
tp7
a(S'100002005366055'
S'Romy Bhati'
tp8
a(S'100001106253837'
S'Abhishek Shakhari'
tp9
a(S'100002890937968'
S'Kunal Thakre'
tp10
a(S'100003701172371'
S'Muskan Dangi'
tp11
a(S'100003259563202'
S'Sarvagya Mandloi'
tp12
a(S'100006074832917'
S'Rahul Patil'
tp13
a(S'100001040665998'
S'Rohit Sinha'
tp14
a(S'100000878019867'
S'Indrajit Ghosh'
tp15
a(S'100000735668747'
S'Deepak Sharma'
tp16
a(S'100002493814471'
S'Aayush Lawrence'
tp17
a(S'100001837584171'
S'Prince Umaid'
tp18
a(S'100001318206774'
S'Sanya Sen'
tp19
a(S'100000115664185'
S'Sumant Bag'
tp20
a(S'100004071041787'
S'Amit Sharma'
tp21
a(S'100004414357071'
S'Tarun Barve'
tp22
a(S'100003092839086'
S'Lalit Kumar Chaurasia'
tp23
a(S'100004039617363'
S'Nishant Rajpoot'
tp24
a(S'100001949600056'
S'Prathviraj Singh'
tp25
a(S'100001898097737'
S'Shashwat Jain'
tp26
a(S'100004067520567'
S'Rishiraj Singh Chouhan'
tp27
a(S'100003361296964'
S'Mohit Anglay'
tp28
a(S'100002725176623'
S'Pranay Shrivastava'
tp29
a(S'100001591271396'
S'Sanket Jain'
tp30
a(S'1792033131'
S'Neel Gehlot'
tp31
a(S'100003666043707'
S'Neeraj Pandey'
tp32
a(S'100006481476404'
S'Annanya Hada'
tp33
a(S'100004168297449'
S'Sawan Patidar'
tp34
a(S'100001713904068'
S'Dewashish Kondejkar'
tp35
a(S'100004421133774'
S'Ayush Neema'
tp36
a(S'100001795554725'
S'Nimish Modi'
tp37
a(S'100000941407166'
S'Edwin Raju'
tp38
a(S'100004266433431'
S'Akash Rathore'
tp39
a(S'1551019361'
S'Nirnay Jain'
tp40
a(S'100001828674131'
S'Sidhraj Jai Singh'
tp41
a(S'100001067523755'
S'Osama Khan'
tp42
a(S'100003989741775'
S'Dharmendra Sinha'
tp43
a(S'100002200835591'
S'Vicky Rajawat'
tp44
a(S'100002144178393'
S'Ashish Champawat'
tp45
a(S'100002956826095'
S'Shubham Verma'
tp46
a(S'100001758666194'
S'Pawan Sharma'
tp47
a(S'100000626002234'
S'Amrita Chakraborty'
tp48
a(S'100002402272041'
S'Vikas Patel'
tp49
a(S'100002141876981'
S'Niketa Arora'
tp50
a(S'100005061733249'
S'Sudhir Tirole'
tp51
a(S'100003086231811'
S'Saket Mathur'
tp52
a(S'100002306859502'
S'Ratnesh Mishra'
tp53
a(S'100001106200268'
S'Aklavya Singh Rathore'
tp54
a(S'100004239841204'
S'Naseem Shirazi'
tp55
a(S'100000969218893'
S'Toshil Mandloi'
tp56
a(S'100001048114789'
S'Subhojit Kayal'
tp57
a(S'100001643100396'
S'Shael Singh Shaktawat'
tp58
a(S'1281215385'
S'Vinay Jass'
tp59
a(S'100002329719485'
S'Jayesh Kulkarni'
tp60
a(S'100001563276169'
p61
S'Manoj Tarafdar'
tp62
a(S'713293821'
S'Rishi Raj Parasar'
tp63
a(S'100005318863189'
S'Samarth Pathak'
tp64
a(S'100004840990858'
S'Udayraj Singh Rathore'
tp65
a(S'100002580833165'
S'Anmol Parashar'
tp66
a(S'100001173663788'
S'Shabbir Saifee'
tp67
a(S'100001686127046'
S'Piyush Mahant'
tp68
a(S'100000479186571'
S'Satyendra Singh Bawal'
tp69
a(S'100002554747755'
S'Surendra Singh Ranawat'
tp70
a(S'100001215094115'
S'Samarjit Ghosh'
tp71
a(S'100002331330137'
S'Nancy Kailey'
tp72
a(S'100001755189316'
S'Umang Jaiswal'
tp73
a(S'100000977233750'
p74
S'Aakash Raj'
tp75
a(S'100002548879080'
S'Pawan Kumawat'
tp76
a(S'100001514457983'
S'Achal Datre'
tp77
a(S'100000532004608'
S'Aman Jain'
tp78
a(S'100003154699109'
S'Hari Krishnan'
tp79
a(S'100000502152530'
S'Ankita Singh'
tp80
a(S'100001062862296'
S'Chandan Kar'
tp81
a(S'100001044288284'
S'Aditya Satpathy'
tp82
a(S'100002488072456'
S'Sujata Ghosh'
tp83
a(S'100001109652629'
S'Umaid Hussain'
tp84
a(S'100001040317948'
S'Chitra Singh'
tp85
a(S'100002611509942'
S'Shreyance Saraf'
tp86
a(S'100003093063271'
S'Amol Deivedi'
tp87
a(S'100003631092726'
S'Abhishek Dwivedi'
tp88
a(S'100001712612694'
S'Abhi Shek'
tp89
a(S'100001968243234'
S'Amrit Gurung'
tp90
a(S'100002663752703'
S'Vikram Rawat'
tp91
a(S'100001038093171'
S'Sushant Bag'
tp92
a(S'100001080956979'
S'Jatinder Singh Sidhu'
tp93
a(S'100001755344571'
S'Rajat Bhardwaj'
tp94
a(S'100003781296227'
S'Akshat Dubey'
tp95
a(S'100001872493239'
S'Piyush Sharma'
tp96
a(S'100003014449496'
S'Nikhil Tikle'
tp97
a(S'100003824619237'
S'Archana Hada'
tp98
a(S'100003814951932'
S'Pallavi Singh'
tp99
a(S'100002930405435'
S'Prashant Kumar'
tp100
a(S'100001272744117'
S'Amit Shukla'
tp101
a(S'100002615828037'
S'Amit Patidar'
tp102
a(S'100001587796433'
S'Anshita Verma'
tp103
a(S'100002398787109'
S'Avneet Mishra'
tp104
a(S'100003807995931'
S'Ritik Raj Singh Chouhan'
tp105
asS'id'
p106
S'100001049733623'
p107
sS'name'
p108
S'Yograj Singh Rajawat'
p109
s.