(dp1
S'friends'
p2
(lp3
(S'100001639519757'
S'Samiullhaq Hairan'
tp4
a(S'100000803484773'
S'Said Anwarshah Quraishi'
tp5
a(S'100001306318923'
S'Sharifa Hamdard'
tp6
a(S'100002284681788'
S'Akla Manous'
tp7
a(S'100002039067615'
S'Hemmy Khan'
tp8
a(S'100001539388235'
S'Gulabzoi Ahmadzai'
tp9
a(S'100000863855170'
S'Salim Amin'
tp10
a(S'100001636521761'
S'Nazeer Hejran'
tp11
a(S'1628617903'
S'Zabihullah Ghazi Nuristani'
tp12
a(S'100002053857964'
S'\\u0639\\u0628\\u062f\\u0627\\u0644\\u0631\\u062d\\u0645\\u0627\\u0646 \\u0645\\u0646\\u0635\\u0648\\u0631'
tp13
a(S'100000229738320'
S'Khwaja Halim'
tp14
a(S'100001928994545'
S'Amjid Abbas'
tp15
a(S'100001742455422'
S'Mike Murry'
tp16
a(S'100000502376534'
S'Rahnuma Dolon'
tp17
a(S'100001026731830'
S'Mohammad Khalid Karokhil'
tp18
a(S'100001122575097'
S'Abdullah Afg'
tp19
a(S'100002130348973'
S'ShahZada Samer Akbari'
tp20
a(S'100001502377058'
S'Tamana Amini'
tp21
a(S'100002072355127'
S'Naseer Ul Mulk Jalala'
tp22
a(S'100002280114760'
S'Bashir Hanif'
tp23
a(S'100000465861111'
S'Sami Jan'
tp24
a(S'1361354145'
S'Pakhtun Larawbar'
tp25
a(S'100000556798820'
S'Salma Noor'
tp26
a(S'1014344825'
S'Waheedullah Farooqi'
tp27
a(S'100001655683767'
S'Hamed Afg'
tp28
a(S'1371769601'
S'Haleem Esaqzai'
tp29
a(S'100002131785109'
S'Ali Hamraz'
tp30
a(S'100000070825422'
S'Sardar Hussain'
tp31
a(S'100001802925451'
S'Amanullah Pardes'
tp32
a(S'100001802874147'
S'Absar Uddin'
tp33
a(S'100002288572635'
S'Jan Smith'
tp34
a(S'1052415974'
S'Baryal Quraish'
tp35
a(S'100002181038817'
S'Abdul Wajid'
tp36
a(S'1731451010'
S'Hazrat Shinwari'
tp37
a(S'100001484081724'
S'Zaman Khan'
tp38
a(S'100002124015735'
S'M\\u00e0min\\u00e0 L\\u00e0 P\\u00e0tch\\u00e0\\u00e0'
tp39
a(S'100001806726068'
S'Matiullah Khan'
tp40
a(S'100002228960134'
S'Shabnam Bahar'
tp41
a(S'100001205253126'
S'Adarsh Jadhav'
tp42
a(S'100001937269593'
S'Rashid Qaiser'
tp43
a(S'100002297053190'
S'Syed Sada'
tp44
a(S'1392560134'
S'Shahrayar Khan'
tp45
a(S'100001990849290'
S'Hashim Prince'
tp46
a(S'100001929705183'
S'Rozina Bangash'
tp47
a(S'100000293488871'
S'Javid Ali Turi'
tp48
a(S'100002357286458'
S'Asmat Traders'
tp49
a(S'100002168434715'
S'Shaheer Khan Sahaak'
tp50
a(S'100002331193532'
S'Nadia Gul'
tp51
a(S'100002182740174'
S'Hanif Shinwari'
tp52
a(S'100000256079098'
S'Folad Stanikzai'
tp53
a(S'100000910142385'
S'Asad Wafa'
tp54
a(S'100002239158546'
S'Dawood Khan'
tp55
a(S'100001216743208'
S'Ejaz Malik Ejaz'
tp56
a(S'100002056777595'
S'Mursal Ahmadi'
tp57
a(S'100000152557616'
S'Khalid Zahir Amarkhil'
tp58
a(S'1112137390'
S'Ahmad Wali Saidi'
tp59
a(S'100000111783456'
S'Asif Dilawar'
tp60
a(S'100002014261912'
S'Omar Nagy'
tp61
a(S'100000372784693'
S'Sifatullah Zahidi'
tp62
a(S'100002005304622'
S'Mustafa Ibrahimi'
tp63
a(S'100002046500714'
S'Nazeer Kakar'
tp64
a(S'100001810394248'
S'Javed Ahmad Sayedi'
tp65
a(S'100002182922989'
S'Muhammad Qais Barikzai'
tp66
a(S'100002215078368'
S'Saidjavid Shinwari'
tp67
a(S'100002002525001'
S'Rahmat Khan Swat'
tp68
a(S'100000679402554'
S'Hibbat Mukhbit'
tp69
a(S'100001963031634'
S'Sareer Muhmand'
tp70
a(S'1277848523'
S'Hakim Sayedi'
tp71
a(S'100000660176456'
S'Nadeem Uddin'
tp72
a(S'100000765534098'
S'Noorullah Noor'
tp73
a(S'1054622043'
S'Perviz Taza Nuristani'
tp74
a(S'100002353508149'
S'Jamal Baryalai'
tp75
a(S'100001940274238'
S'Md Shafique Shafique'
tp76
a(S'536319137'
S'Akmal Eblagh'
tp77
a(S'100001360925625'
S'Monir Ahmad Ahmad'
tp78
a(S'100001758312047'
S'Bakhtiar Zadran'
tp79
a(S'100002265638614'
S'Eng Dost Mohd'
tp80
a(S'100000504942173'
S'Omid Tanha'
tp81
a(S'100002234514046'
S'Farid Mehsud'
tp82
a(S'100002046455469'
S'Abid Khan'
tp83
a(S'100000857386190'
S'Samim Faqiri'
tp84
a(S'1183162415'
S'Ahmad Gul Totakhyl'
tp85
a(S'100002203338713'
S'Baryalai Jabarkhil'
tp86
a(S'100001904205634'
S'Ali Satri'
tp87
a(S'100002360777278'
S'Alam Sher Khan'
tp88
a(S'100002316989206'
S'Qudrat Hakeemi'
tp89
a(S'100002103972575'
S'Sohail Aziz'
tp90
a(S'100002085311776'
S'Mena Mangal'
tp91
a(S'100000213031578'
S'Noorwali Wafa'
tp92
a(S'1001480772'
p93
S'Juma Gul'
tp94
a(S'100001262932013'
S'Irfan Shahzad'
tp95
a(S'100001172801864'
S'Saeed Ahmad'
tp96
a(S'100001850274915'
S'Obaid Amin Chai'
tp97
a(S'100002063405155'
S'Sayed Wahab Sayedi'
tp98
a(S'684170233'
S'\\u0645\\u06cc\\u0631\\u0648\\u06cc\\u0633 \\u0627\\u0641\\u063a\\u0627\\u0646'
tp99
a(S'100000456599321'
S'Wali Khaksar'
tp100
a(S'100002347109251'
S'Kanako Koshieda'
tp101
a(S'672159546'
S'Sultan Baig'
tp102
a(S'529454687'
S'Faridullah Mirzad'
tp103
a(S'100001546001939'
S'Abdullah Khoshal'
tp104
a(S'100002302104161'
S'Love Mena'
tp105
a(S'100000418885598'
S'Hamayon Aslan'
tp106
a(S'100002228000785'
S'Sonia Malekova Sroush'
tp107
a(S'100000194249032'
S'Pti Parri Naaz'
tp108
a(S'1023488495'
S'Abdul Tawwab Khan'
tp109
a(S'100000519120244'
S'Naheem Khan'
tp110
a(S'100000521383111'
S'Atiq Rahman Rahmani Khishkai'
tp111
a(S'100000245948818'
S'Sajjad Khan'
tp112
a(S'1444612382'
S'Rahmati Rahmatullah'
tp113
a(S'100000916110350'
S'Muhammad Anas'
tp114
a(S'100000512027372'
S'Abdullah OrYakhail'
tp115
a(S'100000697172074'
S'Ahmad Khan'
tp116
a(S'100001670482302'
S'Rahmat Saeed'
tp117
a(S'100002348662112'
S'Bezhan Massi Hassan'
tp118
a(S'100002232859447'
S'Emran Amplifier'
tp119
a(S'100001765145501'
S'Rahima Sahel'
tp120
a(S'100001064759272'
S'Sharifullah Azimi'
tp121
a(S'100002194568462'
S'Ahmed Shah'
tp122
a(S'565763464'
S'Mohammad Aimal Abdul Rahimzai'
tp123
a(S'100002001628040'
S'Zulgai Aman'
tp124
a(S'100002194303515'
S'Shafiq Mahmoodi'
tp125
a(S'100002106883926'
S'Jaan Khan'
tp126
a(S'795760053'
S'Aziz Hewad'
tp127
a(S'100000368539563'
S'Najib Rashid'
tp128
a(S'1280170467'
S'Chaudry Hany'
tp129
a(S'100002125239253'
S'\\u0645\\u062d\\u0645\\u062f \\u062d\\u0645\\u06cc\\u062f\\u06cc'
tp130
a(S'100002033340086'
S'Hossini Ander'
tp131
a(S'100001982168550'
S'Monir Jan'
tp132
a(S'100002210432962'
S'Mir Shayek Reki'
tp133
a(S'100001940940738'
S'Homayun Myhan'
tp134
a(S'100002158980625'
S'Ali Khan'
tp135
a(S'100001945221034'
S'Nadia Said Asif'
tp136
a(S'100000215677693'
S'Ahmadzia Arifzoy'
tp137
a(S'100001195635479'
S'Habib Ahmadi'
tp138
a(S'100000603077043'
S'Niaz Muhammad Niaz'
tp139
a(S'100002139141958'
S'Ajmal Zalmi'
tp140
a(S'100002481609374'
S'Arzo Sahar'
tp141
a(S'100002094964079'
S'Yasmeen Poshtana'
tp142
a(S'100002188834929'
S'Sidra Noor'
tp143
a(S'100002255004936'
S'Yaqob Watanmal'
tp144
a(S'100000531221454'
S'Sebghatullah Safi'
tp145
a(S'567971195'
S'Mustafa Mohseni'
tp146
a(S'100000560682596'
S'Sabawoon Manzoor'
tp147
a(S'100002020388802'
S'Qassim Khan'
tp148
a(S'100002139462949'
S'\\u0685\\u0627\\u0631\\u06ab\\u0631 \\u0627\\u0641\\u063a\\u0627\\u0646'
tp149
a(S'100001972878232'
S'Janan Ehsan'
tp150
a(S'535204522'
S'Malik Jan Akorkhail Ahmadzai'
tp151
a(S'100000673438949'
S'Mohamad Reza Nooraei Pour'
tp152
a(S'100002222633287'
S'Aslam Khan'
tp153
a(S'717658021'
S'Abdul Ghafar Sial'
tp154
a(S'100002227051737'
p155
S'Sajida Joya'
tp156
a(S'100000136344905'
S'Mazhar Ul Ghani'
tp157
asS'id'
p158
S'100002204544659'
p159
sS'name'
p160
S'Junaid Khan Afridi'
p161
s.