(dp1
S'home_link'
p2
Vhttps://www.facebook.com/l.php?u=https%3A%2F%2Fwww.bing.com%2Fmaps%2Fdefault.aspx%3Fv%3D2%26pc%3DFACEBK%26mid%3D8100%26where1%3D22.700001104745%252C%2B90.366668701172%26name%3DBarisal%26mkt%3Den-IN&h=tAQHPGy13&s=1
p3
sS'current_text'
p4
VBarisal\u000aCurrent City
p5
sS'name'
p6
S'O\\u00e7h\\u00e9\\u00f1\\u00e1 P\\u00e1v\\u00e8l'
p7
sS'home_text'
p8
VBarisal\u000aHometown
p9
sS'friends'
p10
(lp11
(S'100005118766475'
S'O\\u00e7h\\u00e9\\u00f1\\u00e1 P\\u00e1v\\u00e8l'
tp12
a(S'100006334870407'
S'Soniya Patel'
tp13
a(S'100008393916991'
S'\\u0985\\u09a8\\u09be\\u09ae\\u09bf\\u0995\\u09be \\u0985\\u09a8\\u09be\\u09ae\\u09bf\\u0995\\u09be'
tp14
asS'id'
p15
S'100005118766475'
p16
sS'current_link'
p17
Vhttps://www.facebook.com/l.php?u=https%3A%2F%2Fwww.bing.com%2Fmaps%2Fdefault.aspx%3Fv%3D2%26pc%3DFACEBK%26mid%3D8100%26where1%3D22.700001104745%252C%2B90.366668701172%26name%3DBarisal%26mkt%3Den-IN&h=BAQEdeXnP&s=1
p18
s.