(dp1
S'home_link'
p2
Vhttps://www.facebook.com/l.php?u=https%3A%2F%2Fwww.bing.com%2Fmaps%2Fdefault.aspx%3Fv%3D2%26pc%3DFACEBK%26mid%3D8100%26where1%3D32.083600628819%252C%2B72.670440673828%26name%3DSargodha%26mkt%3Den-IN&h=GAQH7Ym8E&s=1
p3
sS'current_text'
p4
VSargodha\u000aCurrent City
p5
sS'name'
p6
S'Imran Nomi'
p7
sS'home_text'
p8
VSargodha\u000aHometown
p9
sS'friends'
p10
(lp11
sS'id'
p12
S'100004743512746'
p13
sS'current_link'
p14
Vhttps://www.facebook.com/l.php?u=https%3A%2F%2Fwww.bing.com%2Fmaps%2Fdefault.aspx%3Fv%3D2%26pc%3DFACEBK%26mid%3D8100%26where1%3D32.083600628819%252C%2B72.670440673828%26name%3DSargodha%26mkt%3Den-IN&h=1AQGfxi4H&s=1
p15
s.