(dp1
S'friends'
p2
(lp3
(S'100002278944548'
S'Kuldeep Rock Singer Sharma'
tp4
a(S'100000157502401'
S'Justin Thomas'
tp5
a(S'100006451981876'
S'Rahul Gupta'
tp6
asS'id'
p7
S'100000157502401'
p8
sS'name'
p9
S'Justin Thomas'
p10
s.