(dp1
S'friends'
p2
(lp3
(S'100002695915134'
S'Mukti Sharma'
tp4
a(S'100000319799284'
S'Puneet Raswant'
tp5
a(S'100000168798473'
S'Anand Sharma'
tp6
a(S'100006457778373'
S'Kashif Pietersen'
tp7
a(S'100003914587816'
p8
S'Prashant Sharma'
tp9
a(S'100005830631497'
S'Ramesh Rawat'
tp10
a(S'100002022624954'
S'Nitesh Gupta'
tp11
a(S'100004168352582'
S'Neeraj Goel'
tp12
a(S'1242051153'
p13
S'Sunita Mohan'
tp14
a(S'100001457635529'
S'Sumit Bhardwaj'
tp15
a(S'100002146476304'
S'Puneet Bachhas'
tp16
a(S'100003617894069'
S'Shalu Gupta'
tp17
a(S'100007474238788'
S'Kavin Kumar'
tp18
a(S'100004144534869'
S'Anku Jain'
tp19
a(S'100006313925648'
S'Varun Dawar'
tp20
a(S'100004039581503'
S'Yamini Singh'
tp21
a(S'100008110803982'
S'Amrita Sharma'
tp22
a(S'100007575878927'
S'Sanjana Pandey'
tp23
a(S'618820514'
S'Rahil Khan'
tp24
a(S'100007665600363'
S'Hitesh Arora'
tp25
a(S'100000486065667'
S'Amitt Kaushik'
tp26
a(S'100004174240610'
p27
S'Neeraj Goel'
tp28
a(S'100007880771351'
S'Parul Kaushik'
tp29
a(S'100002659652794'
S'Naman Aggarwal'
tp30
a(S'100006092343619'
S'Sumit Sumit Sharma'
tp31
a(S'100006752554815'
S'Ankita Rana'
tp32
a(S'100007928558516'
S'Sima Tiwari'
tp33
a(S'100008115514553'
S'Gaby Orbegoso'
tp34
a(S'100002030831205'
S'Om Veer'
tp35
a(S'100007813124475'
S'Sandhya Mishra'
tp36
a(S'100005880102779'
S'Sonu Kumar'
tp37
a(S'100001658954893'
S'Dimple Garodia Jalan'
tp38
a(S'100007690303329'
S'Anil Sharma'
tp39
a(S'100007162384807'
S'Shubham Jain'
tp40
a(S'100003979941450'
S'Kirti Sachan'
tp41
a(S'100006764282416'
S'Rahul Jaykar'
tp42
a(S'100002250426416'
S'Sushil Sharma'
tp43
a(S'100005784090502'
S'Kriya Tamta'
tp44
a(S'100001539740889'
S'Harsh Khandelwal'
tp45
a(S'680008163'
S'Rohit Raj Goyal'
tp46
a(S'100007545342723'
S'Soniya Sarma'
tp47
a(S'100007259228938'
S'Aarti Gola'
tp48
a(S'100001790543344'
S'Rajesh Mittal'
tp49
a(S'100004554062940'
S'Priya Verma'
tp50
a(S'100000903157332'
S'ER Rohit Rungta'
tp51
a(S'100006545230948'
S'Dil Preet Ji'
tp52
a(S'100003746169485'
p53
S'Neeraj Goel'
tp54
a(S'100006129012121'
S'Phir Milenge'
tp55
a(S'756687427'
S'Carmen Satin'
tp56
a(S'100004307101217'
S'Suresh Chand'
tp57
a(S'100005955278551'
S'Yogesh Santbakshsingh'
tp58
a(S'100008361855682'
S'Sonu Verma'
tp59
a(S'100007750509335'
S'Gita Singh'
tp60
a(S'100002318757018'
S'Chirag Jain'
tp61
a(S'100000188706430'
S'Abhinav Upadhyay'
tp62
a(S'100001840522869'
p63
S'Mohit Gupta'
tp64
a(S'100005925129642'
S'Ayush Gaur'
tp65
a(S'100007314938358'
S'Vanshika Gola'
tp66
a(S'100007793682656'
S'Kamesh Kumar'
tp67
a(S'100008097402856'
S'Bablu Kashyap'
tp68
a(S'100004864487076'
S'Vanshika Gola'
tp69
a(S'100007062062767'
S'Tina Singh'
tp70
a(S'100006725766726'
S'Ram Chandra Bind'
tp71
a(S'100005509056579'
S'Md Amir'
tp72
a(S'100003741509132'
S'Lalit Chawla'
tp73
a(S'100006723513664'
S'Angel Alisha'
tp74
a(S'100008281531592'
S'Swity Patel'
tp75
a(S'100006681435833'
S'Shikha Gola'
tp76
a(S'100000520329515'
S'Manish Kumar'
tp77
a(S'100001491015953'
S'Verma Rishabh'
tp78
a(S'100007257666842'
S'Aahna Sharma'
tp79
a(S'100007613732803'
S'Aliza Alvi'
tp80
a(S'100007141212627'
S'Mayur Gola'
tp81
a(S'100004439825011'
S'Monika Singh'
tp82
a(S'100004227001225'
S'Ashutosh Gupta'
tp83
asS'id'
p84
S'100007463825512'
p85
sS'name'
p86
S'Himanshu Sharma'
p87
s.