(dp1
S'name'
p2
S'Alok Kumar'
p3
sS'current_class'
p4
S'india'
p5
sS'current_link'
p6
Vhttps://www.facebook.com/l.php?u=https%3A%2F%2Fwww.bing.com%2Fmaps%2Fdefault.aspx%3Fv%3D2%26pc%3DFACEBK%26mid%3D8100%26where1%3D25.611000475074%252C%2B85.142669677734%26name%3DPatna%252C%2BIndia%26mkt%3Den-IN&h=4AQFsGlXF&s=1
p7
sS'current_text'
p8
VPatna, India\u000aCurrent City
p9
sS'friends'
p10
(lp11
(S'100001602994256'
p12
S'Alok Kumar'
tp13
a(S'1720044959'
S'Sushil Kumar'
tp14
asS'id'
p15
g12
s.