(dp1
S'friends'
p2
(lp3
(S'100007765297166'
S'Kayla Miller'
tp4
a(S'100007269134024'
S'Jhalla Nick'
tp5
a(S'100004839451399'
S'Robert James'
tp6
a(S'100004952597150'
S'Raghav Sharma'
tp7
a(S'100003847977010'
S'Kara Sorensen'
tp8
asS'id'
p9
S'100003847977010'
p10
sS'name'
p11
S'Kara Sorensen'
p12
s.