(dp1
S'friends'
p2
(lp3
(S'100001674131120'
S'Prince Cool'
tp4
a(S'100000548295901'
S'Ashish Gulati'
tp5
a(S'100000654516353'
S'Dev Ballack'
tp6
a(S'826089921'
S'Aman Dev'
tp7
a(S'100001409374394'
S'Anshul Saini'
tp8
a(S'100000565342793'
S'Tushar Goyal'
tp9
a(S'100001149535906'
S'Rao Upender'
tp10
a(S'100001310702049'
S'Abhishek Arora'
tp11
a(S'100001298585601'
S'Gagan Chauhan'
tp12
a(S'100000414680096'
S'Vishal Sweet'
tp13
a(S'100001283865533'
S'Bh\\u00fbv\\u00f1\\u00eash \\u00c7h\\u00e2\\u00fbh\\u00e1n'
tp14
a(S'100001130218509'
S'Ashwani Ags Sharma'
tp15
a(S'100001294165586'
S'Harender Maan'
tp16
a(S'100001203514629'
S'Souradip Paul'
tp17
a(S'100000599760324'
S'Ashoo Balhara'
tp18
a(S'100000853486558'
S'Nitin Gambhir'
tp19
a(S'100000924999625'
S'Pankaj Rajput'
tp20
a(S'100000927791571'
S'Mohit Kumar'
tp21
a(S'100000547203104'
S'Abhishek Bhat'
tp22
a(S'100001117900197'
S'Devan Shokeen'
tp23
a(S'100001323000518'
S'Avin Raghav'
tp24
a(S'100000369218414'
S'Karan Kapoor'
tp25
a(S'100000651328471'
S'Mahender Kataria'
tp26
a(S'100001433963587'
S'Suchit Thakran'
tp27
a(S'100002088809152'
S'Arnav Gupta'
tp28
a(S'100000781273517'
S'Rohit Mann'
tp29
a(S'100000203721362'
S'Manoj Thakran'
tp30
a(S'100000140061100'
S'Kuldeep Singh'
tp31
a(S'100001245892722'
S'Rajat Kapoor'
tp32
a(S'100001153216100'
S'Prashant Sharma'
tp33
a(S'100001278891615'
S'Chaudhary Yogesh Dalal'
tp34
a(S'100000936720864'
S'Arpit Malik'
tp35
a(S'100001439248161'
S'Gaurav Raghav'
tp36
a(S'100000871018373'
S'Kamal Nagpal'
tp37
a(S'1653815864'
S'Janit Yadav'
tp38
a(S'1663465162'
S'Mohit Rana'
tp39
a(S'100000182928472'
S'Sahil Sood'
tp40
a(S'1587906678'
S'Yogini Oberoi'
tp41
a(S'100000387698581'
S'Hemant Yadav'
tp42
a(S'100000156688719'
S'Tushar Sharma'
tp43
a(S'100001376757191'
S'Vijay Kumar'
tp44
a(S'100000678809228'
S'Paras Mangla'
tp45
a(S'100001207222272'
S'G\\u00e4\\u00fbr\\u00e5v G\\u00fal\\u00ed\\u00e2'
tp46
a(S'100001344429308'
S'Rohit Bohra'
tp47
a(S'100001307939055'
S'Jatin Sapra'
tp48
a(S'100000815445817'
S'Deepak Dinkar'
tp49
a(S'100000648369353'
S'Deepanshu Nasa'
tp50
a(S'100001370929864'
S'Pankaj Bhatt'
tp51
a(S'100000422883154'
S'V\\u00efsh\\u00e3l Thareja'
tp52
a(S'100001122318487'
S'Sachin Sharma'
tp53
a(S'100000189420393'
S'Tarun Chutani'
tp54
a(S'100000368195678'
S'Chiranshu Arora'
tp55
a(S'100000756006086'
S'Aditya Tiwari'
tp56
a(S'100000592064613'
S'Dushyant Bhardwaj'
tp57
a(S'100000679240200'
S'Laksh Chauhan'
tp58
a(S'100001267021852'
S'Yatin Nagpal'
tp59
a(S'100001381725274'
S'Rao Ajay Yadav'
tp60
a(S'100001205846707'
S'Hrrishantt Kummarr'
tp61
a(S'1765661710'
S'Tikna Ahawram'
tp62
a(S'100001131495074'
S'Ashwin Kumar'
tp63
a(S'100001101748689'
S'Chirag Arora'
tp64
a(S'100002166835419'
S'Deepak Bareja'
tp65
a(S'100001201650026'
S'Bittu Thakran'
tp66
a(S'100001289399245'
S'Vaishali Kaushik'
tp67
a(S'100005287171847'
S'Vipin Sharma'
tp68
a(S'100000588072868'
S'Muntaquim Ahmed'
tp69
a(S'100001050213672'
S'Kaustav Upadhayay'
tp70
a(S'1142713040'
S'Aashray Singh'
tp71
a(S'1267689324'
S'Ankit Yadav'
tp72
a(S'100000922441337'
S'Kunal Vasan'
tp73
a(S'1051006929'
S'Mudita Yadav'
tp74
a(S'100001080350744'
S'Krishan Yadav'
tp75
a(S'100001190779912'
S'Kartik Chhabra'
tp76
a(S'100001384028040'
S'Amit Thakran'
tp77
a(S'100001363026876'
S'Goyal Sahb'
tp78
a(S'1825403344'
S'Shweta Sharma'
tp79
a(S'100000260916816'
S'Shaurya Raichand'
tp80
a(S'100000180476761'
S'Nakul Gothwal'
tp81
a(S'100001643325594'
S'Prateik Rana'
tp82
a(S'100001223392162'
S'\\u00c5m\\u00ee Rajput'
tp83
a(S'100000883957153'
S'Shakher Pawan Thakran Thakran'
tp84
a(S'100001192411302'
S'Ravi Tomar'
tp85
a(S'100000788341493'
S'Rao Arun'
tp86
a(S'100001380796382'
S'Kapil Kumar'
tp87
a(S'100001351063401'
S'Vikas Dagar'
tp88
a(S'100001355862436'
S'Rikki Rathee'
tp89
a(S'1782380878'
S'Deepak Yadav'
tp90
a(S'100000780562215'
S'Sakar Diwase'
tp91
a(S'100001191965521'
S'Nikhil Jindal'
tp92
a(S'100000572553864'
S'Himanshu Dubey'
tp93
a(S'100000955849244'
S'Rahul Reswal'
tp94
a(S'100001041898405'
S'Aditya Yadav'
tp95
a(S'100000292933029'
S'Krish Hert'
tp96
a(S'100000424859370'
S'Amit Mrock Pannu'
tp97
a(S'100001242508327'
S'Keshav Aggarwal'
tp98
a(S'100001322135618'
S'Akshay Kumar'
tp99
a(S'100001324166555'
S'Nishu Dudeja'
tp100
a(S'100001057541859'
S'Jatin Sharma'
tp101
a(S'100001072954067'
S'Shivam Aggarwal'
tp102
a(S'100001365420905'
S'Lakshay Singla'
tp103
asS'id'
p104
S'100001613656449'
p105
sS'name'
p106
S'Ayashka Yadav'
p107
s.