(dp1
S'friends'
p2
(lp3
(S'100007021424452'
S'Djane Ashley'
tp4
a(S'100003118284268'
S'DjAshish Nagpal'
tp5
a(S'100000245186094'
S'Aditya Verma'
tp6
a(S'100006438743473'
S'Sumera Iqbal'
tp7
a(S'100004174240610'
S'Neeraj Goel'
tp8
a(S'100006734584007'
S'Shilpy Gupta'
tp9
a(S'511017812'
S'Mayank Bharara-dj Munks'
tp10
a(S'100002959321990'
S'Mukesh Thakur'
tp11
a(S'100001425592998'
S'Chirag Singh'
tp12
a(S'1556852562'
S'Aakash Gupta'
tp13
a(S'100001922913859'
S'Ankur Gupta'
tp14
a(S'100004650180816'
S'Manmohan Gautam'
tp15
a(S'100002088288189'
S'Harshit Gupta'
tp16
a(S'100008274378729'
S'Ankit Sharma'
tp17
a(S'100002407525128'
S'Djrobin Gupta'
tp18
a(S'100001590828360'
S'Faraz Mohsin'
tp19
a(S'100004949171188'
S'Annu Mishra'
tp20
a(S'100001298842981'
S'Arun Verma'
tp21
a(S'100003411740427'
S'Pooja Mishra'
tp22
a(S'100002228913876'
p23
S'Annu Gautam'
tp24
a(S'100002990404145'
S'Nakul Sharma'
tp25
a(S'100008237372230'
S'Dinesh Kumar'
tp26
asS'id'
p27
S'100007763612127'
p28
sS'name'
p29
S'Mohit Gupta'
p30
s.