(dp1
S'friends'
p2
(lp3
(S'100000474820771'
S'Huzaifa Rahmani'
tp4
a(S'100003674790434'
S'Md Mojammilalam'
tp5
a(S'100000730485644'
S'Faizul Haq'
tp6
a(S'100005044235690'
S'Shamim Khan'
tp7
a(S'100005359024499'
S'Md Salahu'
tp8
a(S'100006677444481'
S'Rumisha Qadri'
tp9
a(S'100002446704681'
S'Saghir Ahmad'
tp10
a(S'100003108537804'
S'Ali Reza'
tp11
a(S'100001260637937'
S'Kunal Shubham'
tp12
a(S'1644865951'
S'Avdhesh Priadarshi Apriadarshi'
tp13
a(S'100006152070692'
S'Kundan Kishor'
tp14
a(S'100006979152695'
S'Md Shahid'
tp15
a(S'100007461870477'
S'Babblu Tower'
tp16
a(S'100002338692035'
S'Taiyab Alam'
tp17
a(S'100002102410369'
S'Aftab Alam'
tp18
a(S'100000842599671'
S'Mohammed Ali Shihab'
tp19
a(S'100005285590008'
S'Sohail Anjum'
tp20
a(S'100000392112241'
S'Md Sarshar Ahmad'
tp21
a(S'1627795336'
S'Osama Hasan'
tp22
a(S'100005828972218'
S'Sabir Alam'
tp23
a(S'1056916927'
S'Amir Khawaja'
tp24
a(S'587282083'
S'Abu Bashar'
tp25
a(S'100003155015360'
S'Talha Rahman'
tp26
a(S'100003285588658'
S'Amber Ali'
tp27
a(S'100000769317543'
S'Tahir Hussain'
tp28
a(S'100000496158322'
S'Daulat Khan'
tp29
a(S'100001952663597'
S'Ashraf Kamal'
tp30
a(S'100005481823197'
S'Iftekhar Akram'
tp31
a(S'100003067472848'
S'MD Abuzar'
tp32
a(S'100001529294462'
S'Jeewan Singh'
tp33
a(S'100000673137251'
S'Abul Kalam'
tp34
a(S'100002500882825'
S'Rizwan Hussain'
tp35
a(S'100003609366601'
S'Abhay Rakesh'
tp36
a(S'100003670173911'
S'MD Wakil Husain'
tp37
a(S'100004472050794'
S'Sanaullah Mohammad'
tp38
a(S'652905936'
S'Anwar Kizhakkekara'
tp39
a(S'100004842940431'
S'Asif Mohd Khan'
tp40
a(S'100004837594528'
S'MD Nehal'
tp41
a(S'100004078053707'
S'MD Neyaz'
tp42
a(S'100006679150684'
S'Arshad Ali'
tp43
a(S'100006313932789'
S'Junaid Alam'
tp44
a(S'100000451889040'
S'Israr Ahmad'
tp45
a(S'100003645078513'
S'Nafees Ahmad'
tp46
a(S'100000975928002'
S'Bashir Alam'
tp47
a(S'100002060064920'
S'M Imteyaz Alam'
tp48
a(S'100000054979853'
S'Abid Subhani'
tp49
a(S'100002926407569'
S'Nasrul Mustafa Khan'
tp50
a(S'100003009816169'
S'Vikash Hembrom'
tp51
a(S'100002915115010'
S'Obaid Mohd'
tp52
a(S'1127018826'
S'Mohd Aijaz'
tp53
a(S'100002866220866'
S'Md Naquee'
tp54
a(S'1360766587'
S'Mohd Shams Shahnawaz'
tp55
a(S'100004042401654'
S'Numan Shaikh'
tp56
a(S'100007558720156'
S'Zaki Anwar'
tp57
a(S'1583552579'
S'Aaga Khan'
tp58
a(S'100006472093734'
S'Md Imran'
tp59
a(S'632674679'
S'Firoz Yehya'
tp60
a(S'100002404868943'
S'Abid Hussain'
tp61
a(S'100001949250437'
S'Saffron Panun'
tp62
a(S'1062191658'
S'Hamid Obaid'
tp63
a(S'100004681721781'
S'Nasim Alam'
tp64
a(S'100006507828211'
S'Jay Prakash Mohaniya'
tp65
a(S'100003143558029'
S'Perwez Alam'
tp66
a(S'553847070'
S'Meraj Siddiqui'
tp67
a(S'100000832695466'
S'Kumar Atul'
tp68
a(S'100002096678643'
S'Zakir Hussain'
tp69
a(S'100004416908818'
S'MD Saifullah'
tp70
a(S'100004112473384'
S'M D Khan Adv'
tp71
a(S'100006037748136'
S'Mahboob Alam'
tp72
a(S'1556017333'
S'Markandey Rai'
tp73
a(S'100006279784223'
S'Md Ghufran'
tp74
a(S'100003237674885'
S'Abu Taiyab'
tp75
a(S'1220956556'
S'Iqbal Ahmad'
tp76
a(S'100002529949778'
S'Md Adil'
tp77
a(S'100003944170272'
S'King Rizwan Alam'
tp78
a(S'1523100145'
S'Vidhata Rawat'
tp79
a(S'100000502455933'
S'Arshad Iqubal'
tp80
a(S'100003585007260'
S'Md Moammir'
tp81
a(S'100002861511854'
S'Nadeem Still Alive'
tp82
a(S'100002197236747'
S'Gulzar Wani'
tp83
a(S'100003052148441'
S'Shakir Hussain'
tp84
a(S'100007109860181'
S'Shahid Iqbal'
tp85
a(S'100003194467426'
S'Shamim Khan'
tp86
a(S'100000252392463'
S'Md Faheem Ahmad Choudhary'
tp87
a(S'100005042825664'
S'Hamid Rashid'
tp88
a(S'100006282276301'
S'Shakir Hussain'
tp89
a(S'100002741443868'
S'Md Saddam'
tp90
a(S'100002242377980'
S'Tabish Anwer'
tp91
a(S'100001842167737'
S'DrAjmal Shaikh'
tp92
a(S'523311960'
S'Safdar Ali'
tp93
a(S'100003553058047'
S'Imran Ahmad'
tp94
a(S'100002917946781'
S'Faiyaz Ansari'
tp95
a(S'100001577153440'
S'Abid Hussain'
tp96
a(S'100006255332558'
S'Md Javed Alam'
tp97
a(S'100004298885951'
S'Ali Asghar'
tp98
a(S'1089737814'
S'Ahmad Azeem'
tp99
a(S'100005798953591'
S'Md Emad'
tp100
a(S'100006786249711'
S'Balram Kumar'
tp101
a(S'554032625'
S'Cartoonist Irfan'
tp102
a(S'100003574156214'
S'Abdul Kadir'
tp103
a(S'100003943903306'
S'Mohd Mueen Uddin'
tp104
a(S'100003134583623'
S'Uday Baranwal'
tp105
a(S'100002228395240'
S'Sarwar Azam'
tp106
a(S'100002933884314'
S'DrDurga Sharan Mishra'
tp107
a(S'100000864995621'
S'Shahid Ali'
tp108
a(S'100001517484358'
S'Nazre Hussain'
tp109
a(S'1446837135'
S'Jabbar Khan'
tp110
a(S'100001768489654'
S'Md Shahbaz'
tp111
a(S'100004916619601'
S'Jugnu Iqbal'
tp112
a(S'100005680804967'
S'Muqeem Ahmad'
tp113
a(S'100002154780199'
S'Ali Imam'
tp114
a(S'100003119200926'
S'Asif Hussain'
tp115
a(S'100001816754346'
S'Raza Shaukat'
tp116
a(S'100001877555222'
S'Zia Ansari'
tp117
a(S'1661250831'
S'Shahid Anwer'
tp118
a(S'100004063388445'
S'Habib Ur Rehman Mla'
tp119
a(S'100001819135570'
S'Akhtar Hussain'
tp120
a(S'100002781007656'
S'Amrit Kumar'
tp121
a(S'100002357480177'
S'Afsar Ali'
tp122
a(S'100006463890980'
S'Siraj Bhai'
tp123
a(S'100005779446509'
S'Mohammad Shahil Mullah'
tp124
a(S'100005048495749'
S'Aaquib Khateeb'
tp125
a(S'100000947453852'
S'Shafique Mohd'
tp126
a(S'1043427613'
S'Alfaid Ansari'
tp127
a(S'1198521165'
S'Roomy Naqvy'
tp128
a(S'100005410656664'
S'Munsharif Khan'
tp129
a(S'1283470683'
S'Sayeed Akhtar'
tp130
a(S'100006621330584'
S'Nikhil Mehta'
tp131
a(S'100000920547084'
S'Mazid Khan'
tp132
a(S'100002937904175'
S'Moin Chaudhary'
tp133
a(S'100004627571556'
S'Sohrab Alam'
tp134
a(S'100001566982602'
S'Irshad Ali'
tp135
a(S'100006356765602'
S'Tanweer Khan'
tp136
a(S'100007453923054'
S'Md Rashid'
tp137
a(S'605879632'
S'Lalit K Jha'
tp138
a(S'100004281210659'
S'Ghulam Haider'
tp139
a(S'100004278788776'
S'Rohit Suraj'
tp140
a(S'100002971758097'
S'Royal Tarique'
tp141
a(S'100006486020591'
S'Md Same Khan'
tp142
a(S'100007046436817'
S'Md Muzaffar Alam'
tp143
a(S'100000743494598'
S'Imran Nazir'
tp144
a(S'100006585391571'
S'Md Sunny'
tp145
a(S'100004259590616'
S'Md Safdar'
tp146
a(S'100000823111522'
S'Mobassar Jawed'
tp147
a(S'649541870'
S'Amit Kumar'
tp148
a(S'100005754480243'
S'Afzal Ahmad'
tp149
a(S'654500690'
S'Aslam Khan'
tp150
a(S'100005818001534'
S'Meraj Alam'
tp151
a(S'100006392919544'
S'Vikash Kumar Hembrom'
tp152
a(S'100002342350931'
S'Mohd Naushad Alam Siddiquee'
tp153
a(S'100001775901944'
S'Anil Kumar'
tp154
a(S'100006574054596'
S'Abdul Karim Ansari'
tp155
a(S'100002567865154'
S'Akbar Alam'
tp156
a(S'100007799979471'
S'Khalid Ali'
tp157
a(S'100001354105997'
S'Md Izhar Alam'
tp158
a(S'100000030146475'
S'Sarfraz Mirza'
tp159
a(S'100001188890828'
S'Tausif Ahmad'
tp160
a(S'100004718462811'
S'Md Rafi Alam'
tp161
a(S'100002810522987'
S'Manzar Hassan'
tp162
a(S'100006104891285'
S'Md Tabish Anwer'
tp163
a(S'100000275206266'
S'Shoaib Ahmad-Bunty'
tp164
a(S'1084037439'
S'Sunit Kumar'
tp165
a(S'100002955696599'
S'Neyaz Ahmad'
tp166
a(S'100005490276330'
S'Tipu Ahkam'
tp167
a(S'100003237541474'
S'Md Zakaullah'
tp168
a(S'100003884124340'
S'Afzal Khan'
tp169
a(S'100007011102861'
S'Samdani Alam'
tp170
a(S'100003344420577'
S'Rashik Sarik'
tp171
a(S'100005134328630'
S'Md Daud'
tp172
a(S'100003552695618'
S'Mohammad Sabir Hussain'
tp173
a(S'100006425578772'
S'Imran Alam'
tp174
a(S'1409725014'
S'Kalimur Rahman'
tp175
a(S'100004309771246'
S'Tauhid Tauhid'
tp176
a(S'100003205795122'
S'Md Khurshid'
tp177
a(S'100001846757971'
S'Naqui Ahmad John'
tp178
a(S'100006276402743'
S'Modassir Nazar'
tp179
a(S'100006337626204'
S'Mahfooj Alam'
tp180
a(S'100003056766600'
S'Kausar Neyazi'
tp181
a(S'100006644612705'
S'Jamil Ahmad'
tp182
a(S'100002507553356'
S'Md Faizullah'
tp183
a(S'100003465924124'
S'Mdshah Alam'
tp184
a(S'100000793044587'
S'Md Rizwan Ahmad'
tp185
a(S'633268846'
S'Ershad Ahmad'
tp186
a(S'100000301915036'
S'Shaheen Equbal'
tp187
a(S'100002647230153'
S'Abid Shekh'
tp188
a(S'100000259283413'
S'Kashif Ul Haq'
tp189
a(S'100002207817302'
S'Shoaib Danish'
tp190
a(S'100002762832164'
S'Vivek Chandra'
tp191
a(S'100002232939850'
S'Farooq Khan'
tp192
a(S'1386360758'
S'Md Aftab Alam'
tp193
a(S'100004861780638'
S'Aftab Alam'
tp194
a(S'100007720213293'
S'AhMed SheHzad'
tp195
a(S'1419170826'
S'Mohammad Adam'
tp196
a(S'100003172903745'
S'Danish Reza'
tp197
a(S'100003086659886'
S'Mohd Asir'
tp198
a(S'1025820684'
S'Avinash Arya'
tp199
a(S'100002180946867'
S'Waseem Seraj Khan'
tp200
a(S'100006461334036'
S'MD Sajid'
tp201
a(S'100002219556564'
S'Shakeel Mohammad'
tp202
a(S'100001527117825'
S'AbuTalha Bigboss'
tp203
a(S'100002951660375'
S'Faizan Shahid'
tp204
a(S'1545036382'
S'Zeeshan Khan'
tp205
a(S'100003493420553'
S'Md Tanweer'
tp206
a(S'100001171206783'
S'Taiyab Saifi'
tp207
a(S'1641611722'
S'Mohammad Kaifullah'
tp208
a(S'100001531462330'
S'Rizwan Ahmad'
tp209
a(S'100001519837264'
S'Bijay S Yadav'
tp210
a(S'100004803672399'
S'Krishna Singh'
tp211
a(S'100000205113110'
S'Malik Suhail'
tp212
a(S'100004330593271'
S'Rabbani Alam'
tp213
a(S'100004829641317'
S'Manoj Kumar'
tp214
a(S'1611111447'
S'Manzar Aaquil'
tp215
a(S'100003492169157'
S'Maira Mairasiddique'
tp216
a(S'100001043971270'
S'Adil Anwar'
tp217
a(S'100002125773199'
S'Tanweer Alam'
tp218
a(S'100002354024687'
S'Suraj Singh'
tp219
a(S'100003047355805'
S'Imran Ahmed'
tp220
a(S'100004519093127'
S'Girish Pande'
tp221
a(S'1750335766'
S'Kanwal Bharti'
tp222
a(S'100006734223856'
S'MD Anwar Ansari'
tp223
a(S'1345405138'
S'Arman Ali'
tp224
a(S'100006666846337'
S'Shah Arsalan'
tp225
a(S'100003215223635'
S'Akber Ali'
tp226
a(S'100003535304769'
S'Mohd Imran'
tp227
a(S'100003386024030'
S'Zaki Anwar'
tp228
a(S'100004363502893'
S'Sarwer Shaikh'
tp229
a(S'100004176853635'
S'Mdrashid Ahmad'
tp230
a(S'1011376227'
S'Lokesh Rai'
tp231
a(S'1528724108'
S'Tauseef Anwer'
tp232
a(S'100000195993042'
S'Furqan Qamar'
tp233
a(S'100003065232020'
S'Faisal Sannu'
tp234
a(S'100004635186051'
S'T.u. Islam'
tp235
a(S'100006504347694'
S'Javed Akhtar'
tp236
a(S'100002574349651'
S'Wakeel Ahmed'
tp237
a(S'100003809636976'
S'Mohd Hedaytullah'
tp238
a(S'613673740'
S'Mobeen Alam'
tp239
a(S'1691829524'
S'Maqsoom Alam Ansari'
tp240
a(S'100000196626389'
S'Qaisar Alam'
tp241
a(S'100004691893797'
S'Shahzad Alam'
tp242
a(S'100002175038288'
S'Muqeem Ahmad Chaudhry'
tp243
a(S'100001661778665'
S'Amit Anand'
tp244
a(S'1212279491'
S'Mohammad Aazad'
tp245
a(S'100002125619093'
S'Mohammad Adil'
tp246
a(S'100006768725416'
S'Nadeem Ansari'
tp247
a(S'100002545912667'
S'Md Irshad Alam'
tp248
a(S'100003452784183'
S'Md Sarwarali'
tp249
a(S'100002196231619'
S'Afaroz Alam'
tp250
a(S'100002084013716'
S'Firoz Khan'
tp251
a(S'100007022172609'
S'Md Mumtaz'
tp252
a(S'100007622074073'
S'Abrar Ahmad Jmi'
tp253
a(S'100002250058044'
S'Tanwir Alam'
tp254
a(S'100002584127567'
S'Haider Ali'
tp255
a(S'100007435958270'
S'Gufran Abid'
tp256
a(S'100000474362178'
S'Tabrez Ahmad'
tp257
a(S'1415235202'
S'Waris Siddiqui'
tp258
a(S'100002062763079'
S'Nasim Ahsan'
tp259
a(S'100003817004312'
S'Md Masood'
tp260
a(S'100002985923730'
S'Mosharraf Alam'
tp261
a(S'100005907240873'
S'Badruzzma Hafij'
tp262
a(S'100000530954624'
S'Hasan Jawed'
tp263
a(S'516732085'
S'Mohammad Farooq'
tp264
a(S'100002627975380'
S'Lone Shah Jahangir'
tp265
a(S'100007891230861'
S'Aftab Alam'
tp266
a(S'652989673'
S'Faiz Ahmad'
tp267
a(S'1609737915'
S'Waseem Raja'
tp268
a(S'100006174275414'
S'Imran Ahmad'
tp269
a(S'100002947256960'
S'Arun Kumar'
tp270
a(S'100003003292702'
S'Afroz Alam'
tp271
a(S'100001514243257'
S'Mumtaz Ahmad'
tp272
a(S'1362714413'
S'Arman Raza'
tp273
a(S'100006287767920'
S'Md Simab'
tp274
a(S'100003484768635'
S'Md Afjal'
tp275
a(S'100003306936106'
S'Kausar Nadeem'
tp276
a(S'100003294056219'
S'Shekh Kalam'
tp277
a(S'677551541'
S'Amjad Iqbal Khan'
tp278
a(S'100006458176070'
S'Afaq Akhtar'
tp279
a(S'1014186180'
S'Rafakat Khan'
tp280
a(S'100007194762968'
S'Samwad Ias'
tp281
a(S'1064774542'
S'Shamim Ahmad'
tp282
a(S'100000950913442'
S'Mansoor Ali'
tp283
a(S'100000766243625'
S'Zulfequar Ahmad'
tp284
a(S'1053280362'
S'Ranvijay Singh Satyaketu'
tp285
a(S'100005437231233'
S'Md Shakir'
tp286
a(S'100001967215475'
S'MD Tauseef Raza'
tp287
a(S'100002905446579'
S'Quadir Sailani'
tp288
a(S'100000346374320'
S'Syed Shahabuddin'
tp289
a(S'100001541340200'
S'Safdar Ali'
tp290
a(S'100004153774517'
S'Alim Akhter'
tp291
a(S'100003255686926'
S'Aftab Alam'
tp292
a(S'100000552668013'
S'Asif Ali'
tp293
a(S'100003268502350'
S'Asif Raza'
tp294
a(S'100003019108094'
S'Md Akbar Imam'
tp295
a(S'100000986575582'
S'Ejaz Ahmad'
tp296
a(S'100003521230785'
S'Tanweer Shaify'
tp297
a(S'1229140752'
S'Wakeel Ahmad'
tp298
a(S'100003605898644'
S'Zubair Ahmad'
tp299
a(S'100005342580381'
S'Amit Kumar Amit'
tp300
a(S'100001938171948'
S'Mushtaque Ahmed'
tp301
a(S'100002582172304'
S'Arvind Kumar'
tp302
a(S'100006948843961'
S'Md Nesar Ahmad'
tp303
a(S'100002696435836'
S'Jawed Akhter'
tp304
a(S'100007989394907'
S'Balram Kumar'
tp305
a(S'100005189204467'
S'Mohd Azhar'
tp306
a(S'100002364850978'
S'Asghar Imam Siddiqui'
tp307
a(S'100002078534394'
S'Alok Ranjan'
tp308
a(S'1556157104'
S'Perwez Ahmad'
tp309
a(S'100004135591070'
S'Md Rahimullah'
tp310
a(S'100002210324485'
S'Naushad Siddiqui'
tp311
a(S'100007406023627'
S'Md Firoz'
tp312
a(S'676566492'
S'Khurram Iqbal'
tp313
a(S'100005157942104'
S'Shaikh Sohrab'
tp314
a(S'100006500707160'
S'Raashid Hassan'
tp315
a(S'100004056401469'
S'Akbar Rasul'
tp316
a(S'100007941905716'
S'Jamia Islamia Faridululoom Bara'
tp317
a(S'1634875250'
S'Mohammad Fahim'
tp318
a(S'100001839103234'
S'Rashid Jamal'
tp319
a(S'100002016743512'
S'Madhuresh Singh'
tp320
a(S'1610160929'
S'Jawaid Alam'
tp321
asS'id'
p322
S'100003835326208'
p323
sS'name'
p324
S'Aftab Alam'
p325
s.