(dp1
S'friends'
p2
(lp3
(S'100001922145128'
S'Angel Ed'
tp4
a(S'100004113274622'
p5
S'Ghaffar Naaz'
tp6
a(S'100000900503880'
S'Sara Sousa'
tp7
a(S'100003846674167'
p8
S'Hameed Faraz'
tp9
a(S'1464620038'
S'Ayesha Saeed'
tp10
a(S'100004476274307'
p11
S'Tahir Jan'
tp12
a(S'100003055087672'
S'Mir Attaullah Khidrani'
tp13
a(S'100006092889619'
p14
S'Zahir Ali'
tp15
a(S'100004561513083'
p16
S'Nazeer Ahmed'
tp17
a(S'100001501969977'
S'Claudia Dos Santos'
tp18
a(S'100001737370061'
S'Aleeza Alvi'
tp19
a(S'100003248663414'
S'Manzoor Zehri'
tp20
a(S'100001151084720'
S'Marisa Casais'
tp21
a(S'100001499033503'
S'Rita Neiva'
tp22
a(S'100002905536305'
p23
S'Prince Atif Qalandrani'
tp24
a(S'100001735787254'
S'Filipa Braga'
tp25
a(S'100001424354461'
p26
S'Jahangeer Kurdish'
tp27
a(S'100001990104445'
S'Kriztine Urbano'
tp28
a(S'100003190122683'
S'Aziz Baloch Zehri'
tp29
a(S'100004926253380'
S'Nasir Mengal'
tp30
a(S'100000730644652'
S'Ayesha Abbas'
tp31
a(S'100001501159696'
S'Cristiana Rodrigues'
tp32
a(S'100008002201476'
S'Sana Bhai'
tp33
a(S'100003337257795'
S'Javid Mustafa'
tp34
a(S'100004679381493'
p35
S'Shahid Raza'
tp36
a(S'100007816923555'
S'Nasrullah Baloch'
tp37
a(S'100005603254418'
S'Abbas Hassni'
tp38
a(S'100001297407927'
S'Sana Qazi'
tp39
a(S'100000413487736'
S'Asad Khan'
tp40
a(S'100001299327889'
S'Arielly S\\u00e1'
tp41
a(S'100001871997717'
S'Mariana Pereira'
tp42
a(S'100003462835343'
S'Fabiana Campos'
tp43
a(S'100004389698983'
p44
S'Khalil Ahmed'
tp45
a(S'100003727371711'
p46
S'Aamir Hassni'
tp47
a(S'100000892519129'
S'In\\u00eas Monteiro'
tp48
a(S'100001951104527'
S'Zahid Hassani'
tp49
a(S'100001373713367'
S'Shereen Baloch'
tp50
a(S'100003000980680'
S'Nisar Ahmed'
tp51
a(S'100005482902686'
S'Ahmed Gidaan'
tp52
a(S'100001957676660'
S'Vera Ribeiro'
tp53
a(S'100005184223833'
p54
S'Nadia Wahab'
tp55
a(S'100001835173586'
S'Hina Kiran'
tp56
a(S'100000474230101'
S'T\\u00e2nia Alexandra'
tp57
a(S'100003138290485'
p58
S'Riaz M Hassani'
tp59
a(S'100002413502535'
S'Younus Mengal'
tp60
a(S'100001800573812'
S'Princess Ami'
tp61
a(S'100008316934375'
p62
S'Ibrahim Aryan Aryan Tanha'
tp63
a(S'100004443000076'
S'Tayyab Sangam'
tp64
a(S'100003779394312'
S'Fiza Gul'
tp65
a(S'100004744922275'
p66
S'Shoaib Hassni'
tp67
a(S'100002938822229'
S'Estff Santos'
tp68
a(S'100002049765627'
S'Tatiana Marques'
tp69
a(S'100005397999344'
S'Shahzad Hassan'
tp70
a(S'100004911131086'
S'Shakir Ajnabi'
tp71
a(S'100000645905733'
S'Maria Rodrigues'
tp72
a(S'100004366748545'
p73
S'Rasheed Hassni'
tp74
a(S'100001535477072'
S'Vana Silva'
tp75
a(S'100007740614375'
S'Jhalawan Fc Khuzdar'
tp76
a(S'100000905019935'
S'Ana Rita Carvalho'
tp77
a(S'100001632838089'
S'RaNi XhAn'
tp78
a(S'100002799798123'
p79
S'Baba Hassani'
tp80
a(S'100003478761011'
S'In\\u00eas Lopes'
tp81
a(S'100001579523255'
S'Jessica Figueiredo'
tp82
a(S'100004887612652'
S'Zafar Diamond'
tp83
a(S'100000604949125'
S'Iqra Shah'
tp84
a(S'100007663602601'
S'Nida Shaikh'
tp85
a(S'100004902873303'
p86
S'Ghaus Bakhsh Mengal'
tp87
a(S'100001659336110'
S'Naveed Rock'
tp88
a(S'100003893023979'
S'Javid Sasoli'
tp89
a(S'100002579011225'
S'Munir Baloch'
tp90
a(S'100002359832895'
S'Naaz Mardoi'
tp91
a(S'100004411302601'
p92
S'Amin Nadeem'
tp93
a(S'100001023015390'
S'Isa Araujo'
tp94
a(S'100000821164636'
S'Alpna Saini'
tp95
a(S'100004315510526'
p96
S'Jawad Ali'
tp97
a(S'1358334008'
S'Ana Pereira'
tp98
a(S'100005438647904'
S'Natashah Livhuwani'
tp99
a(S'100001275386474'
S'Amna Ahmad'
tp100
a(S'100008178065724'
p101
S'Shahid Sangat'
tp102
a(S'100004924897678'
S'Wahid Jhalawan'
tp103
a(S'1152416552'
S'Kabaka Gery'
tp104
a(S'100003354090417'
p105
S'Prince Shahdeen'
tp106
a(S'100002000440469'
S'Adriana Carvalho'
tp107
a(S'100004071850175'
S'Arif Jhalawan'
tp108
a(S'100002115236536'
S'Shahjahan Moosiani'
tp109
a(S'100003989903776'
S'Fiza Baloch'
tp110
a(S'100000261983364'
S'Nadia Ali'
tp111
a(S'100002856144368'
S'Danish Faraz'
tp112
a(S'100000218034971'
S'Daniela Pinto'
tp113
a(S'100001711280525'
S'Catia Paiva'
tp114
a(S'100001894880759'
S'Atiqa Odho'
tp115
a(S'100007485842511'
S'Akthar Shah Gidaan'
tp116
a(S'1481548045'
S'Ganga Dubey'
tp117
a(S'100005814451836'
S'Babul Hassni'
tp118
a(S'1057874222'
S'Sana Khan'
tp119
a(S'100001940973583'
S'Lyn Desapor Gano'
tp120
a(S'100001679251635'
S'Aurang Zaib Mousianii'
tp121
a(S'100002362643498'
S'MK Mengal'
tp122
a(S'100002010170212'
S'Sumera Hussan'
tp123
a(S'100002307559143'
S'Agha Jan'
tp124
asS'id'
p125
S'100005603161316'
p126
sS'name'
p127
S'Sangat Salam Baloch'
p128
s.