(dp1
S'friends'
p2
(lp3
(S'100004047484827'
S'Rizwan Ahmad'
tp4
a(S'100000914291734'
S'Wafa Rahmati'
tp5
a(S'100007638124295'
S'Muhammad Anwar'
tp6
asS'id'
p7
S'100000914291734'
p8
sS'name'
p9
S'Wafa Rahmati'
p10
s.