(dp1
S'friends'
p2
(lp3
(S'100005127702934'
S'Pradeep Kumar Sah'
tp4
a(S'100003519868508'
S'Uma Kumar'
tp5
a(S'100005419448311'
S'Surya Ramamoorthy'
tp6
a(S'100003089295169'
S'Pradeep Kumar Verma'
tp7
a(S'100002311094576'
S'Vinod Pal'
tp8
a(S'100002199066141'
S'Manoj Yadav'
tp9
a(S'100004272912200'
S'Poonam Verma'
tp10
a(S'100007974100003'
S'Chiku Kumar'
tp11
a(S'100001270790070'
S'Mukesh Kumar'
tp12
a(S'100000199829383'
S'Neethu Prasanth'
tp13
a(S'100001396094602'
S'Akash Goswami'
tp14
a(S'100003058270088'
S'Saurabh Kumar'
tp15
a(S'100003653718770'
S'Ancey Varghese'
tp16
a(S'100001489814246'
S'Arun Kumar'
tp17
a(S'100001739799091'
S'Honey Aish'
tp18
a(S'100005191924052'
S'Nahid Khan'
tp19
a(S'1335045110'
S'Manuel Amalraj Kagoo'
tp20
a(S'100000666746574'
S'Kamal Singha'
tp21
a(S'100002670462934'
S'Akanksha Singh'
tp22
a(S'100008178611959'
S'Puja Rani'
tp23
a(S'100001265909190'
S'Elizabeth Antony'
tp24
a(S'100001065535978'
S'Anubhuti Pandey'
tp25
a(S'100003022528043'
S'Priya Rani'
tp26
a(S'100000958973108'
S'Ravi Prasad'
tp27
a(S'100006313180852'
S'Neha Singh'
tp28
a(S'100003148759992'
S'Subhash Kumar Mehta'
tp29
a(S'100001958644798'
S'Sunil Solanki'
tp30
a(S'100001390454831'
S'Guddu Prasad'
tp31
a(S'100003673145164'
S'Naaz Khan'
tp32
a(S'100003779055480'
S'Ashish Kumar'
tp33
a(S'100003134096129'
S'Gawrav Mehta'
tp34
a(S'100001287513326'
S'Prateek Chandra'
tp35
a(S'100000448626825'
S'Maria Antony'
tp36
a(S'100000743939011'
S'Ranjana Thakur'
tp37
a(S'100002826271191'
S'Anuj Kr Pathak Pappu'
tp38
a(S'100001978140346'
S'Pushpa Raj'
tp39
a(S'100000412772949'
S'Niggitha John'
tp40
a(S'100005496812020'
S'Naziya Anjum'
tp41
a(S'100006835032553'
S'Smita Verma'
tp42
a(S'100002370142355'
S'Manas Kumar'
tp43
a(S'100000329837959'
S'Preeti Kumari'
tp44
a(S'100002439002695'
S'Vinoth Chinn'
tp45
a(S'1457233532'
S'Prasenjit Paul'
tp46
a(S'100000042065547'
S'L Abhay Kumar Suman'
tp47
a(S'100001165462495'
S'Vivek Kotti'
tp48
a(S'100001947551446'
S'Sanjith Kumar'
tp49
a(S'100000710638342'
S'Sidharth Kumar'
tp50
a(S'100001622660411'
S'Saju Delphin'
tp51
a(S'100000600871268'
S'Ambalika Das'
tp52
a(S'100002182691736'
S'Mithlesh Kumar'
tp53
a(S'100004407905882'
S'Vipin Kumar'
tp54
a(S'100005705100375'
S'Shiny Raj'
tp55
a(S'1656746915'
S'Tamil Selvan'
tp56
a(S'100002566357759'
S'Surabhi Priya'
tp57
a(S'100001589342247'
S'Navya Abhilash'
tp58
a(S'100001421328789'
S'Medha Jaiswal'
tp59
a(S'100001174066679'
S'Ashish Kumar'
tp60
a(S'100002728603470'
S'Ranjeeta Prasad'
tp61
a(S'100005601902792'
S'Shyma Shahid'
tp62
a(S'100001408759876'
S'Minu Singh'
tp63
a(S'100002457042566'
S'Ashu Akela'
tp64
a(S'100001759689312'
S'Rohit Kumar Gautam'
tp65
a(S'100001427574418'
S'Shilpa Maitra'
tp66
a(S'100005155688789'
S'Simi Jene'
tp67
a(S'100001442504786'
S'Monika Sinha'
tp68
a(S'100003323021944'
S'Anchal Kumari'
tp69
a(S'100003603583676'
S'Ark Raj'
tp70
a(S'100002544113718'
S'Praveen Mani'
tp71
a(S'100003126165817'
S'Sonam Kumari'
tp72
a(S'100004648360405'
S'Neha Kumari'
tp73
a(S'100003268126615'
S'Mary Shalini'
tp74
a(S'100001192232829'
S'Prashant Kumar'
tp75
a(S'100000660624086'
S'Pulak Choudhury'
tp76
a(S'100002476144873'
S'Rakesh Gupta'
tp77
a(S'100001681183272'
S'Subhash Singh'
tp78
a(S'100003150396971'
S'Sarita Pathak'
tp79
a(S'100003243034831'
S'Shaswat Gagan'
tp80
a(S'100000757244984'
S'Pawan Kishore'
tp81
a(S'100002785306266'
S'Prerna Verman'
tp82
a(S'100000087232420'
S'Ankit Kumar'
tp83
a(S'100001837384297'
S'Sudha Khushi'
tp84
a(S'100002594985208'
S'Ajeet Kamal Yadav'
tp85
a(S'100001691204637'
S'Vishwanath Cool'
tp86
a(S'100005044592995'
S'Rey Kutty'
tp87
a(S'100001942909007'
S'Anjali Priya'
tp88
a(S'1490443405'
S'Abby Dutta'
tp89
a(S'100007673913775'
S'Nilam Nilu'
tp90
a(S'100003303259236'
S'Reshma Bhattacharya'
tp91
a(S'100000986870453'
S'Sangeeta Sen'
tp92
a(S'100002663031859'
S'Bhagya Nirmala'
tp93
a(S'100003266412125'
S'Sanjay Giri'
tp94
a(S'100001789455834'
S'Anand Udhas'
tp95
a(S'100001736418387'
S'Xavier Jaganathan'
tp96
a(S'100002587543685'
S'Ranjit Kumar Verma'
tp97
a(S'100004801596343'
S'Renu Kumari'
tp98
a(S'100003004041269'
S'Shippa Tadas'
tp99
a(S'100002690682326'
S'Anju Krishnan'
tp100
a(S'100004006153401'
S'Nishi Kumari'
tp101
asS'id'
p102
S'100002065840520'
p103
sS'name'
p104
S'Payal Akriti'
p105
s.