(dp1
S'friends'
p2
(lp3
(S'100005045354256'
p4
S'\\u0635\\u062f\\u06cc\\u0642\\u0647 \\u062d\\u0633\\u06cc\\u0646\\u06cc'
tp5
a(S'100001647740031'
S'Shams Baryal'
tp6
asS'id'
p7
S'100001647740031'
p8
sS'name'
p9
S'Shams Baryal'
p10
s.