(dp1
S'name'
p2
S'Shyamsundar Keshkamat'
p3
sS'current_class'
p4
S'india'
p5
sS'home_class'
p6
Vbelgaum, karnataka, india
p7
sS'home_text'
p8
VBelgaum\u000aHometown
p9
sS'current_link'
p10
Vhttps://www.facebook.com/l.php?u=https%3A%2F%2Fwww.bing.com%2Fmaps%2Fdefault.aspx%3Fv%3D2%26pc%3DFACEBK%26mid%3D8100%26where1%3D19.200000628584%252C%2B72.965698242188%26name%3DThane%26mkt%3Den-IN&h=6AQHWjr0r&s=1
p11
sS'home_link'
p12
Vhttps://www.facebook.com/l.php?u=https%3A%2F%2Fwww.bing.com%2Fmaps%2Fdefault.aspx%3Fv%3D2%26pc%3DFACEBK%26mid%3D8100%26where1%3D15.866700807765%252C%2B74.499664306641%26name%3DBelgaum%26mkt%3Den-IN&h=yAQFm4MfZ&s=1
p13
sS'current_text'
p14
VThane\u000aCurrent City
p15
sS'friends'
p16
(lp17
(S'5744345'
S'Ravi Kiran'
tp18
a(S'100002039472218'
S'Snehal Sole'
tp19
a(S'100002410395875'
S'Ashwini Joshi'
tp20
a(S'100003887014780'
S'Akshay Birhade'
tp21
a(S'1122257204'
S'Rama Kumar'
tp22
a(S'100000508003686'
S'Medha Keshkamat'
tp23
a(S'1024341439'
S'Vinay Sinha'
tp24
a(S'1724600839'
S'Narayana Sharma'
tp25
a(S'1510275778'
S'Usha Narayan'
tp26
a(S'1209321011'
S'Kumud C P Patnaik'
tp27
a(S'100001904876257'
S'Anusha Khurana'
tp28
a(S'100005248953780'
S'Imral Hussain Sheikh Karol'
tp29
a(S'834637519'
S'Hari Rao'
tp30
a(S'100002125983950'
S'Lal Chand'
tp31
a(S'1613414529'
S'Vivek Batra'
tp32
a(S'100003067442077'
S'Nanda Kamat'
tp33
a(S'1064547969'
S'Amitabh Kumar'
tp34
a(S'1530677052'
S'Yeshwant Kittur'
tp35
a(S'100000721954359'
S'Ysudhakara Sharma'
tp36
a(S'100000463313475'
S'Anil P. Chaware'
tp37
a(S'1729609599'
S'Reddy Rv'
tp38
a(S'100003170054354'
S'Meghana Chaphalkar'
tp39
a(S'100004146700114'
S'Prabha Bhat'
tp40
a(S'678921450'
S'Mini Verma'
tp41
a(S'1740521643'
S'Charanjeet Singh Gulati'
tp42
a(S'100000899026455'
S'Srikant Virgincar'
tp43
a(S'100000479264011'
S'Satinder Rana'
tp44
a(S'100004279236040'
S'Jayakumar Balivada'
tp45
a(S'1107802857'
S'Amol Kamat'
tp46
a(S'100000417199565'
S'Gangadhar Panda'
tp47
a(S'100002071589267'
S'Rajiv Chavan'
tp48
a(S'652998347'
S'Chandrajit Singh'
tp49
a(S'1581316661'
S'Konda Ramesh'
tp50
a(S'100001404851032'
S'Ganesh Siriki'
tp51
a(S'1044641886'
S'Krishna Kishore Jasthi'
tp52
a(S'1015676253'
S'Joe Sebastian'
tp53
a(S'100004286200984'
S'Rajeev Hattarki'
tp54
a(S'100002452939857'
S'Jawwad Khan'
tp55
a(S'100000881793047'
S'Malti Subhedar'
tp56
a(S'100000496399312'
S'Varsha Khanolkar'
tp57
a(S'1468440651'
S'Deepak Sanchety'
tp58
a(S'100000229933198'
S'Rakhi Keshkamat Khanolkar'
tp59
a(S'1658827438'
S'Shravan Kumar'
tp60
a(S'731987354'
S'Rajiv Nabar'
tp61
a(S'100000423148631'
S'Devesh Vasavada'
tp62
a(S'100002961224242'
S'Ganesh Khaded'
tp63
a(S'100003111706519'
S'Ajay Borkar'
tp64
a(S'100001162664475'
S'Shishir Dhamija'
tp65
a(S'100001502948444'
S'Nandan Aigal'
tp66
a(S'1180930569'
S'Amit Singh'
tp67
a(S'100002607984412'
S'Renga Raj'
tp68
a(S'1605216153'
S'Vinod Kumar Pandey'
tp69
a(S'100002329029426'
S'Neeta Mangeshkar'
tp70
a(S'655809884'
S'Ravichandran Ramasamy'
tp71
a(S'100004339441697'
S'Shivarudraiah Swamy'
tp72
a(S'780190706'
S'Ram Mohan Tiwari'
tp73
a(S'100002779621951'
S'DrDipak Ripote'
tp74
a(S'1246428984'
S'Gopal Dhal'
tp75
a(S'100000094640701'
S'Dinesh Singh'
tp76
a(S'1614606292'
S'Krishna Mohan Prasad'
tp77
a(S'1577889574'
S'Ajay Pandey'
tp78
a(S'1353427847'
S'Sumitra Banerji'
tp79
a(S'100000821056235'
S'Ramaswamy Sastry'
tp80
a(S'1598071299'
S'Durgesh Sumrott'
tp81
a(S'1577439466'
S'Pankaj Kr'
tp82
a(S'100003808518806'
S'Ravi Ramachandran'
tp83
a(S'100000653884006'
S'Gc Srivastava'
tp84
a(S'100004795170861'
S'Anant-jayant Khasnis'
tp85
a(S'1569571220'
S'Naval Kapoor'
tp86
a(S'1808244713'
S'Keshava Kumar H S'
tp87
a(S'100000428966758'
S'Kalika Singh'
tp88
a(S'100001249132013'
S'Sandip Pradhan'
tp89
a(S'100001971080197'
S'Niraj Bansal'
tp90
a(S'100002178840455'
S'Neeraj Bansal'
tp91
a(S'100001429777341'
S'Priti Patnaik'
tp92
a(S'100003175878130'
S'Gurudas Parsekar'
tp93
a(S'1241898173'
S'Sunil Kumar'
tp94
a(S'100001198560222'
S'Ramchandra Dure'
tp95
a(S'1120697074'
S'Rakesh Gupta'
tp96
a(S'1532139990'
S'Anshu Shukla Pandey'
tp97
a(S'100000901437387'
S'Sudhakara Rao Dirisam'
tp98
a(S'662633310'
S'Jahanzeb Akhtar'
tp99
a(S'750462361'
S'Mala Paropkari'
tp100
a(S'738539735'
S'Deepak Tralshawala'
tp101
a(S'1503135308'
S'Kalpalata Rajan'
tp102
a(S'1478602987'
S'Samuel Darse'
tp103
a(S'574647373'
S'Divya Bajpai'
tp104
a(S'1216435107'
S'Rajeev Ranade'
tp105
a(S'100000670415055'
S'Prakash H Adnur'
tp106
a(S'100001495434431'
S'Merwyn Paes'
tp107
a(S'1626159715'
S'Anurag Sahay'
tp108
a(S'1188851368'
S'Sahu Sp'
tp109
a(S'100001908473945'
S'Keshav Bhende'
tp110
a(S'100003615534644'
S'Minal Buch'
tp111
a(S'100001279991070'
S'Bharat Pandya'
tp112
a(S'100000196914196'
S'Yash Keshkamat'
tp113
a(S'1003793720'
S'Paramjeet Singh'
tp114
a(S'1417767463'
S'Renuka Jaingupta'
tp115
a(S'100000280374252'
S'Anand Upadhyay'
tp116
a(S'844052942'
S'Ajit Kumar Jain'
tp117
a(S'1490490599'
S'Rahul Navin'
tp118
a(S'797241958'
S'Sumedha Verma Ojha'
tp119
a(S'1356523648'
S'Subashree Anantkrishnan'
tp120
a(S'100001838326861'
S'Pranab Kumar Das'
tp121
a(S'1407826336'
S'P Soma Shekar Reddy'
tp122
a(S'704998225'
S'Rajeev Harit'
tp123
a(S'1340746858'
S'Urvashi Saxena'
tp124
a(S'100000671967433'
S'Anurag Prasad'
tp125
a(S'100001554428791'
S'Pankaj Kalashikar'
tp126
a(S'100002108555029'
S'Suresh Babu'
tp127
a(S'100001377654673'
S'Dharm Vir Singh'
tp128
a(S'1642054170'
S'Sangam Bailoor'
tp129
a(S'100001007838792'
S'Jyoti Kembhavi Tanksali'
tp130
a(S'713170827'
S'Shahid Khan'
tp131
a(S'1595192653'
S'Sibichen Mathew'
tp132
a(S'100001312487387'
S'Sujay Shah'
tp133
a(S'100005212330914'
S'Srihari Pk'
tp134
a(S'554863952'
S'G.Shanker Phani Kishore'
tp135
a(S'1568611356'
S'Sandeep Dahiya'
tp136
a(S'789468621'
S'Arun S Bhatnagar'
tp137
a(S'100001507493654'
S'Ips Bindra'
tp138
a(S'100000242864679'
S'Subhash Reddy'
tp139
a(S'1280276712'
S'Jayaram Raipura'
tp140
a(S'826084828'
S'Ashima Neb'
tp141
a(S'1379745728'
S'Ashok Kardam'
tp142
a(S'100001398024305'
S'Shivani Kamat'
tp143
a(S'1010480447'
S'Raja Sekhar Reddy'
tp144
a(S'704582193'
S'Kunal Madhukar'
tp145
a(S'100001183672494'
S'Sridhar Tnc'
tp146
a(S'1325319960'
S'Brahma Prakash Gaur'
tp147
a(S'100000222031768'
S'Mangesh Deshpande'
tp148
a(S'100005210773103'
S'Devadasan Pn'
tp149
a(S'100005403307015'
S'Upendra Singh'
tp150
a(S'100000464842439'
S'Mekathoti Dayasagar'
tp151
a(S'100002917184997'
S'Kiran S. Patil'
tp152
a(S'753533249'
S'P. Vinay Kumar'
tp153
a(S'100002334404465'
S'Harsh Keshkamat'
tp154
a(S'647378301'
S'Ashutosh Rajhans'
tp155
a(S'100000984780961'
S'Shrikant Ambastha'
tp156
a(S'648551536'
S'Munesh Kumar'
tp157
a(S'100001622109631'
S'Parashivaiah Kullaiah'
tp158
a(S'1582472935'
S'Vatsalya Saxena'
tp159
a(S'100003029195850'
S'Virendra Ojha'
tp160
a(S'1187148335'
S'Yogesh Kamat'
tp161
a(S'100001726804562'
S'Leena Srivastava'
tp162
a(S'100000948156941'
S'Praveen Pushkar'
tp163
a(S'100005140624541'
S'Shailesh Dubhashi'
tp164
a(S'1782273813'
S'Deepa Prem'
tp165
a(S'1441454060'
S'Dinesh Sawkmie'
tp166
a(S'1785805523'
S'Abha Singh'
tp167
a(S'1420890721'
S'Om Prakash Kant'
tp168
a(S'100000107628946'
S'Bhim Singh'
tp169
a(S'1366392760'
S'Swaranjeet Singh'
tp170
a(S'100000260058478'
S'Mahendra Jituri'
tp171
a(S'1542167963'
S'Mohit Jain'
tp172
a(S'100000603751164'
S'Shrinivas Pethkar'
tp173
a(S'100002362658663'
S'Selvaganesh Puvaneswaran'
tp174
a(S'100001449590444'
S'Garima Jain'
tp175
a(S'1489680635'
S'Niraj N. Kumar'
tp176
a(S'585279194'
S'Dinesh Naik'
tp177
a(S'1115496790'
S'Amrita Ranjan'
tp178
a(S'1040277860'
S'Nrusingh Swain'
tp179
a(S'1496400927'
S'Shyam Benupani'
tp180
a(S'1292688629'
S'Neeraj Kumar'
tp181
a(S'1093426958'
S'Deepak Tiwari'
tp182
a(S'575699425'
S'Satendra Kumar Bhatnagar'
tp183
a(S'1225126470'
S'Dhirendra Mishra'
tp184
a(S'100001941860324'
S'Bhaskar Goswami'
tp185
a(S'1767414678'
S'Sushil Kumar'
tp186
a(S'1333990809'
S'Tca Kalyaani'
tp187
a(S'1508636113'
S'Sunita Billa'
tp188
a(S'1079950134'
S'Manu Malik'
tp189
a(S'100001369974012'
S'Sujata Keshkamat'
tp190
a(S'1013367677'
S'Anandarajan Vee'
tp191
a(S'100001209219937'
S'Uday Hardikar'
tp192
a(S'1588269386'
S'Ajay Chandra'
tp193
a(S'100000591004974'
S'Nikhil Choudhary'
tp194
a(S'100000159486283'
S'Ashok Jha'
tp195
a(S'738339999'
S'Pathlavath Peerya'
tp196
a(S'625348728'
S'Devpreet Singh'
tp197
a(S'100002435633700'
S'Neha Adhyapak'
tp198
a(S'1061764312'
S'Manish Mishra'
tp199
a(S'1470984793'
S'Devi Sharan Singh'
tp200
a(S'839654303'
S'Poonam Khaira Sidhu'
tp201
a(S'1608699390'
S'Amrita Misra'
tp202
a(S'100002624229511'
S'Malyadri Sriram'
tp203
a(S'100000980607480'
S'Suresh Satapathy'
tp204
a(S'100001496624325'
S'Shrirang Deshpande'
tp205
a(S'1599631281'
S'Shyamsundar Keshkamat'
tp206
a(S'1009712369'
S'Sanjay Kumar'
tp207
a(S'100000055052127'
S'Sunil Kumar Singh'
tp208
a(S'1428332344'
S'Laxmi Narayan Pant'
tp209
a(S'1632931953'
S'Mudit Nagpal'
tp210
a(S'1592435991'
S'Gautam Mandal'
tp211
a(S'1415598660'
S'Sunil Ojha'
tp212
a(S'590153464'
S'Rolee Agarwal'
tp213
a(S'100003405411078'
S'Yogesh More'
tp214
a(S'100001238804568'
S'Medisetti Tirumala Kumar'
tp215
a(S'100000025192489'
S'Pritam Singh'
tp216
a(S'100005624472251'
S'Preeta Harit'
tp217
a(S'703621333'
S'Rajeev Harit'
tp218
a(S'1140524850'
S'Sanjeev Singh'
tp219
a(S'100000150831103'
S'Ritesh Parmar'
tp220
a(S'744478729'
S'Rajeev Harit'
tp221
a(S'1050391968'
S'Satish Purushan'
tp222
a(S'1548605393'
S'Satish Sharma'
tp223
a(S'100000033145191'
S'Sanjay Ramniklal Mehta'
tp224
a(S'1014527879'
S'Anadee Nath Misshra'
tp225
a(S'1496555685'
S'Ann Kapthuama Kale'
tp226
a(S'100001222971399'
S'Shradha Keshkamat'
tp227
a(S'100002917142118'
S'Purushottam Kashyap'
tp228
a(S'100000134767727'
S'Perumal Rajendran'
tp229
a(S'100007126321908'
S'Brajesh Kumar Singh'
tp230
a(S'1156017995'
S'Sushil Madhuk'
tp231
a(S'619897533'
S'Srinivas Khanna'
tp232
a(S'100002504291271'
S'Mahendra Kulkarni'
tp233
a(S'100002196628441'
S'Ethiraj Jayaraj'
tp234
a(S'1587991248'
S'Virendra Ojha'
tp235
a(S'100004987026744'
S'Laxmidas Pai'
tp236
a(S'100002143757740'
S'Ramesh Danday'
tp237
a(S'1621212543'
S'Yk Dixit'
tp238
a(S'100000619491617'
S'Milind Bhusari'
tp239
a(S'1060875400'
S'Mangesh Saraf'
tp240
a(S'100002920108684'
S'Vijaylaxmi Vivek Prabhu'
tp241
a(S'100003483310867'
S'Gsd Babu'
tp242
a(S'100002414536204'
S'Gangadhar Belagali'
tp243
a(S'1818756885'
S'Karunakara Rao Dasari'
tp244
a(S'100002339179705'
S'Anuja Divekar'
tp245
a(S'100000394166644'
S'Veerappalam Mahalingam'
tp246
a(S'100001584586028'
S'Rajendra Prasad B B'
tp247
a(S'1011548334'
S'Surendra Kumar'
tp248
a(S'1768257123'
S'Rashmita Jha'
tp249
a(S'852935248'
S'Amol Kirtane'
tp250
a(S'1128884781'
S'Rahul Moghe'
tp251
a(S'100004059594102'
S'Jagdish Angolkar'
tp252
a(S'1283578648'
S'Shalini Bhargava Kaushal'
tp253
a(S'1017189138'
S'Sandeep C Giriyal'
tp254
a(S'1069321080'
S'Melattur Vishwanathan Bhanumathi'
tp255
a(S'100002178443816'
S'Abhishek Kamat'
tp256
a(S'1090457076'
S'Susie Varghese'
tp257
a(S'100000071808940'
S'Banita Naorem'
tp258
a(S'100000001180862'
S'Vikram Sankhala'
tp259
a(S'729990414'
S'Sk Singh'
tp260
a(S'1033098215'
S'Alok Ojha'
tp261
a(S'1311446659'
S'Sant Mantri'
tp262
a(S'100007424647737'
S'Nilima Mansukhani'
tp263
a(S'100001296017510'
S'Mukesh Raval'
tp264
a(S'100006433170964'
S'Shailendra Mohite'
tp265
a(S'100000048420436'
S'Rohit Keshkamat'
tp266
a(S'100000450824124'
S'Hitesh Shah'
tp267
a(S'100000167159158'
S'Sujatha Narendra'
tp268
a(S'100002550643494'
S'Ram Khanolkar'
tp269
a(S'1820434453'
S'Omkar Khasnis'
tp270
a(S'1481021910'
S'Nagabhushana Maravanthe'
tp271
a(S'100001793541481'
S'Vibha Adhyapak'
tp272
a(S'1767411551'
S'Sonali Karvir'
tp273
a(S'1082145714'
S'Shantanu Ghosh'
tp274
a(S'1218107595'
S'Arun C. Bharat'
tp275
a(S'100000012660872'
S'Srinivasulu Hanumanthgari'
tp276
a(S'100000109224139'
S'Ulhas Trimal'
tp277
a(S'1844194497'
S'Satya Prasant P'
tp278
a(S'1011872859'
S'Madhu Wadhawan Sinha'
tp279
a(S'100000075752601'
S'Dhirendra Kumar Jha'
tp280
a(S'1078681709'
S'Chetan Jain'
tp281
a(S'1669722507'
S'Vijaya Bhasker'
tp282
a(S'1029713428'
S'Sandip Garg'
tp283
a(S'100001289213881'
S'Meera Malegaonkar'
tp284
a(S'100001275327786'
S'Rajneesh Arvind'
tp285
a(S'100000052916184'
S'Kiran Porwal'
tp286
a(S'1545349799'
S'Munindra Mohan Das'
tp287
a(S'100000040647675'
S'C R Sekhar Reddy'
tp288
a(S'1502876708'
S'Kannan Ramakrishnan'
tp289
a(S'1325190196'
S'Rajeev P Singh'
tp290
a(S'1325143421'
S'Rangnath Jha'
tp291
a(S'555812484'
S'Sanjay Bahadur'
tp292
a(S'1112834612'
S'Rabi Narayan Dash'
tp293
a(S'1658229521'
S'Narayana Kadamalakunte'
tp294
a(S'100001512020141'
S'Manjeshwara Sathyanarayana Bhat'
tp295
a(S'1213292358'
S'Anand Baiwar'
tp296
a(S'100000051174510'
S'Suresh Battini'
tp297
a(S'100002904670562'
S'Satish Goyal'
tp298
a(S'100001313721150'
S'Ayesha Bala'
tp299
a(S'1057808456'
S'Ramesh Narain Parbat'
tp300
a(S'100000429862389'
S'Vidyadhar Malegaonkar'
tp301
a(S'1294811900'
S'Naren Jangpangi'
tp302
a(S'100000826295855'
S'Nilesh Patel'
tp303
a(S'100002094692507'
S'Nagaraj Anklekar'
tp304
a(S'100001197196538'
S'Gini Roy'
tp305
a(S'1498724871'
S'Nitin Diwakar'
tp306
a(S'1465966631'
S'Sunil Bajpai'
tp307
a(S'566448852'
S'Debjyoti Das'
tp308
a(S'1351275734'
S'Prem Chandra Maurya'
tp309
a(S'100002272892059'
S'Surabhi Ahluwalia'
tp310
a(S'100001112581122'
S'Shefali Juneja'
tp311
a(S'688072801'
S'Sameer Sharma'
tp312
a(S'100000265578094'
S'\\u0938\\u0932\\u093f\\u0932 \\u0905\\u0939\\u093f\\u0930\\u0947'
tp313
a(S'100005129562951'
S'Aarti Deshpande'
tp314
a(S'1181884886'
S'Pradeep Krishnannair'
tp315
a(S'100001130414357'
S'Swatantra Kumar'
tp316
a(S'1277236948'
S'Ansuman Pattnaik'
tp317
a(S'1455229897'
S'Sunil Kumar Singh'
tp318
a(S'100003003270589'
S'Varaprasad Padmaraj'
tp319
a(S'1525831233'
S'Tajinder Pal Singh'
tp320
a(S'1800791604'
S'Ashok Kumar Handa'
tp321
a(S'100005194145384'
S'Shantadurga Travels'
tp322
a(S'100001941697014'
S'Chandani Shivkamat'
tp323
a(S'1560152644'
S'Niranjan Kamat'
tp324
a(S'100002588226238'
S'Ishtiyaque Ahmed'
tp325
a(S'100000781570298'
S'Mayank Priyadarshi'
tp326
a(S'1565960126'
S'Bhavna Chohda Yashroy'
tp327
a(S'100001282408277'
S'Rajesh K. Gupta'
tp328
a(S'1609951241'
S'Vidhu Shekher Singh'
tp329
a(S'572793560'
S'Zakir Thomas'
tp330
a(S'100002963312642'
S'Sachin Kulkarni'
tp331
a(S'705003987'
S'Tushar Dhawal Singh'
tp332
a(S'100000009918969'
S'Aditya Sole'
tp333
a(S'780843935'
S'Ashish Abrol'
tp334
a(S'100001448833652'
S'Sham Vartikar'
tp335
a(S'1762016654'
S'Manjunath Karkihalli'
tp336
a(S'100000828944856'
S'John Langstieh'
tp337
a(S'1079453739'
S'Karun K Ojha'
tp338
a(S'100000316006534'
S'Yogesh Verma'
tp339
a(S'100000750502328'
S'Kumar GN'
tp340
a(S'100003039724219'
S'Shreedhar Lokur'
tp341
a(S'100000813233702'
S'Jasbir Chouhan'
tp342
a(S'707279394'
S'Mahua Sarkar'
tp343
a(S'100002020612984'
S'Chandraprakash Saroj'
tp344
a(S'100003625876964'
S'Benu Pani'
tp345
a(S'1288876382'
S'Jagadish Irs'
tp346
a(S'534107892'
S'Amrapalli Das'
tp347
a(S'100001963035825'
S'Gm Doss'
tp348
a(S'1668777333'
S'Sangam Srivastava'
tp349
a(S'1340474143'
S'Prasad Reddy'
tp350
a(S'633209247'
S'Vineet Agrawal'
tp351
a(S'1742761483'
S'Sanjay Kumar'
tp352
a(S'100004684922051'
S'Girish Sharma'
tp353
a(S'1567385476'
S'Yagya Dutt Sharma'
tp354
a(S'100001956117610'
S'Subhakant Sahu'
tp355
a(S'1827947545'
S'Rakesh Kumar Paliwal'
tp356
a(S'738245834'
S'Abhay Damle'
tp357
a(S'100000328975078'
S'LK Agarwal'
tp358
a(S'100002942053555'
S'Amol Tillu'
tp359
a(S'100003886209503'
S'Chandrakumar KA'
tp360
a(S'543760762'
S'Anand Kumar Kedia'
tp361
a(S'1412190924'
S'Somogyan Pal'
tp362
a(S'600744749'
S'Shweta Jadhav'
tp363
a(S'1480530641'
S'Sree Kar'
tp364
a(S'100003867079745'
S'Narottam Mishra'
tp365
a(S'100001438657973'
S'Debashis Chanda'
tp366
a(S'100000214695551'
S'Komal Jogpal'
tp367
a(S'100002628310148'
S'Vivek Wadekar'
tp368
a(S'546631509'
S'Ashok Mittal'
tp369
a(S'766719488'
S'Ajay Srivastava'
tp370
a(S'1088921332'
S'Sangram R Gaikwad'
tp371
a(S'100001180201201'
S'Uday Kumaran'
tp372
a(S'1382030644'
S'Tirunellai Narayanan Srividya'
tp373
a(S'100001356223146'
S'Rajeev Soham'
tp374
a(S'100000027444269'
S'Naveen Gupta'
tp375
a(S'100000481764816'
S'Prakash Shetty'
tp376
a(S'100000216930960'
S'Rupinder Pannu Brar'
tp377
a(S'1137571482'
S'Uma Shankar Dhyani'
tp378
a(S'686828266'
S'Tarun Seem'
tp379
a(S'100000498225700'
S'Vaibhav Kulkarni'
tp380
a(S'1427071599'
S'Ashok Bal'
tp381
a(S'100000546766803'
S'Shashidhar Shet'
tp382
a(S'1429687451'
S'Neeraj Kumar'
tp383
a(S'100000430337572'
S'Manish Kapoor'
tp384
asS'id'
p385
S'100000593772952'
p386
s.