(dp1
S'friends'
p2
(lp3
(S'100005015794087'
S'\\u0645\\u06cc\\u0646\\u0647 \\u0648\\u0641\\u0627'
tp4
a(S'100005152630699'
S'\\u0631\\u0648\\u0645\\u0627\\u0646\\u064a \\u0627\\u0644\\u0627\\u0633\\u064a\\u0648\\u0637\\u064a'
tp5
a(S'100002129730888'
S'\\u0639\\u0645\\u0631 \\u0634\\u0631\\u064a\\u0641'
tp6
a(S'100003325421757'
S'Eid Asghar Afridi'
tp7
a(S'100000629523686'
S'Angela Stiena'
tp8
a(S'100005075740686'
S'Play Boy'
tp9
asS'id'
p10
S'100000629523686'
p11
sS'name'
p12
S'Angela Stiena'
p13
s.