(dp1
S'friends'
p2
(lp3
(S'100002764302679'
S'Hajra Awan'
tp4
a(S'100003989031251'
S'Sana Voip'
tp5
a(S'100003188867981'
S'Khalid Ali'
tp6
a(S'100004984629991'
S'King Baig'
tp7
a(S'100002528225402'
S'Ayaz Pathaan'
tp8
a(S'100003424736122'
S'Faryal Azem'
tp9
a(S'100002938556241'
S'Nabeel Awan'
tp10
a(S'100001578751012'
S'Mohammad Abdullah'
tp11
a(S'100004411651480'
S'Kaur Goel'
tp12
a(S'100002019867053'
S'A.r. India Voip'
tp13
a(S'100001967162747'
S'Irslan Ali'
tp14
a(S'100001803291766'
S'Muhammad Adnan'
tp15
a(S'100003776724214'
S'Umar Jaani'
tp16
a(S'100000445886160'
S'Bashir Ahmed'
tp17
a(S'100003342314229'
S'Open Tel Bd'
tp18
a(S'100006066665904'
S'Nasir Shah'
tp19
a(S'100000318029499'
S'Faamiya Sahla'
tp20
a(S'100002175484301'
S'Muh Aamer Attari'
tp21
a(S'100002023895441'
S'Ahmed Fimz'
tp22
a(S'100001473157133'
S'Marim Nuzaad'
tp23
a(S'100006092651877'
S'Nupur Rani'
tp24
a(S'100001920849482'
S'Kuri Desi'
tp25
a(S'100002308450727'
S'Eeman Ali'
tp26
a(S'100001836996724'
S'Emaan Ali'
tp27
a(S'100008289412744'
S'Zaboor Sonam'
tp28
a(S'100002760769187'
S'Whole SaleTelecom'
tp29
a(S'100000894150014'
S'Mirwais Achekzai'
tp30
a(S'100008087829918'
S'Imranali Khan'
tp31
a(S'1840280208'
S'Talk Tel Ecom'
tp32
a(S'100008316411950'
S'Shabbir Baig'
tp33
a(S'100007138898905'
S'Mushtaq Yousafi'
tp34
a(S'100006433129648'
S'Muhammad Rafiq'
tp35
a(S'100004946737788'
S'Husnain Baig'
tp36
a(S'100004941393599'
S'\\u0628\\u0648\\u0633\\u0639\\u064a\\u062f \\u0627\\u0644\\u062c\\u0627\\u0628\\u0631\\u064a'
tp37
a(S'785556666'
S'Dawa Khan Menapal'
tp38
a(S'100007594871426'
S'Zahid Baig'
tp39
a(S'100003120379256'
S'Yaazhini De'
tp40
a(S'100004835197790'
S'Mahreen Sweet'
tp41
a(S'100001719866453'
S'Voip Asia'
tp42
a(S'100005756230967'
S'Abu Hamza'
tp43
a(S'100004839491357'
S'Ali Raza Bhatti'
tp44
a(S'100001376945129'
S'Azam Muhammad'
tp45
a(S'100003120275502'
S'Asim Anjum'
tp46
a(S'100002085311776'
S'Mena Mangal'
tp47
a(S'100003090511788'
S'Mehwish Fiza'
tp48
a(S'100003294434170'
S'Sofia Sofita'
tp49
a(S'100000235066973'
S'Nawab Din Khattak'
tp50
a(S'100001080257693'
S'Voip Shop'
tp51
a(S'100002280446077'
S'Rakesh Mahto'
tp52
a(S'100005318893253'
S'Khabaib Baig'
tp53
a(S'100000957227380'
S'Zeek Suddle'
tp54
a(S'100001153860883'
S'Tanveer Heera Tanveer Heera'
tp55
a(S'100001090298957'
S'Don Bugti King'
tp56
a(S'100001376313128'
S'\\u062c\\u0646\\u062a \\u06ab\\u0644 \\u0639\\u0637\\u0627\\u0634'
tp57
a(S'100005550040197'
S'Opeyemi Aiyepeku'
tp58
a(S'100001643381466'
S'Mehran Baig'
tp59
a(S'100001055000444'
S'Hina Akthar Khan'
tp60
a(S'100002560930304'
S'Malik Asim'
tp61
a(S'100001968773568'
S'A-z Voice'
tp62
a(S'100000456321322'
S'Dewan Muhammad Raza Bukhari'
tp63
a(S'100001104883678'
S'Bouque Hamid'
tp64
a(S'100002313911090'
S'Aleena Khan'
tp65
a(S'100001850189233'
S'Shaf Khan'
tp66
a(S'100005757813471'
S'Laiq Mohammad'
tp67
a(S'100006574387921'
S'Qasim Prince'
tp68
a(S'100002824296316'
S'Voip Reseller'
tp69
a(S'100001154147047'
S'Sana Khalid'
tp70
a(S'100001990721720'
S'Waseem Akram'
tp71
a(S'100001813494241'
S'Zahid Sanpal'
tp72
a(S'100002131694100'
S'Nabeela Noorzai'
tp73
a(S'100004425122908'
S'Syed Abrar'
tp74
a(S'790463306'
S'Shahla Ahmed'
tp75
a(S'100005983092492'
S'\\u06be\\u0645\\u0627 \\u0627\\u0646\\u0635\\u0627\\u0631\\u06cc'
tp76
a(S'100008293007659'
S'Rashid Baig'
tp77
a(S'691891466'
S'Delawar Faizan'
tp78
a(S'100004146304774'
S'KaleemAhmad Siddiqui'
tp79
a(S'100003894051934'
S'Hira Choudhary'
tp80
a(S'100001943161147'
S'Prince Ahsan'
tp81
a(S'100002886216096'
S'Muhammad Rafiq'
tp82
a(S'100000954511119'
S'Sundas Kiran'
tp83
a(S'100002613765848'
S'Sumaira Shah'
tp84
a(S'1281226341'
S'Shaheen Afghan'
tp85
a(S'100006592175716'
S'Muhammad Adnan'
tp86
a(S'100002528651124'
S'Cuber Net'
tp87
a(S'100000873903889'
S'Sadia Hoor'
tp88
a(S'100001577999074'
S'Dewan Hamza Bukhari'
tp89
a(S'100002836187054'
S'AGcalls Voip'
tp90
a(S'100004461011831'
S'Shamsa Maher'
tp91
a(S'100005429444916'
S'Ikram Khan'
tp92
a(S'100001379629138'
S'Rida Jee'
tp93
a(S'100003558716776'
S'Deeja Indulge Tel'
tp94
a(S'100001392320074'
S'Rabia Hasan Khan'
tp95
a(S'100004680398450'
S'Jawad Baig'
tp96
a(S'100008133189129'
S'Mirza Mudsir'
tp97
a(S'100004641033640'
S'Fawad Haidar'
tp98
a(S'100004015392333'
S'Touseef Baig'
tp99
a(S'100000101609181'
S'Zainab Khan'
tp100
a(S'100003505130358'
S'Usman Mohd'
tp101
a(S'100002172585353'
S'\\u063a\\u0631\\u0632\\u0626 \\u0627\\u0641\\u063a\\u0627\\u0646'
tp102
asS'id'
p103
S'100002059056603'
p104
sS'name'
p105
S'Tanveer Baig'
p106
s.