(dp1
S'friends'
p2
(lp3
(S'100004663751246'
S'Abdul Rahman Zergai'
tp4
a(S'100007015659556'
S'Irfanullah Tasal'
tp5
a(S'100002473330101'
S'Haqmal Jan'
tp6
a(S'100000754865455'
S'Omid Karimy'
tp7
a(S'100000347715864'
S'Ajmal Toorman'
tp8
a(S'100000865581250'
S'Elyas Sobhan'
tp9
a(S'100001710686669'
p10
S'\\u0639\\u0628\\u062f\\u0627\\u0644\\u0631\\u062d\\u0645\\u0627\\u0646 \\u063a\\u0636\\u0631\\u064a'
tp11
a(S'1134020130'
S'Taherullah Saadi'
tp12
a(S'100000429653227'
p13
S'Alamgul Sahar'
tp14
a(S'100000944792456'
S'Mir ArabShah Chamtu'
tp15
a(S'100001613361538'
S'Karim Mashooq'
tp16
a(S'100000942125868'
S'Amjad Shahzad'
tp17
a(S'100000517545217'
S'Babar Sameer'
tp18
a(S'100000992701120'
S'Zahin Sidiq'
tp19
a(S'100007515072428'
S'Hussain Ahmad'
tp20
a(S'100005815543333'
S'Wahidullah Sabaoon'
tp21
a(S'100000464922545'
p22
S'Obaidullah Hussam'
tp23
a(S'100007561950948'
S'Maraj Munsif'
tp24
a(S'100001145600446'
S'Saliha Ishaqzai Khalliqie'
tp25
a(S'100002526590528'
S'Rezwanullah Shpoon'
tp26
a(S'100002550116663'
S'Latif Sabir'
tp27
a(S'100008373875614'
S'Maryam Safi'
tp28
a(S'702694772'
p29
S'Nazir Ahmad Nazir'
tp30
a(S'100000941348584'
S'Moqeem Alizai'
tp31
a(S'1233492275'
S'Abdul Nasir Akrami'
tp32
a(S'100000770882496'
p33
S'Abdul Hadi Hadi'
tp34
a(S'100001947948324'
S'Rahmat Zadran'
tp35
a(S'1154168166'
S'Yama Bariz'
tp36
a(S'782686288'
p37
S'Hanif Hairan'
tp38
a(S'783171154'
p39
S'Asad Danish'
tp40
a(S'1473152305'
p41
S'Mustafa Salek'
tp42
a(S'100000328476966'
S'Noor Gul Shafaq'
tp43
a(S'100000175343354'
S'Hanif Sadat Safi'
tp44
a(S'1675252036'
S'Mujtaba Nezamyar'
tp45
a(S'100002368982440'
S'Ayubi Stanikzai'
tp46
a(S'834212417'
S'Jabar Bajauri'
tp47
a(S'100003591131582'
S'Farid Ustad'
tp48
a(S'100006709530831'
S'Shahabuddin Gharwal'
tp49
a(S'100001866057521'
p50
S'M Tariq Bazger'
tp51
a(S'100001868847756'
S'Enayat Aini'
tp52
a(S'100007838764488'
S'Abdulsalam Armani'
tp53
a(S'563779463'
p54
S'Matiullah Abid'
tp55
a(S'100002614997117'
S'Hafizullah Turab'
tp56
a(S'100000194724741'
S'Hamid Hasaand'
tp57
a(S'1585402918'
S'Nassir Ahmad Taraki'
tp58
a(S'100003793171087'
S'Shirzada Dilsuz'
tp59
a(S'100000325622296'
S'Abdullah Danish'
tp60
a(S'100002084138436'
S'Eng Qudratullah Niazyi'
tp61
a(S'100002882957282'
S'Ziaulhaq Kamangar'
tp62
a(S'1133870649'
S'Ibrahim Khan Mamoond'
tp63
a(S'670519778'
S'Riaz Sadat'
tp64
a(S'100002259752042'
S'Nangialy Sajed'
tp65
a(S'100001323270491'
S'Maaz Mamond'
tp66
a(S'591287143'
S'Wazir Rawan'
tp67
a(S'100000535811027'
S'Matiullah Amen'
tp68
a(S'100004082798775'
S'Fazila Nayab'
tp69
a(S'100002085311776'
p70
S'Mena Mangal'
tp71
a(S'100001309404018'
p72
S'Naseer Ahmad Ahmadi'
tp73
a(S'100001694707122'
p74
S'Tair Zaland'
tp75
a(S'100003517387635'
S'Hikmat Mukhtar'
tp76
a(S'100000260399284'
S'Haji Fazal Akbar Safi'
tp77
a(S'100007877970466'
p78
S'Noor Mohammad Zia'
tp79
a(S'100000994508309'
S'Saif Ullah'
tp80
a(S'1059065267'
S'\\u062e\\u067e\\u0644\\u0648\\u0627\\u06a9 \\u0633\\u0627\\u062f\\u0627\\u062a'
tp81
a(S'100002679210776'
S'Khalid Rihan'
tp82
a(S'753564747'
S'Amirjan Waheed Ahmadzai'
tp83
a(S'100000028143132'
S'Zabihullah Burhani'
tp84
a(S'100001194865129'
S'Rahat Gul Ziarmal'
tp85
a(S'100004306181276'
S'Bekor Kunar'
tp86
a(S'100000600037092'
S'Yama Ahmady'
tp87
a(S'100007927806177'
S'Fazalkarim Arif'
tp88
a(S'1312317671'
p89
S'Spin Tanay'
tp90
a(S'100000865296941'
S'Hamidullah Momin'
tp91
a(S'100000473532385'
p92
S'Haroon Hakimi'
tp93
a(S'100002568723700'
p94
S'Asmat Safi'
tp95
a(S'100002596666422'
p96
S'Iqbal Stanekzai'
tp97
a(S'100003281360758'
p98
S'Waak Jawed'
tp99
a(S'1572618153'
p100
S'Ziaullah Mohammadi'
tp101
a(S'100001423207996'
S'Naseem Akbar'
tp102
a(S'100003111610990'
p103
S'Majeed Qarar'
tp104
asS'id'
p105
S'100000627169149'
p106
sS'name'
p107
S'Bashir Kamran'
p108
s.