(dp1
S'friends'
p2
(lp3
(S'100000492519849'
p4
S'Zain Zee'
tp5
a(S'100002602509203'
p6
S'Minhas Mazhar'
tp7
a(S'100000289807694'
p8
S'Ghazi Ya Shaheed'
tp9
a(S'100006616681351'
S'King Prince'
tp10
a(S'852985540'
S'Mohammad Omer Siddiqui'
tp11
a(S'100004738118613'
p12
S'Ahmed Bakhsh'
tp13
a(S'100004798080464'
S'Tareef Ullah'
tp14
a(S'100002455636550'
S'Majid Khan'
tp15
a(S'100001845183126'
S'Furqan Khan'
tp16
a(S'100001674619287'
S'Unfathomable Sea'
tp17
a(S'100005739455864'
p18
S'Asif Mansoor'
tp19
a(S'100002286316682'
S'Humza Khan'
tp20
a(S'100003457466032'
S'Areeb Ahmed'
tp21
a(S'100003668506313'
S'Sabirina Tasmin'
tp22
a(S'100004033699228'
p23
S'Shehryar Khan Jadoon'
tp24
a(S'100004789352162'
S'Muhammad Amir Babar'
tp25
a(S'100004384120673'
p26
S'Pakistan Zindabad'
tp27
a(S'100004236969349'
S'Mohammed Jahid Hasan'
tp28
a(S'100001700991984'
S'Aamir Shahzad Pak Rangers'
tp29
a(S'100003153385514'
p30
S'Nizam Lohar Nizampuri'
tp31
a(S'100001680544104'
S'Mazase Khan'
tp32
a(S'100003833024532'
S'Imran Khan'
tp33
a(S'100005406790237'
p34
S'Pforpakhtun PforPakistan'
tp35
a(S'100000091370909'
S'Adil Hawring'
tp36
a(S'100007621710757'
p37
S'Ghazi Khan Baloch Baloch'
tp38
a(S'100002333614851'
S'Alam Zeb'
tp39
a(S'100000508524836'
S'Gunang Simatupang PeSu'
tp40
a(S'100004485097237'
p41
S'Sardar Umar Khan'
tp42
a(S'100008084890962'
S'Zafar Bloch'
tp43
a(S'100005356481330'
p44
S'Salman Baloch Kalpar'
tp45
a(S'1022783261'
S'Muhammad Anwar Shah'
tp46
a(S'100005610960186'
S'Mukhtiar Akhoonzadah'
tp47
a(S'100001669544920'
p48
S'Ashraf Nawaz'
tp49
a(S'100005354980492'
p50
S'Sohaib Khan Mehsud'
tp51
a(S'100005726203098'
p52
S'Nasir Baloch'
tp53
a(S'100004559705345'
p54
S'Furqan Hussain'
tp55
a(S'100007305283431'
S'Nisar Udass'
tp56
a(S'100002359094587'
p57
S'Kamran Raja'
tp58
a(S'100001698460395'
p59
S'Lewanay Khan'
tp60
a(S'100004677842191'
S'Saqib Shaikh'
tp61
a(S'1678843413'
S'Muhammad Mubaxhir'
tp62
a(S'100003609687867'
S'Awi Khan'
tp63
a(S'100002054871847'
S'Slumdog India'
tp64
a(S'100003995951527'
S'Malik Imtiaz Kashmiri'
tp65
a(S'100004947333554'
S'Ehsan Khan'
tp66
a(S'100000249219176'
S'Rehan Karim'
tp67
a(S'100008224482827'
S'Rhoobb Said'
tp68
a(S'100001680062679'
p69
S'\\u063a\\u06cc\\u0648\\u0631 \\u067e\\u0627\\u06a9\\u0633\\u062a\\u0627\\u0646\\u06cc'
tp70
a(S'100002664664126'
p71
S"Rai'zaada Riz"
tp72
a(S'100002609892886'
S'Liaqat Ali'
tp73
a(S'100003178885048'
S'Aryan Khan'
tp74
a(S'100005640732357'
S'Maani Khan'
tp75
a(S'100005820820448'
p76
S'Ismail Khan'
tp77
a(S'100003128772339'
S'Firdose Qureshi'
tp78
a(S'100003280912875'
S'Afaq Ahmed'
tp79
a(S'100001929173893'
p80
S'Waqar Ali'
tp81
a(S'100002701201315'
S'Yasir Muhammad'
tp82
a(S'100003356894083'
p83
S'Amaad Khokhar'
tp84
a(S'100004668725835'
S'Qazi M Aqib'
tp85
a(S'100005183405355'
p86
S'Shakir Ullah'
tp87
a(S'100002946238463'
S'Safyan Cheema'
tp88
a(S'100002270140740'
S'Mohammad Sohail'
tp89
a(S'100003805213293'
S'Bahadar Ali'
tp90
a(S'100005963823369'
S'Eideamin Khan'
tp91
a(S'100004083193812'
S'Muqddas Khan'
tp92
a(S'100004923630008'
S'Saqib Shaikh'
tp93
a(S'100004986013898'
S'Shahriar Ahmed'
tp94
a(S'100003232078514'
p95
S'Jehanzeb Gondal'
tp96
a(S'100002963165748'
p97
S'Nawaz Baloch'
tp98
a(S'100004382413698'
p99
S'Khan Pa Nasha Kee'
tp100
a(S'100004987780287'
p101
S'Jat Sher'
tp102
a(S'100002263353915'
S'Sanaullah Qaisrani'
tp103
a(S'100002512686631'
S'Hamid Rock'
tp104
a(S'100005781455814'
p105
S'Rana E Pakistan'
tp106
a(S'100003308143004'
p107
S'\\u0648\\u0633\\u06cc\\u0645 \\u0639\\u0628\\u0627\\u0633 \\u067e\\u0631\\u0627\\u0686\\u06c1'
tp108
a(S'100006565926815'
S'Singhbabbar Bkitufan'
tp109
a(S'100002649102232'
S'Arsalan Khalid'
tp110
a(S'100006024189629'
S'Tajinder Singh'
tp111
a(S'100000900156451'
S'Adnan Ahmad'
tp112
asS'id'
p113
S'100003779155628'
p114
sS'name'
p115
S'Azhar Khan Akhunzada'
p116
s.