(dp1
S'friends'
p2
(lp3
(S'100000661743086'
S'Ankit Abrol'
tp4
a(S'1568114548'
S'Swati Verma'
tp5
a(S'100003927923026'
S'Shyam Aradhye'
tp6
a(S'100002057359276'
S'Abhishek Raj Chauhan'
tp7
a(S'100000586255837'
S'Shovibha Nain'
tp8
a(S'100003288517516'
S'Neha Patni'
tp9
a(S'100000563312968'
p10
S'Shubham Autade'
tp11
a(S'100004630840632'
S'Vikas Aradhye'
tp12
a(S'100001214808942'
S'Sumeet Katti'
tp13
a(S'100001584537369'
S'Nikhil Poojary'
tp14
a(S'100008251639444'
S'Priyanka Rathi'
tp15
a(S'100000574400980'
S'Roshan Nair'
tp16
a(S'100000911055831'
S'Aakanksha Khushu'
tp17
a(S'100005678507632'
S'Taniya Chetry'
tp18
a(S'100000922567066'
S'Unnati Makwana'
tp19
a(S'100001614267961'
S'Sai Iyer'
tp20
a(S'100002326185641'
S'Asmita Pandey'
tp21
a(S'100001175828569'
S'Madhav Dadwe'
tp22
a(S'100002367849908'
S'Juhi Meshram'
tp23
a(S'100001635926590'
S'Sanskriti Sharma'
tp24
a(S'1460983418'
S'Rahul Bora'
tp25
a(S'100006412233936'
S'Rajeev Vinayak Borade'
tp26
a(S'100006702332461'
S'Vasudha Veronica'
tp27
a(S'100001507469044'
S'Gitesh Morayya'
tp28
a(S'100001262219241'
S'Mayur Borude'
tp29
a(S'100001845545553'
S'Zoheb Shaikh'
tp30
a(S'100001860545922'
S'Vatsal Rambhia'
tp31
a(S'100001586395988'
S'Jivraj Karande'
tp32
a(S'1312462329'
S'Kunal Vohra'
tp33
a(S'100005097008355'
S'Deepak Mane'
tp34
a(S'100003464984873'
S'SuShmita SinGh'
tp35
a(S'100001432041407'
S'Rutuja Patil'
tp36
a(S'795154385'
S'Siddharth Jain'
tp37
a(S'100001037798872'
S'Rashmee Karayat'
tp38
a(S'100001138831961'
S'Apurva Singh'
tp39
a(S'100005185538823'
S'AKash Thorve'
tp40
a(S'100003361538739'
S'Shreya Bhandari'
tp41
a(S'100001511634761'
S'Dikshit Mistry'
tp42
a(S'100000585219488'
S'Abdullah Khan'
tp43
a(S'100000782843007'
S'Salvy Olivia'
tp44
a(S'100007262792641'
S'Akash Deshmukh'
tp45
a(S'1204998453'
S'Nipun Shrivastava'
tp46
a(S'100000192619696'
S'Naina Bahia'
tp47
a(S'100002469988381'
S'Neel Maru'
tp48
a(S'100002518713983'
S'Divya Sharma'
tp49
a(S'100002369668626'
S'Girish Khilare'
tp50
a(S'100001553376903'
S'Vivek Tandel'
tp51
a(S'100002299309929'
S'Sufiyan Kazi'
tp52
a(S'100004400855856'
S'Saurabh Shimpi'
tp53
a(S'100002542700271'
S'Vinita Nair'
tp54
a(S'1848686587'
S'Geetika Jain'
tp55
a(S'100000853821352'
S'Amey R Sawant'
tp56
a(S'100001644522893'
S'Vivek Damale'
tp57
a(S'100004397313579'
S'Komal Patil'
tp58
a(S'100001503846472'
S'Vinayak Salvi'
tp59
a(S'100002573764876'
S'Akshay Nalawade'
tp60
a(S'100001695695134'
S'Prince Negi'
tp61
a(S'100002130471151'
S'Prajapati Deepak'
tp62
a(S'100001954331582'
S'Shivam Yadav'
tp63
a(S'100004095256125'
S'Ashwin Nair'
tp64
a(S'100001231502258'
S'Karan Wadiwala'
tp65
a(S'100002738641126'
S'Babajan Sayyad'
tp66
a(S'100000642776544'
S'Zahid Xavi Khan'
tp67
a(S'100002977187841'
S'Tatya Bhise'
tp68
a(S'100000295538903'
S'Kiran Sakore'
tp69
a(S'100000918105473'
S'Nikhil More'
tp70
a(S'100000651519259'
S'Diwesh Dutt'
tp71
a(S'100001928408165'
S'Devanshi Sharma'
tp72
a(S'660693368'
S'Abhimanyu Singh'
tp73
a(S'1297011318'
S'Vaibhav Shah'
tp74
a(S'100002182039611'
S'Shubhangi Monica Mehra Nikumbhe'
tp75
a(S'100002116722386'
S'Joel John'
tp76
a(S'100002183093121'
S'Sangram Nikam'
tp77
a(S'100001872086536'
S'Anurag Bhikule'
tp78
a(S'100001654475946'
S'Abhinav Gadekar'
tp79
a(S'100003298158696'
S'Bhagyashree Haldankar'
tp80
a(S'100000419552735'
S'Mitang Raval'
tp81
a(S'100000990514241'
p82
S'Leo Paul'
tp83
a(S'100004246920928'
S'Ariel \\u00d0 Angel'
tp84
a(S'622139216'
S'Percy Mithuji'
tp85
a(S'1803786337'
S'Harshal Netkar'
tp86
a(S'1720341587'
S'Wasim Shaikh'
tp87
a(S'100003001296782'
S'Pankaj Kinhake'
tp88
a(S'100002600846339'
S'Pratibha Mahesh'
tp89
a(S'100000195326940'
S'Ujjwal Dahiya'
tp90
a(S'1287093612'
S'Nachiket Aradhye'
tp91
a(S'100004056211904'
S'Arokiya Mary'
tp92
a(S'100005405256271'
S'Madhavi Singh'
tp93
a(S'100003314578294'
S'Geeta Aradhye'
tp94
a(S'100000418148762'
S'Utkarsh Rao'
tp95
a(S'100000071462055'
S'Pratham Bhalerao'
tp96
a(S'100004107850276'
S'Naveen Sangaraj'
tp97
a(S'100000613969129'
S'Bharat Kumar Ad'
tp98
a(S'100002824386516'
S'Abhishek Patil'
tp99
a(S'100002754485814'
S'Utkarsh Priya'
tp100
a(S'1713506234'
S'Shahnawaz Sayed'
tp101
a(S'100001672141757'
S'Neha Pansare'
tp102
a(S'100001900746813'
S'Love Harshvardhan Srivastava'
tp103
a(S'100001148293432'
S'Shahnawaz Khan'
tp104
a(S'100001059493651'
p105
S'Shuvoneel Chakraborty'
tp106
asS'id'
p107
S'100003903562568'
p108
sS'name'
p109
S'Saipratik Aradhye'
p110
s.