(dp1
S'name'
p2
S'Sangeeta Alphonso'
p3
sS'current_class'
p4
S'india'
p5
sS'home_class'
p6
Vbirthplace of chhatrapati shivaji, maharashtra 410502, india
p7
sS'home_text'
p8
VPune, Maharashtra\u000aHometown
p9
sS'current_link'
p10
Vhttps://www.facebook.com/l.php?u=https%3A%2F%2Fwww.bing.com%2Fmaps%2Fdefault.aspx%3Fv%3D2%26pc%3DFACEBK%26mid%3D8100%26where1%3D19.033000625526%252C%2B73.028869628906%26name%3DNavi%2BMumbai%2B%2528New%2BMumbai%2529%252C%2BIndia%26mkt%3Den-IN&h=PAQHdAqTe&s=1
p11
sS'home_link'
p12
Vhttps://www.facebook.com/l.php?u=https%3A%2F%2Fwww.bing.com%2Fmaps%2Fdefault.aspx%3Fv%3D2%26pc%3DFACEBK%26mid%3D8100%26where1%3D18.520300342657%252C%2B73.855590820312%26name%3DPune%252C%2BMaharashtra%26mkt%3Den-IN&h=1AQGfxi4H&s=1
p13
sS'current_text'
p14
VNavi Mumbai (New Mumbai), India\u000aCurrent City
p15
sS'friends'
p16
(lp17
sS'id'
p18
S'100001219083285'
p19
s.