(dp1
S'friends'
p2
(lp3
(S'100004921094311'
S'Abdullah Shams'
tp4
a(S'100000301332096'
S'Elham Sarosh'
tp5
a(S'100007136015126'
S'Mohib Jalalai'
tp6
a(S'100003783800507'
S'Long Live Afghanistan'
tp7
a(S'100000720697507'
S'Aimal Sultanzai'
tp8
a(S'100006860916180'
S'Hewad Zakhel'
tp9
a(S'100001458433550'
S'Zobine Hotak'
tp10
a(S'100006207642299'
S'Mohammad Afzal Sahak'
tp11
a(S'100003910622611'
S'Nasruddin Mashal Babakarkhil'
tp12
a(S'100003500233354'
S'Shamshad Qimati'
tp13
a(S'100001316877704'
S'Naqib Sarhadi'
tp14
a(S'1059065267'
S'\\u062e\\u067e\\u0644\\u0648\\u0627\\u06a9 \\u0633\\u0627\\u062f\\u0627\\u062a'
tp15
a(S'100000509560624'
S'Shekeeb Aemal'
tp16
a(S'100000627821840'
S'Hafiz Faiz'
tp17
a(S'100004491693839'
S'Bismillah Bismil'
tp18
a(S'100003846641186'
S'\\u0623\\u063a\\u0627\\u0646\\u0648\\u0631 \\u062f\\u0644\\u0633\\u0648\\u0632 \\u062f\\u0644\\u0633\\u0648\\u0632'
tp19
a(S'100007779941033'
S'Tofan Noori'
tp20
a(S'100004881461766'
S'Shaber Arman'
tp21
a(S'100003690909786'
S'Nooraziz Azizi'
tp22
a(S'100002488451567'
S'Temorshah Shafaq'
tp23
a(S'100003050517491'
S'Noorulhaq Ahmadzai'
tp24
a(S'100006241241818'
S'Wahidullah Wahdat'
tp25
a(S'100004026234713'
p26
S'Elham Azizi'
tp27
a(S'100002010450479'
S'Sardar Naweed Waheed'
tp28
a(S'100001403398151'
S'\\u062d\\u0628\\u06cc\\u0628 \\u0627\\u0644\\u0644\\u0647 \\u0627\\u06a9\\u0628\\u0631\\u064a'
tp29
a(S'100003289301357'
S'Ka Ka Khan'
tp30
a(S'100005243796777'
S'Atef Khan'
tp31
a(S'100003277301464'
S'Qasim Khan Achakzai'
tp32
a(S'100000662716592'
S'Salem Rezaie'
tp33
a(S'100002460007607'
S'Baktash Siawash'
tp34
a(S'100002351960556'
S'Azim Salim'
tp35
a(S'100007624744355'
S'Haji Ahamad Mukaram Stanikzai'
tp36
a(S'100002091190101'
S'Najib Alkozai'
tp37
a(S'100007712862294'
S'Abdelwasa Afghan'
tp38
a(S'100002466895424'
S'Gulbacha Shinwari'
tp39
a(S'100006423894103'
S'Omid Saidi'
tp40
a(S'100001948835743'
S'Shabir Faizi'
tp41
a(S'100005489532136'
S'Arif Habibi'
tp42
a(S'100003490700074'
S'Mohammad Zaker Zaky'
tp43
a(S'1277848523'
S'Hakim Sayedi'
tp44
a(S'100007746493104'
S'Naimullah Farazi'
tp45
a(S'100001104924413'
S'Azizullah Aziz'
tp46
a(S'100000355218565'
S'M\\u00fb\\u00f0\\u00f0\\u019bs\\u00eer \\u00ceqb\\u00e3l'
tp47
a(S'100000209999437'
S'Sultan Khan'
tp48
a(S'100003514828797'
S'Ahmad Fawad Zhwak'
tp49
a(S'100001907890875'
S'Anes Khan Arian'
tp50
a(S'100007688049199'
S'Bahora  Juraeva'
tp51
a(S'100002559039266'
S'Matiullah Mati'
tp52
a(S'1683792088'
S'Basir Mujahed'
tp53
a(S'100002377070537'
p54
S'Rahimullah Vreen'
tp55
a(S'100006486745994'
S'Romal Dostyar'
tp56
a(S'100007313104977'
S'Ferozkhan Alimzai Wardak'
tp57
a(S'100007581180075'
S'Shukran Mineral Wate'
tp58
a(S'100002303554842'
S'Mohammad Sangar Amirzada'
tp59
a(S'100000091382785'
S'Fahmeed Khan'
tp60
a(S'100006940232973'
S'Abbas Safi'
tp61
a(S'100003495080361'
S'Ahmad Zia Miakhil'
tp62
a(S'100002921159270'
S'DrSayed Ali Kazemi'
tp63
a(S'100001660337547'
S'Hizbullah Baryal'
tp64
a(S'100003024709182'
S'Naseer Ahmad Zaheen'
tp65
a(S'100005342706116'
S'Sayed Esmail Mujahed'
tp66
a(S'100000760866579'
S'Afshary Safiullah'
tp67
a(S'100005720556330'
S'Saleem Khan'
tp68
a(S'100002912735798'
S'Mohammad Hakim Baheer'
tp69
a(S'100000678225985'
S'Bashir Hatef'
tp70
a(S'100001225038815'
S'Roomal Shinwary'
tp71
a(S'100003062382918'
S'Jawid Kohistani'
tp72
a(S'100003614556832'
S'Zekria Khan'
tp73
a(S'100008094008629'
S'Mohammad Sayeed Alokozay'
tp74
a(S'100005007791709'
S'Sherbahader Esakhil'
tp75
a(S'100005404360699'
S'Hasib Hotak'
tp76
a(S'1272052271'
S'Massood Sanjer'
tp77
a(S'1721359660'
S'Hajirahim Gul Maidanwal'
tp78
a(S'100002625652172'
S'Wehaj Mohammad Afzal'
tp79
a(S'100000650910508'
S'Taj Malik Alam'
tp80
a(S'100001639884532'
S'Hekmatullah Zaland'
tp81
a(S'100002054773643'
S'Ahmadwali Yousufzai'
tp82
a(S'670110171'
S'Ajmal Asadi'
tp83
a(S'100003335557410'
S'Shafiq Arian'
tp84
a(S'100003615802616'
S'Ansar Johar'
tp85
a(S'100005874724640'
S'Mahfoozullah Badakhsh'
tp86
a(S'100004052835091'
S'Salamzada Familys'
tp87
a(S'1532357533'
S'Mohammad Anwar Saadat'
tp88
a(S'100003622932001'
S'Leda Aslam'
tp89
a(S'100002775550820'
S'Zakerullah Ashna Ahmadzai'
tp90
a(S'100003712493671'
S'Dawood Ahmadzai Aziz'
tp91
a(S'100007927120806'
S'\\u0637\\u0627\\u0647\\u0631 \\u0627\\u062d\\u0645\\u062f\\u0632\\u06cc'
tp92
a(S'100005113122935'
S'Khalid Aminy'
tp93
a(S'100001634488601'
S'Stara Roshan'
tp94
a(S'100004156054875'
S'\\u062c\\u0648\\u0627\\u0646\\u0627\\u0646 \\u067e\\u0631\\u0648\\u0627\\u0646 \\u063a\\u0648\\u0631\\u0628\\u0646\\u062f'
tp95
a(S'100001346226542'
S'Jenelyn Garbe'
tp96
a(S'100001265848591'
S'Safiullah Omarkhel'
tp97
a(S'100005689964090'
S'Ajmal Khan Jamali'
tp98
a(S'100000281488542'
S'Ezatullah Tariq'
tp99
a(S'100002656680853'
S'Naveed Roghman Shagiwal'
tp100
a(S'100002937426347'
S'Wais Ahmad Barmak'
tp101
a(S'100000538858322'
S'Sajia Hussain Azmat'
tp102
a(S'100003855722905'
S'Abdull Satar Saadat'
tp103
a(S'1131913179'
S'Kabir Haqmal'
tp104
a(S'100003599590789'
S'Shaheer Minhaj'
tp105
a(S'100002209545953'
S'Wali Sabawoon'
tp106
a(S'100001687777060'
S'Atta Khan'
tp107
a(S'100004715401258'
S'Mojeebulhaq Fakhri'
tp108
a(S'100003627766831'
S'Daud Arabzai'
tp109
a(S'100007457233454'
S'Asmat Stanikzai'
tp110
a(S'100005764364158'
S'Niamat Ahmadzai'
tp111
a(S'100003684440150'
S'\\u0627\\u062d\\u0645\\u062f \\u0636\\u06cc\\u0627 \\u0631\\u0641\\u0639\\u062a'
tp112
a(S'100001884334835'
p113
S'Tariq Faiz'
tp114
a(S'100002270840303'
S'Babrak Amirzada'
tp115
a(S'100000893169301'
S'Naqibullah Andar'
tp116
a(S'100000402222187'
S'Abdulali Shinwari'
tp117
a(S'100008344780160'
S'Amanullah Habibi'
tp118
a(S'100005045652858'
S'M Hassan Haqyar'
tp119
a(S'100002205325572'
S'Ajmal Mateen'
tp120
a(S'100002005304622'
S'Mustafa Ibrahimi'
tp121
a(S'100003627468921'
S'Muhammad Talha'
tp122
a(S'100005532481820'
S'Niamat Ibrahimi'
tp123
a(S'100000372357263'
S'Younis Ahmadzai'
tp124
a(S'100003059500521'
S'Sajid Khan'
tp125
a(S'100001783265782'
S'Maula Khan Aminzai'
tp126
a(S'100005820576977'
S'Ahmad Wali Masoud'
tp127
a(S'100003782125601'
S'Anosha Bamyani'
tp128
a(S'100002105078228'
S'Rowena Barrera'
tp129
a(S'100003768272485'
S'Mansoor Ahmad Nekmal'
tp130
a(S'698103428'
S'Fazlullah Reshteen'
tp131
a(S'100000221752967'
S'Hamid Haidary'
tp132
a(S'100000405454834'
S'Esmat Vejdani'
tp133
a(S'100002012742487'
S'Log Logari'
tp134
a(S'100000473532385'
S'Haroon Hakimi'
tp135
a(S'100001560602252'
S'Riaz Ahmad Safi'
tp136
a(S'100007162353830'
S'Hamid Salhi'
tp137
a(S'100000686476794'
S'Muhammad Saleem Ahmadzai'
tp138
a(S'100000644508749'
S'Mujiburahman Safi'
tp139
a(S'100008278784736'
S'Javed Amirkhil'
tp140
a(S'100001339252976'
S'Musarrat Mohmand'
tp141
a(S'100001541547756'
S'Hossein Nabavi'
tp142
a(S'100002217386263'
S'Zabihullah Raheemzai'
tp143
a(S'100002544742858'
S'Afghan Darwesh'
tp144
a(S'1270893713'
S'Abdullah Miakhil'
tp145
a(S'100002667642759'
S'Ehssan Khan'
tp146
a(S'100005481403617'
S'Mohammad Aadil'
tp147
a(S'100004647819600'
S'Nisar Ahmad Naseerzi'
tp148
a(S'100007602038988'
S'Hazrat Shah Afghan'
tp149
a(S'100002521686522'
S'Kamran Khan'
tp150
a(S'100002967270008'
S'Zaheer Roman'
tp151
a(S'100002001808183'
S'Ahmad Kochai'
tp152
a(S'100007797044335'
S'Ehsanullah Wardak'
tp153
a(S'100002007414206'
S'Ghafoori Imran'
tp154
a(S'100000818816844'
S'Ellynor Dequito'
tp155
a(S'100007741266596'
S'Mohammad Dawood Ahmadzai'
tp156
a(S'100003008544148'
S'KaWish Noori'
tp157
a(S'100006725700885'
S'Nazanin Noor'
tp158
a(S'100000805202464'
S'\\u0633\\u06cc\\u062f \\u0628\\u0627\\u0642\\u0631 \\u06a9\\u0627\\u0638\\u0645\\u06cc'
tp159
a(S'100000202560850'
S'Zahoor Kakar'
tp160
a(S'100003325903068'
S'Arafat Sediqi'
tp161
a(S'100003599276799'
S'Massoud Behroz'
tp162
a(S'100003281179315'
S'Allauddin Khan'
tp163
a(S'100007395367543'
S'Merwaise Aria'
tp164
a(S'100007801001259'
S'\\u0648\\u0631\\u06a9 \\u0627\\u062d\\u0645\\u062f\\u0632\\u06cc'
tp165
a(S'100006930735026'
S'Muner Khan Israr'
tp166
a(S'100007733862987'
S'Melad Sahil'
tp167
a(S'100003013402880'
S'Ahmad Faisal Safi'
tp168
a(S'1419331794'
S'Rased Zwak'
tp169
a(S'100001210406528'
S'Zaman Khan Chagharzai'
tp170
a(S'100002139052758'
S'Taj Talash'
tp171
a(S'100007280346860'
S'Wicket Rta'
tp172
a(S'1338537433'
S'Inamullah Inam'
tp173
a(S'100001371580052'
S'Qazi Manzoor Musakhel'
tp174
a(S'100001490372851'
S'Shahid Mohmand'
tp175
a(S'100004513963352'
S'\\u0634\\u0627\\u0647 \\u0644\\u0627\\u0644\\u0627 \\u0628\\u0627\\u0631\\u06a9\\u0632\\u06cc'
tp176
a(S'100001458931008'
S'Mohammad Sabir Momand'
tp177
a(S'100007712051559'
S'Iqbal Azizi'
tp178
a(S'100007445225427'
S'Noor Nasib'
tp179
a(S'100006477655044'
S'SA NA'
tp180
a(S'100002696350949'
S'Naziya Iqbal'
tp181
a(S'100000625783083'
S'Rafiullah Roshan'
tp182
a(S'100006801249346'
S'Mahshid Mawj'
tp183
a(S'100002582879152'
S'Attaullah Safi'
tp184
a(S'100001683961760'
S'\\u062f\\u0648\\u0643\\u062a\\u0648\\u0631 \\u067e\\u0631\\u0648\\u064a\\u0646 \\u062d\\u062c\\u0627\\u0632\\u064a'
tp185
a(S'100003691328740'
S'Fazal Rahman Arman'
tp186
a(S'1815157742'
S'Roohullah Safi'
tp187
a(S'100002809734652'
S'As At Nowrozi'
tp188
a(S'100002138237178'
S'Jamal Naser Osoli'
tp189
a(S'100003607752413'
S'Ahmad Monir Rasoli'
tp190
a(S'100003054811540'
S'\\u0639\\u0628\\u062f\\u0627\\u0644\\u062c\\u0644\\u064a\\u0644 \\u0632\\u0631\\u0645\\u0644\\u0648\\u0627\\u0644'
tp191
a(S'100004739323650'
S'Abdulbasir Latify'
tp192
a(S'571962146'
S'Naveed Nazari'
tp193
a(S'100003476503055'
S'Zafar Kotwal'
tp194
a(S'100000631178049'
S'Kamran Amiri'
tp195
a(S'100005032359814'
S'Mirqais Samandary'
tp196
a(S'100004720211757'
S'Waisudin Abdullah'
tp197
a(S'100000397789349'
S'Obaidullah Shafaq'
tp198
a(S'100003954451460'
S'Bertos Bea'
tp199
a(S'100001615304445'
S'Sayed Nasrullah Nikpur'
tp200
a(S'100001009852762'
S'Abdul Qadir'
tp201
a(S'1640006506'
S'Ajmal Gulab'
tp202
a(S'100000877308335'
S'Dawood Daud'
tp203
a(S'632423591'
S'Baaz Abid'
tp204
a(S'100006208992736'
S'Antonia Infantes Sanchez'
tp205
a(S'100001479637106'
S'Parwiz Sapy'
tp206
a(S'100000355550131'
S'Ety Cy Rana'
tp207
a(S'100005673433315'
S'Aman Ullah'
tp208
a(S'100001676587845'
S'Kylie Arline Paz-penequito'
tp209
a(S'100006395584291'
S'Khyber Khan Kalewal'
tp210
a(S'100004023193203'
S'Naseer Sahil'
tp211
a(S'100007453270555'
S'Hashum Ahmadzai'
tp212
a(S'100007435750475'
S'Muhammad Eliyase Muhammadi'
tp213
a(S'100001247123325'
p214
S'Basir Abas Noori'
tp215
a(S'100002773430118'
S'Farhadullah Utmankhail'
tp216
a(S'100006004419994'
S'Saidabdullah Hashmi'
tp217
a(S'100005828589009'
S'Abdulbari Alikhil'
tp218
a(S'100008075972451'
S'Fawad Alokozai'
tp219
a(S'100001137528238'
S'Momar Alim'
tp220
a(S'1648752437'
S'Nasim Darya'
tp221
a(S'100002092686711'
S'Nasratullah Wafa'
tp222
a(S'100002271164941'
S'Ihsanullah Khan'
tp223
a(S'100000865507750'
S'Sajjad Toru'
tp224
a(S'100007882240310'
S'Shamshad Afghanalokozay'
tp225
a(S'100003203021237'
S'Muhsin Ali Ismail'
tp226
a(S'100001851736331'
S'Saifurahman Hotak'
tp227
a(S'100002416215635'
S'Mohammad Qahir Ahmadzai'
tp228
a(S'100001714133909'
S'Wahidyar Abdulrahimzai'
tp229
a(S'100005708015733'
S'Latif Nazari'
tp230
a(S'100006681099720'
S'Shahsaid Alokozay'
tp231
a(S'100006878318503'
S'Janaqa Haqjo'
tp232
a(S'100003341029372'
S'Karim Akbar'
tp233
a(S'100001558685943'
S'Haroon Rahimi'
tp234
a(S'100001543488073'
S'Fawad Alizai'
tp235
a(S'100001484446706'
S'Ghani Tokhi'
tp236
a(S'100003594856177'
S'U\\u0142 F\\u01fbt'
tp237
a(S'100000214044747'
S'Wakil Ehsass'
tp238
a(S'100002265350416'
S'Shakila Shahab'
tp239
a(S'100003394191707'
p240
S'Ayub Khawreen'
tp241
a(S'100000210962920'
S'Wali Arian'
tp242
a(S'100000733602646'
S'Arsalan Sahebzada'
tp243
a(S'100003079338866'
S'Fazilkhaliq Lalmawal'
tp244
a(S'100003255274734'
S'Farid Yousafzai'
tp245
a(S'100002167521269'
S'Zee Daud'
tp246
a(S'100004756720405'
S'Nazif Hashmi'
tp247
a(S'100000556798820'
S'Salma Noor'
tp248
a(S'100001490026504'
S'Inamuddin Paigham'
tp249
a(S'1667102925'
S'Masih Ibrahimkhil'
tp250
a(S'1648975281'
S'Halim Tanwir'
tp251
a(S'100007082828766'
S'Eng Wais Mohammad Samsour'
tp252
a(S'100002727154622'
S'Sahar Yousufzai'
tp253
a(S'100005927829500'
S'Naila Malik'
tp254
a(S'100003366733606'
S'Hashmat Ullah Rayan'
tp255
a(S'100006227494724'
S'Eng Zikria Khan'
tp256
a(S'1101835517'
S'Khursheed Khan'
tp257
a(S'100003613627720'
S'Almas Dawoodzai'
tp258
a(S'100008390225343'
S'Tahir Ahmadzai'
tp259
a(S'100000352968045'
S'\\u0646\\u0648\\u064a\\u062f \\u0633\\u0639\\u0627\\u062f\\u062a \\u0645\\u0635\\u0644\\u062d'
tp260
a(S'100002838484094'
S'Ibrahim Abed'
tp261
a(S'100001846735271'
S'Haji Abdul Qadir Arash'
tp262
a(S'100006585283388'
S'Rahmatullah Omari'
tp263
a(S'100003206597672'
S'Joma Khan'
tp264
a(S'725854740'
S'Siamak Herawi'
tp265
a(S'100008327017947'
S'Hashim Khan'
tp266
a(S'100002699390633'
S'Tatobay Newspaper'
tp267
a(S'100007951957601'
S'Safiullah Jan'
tp268
a(S'100001511109983'
S'Safiullah Saidi'
tp269
a(S'1083364001'
S'Andekhman Zazai'
tp270
a(S'1002367875'
S'Samiullah Shinwari'
tp271
a(S'100002111273199'
S'Shadab Amin Begzad'
tp272
a(S'100003981139682'
S'Aimal Sherzai'
tp273
a(S'100007819384323'
S'Sami Ullah Karimi'
tp274
a(S'100003068623285'
S'Sayed Shuaib Zewari'
tp275
a(S'100000950388563'
S'Muhib Jan'
tp276
a(S'100003022956783'
S'Samsoor Kamawal'
tp277
a(S'100004436647020'
S'Saifullah Stanikzai'
tp278
a(S'100004049988175'
S'Wasi Sun'
tp279
a(S'100003788731016'
S'Shabnam Ahmadi'
tp280
a(S'100000286502708'
S'Azim Noori'
tp281
a(S'100006387334690'
S'Nasrullah Shakeer'
tp282
a(S'100005739606268'
S'Masoom Ibrahimkhil'
tp283
a(S'100003105592191'
S'Modir Sherzad'
tp284
a(S'100003379986717'
S'Smep Shamshad'
tp285
a(S'100001422338626'
S'Nabi Shaban'
tp286
a(S'100008099345941'
S'Sayed Zabih Ullah'
tp287
a(S'100001960498546'
S'Abdul Janan Larmal'
tp288
a(S'100002148094745'
S'Salman Khan'
tp289
a(S'100005466697073'
S'IbibRahman IbibRahman'
tp290
a(S'100003489131156'
S'Soran Saman'
tp291
a(S'100002374135947'
S'\\u062d\\u0645\\u06cc\\u062f\\u0647 \\u0644\\u0633\\u0627\\u0646\\u06cc'
tp292
a(S'100003650767247'
S'Sapna Oroj'
tp293
a(S'100002002934429'
S'Nadermahmoodi Mahmoodi'
tp294
a(S'100003098003560'
S'Mursal Ahmade'
tp295
a(S'100000738915544'
S'Saboor Raoufi'
tp296
a(S'100002000082914'
S'Zuhal Afghan'
tp297
a(S'100004142075693'
S'Ataullah Totakhail'
tp298
a(S'100006422196609'
S'Ahmad Zia'
tp299
a(S'100001810246626'
S'Fida Tourakhil'
tp300
a(S'1546137497'
S'Ahmad Mustafa Ariz'
tp301
a(S'100007197216115'
S'Nasir Ehsas'
tp302
a(S'100000108268926'
p303
S'Afghan Score'
tp304
a(S'100001632480302'
S'Wallidn Naveed'
tp305
a(S'100003387673637'
S'Daoud Sediqi'
tp306
a(S'100004452960626'
S'Reemo Saeed'
tp307
a(S'100006650731161'
S'Farid Ahmad Stanikzai'
tp308
a(S'100001036279664'
S'Ajmal Omid'
tp309
a(S'100003100071477'
S'Iban Touriste'
tp310
a(S'100007707702962'
S'Rahmatullah Momand'
tp311
a(S'100002941510329'
S'Naqeebullah Meakhil'
tp312
a(S'100000784246210'
S'Nazari Katawazai'
tp313
a(S'100002535160186'
S'Nilo Far'
tp314
a(S'100001772234586'
S'F Wahab Salarzai'
tp315
a(S'100000066866943'
S'Ghazi Afghan Babakar Khel'
tp316
a(S'100002955633735'
S'Kabul King'
tp317
a(S'100002144299431'
S'S Maisam Mahmmod Ehsani'
tp318
a(S'100002216254509'
S'Muhebullah Ziar'
tp319
a(S'1197087065'
S'Aimal Saadat'
tp320
a(S'100001955797095'
S'\\u0627\\u0644\\u062d\\u0627\\u062c \\u0635\\u0627\\u062f\\u0642 \\u062d\\u06cc\\u062f\\u0631\\u06cc \\u062d\\u06cc\\u062f\\u0631\\u06cc'
tp321
a(S'100001272493264'
S'Azam Khan'
tp322
a(S'100002229937327'
S'Maiwand Akbary'
tp323
a(S'100002126608173'
S'Atiqullah Harir'
tp324
a(S'100003132920512'
S'Ahmadsamim Yaqubi'
tp325
a(S'100001082305462'
S'Mansoor Majab'
tp326
a(S'100005249646628'
S'Abdul Khaliq Sadaat'
tp327
a(S'100004086104900'
S'\\u0646\\u0648\\u069a\\u062a \\u06a9\\u062a\\u0627\\u0628 \\u067e\\u0644\\u0648\\u0631\\u0646\\u0685\\u06cc'
tp328
a(S'100003383906711'
S'Kandahar Newss'
tp329
a(S'100001531181733'
S'Walli Mohammad Momand'
tp330
a(S'100001227033106'
S'Sharif Stanikzai'
tp331
a(S'100008295124804'
S'Hassan Sediqzadah'
tp332
a(S'100000641366364'
S'Muhammadullah Zurmatai'
tp333
a(S'683145107'
p334
S'Fatana Ishaq Gailani'
tp335
a(S'100003452936706'
S'\\u0633\\u0631\\u0648\\u0631 \\u062d\\u0628\\u064a\\u0628'
tp336
a(S'100006503327376'
S'Shafiullah Sharafat'
tp337
a(S'100007477651819'
S'Murtaza Naderi'
tp338
a(S'788649830'
S'Aemal Sanjeeda'
tp339
a(S'100002545797734'
S'Mahmoodallah Zaland'
tp340
a(S'100003086470711'
S'Fazel Omer Hassanzai'
tp341
a(S'100001523703217'
S'Sabriellas Sara Sonio'
tp342
a(S'100005658124243'
S'Evergreen Nangarhar'
tp343
a(S'100001776219470'
S'Zahid Ullah'
tp344
a(S'100007119786401'
S'Fawad Samady'
tp345
a(S'100007054385783'
S'Princes Meena'
tp346
a(S'100002405356216'
S'Abdul-Hameed Qazizada'
tp347
a(S'100001173543568'
S'Najeem Yalmaan'
tp348
a(S'100001950426971'
S'Miraj Sadat'
tp349
a(S'100002077941698'
S'Nazar Afghan'
tp350
a(S'100002284103457'
S'Samsoor Orbal'
tp351
a(S'100006648880139'
S'Ziaullah Daud'
tp352
a(S'100008353300148'
S'Abdul Khaliq'
tp353
a(S'100005770803788'
S'Mahrullah Malukzada'
tp354
a(S'100004896216921'
S'Hameedullah Miakhil'
tp355
a(S'100001250107648'
S'Aimal Sediqi'
tp356
a(S'100004442681336'
S'\\u062f\\u0627\\u06a9\\u062a\\u0631\\u0639\\u0628\\u062f\\u0627\\u0644\\u0642\\u06cc\\u0648\\u0645 \\u0633\\u062c\\u0627\\u062f\\u06cc'
tp357
a(S'100001507450701'
S'Sana S. Safi'
tp358
a(S'100004045338093'
S'Ghul Panara'
tp359
a(S'100005378431388'
S'Asadullah Allmi'
tp360
a(S'100003510021552'
S'Habib Ullah'
tp361
a(S'1685992472'
S'Noorullah Kakar'
tp362
a(S'100003803427167'
S'Tariq Stanikzai'
tp363
a(S'100004250138680'
S'Ahmad Farhad Saial'
tp364
a(S'100001781566791'
S'Abdul Qadeer Merzai'
tp365
a(S'1529139135'
S'Ahmad Baktash Barialai'
tp366
a(S'100002259290564'
S'\\u0639\\u0632\\u06cc\\u0632\\u0627\\u0644\\u0644\\u0647 \\u0622\\u0631\\u06cc\\u0627\\u0641\\u0631'
tp367
a(S'100002660893175'
p368
S'Allahnoor Shinwari'
tp369
a(S'100007303893895'
S'Liaqat Mubariz'
tp370
a(S'100000383003210'
S'Shams Khalil'
tp371
a(S'100000770882496'
S'Abdul Hadi Hadi'
tp372
a(S'100003496399577'
S'Esmaeil Mashal'
tp373
a(S'100002545353434'
S'Khalilullah Hamid'
tp374
a(S'100000805966257'
S'Asim Qayumi'
tp375
a(S'100000760553031'
p376
S'M Nazir Ahmadzai'
tp377
a(S'100001779336462'
S'Baktash Mitra'
tp378
a(S'100005086780053'
S'Jaheed Afghan'
tp379
a(S'100001955131110'
S'Yasir Fatah'
tp380
a(S'1327291325'
S'Abdul Ghani Mudaqiq'
tp381
a(S'100003050801254'
S'Hedayatullah Laghmani'
tp382
a(S'644891013'
S'Barry Salaam'
tp383
a(S'100005579565012'
S'\\u0628\\u0633\\u0645 \\u0627\\u0644\\u0644\\u0647 \\u0627\\u062d\\u0645\\u062f\\u0632\\u06cc'
tp384
a(S'100003682097495'
S'Zabihullah Safi'
tp385
a(S'100004483830326'
S'Aimal Shirzay'
tp386
a(S'100001641552917'
S'Ghazi Ahmad Murtaza'
tp387
a(S'746188775'
S'Sadaat Sayed Hasrat'
tp388
a(S'100005657282782'
S'Miragha Amiri'
tp389
a(S'100001963907958'
S'Jeschiel Colita'
tp390
a(S'100000640837641'
S'Waqas Momand'
tp391
a(S'100007648030698'
S'Shafi Ullah Hashimi'
tp392
a(S'100002549674095'
S'Makhdom Rahin'
tp393
a(S'100002340047529'
S'Adil Jan Alam'
tp394
a(S'100002628777844'
S'Zar Khan Saren Hadawal'
tp395
a(S'100003178451095'
S'Aemal Mangal'
tp396
a(S'100001724842824'
S'Jelani Aria'
tp397
a(S'100001741316307'
S'Sirat Noori'
tp398
a(S'100003176412376'
S'Atiq Atiqullah'
tp399
a(S'100003840318517'
S'\\u0631\\u0648\\u0632\\u0646\\u0627\\u0645\\u0647 \\u0627\\u06cc\\u0646\\u062a\\u0631\\u0646\\u062a\\u064a \\u062c\\u0648\\u0627\\u0646 \\u0627\\u0641\\u063a\\u0627\\u0646\\u0633\\u062a\\u0627\\u0646'
tp400
a(S'100000696717868'
S'Zalmy Khan'
tp401
a(S'100001945557500'
S'Basir Hameed'
tp402
a(S'100000490136946'
S'Younas Fida'
tp403
a(S'1197750656'
S'Hematullah Niazmand'
tp404
a(S'100004558151543'
S'\\u0645\\u062d\\u0645\\u062f \\u0639\\u0645\\u0631 \\u062f\\u0627\\u0648\\u0648\\u062f\\u0632\\u06cc'
tp405
a(S'100002169305927'
S'Siawash Baktash'
tp406
a(S'100001811087983'
S'Sahib Zada'
tp407
a(S'100003627167805'
S'Muzhda Mehryar'
tp408
a(S'100006438145278'
S'Besmellah Khaterzai'
tp409
a(S'100003467441758'
S'\\u0641\\u0627\\u0637\\u0645\\u0647 \\u06a9\\u0648\\u0686\\u06cd'
tp410
a(S'1125192903'
S'Abdul Ghafar Kamyab'
tp411
a(S'751190849'
S'Najeeb Noor'
tp412
a(S'100001803101755'
p413
S'Nangialy Qalatwal'
tp414
a(S'100004211822473'
S'Ziarmal Faizy'
tp415
a(S'611177361'
S'Ahmad Najib'
tp416
a(S'1485475844'
S'\\u063a\\u0632\\u0646 \\ufea7\\ufe8e\\ufee5 \\u0631\\u0634\\u062a\\u064a\\u0646'
tp417
a(S'100003893388329'
S'Afghan Tiger Cricket Calub'
tp418
a(S'100000421215704'
S'Jafar Safi'
tp419
a(S'100000854195704'
S'Noor Muhammad'
tp420
a(S'1127023017'
S'Abdullah Fahim'
tp421
a(S'1449915273'
S'Shuja Zaky'
tp422
a(S'100005662352692'
S'\\u0645\\u062d\\u0645\\u062f \\u062d\\u0633\\u06cc\\u0646 \\u067e\\u0627\\u0631\\u0633\\u0627'
tp423
a(S'100004095532112'
S'Habiba Ghayasi'
tp424
a(S'100004126741171'
S'Rishad Ahmadzai'
tp425
a(S'100000091446700'
S'Shabir Ahmad Kabirzad'
tp426
a(S'100002763686040'
S'Shahzalmai Zalmai'
tp427
a(S'100005567927404'
S'Alireza Hakimi'
tp428
a(S'100003188753521'
S'Ali Ahmadzay'
tp429
a(S'1405488402'
S'Wais Shirzai'
tp430
a(S'100006060511110'
S'Maiwand Naseri'
tp431
a(S'1056725297'
S'Naweed Yousufi'
tp432
a(S'100005099952019'
S'Younus Mohtawa'
tp433
a(S'100002644002782'
S'Naqib Ahmad Ahmadi'
tp434
a(S'100003258227787'
p435
S'Emal Faizi'
tp436
a(S'100002786444715'
S'Salim Nayibkhill'
tp437
a(S'100002149230662'
S'Shabana Khan Khan'
tp438
a(S'100001807880799'
S'Shafiq Ullah Kotwall'
tp439
a(S'100003747359222'
S'\\u0633\\u06af \\u062f\\u06cc\\u0648\\u0627\\u0646\\u0647'
tp440
a(S'100001040329272'
S'Naqiburhman Maroof'
tp441
a(S'100005837106584'
S'Ajmal Alimzai'
tp442
a(S'1005223286'
S'Shareef Miakhail'
tp443
a(S'100005327619299'
S'Sumira Kaker'
tp444
a(S'100001681482777'
S'Fazal Sultan Safi'
tp445
a(S'100002263767217'
S'Wahid Habibi'
tp446
a(S'100006429809067'
S'Enhamullah Enhami'
tp447
a(S'100002681567337'
S'RJ Mudassar Zaman'
tp448
a(S'100000873138803'
S'Sayed Fateh Baha'
tp449
a(S'100006914766734'
S'\\u0647\\u0641\\u062a\\u0647 \\u0646\\u0627\\u0645\\u0647 \\u0645\\u0642\\u062f\\u0645'
tp450
a(S'100002372637771'
S'Humaira Ahmad'
tp451
a(S'100004677036006'
S'Sameer Khan'
tp452
a(S'100002215585104'
S'Fatema Mahmodi'
tp453
a(S'100001684625171'
S'Sad Ullah Zaki Zaki'
tp454
a(S'100000745006532'
S'Zmaryalai Abasin'
tp455
a(S'100003803001759'
S'Ghazi Derwesh Afghan'
tp456
a(S'100002686583648'
S'Irfan Khan'
tp457
a(S'100002327230872'
S'\\u8607\\u7f8e\\u975c'
tp458
a(S'100002370228381'
S'Mohammd Jalil Afg'
tp459
a(S'100002203790065'
S'Robina Jalali Jalali'
tp460
a(S'1270024578'
S'Baheer Wyaar'
tp461
a(S'100002467415615'
S'Zarar Ahmad Moqbel Osmani'
tp462
a(S'100002305776885'
S'PrinCe Sahil'
tp463
a(S'100001121096891'
S'Florence Fulgencio Judit'
tp464
a(S'100004073594908'
S'Shukria Barakzai'
tp465
a(S'100000831826139'
S'Latif Sahak'
tp466
a(S'100001524207225'
S'Ashraf Tarin'
tp467
a(S'100000564161652'
S'Kamran Khan'
tp468
a(S'100005179862922'
S'Attaullah Wesa'
tp469
a(S'100001693669256'
S'Mirwais Mosazai'
tp470
a(S'100003462885694'
S'Haris Jamalzada'
tp471
a(S'100003974589720'
S'Fazal Bangash'
tp472
a(S'100000209660451'
S'Mirwais Ahmadzai'
tp473
a(S'100003659347143'
S'Naeemullah Mostaqeem'
tp474
a(S'100003552387128'
S'Waheedullah Arghandiwal'
tp475
a(S'100003880275676'
S'Shukrullah Samoon Safi'
tp476
a(S'1349401365'
S'Jelani Zwak'
tp477
a(S'100002584659649'
S'Suliman Sayed'
tp478
a(S'100002187152953'
S'Gual Makay'
tp479
a(S'100004418403312'
S'Salauddin Shozan'
tp480
a(S'100001430866191'
S'Mohammad Abduh'
tp481
a(S'100004115041745'
S'Ahsanullah Sahak'
tp482
a(S'100001037451237'
S'Seliman Pushtonyar'
tp483
a(S'100000638433084'
S'Ashiq Ullah'
tp484
a(S'100004377392323'
S'Mahbobullah Khan'
tp485
a(S'100003590976312'
S'Ahmad Khan'
tp486
a(S'100008171294400'
S'\\u0648\\u0627\\u0698\\u0645\\u0647 \\u0631\\u0648\\u0641\\u064a'
tp487
a(S'100003216471575'
S'Abdul Rahim'
tp488
a(S'100001924051107'
S'Peer Ahmad'
tp489
a(S'100003025749220'
S'Khalid Hazrati'
tp490
a(S'100001738325681'
S'Hameed Afghan Hotak'
tp491
a(S'100003338886930'
S'Yaqub Khan'
tp492
a(S'100003111610990'
S'Majeed Qarar'
tp493
a(S'100001743858034'
S'Abdul Raziq'
tp494
a(S'100000340820347'
S'Abass Noorzai'
tp495
a(S'100005362205680'
S'Abdul Wali Safi'
tp496
a(S'100000629361345'
S'Muhammad Akram G Lala'
tp497
a(S'100006687069675'
S'Gloves Pst'
tp498
a(S'1091346659'
S'Wais Amiree'
tp499
a(S'690613833'
S'Israr Sharif'
tp500
a(S'100002616696402'
S'Rafiuddin Najam'
tp501
a(S'100007756327269'
S'Mohammad Yousuf'
tp502
a(S'100002535494541'
S'Zabi Akbari'
tp503
a(S'100002176207021'
S'\\u0642\\u064a\\u0648\\u0645 \\u0642\\u064a\\u0648\\u0645\\u064a'
tp504
a(S'100008255025993'
S'Nasru Khan'
tp505
a(S'100000784691790'
S'Wesal Noori'
tp506
a(S'100007897025434'
S'Sameera Nasiry'
tp507
a(S'100001121583647'
S'Abdullah Salamzada'
tp508
a(S'100006459226424'
S'Imad Uddin Khawreen'
tp509
a(S'100001967965049'
S'Sami Ul Haq'
tp510
a(S'100001263428361'
S'Patman MJ'
tp511
a(S'100007056068117'
S'Safir Ahmadzai'
tp512
a(S'100006467568052'
S'\\u0627\\u0646\\u062f\\u06cc\\u0634\\u0647 \\u0646\\u0648\\u06cc\\u0646 \\u062c\\u0648\\u0627\\u0646\\u0627\\u0646 \\u0627\\u0641\\u063a\\u0627\\u0646\\u0633\\u062a\\u0627\\u0646'
tp513
a(S'100004536063175'
S'Shirahmad Saadat'
tp514
a(S'100002682767352'
S'Yasir Niazi'
tp515
a(S'100006474547195'
S'Saide Ajmal Ahmadee'
tp516
a(S'100004668012925'
S'Jan Mohammad Sayed'
tp517
a(S'100003105016152'
S'Samsor Ismail Aram'
tp518
a(S'100006363822545'
S'Kamran Khan'
tp519
a(S'763710817'
S'Asad Ziar'
tp520
a(S'100004099180560'
S'Joan Cisneros'
tp521
a(S'100002725261736'
S'Sabawoon Gardiwall'
tp522
a(S'100002079426884'
S'Nazir Ahmad Kharoty'
tp523
a(S'100004625617154'
S'Asadullah Jan'
tp524
a(S'100007675682906'
S'Ajmal Sahak'
tp525
a(S'100002642072534'
S'Latif Nangarhari'
tp526
a(S'100001513560030'
S'Said Noorulhaq Haydaryar'
tp527
a(S'100008370932858'
S'Ziaratgul Qalamyar'
tp528
a(S'100003687859293'
S'Rahat Yousafzai'
tp529
a(S'558233356'
S'Hazrat Ayubi'
tp530
a(S'1274501670'
S'\\u0627\\u0628\\u0648 \\u062c\\u0627\\u0648\\u06cc\\u062f \\u06a9\\u067c\\u0648\\u0627\\u0632\\u06cc'
tp531
a(S'100001833868296'
S'Safiullah Ahmadzai'
tp532
a(S'100000501976069'
S'Muneerahmad Neaze'
tp533
a(S'100002462332674'
S'Mahmoud Karzai'
tp534
a(S'100007682534201'
S'Mohammad Rafeq Ludin'
tp535
a(S'1552468059'
S'Nasim Danish'
tp536
a(S'1528814373'
S'Abdullah Amiryar'
tp537
a(S'100002425648129'
S'Zubair Ahmadi'
tp538
a(S'100004341608893'
S'Rasheed Omarzai'
tp539
a(S'100005945377613'
S'Mursal Wida'
tp540
a(S'100004041849334'
S'Matiullah Malakzay'
tp541
a(S'100000753331511'
S'Hamed Elmi'
tp542
a(S'100004018242555'
S'Arman Khan'
tp543
a(S'100003733087357'
S'Javid Kkan'
tp544
a(S'100002292526608'
S'\\u0631\\u062d\\u0645\\u062f\\u064a\\u0646 \\u0627\\u0641\\u063a\\u0627\\u0646'
tp545
a(S'100000721846922'
S'Aftab Alam'
tp546
a(S'100002632034757'
S'Abdul Salam Khan'
tp547
a(S'100000118654980'
S'Khalilullah Khan'
tp548
a(S'100000874871721'
S'Kareem Shinwari'
tp549
a(S'100003922290010'
S'Najeeb Ullah'
tp550
a(S'100000685664229'
S'Maluf Ashrafi'
tp551
a(S'100005094575924'
S'Asif Mazloom'
tp552
a(S'100002442313513'
S'Rohullah Alizai'
tp553
a(S'100004081698564'
S'Zahir Mahbob'
tp554
a(S'546903514'
S'Sediq Amarkhil'
tp555
a(S'100000469869535'
S'Omer Alkozai'
tp556
a(S'100001998852710'
S'\\u062e\\u0648\\u0633\\u062a \\u0643\\u0644\\u064a\\u062f \\u0631\\u0627\\u0689\\u06cc\\u0648'
tp557
a(S'100004682621009'
S'Sayed Fazlullah Wahidi'
tp558
a(S'100001953264540'
S'Ramin Hakimee'
tp559
a(S'100003700727065'
S'Shaikh Zahid Khan'
tp560
a(S'100002110958249'
S'Amal Badsha'
tp561
a(S'100003289714553'
S'Tamim Dostyar'
tp562
a(S'100003884767077'
p563
S'Walasi Khan'
tp564
a(S'100001364766556'
S'Dabbang Zazai'
tp565
a(S'100000706745179'
S'Javed Ahmadi Zakhil'
tp566
a(S'100002217865994'
S'Naseem Mirzakwal'
tp567
a(S'100006620078477'
S'Rahmatullah Khan'
tp568
a(S'100004277622352'
S'Asmat Dilsoz'
tp569
a(S'100001479040659'
S'Sami Patman'
tp570
a(S'100007854575633'
S'\\u0648\\u06a9\\u06cc\\u0644 \\u0645\\u0631\\u062f\\u0645 \\u0686\\u0647\\u0627\\u0631\\u062f\\u0647\\u06cc'
tp571
a(S'100003848404848'
p572
S'North Afghanistan'
tp573
a(S'100008018412808'
S'Hazrat Hussain'
tp574
a(S'100002252525229'
S'Hamid Amir HA'
tp575
a(S'100005466816196'
S'Hameed Khan'
tp576
a(S'100003022641625'
S'\\u0645\\u062d\\u0645\\u062f \\u0635\\u0627\\u062f\\u0642 \\u06a9\\u0627\\u06a9\\u0693'
tp577
a(S'100005083597251'
S'Qazi Fahad'
tp578
a(S'100002879208283'
S'Tahir Jalil'
tp579
a(S'100003776880750'
S'Shafaq Katawazai Khan'
tp580
a(S'100000808263734'
S'Janan Zazai'
tp581
a(S'100007678930795'
S'Zelikha Amiri'
tp582
a(S'100001999433900'
S'Haris Rahimi'
tp583
a(S'100003489276006'
S'Zarijan Shinwari'
tp584
a(S'606898893'
p585
S'Haroun Mir'
tp586
a(S'100003782201582'
p587
S'Jan Muhammad Momand'
tp588
a(S'100002122101759'
S'Khalil Raufi'
tp589
a(S'100004864362653'
S'Cricket Twenty-four'
tp590
a(S'100007106790163'
S'Gulabshah Shakiri'
tp591
a(S'100002042128037'
S'Fazal Rabi Hameem'
tp592
a(S'100004013366132'
S'Banaras Rahimi'
tp593
a(S'100003502468523'
S'Hasib Yousefi'
tp594
a(S'1567522845'
S'Malyar Safi'
tp595
a(S'100007595020074'
S'Wajedtanha Tanha'
tp596
a(S'100005404264822'
S'Haji Mohammad Zahir Ahmadzai'
tp597
a(S'100004748882444'
S'Mohammad Rafi Wardak'
tp598
a(S'100002333555234'
S'Shaheed Stoor Ismailzai'
tp599
a(S'100002069929887'
S'Ahmad Zia Masoomi'
tp600
a(S'100003182405931'
S'Rustam Chahaabi'
tp601
a(S'100002228113619'
S'\\u06ab\\u067e \\u0634\\u067e'
tp602
a(S'100001253374447'
S'Aimal Hotak'
tp603
a(S'100006955329848'
S'Hasib Shahi'
tp604
a(S'100001362591505'
S'Zmaray Baher'
tp605
a(S'100002204416791'
S'Ar Kaz'
tp606
a(S'100004326971949'
S'Nasib Angar'
tp607
a(S'100000707670455'
S'\\u0630\\u0648\\u0627\\u0644\\u0642\\u0631\\u0646\\u06cc\\u0646 \\u0646\\u0639\\u06cc\\u0645\\u0632\\u0626\\u06d2'
tp608
a(S'100003782271602'
S'Farhad Afghan'
tp609
a(S'100002193779168'
S'\\u0647\\u06d0\\u0648\\u0627\\u062f \\u067c\\u0644\\u0648\\u06d0\\u0632\\u06cc\\u0648\\u0646'
tp610
a(S'100003868621843'
S'Fawzia Koofi'
tp611
a(S'100002502355423'
S'\\u0641\\u0631\\u0647\\u0627\\u062f \\u0639\\u0644\\u06cc'
tp612
a(S'100003995136032'
S'\\u0633\\u0647\\u0627\\u0631\\u06ab\\u0644 \\u0627\\u0645\\u064a\\u0631\\u0632\\u0649'
tp613
a(S'100000808051889'
S'Inam Hosa'
tp614
a(S'100003108724861'
S'Aryoub Zazai'
tp615
a(S'100003440577858'
S'Princess Talwsa'
tp616
a(S'100005614923282'
S'Wahdat Ibrahimi'
tp617
a(S'1579671490'
S'Nazeer Durrani'
tp618
a(S'100001971818071'
S'Nastaran Yildiz'
tp619
a(S'100004906333076'
S'Tamim Ansari'
tp620
a(S'100003340649055'
S'Ahmadkhalid Amarkhil'
tp621
a(S'100004731938090'
S'Amanullah Allmiwardak'
tp622
a(S'1465717023'
S'Lakarwal Shinwari'
tp623
a(S'100002516417128'
S'Sayed Surkhrodi'
tp624
a(S'100000283473267'
S'Mir Abdullah Miri'
tp625
a(S'1234343345'
S'Sediq Quiam'
tp626
a(S'100001983774292'
p627
S'Uroj Momand'
tp628
a(S'100001937327033'
S'Sami Wahdat'
tp629
a(S'100006672305528'
S'Ahsanullah Shahi'
tp630
a(S'100003242483937'
S'Ahmad Hotak'
tp631
a(S'100002457880942'
S'Hafeez Popal'
tp632
a(S'100002187715723'
S'Anayat Ghazi'
tp633
a(S'100001867200751'
S'Safurahman Safi'
tp634
a(S'100002703986381'
S'Sabbar Khan'
tp635
a(S'784066795'
S'Asif Nang'
tp636
a(S'100005083151409'
S'Aimal Lodin'
tp637
a(S'100006491941365'
S'Mohammad Ehsani'
tp638
a(S'1818774871'
S'Faridzubir Andish'
tp639
a(S'100003937742388'
S'Emal Hamdard'
tp640
a(S'100002797589009'
S'Arif Safari'
tp641
a(S'100000213716219'
S'Rahim Gul Sarwan'
tp642
a(S'100001629818085'
S'Kimberly Montano'
tp643
a(S'100002805853574'
S'Sabawoon Jamdar'
tp644
a(S'100000874627406'
S'Syed Hussain Fareed'
tp645
a(S'100004060614842'
S'Setanin Yassan'
tp646
a(S'100002501118969'
S'Akram Zakhilwal'
tp647
a(S'100004430643616'
S'\\u062d\\u0631\\u06a9\\u062a \\u0632\\u0639\\u0627\\u0645\\u062a \\u0645\\u0644\\u06cc \\u0627\\u0641\\u063a\\u0627\\u0646\\u0633\\u062a\\u0627\\u0646'
tp648
a(S'100002240560762'
S'\\u0634\\u0631\\u0631 \\u0633\\u0627\\u067e\\u064a'
tp649
a(S'100001620478766'
S'Aminullah Mandozai'
tp650
a(S'100002607895354'
S'Rahmanullah Musazai'
tp651
a(S'100003312283038'
S'Amanullah Muskan'
tp652
a(S'100007282329104'
S'Omaid Masavir'
tp653
a(S'100003801619361'
S'Tamim Entezar'
tp654
a(S'100003946204821'
S'Waheed Ahmadzai'
tp655
a(S'100006989896462'
S'Abdul Ali Noorzai'
tp656
a(S'100001291886761'
S'Emal Sherzad'
tp657
a(S'100002593083941'
S'Baz Stanikzai'
tp658
a(S'100007546775711'
S'Saboor Khan'
tp659
a(S'100005530450973'
S'Anwar Takor'
tp660
a(S'100003380143683'
S'Ali Waqar'
tp661
a(S'100004473042000'
S'Shekib Arbab'
tp662
a(S'100003247578508'
S'Qasim Ibrahimi'
tp663
a(S'100001978578924'
S'Mahamd Romal Nikzad'
tp664
a(S'100000606028981'
S'Farishta Afghani Khan'
tp665
a(S'1290122314'
S'Farhad Salarzai'
tp666
a(S'100004464551732'
S'Mashal Khan Arab'
tp667
a(S'100000966705968'
S'Nasir Fagar'
tp668
a(S'100002537591833'
S'Speen Gharfm'
tp669
a(S'100005148931393'
S'Jawad Akbari'
tp670
a(S'100005890440415'
S'Haji Ameeruddin Hasamy'
tp671
a(S'100000469427169'
S'Khaliqi Jaweed'
tp672
a(S'100001686275104'
S'Mohammed Haneef Atmar'
tp673
a(S'100000030159141'
S'Wais Sameem'
tp674
a(S'100002504366584'
S'Shafiq Ahmadzai'
tp675
a(S'100002988078676'
S'Hafiz Wazir'
tp676
a(S'100002963448613'
S'Khalid Sameer A'
tp677
a(S'100008316160341'
S'Zabi Sadaat'
tp678
a(S'656766712'
S'Samir Rassoly'
tp679
a(S'100001706704553'
S'Ali Shah Zarifi'
tp680
a(S'100004580761330'
S'Parince Paktia'
tp681
a(S'100000907001903'
S'Wahid Kabul'
tp682
a(S'100003748606116'
S'Basirahmad Harooni'
tp683
a(S'100001306104786'
S'Sharon Carillo'
tp684
a(S'100004311697102'
S'Iqbal Shah'
tp685
a(S'100000304686645'
S'Rafiullah Sahak'
tp686
a(S'100003777096948'
S'Pakhto Zalanda Tolana'
tp687
a(S'100002358910154'
S'Soniell Habiby'
tp688
a(S'100002010171979'
S'Bashir Ahmed Afghan'
tp689
a(S'100003621531463'
S'\\u0632\\u0645\\u0627\\u0646 \\u0632\\u0648\\u06cc \\u0627\\u0644\\u0645\\u0631\\u0648\\u0627\\u0644'
tp690
a(S'1162240406'
S'Afan Khan'
tp691
a(S'100004044651562'
S'Jawad Khan'
tp692
a(S'758898855'
p693
S'Nooristani Nooristani'
tp694
a(S'1086668926'
S'Nasim Alamzai'
tp695
a(S'100002441522834'
S'Ali Eftekhari'
tp696
a(S'100002037883114'
S'Shahab Nasiri'
tp697
a(S'100003990097149'
S'Afghan Tiger'
tp698
a(S'100004238221513'
S'Mohammad Azim Erfan'
tp699
a(S'100002915878299'
S'Ahmad Sabir Arafat'
tp700
a(S'100001516251693'
S'Ghousi Sayeed'
tp701
a(S'100006432909401'
S'Naweed Ahmad Ahmadi'
tp702
a(S'100003224447381'
S'Zhakfar Hosaini'
tp703
a(S'100004778313702'
S'\\u0648\\u062f\\u0627\\u0646 \\u0627\\u0641\\u063a\\u0627\\u0646\\u0633\\u062a\\u0627\\u0646'
tp704
a(S'100003365377318'
S'\\u0641\\u0648\\u0627\\u062f \\u062e\\u0648\\u0634 \\u0646\\u0635\\u064a\\u0628'
tp705
a(S'1110395775'
S'Samiullah Jalalzai'
tp706
a(S'1851822094'
S'Rasheed Safi'
tp707
a(S'100000728785072'
p708
S'Sayed Yama Alimi'
tp709
a(S'100003807707131'
S'Nawed Khan Malkzai'
tp710
a(S'100000516691964'
S'Najibollah Raufy Najibullah'
tp711
a(S'100005692381241'
S'Aimal Mahbooi'
tp712
a(S'100001353666299'
S'Habibzai Aziz'
tp713
a(S'100003257910692'
S'Saqib Abdulhaq'
tp714
a(S'100001614643342'
S'Jalil Afghan'
tp715
a(S'100003280826740'
S'Asadullah Deilsose'
tp716
a(S'100005426261438'
S'Ziaudeen Ali'
tp717
a(S'100000748240172'
S'Samiullah Rohani'
tp718
a(S'100001475042946'
S'Erfan Khan'
tp719
a(S'100006314311924'
S'Mohebullah Popalzai'
tp720
a(S'100001983998255'
S'\\ufee3\\ufeae\\ufef3\\ufee2 \\ufea7\\ufee4\\ufeee\\ufeb5'
tp721
a(S'100006013115563'
S'Habib Ahmadzai'
tp722
a(S'1396375507'
S'Meerwais Saahoo'
tp723
a(S'100002010586584'
S'Abdulrahim Musazai'
tp724
a(S'100002846754496'
S'Wahdatullah Seerat'
tp725
a(S'1104976596'
S'Tahir Safi'
tp726
a(S'100001476020031'
S'Eng Mohammad Arif Noorzai'
tp727
a(S'100000930009588'
S'Anayat Khan Deedar'
tp728
a(S'100000562289028'
S'Qais Sherifzai'
tp729
a(S'100003656305670'
S'Siawash Zimny'
tp730
a(S'100007266216801'
S'Malem Jan Sherzai'
tp731
a(S'1460566171'
S'Qais Nasimi'
tp732
a(S'100002538376973'
S'Edriss Rahin'
tp733
a(S'100002357457168'
S'\\u0641\\u0636\\u0644 \\u0627\\u0644\\u0631\\u062d\\u0645\\u0646 \\u0627\\u0648\\u0631\\u06cc\\u0627'
tp734
a(S'100004313254365'
S'Sabawoon Sadiq'
tp735
a(S'100002926393809'
S'Tazagul Zadran'
tp736
a(S'100001380940679'
S'Baber Khan Sahel'
tp737
a(S'100000053352522'
S'Siar Sohrab'
tp738
a(S'100007009479306'
S'Mirwais Waziri'
tp739
a(S'100004972801856'
S'Safiullah Arghand'
tp740
a(S'100001257534591'
S'Bashir Ahmad Samim'
tp741
a(S'100003822163250'
S'Khurshid Khan'
tp742
a(S'100003517655710'
S'En Wahaidullah Farahmand'
tp743
a(S'100007274737728'
S'Afghan Mma'
tp744
a(S'100001078104191'
S'Awal Khan'
tp745
a(S'590060161'
S'Kamal Khan'
tp746
a(S'100002525751334'
S'Mustafa Khaibar'
tp747
a(S'1220842441'
S'Rahim Jawhar'
tp748
a(S'100003030280280'
S'Obaidullah Niazai'
tp749
a(S'100002296144664'
S'Janmohammad Akbari'
tp750
a(S'100004152611021'
S'Sifatullah Talwar'
tp751
a(S'100001976430823'
S'\\u0681\\u0644\\u0627\\u0646\\u062f\\u067e\\u069a\\u062a\\u0648\\u0646 \\u0648\\u0631\\u062f\\u06ab'
tp752
a(S'100000949584770'
S'Haybatullah Zurmatai'
tp753
a(S'100000816634210'
S'Shamshad Khan'
tp754
a(S'100001540043848'
S'Zabih Ahmadi'
tp755
a(S'100003404104105'
S'Afghanan InOzland'
tp756
a(S'100005339434428'
S'Naqibullah Oryakhail'
tp757
a(S'100003460101122'
S'Afghanistan Real Voice'
tp758
a(S'100006062012595'
S'Sliman Obidi'
tp759
a(S'1648326962'
S'Hanif Honey'
tp760
a(S'100001082344169'
S'Sayed Jawed Sadat'
tp761
a(S'724571976'
S'Habib Amiri'
tp762
a(S'100003322725000'
S'Matiullah Qureshi'
tp763
a(S'100004977965897'
S'Obaid Miakhel'
tp764
a(S'100003658617286'
S'Ibrahim Amiri'
tp765
a(S'100001502857140'
S'Monira Yousefzada'
tp766
a(S'100003406454632'
S'Khaled Salamzada'
tp767
a(S'100001041200593'
p768
S'Mirwais Ashraf'
tp769
a(S'100002778251565'
S'Abdul Mohammad A'
tp770
a(S'100000802370499'
S'Hemmatullah Misaq Mohammadi'
tp771
a(S'100007351294513'
S'Obaidullah Oria'
tp772
a(S'100000067339789'
p773
S'Omid Farooq'
tp774
a(S'100001635691390'
S'Mohammad Ayoub Salangi'
tp775
a(S'100004518900228'
S'Taib Hamidi'
tp776
a(S'100001275676500'
S'Shams Shinwari'
tp777
a(S'100001836609569'
S'Janat Mir Wardak'
tp778
a(S'756592986'
S'Mohammad Iqbal Hamdard'
tp779
a(S'100000245894214'
S'Ahmad Farhad Habib'
tp780
a(S'100004615322199'
S'Happy Ecco'
tp781
a(S'100003757712045'
S'Qamar Gul'
tp782
a(S'100005008239294'
S'Hashmat Omid'
tp783
a(S'100003540725681'
S'Zargai Safi'
tp784
a(S'100005464472071'
S'Shahid Sameerzai'
tp785
a(S'100002636152447'
S'Jalal Mahmoodi'
tp786
a(S'100004099512803'
p787
S'Zarmina Popal Popal'
tp788
a(S'1363235034'
S'Rafiullah Mandokhail'
tp789
a(S'100002934575080'
S'Afghancar Afghankhana'
tp790
a(S'100003856555622'
S'Alikhan Ashrafi'
tp791
a(S'100004017735427'
S'Maryam Nazanin'
tp792
a(S'100003129964546'
S'Allkhanan Afghanistan'
tp793
a(S'100003577476207'
S'Sayd Raza Wafa'
tp794
a(S'100005822949395'
S'Sumaira Ali Khan'
tp795
a(S'100002141637378'
S'Aseel Oryakhil'
tp796
a(S'100001702682939'
S'Da Yarano Yar'
tp797
a(S'100008022223581'
S'Imran Amiri'
tp798
a(S'100002786393846'
S'Laiq Shah Zadran'
tp799
a(S'100007586706006'
S'Amanullah Habibi'
tp800
a(S'100001848319016'
S'Samipaiwand Paiwand'
tp801
a(S'100001843356399'
S'Said Najibullah Sadaat'
tp802
a(S'100005374477545'
S'Mir Mohammad Shaker Sadaat'
tp803
a(S'100008072552373'
S'\\u0639\\u0632\\u06cc\\u0632\\u0647 \\u0648\\u0641\\u0627 \\u0627\\u062d\\u0645\\u062f\\u0632\\u06cc'
tp804
a(S'100000533862228'
S'Abdul Jalil Kamawi'
tp805
a(S'100000873979056'
S'Zabiullah Yousafzai'
tp806
a(S'100003621140202'
S'Azad Afghan'
tp807
a(S'100006065195310'
S'Shair Malang Ahmad Zai'
tp808
a(S'100001962579215'
S'Faisal Amarkhail'
tp809
a(S'100002851073642'
S'\\u0639\\u0628\\u062f\\u0627\\u0644\\u0645\\u062a\\u06cc\\u0646 \\u0628\\u0627\\u0628\\u0631'
tp810
a(S'100005943634220'
S'Javeed Amirkhil'
tp811
a(S'1228559155'
S'Muhammad Maher Sherzoy'
tp812
a(S'100000305596440'
S'Mirwais Omarkhil'
tp813
a(S'100002746174235'
S'Samir Samimi'
tp814
a(S'100003169290014'
S'Zalmai Wardak'
tp815
a(S'100002680195762'
S'Malyar Safi'
tp816
a(S'100002931549214'
S'Abu Huzifa Sabawoon'
tp817
a(S'100004858590440'
S'Nesar Break'
tp818
a(S'100002076011088'
S'Nadima Samemi'
tp819
a(S'100003536752430'
S'Tonia Salamzada'
tp820
a(S'100000985592472'
S'Arozo Afghani'
tp821
a(S'1267577929'
S'Assad Ghorzang Stanikzai'
tp822
a(S'100001649566268'
S'Rahmat Dewan'
tp823
a(S'100005013630492'
S'Hayatullah Miakhil'
tp824
a(S'100003238290207'
S'Naeem Khan'
tp825
a(S'100000441585689'
S'Qais Feroz'
tp826
a(S'100000692738844'
S'Rahmat Hasanzai'
tp827
a(S'100003723570527'
S'Kh M Nasir Sediqi'
tp828
a(S'100004656153742'
S'Ahmad Zia Miakhil'
tp829
a(S'100000489634355'
S'Farishta Sidiqi'
tp830
a(S'100003917040555'
S'Abdulqader Hotkhil'
tp831
a(S'1335813801'
S'Youssef Salamzada Aria'
tp832
a(S'100002471108576'
S'Feroz Bashari'
tp833
a(S'100004674011566'
S'Abdul Karim Afridi'
tp834
a(S'100004798269611'
S'Ayamuddin Omar'
tp835
a(S'100000012814578'
S'Zahid Karim Fazel'
tp836
a(S'100003112379182'
S'\\u0681\\u062f\\u0631\\u0627\\u0646 \\u062f\\u0631\\u0648\\u06cc\\u0634'
tp837
a(S'100000581903006'
S'Hakim Amar'
tp838
a(S'1169029351'
S'Shela Rezae'
tp839
a(S'100007565557861'
S'Neikmal Yoon'
tp840
a(S'100007980071036'
S'Parwiz Khelwat'
tp841
a(S'100005047692024'
S'Nesarr Ahmad Shahi'
tp842
a(S'100002401886833'
S'\\u0628\\u0631\\u0647\\u0627\\u0646 \\u0627\\u0644\\u062f\\u06cc\\u0646 \\u0628\\u0647\\u0631\\u0627\\u0645'
tp843
a(S'100004463850553'
S'Sumeera Naz'
tp844
a(S'100001016497688'
S'Kabul Afghan'
tp845
a(S'758154023'
S'Sayed Ihsan Taheri'
tp846
a(S'100007956901806'
S'Rashid Karimi'
tp847
a(S'1433414045'
S'Khushal Asefi'
tp848
a(S'100000765000444'
S'Shams Khalil'
tp849
a(S'100000691694420'
S'Hameed Nasery'
tp850
a(S'100007422760219'
S'Musafer Muhajer'
tp851
a(S'100001561279435'
S'Sharif Baha'
tp852
a(S'100001941373554'
S'Shirmohammad Haqyar'
tp853
a(S'100001263745021'
S'Khalid Nabizada'
tp854
a(S'100003596838686'
S'Hameed Khan'
tp855
a(S'100007773874794'
S'Nabela Danel'
tp856
a(S'100003653107163'
S'Sayad Satar Mahtabi'
tp857
a(S'100006088090524'
S'Hashmat Alizada'
tp858
a(S'100008114406027'
S'Abdul Qader Rashidi'
tp859
a(S'100003638874742'
p860
S'\\u0646\\u06cc\\u0644\\u0648\\u0641\\u0631 \\u0627\\u0628\\u0631\\u0627\\u0647\\u06cc\\u0645\\u06cc'
tp861
a(S'100007459655231'
S'\\u0627\\u0641\\u063a\\u0627\\u0646 \\u0645\\u0644'
tp862
a(S'100003810317390'
S'Sameer Adil'
tp863
a(S'100003610245650'
S'Noor Nasree'
tp864
a(S'100006691901784'
S'Shafiullah Jan Sahel'
tp865
a(S'100001121554866'
S'Asma Sakhi Aziz'
tp866
a(S'100003236692115'
S'Ali Khan'
tp867
a(S'100003560594750'
S'Tariq Ahmadzai'
tp868
a(S'100005431264817'
S'Khalid Lakanwal'
tp869
a(S'100002158961288'
S'\\u0641\\u0647\\u06cc\\u0645 \\u0641\\u0631\\u0648\\u0627\\u06a9'
tp870
a(S'100008112120340'
S'Ahmad Shah Morwat'
tp871
a(S'100002113955064'
S'Shafiullah Rehan'
tp872
a(S'100002316293805'
S'Maqbool Bangash'
tp873
a(S'100003524164633'
S'\\u0645\\u062c\\u06cc\\u0628 \\u0627\\u0644\\u062f\\u06cc\\u0646 \\u0631\\u0627\\u0633\\u062e'
tp874
a(S'100000613453389'
S'Mujahid Kakar'
tp875
a(S'100002455673537'
S'Saydullah Salam'
tp876
a(S'100003827083689'
S'\\u067e\\u069a\\u062a\\u0648 \\u062a\\u0644\\u0648\\u06d0\\u0632\\u064a\\u0648\\u0646'
tp877
a(S'100001539428667'
S'Mushtaq Ahmad Adil'
tp878
a(S'100002598099804'
S'Haji Mohammad Qahir Ahmadzai'
tp879
a(S'100002395307799'
S'Wasiq Hamim'
tp880
a(S'100001946176632'
S'Samreen Ali'
tp881
a(S'100000620916880'
S'Ahmad Jawid Sdiqi'
tp882
a(S'100001279321283'
S'Brand Jade'
tp883
a(S'100001052797608'
S'\\u0646\\u0648\\u0631\\u064a \\u0627\\u0631 \\u064a\\u0627\\u0646'
tp884
a(S'100003020954265'
S'Najibullah Saadat'
tp885
a(S'100002958746056'
p886
S'\\u0631\\u0645\\u0636\\u0627\\u0646 \\u0628\\u0634\\u0631 \\u062f\\u0648\\u0633\\u062a'
tp887
a(S'100002195962224'
S'Maihan Qanih'
tp888
a(S'100007482725317'
S'Anita Salamzada'
tp889
a(S'100001068759012'
S'Real Afghan'
tp890
a(S'100001687796111'
S'Haseen Gul Adel'
tp891
a(S'100003491772060'
S'Saif Urehman Sadiq'
tp892
a(S'100008199395865'
S'\\u062d\\u0627\\u062c\\u06cc \\u0645\\u062d\\u0645\\u062f\\u0638\\u0627\\u0647\\u0631 \\u0627\\u062d\\u0645\\u062f\\u0632\\u06cc'
tp893
a(S'100003511212397'
S'Mujeebrahman Darvesh'
tp894
a(S'100006139990789'
S'Ijazulhaq Omeri'
tp895
a(S'100001163086577'
S'Mehdi Esar'
tp896
a(S'100000493997206'
S'Wariskhan Hotak'
tp897
a(S'100003632984424'
S'Himmat Akmal'
tp898
a(S'100008063406202'
S'Abdelwasa Afghan'
tp899
a(S'100006411660993'
S'Gulalai Akbari'
tp900
a(S'100008245026958'
S'Abdelwasa Afghan'
tp901
a(S'100006405817041'
S'Gulalai Akbari'
tp902
a(S'100000813883107'
S'Imran Nazar'
tp903
a(S'100000666515375'
S'Omid Sharafat'
tp904
a(S'100008262630621'
S'Sahil Aryan'
tp905
a(S'1122488091'
S'Faisal Nadeem'
tp906
a(S'100005482546235'
S'Sania Kandahari'
tp907
a(S'100000081212178'
S'\\u0647\\u0627\\u0645\\u0648\\u0646 \\u062e\\u0645\\u0648\\u0634'
tp908
a(S'1270908325'
S'Zekria Barakzai'
tp909
a(S'100001954543298'
S'Ghafar Khan'
tp910
a(S'100003603799943'
S'Rohullah Safi'
tp911
a(S'100003047021547'
S'Aslam Khan Zowanmal'
tp912
a(S'100003676854051'
S'Wahidullah Latif Ghaznawi'
tp913
a(S'100006486156742'
S'Hedayatullah Khan Ghazali'
tp914
a(S'100003380470043'
S'Nura G Salihu'
tp915
a(S'100003201820088'
S'\\u0633\\u06cc\\u062f\\u0645\\u0644\\u0648\\u06a9 \\u067e\\u0633\\u0631\\u0644\\u06cc'
tp916
a(S'100002155381916'
S'Asad Khan'
tp917
a(S'100003304316539'
S'Suleman Sahil'
tp918
a(S'100004783149041'
S'Ashiqkhan Atiq'
tp919
a(S'100004123653513'
S'Parwiz Safi'
tp920
a(S'100003289035868'
p921
S'Abdul Karim Khurram'
tp922
a(S'100002124605798'
S'Khanjee Sani'
tp923
a(S'100003302563110'
S'Yousuf Anis'
tp924
a(S'100002536021517'
S'Mena Wardak'
tp925
a(S'100006086267837'
S'Atiqullah Soldiers'
tp926
a(S'100002238142905'
S'Gulagha Zamiri'
tp927
a(S'1834382660'
S'Raz Muhammad Akkakhel'
tp928
a(S'100007965554044'
S'Dua Hospital'
tp929
a(S'100000840683603'
S'Maryam Zadran'
tp930
a(S'100003370384395'
S'Bashir Sahil'
tp931
a(S'100004962755755'
S'Haji M Daoud Melma'
tp932
a(S'100002288915038'
S'Freedom Love'
tp933
a(S'100002335865785'
S'Deewa Afghan'
tp934
a(S'100002229969719'
S'Shah Sami'
tp935
a(S'100002259754765'
S'Ehsas Abid'
tp936
a(S'100004927841010'
S'\\u062d\\u0633\\u06cc\\u0646 \\u0639\\u0644\\u06cc \\u0631\\u0636\\u0627\\u06cc\\u06cc'
tp937
a(S'100005440422713'
S'G Mohammad Juma Adeel'
tp938
a(S'100008087252993'
S'Marwa Princess Kabol'
tp939
a(S'100001361750327'
S'Abdul Latif Qazizada'
tp940
a(S'100007785428570'
S'Zabeeullah Ahmadzai'
tp941
a(S'100008361908871'
S'\\u0634\\u0627\\u0647 \\u0645\\u062d\\u0645\\u0648\\u062f \\u0641\\u0627\\u0631\\u0648\\u0642\\u064a'
tp942
a(S'100003316380012'
S'Farhad Qaderi'
tp943
a(S'100004450383316'
S'Zargai Haidari'
tp944
a(S'100005293800508'
S'Sefatullah Kamawi'
tp945
a(S'100003175408954'
S'Abdul Mobin Hamdard'
tp946
a(S'100004544715138'
S'Haji Khan'
tp947
a(S'100003919734921'
S'Masoud Noori'
tp948
a(S'100003870997245'
S'Farid Noori'
tp949
a(S'100002766510915'
S'FaZal Noor'
tp950
a(S'100001215750786'
S'Hejrat Akhonzada'
tp951
a(S'100003260661246'
S'Nilam Sarwat'
tp952
a(S'100000649461494'
S'Sayed Nazeem Sayedi'
tp953
a(S'100003820826577'
S'Habibullah Mukhles'
tp954
a(S'100006982541012'
S'Namatovu Jose'
tp955
a(S'100002934596233'
p956
S'\\u062a\\u0631\\u06cc\\u062e \\u062d\\u0642\\u06cc\\u0642\\u062a'
tp957
a(S'1782446039'
S'Saleem Hakimy'
tp958
a(S'100007795392978'
S'\\u0646\\u0627\\u0647\\u06cc\\u062f \\u062a\\u0646\\u0647\\u0627'
tp959
a(S'100003957493744'
S'Ahmad Jamalzai'
tp960
a(S'100004047571589'
S'\\u0633\\u0644\\u064a\\u0645 \\u0633\\u0644\\u064a\\u0645\\u0627\\u0646'
tp961
a(S'100006267395361'
S'Zia Nangyaal'
tp962
a(S'100000773523700'
S'Irfan Ullah Ayubi'
tp963
a(S'100002660477285'
S'Jalaludin Durrani'
tp964
a(S'100000876889213'
S'Kochai Afghan'
tp965
a(S'100001216087404'
S"Chellip'z Vegaquis Sanar"
tp966
a(S'100004343641923'
S'Nooragha Haqyar'
tp967
a(S'100001735850021'
S'Abdul Qadir Zadran'
tp968
a(S'100002473002595'
S'Ezatullah Joya'
tp969
a(S'100003947063113'
S'Ashraf Zadran'
tp970
a(S'100005615885753'
S'Zahidkhan Paghmani'
tp971
a(S'100000330917295'
p972
S'\\u0648\\u0631\\u062f\\u06ab \\u0632\\u062f\\u0647 \\u06a9\\u0648\\u0648\\u0646\\u06a9\\u064a'
tp973
a(S'100000085302180'
S'Shapoor Bakhtiyar'
tp974
a(S'100008247186195'
S'Ishaq Khan'
tp975
a(S'100003117315049'
S'Fazel Rahim Fazli'
tp976
a(S'732207335'
S'Mirwais Rekab'
tp977
a(S'100002019934872'
S'Michelle Berzuela'
tp978
a(S'100003564260848'
S'Khalid Salamzada'
tp979
a(S'100003204185018'
S'Naqeebullah Nazari'
tp980
a(S'100002703350205'
S'Yousafzai Yousafzai'
tp981
a(S'100000389368692'
S'Naghma Jaan'
tp982
a(S'100001163877161'
S'Mohammad Hassan Khetab'
tp983
a(S'100002180751965'
S'Badam Khan'
tp984
a(S'100002765001991'
S'Sharma Jee'
tp985
a(S'100002211510582'
S'Mahsa Tanha'
tp986
a(S'1366681298'
S'Hematullah Aminzay'
tp987
a(S'100006566836431'
S'Abdulbasit Atai'
tp988
a(S'100007844885977'
S'\\u0634\\u0648\\u0631\\u0627\\u06cc \\u0645\\u0631\\u062f\\u0645 \\u0686\\u0647\\u0627\\u0631\\u062f\\u0647\\u06cc \\u06a9\\u0627\\u0628\\u0644'
tp989
a(S'100008158114596'
S'Razeq Yar'
tp990
a(S'100003586435598'
S'Asif Afridi'
tp991
a(S'100001436895942'
S'Sh\\u00e1z\\u00e1d\\u00e1 St\\u00ffl\\u00ebg\\u00e4k T\\u014dO\\u014d'
tp992
a(S'100003555756165'
S'Jelani Popal'
tp993
a(S'100001088162171'
S'Masiullah Shoja'
tp994
a(S'100006884198214'
S'Shukrullah Orya'
tp995
a(S'100001683276779'
S'Anwar Afghan'
tp996
a(S'100001461496107'
S'Abdul Waheed Paktiawal'
tp997
a(S'100006453082616'
S'Shahre Yar Ali Ghfoori'
tp998
a(S'100000464922545'
S'Obaidullah Hussam'
tp999
a(S'100007442800248'
S'Tsc Afghanistan'
tp1000
a(S'100006714786687'
S'Farhad Saboorzai'
tp1001
a(S'100002598536906'
S'Said Ibrar Pacha'
tp1002
a(S'100000142271308'
S'Waheed Ahmadi'
tp1003
a(S'100003669827933'
S'Awrang Mukhtar'
tp1004
a(S'100002808355187'
S'Atef Khan'
tp1005
a(S'100001367418613'
S'Naqeeb Achak'
tp1006
a(S'100005090766470'
S'Hasibullah Sahil Wardak'
tp1007
a(S'100003662047074'
S'Abdullah Shaniwar'
tp1008
a(S'100000339080113'
S'Ajmal Mateen'
tp1009
a(S'852430011'
S'Janan Mosazai'
tp1010
a(S'100007691773017'
S'Abdullah Nawabi'
tp1011
a(S'100003318690023'
S'Haji Abdul Zahir Qadir'
tp1012
a(S'100003286866391'
S'Gulab Hasamy'
tp1013
a(S'100003700331081'
S'Marwan Jan'
tp1014
a(S'100004106113984'
S'Jawad Qalamdost'
tp1015
a(S'1179968189'
S'Hekmat Khalil Karzai'
tp1016
a(S'1736730786'
S'Noor Mohammad Noor'
tp1017
a(S'100001108254813'
S'\\u0645\\u062d\\u0645\\u062f \\u0627\\u06a9\\u0628\\u0631 \\u0627\\u06a9\\u0628\\u0631\\u06cc'
tp1018
a(S'100000197240056'
S'Saifullah Sayil'
tp1019
a(S'100001424187311'
S'Musafer Qoqandi'
tp1020
a(S'100000317797130'
S'Imran Afridi'
tp1021
a(S'100001262204112'
S'Mohammad Ishaq Ayobi'
tp1022
a(S'100003110347503'
S'Habibullah Afghan'
tp1023
a(S'100002760755750'
S'Saleem Ahmadi'
tp1024
a(S'100004830972456'
S'Samiullah Dowezai'
tp1025
a(S'100002698758786'
S'Farid Ahmad Fazli'
tp1026
a(S'100000894896680'
S'Cherose Casimero'
tp1027
a(S'100004878756859'
S'Massoud Hiran'
tp1028
a(S'1480190035'
S'Waheed Jan'
tp1029
a(S'100002164396484'
S'Shairzay Andar'
tp1030
a(S'100002674640035'
S'Faridullah Mohammadi'
tp1031
a(S'100006542408618'
S'Hamid Khan Afghanyar'
tp1032
a(S'100001655910634'
p1033
S'Amanullah Iman'
tp1034
a(S'100002751408467'
S'Masoud Ebadi'
tp1035
a(S'100000797521509'
S'Ahmad Dawari'
tp1036
a(S'100000945274893'
S'Sabawoon Sadiq'
tp1037
a(S'100000839953586'
S'Nangialai Shirzad'
tp1038
a(S'682763020'
S'Kamal Sadat'
tp1039
a(S'100002102418140'
S'Rahmatullah Naseri'
tp1040
a(S'100003694390704'
S'Syed Shah Saud'
tp1041
a(S'100007200696836'
S'Roya Amiry'
tp1042
a(S'100003045298806'
S'Sarmad Gichki'
tp1043
a(S'100002662342169'
S'Khalid Rahmani'
tp1044
a(S'100007989312338'
S'\\u0639\\u0632\\u06cc\\u0632\\u0647 \\u0627\\u062d\\u0645\\u062f\\u0632\\u06cc'
tp1045
a(S'100003053131432'
S'Khalid Amiri'
tp1046
a(S'100000119878637'
S'Samim Haamid'
tp1047
a(S'100008216107554'
S'Waris Amarkhil'
tp1048
a(S'614833568'
S'Mohammad Mukhtar Omar'
tp1049
a(S'100004773547211'
S'Aziz Rafiee'
tp1050
a(S'100002318772173'
S'Hamid Salhi'
tp1051
a(S'100004052594183'
S'Rna  Storay'
tp1052
a(S'100002347337142'
S'Hamid Hassan'
tp1053
a(S'100004928266340'
S'Allauddin Khan'
tp1054
a(S'100000730312025'
S'Qudratullah Badloon'
tp1055
a(S'100003152699050'
S'Amir Mangal'
tp1056
a(S'100004860810220'
S'Emran Miakhail'
tp1057
a(S'100001656426132'
S'Nasir Ahmad'
tp1058
a(S'100004616083575'
S'Haqiqat Khan'
tp1059
a(S'100003178223314'
S'Muhammad Imran'
tp1060
a(S'100006502505841'
S'Sami Ullah Karimi'
tp1061
a(S'100004196971767'
S'Abdull Ghafoor Sangin Ashrati'
tp1062
a(S'1316564600'
S'Naseera Moheb'
tp1063
a(S'100006743973292'
S'Zabi Hiwadwal'
tp1064
a(S'100001120301728'
S'Mohammad Nazar Katawazai'
tp1065
a(S'532274047'
S'S Sajid Yousafzai'
tp1066
a(S'100002934533827'
S'\\u0646\\u0646 \\u0627\\u06d0\\u0641 \\u0627\\u06d0\\u0645 \\u0631\\u0627\\u0689\\u064a\\u0648'
tp1067
a(S'100000246382769'
S'Masoud Jan'
tp1068
a(S'100000423748598'
S'Malditang Pasaway'
tp1069
a(S'100001702452387'
S'Hewad Shagiwall'
tp1070
a(S'100004825958820'
S'Fardeen Nawabi'
tp1071
a(S'100007511883898'
S'Ramin Sangar'
tp1072
a(S'100000595598568'
S'Azizi Flim Produation Kandahar'
tp1073
a(S'100003314216958'
S'Almas Mohmand'
tp1074
a(S'100001457035832'
S'Marites Distor'
tp1075
a(S'100004443963342'
S'Irfanullah Gardewal'
tp1076
a(S'100004283142124'
S'Dost Mohammad Hadid'
tp1077
a(S'100003555944715'
S'Ahmad Yama Delawer'
tp1078
a(S'100006886747865'
S'Omid Ahadi'
tp1079
a(S'100008071932147'
S'Himat Tanha'
tp1080
a(S'100004789534915'
S'Ehsan Ahmadi'
tp1081
a(S'100002669213686'
p1082
S'Aryan Afghan'
tp1083
a(S'100007804209308'
S'Shakib Mukhlas'
tp1084
a(S'100000414842385'
p1085
S'Faisal Nazarkhel'
tp1086
a(S'100003242837062'
S'Bagay Khan Afghan'
tp1087
a(S'100002014374311'
S'Peroz Afandi'
tp1088
a(S'100002058837312'
S'Bashir Ahmad Kandahari'
tp1089
a(S'100002426895218'
S'Ajmal Hotak'
tp1090
a(S'100003770644768'
S'Shabir Noori'
tp1091
a(S'100000504892239'
S'\\u0645\\u062d\\u0645\\u0648\\u062f \\u0633\\u0639\\u06cc\\u062f'
tp1092
a(S'100003109661248'
S'Mirwais Noori'
tp1093
a(S'100005644800289'
S'Azizurahman Safi'
tp1094
a(S'100003470840014'
S'Idrees Shagiwal'
tp1095
a(S'100002173596358'
S'Khalil Arghistani'
tp1096
a(S'100004539363444'
p1097
S'Mely Newsroom'
tp1098
a(S'100004612057841'
S'Imran Fazly'
tp1099
a(S'735570577'
S'Nasim Mohammad Pakhtoon'
tp1100
a(S'100002630133079'
S'Shazia Popal'
tp1101
a(S'100004595222705'
p1102
S'\\u0646\\u0639\\u0645\\u062a \\u0627\\u0644\\u0644\\u0647 \\u0635\\u062f\\u064a\\u0642\\u064a'
tp1103
a(S'100001327910577'
S'Atiqullah Weqar'
tp1104
a(S'100001299928960'
S'\\u0631\\u0648\\u0628\\u06d0\\u0646\\u0647 \\u0634\\u06d0\\u0646\\u0648\\u0627\\u0631\\u06d0'
tp1105
a(S'100004240923719'
S'Matin Samsor'
tp1106
a(S'100002615404279'
S'Aziz Khan Hotak'
tp1107
a(S'100000068336698'
S'Masaood Akhtar'
tp1108
a(S'100006424635432'
S'Ajmal Tanha'
tp1109
a(S'100004052310052'
S'Akhtar Rambel'
tp1110
a(S'100003877302991'
S'\\u062f\\u0627\\u0643\\u062a\\u0631 \\u0639\\u0628\\u062f\\u0627\\u0644\\u0644\\u0647 \\u0639\\u0628\\u062f\\u0627\\u0644\\u0644\\u0647'
tp1111
a(S'100000611958780'
S'Naqibullah Mofaker'
tp1112
a(S'100001174742913'
S'Daoud Sharif'
tp1113
a(S'100001804822017'
S'Ahmad Naweed Azimi'
tp1114
a(S'100000612475716'
S'Hazrat Shah Khan'
tp1115
a(S'100004040899383'
S'Beanajeeb Bea Najeeb'
tp1116
a(S'100000556726457'
S'Izzat Ullah Hamdard'
tp1117
a(S'100005104716559'
S'Saber Khan'
tp1118
a(S'100003328612294'
S'Shafirahman Tassal'
tp1119
a(S'100006343390957'
S'Nasratullah Karimi'
tp1120
a(S'100003386258113'
S'Qari Zia'
tp1121
a(S'100003546536364'
S'Dost Ahmad'
tp1122
a(S'100003770001106'
S'Wasi Ullah'
tp1123
a(S'1370174054'
S'Ahmad Rafi Khairy'
tp1124
a(S'100004125490400'
S'Saima Jan'
tp1125
a(S'100005925242502'
S'Abdulalim Ibrahimi'
tp1126
a(S'100003628063242'
S'Hekmatullah Waqid'
tp1127
a(S'100001181266073'
S'Wakel Basiri'
tp1128
a(S'100005803870605'
S'Emal Amini'
tp1129
a(S'100002775940474'
S'Javed Samim'
tp1130
a(S'100003703105559'
S'Aman Ebru Naz'
tp1131
a(S'100001753312810'
S'Ibrahim Armani Katawazai'
tp1132
a(S'1273016765'
S'Karim Qayum'
tp1133
a(S'100002793069767'
S'Shaheed Ahmad Wali Karzai'
tp1134
a(S'100001364667143'
S'Atrc Afghanistan'
tp1135
a(S'670140616'
S'Riaz Ahmad Naimi'
tp1136
a(S'100000894633390'
S'Sami Khan Stanikzai'
tp1137
a(S'1685027403'
S'\\u0627\\u0645\\u06cc\\u0646 \\u0627\\u0644\\u0644\\u0647 \\u0627\\u0633\\u062d\\u0642 \\u0632\\u06cc'
tp1138
a(S'100000855021016'
S'Abdullah Habibzai'
tp1139
a(S'100005238780815'
S'Reshad Rhimi'
tp1140
a(S'100007048507544'
S'Political Opinion'
tp1141
a(S'100002770386496'
S'\\u0634\\u0631\\u0641 \\u0627\\u0644\\u062f\\u06cc\\u0646 \\u0639\\u0638\\u06cc\\u0645\\u064a'
tp1142
a(S'100001164771845'
S'Enayatullah Ibrahimkhel'
tp1143
a(S'100007964592020'
S'\\u0627\\u0648\\u0631\\u0627\\u0646\\u0648\\u0633 \\u0647\\u0645\\u0631\\u0627\\u0632'
tp1144
a(S'100004170674446'
p1145
S'Saahil Zazai'
tp1146
a(S'100006520727691'
S'Baryali Sultani'
tp1147
a(S'784640808'
S'Hikmat Sorosh'
tp1148
a(S'100000768773209'
S'Mirwais Ahmadi'
tp1149
a(S'100001807638597'
S'Zakria Afroz'
tp1150
a(S'100000118866107'
S'Baheer Ahmad'
tp1151
a(S'100001831554614'
S'Farida Ahmadi'
tp1152
a(S'100006061570697'
S'Nasrullah Aryan'
tp1153
a(S'100006597253715'
S'Noormal Alokozay'
tp1154
a(S'100005772303832'
S'Ata Mohammad Ata'
tp1155
a(S'100005799699343'
S'Mojtaba Bayat'
tp1156
a(S'100003386199325'
S'Meena Arezu'
tp1157
a(S'100007585890094'
S'Dawood Shah'
tp1158
a(S'100006966211989'
S'Faridoon Sulaimankhail'
tp1159
a(S'100005558807609'
S'Safiullah Ibrahimkhil'
tp1160
a(S'100007842219177'
S'Tahir Ahmadzai'
tp1161
a(S'100000426180062'
S'Mir Wais Gawhary'
tp1162
a(S'100006787085688'
S'Kabir Wali'
tp1163
a(S'100008339711588'
S'Sadam Wafa'
tp1164
a(S'100003025026912'
S'SayedAzam Sayedzada'
tp1165
a(S'100000124997086'
S'Walid Ahmad Jailani'
tp1166
a(S'100003275635491'
S'\\u062d\\u0645\\u06cc\\u062f\\u0647 \\u0648\\u0631\\u062f\\u06a9'
tp1167
a(S'100004235084417'
S'Tafkor Jawon'
tp1168
a(S'100006930964295'
S'Mir Husien Sadaat'
tp1169
a(S'100003219116486'
S'Farid Ahmad'
tp1170
a(S'1298479325'
S'Yama Siawash'
tp1171
a(S'100001108935446'
S'Shah Nawaz Miakheil'
tp1172
a(S'100003078167477'
S'Naiem Zahib'
tp1173
a(S'1363490726'
S'Zareen Zadah Esapzy'
tp1174
a(S'100001585633897'
S'Waheed Gharwal'
tp1175
a(S'626456343'
S'Khalid Amiri'
tp1176
a(S'100005486048772'
S'Arash Tanha'
tp1177
a(S'100003316492871'
S'Shoaib Ahmad Danish'
tp1178
a(S'100000955836187'
S'\\u0628\\u062e\\u062a \\u0635\\u062f\\u064a\\u0642\\u064a'
tp1179
a(S'100001747377398'
S'Lahore Jan Lakanwal'
tp1180
a(S'100001470987542'
S'Asil Hewadmal'
tp1181
a(S'604241863'
S'Amanullah Atal'
tp1182
a(S'100002049028509'
S'Sifatullah Rahmaty'
tp1183
a(S'100002813082150'
S'Ahmad Mansoor'
tp1184
a(S'100001160510836'
S'Natasha Afghan'
tp1185
a(S'100003089353356'
S'Tariqa Jamal'
tp1186
a(S'100002425947758'
S'\\u062c\\u0648\\u0627\\u0646\\u0627\\u0646 \\u0627\\u0646\\u0642\\u0644\\u0627\\u0628\\u06cc'
tp1187
a(S'100000254872793'
S'Hamid Tajik'
tp1188
a(S'100000364830594'
S'S Mohd Agha Hashime'
tp1189
a(S'1009720034'
S'Abdullah Ismailzada'
tp1190
a(S'100002485117143'
S'Zabi Habibi'
tp1191
a(S'100002057446345'
S'Sikandar Pashtun'
tp1192
a(S'100003880807619'
S'Qudosi Bizhan'
tp1193
a(S'100001511206653'
S'Hashmat Salhi'
tp1194
a(S'100008389500936'
S'Mohammad Daud Shah Ahmadzai'
tp1195
a(S'100004308817021'
S'Farid Zwak'
tp1196
a(S'1449289352'
S'Jamal Kakar'
tp1197
a(S'100003658006733'
S'Khalida Batool'
tp1198
a(S'100002363703010'
S'Imran Ahmadzai'
tp1199
a(S'100000616363027'
S'Maria Domingeuz'
tp1200
a(S'100004023751089'
S'Nematullah Tokhi'
tp1201
a(S'100007148520767'
S'Nadia Behboodi'
tp1202
a(S'100001193211325'
S'\\u0639\\u0628\\u06cc\\u062f\\u0627\\u0644\\u0644\\u0647 \\u067e\\u0648\\u067e\\u0644'
tp1203
a(S'100003490876838'
S'Tahir Khan'
tp1204
a(S'100007698133819'
S'Masood Noori'
tp1205
a(S'100005908355673'
S'Prince Massoud Unique'
tp1206
a(S'100003715966443'
S'Zalmai Zarrawar'
tp1207
a(S'100002024847351'
S'Ahmad Bilal Amini'
tp1208
a(S'1232871835'
S'Shafiullah Sahil'
tp1209
a(S'100004651449604'
S'Zaman Ziddi'
tp1210
a(S'1175890398'
S'Zabihullah Hoshmand'
tp1211
a(S'100006775537464'
S'Raza Khan'
tp1212
a(S'100000626457307'
p1213
S'Waris Hasrat'
tp1214
a(S'100003110345149'
S'\\u0425\\u0430\\u043d \\u0410\\u043b\\u0430\\u043c \\u0428\\u0430\\u0440\\u0438\\u0444\\u0438'
tp1215
a(S'100003844183383'
S'Nahid Shirzad'
tp1216
a(S'100004536606234'
S'District Behsod'
tp1217
a(S'100002766440003'
S'Kamal Afghan'
tp1218
a(S'100002095020192'
S'Khalilullah Stanikzai'
tp1219
a(S'100001728835298'
S'\\u0698\\u0645\\u0646 \\u0645\\u06cc\\u0631\\u0632\\u06a9\\u0648\\u0627\\u0644'
tp1220
a(S'100003583615072'
p1221
S'Rahmatulla Akhmadzai'
tp1222
a(S'100006475631609'
S'Abid Rahman Abid'
tp1223
a(S'100000579755210'
S'Najeebullah Anwarzoy'
tp1224
a(S'100003661448378'
S'Umar Armani'
tp1225
a(S'100001786872569'
S'Ismail Mohammadzai'
tp1226
a(S'100006452246289'
S'Ayaz Khan'
tp1227
a(S'100007011991760'
S'Afghan Peace'
tp1228
a(S'100001063247869'
p1229
S'Abdul Rab Rasul Sayaf'
tp1230
a(S'100003694155231'
S'Sali Mohammad'
tp1231
a(S'1123527076'
S'Obrang Gull'
tp1232
a(S'100002446485742'
S'Mustafa Ahmadzai'
tp1233
a(S'100004501264740'
S'Wasiq Ullah'
tp1234
a(S'100001543896524'
S'Samiullah Ahmadzai'
tp1235
a(S'100000489108759'
S'Ismail Khan'
tp1236
a(S'100000631184830'
S'Aurangzeb Yousafzi'
tp1237
a(S'100002244766710'
S'Melrose Dayang Sapico'
tp1238
a(S'100000288481442'
S'Ghulam Hassan Gran'
tp1239
a(S'100000490628161'
S'Sunmaka Sun'
tp1240
a(S'100003475258233'
S'Spogmay Azizi'
tp1241
a(S'100008245334047'
S'Prince Amiri'
tp1242
a(S'100001283690287'
S'Daud Hanif'
tp1243
a(S'100002486446865'
S'Masood Haqmal'
tp1244
a(S'100005176603919'
S'Niamat Ahmadzai'
tp1245
a(S'100005942500653'
S'Sherzaman Sherzad'
tp1246
a(S'100000629715352'
S'Wais Barakzai'
tp1247
a(S'100007638545439'
S'Shqayaq Samandar'
tp1248
a(S'100003819536880'
S'Khkuli Pukhtoonkhwa'
tp1249
a(S'100002276557065'
S'Dhoni Abdul Rahimzai'
tp1250
a(S'100005550104281'
S'Afzal Khan'
tp1251
a(S'100006666422814'
S'Ajmal Sediqi'
tp1252
a(S'100003264046817'
S'Lali Hamidzai'
tp1253
a(S'100003921016431'
S'Abdulrahman Khairkhwa'
tp1254
a(S'100001254252152'
S'Mohammad Farid Hotak'
tp1255
a(S'100002310814611'
S'Rafiq Kamalpori'
tp1256
a(S'1538012204'
S'Mustafa Oria'
tp1257
a(S'100002647824082'
S'\\u0635\\u062d\\u062a \\u0633\\u0645\\u0633\\u0648\\u0631'
tp1258
a(S'100002296637961'
S'Razmal Zaman'
tp1259
a(S'100000905143697'
S'Eng Samander'
tp1260
a(S'100002146127659'
S'Bhaby Trixy Brillantes'
tp1261
a(S'100001631564226'
S'Tasal Khan'
tp1262
a(S'100001701780453'
S'Mohammad Tanha'
tp1263
a(S'100002740972858'
S'Najmudeen Story'
tp1264
a(S'100000217417746'
S'Rohullah Naybi'
tp1265
a(S'100001505318120'
S'Abdul Khaleq Arghandewal'
tp1266
a(S'100002914992906'
p1267
S'Fahim Sediqi'
tp1268
a(S'100000246620213'
S'Ramesh Pirzai'
tp1269
a(S'100001019252377'
S'Ahmad Stanikzai'
tp1270
a(S'100003682305331'
S'Naqibullah Nesar'
tp1271
a(S'100001304580616'
S'Edris Momand'
tp1272
a(S'100003571493000'
S'Sabawoon Safi'
tp1273
a(S'100004031327547'
S'\\u0628\\u0633\\u0645 \\u0627\\u0644\\u0644\\u0647 \\u0634\\u0631\\u06cc\\u0641\\u06cc'
tp1274
a(S'100003487155016'
S'Songa Afghan'
tp1275
a(S'100005653721166'
S'Sharif Safi'
tp1276
a(S'100004009511207'
S'Naeem Turi'
tp1277
a(S'100003361374578'
S'Mohammad Nazif Sahil'
tp1278
a(S'100000663524577'
S'Nazari Dost M'
tp1279
a(S'100001058128459'
S'Shafiq Faieq'
tp1280
a(S'100006504183488'
S'Khan Ach'
tp1281
a(S'100001012284437'
S'Mirwais Popal'
tp1282
a(S'100003388609376'
S'Rahmanullah Danish Musakhil'
tp1283
a(S'100003109400158'
S'Mohammad Qurban Haqjo'
tp1284
a(S'100002488315334'
S'Laiq Dost'
tp1285
a(S'100004083803971'
S'Salim Ashami'
tp1286
a(S'100004087756309'
S'\\u0627\\u0648\\u0633 \\u064a\\u06d0 \\u062e\\u0648\\u0646\\u062f\\u0648\\u06a9\\u0627'
tp1287
a(S'100001899298698'
S'Fazel Wahid Afkari'
tp1288
a(S'100006651702552'
S'Feroz Kabuli'
tp1289
a(S'100005450623045'
S'Abdul Qahar Niazi'
tp1290
a(S'1790707593'
S'Zahidullah Najeeb'
tp1291
a(S'100003404270811'
S'Bahman Takoor'
tp1292
a(S'100003989729135'
S'Mustafa R Hamidi'
tp1293
a(S'100001822968032'
S'Hanif Sherzad'
tp1294
a(S'100000937144556'
S'Abdul Wali Pashtoonyar'
tp1295
a(S'100004051306624'
S'Nangarhar Hamesha Bahar'
tp1296
a(S'100000523616939'
S'Jamil Karzai'
tp1297
a(S'100002820935974'
S'Faisal Mohammadzai'
tp1298
a(S'100002656359890'
S'Rasool Khan Yousufi'
tp1299
a(S'100004872253534'
S'Ziarmal Sherzai'
tp1300
a(S'100004181738228'
S'\\u0689\\u062a\\u0647 \\u0689\\u062a\\u0647'
tp1301
a(S'100007740578194'
S'Naqiburahman Haqmal'
tp1302
a(S'100001077260803'
S'Abdul Khalil'
tp1303
a(S'100003706673324'
S'Rauf Zazai'
tp1304
a(S'1382678302'
S'Mujeeb Muneeb'
tp1305
a(S'100007483295062'
S'Mostafa Omar'
tp1306
a(S'100008262751975'
S'Abdul Reshad Saami'
tp1307
a(S'100004061513318'
S'Habiburahman Rahmani'
tp1308
a(S'100006458530417'
S'ShamShad Omaid'
tp1309
a(S'100002382465756'
S'Mustafa Noor Mnw'
tp1310
a(S'100002113441730'
S'Spogmai Mangal'
tp1311
a(S'100001535018777'
S'\\u0633\\u06cc\\u062f \\u0639\\u0637\\u0627\\u0624\\u0644\\u0644\\u0647 \\u0634\\u0627\\u0647 \\u063a\\u0631\\u0634\\u06cc\\u0646'
tp1312
a(S'100006993043449'
S'\\u0645\\u0628\\u0627\\u0631\\u0632 \\u06a9\\u0631\\u06cc\\u0645\\u06cc'
tp1313
a(S'100001223023024'
S'Killid Killid'
tp1314
a(S'100004402086521'
p1315
S'Mati-Ullah Turab'
tp1316
a(S'100003230596709'
S'Nawaab Khan Sulemankheil'
tp1317
a(S'100007640017909'
S'Matiullah Hotak'
tp1318
a(S'100001824102621'
S'Naser Uddin Bakhshi'
tp1319
a(S'100001704635204'
S'Wali Gul Miakhil'
tp1320
a(S'100001835331482'
S'Hassan Saviz Huseinyar'
tp1321
a(S'100001214678618'
S'\\u0646\\u06af\\u0627\\u0647\\u06cc \\u0633\\u0628\\u0632'
tp1322
a(S'100001965035439'
S'Tamim Kakar'
tp1323
a(S'100007554841116'
S'Waheed Faizi'
tp1324
a(S'100000939344849'
S'Janmohammad Jahid'
tp1325
a(S'100006869803597'
S'Fahim Naemi'
tp1326
a(S'100001960988176'
S'Wilna Caballero Atis'
tp1327
a(S'100002139462949'
S'\\u0685\\u0627\\u0631\\u06ab\\u0631 \\u0627\\u0641\\u063a\\u0627\\u0646'
tp1328
a(S'100002424181994'
S'Dawood Hamdard'
tp1329
a(S'100004747959766'
S'Rahmat Zakeri'
tp1330
a(S'100003607595436'
S'Hamidullah Kadwal'
tp1331
a(S'100001843480559'
S'Jan Habibi'
tp1332
a(S'100006821041126'
S'Mahsil Khan Ghamsharik'
tp1333
a(S'100002434287259'
S'Amin Mamnoon'
tp1334
a(S'100003678102674'
S'Parwiz Romal'
tp1335
a(S'100005704351947'
S'Rahmatullah Dawoodzai'
tp1336
a(S'100001138670308'
S'Habibshah Azamyar'
tp1337
a(S'100002453613045'
S'Husain Yar Yar'
tp1338
a(S'100002425219800'
S'Fahim Spinghar'
tp1339
a(S'100004502317396'
S'Nazanin Naz'
tp1340
a(S'100001013790787'
S'Usman Solizay'
tp1341
a(S'100007558299019'
S'Mohammad Zubair Zadran'
tp1342
a(S'100008130282131'
S'Ausman Shah'
tp1343
a(S'1112475388'
S'Payeez Noor'
tp1344
a(S'100002052795582'
S'Farzana Yaqobi'
tp1345
a(S'100003227007663'
S'Zabihullah Arian Hashimi'
tp1346
a(S'100001702895208'
S'Abdul Aziz Ibrahimi'
tp1347
a(S'100005323420591'
S'Adamkhan Katawazai'
tp1348
a(S'100006305681577'
S'Asadullah Ib'
tp1349
a(S'100003104427427'
p1350
S'Qasimkhan Sahil'
tp1351
a(S'100005956775738'
S'M Obaid Sillab'
tp1352
a(S'100002053648391'
S'Khan M Khan'
tp1353
a(S'100004670954324'
S'Naeem Chenar'
tp1354
a(S'100000393991559'
S'Ajmal Hotak'
tp1355
a(S'100005882832042'
S'Shafiq Hotak'
tp1356
a(S'1391297070'
S'Sarwar Khairee'
tp1357
a(S'100002474669166'
S'Jawad Ahmad Murad'
tp1358
a(S'100006682157697'
S'Sliman Obaidi'
tp1359
a(S'100001260956487'
S'Af Janan Jan'
tp1360
a(S'100000924655803'
S'Neelab Mohammadi'
tp1361
a(S'100001829363016'
S'Honar Yousofi'
tp1362
a(S'100002212710087'
S'Shafiq Khan Zadran'
tp1363
a(S'100007812240573'
S'\\u0633\\u0645\\u06cc\\u0639 \\u0627\\u0644\\u0644\\u0647 \\u06a9\\u0631\\u06cc\\u0645\\u06cc'
tp1364
a(S'100000248249163'
S'Rahmat Jamalzai'
tp1365
a(S'100000334892253'
S'Zabihullah Ziar'
tp1366
a(S'790013439'
S'Ziaulhaq Safi'
tp1367
a(S'100000221324719'
S'Asfandyar Khan Hesami'
tp1368
a(S'100006989472838'
S'Rafiuddin Najam'
tp1369
a(S'100001033062626'
S'Abad Rahman Reshtin'
tp1370
a(S'100002013330583'
S'Ameel Nawab'
tp1371
a(S'100005150562138'
S'Niamat Ahmadzai'
tp1372
a(S'1171335591'
S'Mojib Safi'
tp1373
a(S'100003192223204'
S'Naweed Salamzada'
tp1374
a(S'100003600970002'
S'Mansoor Walizada'
tp1375
a(S'100003974684387'
S'Ahmadin Khan'
tp1376
a(S'100008158536873'
S'Riaz Shahidzai'
tp1377
a(S'100003294619907'
S'Aimal Faizi'
tp1378
a(S'1763151617'
S'Amina Khan'
tp1379
a(S'100004215575597'
S'Mohibullah Sawkiwal'
tp1380
a(S'100004671581248'
p1381
S'Mohibullah Ahmadzai'
tp1382
a(S'100002210006788'
S'Tamim Shaheer'
tp1383
a(S'1618732368'
p1384
S'Rohullah Ahmadzai'
tp1385
a(S'100002085311776'
S'Mena Mangal'
tp1386
a(S'100003524997613'
S'Khalid Salamzada'
tp1387
a(S'100006879813443'
S'Mustafa Ishaqzada'
tp1388
a(S'100001869417148'
S'Amy Villanueva Santiago'
tp1389
a(S'100001674733455'
S'Bakhtar Gull'
tp1390
a(S'100002106938949'
S'Sardar Sayeed'
tp1391
a(S'100006416434562'
S'Nasrat Ullah Amin Liwal'
tp1392
a(S'1079138456'
S'Rahman Habib'
tp1393
a(S'100000037885433'
S'John Alberto'
tp1394
a(S'100003563498507'
S'Bilal Ahmad Niazi'
tp1395
a(S'100003651440792'
S'Waheed Safi'
tp1396
a(S'100003953948557'
S'Hamed Hakimi'
tp1397
a(S'100000314838223'
S'Nawaab Nawaabzada'
tp1398
a(S'100001727804597'
S'Waheed Shinwari'
tp1399
a(S'100004132088939'
S'Abdul Jabbar'
tp1400
a(S'100004884517332'
S'Barkzay Shahlala'
tp1401
a(S'100002448206300'
S'Baismellah Azami'
tp1402
a(S'100003329110818'
S'Abdulraziq Jurhat'
tp1403
a(S'100003942415964'
S'Tejero Joy'
tp1404
a(S'100000603876674'
S'Florance Ebrahimi'
tp1405
a(S'100000683348728'
S'Tokhi Tokhi Tokhi'
tp1406
a(S'100005750048619'
S'Mahfoz Ibk'
tp1407
a(S'100004940733155'
S'Hotak Hotak'
tp1408
a(S'1588953027'
S'Ibrahim Momand'
tp1409
a(S'100006781868146'
S'Hamid Adli'
tp1410
a(S'100005636918256'
S'Beheshta Aslami'
tp1411
a(S'100002687370852'
S'Safiullah Jalalzai'
tp1412
a(S'100005248535898'
S'Khoshi Samadi'
tp1413
a(S'100004503188544'
S'Ziar Zhwand'
tp1414
a(S'100007024604607'
S'Khoshi Samadi'
tp1415
a(S'100007531151278'
p1416
S'\\u062f\\u06af\\u0644\\u0628\\u062f\\u06cc\\u0646 \\u062d\\u06a9\\u0645\\u062a\\u06cc\\u0627\\u0631 \\u067e\\u0644\\u0648\\u06cc\\u0627\\u0646'
tp1417
a(S'100005138432978'
S'Shawkatullah Hotak'
tp1418
a(S'100000724677237'
S'Ali Ahmad Jalali'
tp1419
a(S'100007963411785'
S'Massoud Ibrahimkhil'
tp1420
a(S'100004235261540'
S'Sameer Nangahari'
tp1421
a(S'100007487731240'
S'Wu Cong'
tp1422
a(S'100001535138898'
S'Muhammad Ahmadzai'
tp1423
a(S'100002775870194'
S'Ezattullah Qasimyar'
tp1424
a(S'100002561316189'
S'Haroon Bacha'
tp1425
a(S'100002617159775'
S'Mariyam Jan'
tp1426
a(S'100003677655888'
S'\\u0632\\u0645\\u0648\\u0646\\u06af\\u0647 \\u0645\\u0644\\u0646\\u06af\\u06cc \\u062f\\u0647'
tp1427
a(S'100003688007488'
S'Sali Khan'
tp1428
a(S'100000556028914'
S'Adnan Khan'
tp1429
a(S'100003986374167'
S'Brishna Amil'
tp1430
a(S'100001293622762'
S'Mirwais Stanikzay'
tp1431
a(S'100006643484546'
S'SherAli Sharafmal'
tp1432
a(S'100000671138923'
S'\\u06af\\u0644\\u0646\\u0648\\u0631 \\u0628\\u0647\\u0645\\u0646'
tp1433
a(S'100002265759607'
S'Farahnaz Forotan'
tp1434
a(S'100000527155933'
S'Ismail Shakir'
tp1435
a(S'100000313037413'
S'Sanaullah Khan Kakar'
tp1436
a(S'100005156413422'
S'Nazeer Sarwari'
tp1437
a(S'100006566445311'
S'\\u0628\\u0627\\u0628\\u0647 \\u0632\\u06cc\\u0632\\u0627'
tp1438
a(S'100002535044452'
S'\\u0645\\u062d\\u0645\\u062f \\u0627\\u0646\\u0648\\u0631 \\u0627\\u062a\\u0644'
tp1439
a(S'100001409558124'
S'Nasrat Rahimi'
tp1440
a(S'100000324350905'
S'Abdul Rahman Murad'
tp1441
a(S'100001694707122'
S'Tair Zaland'
tp1442
a(S'100004343352113'
S'Erfan Tofan'
tp1443
a(S'100003247966525'
S'Ahmad Shakib Azizi'
tp1444
a(S'100003737325688'
S'M Sarwar Danishjoo'
tp1445
a(S'100005233140001'
S'Mirwais Hotak'
tp1446
a(S'100001626524505'
S'Shuja Che'
tp1447
a(S'100000517471985'
S'\\u0627\\u0641\\u063a\\u0627\\u0646 \\u0648\\u0644\\u0633\\u064a \\u063a\\u0648\\u0631\\u0681\\u0646\\u06ab'
tp1448
a(S'100003834481423'
S'Ahmad Shoaib Dost'
tp1449
a(S'100003760448558'
S'Khalid Qazi Zadah Stanikzai'
tp1450
a(S'100002088923088'
p1451
S'Zia Bumia'
tp1452
a(S'100005133337494'
S'Asif Ali Shah'
tp1453
a(S'100003344765825'
S'Ajmal Hotak'
tp1454
a(S'100005267377251'
S'Mohammad Mashal Hassan'
tp1455
a(S'100000596589379'
S'Ihsanullah Ihsan'
tp1456
a(S'100003179721080'
S'Nooraqa Parwani'
tp1457
a(S'100003695647519'
S'Ghulam Bacha'
tp1458
a(S'1140214756'
S'Sami Mahdi'
tp1459
a(S'100003892054665'
S'Pakhtoon Lalzaoi'
tp1460
a(S'1634244035'
S'Muhammad Ahmed Babry'
tp1461
a(S'100003518380152'
S'Wakil Babakarkhail'
tp1462
a(S'100003756309807'
S'Ali Ahmad Ahmadi'
tp1463
a(S'100001517892752'
S'Zubaida Tahiri'
tp1464
a(S'100001424255364'
S'Mahsil Khan'
tp1465
a(S'100004779663128'
S'Hayat Khan'
tp1466
a(S'100003283398728'
S'Saber Ahmadzai'
tp1467
a(S'100000940684167'
S'Farid Jamdar'
tp1468
a(S'100001700353495'
S'Alikhyber Yaqooby'
tp1469
a(S'100006600252298'
S'Suliman Shaeq'
tp1470
a(S'100002746775961'
S'Sohail Khan'
tp1471
a(S'100000063639116'
S'Nabiullah Nekzad'
tp1472
a(S'100001253262675'
S'M Yasin Mohammadi'
tp1473
a(S'100000347809628'
S'Ahsan Shami'
tp1474
a(S'100003301190906'
p1475
S'Dost Muhammad Dost'
tp1476
a(S'100008254806201'
S'Atifa Barekzai'
tp1477
a(S'100008373875614'
S'Maryam Safi'
tp1478
a(S'100003346622562'
S'Shafiq Arian'
tp1479
a(S'645087337'
S'Farzad Lameh'
tp1480
a(S'100002315709167'
S'Mahboba Zai'
tp1481
a(S'100004539967749'
S'\\u062a\\u0648\\u062f\\u064a \\u062e\\u0628\\u0631\\u064a \\u062f\\u0648\\u0631\\u0681\\u06cc \\u0645\\u0648\\u0636\\u0648\\u0639'
tp1482
a(S'100000535283083'
S'Inzer Gul'
tp1483
a(S'100000261055987'
S'Aryan Khan Rekani'
tp1484
a(S'100002219289824'
S'B\\u1eb7\\u015f\\u015f T\\u00e3\\u0159\\u0259q'
tp1485
a(S'100006631659050'
S'Ahmadzahir Zahaar'
tp1486
a(S'100005428511515'
S'\\u062c\\u0645\\u0639\\u06cc\\u062a \\u0627\\u0633\\u0644\\u0627\\u0645\\u06cc \\u0627\\u0641\\u063a\\u0627\\u0646\\u0633\\u062a\\u0627\\u0646 \\u0647\\u0644\\u0645\\u0646\\u062f'
tp1487
a(S'100003036339582'
S'\\u0627\\u0628\\u0631\\u0627\\u0647\\u064a\\u0645 \\u062e\\u064a\\u0644'
tp1488
a(S'100001802173381'
S'Nahida Nazari Tokhy'
tp1489
a(S'100007992872949'
S'\\u0627\\u0646\\u062a\\u062e\\u0627\\u0628 \\u0627\\u0641\\u063a\\u0627\\u0646\\u0633\\u062a\\u0627\\u0646'
tp1490
a(S'100004898713571'
S'Ramani Chowdhary'
tp1491
a(S'100002033370383'
S'Shogofa Any'
tp1492
a(S'100001611732463'
S'Nvd Azizi'
tp1493
a(S'100000635801822'
S'Rokay Musleh'
tp1494
a(S'100003538277675'
S'Hameed Maiwand'
tp1495
a(S'100003765542599'
S'Sayed Shams Ullah Hashami'
tp1496
a(S'100003475256521'
S'Shirzad Ehsan'
tp1497
a(S'100007407093335'
S'Musa Hashami'
tp1498
a(S'100002139048442'
S'Ahmad Jamshid Abdullah'
tp1499
a(S'100008163151894'
S'Geety Salamzada'
tp1500
a(S'100001792170349'
S'Hafiz Ali Devyani Ali'
tp1501
a(S'100001151676455'
S'Mohammad Naseem Stanikzai'
tp1502
a(S'100001034413475'
S'Inamullah Arman'
tp1503
a(S'100007581370175'
S'Zahid Gul'
tp1504
a(S'100001813940727'
S'Rohullah Ahmadzai'
tp1505
a(S'100003799391734'
p1506
S'Dawlat Zadran'
tp1507
a(S'100003231054953'
S'Jawed Zurmati'
tp1508
a(S'100004826736568'
S'M Ajmal Vajedi'
tp1509
a(S'100002107860041'
S'Sami Mahmoodi'
tp1510
a(S'1635283623'
S'Samie Jan'
tp1511
a(S'100004687357242'
S'Mohammad Iqbal Sahel'
tp1512
a(S'100000021420033'
S'Nadir Roshan'
tp1513
a(S'100006720244744'
S'Zubair Afghan'
tp1514
a(S'100001287230972'
S'Sarhadar Gardaviwal'
tp1515
a(S'100007420597758'
S'Ehsanullah Khan'
tp1516
a(S'100007652678414'
S'Khano Entizar Manal'
tp1517
a(S'100007689514714'
S'Fardin Sadeqi'
tp1518
a(S'100000954322023'
S'\\u0633\\u06cc\\u062f \\u062d\\u0628\\u06cc\\u0628 \\u0633\\u0627\\u062f\\u0627\\u062a \\u062d\\u0633\\u06cc\\u0646\\u06cc'
tp1519
a(S'100003742038519'
S'Bakhtyar Ahmad Omarzai'
tp1520
a(S'100004169021429'
S'Tajmuhammad Katawazi'
tp1521
a(S'100000557141412'
S'Ahmadzia Abdulzai'
tp1522
a(S'100006151141708'
S'Julina Milan'
tp1523
a(S'100003261382200'
p1524
S'\\u0631\\u0648\\u06cc\\u062f\\u0627\\u062f\\u0647\\u0627\\u06cc \\u0648\\u0631\\u0632\\u0634\\u06cc \\u0627\\u0641\\u063a\\u0627\\u0646\\u0647\\u0627\\u06cc \\u0622\\u0644\\u0645\\u0627\\u0646'
tp1525
a(S'753057583'
S'Rokhaan Khadem'
tp1526
a(S'100002363569861'
S'Amanullah Noori'
tp1527
a(S'100000573321076'
S'Gold Af'
tp1528
a(S'100000850247355'
S'Hussain Alizai'
tp1529
a(S'100000726606352'
S'Aimal Oriakhill'
tp1530
a(S'100008104508324'
S'Zwan Feker Afg'
tp1531
a(S'100004143641473'
S'\\u0648\\u0627\\u0642\\u0639 \\u0628\\u06cc\\u0646 \\u0631\\u0627\\u0633\\u062a\\u06af\\u0648'
tp1532
a(S'1116784674'
S'Mirwais Arya'
tp1533
a(S'100002838941438'
S'Mohammad Kheiri'
tp1534
a(S'100000620256204'
S'Karimullah Wafa Achakzai'
tp1535
a(S'100002095407516'
S'Masi Fatahee'
tp1536
a(S'100000553401121'
S'Abdul Naser'
tp1537
a(S'100004607342295'
S'\\u062d\\u0642\\u0627\\u0646\\u06cc \\u0627\\u0641\\u063a\\u0627\\u0646'
tp1538
a(S'100004087988888'
S'Hezbullalh Zamani'
tp1539
a(S'100004079678424'
S'Zaheer Ahmad'
tp1540
a(S'100000567069285'
S'Mitch Ellehcem Tomagal'
tp1541
a(S'100000293196670'
S'Shoaib Khan'
tp1542
a(S'100001514410219'
p1543
S'Ayub Farhat'
tp1544
a(S'100002806566715'
S'Salaiman Sabawoon'
tp1545
a(S'100000461860889'
S'Ahmad Seerat'
tp1546
a(S'100007187949236'
S'\\u0645\\u0647\\u062f\\u06cc \\u062d\\u0642\\u06cc\\u0627\\u0631 \\u0645\\u0628\\u0634\\u0631'
tp1547
a(S'100005213014684'
S'Shamshad Afghan'
tp1548
a(S'100001612944108'
S'Mahboob Elahi'
tp1549
asS'id'
p1550
S'100002249343856'
p1551
sS'name'
p1552
S'Aimal Dostyar'
p1553
s.