(dp1
S'friends'
p2
(lp3
(S'100000853597644'
S'Radhika Agarwal'
tp4
a(S'100002076696965'
S'Anita Bajaj'
tp5
a(S'100000602566636'
S'Tanvir Singh Sidhu'
tp6
a(S'100001340225755'
S'Harshanand Singh'
tp7
a(S'100000734617650'
S'Rohit Poddar'
tp8
a(S'100000126613941'
S'Anshul Jain'
tp9
a(S'597029878'
S'Riya Banerjee'
tp10
a(S'100001988916171'
S'Aditya Gutgutia'
tp11
a(S'100002325442224'
S'Abhaya Dubey'
tp12
a(S'554156914'
S'Ayushi Surana'
tp13
a(S'100001373366192'
S'Mahesh Agarwal'
tp14
a(S'100003252725035'
S'Vidhi Dokania'
tp15
a(S'100000597614688'
S'Vikas Bajaj'
tp16
a(S'632840508'
S'Pulkit Chhabra'
tp17
a(S'1098608869'
S'Vernika Jain'
tp18
a(S'1412553928'
S'Ankit Agarwal'
tp19
a(S'100000148278328'
S'Akshay Saraogi'
tp20
a(S'100000127188848'
S'Nikhil Zeko Shenoy'
tp21
a(S'100003069262157'
S'Hafizul Mondol'
tp22
a(S'1318099666'
S'Rahul Bagla'
tp23
a(S'1104375947'
S'Chirag Jain'
tp24
a(S'1465038497'
S'Aaditya Jaiswal'
tp25
a(S'100000997169210'
S'Gautam Soni'
tp26
a(S'659766830'
S'Rashmi Sunder'
tp27
a(S'1482087891'
S'Tripti Shah'
tp28
a(S'508763990'
S'Anurag Keshan'
tp29
a(S'514049327'
S'Avishek Sengupta'
tp30
a(S'100003254739782'
S'Sweetyk Kataruka'
tp31
a(S'100000512198412'
S'Shiladitya Kar'
tp32
a(S'820484633'
S'Anchal Khaitan'
tp33
a(S'1019624838'
S'Aman Choudhary'
tp34
a(S'559952638'
S'Harsh Goel'
tp35
a(S'100001371211970'
S'Avisikta Upadhyay'
tp36
a(S'1382222810'
S'Dhruv Dalmia'
tp37
a(S'100001356169218'
S'Smita D Choudhury'
tp38
a(S'645406841'
S'Harsh Vardhan Agarwal'
tp39
a(S'100001031535994'
S'Rahul Agarwal'
tp40
a(S'671638984'
S'Kushal Nahata'
tp41
a(S'100000025888928'
S'Rishab Bachhawat'
tp42
a(S'1063620799'
p43
S'Vaishali Mitra'
tp44
a(S'560063736'
S'Mohit Pachisiya'
tp45
a(S'1386973054'
S'Aditi Khemka'
tp46
a(S'1496703890'
S'Shashank Poddar'
tp47
a(S'100001153573797'
S'Aritro Bhattacharyya'
tp48
a(S'100003618178007'
S'Urbashi Roy Chowdhury'
tp49
a(S'100002153542400'
S'Shruti Agarwal'
tp50
a(S'1403577298'
S'Devansh Dugar'
tp51
a(S'100000456938163'
S'Naman Agrawal'
tp52
a(S'100001196626664'
S'Suryaa Sharma'
tp53
a(S'100001850824616'
S'Mohit Agarwal'
tp54
a(S'100000324101147'
S'Vipasa Tekriwal'
tp55
a(S'100004343160103'
S'Udayan Sharma'
tp56
a(S'100000444128265'
S'Varun Khanna'
tp57
a(S'1806707220'
S'Jatin Agarwal'
tp58
a(S'100000562805478'
S'Rudranil Guha Roy'
tp59
a(S'1016293106'
S'Shrivatsa Bhatter'
tp60
a(S'100002657270329'
S'Nandish Live'
tp61
a(S'100001493049985'
S'Prasoon Agrawal'
tp62
a(S'100001035771747'
S'Sachi Kapoor'
tp63
a(S'1313747828'
S'Arnav Sarawgi'
tp64
a(S'1342205821'
S'Samaira Chatterjee'
tp65
a(S'100000918032112'
S'Shivam Muc Dokania'
tp66
a(S'100000910059209'
S'Saurav Agarwal'
tp67
a(S'1494679047'
S'Adnan Rahman'
tp68
a(S'553331428'
S'Arjun Dutta'
tp69
a(S'710425016'
S'Ashika Jain'
tp70
a(S'1638061521'
S'Snehee Alag'
tp71
a(S'100000056571000'
S'Nitish Bihani'
tp72
a(S'1804308348'
S'Mayank Nahata'
tp73
a(S'1559470868'
S'Kunal Maheshwari'
tp74
a(S'100000358263904'
S'Ritesh Soni'
tp75
a(S'100000910603138'
S'Navneet Kumar'
tp76
a(S'100000232136696'
S'Giriraj Sadani'
tp77
a(S'1374667081'
S'Aditya Parekh'
tp78
a(S'690032757'
S'Aparna Mohta'
tp79
a(S'100001143876066'
S'Bidushi Roy Chowdhury'
tp80
a(S'100000214863043'
S'Rishika Rampuria'
tp81
a(S'100000604821428'
S'Sourav Agarwal'
tp82
a(S'1241346391'
S'Abhishek Rungta'
tp83
a(S'100003667548058'
S'Pramiti Mukhopadhyay'
tp84
a(S'100003596256189'
S'Peter Marki'
tp85
a(S'556391086'
S'Vivek Agarwalla'
tp86
a(S'1813495867'
S'Priyanka Bajaj'
tp87
a(S'100001248805611'
S'Sarthak Beckham Gupta'
tp88
a(S'738166157'
S'Sidharth Sancheti'
tp89
a(S'100002519976895'
S'Aditya Sharma'
tp90
a(S'1323603548'
S'Ankita Paswan'
tp91
a(S'100000352093016'
S'Surabhi Mall'
tp92
a(S'100001474225591'
S'Saket Ladha'
tp93
a(S'100001216170557'
S'Umang Dokania'
tp94
a(S'100000536062673'
S'Rahul Dokania'
tp95
a(S'100000947199742'
S'Dhawal Bakhai'
tp96
a(S'100001561462547'
S'Shreyas Agarwal'
tp97
a(S'100000624132821'
S'Kushal Gupta'
tp98
a(S'507732792'
S'Rashmi Dokania'
tp99
a(S'1250864823'
S'Pern Sah'
tp100
a(S'100000657255639'
S'Srishti Goenka'
tp101
a(S'100001298733835'
S'Abhishek Modak'
tp102
a(S'100001349223803'
S'Avilash Choudhury'
tp103
a(S'620169825'
S'Harsh Vardhan Sharma'
tp104
asS'id'
p105
S'100001350815634'
p106
sS'name'
p107
S'Subham Dokania'
p108
s.