(dp1
S'friends'
p2
(lp3
(S'100000290207119'
S'Nitin Sethi'
tp4
a(S'100001797748848'
S'Jasdeep Singh'
tp5
a(S'100000664173215'
S'Srv Bh\\u00ee\\u00f1d\\u00e4'
tp6
a(S'1107291817'
S'Sonu Bhamrah'
tp7
a(S'100002883435161'
S'Parteek Malhotra'
tp8
a(S'100000362848782'
S'Rohit Ranbir'
tp9
a(S'100000666333142'
S'Raaj Verma'
tp10
a(S'100001714343990'
S'Harpreet Singh'
tp11
a(S'624041059'
S'Anjali Gupta'
tp12
a(S'100000244767561'
S'Mohak Mahajan'
tp13
a(S'1235993294'
S'Jatin Talwar'
tp14
a(S'100003196125101'
S'Jaspreet Singh'
tp15
a(S'1784568394'
S'Ankur Sharma'
tp16
a(S'100005691848589'
S'Atul Bhasin'
tp17
a(S'100001662467664'
S'Harpreet Singh'
tp18
a(S'100002954441638'
S'Chander Sharma'
tp19
a(S'100002088288189'
S'Harshit Gupta'
tp20
a(S'100003994528768'
S'Shyam Gupta'
tp21
a(S'100001840522869'
S'Mohit Gupta'
tp22
a(S'100000482086197'
S'Mani Kapoor'
tp23
a(S'100002489440117'
S'Ritu Kapoor'
tp24
a(S'100000535406249'
S'Ankur Sharma'
tp25
a(S'100001363920662'
S'Jappreet Singh'
tp26
a(S'100000811881769'
S'Kamal Arora'
tp27
a(S'1382010481'
S'Rounaq Singh'
tp28
a(S'100002026096457'
S'Nikhil Kashyap'
tp29
asS'id'
p30
S'100006459975748'
p31
sS'name'
p32
S'Pramod Gupta'
p33
s.