(dp1
S'friends'
p2
(lp3
(S'100008350870292'
S'Imp Sazzowezzy'
tp4
a(S'100008268756921'
S'Avishek Thapa'
tp5
a(S'100000934338364'
S'Jordan Kinchum Tshering Namchu'
tp6
asS'id'
p7
S'100000934338364'
p8
sS'name'
p9
S'Jordan Kinchum Tshering Namchu'
p10
s.