(dp1
S'name'
p2
S'Siddharth Mudgal'
p3
sS'current_class'
p4
S'india'
p5
sS'home_class'
p6
Vnew delhi, delhi, india
p7
sS'home_text'
p8
VNew Delhi, India\u000aHometown
p9
sS'current_link'
p10
Vhttps://www.facebook.com/l.php?u=https%3A%2F%2Fwww.bing.com%2Fmaps%2Fdefault.aspx%3Fv%3D2%26pc%3DFACEBK%26mid%3D8100%26where1%3D18.520300342657%252C%2B73.855590820312%26name%3DPune%252C%2BMaharashtra%26mkt%3Den-IN&h=CAQHjMTLw&s=1
p11
sS'home_link'
p12
Vhttps://www.facebook.com/l.php?u=https%3A%2F%2Fwww.bing.com%2Fmaps%2Fdefault.aspx%3Fv%3D2%26pc%3DFACEBK%26mid%3D8100%26where1%3D28.613900916609%252C%2B77.207794189453%26name%3DNew%2BDelhi%252C%2BIndia%26mkt%3Den-IN&h=JAQFA2xRi&s=1
p13
sS'current_text'
p14
VPune, Maharashtra\u000aCurrent City
p15
sS'friends'
p16
(lp17
(S'100000840930154'
S'Aman Bhandari'
tp18
a(S'1430717412'
S'Arnav Tripathi'
tp19
a(S'100002837873139'
S'Ankur Mishra'
tp20
a(S'100001916905632'
S'Abhishek Thakur'
tp21
a(S'547340300'
S'Diya Verghese'
tp22
a(S'1428100170'
S'Ambuj Tandon'
tp23
a(S'100007240514355'
S'Charu Mudgal'
tp24
a(S'860050233'
S'Aditya Gupta'
tp25
a(S'1033009502'
S'Shikhar Darbari'
tp26
a(S'100000081713062'
S'Neelesh Rawat'
tp27
a(S'1054750413'
S'Karan Chawla'
tp28
a(S'100001371739518'
S'Chetan Urkudkar'
tp29
a(S'100001285028615'
S'Sunita Sharma'
tp30
a(S'1564955723'
S'Vedika Agrawal'
tp31
a(S'1582714291'
S'Anirudh Rao'
tp32
a(S'100001222974592'
S'Rohit Rocky Yo'
tp33
a(S'1850717500'
S'Ravindra Bhadouriya'
tp34
a(S'1373234473'
S'Geet Bhardwaj'
tp35
a(S'100000138574191'
S'Manish Kumar'
tp36
a(S'100002579132930'
S'Kamlesh Kumar'
tp37
a(S'599822992'
S'Aman Lamba'
tp38
a(S'100000365587633'
S'Arijeet Mohapatra'
tp39
a(S'100002384468236'
S'Vineet Saini'
tp40
a(S'100002170036537'
S'Shad Khan'
tp41
a(S'100001095270225'
S'Manish Chauhan'
tp42
a(S'100001734656766'
S'Bipin Kumar Rathor'
tp43
a(S'1501614629'
S'Rishika Verma'
tp44
a(S'669375784'
S'Aditya Bharadwaj'
tp45
a(S'100000581833042'
S'Ankiit Pande'
tp46
a(S'100002527255149'
S'Ved Prakash Pandey'
tp47
a(S'533118665'
S'Arjun Rai Mahendra'
tp48
a(S'100001404716486'
S'Abhishek Kumar'
tp49
a(S'100002335853470'
S'Vikash Singh'
tp50
a(S'100003167965462'
S'Abhay Pratap Singh'
tp51
a(S'100001304325305'
S'Tanvi Anand'
tp52
a(S'613823380'
S'Angad Gadre'
tp53
a(S'716796080'
S'Himmat Bindra'
tp54
a(S'1068452402'
S'Harshad Ramchandra Pendse'
tp55
a(S'1418230987'
S'Abhinav Mishra'
tp56
a(S'1648981749'
S'Vandana Srinivas'
tp57
a(S'100000354177480'
S'Sumeet Singh'
tp58
a(S'100002341590054'
S'Avinash Thakur'
tp59
a(S'611737019'
S'Ashwin Chandrasekhar'
tp60
a(S'1235153569'
S'Atal Mishra'
tp61
a(S'1656156009'
S'Anky Sinha'
tp62
a(S'100002384190607'
S'Ravi Yadav'
tp63
a(S'882900083'
S'Dushyant Kumar'
tp64
a(S'642787065'
S'Sonal Sahai'
tp65
a(S'1403145963'
S'Anugrah Nayar'
tp66
a(S'100000403801854'
S'Prasun Nanduri'
tp67
a(S'100001375298194'
S'Ror Mohnish Chaudhary'
tp68
a(S'653214667'
S'Mallika Tomar'
tp69
a(S'100001181086918'
S'Ishan Rawat'
tp70
a(S'1748603610'
S'Sirat Kanwar'
tp71
a(S'100002244732576'
S'Alex Anand'
tp72
a(S'1625486713'
S'Hemant Kumar'
tp73
a(S'100001069854141'
S'Nisar Patel'
tp74
a(S'765190057'
S'Damini Mohan'
tp75
a(S'100002375419128'
S'Kshitij Sinha'
tp76
a(S'1180472181'
S'Ajinkya Agarkar'
tp77
a(S'569460885'
S'Krishna Tangirala'
tp78
a(S'1119511975'
S'Gaurav Rathore'
tp79
a(S'614933321'
S'Aakriti Singh'
tp80
a(S'1047835800'
S'Nikhil Mathur'
tp81
a(S'840489895'
S'Ayushi Parvathaneni'
tp82
a(S'100001086047607'
S'Anshul Kandari'
tp83
a(S'640818797'
S'Vasu Dha'
tp84
a(S'100005051412034'
S'Rahul Sharma'
tp85
a(S'1506654461'
S'Ashesh Lal'
tp86
a(S'1331417771'
S'Nimisha Singh'
tp87
a(S'100003485115446'
S'Priyanka Kumari'
tp88
a(S'554464044'
S'Ashish Kumar'
tp89
a(S'1482824009'
S'Nagendra Singh Chauhan'
tp90
a(S'1408236888'
S'Mannat Nagra'
tp91
a(S'560507693'
S'Aarushi Mittal'
tp92
a(S'683431123'
S'Rachita Bahl'
tp93
a(S'100001683157154'
S'Vikash Maan'
tp94
a(S'100002850191223'
S'Ashutosh Tripathi'
tp95
a(S'1665169229'
S'Taneesha Chawla'
tp96
a(S'1239691059'
S'Natasha Gogia'
tp97
a(S'553188779'
S'Siddhartha Gautam'
tp98
a(S'758022860'
S'Inderpreet Singh'
tp99
a(S'1360293325'
S'Tarannum Deep'
tp100
a(S'1304545830'
S'Abhishek Dave'
tp101
a(S'772217328'
S'Shubhangni Gupta'
tp102
a(S'548303384'
S'Urvashi Tripathi'
tp103
a(S'100000538394425'
S'Sandeep Dagar'
tp104
a(S'100000563935889'
S'KP Yadav'
tp105
a(S'711940546'
S'Chandika Gupta'
tp106
a(S'100002837049556'
S'JS Naruka'
tp107
a(S'100002629750159'
S'Saurabh Pandey'
tp108
a(S'804020622'
S'Saumya Kumar'
tp109
a(S'100004374331100'
S'Rishank Jain'
tp110
a(S'1037989526'
S'Gunjan Aggarwal'
tp111
a(S'100001143901092'
S'Rishab Sangwan'
tp112
a(S'1762818012'
S'AnKit Sharma'
tp113
a(S'100000310475646'
S'Neel Kujur'
tp114
a(S'1290572118'
S'Varun Bajaj'
tp115
a(S'1628591173'
S'Kaushal Jangid'
tp116
a(S'100000360396812'
S'Harish Choudhary'
tp117
a(S'626303582'
S'Arijeet Rana'
tp118
a(S'100003102251570'
S'Sunil Singh'
tp119
a(S'100003694699013'
S'Sunil Joon'
tp120
a(S'100004974129246'
S'Praveen K. Dara'
tp121
a(S'100000055511086'
S'Rahul Ahluwalia'
tp122
a(S'1241351686'
S'Narender Singh Bisht'
tp123
a(S'1489421322'
S'Neelesh Kanyal'
tp124
a(S'619176871'
S'Neha Gupta'
tp125
a(S'1628725852'
S'Mohit Kumar'
tp126
a(S'100002372822605'
S'Nikita Roy'
tp127
a(S'541895594'
S'Adity Pancharya'
tp128
a(S'100001011751689'
S'Shailesh Srivastava'
tp129
a(S'1670483654'
S'Monalisa Singh'
tp130
a(S'593235685'
S'Nikita Ginglani'
tp131
a(S'1457091735'
S'Shivank Diddi'
tp132
a(S'100000328962727'
S'Yogendra Singh'
tp133
a(S'100001049166254'
S'Rahul Kumar'
tp134
a(S'1203423755'
S'Saahil Singh'
tp135
a(S'1196237742'
S'Amit Kumar'
tp136
a(S'100001241753559'
S'Naresh Kumar'
tp137
a(S'100000114780876'
S'Jitendra Kumar'
tp138
a(S'843514510'
S'Apoorva Misra'
tp139
a(S'100002301901394'
S'Vinay Singh'
tp140
a(S'1436700649'
S'Nikhil Judge'
tp141
a(S'100000853685792'
S'Abhijit Dhillon'
tp142
a(S'551469125'
S'Nupur Sharma'
tp143
a(S'100001319035817'
S'Shubham Gupta'
tp144
a(S'1095003406'
S'Ashish Chander'
tp145
a(S'100000649870509'
S'Ajit Singh Kulhari'
tp146
a(S'100000365000645'
S'Rishabh Gupta'
tp147
a(S'100000929084043'
S'Nirmoho Banerjee'
tp148
a(S'100001337462607'
S'Arjun Sood'
tp149
a(S'619036336'
S'Shradha Nambiar'
tp150
a(S'505878736'
S'Lakshmi Upadhyaya'
tp151
a(S'100000281244803'
S'Amit Kaushik'
tp152
a(S'1217296596'
S'Vishesh Breja'
tp153
a(S'683232795'
S'Aditi Singh'
tp154
a(S'599494611'
S'Rohina Thapar'
tp155
a(S'100003482019337'
S'Jitender Singh'
tp156
a(S'1335104332'
S'Anita Sharma'
tp157
a(S'680672817'
S'Saksham Khosla'
tp158
a(S'100007230250527'
S'Priyanka Chaudhary'
tp159
a(S'591072749'
S'Ambika Puri'
tp160
a(S'1378278932'
S'Radhika Mehta'
tp161
a(S'100002933669013'
S'Ranjeet Singh Yadav'
tp162
a(S'100000005373428'
S'Saurabh Teotia'
tp163
a(S'100000143029873'
S'Krutanjali Mudgal'
tp164
a(S'631870752'
S'Ansh Singh Luthra'
tp165
a(S'682698101'
S'Saumya Bansal'
tp166
a(S'547731955'
S"'Abhinav Varma'"
tp167
a(S'100000402215008'
S'Narendra Yadav'
tp168
a(S'670411439'
S'Devina Malaviya'
tp169
a(S'669327125'
S'Akul Sayal'
tp170
a(S'100000881414151'
S'Vivek Yadav'
tp171
a(S'1608444735'
S'Amit Bhardwaj'
tp172
a(S'771154047'
S'Palak Yadav'
tp173
a(S'100000048487712'
S'Abhinav Pahwa'
tp174
a(S'1005965595'
S'Jayant Jain'
tp175
a(S'1125817555'
S'Priya Jindal'
tp176
a(S'1591113969'
S'Divya Anand'
tp177
a(S'1649510757'
S'Ayush Verma'
tp178
a(S'1524747843'
S'Andrew Paul Packiam'
tp179
a(S'100002589583406'
S'Sumit Kumar'
tp180
a(S'100002866661102'
S'Rajesh Kumar'
tp181
a(S'100001547632960'
S'Yuvraj Ajit Singh'
tp182
a(S'100000997996258'
S'Abhinaya Moorthy'
tp183
a(S'100004990963334'
S'Kundan Rajawat'
tp184
a(S'575491383'
S'Siddhant Marur'
tp185
a(S'100000438456693'
S'Vikash Sangwan'
tp186
a(S'1655826899'
S'Karan Malhotra'
tp187
a(S'100000405832540'
S'Mohammad Aslam'
tp188
a(S'100000256590102'
S'Neeta Dan'
tp189
a(S'100000111439688'
S'Sandeep Singh'
tp190
a(S'100000580772209'
S'Nilesh Arbat'
tp191
a(S'100000038984893'
S'Aman Preet Singh'
tp192
a(S'591336849'
S'Mihir Sinha'
tp193
a(S'100000096968923'
S'Anuj Gautam'
tp194
a(S'100000357642390'
S'Brijesh Singh'
tp195
a(S'100000395144211'
S'Ajay Yadav'
tp196
a(S'100001207107331'
S'Pankaj Karki'
tp197
a(S'590156706'
S'Ruchi Shukla'
tp198
a(S'100001076712961'
S'Praveen Yadav'
tp199
a(S'100000220386318'
S'Manish Bhatt'
tp200
a(S'698773844'
S'Mukul Jaggi'
tp201
a(S'744089662'
S'Vardaan Singh'
tp202
a(S'1093478246'
S'Siddharth Sharma'
tp203
a(S'1361902973'
S'Kritika Arora'
tp204
a(S'100001642595230'
S'Ankur Chauhan'
tp205
a(S'808515098'
S'Saloni Jain'
tp206
a(S'1563472143'
S'Hemant Jain'
tp207
a(S'1471386549'
S'Praveen Kumar'
tp208
a(S'100000669127045'
S'Avinash Kuri'
tp209
a(S'100001157796796'
S'Av Avinash'
tp210
a(S'100001305877036'
S'Munesh Singh Tanwar'
tp211
a(S'1698705788'
S'Ayesha Sharma'
tp212
a(S'1632308755'
S'Anil Sahrawat'
tp213
a(S'1526620033'
S'Dheeraj Joshi'
tp214
a(S'1504720382'
S'Manjeet Singh'
tp215
a(S'100001275030420'
S'Vikas Sharma'
tp216
a(S'615538383'
S'Vatsal Naresh'
tp217
a(S'100001181264415'
S'Mayank Bhawre'
tp218
a(S'100002991949713'
S'Pankaj Punia'
tp219
a(S'100000916945634'
S'Shantanu Dahiya'
tp220
a(S'100001147999062'
S'Siddhant Gupta'
tp221
a(S'639373192'
S'Nikhil Kapoor'
tp222
a(S'1409630624'
S'Kusha Bhadwal'
tp223
a(S'100002881093453'
S'Narendra Gehlot'
tp224
a(S'1833841478'
S'Yagnish Dahiya'
tp225
a(S'685182335'
S'Prabhdeen Kaur'
tp226
a(S'100000521614944'
S'Sabya Sachi Das'
tp227
a(S'100000333411406'
S'Deepak Sharma'
tp228
a(S'557735073'
S'Prachi Singh'
tp229
a(S'528779737'
S'Sahiba Mann'
tp230
a(S'838808857'
S'Esha Chauhan'
tp231
a(S'1652791702'
S'Akshay Sehgal'
tp232
a(S'630255132'
S'Joy Chahal'
tp233
a(S'100001468905161'
S'Prabhakar Singh'
tp234
a(S'553382156'
S'Kratu Goel'
tp235
a(S'554706652'
S'Damini Sant'
tp236
a(S'100002937866480'
S'Deepak Tanwar'
tp237
a(S'100000180243520'
S'Maheshwar Rao'
tp238
a(S'100002064846921'
S'Vaishali Mehrishi'
tp239
a(S'100004185912818'
S'Anuradha Sharma'
tp240
a(S'744677560'
S'Arun Vaco Roy'
tp241
a(S'653240454'
S'Abhimanyu Chakravarty'
tp242
a(S'100001448371015'
S'Kush Jain'
tp243
a(S'1164931900'
S'Shubham Kumar'
tp244
a(S'100000285338797'
S'Jyoti Khurana'
tp245
a(S'1549456348'
S'Prateik Nallathambi'
tp246
a(S'1022463972'
S'Arjun Ramesh'
tp247
a(S'1805797120'
S'Ruchi Aggarwal'
tp248
a(S'100000103707970'
S'Shubham Pandey'
tp249
a(S'100000346464043'
S'Seerat Bindra'
tp250
a(S'100000395186867'
S'Gaurav Yadav'
tp251
a(S'100002350221895'
S'Pankaj Joshi'
tp252
a(S'590822539'
S'Yashodhan Kedia'
tp253
a(S'1009225663'
S'Suparna Chowdhry'
tp254
a(S'100000267868091'
S'Shankar Sharma'
tp255
a(S'100000789155952'
S'Utkarsh Yadav'
tp256
a(S'749270264'
S'Jyotsna Sahai'
tp257
a(S'100002046226540'
S'Karanbir Gill'
tp258
a(S'100002591786389'
S'Sandeep Yadav'
tp259
a(S'1668073494'
S'Arvind Kumar'
tp260
a(S'684478326'
S'Harshit Nayyar'
tp261
a(S'1127764630'
S'Gary Rohan Singh'
tp262
a(S'100000202630183'
S'Ankit Dash'
tp263
a(S'100003101508669'
S'Sumit Gujjar'
tp264
a(S'100001436313941'
S'AvinAsh Pandey'
tp265
a(S'645877048'
S'Karan Singh'
tp266
a(S'100000181853020'
S'Aditya Panwar'
tp267
a(S'100002095041096'
S'Sumit Kumar Sheorain'
tp268
a(S'568377195'
S'Pallavi Krishnappa'
tp269
a(S'100001336729011'
S'Sanjay Bhadouria'
tp270
a(S'100002053060616'
S'Surya Prakash'
tp271
a(S'709029665'
S'Amoolya S Kumar'
tp272
a(S'634988473'
S'Agastya Angiras'
tp273
a(S'100002918289282'
S'Mrinali Gupta'
tp274
a(S'100000310200915'
S'Rituraaj Singh'
tp275
a(S'1248391579'
S'Abhishek Singh'
tp276
a(S'100000893014691'
S'Ashok Choudhary'
tp277
a(S'606157933'
S'Akshay Nair'
tp278
a(S'779005244'
S'Ayesha Wadhawan'
tp279
a(S'1523239581'
S'Anahat Danewalia'
tp280
a(S'1751104236'
S'Priyank Sethi'
tp281
a(S'1099080741'
S'Ishaan Sood'
tp282
a(S'100000222366290'
S'Laxman Singh Kharayat'
tp283
a(S'100002916654863'
S'Siddharth Patel'
tp284
a(S'518064785'
S'Harsh Kataria'
tp285
a(S'777185257'
S'Adhwaith Mani'
tp286
a(S'513937371'
S'Aditya Gaur'
tp287
a(S'1529255914'
S'Purnima Pawar'
tp288
a(S'668862804'
S'Pallav Shinghal'
tp289
a(S'100006184022429'
S'Balwan Singh Jakhar'
tp290
a(S'100000026000095'
S'Naresh Babral'
tp291
a(S'764390650'
S'Adhar Maheshwari'
tp292
a(S'1037699329'
S'Ashish Prashant'
tp293
a(S'100001552838149'
S'Sushil Singh'
tp294
a(S'1692591486'
S'Shraddha Nayak'
tp295
a(S'100000194563744'
S'Manish Sharma'
tp296
a(S'100002295687462'
S'Yashila Sharma'
tp297
a(S'100001038128368'
S'Chirag Dhangar'
tp298
a(S'100003110732425'
S'Trialee Erroree'
tp299
a(S'1399563388'
S'Win-it Sharma'
tp300
a(S'100000975475329'
S'Simran Bajwa'
tp301
a(S'100001033657131'
S'Manoj Khatana'
tp302
a(S'1821217072'
S'Snehil Chand'
tp303
a(S'100002518839367'
S'Hari Krishna'
tp304
a(S'100000305388865'
S'Kushagra Dikshit'
tp305
a(S'100001459328539'
S'Rohit George'
tp306
a(S'100000966704650'
S'Stuti Rastogi'
tp307
a(S'1660134818'
S'Asav Talwar'
tp308
a(S'1546441135'
S'Aashish Pandey'
tp309
a(S'100001247119345'
S'Nishant Chaubey'
tp310
a(S'100002826823494'
S'Kanwar Singh'
tp311
a(S'555506160'
S'Poornima Mishra'
tp312
a(S'100002279268418'
S'Rajshekhar Thota'
tp313
a(S'100001176697845'
S'Kamiya Kapoor'
tp314
a(S'100000172651078'
S'Subroto Shannigrahi'
tp315
a(S'100002060615040'
S'Navneet Dutt'
tp316
a(S'100000166466589'
S'Prerna Bhagi'
tp317
a(S'671001364'
S'Jaisal Singh'
tp318
a(S'1012878346'
S'Archit Varshney'
tp319
a(S'1095802514'
S'Abhijay Ghildyal'
tp320
a(S'1301014126'
S'Rohit Upadhyay'
tp321
a(S'521888346'
S'Shalini Dutt'
tp322
a(S'667109392'
S'Shubhangi Pathak'
tp323
a(S'100001306832047'
S'Anurag Mishra'
tp324
a(S'687797128'
S'Prateek Tomar'
tp325
a(S'100003441597454'
S'Lalit Yadav'
tp326
a(S'100001588007245'
S'Inzy Azad'
tp327
a(S'100001849627998'
S'Alok Kunwar'
tp328
a(S'670420578'
S'Keshav Mudgal'
tp329
a(S'662326449'
S'Abhay Sahota'
tp330
a(S'1414299118'
S'Kumar Awijeet'
tp331
a(S'1625701840'
S'Kshitij Sheoran'
tp332
a(S'100002498395354'
S'Jamshed Khan'
tp333
a(S'100001574024133'
S'Deepak Singh Bist'
tp334
a(S'805605563'
S'Ashwini Vaidialingam'
tp335
a(S'1315458203'
S'Rodion Stephen'
tp336
a(S'609246395'
S'Arushi Dikshit'
tp337
a(S'1088571703'
S'Sujaan Singh Kanwar'
tp338
a(S'100000596215323'
S'Snehil Srivastava'
tp339
a(S'100003553361923'
S'Ram Chandra Yadav'
tp340
a(S'508474662'
S'Manaswi Mishra'
tp341
a(S'1107185552'
S'Deepak Malyala'
tp342
a(S'1793388285'
S'Dhruv Bhattacharya'
tp343
a(S'100001302354536'
S'Anand Prajapati'
tp344
a(S'100004147411060'
S'Gevendra Verma'
tp345
a(S'100002658414590'
S'Satyendra Kumar Shakya'
tp346
a(S'100002066469782'
S'Aditya Malhotra'
tp347
a(S'681834497'
S'Anirudh Singh'
tp348
a(S'100000478638402'
S'Aman Sinha'
tp349
a(S'1258207629'
S'Aishwarya Singh'
tp350
a(S'100001707414323'
S'Bikas Rai'
tp351
a(S'100002516388144'
S'Sareeta Yadav'
tp352
a(S'100001265932956'
S'Vaishnavi Pimpalnerkar'
tp353
a(S'1781314309'
S'Vanshuj Arora'
tp354
a(S'100001885954219'
S'Praveen Shukla'
tp355
a(S'100002421664912'
S'Rashmi Sharma'
tp356
a(S'100003035305218'
S'Ajay Singh Jakhar'
tp357
a(S'100000597298977'
S'Rex Code'
tp358
a(S'1428506425'
S'Shounik Dhir'
tp359
a(S'100001082340288'
S'Aanchal Kaushik'
tp360
a(S'619390368'
S'Harsh Gandharv'
tp361
a(S'100002842879926'
S'Raju Singh'
tp362
a(S'510470225'
S'Charu Mudgal'
tp363
a(S'1143611904'
S'Aditya Chaturvedi'
tp364
a(S'100001902452153'
S'Chandra Shekhar Mehta'
tp365
a(S'1412434730'
S'Kartik Sharma'
tp366
a(S'100001057091269'
S'Pramod Kumar Gill'
tp367
a(S'100002024907593'
S'Sahil Grover'
tp368
a(S'100000825496836'
S'Rakesh Sadh'
tp369
a(S'100002509031007'
S'Rajat Shukla'
tp370
a(S'100000232863989'
S'Pawan Kumar'
tp371
a(S'100002023577194'
S'Abhishek Panda'
tp372
a(S'100001862762663'
S'Nithin Tkv'
tp373
a(S'100000923282823'
S'Alok Sheoran'
tp374
a(S'100001856723534'
S'Ranjeet Singh'
tp375
a(S'807255337'
S'Tanvi Barua'
tp376
a(S'100002920681527'
S'Pankaj Mehra'
tp377
a(S'1076532116'
S'Nikhil Das'
tp378
a(S'100001334092497'
S'Jeet Lehra'
tp379
a(S'100001026504979'
S'Himanshu Mishra'
tp380
a(S'100001565806169'
S'Vibhuti Jain'
tp381
a(S'100001361102777'
S'Gopal Jee Sharma'
tp382
a(S'680496953'
S'Richa Trivedi'
tp383
a(S'100001001150506'
S'Ankita Negi'
tp384
a(S'100000209669207'
S'Ramveer Singh'
tp385
a(S'100001010015600'
S'Harsh Ahluwalia'
tp386
a(S'1339760390'
S'Aakash Choudhary'
tp387
a(S'596448985'
S'Chhavi Anand'
tp388
a(S'100000263608488'
S'Sumit Raghav'
tp389
a(S'100001011744343'
S'Animesh Pandey'
tp390
a(S'100002208716958'
S'Krishna Vedulla'
tp391
a(S'100000479005223'
S'Kaushal Chugh'
tp392
a(S'1532321950'
S'Adita Bhatia'
tp393
a(S'683095974'
S'Rohan George'
tp394
a(S'1363594199'
S'Sidharth Negi'
tp395
a(S'100001265505311'
S'Rajni Joshi'
tp396
a(S'100001434085647'
S'Naushad Ahmad'
tp397
a(S'100000148461699'
S'Couch Ouch'
tp398
a(S'100000749766713'
S'Richa Sharma'
tp399
a(S'100002743230794'
S'Sarwan Rathore'
tp400
a(S'806940321'
S'Vishakha Darbha'
tp401
a(S'100000072721400'
S'Pulkit Sharma'
tp402
a(S'1456591478'
S'Gaurav Lavania'
tp403
a(S'100000364700293'
S'Neeraj Sahoo'
tp404
a(S'100001208942087'
S'Kuldeep Yadav'
tp405
a(S'831100022'
S'Kaustubh Radkar'
tp406
a(S'518579396'
S'Tanya Jolly'
tp407
a(S'1030067388'
S'Trisha Mehta'
tp408
a(S'100001079819221'
S'Vinay Sahu'
tp409
a(S'100000876893388'
S'Rahul Tiwari'
tp410
a(S'100002827052573'
S'Rakesh Khicher'
tp411
a(S'100002458027484'
S'Omjit Singh'
tp412
a(S'833421177'
S'Srishti Kapur'
tp413
a(S'100004087668976'
S'Nitesh Shah'
tp414
a(S'1022186283'
S'Sachin Saraswat'
tp415
a(S'100000716824303'
S'Ankur Dalal'
tp416
a(S'1453095271'
S'Shobhit Srivastava'
tp417
a(S'100002705295796'
S'Nalan Kumaraiah'
tp418
a(S'100002374102485'
S'Rohun Tripati'
tp419
a(S'100001164632590'
S'Arushi Kumar'
tp420
a(S'100002410676468'
S'Vineet Chaurasiya'
tp421
a(S'786703649'
S'Aditi Batra'
tp422
a(S'100000734276684'
S'Sumit Tomar'
tp423
a(S'1160191758'
S'Anjuri Chandra'
tp424
a(S'100000476446103'
S'Ashutosh Chaubey'
tp425
a(S'100001008648600'
S'Agrima Seth'
tp426
a(S'100001635604623'
S'Abhipranay Chauhan'
tp427
a(S'100001082053104'
S'Piyush Jibhakate'
tp428
a(S'551697677'
S'Shevangee Gupta'
tp429
a(S'100001223491317'
S'Varun Kubba'
tp430
a(S'808345031'
S'Aanchal Puniani'
tp431
a(S'1668697032'
S'Aditi Sharma'
tp432
a(S'557720117'
S'Aditya Vikram Yadav'
tp433
a(S'100002086128130'
S'Sachin Dangi'
tp434
a(S'100000053273444'
S'Navneet Ahlawat'
tp435
a(S'100002987712439'
S'Siddharth Singh'
tp436
a(S'100000115611550'
S'Aditya Joshi'
tp437
a(S'590551285'
S'Harshit Bassi'
tp438
a(S'671786433'
S'Neha Joshi'
tp439
a(S'510538707'
S'Suveera Mehrish'
tp440
a(S'100001495847820'
S'Rohit Singh Rajput'
tp441
a(S'100000149299626'
S'Tushar Singh'
tp442
a(S'715470025'
S'Rahul Anand'
tp443
a(S'100001803904241'
S'Roshith Nair'
tp444
a(S'100000438130184'
S'Yashwant Mitharwal'
tp445
a(S'100000661880509'
S'Sandeep Singh'
tp446
a(S'1240517161'
S'Shivani Gairola'
tp447
a(S'100000018482022'
S'Abhinav Munshi'
tp448
a(S'655476569'
S'Sandeep Pal'
tp449
a(S'1741410386'
S'Shrey Gupta'
tp450
a(S'100001480724428'
S'Vivek Dwivedi'
tp451
a(S'100002363768263'
S'Nikhlesh G\\u0101war'
tp452
a(S'568032337'
S'Rishabh Garg'
tp453
a(S'100000783623032'
S'Gau Rav Chaudhary'
tp454
a(S'657983143'
S'Reuben Chatterjee'
tp455
a(S'1334555448'
S'Gauraangi Vipin'
tp456
a(S'100003655208915'
S'Sagar Kumar'
tp457
a(S'100000345837207'
S'Kushagra Aniket'
tp458
a(S'1850160980'
S'Venkatesh Chaturvedi'
tp459
a(S'100003404494438'
S'Ajay Jangid'
tp460
a(S'684386109'
S'Akshay Bhargava'
tp461
a(S'769940883'
S'Karan Tuli'
tp462
a(S'568803507'
S'Meghna Jain'
tp463
a(S'1142984250'
S'Sahiba Puri'
tp464
a(S'100002496464372'
S'Durgesh Rai'
tp465
a(S'1613924835'
S'Hitesh Rao'
tp466
a(S'100000904809460'
S'Anand Tripathi'
tp467
a(S'754841724'
S'Viraj Sagar Das'
tp468
a(S'100000412988840'
S'Utkarsh Katyaayun'
tp469
a(S'100002666709782'
S'Prateek Dahiya'
tp470
a(S'1682283974'
S'Shivanshu Malik'
tp471
a(S'100001044877372'
S'PArul Jain'
tp472
a(S'771119429'
S'Arushi Verma'
tp473
a(S'100002761282431'
S'Pravesh Choudhary'
tp474
a(S'100001397140346'
S'Nikhil Dhankar'
tp475
a(S'100000952975439'
S'Nitika Pandey'
tp476
a(S'100000016424659'
S'Kunal Singh'
tp477
a(S'1218545018'
S'Shivangi Singh'
tp478
a(S'536137607'
S'Karan Subarna'
tp479
a(S'1073537568'
S'Adhish Chawla'
tp480
a(S'1079112224'
S'Shifali Makkar'
tp481
a(S'770875022'
S'Ritvik Sharma'
tp482
a(S'100001722571502'
S'Omendra Singh Gautam'
tp483
a(S'100000589753291'
S'Chirjeev Singh'
tp484
a(S'100004483981737'
S'Sharda Upadhyaya'
tp485
a(S'615006207'
S'Abhimanyu Jamwal'
tp486
a(S'543910791'
S'Meher Pathania'
tp487
a(S'100002625071566'
S'Sachin Yadav'
tp488
a(S'100001035597895'
S'Amit Bhardwaj'
tp489
a(S'1817527711'
S'Ajit Malik'
tp490
a(S'559869739'
S'Nooria Puri'
tp491
a(S'1499832261'
S'Bhanu Prakash Choudhary'
tp492
a(S'100000163174988'
S'Toffe Tof Ka Bhai'
tp493
a(S'518577896'
S'Amitabh Saraswati'
tp494
a(S'100002460235305'
S'Shailender Chauhan'
tp495
a(S'639935991'
S'Vivek Venkatasubramanian'
tp496
a(S'100002642367902'
S'Sanjay Kumar'
tp497
a(S'100001930404633'
S'Saurabh Pandey'
tp498
a(S'1255327346'
S'Rupal Shukla'
tp499
a(S'100001737762747'
S'Aashish Shukla'
tp500
a(S'573902223'
S'Anshuman Prasad'
tp501
a(S'604586757'
S'Ashwani Kumar Pachauri'
tp502
a(S'728835877'
S'Anay Pandey'
tp503
a(S'689213357'
S'Yash Rai'
tp504
a(S'664765777'
S'Sanya Arora'
tp505
a(S'100002019624048'
S'Ravinder Dabas'
tp506
a(S'792663251'
S'Jayant Nayar'
tp507
a(S'100002892877059'
S'Singh Sudhir'
tp508
a(S'1560341236'
S'Ashish Kumar Guliya'
tp509
a(S'100002548719791'
S'Gaurav Solanki'
tp510
a(S'100000157521228'
S'Someshwar Singh'
tp511
a(S'1388074148'
S'Agnibh Prakash'
tp512
a(S'100000737593226'
S'Sachin Kumar Sharma'
tp513
a(S'1065549694'
S'Prtk Beedkar'
tp514
a(S'100000169305571'
S'Sunil Mehta'
tp515
a(S'1173042866'
S'Saaransh Mehta'
tp516
a(S'1437670362'
S'Atharv Dev Chauhan'
tp517
a(S'100000040026659'
S'Arhan Sibal'
tp518
a(S'714075423'
S'Ajiteshwar Singh'
tp519
a(S'1556141422'
S'Sonal Kiran'
tp520
a(S'100001359630881'
S'Kiran Yallabandi'
tp521
a(S'100002900268070'
S'Nikhil Das'
tp522
a(S'687438930'
S'Rakesh Upadhyaya'
tp523
a(S'1703659967'
S'Rohan Jain'
tp524
a(S'100000297106187'
S'Divya Khanduri'
tp525
a(S'670041721'
S'Jyotesh Singh'
tp526
a(S'100002552742197'
S'Awanish Pradhan Pandey'
tp527
a(S'1198844455'
S'Gagandeep Panwar'
tp528
a(S'649371373'
S'Ishita Paliwal'
tp529
a(S'100000084320235'
S'Ritambhara Singh'
tp530
a(S'1062428932'
S'Phuntsok Tshering La'
tp531
a(S'1184491926'
S'Hartej Singh Kochher'
tp532
a(S'1619738661'
S'Avjeet Kumar'
tp533
a(S'100002301512680'
S'Sanskriti Schl'
tp534
a(S'100003371904209'
S'Anjali Mehra'
tp535
a(S'811205535'
S'Smriti Premsagar'
tp536
a(S'100002664522740'
S'Mandeep Singh'
tp537
a(S'100000228309499'
S'Gaurav Pandey'
tp538
a(S'100000182287035'
S'Suraj Singh Bajetha'
tp539
a(S'100000607564285'
S'DrDeepika Rahul Bhawan'
tp540
a(S'1463371510'
S'Ayush Nagar'
tp541
a(S'100001038344827'
S'V\\u00eev\\u00eak K\\u00eav\\u00eev'
tp542
a(S'637377050'
S'Shardooli Mann'
tp543
a(S'100001075718670'
S'Mohit Nadar'
tp544
a(S'616065522'
S'Shantanu Upadhyaya'
tp545
a(S'100000582572367'
S'Neeraj Pandey'
tp546
a(S'100001999523363'
S'Bittu Boss'
tp547
a(S'100000020543144'
S'Bharatheesha Sj'
tp548
a(S'100001731963101'
S'Neerav Rana'
tp549
a(S'1718698724'
S'Jayant Kumar'
tp550
a(S'591457250'
S'Sarth Khare'
tp551
a(S'1431024833'
S'Vijay Sharma'
tp552
a(S'1645640382'
S'Arjoonn Sharma'
tp553
a(S'100002641461707'
S'Ajay Singh'
tp554
a(S'689721806'
S'Varun Bhalla'
tp555
a(S'100001763068335'
S'Rahul Kumar'
tp556
a(S'610949675'
S'Karan Singh Mankotia'
tp557
a(S'100002525724199'
S'Shailiza Mayal'
tp558
a(S'100003072676654'
S'Vipul Dikshit'
tp559
a(S'100001172940493'
S'Manoj Samant'
tp560
a(S'100000990657537'
S'Kunal Ambast'
tp561
a(S'100005619039454'
S'Vimal Sharma'
tp562
a(S'100002877032443'
S'Sonya Kapoor'
tp563
a(S'100000893261976'
S'Anubhav Dahiya'
tp564
a(S'1548137667'
S'Sushant Kumar'
tp565
a(S'1739239331'
S'Manu Yash'
tp566
a(S'100002205844090'
S'Purushottam Baghel'
tp567
a(S'100001104590657'
S'Avinash Singh'
tp568
a(S'1039386173'
S'Anshuman Mishra'
tp569
a(S'100002888552608'
S'Sampat Siyol'
tp570
a(S'1570095228'
S'Samarth Virk'
tp571
a(S'100000698618915'
S'Jyotsna Tripathi'
tp572
a(S'100000886661204'
S'Sunil Sahu'
tp573
a(S'100000601481635'
S'Nitin Pandey'
tp574
a(S'100001187407192'
S'Amit Yadav'
tp575
a(S'1827866293'
S'Kirithigaa Kalaivanan'
tp576
a(S'670057510'
S'Rudresh Pande'
tp577
a(S'1594952489'
S'Rohit Krishna'
tp578
a(S'726581925'
S'Sidhant Sakhuja'
tp579
a(S'100001938349429'
S'Vipin Dwivedi'
tp580
a(S'1102857427'
S'Apoorva Gudi'
tp581
a(S'642514678'
S'Vikram Singh'
tp582
a(S'519127671'
S'Siddharth Shukla'
tp583
a(S'100000644872639'
S'Saroj Kumar'
tp584
a(S'1259171134'
S'Vivek Vohra'
tp585
a(S'100000303656155'
S'Anand Shekhawat'
tp586
a(S'100000184535390'
S'Pankaj Andola'
tp587
a(S'100000162978879'
S'Devesh Pandit'
tp588
a(S'100001530576624'
S'Bernard Stane'
tp589
a(S'1498301620'
S'Rajan Chaubey'
tp590
a(S'100002671477326'
S'Jitendra Tomar'
tp591
a(S'100001115924007'
S'Meghna Mishra'
tp592
a(S'100000663967942'
S'Karan Arora'
tp593
a(S'100000577371078'
S'Akshay Kumar'
tp594
a(S'100003026169814'
S'Md Nasim'
tp595
a(S'100001459333342'
S'Sujot Ghildiyal'
tp596
a(S'1531507526'
S'Ruchi Choudhary'
tp597
a(S'544429855'
S'Chinmay Bhave'
tp598
a(S'624457035'
S'Akshay Taneja'
tp599
a(S'715115654'
S'Daman Reyar'
tp600
a(S'1176511989'
S'Akshat Khetan'
tp601
a(S'100001131576019'
S'Rahul Roy'
tp602
a(S'100001609485498'
S'Amit Jha'
tp603
a(S'100008150803637'
S'Pankaj Basnal'
tp604
a(S'100002550197959'
S'Roshan Kumar'
tp605
a(S'100000912468444'
S'Animesh Ranjan'
tp606
a(S'1637776557'
S'Deepika Basatta'
tp607
a(S'100002645787198'
S'Utkarsh Yadav'
tp608
a(S'1639377286'
S'Yash Aggarwal'
tp609
a(S'1058564198'
S'Ankita Deb'
tp610
a(S'100002284409113'
S'Jitender Singh'
tp611
a(S'100000701343038'
S'Tejasv Ahluwalia'
tp612
a(S'100003556778295'
S'Ankit Das'
tp613
a(S'100001428750753'
S'Suraj Singh'
tp614
a(S'100002559892526'
S'Varsha Sarah'
tp615
a(S'1323537497'
S'Atul Kurisinkal'
tp616
a(S'100001647069446'
S'Sumit Jhajharia'
tp617
a(S'639238526'
S'Arushi Singh'
tp618
a(S'100000735364009'
S'Jitender Chahar'
tp619
a(S'1591777519'
S'Shivam Tyagi'
tp620
a(S'1547037480'
S'Sidharth Ravi'
tp621
a(S'100001576947121'
S'Shailendra Pratap Singh Pundhir'
tp622
a(S'100001262323767'
S'Amit Kumar'
tp623
a(S'568014498'
S'Naiwrita J Shukla'
tp624
a(S'100001129462155'
S'Ravi Raj'
tp625
a(S'746240161'
S'Aishvarya Misra'
tp626
a(S'100000535706027'
S'Bhuvan Dua'
tp627
a(S'1202553379'
S'Nayantara Mehra'
tp628
a(S'100001583563756'
S'Sandeep Kumar Sharma'
tp629
a(S'100001025013508'
S'Navin Kumar'
tp630
a(S'535309514'
S'Anant Singh Negi'
tp631
a(S'100000348579139'
S'Pranav Ballewar'
tp632
a(S'682983218'
S'Ayush Pandey'
tp633
a(S'843725060'
S'Shivi Sharma'
tp634
a(S'100004166712063'
S'Aditya Singh'
tp635
a(S'100002870119671'
S'Nitin Kumar'
tp636
a(S'100002536429177'
S'Pankaj Yadav'
tp637
a(S'589865921'
S'Shikhar Singh'
tp638
a(S'100002097295194'
S'Anil Chaudhary'
tp639
a(S'100001863256996'
S'Tipu Sachan'
tp640
a(S'1163514838'
S'Narendra Sharma'
tp641
a(S'100001683188148'
S'Pravind Kumar'
tp642
a(S'100000897011773'
S'Gaurav Tiwari'
tp643
a(S'100000211365634'
S'Ashish Tripathi'
tp644
a(S'594000836'
S'Priyanka Suneja'
tp645
a(S'570151184'
S'Anmol Bansal'
tp646
a(S'100002021933909'
S'Pushpender Singh Rajawat'
tp647
a(S'769514795'
S'Kajal Dalal'
tp648
a(S'100000550333081'
S'Ambresh Pandey'
tp649
a(S'100002068132931'
S'Harshit Singh'
tp650
a(S'805680493'
S'Tushar Mathur'
tp651
a(S'654894118'
S'Deepali Sharma'
tp652
a(S'100001354557429'
S'Vivek Kumar'
tp653
a(S'100002356473537'
S'Aman Bazzad'
tp654
a(S'1395758593'
S'Nishchala Verma'
tp655
a(S'100000506082654'
S'Mihir Pokhariyal'
tp656
a(S'100003001471113'
S'Mahendra Pratap'
tp657
a(S'100001524908339'
S'Deepak Sharma'
tp658
a(S'600895146'
S'Aaditya Pancharya'
tp659
a(S'1663546073'
S'Abhinav Singh Rana'
tp660
a(S'589532330'
S'Ananya Kaushik'
tp661
a(S'1741135197'
S'Suman Joshi'
tp662
a(S'100002828718697'
S'Ajay Jangir'
tp663
a(S'100002538815121'
S'Oshin Choudhary'
tp664
a(S'1065333863'
S'Anvekshaa Rao'
tp665
a(S'1048060145'
S'Sabeel Eqbal'
tp666
a(S'572160307'
S'Sudhir Jee Sharma'
tp667
a(S'792425617'
S'Gunveen Ghumman'
tp668
a(S'100001424401923'
S'Jitender Mathur'
tp669
a(S'100000346389976'
S'Manish Sharma'
tp670
a(S'1139737002'
S'Ananya Dixit'
tp671
a(S'1716861258'
S'Jasbir Chahal'
tp672
a(S'100000977241014'
S'Rohit Nagarkoti'
tp673
a(S'100000856897595'
S'Aditya Sharma'
tp674
a(S'1416099041'
S'Kush Kumar'
tp675
a(S'1839842148'
S'Mehul Verma'
tp676
a(S'763800278'
S'Manu Vijayan'
tp677
a(S'1722771874'
S'Gauraangi Vipin'
tp678
a(S'100001416891602'
S'Yogesh Sharma'
tp679
a(S'1827018185'
S'Atul Tripathi'
tp680
a(S'1183876711'
S'Aditya Sanghi'
tp681
a(S'100002015120963'
S'Abhinay Tiwari'
tp682
a(S'1398117362'
S'Sudeep Gogoi'
tp683
a(S'100001879617597'
S'Shaurya Sinha'
tp684
a(S'813721459'
S'Varalika Singh'
tp685
a(S'100002567608351'
S'Dhananjay Kumar'
tp686
a(S'100002535445567'
S'Chaman Singh Jaryal'
tp687
a(S'632116718'
S'Rohan Sharma'
tp688
a(S'634205885'
S'Ashish Gupta'
tp689
a(S'100001231706121'
S'Khushi Sharma'
tp690
a(S'100001542774729'
S'Pawan Prajapati'
tp691
a(S'1411773113'
S'Apratim Gupta'
tp692
a(S'716160620'
S'Shashank Dewan'
tp693
a(S'100003518541911'
S'Mohammad Abdul Gulfam'
tp694
a(S'1710628651'
S'Varun Kanwar'
tp695
a(S'1316102973'
S'Ruhi Mudgil'
tp696
a(S'100000106165924'
S'Sharma Sharma'
tp697
asS'id'
p698
S'100000127818155'
p699
s.