(dp1
S'friends'
p2
(lp3
(S'776630000'
S'\\u0645\\u062d\\u0645\\u062f \\u0627\\u0641\\u063a\\u0627\\u0646'
tp4
a(S'745752387'
S'Sonya Yaya'
tp5
a(S'100001306318923'
S'Sharifa Hamdard'
tp6
a(S'100000251841137'
S'Mohammad Hakim Baray'
tp7
a(S'100001271339043'
S'\\u062d\\u06a9\\u0645\\u062a \\u0627\\u0644\\u0644\\u0647 \\u0645\\u06cc\\u0648\\u0646\\u062f'
tp8
a(S'100000741503199'
p9
S'Abaseen Yousufzai'
tp10
a(S'718821435'
p11
S'Haseeb Shinwary'
tp12
a(S'1349401365'
S'Jelani Zwak'
tp13
a(S'100001457313366'
S'Najmuddin Ayaz'
tp14
a(S'1351072614'
S'Ajmal Sofizai'
tp15
a(S'100000414361262'
S'Hamid Piaweray'
tp16
a(S'100001341110756'
p17
S'Ziaurrahman Spineghar'
tp18
a(S'100000584575167'
S'Sangar Niazai'
tp19
a(S'100000851864668'
S'Zahid Safi'
tp20
a(S'1277675044'
S'Arfan Mardani'
tp21
a(S'685843856'
S'Nilab Mobarez'
tp22
a(S'100000127669825'
p23
S'Nadir Khan'
tp24
a(S'100001269020631'
p25
S'Helmand Khamosh'
tp26
a(S'698901073'
p27
S'Sayeed Ahmad Qani'
tp28
a(S'1116934957'
p29
S'Abdul Halim Achakzai'
tp30
a(S'100001441527579'
p31
S'Wadood Khan'
tp32
a(S'100000574774290'
S'Tamem Eshaqzai'
tp33
a(S'100001383638679'
p34
S'Hilay Wafa'
tp35
a(S'1391297070'
p36
S'Sarwar Khairee'
tp37
a(S'1361354145'
p38
S'Pakhtun Larawbar'
tp39
a(S'100000412129850'
p40
S'Tokhi Sher Shah Shohab'
tp41
a(S'100000888722695'
S'Shukrullah Shirzad'
tp42
a(S'100000611041738'
p43
S'Yasir Kundi'
tp44
a(S'1186888138'
p45
S'Abdullah Jamal'
tp46
a(S'100000560936400'
S'Wazir Gul'
tp47
a(S'100000741129067'
p48
S'Farid Shinwaray'
tp49
a(S'100000690466037'
S'Ajmal Miakhil'
tp50
a(S'100001465851798'
p51
S'Rafiullah Ziar'
tp52
a(S'100000129865468'
p53
S'Rohullah Wafa'
tp54
a(S'100001392931823'
S'Abdullah Farhad Noorzai'
tp55
a(S'609984747'
S'Saifullah Paktin'
tp56
a(S'1286240939'
S'Watan Pal'
tp57
a(S'100001078286716'
S'Farhad Farhadi'
tp58
a(S'100000447856264'
S'Seyar Farahmand'
tp59
a(S'100000256079098'
S'Folad Stanikzai'
tp60
a(S'100000152557616'
S'Khalid Zahir Amarkhil'
tp61
a(S'100000616176351'
S'Nesarahmad Naseri'
tp62
a(S'1575196777'
S'Jawad Stanekzai'
tp63
a(S'100000850299604'
S'Faisal Rawan'
tp64
a(S'1012667916'
S'Afghan Afghan'
tp65
a(S'100001280838583'
S'Maiwand Miakhil'
tp66
a(S'1288219448'
S'\\u0641\\u0636\\u0644 \\u063a\\u0646\\u064a \\u062d\\u0642\\u0645\\u0644'
tp67
a(S'1277848523'
p68
S'Hakim Sayedi'
tp69
a(S'100000923434360'
p70
S'Ilyas Mahsil Stanikzai'
tp71
a(S'100002085311776'
p72
S'Mena Mangal'
tp73
a(S'766466029'
S'Hamidullah Zazai'
tp74
a(S'100001066863357'
p75
S'\\u069a\\u0627\\u06cc\\u0633\\u062a\\u0647 \\u06a9\\u0648\\u0686\\u06cd'
tp76
a(S'100000417805426'
S'Mehdi Bazel'
tp77
a(S'100001197452823'
S'Loveismylive Jan'
tp78
a(S'100000532147352'
S'Nemat Bazel'
tp79
a(S'1183162415'
p80
S'Ahmad Gul Totakhyl'
tp81
a(S'100000303312336'
S'Asif Shinwari'
tp82
a(S'100001369635787'
S'Fahim Barekzai'
tp83
a(S'100001474746149'
p84
S'Naeem Ahmadzai'
tp85
a(S'100001118559309'
S'Matiullah Khan Afghan'
tp86
a(S'735952847'
S'Kanishka Sahil'
tp87
a(S'682809892'
p88
S'\\u0681\\u0648\\u0627\\u06a9\\u0645\\u0646 \\u0627\\u0641\\u063a\\u0627\\u0646'
tp89
a(S'100001382836657'
p90
S'Ajmal Shinwari'
tp91
a(S'100001297385020'
S'Storai Sherani'
tp92
a(S'100000331570825'
S'Freedom Breeze'
tp93
a(S'1811667627'
p94
S'Deewa Mangal'
tp95
a(S'100000993110487'
p96
S'Muhammad Usman Zadran'
tp97
a(S'100000425924476'
S'\\u0627\\u062c\\u0645\\u0644 \\u069a\\u06a9\\u0644\\u0649'
tp98
a(S'100000927722832'
S'Ramin Niazi'
tp99
a(S'100001382090945'
p100
S'Nasim Liwal'
tp101
a(S'838240295'
p102
S'Mohammad Qahir Wardag'
tp103
a(S'100000754892699'
S'\\u0645\\u064a\\u0646\\u0627\\u062a\\u0648\\u0631\\u064a \\u067e\\u0648\\u067e\\u0644'
tp104
a(S'100001424332623'
p105
S'Zama Watan'
tp106
a(S'100000038098594'
p107
S'Ezatullah Yousafzay'
tp108
a(S'100000410833962'
S'Abdul Hadi Barak'
tp109
a(S'100001269858210'
p110
S'Afghan YouthAgenda'
tp111
a(S'100000057751001'
p112
S'Mohibullah Aryubi'
tp113
a(S'1580405770'
S'Ajmal Gharwal'
tp114
a(S'100001098628629'
S'Farhad Paktiawal Zazai'
tp115
a(S'100000942376157'
S'Brikhna Khan'
tp116
a(S'100001212150090'
S'Abdullah Sahar'
tp117
a(S'100001443232335'
p118
S'Athal Samsor Khplwak'
tp119
a(S'100000899732190'
p120
S'Abdullah Khalish'
tp121
a(S'1073028593'
S'Ajmal Feeda'
tp122
a(S'100000559834719'
S'Gul Oghli'
tp123
a(S'100000068332428'
p124
S'Ahmad Iftikhar'
tp125
a(S'100000392922772'
p126
S'Habib Habibkhill'
tp127
a(S'100001293960158'
S'Ezatullah Zwab'
tp128
a(S'100001186685374'
p129
S'Hakim Alizai'
tp130
a(S'100000617889318'
S'Zabulwal Kakar'
tp131
a(S'100000208811795'
p132
S'Abaseen Khan Durrani'
tp133
a(S'100001016497688'
p134
S'Kabul Afghan'
tp135
a(S'100000902501809'
S'Zuhooruddin Mir'
tp136
a(S'100000506618980'
S'\\u0648\\u06cc\\u0633 \\u0628\\u0627\\u0631\\u06a9\\u0632\\u06cc'
tp137
a(S'559441604'
S'Omar Mansoor Ansari'
tp138
a(S'100000928223648'
p139
S'Sahil Shirzad'
tp140
a(S'100001501767277'
S'Pakhtana Ghutai'
tp141
a(S'696232509'
S'Rahim Wardak'
tp142
a(S'100000803582380'
S'Maruf Rasoli'
tp143
a(S'1126598412'
p144
S'Sial Pashtun \\u0633\\u06cc\\u0627\\u0644 \\u067e\\u069a\\u062a\\u0648\\u0646'
tp145
a(S'100000811524497'
S'Engr Reyan Riaz'
tp146
a(S'1329635701'
p147
S'Rahmatgul Halim'
tp148
a(S'100001244522499'
S'Nadia Qani'
tp149
a(S'1388193935'
p150
S'Meraj Haqmal'
tp151
a(S'100000476421096'
S'Bakhtiar Sahil'
tp152
a(S'1573235321'
S'Abdul Hadi Hedayat'
tp153
a(S'100000218254427'
p154
S'Naveed Khan'
tp155
a(S'100001397714483'
p156
S'Zarwali Khoshnood'
tp157
a(S'100001297879976'
S'Nasim Naqib'
tp158
a(S'100000915848790'
p159
S'Ajmal Hemat'
tp160
a(S'100001350207426'
S'Masood Safi'
tp161
a(S'1083364001'
p162
S'Andekhman Zazai'
tp163
a(S'100000438834684'
p164
S'Frishta Anwari'
tp165
a(S'100000974084380'
p166
S'Ebadullah Akbari'
tp167
a(S'100001045566640'
p168
S'Zarwali Khan Paktiawal'
tp169
a(S'1046949093'
p170
S'Sobair Wardak'
tp171
a(S'100001492549600'
S'Bilal Ahmad'
tp172
a(S'100000035700872'
p173
S'Nematullah Wd Basharwal'
tp174
asS'id'
p175
S'100002021882617'
p176
sS'name'
p177
S'Heela Sahar'
p178
s.