(dp1
S'friends'
p2
(lp3
(S'100006470166345'
S'Sajan Kumar'
tp4
a(S'100005591794537'
S'Kapil Runthala'
tp5
a(S'100004214137009'
S'Saahil Rawat'
tp6
a(S'100005173869324'
S'Gurjeet Sidu'
tp7
a(S'100007077130826'
S'Mahbub Alam'
tp8
a(S'100006527838112'
S'Sohail Ansari'
tp9
a(S'100004421475894'
S'Rahul Modanwal'
tp10
a(S'100007631377792'
S'Anand Singh'
tp11
a(S'100008172031671'
S'Rahul Rawat'
tp12
a(S'100005596122612'
S'K.k. Rawat'
tp13
a(S'100005929086943'
S'Rohit Kapoor'
tp14
a(S'100007593464312'
S'Aman Sharma'
tp15
a(S'100006487206527'
S'Ravi Agarwal'
tp16
a(S'100005234582955'
S'Sharma Navnit'
tp17
a(S'100003699920309'
S'Dharmendra Kumar'
tp18
a(S'100007907083378'
S'Pooja Yadav'
tp19
a(S'100005366581212'
S'Surendra Singh'
tp20
a(S'100006741365979'
S'Rahul Rawat'
tp21
a(S'100001377508203'
S'Ankur Gupta'
tp22
a(S'100005356121197'
S'Pushpendra Singh'
tp23
a(S'100008270820649'
S'Sanjay Sarkar'
tp24
a(S'100006546429657'
S'Yogesh Kumar'
tp25
a(S'100007791071039'
S'Debasish Dey'
tp26
a(S'100007671186981'
S'Tamil Mani'
tp27
a(S'100002431122816'
S'Satya Narayana'
tp28
a(S'100006580307306'
S'Shubham Pandey'
tp29
a(S'100006016540007'
S'Ajay Ajay'
tp30
a(S'100004579806407'
S'Karu Reddy'
tp31
a(S'100001465543897'
S'Jain Sudhanshu'
tp32
a(S'100002520856703'
S'Nitin Jain'
tp33
a(S'100007489747218'
S'Tessy Johnson'
tp34
a(S'100006702930909'
S'Manoj Kumar'
tp35
a(S'100006481884261'
S'Sikandar Mansoori'
tp36
a(S'100006065829738'
S'Sunny Thakur'
tp37
a(S'100006490021218'
S'Abhishek Ghosh'
tp38
a(S'100007796850214'
S'Vinay Mishra'
tp39
a(S'100006521554447'
S'Ashok Kumar'
tp40
a(S'100006685483511'
S'Amit Singh'
tp41
a(S'100003741766191'
S'Rohit Gaikwad'
tp42
a(S'100006788885989'
S'Zohaib Ali'
tp43
a(S'100007574439677'
S'Rahul Saini Rajaldesar'
tp44
a(S'100003576065527'
S'Praveen Kumar'
tp45
a(S'100008193966019'
S'Gireesh Kumar'
tp46
a(S'100007744473951'
S'Dharmendra Kumar'
tp47
a(S'100005599680861'
S'Mitesh Patel'
tp48
a(S'100007879358042'
S'Manoj Mishra'
tp49
a(S'100002863317585'
S'Shweta Sharma'
tp50
a(S'100004450207780'
S'Aam Admi Parti'
tp51
a(S'100005119933492'
S'Babu Sanu'
tp52
a(S'100005925942118'
S'Deepak Jain'
tp53
a(S'100003517112407'
S'Rajesh Yadav'
tp54
a(S'100004127462684'
S'Shahid Hussain'
tp55
a(S'100006502202668'
S'Parhalad Sen'
tp56
a(S'100007979592932'
S'Rakesh Kumar Rawat'
tp57
a(S'100008139219822'
S'Aany Khan'
tp58
a(S'100005367784897'
S'Santosh Pawar'
tp59
a(S'100006518345823'
S'Rahul Rathore'
tp60
a(S'100005920564869'
S'N.k. Jigri'
tp61
a(S'100007423560958'
S'Ravindra Singh'
tp62
a(S'100003923197012'
S'Vikash Kumar'
tp63
a(S'100007503584108'
S'Raj Kumar'
tp64
a(S'100006457693486'
S'Vicky Singh'
tp65
a(S'100004100672249'
S'Shahnawaz Khan'
tp66
a(S'100006428964252'
S'Neeraj Kumar'
tp67
a(S'100004460043729'
S'Mandher Sharma'
tp68
a(S'100006501424954'
S'Manoj Kumar'
tp69
a(S'100005892004577'
S'Mohit Saini'
tp70
a(S'100008155056766'
S'Aslam Aslam'
tp71
a(S'100005974152733'
S'Sameer Khan'
tp72
a(S'100003811131497'
S'Aman Sharma'
tp73
a(S'100004285959964'
S'Sanjay Singh'
tp74
a(S'100007287276376'
S'Pramod Kumar'
tp75
a(S'100008310944965'
S'Anjali Singh'
tp76
a(S'100007983312177'
S'Rajendra Kumar'
tp77
a(S'100004649670970'
S'Rahul Kumar'
tp78
a(S'100004169312624'
S'Arjun Singh'
tp79
a(S'100005260300000'
S'Amit Goyal'
tp80
a(S'100006941350639'
S'Sangeet Kumar'
tp81
a(S'100002842689591'
S'Sanjay Joshi'
tp82
a(S'100005417947631'
S'Dinu Dinesh'
tp83
a(S'100005479782035'
S'Rahul Khan'
tp84
a(S'100004399958297'
S'Sandy Kumar'
tp85
a(S'100007697256250'
S'Kulbir Singh Garwan'
tp86
a(S'100006746769530'
S'Jitendra Kumar'
tp87
a(S'100008152020654'
S'Raj Sekhar'
tp88
a(S'100006469638803'
S'S.s. Rawat'
tp89
a(S'100004935400525'
S'Shubham Kumar Bindhani'
tp90
a(S'100006681121036'
S'Dinesh Kushwaha Dinesh Kushwaha'
tp91
a(S'100005347621636'
S'Chetan Sharma'
tp92
a(S'100003696857201'
p93
S'Priyanka Rawat'
tp94
a(S'100005319451226'
S'Raajveer Singh'
tp95
a(S'100004531629700'
S'Anil Kumar'
tp96
a(S'100006019863290'
S'Khalid Ali'
tp97
a(S'100006229958846'
S'Vivek Patel'
tp98
a(S'100007506810017'
S'Sher Singh'
tp99
a(S'100007735088957'
S'Hitesh Parmar'
tp100
a(S'100001697745033'
S'Ravi Kumar'
tp101
a(S'100006529460564'
S'Khalid Ahmad'
tp102
a(S'100006463960595'
S'Akash Kumar'
tp103
a(S'100007322193831'
S'Sandeep Sandeep'
tp104
a(S'100002314552299'
S'Rashmi Sharma'
tp105
a(S'100004323456396'
S'Babbu Sandeep'
tp106
a(S'100003882431680'
S'Jitendra Kumar'
tp107
asS'id'
p108
g93
sS'name'
p109
S'Priyanka Rawat'
p110
s.