(dp1
S'friends'
p2
(lp3
(S'100005152804243'
S'Shubham Patny'
tp4
a(S'100004060159797'
S'Meenakshi Singh'
tp5
a(S'100006695196437'
S'Arun Singh Sikarwar'
tp6
a(S'100003239143395'
S'Sharik Saifi'
tp7
a(S'1477697036'
p8
S'Mihir Gaur'
tp9
a(S'100001176676475'
S'Parth Chadha'
tp10
a(S'100000594473752'
S'Atul Pundhir'
tp11
a(S'100001079771091'
S'Khushboo Nayyar'
tp12
a(S'100002586085749'
S'Isha Gaur'
tp13
a(S'100002615424508'
S'Robin Soam'
tp14
a(S'100001605502216'
S'Vivek Malik'
tp15
a(S'100003698540632'
S'Aakriti Gupta'
tp16
a(S'100002484516422'
S'Nishad Khan'
tp17
a(S'100001074246541'
S'Divyanshu Bhatia'
tp18
a(S'100000790838414'
S'Abhishar Srivastava'
tp19
a(S'100002768350203'
S'Rajneesh Seth'
tp20
a(S'100000680460490'
S'Aditya Jain'
tp21
a(S'100001268328631'
S'Ashish Chadha'
tp22
a(S'100000647735182'
S'AvIral Goel'
tp23
a(S'100001888545805'
S'Apoorv Jain'
tp24
a(S'100005348190684'
S'Surbhi Nayyar'
tp25
a(S'100002694603724'
S'Sanket Goel'
tp26
a(S'100001327067143'
S'Rohan Agarwal'
tp27
a(S'1636158447'
S'Jyoti Shishodia'
tp28
a(S'100000154203066'
S'Amar Siwach'
tp29
a(S'100002210560002'
S'Urvashi Chaudhary'
tp30
a(S'100000241079036'
S'Katyan Akash'
tp31
a(S'100000044918084'
S'Rahul Bhatia'
tp32
a(S'100001939173684'
S'Akanksha Bhambri'
tp33
a(S'100001417916007'
S'Shivam Gupta'
tp34
a(S'100001650804314'
S'Ayushi Rastogi'
tp35
a(S'100004448552550'
S'Abhishek Chadha'
tp36
a(S'100000086864321'
S'Shrey Jain'
tp37
a(S'100002337447479'
S'Faisal Harry'
tp38
a(S'100001248020070'
S'Anmol Chadha'
tp39
a(S'100004156145853'
S'Shubham Bhambri'
tp40
a(S'100001214785492'
S'Arjun Vats'
tp41
a(S'100001251273418'
S'Harshul Jain'
tp42
a(S'1317292489'
S'Ashminder Singh Virdi'
tp43
a(S'100004062193596'
S'Kavita Thakur'
tp44
a(S'100003924948637'
S'Ayush Duggal'
tp45
a(S'1828355144'
S'Tushar Arora'
tp46
a(S'1100142294'
S'Shubham Gandhi'
tp47
a(S'100003630774554'
S'Dilmeet Singh'
tp48
a(S'100000498633183'
S'Palak Suneja'
tp49
a(S'100001174677575'
S'Vikas Singh Kushwaha'
tp50
a(S'100000076408754'
S'Thakur Pankaj Singh Soam'
tp51
a(S'100000622956548'
S'Gagan Mahajan'
tp52
a(S'100003002296904'
S'Mohammad Anas Khan'
tp53
a(S'1214315293'
S'Dheeraj Sarna'
tp54
a(S'1804692398'
S'Abhishek Vig'
tp55
a(S'100000388356371'
S'Dhruv Rastogi'
tp56
a(S'645261349'
S'Vj Chaudhary'
tp57
a(S'100002668772977'
S'Kapil Rajput'
tp58
a(S'100002763200514'
S'Ankit Singh'
tp59
a(S'100003613466718'
S'Yash Gupta'
tp60
a(S'1811526871'
S'Sahib \\u0a38\\u0a3f\\u0a70\\u0a18'
tp61
a(S'100002492710519'
S'Udit Chauhan'
tp62
a(S'100001209946226'
S'Nikita Bhatia'
tp63
a(S'100004102506740'
S'Preeti Rana'
tp64
a(S'100002510198362'
S'Himanshu Bhasin'
tp65
a(S'100002493477021'
S'Krishan Sharma'
tp66
a(S'100001656633970'
S'Arti Singh Kushwaha'
tp67
a(S'100002051372131'
S'Ekam Bakshi'
tp68
a(S'100000312902233'
S'Kartik Bhatia'
tp69
a(S'100001450754917'
S'Vivek Bhatia'
tp70
a(S'100000692907637'
S'Vivek Chaudhary'
tp71
a(S'100001186160516'
S'Garvit Arora'
tp72
a(S'100002335896952'
S'Abhay Vashishtha'
tp73
a(S'659035247'
S'Yash Vardhan Singh'
tp74
a(S'100004674871780'
S'Antra Goel'
tp75
a(S'100001703720887'
S'Kanishq Garg'
tp76
a(S'100001041075846'
S'Ashish Kumar'
tp77
a(S'100002115813724'
S'Shubham Thakur'
tp78
a(S'100005079663657'
S'Vaishali Rana'
tp79
a(S'100003863277392'
S'Akul Sharma'
tp80
a(S'100005920592203'
S'Pragya Jain'
tp81
a(S'100000990699316'
S'Akhil Roadster'
tp82
a(S'100001131278063'
S'Shubham Chaudhary'
tp83
a(S'100003270757069'
S'Ankush Kangar'
tp84
a(S'507626518'
S'Reecha Chaudhary'
tp85
a(S'100001179580065'
S'Saurabh Dhiman'
tp86
a(S'100003032775394'
S'Rahul Bhatia'
tp87
a(S'100003743638988'
S'Ridhi Madan'
tp88
a(S'100003718771904'
S'Aditya Tomar'
tp89
a(S'100002130067647'
S'Raghav Arora'
tp90
a(S'100002186893390'
S'Tanmay Batra'
tp91
a(S'100003445495660'
S'Mohit Sirohi'
tp92
a(S'100001521775372'
S'Shubham Singhal'
tp93
a(S'100001022740870'
S'Navleen Siwach'
tp94
a(S'100003775172472'
S'Chetana Chauhan'
tp95
a(S'100000975734291'
S'Ayushi Bansal'
tp96
a(S'100004043478471'
S'Akash Chauhan'
tp97
a(S'1850188034'
S'Gunjan Tyagi'
tp98
a(S'100002141848541'
S'Ayushi Agarwal'
tp99
a(S'560866097'
S'Ankit Grover'
tp100
a(S'100001234428184'
S'Sachin Singh'
tp101
a(S'100001873977496'
S'Ashish Mahajan'
tp102
a(S'100000949731540'
S'Rishabh Bhardwaj'
tp103
a(S'100002200338815'
S'Nivesh Rajput'
tp104
asS'id'
p105
S'100002419946510'
p106
sS'name'
p107
S'Aditya Pratap Singh'
p108
s.