(dp1
S'friends'
p2
(lp3
(S'100001368017470'
S'Chanmeet Singh Dhir'
tp4
a(S'100003863919459'
S'Abhishek Maurya'
tp5
a(S'100003682348165'
S'Beatriz Tabares Ccp'
tp6
a(S'100003794221289'
S'Jiger Maurya'
tp7
a(S'100001167373988'
S'Devrishi Mehta'
tp8
a(S'100003783070159'
S'Patel Mamta'
tp9
a(S'100005459172493'
S'Pooja Patil'
tp10
a(S'100007352406632'
S'Monir Riya Fashionn'
tp11
a(S'100005336495981'
S'Hm Monisa Aktar Mahia'
tp12
a(S'100004306080240'
S'Sonali Sagar'
tp13
a(S'100004319882375'
S'Ajay Raj'
tp14
a(S'100006535786395'
S'Rituparna Kashyap Baruah'
tp15
a(S'100001754801026'
S'S\\u00f9rm\\u00eb\\u00ebt S\\u00ef\\u00f1gh'
tp16
a(S'100002966289343'
S'Atul Mishra'
tp17
a(S'100005662595003'
S'Luxmi Maurya'
tp18
a(S'100001615163635'
S'Aishwarya Kohli'
tp19
a(S'100007595171279'
S'Jatin Lachhwani'
tp20
a(S'100005953357102'
S'Preeti Tyagi'
tp21
a(S'100003333516677'
S'Abu Nasher'
tp22
a(S'100006694836609'
S'Jay Dev Bawa'
tp23
a(S'100002592143554'
S'Chanpreet Singh Khalsa'
tp24
a(S'100007352949828'
S'Aradhya Singh'
tp25
a(S'100001936219433'
S'Sanjeev Goyal'
tp26
a(S'100005117467065'
S'Tarun Kumar'
tp27
a(S'100001905310990'
S'Vipul Sharma'
tp28
a(S'100004340283855'
S'Attitudy Jatti'
tp29
a(S'1083698508'
S'Shivam Sharma'
tp30
a(S'711751867'
S'Sumeet Jain'
tp31
a(S'100003253051720'
S'Parul Jaggi'
tp32
a(S'100001717526267'
S'Chetan Jain'
tp33
a(S'100002133834277'
S'Gur Kaur'
tp34
a(S'100002873732780'
S'Aman Deep Singh'
tp35
a(S'100004015562562'
S'Raj Maurya'
tp36
a(S'100002399033694'
S'Prabh Sandhu'
tp37
a(S'100006582970602'
S'Himani Bangalia'
tp38
a(S'100002481064443'
S'Header Martain'
tp39
a(S'100000906551140'
S'IS HP RE ET'
tp40
a(S'100003314106117'
S'Diamond Amar'
tp41
a(S'100001126666409'
S'Paras Lamba'
tp42
a(S'100005974391017'
S'Gursharan Singh'
tp43
a(S'100002838140546'
S'Ravi Kumar'
tp44
a(S'100001654883877'
S'Sahiba Grover'
tp45
a(S'100004569962495'
S'Angel Rockzz'
tp46
a(S'100004040058569'
S'Sidhjot Singh'
tp47
a(S'100004059519354'
S'Vikky Jangra'
tp48
a(S'100001551440589'
S'Gopal Krishna Verma'
tp49
a(S'100000938144927'
S'Harshit Singh'
tp50
a(S'100005141740880'
S'HuMa KhAn'
tp51
a(S'100001050958264'
S'Khushi Cheema'
tp52
a(S'1355791316'
S'Richa Jain'
tp53
a(S'100002357000726'
S'Kavneet Singh'
tp54
a(S'673793889'
S'Nitin Jain'
tp55
a(S'100003228564831'
S'IshLeen KaUr'
tp56
a(S'100002497909168'
S'Kartik Abrol'
tp57
a(S'100003120845722'
S'Sheuli Barman'
tp58
a(S'100005021437239'
S'Amrit Kaur Dhanju'
tp59
a(S'100005228563893'
S'Ritika Gothwal'
tp60
a(S'100004865736088'
S'H\\u00f8\\u00f1e\\u00ff B\\u0113\\u0101tkill\\u00ear Dancer'
tp61
a(S'100007049681918'
S'Akku Shrivastav'
tp62
a(S'100002714042417'
S'Rohit Jain'
tp63
a(S'100004488993708'
S'Ravshish Kaur'
tp64
a(S'100001030428613'
S'Deepjot Singh'
tp65
a(S'100002834888761'
S'Haseeb Arfin'
tp66
a(S'100002434774961'
S'Rockie Goja'
tp67
a(S'100000229761843'
S'Sahib Jeet'
tp68
a(S'100000642125605'
S'Mohit Chandaliya'
tp69
a(S'100005924384325'
S'Shruti Kumari'
tp70
a(S'100006542654273'
S'Trutika Sharma'
tp71
a(S'100005225892666'
S'Nidhi Gill'
tp72
a(S'100003022086851'
S'Prachee Verma'
tp73
a(S'100007076978349'
S'V\\u00eall\\u00fd Yuvi'
tp74
a(S'100003278850669'
S'Jatin Jaggi'
tp75
a(S'100005955614322'
S'Ritik Kapoor'
tp76
a(S'100006601175700'
S'Preat Sharma'
tp77
a(S'100001817951848'
S'Chahat Rawal'
tp78
a(S'100006744098302'
S'Ritu Bhatnagar'
tp79
a(S'100000479910778'
S'Tanya Grover'
tp80
a(S'100004692484377'
S'Shivani Sharma'
tp81
a(S'100006517145131'
S'Daxita Sharma'
tp82
a(S'100005179423267'
S'Deependra Jadon'
tp83
a(S'100003157471048'
S'Preet Aulakh'
tp84
a(S'100002596372203'
S'Kushagra Prasad'
tp85
a(S'100006453642791'
S'Tanvi Deshpande'
tp86
a(S'100004957682975'
S'Rohit Kumar'
tp87
a(S'100006496612776'
S'Simran Rajan First'
tp88
a(S'100006469185381'
S'Anet Farh'
tp89
a(S'100005253033100'
S'Wahedul Islam Ovi'
tp90
a(S'100000283742198'
S'Yachna Jain'
tp91
a(S'100001078518301'
S'Lakshay Raikwar'
tp92
a(S'100002137942598'
S'Abheeshek Sakral'
tp93
a(S'100003020976886'
S'Anurag Aswal'
tp94
a(S'100005915976955'
S'Shrutti Khan'
tp95
a(S'100002767310025'
S'Kunal Kapoor'
tp96
a(S'100003754654327'
S'Nirankar Singh'
tp97
a(S'100004371848316'
S'Saiful Islam Soron'
tp98
a(S'100002353778205'
S'Gouri Chhabra'
tp99
a(S'100001588325315'
S'Arsh Aulakh'
tp100
a(S'100005489490372'
S'Rubel Khan'
tp101
a(S'100003833368218'
S'Angel Priyanka'
tp102
a(S'100001834985915'
S'Japneet Singh'
tp103
asS'id'
p104
S'100006793536850'
p105
sS'name'
p106
S'Rayansh Jain'
p107
s.