(dp1
S'friends'
p2
(lp3
(S'100002855791880'
S'Ammu Elas'
tp4
a(S'100001542052656'
S'Gunja Ahuja'
tp5
a(S'100001070261006'
S'Sandini Singh'
tp6
a(S'100000798941664'
S'Neeraj Kumar Pathak'
tp7
a(S'100000371090528'
S'Anjali Aditi'
tp8
a(S'100002351620801'
S'Dolly Deep'
tp9
a(S'100001759689312'
S'Rohit Kumar Gautam'
tp10
a(S'100002119532051'
S'Prabhat Ranjan Pathak'
tp11
a(S'100003659975538'
S'Khushboo Ohdar'
tp12
a(S'100000341420826'
S'Sanyogita Minz'
tp13
a(S'100000720658730'
S'Richa Kindo'
tp14
a(S'100002134472862'
S'Shambhavi Mishra'
tp15
a(S'100002364518329'
S'Anubhuti Srivastava'
tp16
a(S'100003264771151'
S'Nancy Singh'
tp17
a(S'100004534053384'
S'Shubham Mishra'
tp18
a(S'100004640804129'
S'Deepak Mishra'
tp19
a(S'100000727756312'
S'Vishnu Priya Ramesh'
tp20
a(S'100002084343110'
S'Shashi Sony'
tp21
a(S'100003126277866'
S'Mamta Kumari'
tp22
a(S'100001846555146'
S'Shikha Singh'
tp23
a(S'100001826936985'
S'Pooja Kumari'
tp24
a(S'100000958301393'
S'Akshit Raj'
tp25
a(S'100002797880974'
S'Chaubey Amit'
tp26
a(S'100005597504492'
S'Pakhi Ghosh'
tp27
a(S'100004734941494'
S'Kumari Mittu'
tp28
a(S'100001550423854'
S'Chandu Bcmr'
tp29
a(S'100003130767057'
S'Monu Mishra'
tp30
a(S'100002237038713'
S'Shweta Shree'
tp31
a(S'100007723269522'
S'Vikash Pandey'
tp32
a(S'100003951086742'
S'Sabyasachi Mishra'
tp33
a(S'100001629502472'
S'Khan Behlol'
tp34
a(S'100007462951689'
S'Manjusha Pal'
tp35
a(S'100003172001841'
S'Snehlata Kumari'
tp36
a(S'100005799644105'
S'Anshu Pandey'
tp37
a(S'100000437959840'
S'Deepak S Narayanan'
tp38
a(S'100006494749414'
S'Sana Mishra'
tp39
a(S'100001489152966'
S'Nidhi Kumari'
tp40
a(S'100002474788448'
S'Swati Raj'
tp41
a(S'100003736913119'
S'Shruti Gaurav'
tp42
a(S'1739745937'
S'Deepak Kumar'
tp43
a(S'100002496024154'
S'Ridhi Srivastava'
tp44
a(S'100000063337589'
S'Bhargava Hunkunda Radhakrishna'
tp45
a(S'100002035533735'
S'Anita Munda'
tp46
a(S'1344570869'
S'Niharika Singh'
tp47
a(S'100000152977988'
S'Sourav Bhowmick'
tp48
a(S'100002595729219'
S'Rajanikant Mishra'
tp49
a(S'100008034662087'
S'Komal Sinha'
tp50
a(S'100002448075918'
S'Priyanka Verma'
tp51
a(S'100000847233491'
S'Gayadhthri Gayu'
tp52
a(S'100005567174254'
S'Nandani Gautam'
tp53
a(S'100003311525870'
S'Anjali Mishra'
tp54
a(S'1372727049'
S'Pratibha Rathore'
tp55
a(S'100001890922457'
S'Swati Sneha'
tp56
a(S'100004356484948'
S'Priyanka Mishra'
tp57
a(S'100003832657062'
S'Sania Bharati'
tp58
a(S'100002963765484'
S'Saloni Kumari'
tp59
a(S'100002710728714'
S'\\u00c5k\\u00e5\\u00f1ksh\\u00e5 Sh\\u00eev\\u00e2\\u00f1\\u00ee'
tp60
a(S'100004962787570'
S'Badal Pathak'
tp61
a(S'100006781865946'
S'Sunita Sharma'
tp62
a(S'100002913518029'
S'Lokesh Singh'
tp63
a(S'100001633563194'
S'Prashansa Singh'
tp64
a(S'100003405530827'
S'Monica Jaiswal'
tp65
a(S'100000385969368'
S'Megha Nandakumar'
tp66
a(S'100003278838711'
S'Sonam Singh'
tp67
a(S'100001287513326'
p68
S'Prateek Chandra'
tp69
a(S'100001066236473'
S'Vinayak Sharma'
tp70
a(S'100001785465486'
S'Merina Tigga'
tp71
a(S'100006807276636'
S'Sangita Singh'
tp72
a(S'1819283456'
S'Pratibha Batra'
tp73
a(S'1710147222'
S'Hemlata Kumari'
tp74
a(S'100002479266325'
S'Sudheer Khan'
tp75
a(S'100000151563621'
S'Balaguru Sriram'
tp76
a(S'100000916820419'
S'Sai Sri Charan'
tp77
a(S'100004622135605'
S'Prashant Mishra'
tp78
a(S'100000426343947'
S'Arunima Shaw'
tp79
a(S'100008005689529'
S'Priyanka Sharma'
tp80
a(S'100000816606108'
S'Shashikant Mishra'
tp81
a(S'100002367039333'
S'Mihir Mishra'
tp82
a(S'100001442915329'
S'Pronita Khamrai'
tp83
a(S'100001774521109'
S'Umang Chouhan'
tp84
a(S'100002253128300'
S'Vaithee Ga'
tp85
a(S'100006194104465'
S'Sithi Fathima'
tp86
a(S'100000792951405'
S'Hema Anusha'
tp87
a(S'100005932620778'
S'Shanaya Khan'
tp88
a(S'100002725168842'
S'Dinesh Kumar'
tp89
a(S'100000640983207'
S'Deep Shikha'
tp90
a(S'100000912107827'
S'Ravi Burman'
tp91
a(S'100001287850680'
S'Saikiruthika Udayakumar'
tp92
a(S'100001918792540'
S'Mary Laura'
tp93
a(S'100002272017433'
S'Apurva Jessica Khalkho'
tp94
a(S'100006036795123'
S'Nagesh Mishra'
tp95
a(S'1669433793'
S'Mukti Sinha'
tp96
a(S'100001027458072'
S'Priyanka Sharma'
tp97
a(S'100001009481397'
S'Preeti Gunjan Singh'
tp98
a(S'100002853740499'
S'Anamika Shukla'
tp99
a(S'100002406682348'
S'Sai Geetha'
tp100
a(S'100006186093419'
S'Puja Sharma'
tp101
a(S'100001407263472'
S'Prasoon Jaya'
tp102
a(S'100002036537484'
S'Punita Kumari'
tp103
a(S'100001347878003'
S'Helen Mary'
tp104
a(S'100001002118029'
S'Soumya Nayak'
tp105
a(S'100000552161263'
S'Vikash Pandey'
tp106
a(S'100004455134449'
S'Divya Jyoti'
tp107
a(S'100004361430707'
S'Vishal Mishra'
tp108
a(S'100003094740523'
S'Pushpa Manjhi'
tp109
a(S'100005311539555'
S'Namita Roy'
tp110
a(S'100001943431176'
S'Reema Rani Tirkey'
tp111
a(S'100001471459162'
S'Priyanka Thakur'
tp112
a(S'100001201517625'
S'Prakhar Chaturvedi'
tp113
a(S'100003013534067'
S'Simpy Kumari'
tp114
a(S'100004245541544'
S'Vijeta Gupta'
tp115
a(S'100000007561410'
S'Priya Raha'
tp116
a(S'100004628744163'
S'Anu Kumari'
tp117
a(S'100002445785560'
S'Soni Saurabh'
tp118
a(S'100006628032837'
S'Prakash Pandey Prakash Pandey'
tp119
a(S'100002359255665'
S'Anu Mittal'
tp120
a(S'539955481'
S'Sanjay Kumar Roy'
tp121
a(S'100003240124526'
S'Neha Kumari'
tp122
a(S'100003062004220'
S'Saranya Chandrasekaran'
tp123
a(S'100003147161564'
S'Sony Prasad'
tp124
a(S'100000605459100'
S'Swati Lodha'
tp125
a(S'100001088201410'
S'Jaya Datta'
tp126
a(S'100002112535447'
S'Kanan Rathore'
tp127
a(S'100001514632046'
S'Debashree Chakravorty'
tp128
a(S'100000330447355'
S'Sudarshan Iyer'
tp129
a(S'100006535391744'
S'Sonu Pandey'
tp130
a(S'100006655514243'
S'Deepak Mishra'
tp131
a(S'100003275550639'
S'Reecha Vishal Charan'
tp132
a(S'100002754558497'
S'Smriti Tirkey'
tp133
a(S'100004585269440'
S'Priya Palak'
tp134
a(S'100003253231681'
S'Rumul Bhengraj'
tp135
a(S'100004047618404'
S'Shikha Singh'
tp136
a(S'100006793025237'
S'Prakash Pandey'
tp137
a(S'100002318647157'
S'Deepa Mandal'
tp138
a(S'100002091214999'
S'Shikha Abhas Kumar'
tp139
a(S'100000922868908'
S'Abhijit Sharma'
tp140
a(S'100004092764774'
S'Ayush Mishra'
tp141
a(S'100001108497562'
S'Piya Burman'
tp142
a(S'100002543623695'
S'Sangeeta Singh'
tp143
a(S'100000010668456'
S'Pavitra Jeyakumar'
tp144
a(S'100000854615457'
S'Preethy Sunil'
tp145
a(S'100003862914635'
S'Sugandha Mishra'
tp146
a(S'100001539112346'
S'Sadaf Rahman'
tp147
a(S'100001274782571'
S'Shatabdi Laha'
tp148
a(S'1834505585'
S'Shanmuga Priya'
tp149
a(S'100002028000024'
S'Karuna Jha'
tp150
a(S'100005692869155'
S'Pratibha Singh'
tp151
a(S'100003633086286'
S'Sangeeta Agrawal'
tp152
a(S'100002933772346'
S'Magesh Boopathi'
tp153
a(S'100000007820066'
S'Rajeev Mishra'
tp154
a(S'100001584690336'
S'Saurabh Kumar Mishra'
tp155
a(S'100001481942758'
S'Ruchi Priya'
tp156
a(S'100003901577447'
S'Anwesha Sahay'
tp157
a(S'100006689922705'
S'Jyoti Mishra'
tp158
a(S'100001106500675'
S'Ragini Baranwal'
tp159
a(S'100002408327156'
S'Manisha Singh Rajput'
tp160
a(S'100002288074822'
S'Priyank Sharma'
tp161
a(S'1246978268'
S'Riya Raha'
tp162
a(S'100001901761139'
S'Nasira Noor Alam'
tp163
a(S'100001412442080'
S'Priyanka Singh'
tp164
a(S'100000231471991'
S'Om Singh Singh Sharma'
tp165
a(S'100004708568337'
S'Parul Bala'
tp166
a(S'100002263287440'
S'Amrita Gupta'
tp167
a(S'100003072153003'
S'Nidhi Vishwakarma'
tp168
a(S'100004654873940'
S'Ruchi Mishra'
tp169
a(S'100004080076323'
S'Amit Mishra'
tp170
a(S'100003087936443'
S'Nidhi Ranjan'
tp171
a(S'100001227013727'
S'Rene Christena'
tp172
a(S'100000922825067'
S'Mamta Tiwari Bajpayee'
tp173
a(S'100003938330481'
S'Prashant Mishra'
tp174
a(S'100004308780226'
S'Neha Tiwary'
tp175
a(S'100003672436716'
S'Hemlata Pradhan'
tp176
a(S'100003194632128'
S'Nupur Sharma'
tp177
asS'id'
p178
S'100002501645795'
p179
sS'name'
p180
S'Rashmi Mishra'
p181
s.