(dp1
S'friends'
p2
(lp3
(S'100001285639552'
S'Smith John'
tp4
a(S'100002757318737'
S'Jeevan Joseph'
tp5
a(S'100001027841787'
S'Raghav Grover'
tp6
a(S'100008211038535'
S'Vishal Gujjar'
tp7
a(S'100004153384955'
S'Diamond Dhawan'
tp8
a(S'100001549298404'
S'Anushka Nischal'
tp9
a(S'100002272398103'
S'Himanshu Baluni'
tp10
a(S'100001231514027'
S'Chetan Rai'
tp11
a(S'100006068610189'
S'Jivansingh Chauhan'
tp12
a(S'100001191914512'
S'Chaitanya Bangari'
tp13
a(S'100001223228316'
S'Lijil Aryan'
tp14
a(S'100004604794586'
S'Aryan Rawat'
tp15
a(S'100001733771173'
S'Aisha Kapoor'
tp16
a(S'100005142942748'
S'Akshat Bisht'
tp17
a(S'100004964972249'
S'Harshit Jain'
tp18
a(S'100006754567683'
S'Asma Khan'
tp19
a(S'100001645481638'
S'Bishal Barui'
tp20
a(S'100000506182360'
S'Shefali Gairola'
tp21
a(S'1755050847'
S'Ronin Mathew'
tp22
a(S'100001931761123'
S'Akhil Manoj'
tp23
a(S'100006136151161'
S'Nabhi Verma'
tp24
a(S'100005953143967'
S'Anand Kumar'
tp25
a(S'1527773041'
S'Gautham Lal'
tp26
a(S'100000837620246'
S'Saurav Raas Barua'
tp27
a(S'100002997316769'
S'Navya Mishra'
tp28
a(S'100001798400222'
S'Ranjan Babu'
tp29
a(S'100000532573972'
S'Rino Raj'
tp30
a(S'100005535999764'
S'Happy Marian'
tp31
a(S'100002266353887'
S'Nikita Singh'
tp32
a(S'100004193551808'
S'Yatin Malik'
tp33
a(S'100005842327726'
S'Mohit Cena'
tp34
a(S'100003846001554'
S'Jatin Kharkwal'
tp35
a(S'100003207757164'
S'Siddharth Gautam'
tp36
a(S'100003785356348'
S'Rizwaan Sheikh Siddiqi'
tp37
a(S'100003790681642'
S'Nandan Nandu'
tp38
a(S'100001008302327'
S'Alphonse Dhas Antony'
tp39
a(S'100005742480714'
S'Ankita Sharma'
tp40
a(S'100000519283202'
S'Justin Varghise'
tp41
a(S'100006010783440'
S'Jittu Kharkwal'
tp42
a(S'100004945964374'
S'Ajay Sagar'
tp43
a(S'100003031396149'
S'Raghib Khan'
tp44
a(S'100001419168476'
S'Gaurav Verma'
tp45
a(S'100002372754427'
S'Ajax George'
tp46
a(S'100002844356076'
S'Nazneen Kazi'
tp47
a(S'100000079925860'
S'Saif Khan'
tp48
a(S'100003527359411'
S'Karan Bhandari'
tp49
a(S'100000924286318'
S'Terrin Sunny'
tp50
a(S'100000676881908'
S'Abhilash Ramesh'
tp51
a(S'100002395034940'
S'Gaurav Sharma'
tp52
a(S'100002657341111'
S'Mayank Pundir'
tp53
a(S'100000487850870'
S'Ajil AL'
tp54
a(S'100003109527962'
S'Ashina Khan'
tp55
a(S'100003923770038'
S'Ashish Rock'
tp56
a(S'100003117154260'
S'Betsy John'
tp57
a(S'100000501162377'
S'Soumya Kumaria'
tp58
a(S'100001525511005'
S'Anish Raas Sapra'
tp59
a(S'100001277580398'
S'Vaibhav Rajan'
tp60
a(S'100006451337357'
S'Himanshu Gupta'
tp61
a(S'100003928541438'
S'Laxman Prasad'
tp62
a(S'100001346036668'
S'Tanu Shree Jain'
tp63
a(S'100000157502401'
S'Justin Thomas'
tp64
a(S'100002738164195'
S'Ankur Prasad'
tp65
a(S'100001118386208'
S'Jeson Varghese'
tp66
a(S'100005814900459'
S'Gaurav Verma'
tp67
a(S'100003335668895'
S'Nitin Bisht'
tp68
a(S'100002590784651'
S'Hemu Attri'
tp69
a(S'100000416394883'
S'Isha Rauthan'
tp70
a(S'100001787881327'
S'Khushboo Shah'
tp71
a(S'100001500229896'
S'Elwin Solomon'
tp72
a(S'100001579048487'
S'Nimesh Singh'
tp73
a(S'100006401792465'
S'Neeraj Kumar'
tp74
a(S'100002173606245'
S'Madhulika Sharma'
tp75
a(S'100000735129167'
S'Akash Raas Sinha'
tp76
a(S'100001732415762'
S'Anson Raphael'
tp77
a(S'100007542902997'
S'Rijo Samuel'
tp78
a(S'100005647357600'
S'\\u00d1\\u00e0m\\u00e1\\u00f1 \\u00d1\\u00e9g\\u00ed'
tp79
a(S'100003213590639'
S'Rincy Thomas'
tp80
a(S'100004688130609'
S'Manan Garg'
tp81
a(S'100002508516045'
S'Sandeep Rawat'
tp82
a(S'100001413174887'
S'Abha Nayal'
tp83
a(S'100004069392631'
S'Vikram Bisht'
tp84
a(S'100001787832570'
S'Amil Antony Augustine'
tp85
a(S'100002280247620'
S'Gourav Goyal'
tp86
a(S'100001349072788'
S'Bency Oommen'
tp87
a(S'100003526670772'
S'Aniket Negi'
tp88
a(S'100000652766890'
S'Shivang Sinha'
tp89
a(S'100001301490844'
S'Abhimanyu Kumar'
tp90
a(S'100006354429675'
S'Gondela Suryakranth'
tp91
a(S'100000883805650'
S'Nikhil Mark Lakra'
tp92
a(S'100002440169022'
S'Gaurav Negi'
tp93
a(S'100000881855411'
S'Varsha Mishra'
tp94
a(S'100003272974613'
S'Abhishek Gupta'
tp95
a(S'100003590384330'
S'Bipin Bisht'
tp96
a(S'100003647754654'
S'Dabbal Bhandari'
tp97
a(S'100002152722880'
S'Chirag Verma'
tp98
a(S'100001722730343'
S'Fijith Thomson'
tp99
a(S'100001069354719'
S'Shivansh Sinha'
tp100
a(S'100006356468544'
S'Geet Rawat'
tp101
a(S'100001605411446'
S'Mridul Dhiman'
tp102
a(S'100003297535588'
S'Bhawani Sharma'
tp103
a(S'100006569259733'
S'Prerna Kumain'
tp104
a(S'100000557456705'
S'Vijay Singh'
tp105
a(S'100003976461408'
S'Avinash Singh'
tp106
a(S'1812664259'
S'Alen J Mampilly'
tp107
a(S'100001601924586'
S'Malvika Davidson'
tp108
a(S'100003239551215'
S'Siddharth Gautam'
tp109
a(S'1481517272'
S'Nikhil Bhadran'
tp110
a(S'100001253828410'
S'Akshay Anand'
tp111
a(S'100007774621605'
S'Aryan Rawat'
tp112
a(S'100005718013380'
S'Samuel Mathew'
tp113
a(S'100001955823061'
S'Joel Itty James'
tp114
a(S'100000684094445'
S'Allan Thomas'
tp115
a(S'100006300428488'
S'Sheetal Bisht'
tp116
a(S'100005091123718'
S'Sagar Nagpal'
tp117
a(S'100008002081139'
S'Ayush Bisht'
tp118
a(S'100003513932377'
S'Arjun Negi'
tp119
a(S'100003189393560'
S'Shubham Suyal'
tp120
a(S'100001697779684'
S'Srinath Kumar'
tp121
a(S'100002706046525'
S'Ruth Sebastian'
tp122
a(S'100003752832545'
S'Nikhil Bisht'
tp123
a(S'100001925448942'
S'Tamana Sharma'
tp124
a(S'100003587508900'
S'Mayank Gupta'
tp125
a(S'100000714347976'
S'Sachin Suraj Gomes'
tp126
a(S'100005089511518'
S'Gladiatr Ayush'
tp127
a(S'1292749448'
S'Larry Sylvester Gomes'
tp128
a(S'100005128841288'
S'Karan Bhandari'
tp129
a(S'100004012125969'
S'Nancy Nikita Gomes'
tp130
a(S'100005180044258'
S'Lakshit Joshi'
tp131
a(S'100000263360221'
S'Rishabh Praveen Kumaria'
tp132
a(S'100001369036266'
S'Sai Akshaya S'
tp133
a(S'100000457198184'
S'Aditya Rawat'
tp134
a(S'100002557905195'
S'Palak Sharma'
tp135
a(S'100000581575342'
S'Anant Dev Roy'
tp136
a(S'100002810421671'
S'Monika Chauhan'
tp137
a(S'100000154613416'
S'Anurag Jayan'
tp138
a(S'100003839769208'
S'Naveen Bisht'
tp139
a(S'100001314469528'
S'Richard Gomes'
tp140
a(S'100003607944486'
S'Arushi Bansal'
tp141
a(S'100006130623119'
S'Suraj Negi'
tp142
a(S'1782852194'
S'Waseem Maverick Sani'
tp143
a(S'100000245338913'
S'Tushar Pundir'
tp144
a(S'100002047057526'
S'Vicky Malhotra'
tp145
a(S'100002390434902'
S'Aqsa Sweet'
tp146
a(S'100006067027280'
S'Jeevan Kumar Kumar'
tp147
a(S'100004149600660'
S'Akash Simon'
tp148
a(S'100003269524403'
S'Neeraj Kumar'
tp149
a(S'100001629184172'
S'Alwin Benjamin'
tp150
a(S'100000155307831'
S'Himanshu Mittal'
tp151
a(S'100002862998692'
S'Jithesh John'
tp152
a(S'100000575614498'
S'Vellukapully Ramachandran'
tp153
a(S'100003732514346'
S'Aniket Negi'
tp154
a(S'100004570444291'
S'Nitin Bisht'
tp155
a(S'100003894980192'
S'Mohit Vashisht'
tp156
a(S'100002724949095'
S'Meenakshi Garg'
tp157
a(S'100002892714058'
S'Diksha Dhyani'
tp158
a(S'100005908988517'
S'Jeevan Kumar'
tp159
a(S'100007612710832'
S'Nandhini Nandy'
tp160
a(S'100002015697862'
S'Ashwin Jayadev'
tp161
a(S'100002290926718'
S'Smart Sidra'
tp162
a(S'100000758820169'
S'Abhishek Gautam'
tp163
a(S'100003891820866'
S'Laxman Bisht'
tp164
a(S'100001892738470'
S'Athul Sleepyhead Gunner'
tp165
a(S'100006623109062'
S'Abhijithchalla Lingayas'
tp166
a(S'100000876335256'
S'Achal Sen'
tp167
a(S'100004738508138'
S'Rahul Hareendranath'
tp168
a(S'100005059423087'
S'Abhay Yadav'
tp169
a(S'100002508754135'
S'Merika Jayant'
tp170
a(S'100000561291515'
S'Joel Joy'
tp171
a(S'100006477644288'
S'Nirupma Singh'
tp172
asS'id'
p173
S'100002222607095'
p174
sS'name'
p175
S'Shikhar Bisht'
p176
s.