(dp1
S'friends'
p2
(lp3
(S'100000501062247'
S'Adeel Sarwar'
tp4
a(S'1059110378'
S'Nidhaanjit Jain'
tp5
a(S'100001595863428'
S'Hira Zahid'
tp6
a(S'663911361'
S'Aizaz Uddin'
tp7
a(S'100000182104717'
S'Ali Raza'
tp8
a(S'1566159246'
S'Ozair Naeem'
tp9
a(S'761884454'
S'Bharat Ganju'
tp10
a(S'100000924449050'
S'Omar Janjua'
tp11
a(S'551024124'
S'Haider Abbas'
tp12
a(S'562354248'
S'Sookrit Malik'
tp13
a(S'1372845218'
S'Muhammad Mubashar'
tp14
a(S'621484961'
S'Salman Kashif'
tp15
a(S'780900537'
S'Sufian Ashraf'
tp16
a(S'1722111062'
S'Radhika Mehra'
tp17
a(S'100008025553836'
S'Anam Riaz'
tp18
a(S'100000296492427'
S'Hassan Shahzad'
tp19
a(S'500937577'
S'Aneeza Alvi'
tp20
a(S'100000945361071'
S'Mehrunisa Riaz'
tp21
a(S'100000005316989'
S'Shazib Khalil'
tp22
a(S'586348680'
S'Pharan Tanveer'
tp23
a(S'1724972292'
S'Arsalan Awan'
tp24
a(S'546690161'
S'Bhavya Bishnoi'
tp25
a(S'647917889'
S'Mohammad Ali'
tp26
a(S'100000146594388'
S'Raees Iqbal'
tp27
a(S'100005237310817'
S'Salman Waqar'
tp28
a(S'100000505568925'
S'Zoraiz Riaz'
tp29
a(S'1152225763'
S'Rao Hussain'
tp30
a(S'100000651159430'
S'Danish Jamal'
tp31
a(S'628870183'
S'Nausher Shahzad Alam'
tp32
a(S'618146211'
S'Umair Samee'
tp33
a(S'100002090060127'
S'Zain Mehmood'
tp34
a(S'100001862690902'
S'Shehryar Noon'
tp35
a(S'100001328220831'
S'Talal Omer'
tp36
a(S'786810343'
S'Yaniv Rivlin'
tp37
a(S'1577948298'
S'Mian Hassan Javed'
tp38
a(S'1711806916'
S'Rana Abdul Wahab'
tp39
a(S'1094903430'
S'Noraiz Sikandar'
tp40
a(S'1138955703'
S'Hassan Manzoor'
tp41
a(S'1016815721'
S'Mitchell Winkie'
tp42
a(S'567416751'
S'Muhammad Ahmad Habib'
tp43
a(S'721890028'
S'Madeleine Traver'
tp44
a(S'745084271'
S'Tawab Hamza Ali'
tp45
a(S'100000080371177'
S'Saad Siddique'
tp46
a(S'1681337916'
S'Taimoor Akhlaq'
tp47
a(S'508684609'
S'Urvashi Khemka'
tp48
a(S'638700423'
S'Reem Khalid Allam'
tp49
a(S'1559580456'
S'Zahra Mukhtar'
tp50
a(S'100001180416639'
S'Ta\\u00eds Stew'
tp51
a(S'722900000'
S'Mahjabeen Rafay'
tp52
a(S'1302694722'
S'Adal Gulzar'
tp53
a(S'1000074229'
S'Saad Afzal'
tp54
a(S'634815329'
S'Mahnoor Saif'
tp55
a(S'100000659531722'
S'Sharjeel Kamran'
tp56
a(S'100001839557074'
S'Rafia Murtaza'
tp57
a(S'687185358'
S'Salman Tahir'
tp58
a(S'100002959413099'
S'Muhammad Abdullah Naeem'
tp59
a(S'100000095942071'
S'Cristina Diniz'
tp60
a(S'1546735143'
S'Omer Shaud'
tp61
a(S'565449328'
S'Faizan Mushtaq'
tp62
a(S'590040076'
S'Rushna Shahzad'
tp63
a(S'810975622'
S'Rafay Saeed'
tp64
a(S'100003349656058'
S'Asad Irshad'
tp65
a(S'772900050'
S'Sukriti Aggarwal'
tp66
a(S'1345572045'
S'Ahsan Nadeem'
tp67
a(S'633591004'
S'Zain Rehman'
tp68
a(S'777933284'
S'Vj Asad'
tp69
a(S'100003056093484'
S'Aun Bhatti'
tp70
a(S'705925849'
S'Rafiya A Athar'
tp71
a(S'1262550290'
S'Faizan Ahmad Urfi'
tp72
a(S'716031448'
S'Agha Hassan'
tp73
a(S'1068862879'
S'Tayyab Sheikh'
tp74
a(S'100006575230184'
S'Muhammad Ali Raza'
tp75
a(S'100003788343257'
S'Sarmad Ijaz'
tp76
a(S'100000445507760'
S'Mirza Hamza'
tp77
a(S'702296407'
S'Minnan Ayesha'
tp78
a(S'1088648990'
S'Anna Nayyar'
tp79
a(S'1248701977'
S'Tallah Ahmad Chowhan'
tp80
a(S'849180270'
S'Didar Ali Hunzai'
tp81
a(S'1480793460'
S'Umaid Khan'
tp82
a(S'595043390'
S'Areesha Asad'
tp83
a(S'100000705981369'
S'Rai Khurram Zulqarnain'
tp84
a(S'1023995637'
S'Sabreen Sohail'
tp85
a(S'100001187135673'
S'Omair Shahzad Alam'
tp86
a(S'100006498995442'
S'Hasan Karim'
tp87
a(S'1586914958'
S'Zaid Asad'
tp88
a(S'1730663715'
S'Syed Hamza Haider'
tp89
a(S'620485748'
S'Omer E Javedan'
tp90
a(S'100000480851748'
S'Hamayal Khalid Dar'
tp91
a(S'628220978'
S'Ahsan Sohail'
tp92
a(S'1452880286'
S'Sarim Saeed Bhatti'
tp93
a(S'100003220659847'
S'Hafsa Nasr'
tp94
a(S'1370044824'
S'Huzaifa Ahmad'
tp95
a(S'100006752711921'
S'Farzana Alvi'
tp96
a(S'512552424'
S'Raheel Ahmad'
tp97
a(S'100000304690390'
S'Qasim Baig'
tp98
a(S'617065190'
S'Mehwish Mishi'
tp99
a(S'100002603248186'
S'Hussam Ul Haq'
tp100
a(S'100001633390067'
S'Ahmed Jahanzeb'
tp101
a(S'100001110221121'
S'Umar Alvi'
tp102
a(S'100001667836936'
S'Syed Hassan'
tp103
asS'id'
p104
S'100000293918502'
p105
sS'name'
p106
S'Burhan Awan'
p107
s.