(dp1
S'friends'
p2
(lp3
(S'100000599952829'
S'Shailja Pathak'
tp4
a(S'100004468328530'
S'Surender Saadhak'
tp5
a(S'100006786666228'
S'Dinesh Tripathi Deewana'
tp6
a(S'100005456374670'
S'Puja Gill'
tp7
a(S'100000480354646'
S'Arpit Anaam'
tp8
a(S'1176273270'
S'Rajni Gupt'
tp9
a(S'100004036788074'
S'ProfAmitabh Pandey'
tp10
a(S'1114808969'
S'Kaushal Puneet'
tp11
a(S'100001432170875'
S'\\u0938\\u094b\\u0928\\u093f\\u092f\\u093e \\u0917\\u094c\\u0921\\u093c'
tp12
a(S'100001270670558'
S'Sarita Das'
tp13
a(S'100002046044460'
S'Sulakshana Datta'
tp14
a(S'100000509607533'
S'DrSweet Angel'
tp15
a(S'100000441855482'
S'Sunil Kumar Pathak'
tp16
a(S'100000855402701'
S'Neeloo Patni NeelPari'
tp17
a(S'100003141594349'
S'Mishraa Mohiinee'
tp18
a(S'100000469192780'
S'Nilay Upadhyay'
tp19
a(S'100001751783023'
S'\\u0921\\u0949.\\u0927\\u0928\\u091e\\u094d\\u091c\\u092f \\u0938\\u093f\\u0902\\u0939'
tp20
a(S'100006169153428'
S'Kavi Ompalsingh Nidar'
tp21
a(S'714671987'
S'Dush Yant'
tp22
a(S'100004686000776'
S'Mithilesh Thakur'
tp23
a(S'100002592286536'
S'Varsha Singh'
tp24
a(S'100002959640540'
S'Rannajay Shekhawat'
tp25
a(S'100002740388832'
S'Kishor Sharma'
tp26
a(S'100004363634125'
S'Ram K. Bhardwaj'
tp27
a(S'100002003907459'
S'Gopal Narayan Singh'
tp28
a(S'100003767768301'
S'Renu Roy'
tp29
a(S'100003239220134'
S'Harbhajan Singh Deol'
tp30
a(S'100004519093127'
S'Girish Pande'
tp31
a(S'100005889630008'
S'\\u091a\\u0928\\u094d\\u0926\\u094d\\u0930 \\u0935\\u093f\\u091c\\u092f \\u091a\\u0928\\u094d\\u0926\\u0928'
tp32
a(S'100002933884314'
S'DrDurga Sharan Mishra'
tp33
a(S'100000609342201'
S'Ashok Jamnani'
tp34
a(S'100004976737499'
S'Satish Anand'
tp35
a(S'100005169303293'
S'Rekha Joshi'
tp36
a(S'100003624611049'
S'Jyoti Khare'
tp37
a(S'100006501071623'
S'Ganesh Raj'
tp38
a(S'100005140837532'
S'Radha Shrotriya'
tp39
a(S'100001303526962'
S'Ravikant Singh'
tp40
a(S'100001049675644'
S'Awanish Tripathi'
tp41
a(S'100001481130782'
S'Kishor Agrawal'
tp42
a(S'1515926013'
S'Arvind K Singh'
tp43
a(S'100003516290087'
S'Deepika Dwivedi'
tp44
a(S'100002398008605'
S'Ailesh Awasthi'
tp45
a(S'100003233155335'
S'Sanskrita Mishra'
tp46
a(S'100002894207027'
S'Sneha Pandey'
tp47
a(S'100003996529956'
S'Madhu Gupta'
tp48
a(S'720006123'
S'Chandra Mauli Pandey'
tp49
a(S'100001158471400'
S'Anil Garg'
tp50
a(S'1037112724'
S'Javed Usmani'
tp51
a(S'100002238458904'
S'Avdhesh Nigam'
tp52
a(S'1406127668'
S'\\u0938\\u0902\\u0924\\u094b\\u0937 \\u0924\\u094d\\u0930\\u093f\\u0935\\u0947\\u0926\\u0940'
tp53
a(S'100000997054934'
S'Ramaajay Sharma'
tp54
a(S'100004602000515'
S'Somesh Shukla'
tp55
a(S'100003145549839'
S'Rekha Vinod Jain'
tp56
a(S'100007705933139'
S'Pari Didi'
tp57
a(S'100005607190710'
S'Kul Bhushan'
tp58
a(S'100003317747178'
S'Shalini Khanna'
tp59
a(S'100003894611331'
S'Poonam Tripathi'
tp60
a(S'100001448511669'
S'Sushil Chaudhary'
tp61
a(S'100001253048537'
S'Awadhesh Kumar'
tp62
a(S'100003406521733'
S'\\u0915\\u0941\\u0932\\u0926\\u0940\\u092a \\u0915\\u0941\\u092e\\u093e\\u0930 \\u092e\\u093f\\u0936\\u094d\\u0930'
tp63
a(S'100002199092744'
S'Harendera Bhardwaj'
tp64
a(S'100001138010990'
S'Lakshmi Sharma'
tp65
a(S'838352249'
S'Rajni Khaitan'
tp66
a(S'100002633145990'
S'Sujan Kavi'
tp67
a(S'100001605999128'
S'\\u090b\\u0924\\u0941\\u092a\\u0930\\u094d\\u0923 \\u0926\\u0935\\u0947'
tp68
a(S'100000268191337'
S'Kedar Nath'
tp69
a(S'100007569343489'
S'Nisha Mishra'
tp70
a(S'100003211322793'
S'Jagat Sharma'
tp71
a(S'100002375674225'
S'Kavi Deepak Pareek'
tp72
a(S'100004851750589'
S'Ranjit Upadhyay'
tp73
a(S'100000472238657'
S'Devendra N Tiwari'
tp74
a(S'100001796062340'
S'Krishna Kant'
tp75
a(S'100001667813094'
S'Kanak Saumya'
tp76
a(S'100004077571007'
S'Binu Bhatnagar'
tp77
a(S'1102162444'
S'Pramod Tambat'
tp78
a(S'100004675268192'
S'Sumitra Pareek'
tp79
a(S'100001895302518'
S'Nisha Kulshreshtha'
tp80
a(S'100004027097500'
S'Anulata Raj Nair'
tp81
a(S'100003943102335'
S'Virendra Sinha Ajnabi'
tp82
a(S'586467189'
S'Sia Kumar'
tp83
a(S'1705218142'
S'Kirtivardhan Agarwal'
tp84
a(S'100000602210346'
S'Ravindra K Das'
tp85
a(S'100001998223696'
S'Dhruv Gupt'
tp86
a(S'100001034899999'
p87
S'Kheya Chakraborti'
tp88
a(S'100007837292677'
S'Padmasambhava Shrivastava'
tp89
a(S'100000178429074'
S'Richa Pandey'
tp90
a(S'100002393217961'
S'Ansar Qumbri'
tp91
a(S'100005118400697'
S'Anirudh Sinha'
tp92
a(S'100003245787404'
S'Suneeta Saraf'
tp93
a(S'100001734444790'
S'Kumar Manoj'
tp94
a(S'100001745814776'
S'Udaya Veer Singh'
tp95
a(S'100003124531958'
S'Gannayak Jee'
tp96
a(S'100003330061541'
S'Surendra Singh Bhadauria'
tp97
a(S'100001745117393'
S'\\u0921\\u093e \\u090f\\u0938 \\u0915\\u0947 \\u0938\\u093f\\u0902\\u0939'
tp98
a(S'1665611659'
S'Mahima Mittal'
tp99
a(S'100004646162197'
S'Agnivanshi Seema'
tp100
a(S'100001337125507'
S'\\u0905\\u0936\\u094b\\u0915 \\u0936\\u0930\\u094d\\u092e\\u093e'
tp101
asS'id'
p102
S'100005434988375'
p103
sS'name'
p104
S'Arjun Singh'
p105
s.