(dp1
S'friends'
p2
(lp3
(S'100000492519849'
p4
S'Zain Zee'
tp5
a(S'100001832480487'
S'Muhammad Ayub Babar'
tp6
a(S'100000699018742'
p7
S'Rayyan Ali Khan'
tp8
a(S'100001707908471'
p9
S'Harris Rajput'
tp10
a(S'100002390706274'
p11
S'Syed Ahmad Raza'
tp12
a(S'100002368160330'
p13
S'\\u0645\\u062f\\u062b\\u0631 \\u0622\\u0641\\u0631\\u06cc\\u062f\\u06cc'
tp14
a(S'100000289807694'
p15
S'Ghazi Ya Shaheed'
tp16
a(S'100002420863080'
S'Abdul Qayyum'
tp17
a(S'100001728342557'
S'Pasha Pashah'
tp18
a(S'100002044123592'
p19
S'Pak Pakistan'
tp20
a(S'100000158691534'
S'Captn Husnain Ssg'
tp21
a(S'100003347195836'
S'Muhammad Ahmad'
tp22
a(S'100001077827117'
S'Muhammad Iqbal Ghumman'
tp23
a(S'100000979062472'
p24
S'Hamid Qureshi'
tp25
a(S'100000932260407'
p26
S'MyheartPakistan Pakistan'
tp27
a(S'540003370'
p28
S'Bilal Mian'
tp29
a(S'100002584364087'
S'Raza UD Din Qureshi'
tp30
a(S'100001072107813'
p31
S'Iqbal Ka Shaheen Qadir'
tp32
a(S'100006872318668'
S'Faiqa Marwat'
tp33
a(S'100002257859198'
p34
S'Parw\\u00e4z E Jan\\u00f6\\u00f6n'
tp35
a(S'100002507854223'
p36
S'Umer Malik'
tp37
a(S'100000547526311'
p38
S'Muhammad Fahad'
tp39
a(S'100002134257204'
p40
S'Atiq Rahman'
tp41
a(S'100005173388977'
S'Ch IrfAn'
tp42
a(S'100000295753887'
p43
S'Pakistan Zindabad'
tp44
a(S'1108881571'
p45
S'Zohaib Baig'
tp46
a(S'100001770636251'
S'Sharjeel Tareef'
tp47
a(S'100001675723467'
p48
S'Waqas Yousuf'
tp49
a(S'100000068897938'
p50
S'Malik Moin'
tp51
a(S'100005114654513'
p52
S'Dil Dil Pakistan'
tp53
a(S'100003655634120'
S'Naeem Abbas'
tp54
a(S'1483233503'
p55
S'Hum Sab Ka Pakistan'
tp56
a(S'100002456138745'
p57
S'Pak Soldiers'
tp58
a(S'1518782058'
S'Goure Kesar'
tp59
a(S'100001229164179'
S'Rana Munawar'
tp60
a(S'100001813880734'
p61
S'Ali Jan'
tp62
a(S'100006558574577'
S'Naveed Khan'
tp63
a(S'100002140123279'
S'Pakistan Tan'
tp64
a(S'100004661466876'
S'Shaban Commando'
tp65
a(S'100000261567512'
S'Fareed Memon'
tp66
a(S'100002168644350'
p67
S'Muhammad Mustafa'
tp68
a(S'100001040646022'
p69
S'Green Eagle'
tp70
a(S'570915963'
S'Asma Tauheed'
tp71
a(S'100001968179214'
S'Intikhab Gul'
tp72
a(S'100001504255158'
p73
S'Muhammad Sohaib Malkham'
tp74
a(S'100002581169271'
S'Ali Hassan'
tp75
a(S'100001098802584'
p76
S'Pakistan Ishq Pakistan Junoon'
tp77
a(S'100002458642408'
S'Malik Sideeq Tahir Commando'
tp78
a(S'100002385670177'
p79
S'Mehsud Tribal'
tp80
a(S'100000208062147'
p81
S'Time To Capture India'
tp82
a(S'100004635914091'
S'Khan Shaban Khan Shaban'
tp83
a(S'100001425155586'
p84
S'Ch Pervaiz Akbar'
tp85
a(S'100002358000903'
p86
S'Mian Abdul Shakoor'
tp87
a(S'100000640350759'
S'Muhammad Qasim'
tp88
a(S'100002783532555'
p89
S'Muhammad Asif Wattoo'
tp90
a(S'100006235693738'
S'Aziz Ullah'
tp91
a(S'100002946238476'
S'Waqar Khan'
tp92
a(S'100000837167775'
p93
S'Pakistan Zindabad'
tp94
a(S'100002927333185'
p95
S'Gumnaam Spahi'
tp96
a(S'100002191962077'
p97
S'Jmj Sialkot'
tp98
a(S'100000185346262'
p99
S'Drmubeen Ahmad'
tp100
a(S'731398015'
p101
S'\\u0633\\u0644\\u0637\\u0627\\u0646 \\u0645\\u062d\\u0645\\u062f \\u0627\\u0644\\u0641\\u062a\\u062d'
tp102
a(S'100002318079685'
S'Gorgias Boy B'
tp103
a(S'100002707297429'
p104
S'Pakistan Zindabad InshaAllah'
tp105
a(S'100000489016758'
S'Chaudhry Akeel'
tp106
a(S'100001717000482'
p107
S'Real Pakistan'
tp108
a(S'100001009808576'
S'Saleem Shakir'
tp109
a(S'100002417426628'
S'Nasrat Shah'
tp110
a(S'100001754675723'
p111
S'Pakistan Zindabad'
tp112
a(S'100003086563995'
S'Shakeela Aslam'
tp113
a(S'100000877514627'
S'Fahad Hamid'
tp114
a(S'100007860935159'
S'Aftab Ahmad'
tp115
a(S'100001351232996'
S'Aggressive Falcons'
tp116
a(S'100002316223980'
S'Najaf Ali Mohal'
tp117
a(S'100000472649053'
S'Syed Zohaib Hassan'
tp118
a(S'1765272933'
p119
S'Pakistan Zindabad'
tp120
a(S'100002793127112'
p121
S'Syed Farrukh Ali Bukhari'
tp122
a(S'100001871242726'
p123
S'Azeem Busharat'
tp124
a(S'100000184140477'
p125
S'Join Pakistan'
tp126
a(S'100002792917609'
p127
S'Pakistan Zindabad'
tp128
a(S'100004004959680'
S'Taimoor Khan'
tp129
a(S'100002416941227'
p130
S'Janis Jani'
tp131
a(S'100001235297081'
S'Arman Khan'
tp132
a(S'100006438049552'
S'Umair Saeed'
tp133
a(S'100002745018885'
p134
S'Muhammad Ali'
tp135
a(S'100000096907919'
S'Isha Ali'
tp136
a(S'100001233328566'
S'Humara Pakistan'
tp137
a(S'1488651795'
p138
S'Hasrat Kiani'
tp139
a(S'100000014300000'
p140
S'Imran Malhi'
tp141
a(S'100003031031318'
S'Salman Sani'
tp142
a(S'100000579922983'
p143
S'Fuaad Alawi'
tp144
a(S'100001700498775'
p145
S'Waheed Abbasi'
tp146
a(S'100002862451958'
S'Muhammad Usman'
tp147
a(S'100003356894083'
p148
S'Amaad Khokhar'
tp149
a(S'100002354613599'
p150
S'Mohammad Usman Qadri'
tp151
a(S'100002766203430'
S'Princces Melyza'
tp152
a(S'100002840343170'
p153
S'Green Hope'
tp154
a(S'100000994621413'
S'Mohammed Aslam'
tp155
a(S'100000636372284'
S'Qais Hamid Bhatt'
tp156
asS'id'
p157
S'100006535982116'
p158
sS'name'
p159
S'M Jan Commando'
p160
s.