(dp1
S'friends'
p2
(lp3
(S'1251140619'
S'Ashutosh Srivastava'
tp4
a(S'1029506173'
S'Amar Kumar Singh'
tp5
a(S'755149384'
S'Sanjay Kumar Singh'
tp6
a(S'100002629011086'
S'Sanjay Nirala'
tp7
a(S'100000266507175'
S'Rupam Chandra'
tp8
a(S'1788930960'
S'Rajiv Ranjan Das'
tp9
a(S'1136234388'
S'Alok Sinha'
tp10
a(S'100002670502912'
S'Ajay Gilbert'
tp11
a(S'1125975749'
S'Vinod Kumar Yadav'
tp12
a(S'100001133223347'
p13
S'Sharat Sinha'
tp14
a(S'100003330235597'
S'Rajiv Singh'
tp15
a(S'100004186325806'
S'Rakhi Singh'
tp16
a(S'100001935737631'
S'Kumar Gaurav'
tp17
a(S'1593667192'
S'Manish Banetia'
tp18
a(S'100000562167507'
S'Satish Mishra'
tp19
a(S'100003151104698'
S'Agam Shrivastava'
tp20
a(S'100001427531755'
S'Rajesh Kumar'
tp21
a(S'100004125365560'
S'Dilip Kumar'
tp22
a(S'100002968346138'
S'Shuvendu Suman'
tp23
a(S'100002259153871'
S'Pankaj Kumar'
tp24
a(S'100000233860323'
S'Drsanjeev Kumar'
tp25
a(S'100004132478935'
S'Priyadarshani Amrita'
tp26
a(S'100003256227043'
S'Shailendra Singh'
tp27
a(S'100006819434198'
S'Ranita Ray'
tp28
a(S'100000563360830'
S'Amit Singh'
tp29
a(S'100001971758184'
S'Manoj Kumar'
tp30
a(S'100004172070649'
S'Shilpi Keshari'
tp31
a(S'100003899949958'
S'Maria Jakesova'
tp32
a(S'1113101855'
S'Sanjay Mishra'
tp33
a(S'100007653341203'
S'Surbhi Sinha'
tp34
a(S'100000074814171'
S'Amar Nath'
tp35
a(S'688297240'
S'Rajiv Pathni'
tp36
a(S'100001024091293'
S'Anjani Kumar'
tp37
a(S'1583182282'
S'Balmiki Prasad'
tp38
a(S'702646091'
S'Jyoti Swarup'
tp39
a(S'100005734861628'
S'Dayanand Sah'
tp40
a(S'100000019487919'
S'Subhash Prasad'
tp41
a(S'100008016032591'
S'Rana Singh'
tp42
a(S'100007851631567'
S'Ranjeet Keshri'
tp43
a(S'100002251575045'
S'Sanjay Kumar Singh'
tp44
a(S'100002688600483'
S'Drkpurushottam Ajijollah'
tp45
a(S'100002102268074'
S'Dev Dutt Sharma'
tp46
a(S'100001469517567'
S'Sanjeev Kumar'
tp47
a(S'100000507794782'
S'Rajiv Mohan'
tp48
a(S'753685059'
S'Sanjay Sinha'
tp49
a(S'100004607893567'
S'Ajay Maitin'
tp50
a(S'100000441816870'
S'Keertika Bal'
tp51
a(S'100001558033443'
S'Rashmi Rekha'
tp52
a(S'100003115873302'
S'Ankit Singh'
tp53
a(S'100000105008049'
S'Rudrani Shandilya'
tp54
a(S'1311827503'
S'Neelabh Verma'
tp55
a(S'601635476'
S'Gautam Bhatia'
tp56
a(S'100002791254194'
S'Prem Singh'
tp57
a(S'100000006672283'
S'Tavishi Suman'
tp58
a(S'100005061695172'
S'Nivedita Kumari'
tp59
a(S'100001203534827'
S'Rajeev Manraw'
tp60
a(S'100005933709127'
S'Syed Mumtaz Hussain'
tp61
a(S'100002574835287'
S'Satyavijay Singh'
tp62
a(S'100000997515389'
S'Ashank Ranjan'
tp63
a(S'100002667072149'
S'Khushnuda Perween'
tp64
a(S'100005255203452'
S'Vinay Kumar'
tp65
a(S'100001950941288'
S'Arun Sharma'
tp66
a(S'567146308'
S'Manoshi Bhattacharya'
tp67
a(S'100002691567788'
S'Prashant Kumar'
tp68
a(S'100003273311239'
S'Yogendra Dubey'
tp69
a(S'100001683703312'
S'Banjot Kaur'
tp70
a(S'1195195098'
p71
S'Braj K. Mishra'
tp72
a(S'1159021596'
S'Sushil Kumar Kaushik'
tp73
a(S'100002536799136'
S'Rajeev Kumar'
tp74
a(S'100004479360690'
S'Zeyaul Haque'
tp75
a(S'100001170086948'
S'Praveen Singh'
tp76
a(S'100001147009662'
S'Rajesh Bhadauriya'
tp77
a(S'100004487832825'
S'Sanjeev Acharya'
tp78
a(S'100001384488874'
S'Rakesh Singh'
tp79
a(S'1670546382'
S'Tarique Jamal'
tp80
a(S'100001904747282'
S'Abhishek Kumar'
tp81
a(S'100001053856355'
S'Subodh Gautam'
tp82
a(S'100000670773971'
S'Sharadendu Srivastava'
tp83
a(S'100002256680515'
S'Sanjeev Gupta'
tp84
a(S'100001379564062'
S'Siddhartha Kumar'
tp85
a(S'100002757481282'
S'D.k. Singh'
tp86
a(S'1805989139'
S'Rajan Chaudhuri'
tp87
a(S'1336646117'
S'Rajiva Ranjan Das'
tp88
a(S'100004996658973'
S'Sanjay Sharma'
tp89
a(S'100001590378892'
S'Prem Prakash'
tp90
a(S'1262961981'
S'Suviraj Verma'
tp91
a(S'100003282539053'
S'Tapan Kumar'
tp92
a(S'100000130903325'
S'Nirmal Kumar'
tp93
a(S'547910030'
S'Manoj Kumar Singh'
tp94
a(S'100000853812379'
S'Kalyan Shankar'
tp95
a(S'1285822293'
S'Rajesh Kumar Suman'
tp96
a(S'100000976506364'
S'Rakesh Samrendra'
tp97
a(S'100000311835036'
S'Arun Kumar'
tp98
a(S'100000910885063'
S'Rashmi Ratan'
tp99
a(S'100002502940515'
S'Rohit Singh'
tp100
a(S'1129521017'
S'Amita Singh'
tp101
a(S'100006513517721'
S'Priti Mishra'
tp102
a(S'100004986043179'
S'Tarun Kumar Sinha'
tp103
a(S'100004200432726'
S'Anup Kumar'
tp104
a(S'100001096561555'
S'Gopal Shankar'
tp105
a(S'100004688739376'
S'Arbind Kumar'
tp106
a(S'100001205022500'
S'Santosh Kumar'
tp107
a(S'100006761161351'
S'Manish Purushottam'
tp108
a(S'100002741432619'
p109
S'Manoj Singh'
tp110
a(S'100003679183882'
S'Santosh Kumar Sinha'
tp111
a(S'100001712388115'
S'Arati Sinha'
tp112
a(S'100001124315469'
S'Arvind Nath Sahay Singh'
tp113
a(S'100002922532462'
S'Chandra Mohan Singh'
tp114
a(S'100003360654372'
S'Gouri Shankar'
tp115
a(S'1269122355'
S'Alok Singh'
tp116
a(S'1371450780'
S'Abhieshek Kumar'
tp117
a(S'615397321'
S'Vivek Chopra'
tp118
a(S'100003146334594'
S'Vikash Kumar Roy II'
tp119
a(S'1472523041'
S'Rajkumar Singh'
tp120
a(S'100003326438703'
S'Drbimal Kumar'
tp121
a(S'100008305971337'
S'Khushbu Agarwal'
tp122
a(S'100001995993913'
S'Atul Sinha'
tp123
a(S'100001371035891'
S'PK Roy'
tp124
a(S'100006240330314'
S'Pankh Diksha'
tp125
a(S'100000159115955'
S'Manisha Singh'
tp126
a(S'1404230281'
S'Sumantra Sircar'
tp127
a(S'1353199742'
S'Ajit Mehta'
tp128
a(S'1529645079'
p129
S'Arvind Choudhary'
tp130
a(S'1034373886'
S'Shankar Subramanian'
tp131
a(S'100002783273971'
S'Ashutosh Sharan'
tp132
a(S'100002243753881'
S'Vinod Kumar'
tp133
a(S'100001065202431'
S'Abhishek Kumar'
tp134
a(S'1326260191'
S'Shripad Joshi'
tp135
a(S'100001699708807'
S'Supriya Sinha'
tp136
a(S'1851624033'
S'Kalyan Jee'
tp137
a(S'100002174893073'
S'Niraj Kumar'
tp138
a(S'100001005790596'
S'Priyadarshi Ranjan'
tp139
a(S'100007090474237'
S'Nima Prasad'
tp140
a(S'100000593883467'
S'Nirmal Kumar'
tp141
a(S'100006721599516'
S'Viswjeet Kumar Viswjeet Kumar'
tp142
a(S'100004472222253'
S'LionsClubof Pataliputra Ashok'
tp143
a(S'100000382842582'
S'Saroj Singh'
tp144
a(S'100001384678513'
S'Kumar Anand'
tp145
a(S'100007567087657'
S'Aditi Singh'
tp146
a(S'100002635003440'
S'Onkarnath Keshri'
tp147
a(S'1813692297'
S'Manoj Kumar'
tp148
a(S'1014261232'
S'Sanjay Pandey'
tp149
a(S'100002048683701'
S'Satish Kumar'
tp150
a(S'100002506851617'
S'Rana Kundan Singh'
tp151
a(S'100000674724145'
S'Aman Gandhi'
tp152
a(S'1766560238'
S'Rita Rani'
tp153
a(S'100000902259671'
S'Rajiv Kumar Sinha'
tp154
a(S'100003138774401'
S'Amresh Jha'
tp155
a(S'100000752132325'
S'Amit Sinha'
tp156
a(S'643163031'
S'Snigdha Vishal'
tp157
a(S'100006268751597'
S'Sadhana Singh'
tp158
a(S'100005507260952'
S'Manoj Singh'
tp159
a(S'100001388574576'
S'Apurva Keshri'
tp160
a(S'100000531115472'
S'Mayank Mahajan'
tp161
a(S'100002343097819'
S'Anant Kumar'
tp162
a(S'100002599449727'
S'Sanjay Kumar'
tp163
a(S'100006442830633'
S'Sanjeet Pathak'
tp164
a(S'100001452097169'
S'Mrityunjay Mishra'
tp165
a(S'100004013716593'
S'Sanjay Kumar'
tp166
a(S'1623792999'
S'Amitabh Sinha'
tp167
a(S'100001576383164'
S'Sanjay Singh'
tp168
a(S'100002341234939'
p169
S'Khai Chang'
tp170
a(S'1117413354'
p171
S'Anuj Kumar Singh'
tp172
a(S'100003710737558'
S'Amit Singh Tomer'
tp173
a(S'1282583973'
S'Anand Dwivedi'
tp174
a(S'100004736491604'
S'Nishat Anjum'
tp175
a(S'1159698539'
S'Satyajit Sankrit'
tp176
a(S'100001850752756'
S'Pankaj Kumar'
tp177
a(S'100003167553021'
S'Prakash Kumar Singh'
tp178
a(S'100002413984350'
S'Suraj S Kolekar'
tp179
a(S'100002202243201'
S'Manish Kumar Kashyap'
tp180
a(S'1370211819'
S'Ajay Sinha'
tp181
a(S'565391586'
S'Soni Shalini'
tp182
a(S'100004020608254'
S'Soumya Singh'
tp183
a(S'100008158925403'
S'Sunil Pune'
tp184
a(S'100000674418976'
S'Er Kumar Niraj'
tp185
a(S'1174821020'
S'Kushilab Bose'
tp186
a(S'100002548459667'
S'Shashi Kumar'
tp187
a(S'100000984844031'
S'Rajan Kumar'
tp188
a(S'100004107211250'
S'Arvind Mohan Saini'
tp189
a(S'100003086415919'
S'Ritesh Kumar'
tp190
a(S'100004354514126'
S'Gyan D Perfect'
tp191
a(S'100001593534348'
S'Shama Khan'
tp192
a(S'100001520973413'
S'Subodh Gautam'
tp193
a(S'100003696365139'
S'Uday Bhagat'
tp194
a(S'100001454770909'
S'Balbir Bihari Bishok'
tp195
a(S'100002871979834'
S'Mani Bhushan'
tp196
a(S'100001982328195'
S'Samita Singh'
tp197
a(S'100003623795272'
S'Mak Raj Strokemakers'
tp198
a(S'1504677857'
S'Rajiv Gupta'
tp199
a(S'100002609724333'
S'Akanksha Sinha'
tp200
a(S'100001670400747'
S'Kishor Kunal'
tp201
a(S'100001100376110'
S'Prabhat Prakash'
tp202
a(S'100002682833764'
S'Kumar Rohit'
tp203
a(S'632389209'
S'Sudeep Gill'
tp204
a(S'100003073923764'
S'Vidya Nand Rabidas'
tp205
a(S'100001666504507'
S'Mintu Didwania'
tp206
a(S'100001365827930'
S'Vivek Gaurav'
tp207
a(S'100000324269426'
S'Deepak Goyle'
tp208
a(S'704017911'
S'Pinak Chaudhary'
tp209
a(S'100002057247310'
S'Sunit Chandra'
tp210
a(S'100003997359304'
S'Nidhi Mishra'
tp211
a(S'1261856571'
S'Satish Kumar'
tp212
a(S'1358493711'
S'Simrat Randhawa'
tp213
a(S'1532341998'
S'Amaresh Shanker'
tp214
a(S'1068638048'
S'Binay Sinha'
tp215
a(S'100002908992789'
S'Satyendra Kumar Chaudhary'
tp216
a(S'100000548390908'
p217
S'Gautam Dixit'
tp218
a(S'100001787992092'
S'Pankaj Hans'
tp219
a(S'100002468410122'
S'Rajesh Gupta'
tp220
a(S'100001710757643'
S'Vijay Raj Singh'
tp221
a(S'1448600418'
S'Sarita Singh'
tp222
a(S'100003101378874'
S'Vivek Kumar Sharma'
tp223
a(S'100002108438511'
S'Alfia Rahman'
tp224
a(S'100006671314549'
S'Manoj Kumar'
tp225
a(S'100001333038391'
S'Vikas Rai'
tp226
a(S'711005965'
S'Deepak Sharan'
tp227
a(S'100001602994256'
S'Alok Kumar'
tp228
a(S'100006489454158'
S'Lawrence Paschal'
tp229
a(S'1095938323'
S'Rakesh Bhelari'
tp230
a(S'100002558529725'
S'Subhabrata Chatterjee'
tp231
a(S'709222984'
S'Sulekha Singh'
tp232
a(S'1594122952'
S'Ranbir Singh'
tp233
a(S'100001118832129'
S'Anil Parmar'
tp234
a(S'100001987028094'
S'Mahesh Prasad'
tp235
a(S'1060242622'
S'Priyanka Sahay'
tp236
a(S'100008064187998'
S'Drrajesh Arya'
tp237
a(S'100000489360842'
S'D.p. Sinha'
tp238
a(S'100003286832736'
S'Ratan Kumar'
tp239
a(S'100003681894687'
S'Nitin Thakur'
tp240
a(S'100000349797667'
S'Ranjan Kumar Singh'
tp241
a(S'100001951413149'
S'NitishwarPrasad Verma'
tp242
a(S'100004689902550'
S'Twinkle Khan'
tp243
a(S'565713881'
S'Shaibal Guha'
tp244
a(S'100000329028808'
S'Arun Singh'
tp245
a(S'100000282940505'
S'Shyamal Gupta'
tp246
a(S'1254025229'
S'Avinash Urmil'
tp247
a(S'100002883516577'
S'Ramnath Sharma'
tp248
a(S'100003304684716'
S'Ramanujm Singh'
tp249
a(S'100000551732723'
S'Amitabh Baidehi'
tp250
a(S'1830208395'
S'Ashok Kumar'
tp251
a(S'100005779449016'
S'Vijay Swaroop'
tp252
a(S'100000946419053'
S'Ajay Thakur'
tp253
a(S'100003198724227'
S'Annie Besant'
tp254
a(S'100001938200058'
S'Rakesh Kumar'
tp255
a(S'1378543559'
p256
S'Prashant Verma'
tp257
a(S'1613058899'
S'Syed Shamael'
tp258
a(S'100004020543699'
S'Kanhaiya Srivastava'
tp259
a(S'100003037152494'
S'Niraj Kumar'
tp260
a(S'100004550530528'
S'Manoj Kumar Singh'
tp261
a(S'100000796667710'
S'Om Prakash Kumar'
tp262
a(S'100002621119001'
S'Amrendra Sinha'
tp263
a(S'100000023696045'
S'Ajay Shankar Jha'
tp264
a(S'100001976082027'
S'Kalyan Shankar'
tp265
a(S'100003712890617'
S'Vinod Baranwal'
tp266
a(S'100000974021723'
S'Sunayana Singh'
tp267
a(S'100000180102095'
S'Anurag Raj'
tp268
a(S'100001169667277'
S'Aditya Pradhan'
tp269
a(S'100000868583746'
S'Ajay Kumar Bhardwaj'
tp270
a(S'1359374333'
S'Monali Angel'
tp271
a(S'100000085037271'
S'Seema Rai'
tp272
a(S'100001190008074'
S'Lalit Singh'
tp273
a(S'100002960344717'
S'Ankit Shrivastav'
tp274
a(S'100002476771596'
S'Shravan Kumar'
tp275
a(S'100000928077358'
S'Rituraj Singh'
tp276
a(S'1201930425'
S'Tuhin Shankar'
tp277
a(S'554216257'
S'Chandravardhan Thakur'
tp278
a(S'100000999087542'
S'Vijay Srivastava'
tp279
a(S'1405970560'
S'Nirav Poornank'
tp280
a(S'100001651416748'
S'Malay Joshi'
tp281
a(S'100000027423899'
S'Sandeep Sharma'
tp282
a(S'100001600962671'
S'Jaishankar Prasad'
tp283
a(S'100001096850643'
S'DrAmrendra Kumar Singh'
tp284
a(S'100002076708295'
S'Samidha Tiwari'
tp285
a(S'100002607281782'
S'DrPrabhat Ranjan Keshri'
tp286
a(S'100003261777061'
S'Ashwani Kumar'
tp287
a(S'100000009482987'
S'George Alexander'
tp288
a(S'100000489684643'
S'Amrut Medhekar'
tp289
a(S'100000536851794'
S'Brajendra Kumar'
tp290
a(S'1831661912'
S'Sunil Kumar Singh'
tp291
a(S'100001900020852'
S'Amit Kumar Chaubey'
tp292
a(S'1076974034'
S'Sudhir Kumar Jha'
tp293
a(S'100002271017515'
S'Sudhir Seraphim'
tp294
a(S'100002135145005'
S'Mayank Nilay Mahror'
tp295
a(S'100000241728459'
S'Sajid Hussain'
tp296
a(S'100006020859960'
S'Dams Patna'
tp297
a(S'100003917301094'
S'Vipin Chandra'
tp298
a(S'1257068362'
S'Kumud Kumar Handa'
tp299
a(S'100004218757923'
S'Archana Singh'
tp300
a(S'719579631'
S'Kumar Shantanu Anand'
tp301
a(S'100003858168398'
S'Krishnakant Kumar'
tp302
a(S'814784510'
S'Sharat Srivastava'
tp303
a(S'100001050264596'
S'Sudhir Sinha'
tp304
a(S'100002115490602'
S'Kamal Kishore'
tp305
a(S'100002039742518'
S'Milli Singh'
tp306
a(S'100000294543777'
S'Vinod Sharma'
tp307
a(S'1650219480'
S'Vinay Sood'
tp308
a(S'100001098477351'
S'Deepak Kapoor'
tp309
a(S'100002573972228'
S'Sanjeet Singh'
tp310
a(S'100001746430336'
S'Sunny Singh'
tp311
a(S'100002316385866'
S'Jitendra Kumar Singh'
tp312
a(S'100000835391837'
S'Arti Sinha'
tp313
a(S'100004196617526'
S'Renu Dutt'
tp314
a(S'100006923894556'
S'Poonam Chandra'
tp315
a(S'100002582884022'
S'Rajendra Prasad'
tp316
a(S'1322851246'
S'Nagendra Prasad'
tp317
a(S'100000684474658'
S'Prashant Singh'
tp318
a(S'100005001640444'
S'Vivek Kumar'
tp319
a(S'100006457523870'
S'Ritu Verma'
tp320
a(S'805629389'
S'Munish Sawhney'
tp321
a(S'100004851253823'
S'Arbind Das'
tp322
a(S'1220365712'
S'Hemshanker Sharma'
tp323
a(S'100007844912569'
S'Rita Keshri'
tp324
a(S'100002447749222'
S'Sanjeev Kumar'
tp325
a(S'1480809835'
S'Amar N. Singh'
tp326
a(S'100004755006925'
S'Anju Sinha'
tp327
a(S'100003365318054'
S'Rajendra Maurya'
tp328
a(S'100001509179048'
S'Drumesh Singh'
tp329
a(S'644012501'
S'DrJulee Banerji'
tp330
a(S'1138472806'
S'Sandeep Das'
tp331
a(S'1496653490'
S'Smita Thakur'
tp332
a(S'1175961718'
S'Rohit Pandeya'
tp333
a(S'726907130'
S'Thakur Subhash Sinha'
tp334
a(S'100003942931916'
S'Pankaj Kumar Yadav'
tp335
a(S'627368902'
S'Sonia Singh'
tp336
a(S'1277680520'
S'Navneet Nishchal'
tp337
a(S'1090617045'
S'Supriya Singh'
tp338
a(S'100002391195883'
S'DrManoj Agrawal'
tp339
a(S'100002514340061'
S'Anjani Srivastava'
tp340
a(S'100004792506356'
S'Ratan Sharma'
tp341
a(S'100001794499676'
S'Mukta Mishra'
tp342
a(S'100002601546162'
S'Magan Dev Narayan Singh'
tp343
a(S'100000849324805'
S'Amrita Bhushan'
tp344
a(S'100002934555813'
S'Abhishek Gautam'
tp345
a(S'1130776804'
S'Manish Bajpayee'
tp346
a(S'100001370179016'
S'Mohan Kumar'
tp347
a(S'100001638360509'
S'Rajnish Kumar'
tp348
a(S'100004231505190'
S'Sanskar Bharti'
tp349
a(S'100001525263198'
S'Ranbir Singh'
tp350
a(S'100000937338901'
S'Manoj Choudhary'
tp351
a(S'100002141501980'
S'Ashok Kumar Singh'
tp352
a(S'100001715881927'
S'Abash Ranjan'
tp353
a(S'100000660181866'
S'Gurumukh Prasad'
tp354
a(S'1159765672'
S'Er Vineet Kumar Gupta'
tp355
a(S'1569903093'
S'Khursheed Alam'
tp356
a(S'1050277448'
S'Sharmistha Chowdhury'
tp357
a(S'100006365582267'
S'Nikita Kumari'
tp358
a(S'100003623337115'
S'Fahad Faiz'
tp359
a(S'100001695075558'
S'Subodh Jha'
tp360
a(S'100004104213358'
S'Shashi Ranjan'
tp361
a(S'100004259315619'
S'Shamaira Pushkar Parmar'
tp362
a(S'100000501273755'
S'Arun Kumar Singh'
tp363
a(S'100002481442707'
S'Pankaj Mittal'
tp364
a(S'1812871208'
S'Ankita Suman Anand'
tp365
a(S'100004940764139'
S'James Robert'
tp366
a(S'1217205676'
S'Pankaj Mishra'
tp367
a(S'554734895'
S'Raja Sen'
tp368
a(S'100002535662699'
S'Kumar Raj'
tp369
a(S'100001322758018'
S'Priyanka Singh'
tp370
a(S'100002119680667'
S'Lalit Yadav'
tp371
a(S'100001050723180'
S'Nityanand Kumar'
tp372
a(S'100000929537676'
S'Ashutosh Sharan'
tp373
a(S'544981985'
S'Sriram Padmanabhan'
tp374
a(S'100001643267218'
S'Gopal Mishra'
tp375
a(S'1803836250'
S'Rajesh Kumar'
tp376
a(S'100003793028839'
S'Amarendra Prasad'
tp377
a(S'100001389875696'
S'Bhawana Jha'
tp378
a(S'100004394713549'
S'Ankit Yuvraj Singh'
tp379
a(S'100004851188340'
S'Prabhat Singh'
tp380
a(S'100001302398148'
S'Pramendra Singh'
tp381
a(S'100003509475372'
S'Aftab Alam Siddiqui'
tp382
a(S'100002202927340'
S'Ratnesh Kumar'
tp383
a(S'100000028046661'
S'Amit Vikram'
tp384
a(S'100004620246594'
S'Mahi Sinha'
tp385
a(S'1216545145'
S'Vinod Vaid'
tp386
a(S'100003262731512'
S'Sunil Kumar'
tp387
a(S'100001007885762'
S'Kanchan Kumar'
tp388
a(S'100001070764676'
S'Abhijeet Chauhan'
tp389
a(S'100003287894473'
S'Poonam Prabhat'
tp390
a(S'100002558635021'
S'Satya Prakash Narain'
tp391
a(S'100007303992652'
S'Kamlakar Singh'
tp392
a(S'100001399707388'
S'Nazir Haider'
tp393
a(S'100003359200722'
S'DrPawan Kumar'
tp394
a(S'100003119382103'
S'B.b. Bharti'
tp395
a(S'100001630633476'
S'Harinandan Prasad'
tp396
a(S'100005475182000'
S'Rabindra Singh'
tp397
a(S'100004747863666'
S'Bipul Prakash Singh'
tp398
a(S'100000212187320'
S'Rakesh Choudhary'
tp399
a(S'100007058170784'
S'Santosh Kumar'
tp400
a(S'100005155292062'
S'Anil Kumar Singh'
tp401
a(S'1234507026'
S'Amaresh Singh'
tp402
a(S'100001201912631'
S'Razeev Singh'
tp403
a(S'1303034588'
S'Pranav Kumar Chaudhary'
tp404
a(S'100002146142010'
S'Sangita Verma'
tp405
a(S'100002175192643'
S'Navin Kumar Sharma'
tp406
a(S'100001944572891'
S'Chiranjiva Khandelwal'
tp407
a(S'100000651974834'
S'Manjula Prasad'
tp408
a(S'1180413350'
S'Avtar Anand'
tp409
a(S'100002423158526'
S'Sanjar Ali'
tp410
a(S'100001892949393'
S'Anupam Chowdhury'
tp411
a(S'567708456'
S'Shishir Srivastava'
tp412
a(S'1401310311'
S'Rajiv Ranjan Rao'
tp413
a(S'100000184488795'
S'Punam Dixit'
tp414
a(S'100002320662003'
S'Gautam Pandey'
tp415
a(S'100004058408076'
S'Sanjay Mishra'
tp416
a(S'100002055458493'
S'Mukesh Sinha'
tp417
a(S'100001352538001'
S'Sudhir Kumar'
tp418
a(S'100006822762690'
S'Brajesh Kumar Singh'
tp419
a(S'100000711401211'
S'Surojit Bose'
tp420
a(S'1560914776'
S'Anirban Gupta'
tp421
a(S'100002785124996'
S'Sweta Kunal'
tp422
a(S'100004992186587'
S'Sonia Tamburi'
tp423
a(S'1524555840'
S"Abhishek Rohan 'Sunny'"
tp424
a(S'100002164462703'
S'Gyan Prakash Ojha'
tp425
a(S'1385304273'
S'Hemlal Sharma'
tp426
a(S'100003302828920'
S'Jitendra Kumar Sinha'
tp427
a(S'768846631'
S'Amir Rahman'
tp428
a(S'100002322568665'
S'Sunil Shankar Choudhary'
tp429
a(S'100000686521108'
S'Amit Sinha'
tp430
a(S'100001212724958'
S'Anup Kumar'
tp431
a(S'100001391751944'
S'Onkar Nath Singh'
tp432
a(S'100004782246353'
S'Ashutosh Pandey'
tp433
a(S'100001280413701'
S'Uma Shankar Sinha'
tp434
a(S'100002339615746'
S'Sanjay Kumar Sinha'
tp435
a(S'100000320320156'
S'Vidyasagar Joshi'
tp436
a(S'1674492649'
S'Anup Sinha'
tp437
a(S'100002449500546'
S'Neelam Choudhary'
tp438
a(S'614549472'
S'Kirin Suri'
tp439
a(S'100002528241495'
S'Prakash Varma'
tp440
a(S'100006883025212'
S'Ramesh Kumar'
tp441
a(S'100003861680975'
S'Sonam Singh'
tp442
a(S'100000311856010'
S'Moiz Momin'
tp443
a(S'100003544687735'
S'Angelina Hauner'
tp444
a(S'1581041699'
S'Navin Kumar Roy'
tp445
a(S'1351527437'
S'Ajay Arora'
tp446
a(S'100003092663363'
S'Neelu Prasad'
tp447
a(S'100001466627938'
S'Frgeorge Thana'
tp448
a(S'100004023830302'
S'Amit Kumar'
tp449
a(S'1628613183'
S'Chandradeo Narain'
tp450
a(S'100001635424657'
S'Ankit Joshi'
tp451
a(S'100001438513261'
S'Rajesh Tembulkar'
tp452
a(S'100000379553302'
S'Akshay Kumar'
tp453
a(S'100003809540542'
S'Hans Mehta'
tp454
a(S'100005983744443'
S'Ankit Suman Singh'
tp455
a(S'100005280187244'
S'Manoj Sinha Padist'
tp456
a(S'1211338630'
S'Shailendra Sahil'
tp457
a(S'100005533476489'
S'Kshitiz Ranjan'
tp458
a(S'100004851882275'
S'Vivek Mishra'
tp459
a(S'712926980'
S'Sandip Kumar Agrawal'
tp460
a(S'100002971856334'
S'Samundre Us'
tp461
a(S'100000468414798'
S'Rajiv Jha'
tp462
a(S'100001048913594'
S'DrPrem Lata'
tp463
a(S'100001880613422'
S'Vinita Trivedi'
tp464
a(S'100001721379284'
S'Rajiv Prashant'
tp465
a(S'1161110386'
S'Ravi Bhushan'
tp466
a(S'100002850332174'
S'Niraj Kumar Jai Gurudev'
tp467
a(S'754583792'
S'Shreya Srivastava'
tp468
a(S'1173169918'
S'Dhananjay Kumar'
tp469
a(S'100002980030610'
S'Sanjay Singh Rajput'
tp470
a(S'1374579702'
S'Kunal Chatterjee'
tp471
a(S'100000003604061'
S'Sayondip Ghosh'
tp472
a(S'597554281'
S'Sohum Krishna'
tp473
a(S'100002280504136'
S'Sanjay Srivastava'
tp474
a(S'1020538658'
S'Mamta Sinha'
tp475
a(S'100000625152813'
S'Yash Utkarsh'
tp476
a(S'100004379104553'
S'Abhinav Vikas Thakur'
tp477
a(S'1407010617'
S'Amit Singh'
tp478
a(S'100001589585316'
S'Chander Kiran'
tp479
a(S'100000873669436'
S'Satten Kumar'
tp480
a(S'100002344040856'
S'Rajiv Kumar'
tp481
a(S'100003257482070'
S'Merajul Haque'
tp482
a(S'589162404'
S'DrShamsul Hoda'
tp483
a(S'100000992013231'
S'Anil Gupta'
tp484
a(S'100007119250934'
S'Anil Kumar Kumar'
tp485
a(S'100000396246623'
S'Anand Navin'
tp486
a(S'100003181263414'
S'Ritesh Jha'
tp487
a(S'100000347954372'
S'Sukant Bhattacharya'
tp488
a(S'100006435552159'
S'Ruhi Singh'
tp489
a(S'1004963751'
S'Prakash Kumar'
tp490
a(S'100001341053855'
S'Arundhati Ashok'
tp491
a(S'100003235699973'
S'Arun Kumar'
tp492
a(S'730986298'
S'Surbhit Manaswi'
tp493
a(S'100000833399149'
S'Rishi Mani'
tp494
a(S'100003095413079'
S'Anu Chandra'
tp495
a(S'100002100698084'
S'Renu Sinha'
tp496
a(S'100000976318859'
S'Mayank Agrawal'
tp497
a(S'100000956185307'
S'Vishnu Choudhary'
tp498
a(S'100002738865782'
S'Indrabhushan Kumar Neta'
tp499
a(S'1428955590'
S'Suneet Ghai'
tp500
a(S'100005119447226'
S'Ashok Singh'
tp501
a(S'100001343452836'
S'Alok Kumar Sinha'
tp502
a(S'100002850440456'
S'Md Jawed Akhtar'
tp503
a(S'100001886123661'
S'Hemant Kumar'
tp504
a(S'100000637032189'
S'Amit Sinha'
tp505
a(S'100001669926738'
S'Dinesh Singh'
tp506
a(S'100001588713266'
S'Dev Ranjan Sharma'
tp507
a(S'100004445433983'
S'Shiv Narayan Singh'
tp508
a(S'1446681799'
S'Subhash Chandra'
tp509
a(S'713932156'
S'Ramesh Ragothaman'
tp510
a(S'1542527360'
S'Fariha Najmi'
tp511
a(S'100000102762883'
S'Deepak Kumar'
tp512
a(S'1007645137'
p513
S'Rajeev Kumar'
tp514
a(S'100000462104106'
S'Shady Kumar'
tp515
a(S'100000390698879'
S'Ravi Vikram Singh'
tp516
a(S'100002301288309'
S'Manish Sharma'
tp517
a(S'1660599489'
S'Anita Luthra'
tp518
a(S'100007693897941'
S'Anand Kumar'
tp519
a(S'100000702547198'
S'Neeraj Kumar'
tp520
a(S'100002072380363'
S'Rajendra Prasad'
tp521
a(S'100001859727999'
S'Madhusudan Sharma'
tp522
a(S'100000601338455'
S'Anant Kumar Singh'
tp523
a(S'1077643035'
S'Rakesh Sinha'
tp524
a(S'100002557174307'
S'Rakesh Nayan'
tp525
a(S'100001422315940'
S'Prahlad Kumar'
tp526
a(S'100003834561958'
S'Abhijit Kumar'
tp527
a(S'1845275772'
S'Subrato Sen'
tp528
a(S'100003781735536'
S'Zaara Shams'
tp529
a(S'100003041116818'
S'Deepankar Jyoti'
tp530
a(S'100006898749417'
S'Maya Mishra'
tp531
a(S'100001101214856'
S'Manoj Jha'
tp532
a(S'100002018929826'
S'Kunal Singh Shisodiya'
tp533
a(S'1809415254'
S'Sanjay Jain'
tp534
a(S'768647280'
S'Ravikar Kumar'
tp535
a(S'100000942722972'
S'Sanjay Kumar'
tp536
a(S'1847856066'
S'Cheenu Bal'
tp537
a(S'100003621459594'
S'Manoj Kumar'
tp538
a(S'100004471145309'
S'Tony Sagar'
tp539
a(S'100002578945849'
S'Abhi Kumar'
tp540
a(S'100001982927674'
S'Avinash Kumar'
tp541
a(S'100000621575245'
S'Rajeev Verma'
tp542
a(S'1126814646'
S'Ravi Sreenivas Marellapudi'
tp543
a(S'100001492883473'
S'Devadatta Poddar'
tp544
a(S'100003790837217'
S'Rakesh Kumar'
tp545
a(S'100000276307215'
S'Vishal Marwaha'
tp546
a(S'1110327865'
S'Lisha Sinha'
tp547
a(S'100004769675299'
S'Shreshti Shree'
tp548
a(S'100000113600789'
S'Shailesh Kumar Shelley'
tp549
a(S'100002348703655'
S'George Nedumattam'
tp550
a(S'706616442'
S'Prabhakar Thakur'
tp551
a(S'585768580'
S'Amitabh Sohan'
tp552
a(S'100006780307910'
S'Ruhi Eshaan'
tp553
a(S'558711894'
S'Saeed Makhdomi'
tp554
a(S'539916548'
S'Sudhir Kumar Jha'
tp555
a(S'100004082175635'
S'Jitendra Kumar Singh'
tp556
a(S'100002643158676'
S'Anand Shankar'
tp557
a(S'100005381044586'
S'Shreyansh Priyam'
tp558
a(S'100000175140892'
S'Sanjay Bhawnani'
tp559
a(S'530591729'
S'Anish Aggarwal'
tp560
a(S'100001316484167'
S'Vivekanand Singh'
tp561
a(S'100001819772786'
S'Rajeev Kumar'
tp562
a(S'100002798925630'
S'Satish Kumar'
tp563
a(S'100008352126236'
S'Amar Kumar Singh'
tp564
a(S'100002884522109'
S'Piyush Kumar'
tp565
a(S'100002878460335'
S'Sweta Sharan'
tp566
a(S'554211257'
S'Somnath Sen'
tp567
a(S'100000936974806'
S'Sanjay Sinha'
tp568
a(S'1117098099'
S'Himanshu Roy'
tp569
a(S'100000177428638'
S'Vikram Khanna'
tp570
a(S'100001947633223'
S'Vikash Gupta'
tp571
a(S'100003351696738'
S'Rajiv Gupta'
tp572
a(S'1543935636'
S'Mohammad Shahid Siddiqui'
tp573
a(S'100001925363448'
S'Anupam Kumar'
tp574
a(S'606203712'
S'Niraj Sinha'
tp575
a(S'1834915332'
S'Bhanu Singh'
tp576
a(S'100003487552895'
S'Amrendra Singh'
tp577
a(S'1719902037'
S'Rajesh Kumar'
tp578
a(S'100001755387546'
S'Kanchan Sharan'
tp579
a(S'100003637732518'
S'Sunil Kumar Kaushik'
tp580
a(S'100000870924481'
S'Prerak Mittal'
tp581
a(S'100001361967129'
S'Awinash Sabita Rajput'
tp582
a(S'1423590985'
S'Ranvijay Singh'
tp583
a(S'100006212463494'
S'Sharwan Kumar'
tp584
a(S'100001233968313'
S'CA Archana Sharma'
tp585
a(S'100001388525752'
S'Ajay Kumar'
tp586
a(S'100001355846990'
S'Sanjeev Pandey'
tp587
a(S'100006707585250'
S'Prabhat Rithin'
tp588
a(S'1324167224'
S'Diwakar Tejaswi'
tp589
a(S'100001453364235'
S'Sudipto Majumdar'
tp590
a(S'100001324477891'
S'Rajat Charan'
tp591
a(S'100001735335049'
S'Sanjay Pd'
tp592
a(S'100001058958515'
S'Ashok Kumar Sinha'
tp593
a(S'100006702162186'
S'Drrs Ratnakar'
tp594
a(S'1446090609'
S'Asif Iqbal Ahmed'
tp595
a(S'100000137028769'
S'Sanjay Kumar Singh'
tp596
a(S'1357980742'
p597
S'Rajeev Ranjan'
tp598
a(S'100005604455312'
S'Gyan Harshvardhan'
tp599
a(S'100003391483408'
S'Anshuman Singh'
tp600
a(S'100003631819169'
S'Subodh Raidas'
tp601
a(S'100000985792876'
S'Devashish Sinha'
tp602
a(S'1138767577'
S'Tarun Bharthuar'
tp603
a(S'1613167503'
S'Deepak Sharan'
tp604
a(S'100000020573270'
S'Vijoy Kumar'
tp605
a(S'1371721977'
S'Dr.ravi Kumar'
tp606
a(S'1298217454'
S'Ashwani Singh'
tp607
a(S'100001341572847'
S'Laxmi Kant'
tp608
a(S'100001458584572'
S'Ajay Dube'
tp609
a(S'100001029638498'
S'Tulika Kishore'
tp610
a(S'799324440'
S'Rohit Bartarya'
tp611
a(S'1417838857'
S'Surya Vikram'
tp612
a(S'100001025604118'
S'Anjesh Kumar'
tp613
a(S'1728417677'
S'Poonam Jalan Khandelwal'
tp614
a(S'100003359138952'
S'Ravi Prakash'
tp615
a(S'100001109064857'
S'Alok Kumar Singh'
tp616
a(S'100000993423757'
S'Ravindra K Sinha'
tp617
a(S'100001778878088'
S'Satish Tiwary'
tp618
a(S'100001576812246'
S'Budha Prakash'
tp619
a(S'1133237959'
S'Swastik Shivapuri'
tp620
a(S'1442364751'
S'Rohit Suriya Sinha'
tp621
a(S'100000828243480'
S'Vikas Sharan'
tp622
a(S'100001511140475'
S'Veena Sinha'
tp623
a(S'100003002951331'
S'Rajesh Goswami'
tp624
a(S'1213450530'
S'Manoj Kumar'
tp625
a(S'100002645419233'
S'B.n. Bambm'
tp626
a(S'100000996117105'
S'Anupam Agrawal'
tp627
a(S'1288044230'
S'Nigam Prakash Narain'
tp628
a(S'100002449624982'
S'Manzoor Alam'
tp629
a(S'100001306854110'
S'Sharma Alok'
tp630
a(S'100004945208038'
S'Shivendra Singh'
tp631
a(S'100000571788692'
S'Kamlesh Singh'
tp632
a(S'100000338476077'
S'Deepak Paschal'
tp633
a(S'100003861086839'
S'Anil Kumar'
tp634
a(S'634556155'
S'Abhijit Manaswi'
tp635
a(S'100002698768464'
S'Subodh Sinha'
tp636
a(S'100002266704210'
S'Faisal Khan'
tp637
a(S'100001408687619'
S'Ashok Sinha'
tp638
a(S'100000261164094'
S'Birendra Kumar Jha'
tp639
a(S'100003865989440'
S'Kumar Jitendra'
tp640
a(S'547911257'
S'Pulkeshin Priyadarshi'
tp641
a(S'1124315089'
S'Ashwini Handa'
tp642
a(S'100000077374617'
p643
S'Bipin Singh'
tp644
a(S'100003673055495'
S'Amit Chatterjee'
tp645
a(S'100006636040727'
S'Sumit Kumar'
tp646
a(S'100001513676594'
S'DrYogesh Sahay'
tp647
a(S'100000479370732'
S'Sanjay Kumar'
tp648
a(S'100001908575928'
S'Yoga Ranjan'
tp649
a(S'100004245547602'
S'Mamta Singh'
tp650
a(S'1003014052'
S'Ashok Singh'
tp651
a(S'100002086732626'
S'Shiwani Sinha'
tp652
a(S'1405610632'
S'Sanjeev Rode'
tp653
a(S'1476077420'
S'Kumar Ramakant Sinha'
tp654
a(S'100002531921534'
S'Randhir Singh'
tp655
a(S'543481152'
S'Rudrank Dhari Sinha'
tp656
a(S'100000745264033'
S'Pradeep Bhatt'
tp657
a(S'100001209634091'
S'Vikas Kumar'
tp658
a(S'100002508385262'
S'Krishna Pandey'
tp659
a(S'100001231841723'
S'Zeyaul Haq'
tp660
a(S'1499274728'
S'Rajeev Kumar Singh'
tp661
a(S'100002859502129'
S'Raymond Anand Prakash'
tp662
a(S'100000069771007'
S'Raghuvansh Kumar'
tp663
a(S'100003541897137'
S'Vivek Kumar'
tp664
a(S'584452133'
S'Anand Vishal'
tp665
a(S'645218892'
S'Vikas Singh'
tp666
a(S'100000639849288'
S'Vishal Singh'
tp667
a(S'100000016447365'
S'Partho Ghosh'
tp668
a(S'100000896171075'
S'Sami Safi'
tp669
a(S'100002962687229'
S'Mrinal Kamal'
tp670
a(S'100000673676761'
S'Arun Kumar Ojha'
tp671
a(S'1433425956'
S'Amaresh Kumar Sinha'
tp672
a(S'100001213849047'
S'Subhro Samanta'
tp673
a(S'100002034702345'
S'Tannya Sharan'
tp674
a(S'1281820476'
S'Ajay Kumar Singh'
tp675
a(S'100003386444977'
S'Ravi Ranjan'
tp676
a(S'100002292396282'
S'Kumar Alok'
tp677
a(S'100000324164768'
S'Kanchan Sinha'
tp678
a(S'100002750501457'
S'Nazia Ishrat'
tp679
a(S'825397387'
S'Amritanshu Shekhar'
tp680
a(S'100000418325570'
S'Amit Alok'
tp681
a(S'100000719641653'
S'Shailesh Kumar Sinha'
tp682
a(S'100001977415735'
S'Empowermind Brain Mapping Centre'
tp683
a(S'100000864005451'
S'Rakesh Choudhary'
tp684
a(S'100000415726697'
S'Ranjeet Kumar Singh'
tp685
a(S'1750647629'
S'Vivek Luthra'
tp686
a(S'100002819360613'
S'Kausar Jahan'
tp687
a(S'689730255'
S'Mudit Sharma'
tp688
a(S'1582826473'
S'Shoma Mukerjee Sharma'
tp689
a(S'1576861791'
S'Meenakshi Singh'
tp690
a(S'656812284'
S'Anurag Sahai'
tp691
a(S'100001605435327'
S'Pradeep Goyal'
tp692
a(S'100001267594445'
S'Ujjal Nath'
tp693
a(S'100001712615248'
S'Amar Jha'
tp694
a(S'100001733975166'
S'Ajay Mahendru'
tp695
a(S'100005405111993'
S'Nikhil Kumar'
tp696
a(S'548804446'
S'Alok Abhijit'
tp697
a(S'100006478356517'
S'Deepak Mishra'
tp698
a(S'100008040158360'
S'Swyam Prakesh'
tp699
a(S'690717436'
S'Ambrish Verma'
tp700
a(S'100006544744688'
S'Ajit Sethi'
tp701
a(S'100001861900535'
S'Pankaj Singh'
tp702
a(S'1057353741'
S'Ayush Kr Sinha'
tp703
a(S'100004057729371'
S'DN Singh'
tp704
a(S'100000796317863'
S'Kumar Manish'
tp705
a(S'1670942666'
S'Rajendra Prasad'
tp706
a(S'1123671117'
S'Rakesh Kumar'
tp707
a(S'100001931235391'
S'Boolean Edu'
tp708
a(S'656613457'
S'Neeraj Prakash'
tp709
a(S'100001764601894'
S'Anshuman Sinha'
tp710
a(S'100000257946343'
S'Md Tauqirul Hasnain'
tp711
a(S'100001436467826'
S'Barun Golwara'
tp712
a(S'100000286238352'
S'Sushil Kumar'
tp713
a(S'100001093373927'
S'Kumar Banktesh'
tp714
a(S'100001256577171'
S'Rana Vikram Singh'
tp715
a(S'100000241825373'
S'Kumar Rahul'
tp716
a(S'100000865748051'
S'Krishna Rewani'
tp717
a(S'1316795929'
S'Yogi Rana'
tp718
a(S'100003893982619'
S'Sangeeta Singh'
tp719
a(S'666227338'
S'Sanjeeva Kumar'
tp720
a(S'100001267278197'
S'Richard Alphonse'
tp721
a(S'100003606908255'
S'Ashumita Gautam'
tp722
a(S'789568801'
S'Prabhat Ranjan'
tp723
a(S'607183556'
S'Pannag Bhushan'
tp724
a(S'100006192638612'
S'Vinod Singh'
tp725
a(S'100004026434705'
S'Abhay Pathak'
tp726
a(S'1024537097'
S'Anjan Sinha'
tp727
a(S'100006925861333'
S'Shailendra Kumar Singh'
tp728
a(S'100001545790101'
S'Nishant Sharma'
tp729
a(S'100003282731233'
S'Shashi Ranjan'
tp730
a(S'626418717'
S'DrSubhash Jha'
tp731
a(S'100000474888320'
S'Kumar Manish'
tp732
a(S'100006509164310'
S'Arun Rajak'
tp733
a(S'100001123938903'
S'Sadanand Kumar'
tp734
a(S'100000678878117'
p735
S'Sanjay Chowdhary'
tp736
a(S'1097436436'
S'Madhuri Kumar'
tp737
a(S'100001143407239'
S'Bankey Behari Singh'
tp738
a(S'100002767101808'
S'Sukrit Prakash'
tp739
a(S'1323575942'
S'Ajai Srivastava'
tp740
a(S'100007417601030'
S'Rupam Singh'
tp741
a(S'100001894344379'
S'Jyoti Ranjan Pandey'
tp742
a(S'549049847'
S'Ashutosh Sinha'
tp743
a(S'100003016702368'
S'Govind Gupta'
tp744
a(S'100007052204188'
S'Ranjit Kumar'
tp745
a(S'588171510'
S'Avinash Singh'
tp746
a(S'100000908783247'
S'Sandeep Kr Dubey'
tp747
a(S'100002990157699'
S'Anand Mandal'
tp748
a(S'100003295699807'
S'Rajesh Mishra'
tp749
a(S'100005640554173'
S'Ali Jamir'
tp750
a(S'100001369916132'
S'Abhinav Kumar'
tp751
a(S'859905610'
S'Bhargesh Banerji'
tp752
a(S'100001571031118'
S'Brajesh Kumar'
tp753
a(S'688631736'
S'Arun Malhotra'
tp754
a(S'787314437'
S'Raj Keshri'
tp755
a(S'1782794713'
S'Mithilesh Kumar'
tp756
a(S'100001004574656'
S'Ravi Ranjan'
tp757
a(S'100003867943212'
S'Shishir Rastogi'
tp758
a(S'100001457751414'
S'Prafull Chandra Kumar'
tp759
a(S'743945204'
S'Sanjay Kumar Juneja'
tp760
a(S'100001535181851'
S'Arshad Iqbal'
tp761
a(S'100000487337746'
S'Abha Rani Sinha'
tp762
a(S'100002680980874'
S'Akela Mukesh'
tp763
a(S'766538352'
S'Vishal Anand'
tp764
a(S'100000777495301'
S'Ajay Krishna Prasad'
tp765
a(S'1317078859'
S'Bhanu Pratap Singh'
tp766
a(S'100000650824167'
S'Punam Anand'
tp767
a(S'100004507274355'
S'Rajesh Singh'
tp768
a(S'100006513435876'
S'Madhu Singh'
tp769
a(S'100002306732583'
S'Nalin Prabhat'
tp770
a(S'100001421582479'
S'Drshailendra Kumar'
tp771
a(S'100001383540795'
S'Alok Mishra'
tp772
a(S'665936564'
S'Anil Kumar'
tp773
a(S'744354742'
S'Sonika Chaubey'
tp774
a(S'1268886469'
S'Deepak Srivastava'
tp775
a(S'518092900'
S'Mukesh Hissariya'
tp776
a(S'100000048777265'
S'Sanjay Singh'
tp777
a(S'100000140238183'
S'Sudhir Kumar'
tp778
a(S'100003477628326'
S'Mithilesh Kumar'
tp779
a(S'1551358008'
S'Lionel Thambi'
tp780
a(S'100000810273656'
S'Sanjiv Bahadur'
tp781
a(S'100001217188682'
S'Akhilesh Yadav'
tp782
a(S'100004427053120'
S'Nidhi Shri'
tp783
a(S'100006937175473'
S'Aakanksha Singh'
tp784
a(S'100000389712634'
S'Bhuwan Singh'
tp785
a(S'100001502281393'
S'Priyankesh Sinha'
tp786
a(S'100002820597415'
S'Anand Kumar'
tp787
a(S'100000331897916'
S'Vineesh Niranjan'
tp788
a(S'100001907774281'
S'Santosh Srivastava'
tp789
a(S'1026057274'
S'Atul Bhasin'
tp790
a(S'1596646655'
S'Sabyasachi Mukhopadhyay'
tp791
a(S'836812206'
S'Chaitanya Prakash'
tp792
a(S'578258409'
S'Sharat Kumar Singh'
tp793
a(S'1290796425'
S'Rakesh Agarwal'
tp794
a(S'100000854620496'
S'Gurjit Chawla Boney'
tp795
a(S'759702585'
S'Piyush Pal Dhari Singh'
tp796
a(S'100003890655370'
S'Vivek Kumar'
tp797
a(S'1691814724'
S'Renu Sharma'
tp798
a(S'100002446168921'
S'Krishna Nand Pande'
tp799
a(S'100000237678719'
S'Arvind Kumar Singh'
tp800
a(S'100001625880384'
S'Shalini Roy'
tp801
a(S'100000688880181'
S'Bihar Jharkhand'
tp802
a(S'100001316617709'
S'Shivam Anand'
tp803
a(S'100001435384609'
S'Ajay Kumar Singh'
tp804
a(S'100000631168130'
S'Satyajit Padhi'
tp805
a(S'100001604451798'
S'Sanjay Kumar'
tp806
a(S'1270953810'
p807
S'Prashant Singh'
tp808
a(S'100001533329170'
S'Bharat Singh'
tp809
a(S'1004732652'
S'Major Madhukar'
tp810
a(S'100000916005748'
S'Rajeev Kumar'
tp811
a(S'100007346825710'
S'Ananya Gupta'
tp812
a(S'100001727042770'
S'Rajiv Gandhi'
tp813
a(S'100000248387011'
S'Ajit Saigal'
tp814
a(S'100000295384458'
S'Shekhar Singh'
tp815
a(S'100002678164368'
S'Sanjai Kumar'
tp816
a(S'1298452151'
S'Madhumita Mohan'
tp817
a(S'100002005547754'
S'Shivkumar Santpure'
tp818
a(S'100001237291922'
S'Vinod Kumar Thakur'
tp819
a(S'100001420581445'
S'Anju Sinha'
tp820
a(S'100001031883423'
S'Anil Kumar'
tp821
a(S'100001501635742'
S'Santosh Kumar'
tp822
a(S'100001728227643'
S'Jainendra Kumar'
tp823
asS'id'
p824
S'100000664560655'
p825
sS'name'
p826
S'Amulya Singh'
p827
s.