(dp1
S'friends'
p2
(lp3
(S'100006513368376'
S'Shipra Shukla'
tp4
a(S'100008255467757'
S'Anjali Nigam'
tp5
a(S'100000927240270'
S'Lovely Grover'
tp6
a(S'100004241199380'
S'Saurabh Pant'
tp7
a(S'100000233511275'
S'Surender Dhalwal'
tp8
a(S'100003530016455'
S'Aditya Jain'
tp9
a(S'100005872784310'
S'Sapna Bhandari'
tp10
a(S'100002007137588'
S'Kapil Kumar'
tp11
a(S'100003064206752'
p12
S'Shakti Singh Arya'
tp13
a(S'100006068315530'
S'Sandeep Raju Kumar'
tp14
a(S'100003974690340'
S'Ravi Arora'
tp15
a(S'100002860502367'
S'Vini Negi'
tp16
a(S'100002623204704'
S'Anwar Khan'
tp17
a(S'100002966317315'
S'Piyush Gupta'
tp18
a(S'100007579390602'
S'Mukesh Kumar'
tp19
a(S'100006461937748'
S'Ritu Kumari'
tp20
a(S'707912069'
S'Ayush Ranjan'
tp21
a(S'100002573640229'
S'Neeraj Sethi'
tp22
a(S'100003107004937'
S'Arun Singh'
tp23
a(S'100005730579507'
S'Deepak Yadav'
tp24
a(S'100002986781574'
S'Qazi Mukit'
tp25
a(S'100006652513114'
S'Lovkush Ravi'
tp26
a(S'100007093930398'
S'Divyanshu Pandey'
tp27
a(S'100008110747104'
S'Gaurav Singh'
tp28
a(S'100003026333386'
S'Shubham Negi'
tp29
a(S'100007967371399'
S'Varsha Bisht'
tp30
a(S'100000539625844'
S'Vijay Raturi Monty'
tp31
a(S'100008105533577'
S'Sanjay Kumar'
tp32
a(S'100003048250451'
S'Kamal Kumar'
tp33
a(S'100005267011818'
S'Priyanka Rani'
tp34
a(S'100003252756401'
S'Sagar Kapoor'
tp35
a(S'100003705684209'
S'Mayank Aggarwal'
tp36
a(S'100003232555469'
S'Shubham Negi'
tp37
a(S'100007263483775'
S'Radhe Shyam'
tp38
a(S'100008278627048'
S'Ankita Singh'
tp39
a(S'100002903372369'
S'Supriya Kumari'
tp40
a(S'100006473200578'
S'Gaurav Bisht'
tp41
a(S'1185660830'
S'Rahul Anand'
tp42
a(S'100003373500425'
S'Ravi Kahar'
tp43
a(S'100005834164838'
S'Muzaffar Alam'
tp44
a(S'100003715527483'
S'Ramkaran Singh'
tp45
a(S'100004518157634'
S'Mohammad Raja'
tp46
a(S'100007594980868'
S'Pinky Singh'
tp47
a(S'100008063381132'
S'Ritu Chandna'
tp48
a(S'100004791462268'
S'Dhiru Yadav'
tp49
a(S'100006461639203'
S'Sarvjeet Singh'
tp50
a(S'100008044840988'
S'Ruksar Siddiqui'
tp51
a(S'100003848610237'
S'Sanchit Katiyar'
tp52
a(S'100000491142031'
S'Shubham Sharma'
tp53
a(S'100005290088055'
S'Madhu Bala'
tp54
a(S'100006892781079'
S'Chander Mohan'
tp55
a(S'100006778382958'
S'Sandeep Pilakhwal'
tp56
a(S'100005888653366'
S'Ailen Taroni'
tp57
a(S'100003448604182'
S'Arvind Kumar'
tp58
a(S'100003464681224'
S'Virendra Kumar Yadav'
tp59
a(S'100005870202476'
S'Aishu Aishwarya'
tp60
a(S'100004516030515'
S'Ankur O Yadav'
tp61
a(S'100005313218812'
S'Avnil Kumar'
tp62
a(S'100003819409892'
S'Ramkaran Singh'
tp63
a(S'100005160961490'
S'Poonam Kumari'
tp64
a(S'100003559631608'
S'Guddi Jha'
tp65
a(S'100002893467111'
S'Sunil Shirpurkar'
tp66
a(S'100008378680918'
S'Ayushi Malik'
tp67
a(S'100000521613196'
S'Rakshi Sharma'
tp68
a(S'100004321441223'
S'Viresh Pratap'
tp69
a(S'100005927946820'
S'Brij Lal'
tp70
a(S'100003811520493'
S'Shilki Gulati'
tp71
a(S'1425565776'
S'Manvendra Patwal'
tp72
a(S'100001752907029'
S'Saurabh Sharma'
tp73
a(S'100007046435129'
S'Zanab Rani'
tp74
a(S'100003622764077'
S'Ishan Dhami'
tp75
a(S'100007870181586'
S'Rakshanda Kumari'
tp76
a(S'100003325364524'
S'Ashish Parmar'
tp77
a(S'100003965718782'
S'Sunil Prajapat'
tp78
a(S'100003391960552'
S'Afzal Hasan'
tp79
asS'id'
p80
S'100007047061567'
p81
sS'name'
p82
S'Sumit Arora'
p83
s.