(dp1
S'friends'
p2
(lp3
(S'694643375'
S'Nematullah Zaheer'
tp4
a(S'100002766740881'
S'Sema Haq'
tp5
a(S'100002412473284'
S'Mashal Khadim Khadim'
tp6
a(S'100002137652885'
S'Jan Mohammad Shirzad'
tp7
a(S'100001049649002'
S'Neelum Najam'
tp8
a(S'100001573726374'
S'Hayatullah Ulfat'
tp9
a(S'100001721232990'
S'\\u062f\\u067e\\u069a\\u062a\\u0646\\u0648 \\u0634\\u0627\\u0639\\u0631\\u0627\\u0646\\u0648 \\u067c\\u0648\\u0644\\u0646\\u0647'
tp10
a(S'100002359059600'
S'Sheema Khan'
tp11
a(S'698901073'
S'Sayeed Ahmad Qani'
tp12
a(S'100000999356807'
S'Najibullah Zakir'
tp13
a(S'100001962328818'
S'Jalal Ashna'
tp14
a(S'100001348920482'
S'Zainullah Stanikzai'
tp15
a(S'1343761241'
S'Nematullah Zaheer'
tp16
a(S'100001337941465'
S'Mohammad Haroon Hamim'
tp17
a(S'100001499896335'
S'Baryalai Rahemi'
tp18
a(S'100001671323218'
S'Sahil Zahidi'
tp19
a(S'100001084238320'
S'Abdul Salam Payman'
tp20
a(S'753133826'
S'Ahmad Tassal'
tp21
a(S'100001008787599'
S'Khalid Hashimi'
tp22
a(S'100000192124801'
S'Gul Ahmad Ehsan Helmand'
tp23
a(S'100001558117933'
S'Lida Tanha'
tp24
a(S'645087337'
S'Farzad Lameh'
tp25
a(S'100001552068888'
S'Farid Ahmad'
tp26
a(S'100001231489963'
S'Khudainoor Khanzad'
tp27
a(S'100002109622718'
S'Khalilrahman Omeyd'
tp28
a(S'100001899083858'
S'Farzana Naz'
tp29
a(S'100002085311776'
S'Mena Mangal'
tp30
a(S'100001681623603'
S'Abdul Latif Ahady'
tp31
a(S'100002083152248'
S'Jan Muhammad Sherzad'
tp32
a(S'100002272101793'
S'Ashraf Ghani'
tp33
a(S'100001645883474'
S'Shah Mahammad Sabawoon'
tp34
a(S'100000274318628'
S'\\u0627\\u062d\\u0645\\u062f\\u062c\\u0627\\u0646 \\u062e\\u0627\\u062f\\u0645'
tp35
a(S'100001793305268'
S'\\u0635\\u062f\\u06cc\\u0642\\u064a \\u0639\\u0645\\u0631\\u062e\\u06d0\\u0644'
tp36
a(S'100002415025758'
S'Amin Khan'
tp37
a(S'100002348833011'
S'\\u0639\\u0628\\u062f\\u0627\\u0644\\u0647\\u0627\\u062f\\u06cc \\u0639\\u0645\\u0631\\u06cc'
tp38
asS'id'
p39
S'100001555588574'
p40
sS'name'
p41
S'Zainullah Stanikzai'
p42
s.