(dp1
S'friends'
p2
(lp3
(S'100000068610462'
S'O Jas Agrawal'
tp4
a(S'100001157796796'
S'Av Avinash'
tp5
a(S'100001469539629'
S'Jyoti Bora'
tp6
a(S'759148963'
S'Prachi Gupta'
tp7
a(S'100000078853536'
S'Sahil Tonk'
tp8
a(S'1290572118'
S'Varun Bajaj'
tp9
a(S'757323025'
S'Garima Agarwal'
tp10
a(S'100002049377331'
S'Seema Bisht'
tp11
a(S'1305987381'
S'Siddhi Jain'
tp12
a(S'1095802514'
S'Abhijay Ghildyal'
tp13
a(S'1259790829'
S'Preet Sukhnani'
tp14
a(S'709494694'
S'Shivani Chouhan'
tp15
a(S'100001423090483'
S'Aishwarya Singh'
tp16
a(S'518638154'
S'Palak Mehta'
tp17
a(S'594543450'
p18
S'Ravi Kashyap'
tp19
a(S'598080478'
S'Shabri Khajuria'
tp20
a(S'528836784'
S'Shweta THapa'
tp21
a(S'100001652286674'
S'Rekha Gautam'
tp22
a(S'554842137'
S'Amrutha Bhamidimukkula'
tp23
a(S'100000230762315'
S'Jannat Kalra'
tp24
a(S'1780592780'
S'Mihir Chhangani'
tp25
a(S'1011371686'
S'Abhishek Sahu'
tp26
a(S'1070717319'
S'Rohan Menon'
tp27
a(S'1793388285'
S'Dhruv Bhattacharya'
tp28
a(S'100000335728316'
S'Ankita Singh'
tp29
a(S'1165743073'
S'Vijaylaxmi Bishnoi'
tp30
a(S'582222785'
S'Shivam Verma'
tp31
a(S'518173028'
S'Shraddha Chhangani'
tp32
a(S'100000297106187'
S'Divya Khanduri'
tp33
a(S'100002198031418'
S'Madhu Bajaj'
tp34
a(S'518426383'
S'Anushka Rathi'
tp35
a(S'100000722566854'
S'Minakshi Shukla Mini'
tp36
a(S'100001045807850'
S'Malyaj Mishra'
tp37
a(S'624429307'
p38
S'Varun Tewari'
tp39
a(S'709029665'
S'Amoolya S Kumar'
tp40
a(S'572929605'
S'Ananya Sharma'
tp41
a(S'653240454'
S'Abhimanyu Chakravarty'
tp42
a(S'100000886661204'
S'Sunil Sahu'
tp43
a(S'1119511975'
S'Gaurav Rathore'
tp44
a(S'656279006'
S'Arun Bisla'
tp45
a(S'1200258420'
S'Komal Dass'
tp46
a(S'100000669127045'
S'Avinash Kuri'
tp47
a(S'1059903871'
S'Aaishwarya Singh'
tp48
a(S'572110564'
S'Vidit Tewari'
tp49
a(S'619036336'
S'Shradha Nambiar'
tp50
a(S'728835877'
S'Anay Pandey'
tp51
a(S'100001623905665'
S'Anju Singh'
tp52
a(S'100004999292769'
S'Monika Pandey'
tp53
a(S'1249202081'
S'Ashutosh Maurya'
tp54
a(S'100001208141177'
S'Aakanksha Sengar'
tp55
a(S'100001377025017'
S'Nikhita Kumar'
tp56
a(S'100000084320235'
S'Ritambhara Singh'
tp57
a(S'1134337636'
S'Akshita Chordia'
tp58
a(S'100001247013031'
S'Welly Saxena'
tp59
a(S'534881239'
S'Pari RanJan'
tp60
a(S'1435913941'
S'Shweta Godbole Shukla'
tp61
a(S'1396084465'
S'Anagha Madhukar'
tp62
a(S'1248391579'
S'Abhishek Singh'
tp63
a(S'663573808'
S'Sonal Rihani'
tp64
a(S'1173042866'
S'Saaransh Mehta'
tp65
a(S'100000873898188'
S'Deepa Nagaliker'
tp66
a(S'1045907361'
p67
S'Ashish Dubey'
tp68
a(S'1320417417'
S'Niharika Agarwal'
tp69
a(S'1065549694'
S'Prtk Beedkar'
tp70
a(S'100000127818155'
p71
S'Siddharth Mudgal'
tp72
a(S'531194723'
S'Gaurav Jha'
tp73
a(S'882900083'
S'Dushyant Kumar'
tp74
a(S'669504672'
S'Harsh Dandona'
tp75
a(S'560287392'
S'Aisha Noronha'
tp76
a(S'751938411'
S'Mahima Khatri'
tp77
a(S'100000428740029'
S'Parija Chhajer'
tp78
a(S'619514675'
S'Angeline Chauhan'
tp79
a(S'1176381920'
S'Priyanka Agarwal'
tp80
a(S'842620034'
S'Geetika Tewari'
tp81
a(S'100000206330836'
S'Paaru Pal'
tp82
a(S'664807443'
S'Prateek Chaudhari'
tp83
a(S'1058564198'
S'Ankita Deb'
tp84
a(S'548232679'
S'Akanksha Bali'
tp85
a(S'624161155'
S'Tanvi Agarwal'
tp86
a(S'531006061'
S'Pratibha Krishna Sharma'
tp87
a(S'100000716824303'
S'Ankur Dalal'
tp88
a(S'680496953'
S'Richa Trivedi'
tp89
a(S'758329384'
S'Pragya Kumbhat'
tp90
a(S'100000668095355'
S'Chandramouli Iyer'
tp91
a(S'605490865'
p92
S'Herman Singh'
tp93
a(S'100002905014836'
S'Parul Mishra'
tp94
a(S'1301014126'
S'Rohit Upadhyay'
tp95
a(S'613948806'
S'Amish Dhanani'
tp96
a(S'100000231078645'
S'Anukriti Srivastava'
tp97
a(S'100001337462607'
S'Arjun Sood'
tp98
a(S'520235863'
S'Suniti Bazaari'
tp99
a(S'1245925712'
S'Urvashi Choudhary'
tp100
a(S'100000220386318'
S'Manish Bhatt'
tp101
a(S'1836910450'
S'Himangi Tak'
tp102
a(S'1508474443'
S'Divya Daga'
tp103
a(S'100001564141252'
S'Deepmala Kushwaha'
tp104
a(S'1007837182'
S'Roma Das'
tp105
a(S'100001034902173'
S'Nikita Goyal'
tp106
a(S'543930793'
S'Esha Choudhary'
tp107
a(S'1094642949'
S'Kanungo Kirti'
tp108
asS'id'
p109
S'100000952975439'
p110
sS'name'
p111
S'Nitika Pandey'
p112
s.