(dp1
S'friends'
p2
(lp3
(S'504764034'
S'Saharish Siddiqui'
tp4
a(S'100001446306675'
S'Prakash Reddy'
tp5
a(S'100001225020400'
S'Abhay Singh Gaur'
tp6
a(S'1421634481'
S'Atulya Arora'
tp7
a(S'100001902452764'
S'Jitesh Mandal'
tp8
a(S'100001285078675'
S'Jha Sanjeev'
tp9
a(S'100000167015561'
S'Sandeep Singh'
tp10
a(S'100007433555987'
S'Swaraj Pradhan'
tp11
a(S'1805880763'
S'Manjunath Kanamadi'
tp12
a(S'100002174142215'
S'Lipin Raj'
tp13
a(S'100001248156671'
S'Dhananjay Ghanwat'
tp14
a(S'100000343300197'
S'Gangadhar Battula'
tp15
a(S'100000807517013'
S'Ajay Kr Verma'
tp16
a(S'100004322650388'
S'Gautam Musale'
tp17
a(S'100001638522312'
p18
S'Priyanka Yadav'
tp19
a(S'100002667573168'
S'Sunpreet Singh'
tp20
a(S'100007293634853'
S'Anand Bantia Iras'
tp21
a(S'100002337411027'
p22
S'Yogesh Yadav'
tp23
a(S'756616732'
S'Siva Bala'
tp24
a(S'100002284735071'
S'Navalsinh Parmar'
tp25
a(S'1264877175'
S'Shogun Gautam'
tp26
a(S'100000948893378'
S'Hempal Choudhary'
tp27
a(S'1765592144'
S'Ramji Ketavat'
tp28
a(S'100000025473495'
S'Khemchand Soni'
tp29
a(S'100003332171118'
S'Sanjay Kumar Yadav'
tp30
a(S'100001938492416'
S'Saurabh Kumar'
tp31
a(S'100006893409809'
S'Manoj Sharma'
tp32
a(S'100000778661239'
S'Nikhil Rawat'
tp33
a(S'100000074498047'
S'Prashanth Chiluka'
tp34
a(S'100001555065410'
S'Ashutosh Anand'
tp35
a(S'100007090204663'
S'Laxmi Saini'
tp36
a(S'1193747347'
S'Punitha Sadashivaiah'
tp37
a(S'100004596601882'
S'Shreyasi Gautam'
tp38
a(S'100002217325749'
S'Mukesh Verma'
tp39
a(S'100001751480443'
S'Somesh Kumar'
tp40
a(S'1322984185'
S'Lohith Eshwar'
tp41
a(S'1284408970'
S'Akash Yadav'
tp42
a(S'100000310205362'
S'Kismet Budhiraja'
tp43
a(S'100001346728446'
S'Rudra Prakash Sharma'
tp44
a(S'100002512091384'
S'Sunil Chaudhari'
tp45
a(S'100002151185267'
S'Sanjay Meena'
tp46
a(S'100000404899297'
S'Vivek Anand'
tp47
a(S'100003133341531'
S'Pradeep Singh'
tp48
a(S'100001046413745'
S'Lakshmi Gowda'
tp49
a(S'100002260239713'
S'Ariya Sakthi'
tp50
a(S'100000985952019'
S'Deepak Verma'
tp51
a(S'100002421902532'
S'Jai Prakash Kantiwal'
tp52
a(S'100000216166542'
S'Sujith Venkatram'
tp53
a(S'100001383710515'
S'Monika Sain'
tp54
a(S'100000714735481'
S'Sanjeev Dev'
tp55
a(S'100006774212109'
S'Kamal Choudhary'
tp56
a(S'642071103'
S'Shivani Narain'
tp57
a(S'100006763000011'
S'Pradeep Kumar Verma'
tp58
a(S'100000702153907'
S'Ys Ramesh Ips'
tp59
a(S'530181928'
S'Krishna Chaitanya'
tp60
a(S'100001516131634'
S'Shubham Srivastava'
tp61
a(S'100001238967739'
S'Shridhar Patil'
tp62
a(S'100003832479082'
S'Kanhaiya Patel'
tp63
a(S'100001886773609'
S'Sudhansu Ranjan'
tp64
a(S'100000020834687'
S'Nihal Singh Nehra'
tp65
a(S'664815977'
S'Joel Davis'
tp66
a(S'100000811378467'
S'Rohit Malviya'
tp67
a(S'100003326448547'
S'Priyavadan Dodiya'
tp68
a(S'100000878764902'
S'Sourav Raj Sarkar'
tp69
a(S'100002918691676'
S'Shahid Saiyed'
tp70
a(S'1228731282'
S'Dileep Chandani'
tp71
a(S'100002878912187'
S'Hemant Kumar Meena'
tp72
a(S'787963779'
S'Naveen Meena'
tp73
a(S'100000642354047'
S'Nimesh Bhatt'
tp74
a(S'1751633681'
S'Pankaj Sharma'
tp75
a(S'100000574944395'
S'Amrita Panda'
tp76
a(S'100007938337717'
S'Rail Rakshika'
tp77
a(S'782816406'
S'Vikas Kaul'
tp78
a(S'100002200289251'
S'Rakesh Barotia'
tp79
a(S'100003482335653'
S'Avinash Yadav'
tp80
a(S'100006708182778'
S'Sushma Thangaraj'
tp81
a(S'100001356054437'
S'Kulvant Singh'
tp82
a(S'1797722193'
S'Nanda Kumaran'
tp83
a(S'100000640526348'
S'Narinder Singh'
tp84
a(S'100005506062015'
S'Saurabh Singh'
tp85
a(S'100001821752789'
S'Dinesh Meena'
tp86
a(S'100000021071286'
S'Guneet Kaur'
tp87
a(S'100000473312047'
S'Sandip Kumar'
tp88
a(S'100000510567240'
S'Ritu Singh Sharma'
tp89
a(S'100002544958596'
S'Amit Prakash Mishra'
tp90
a(S'100000661129468'
S'Manoj Singh'
tp91
a(S'1503446966'
S'Shiv Ram'
tp92
a(S'100002009204995'
p93
S'Elanchezhian Jayabalan'
tp94
a(S'100000425698828'
S'Kapil Goyal'
tp95
a(S'100001922433555'
p96
S'Raj Veer'
tp97
a(S'100001198230607'
S'Ashish Kumar'
tp98
a(S'100002760389168'
S'Ankur Gayakwad'
tp99
a(S'100002456259645'
S'Ramraj Meena'
tp100
a(S'563280720'
S'Ankit Kumar Singh'
tp101
a(S'100005938386516'
S'Vishnu Kant'
tp102
a(S'100000893577484'
S'Saurabh Arora'
tp103
a(S'685280806'
S'Vishwasree Nakka'
tp104
a(S'544062265'
S'Valleswara Thokala'
tp105
a(S'100000833599402'
S'Varadhan Kasi'
tp106
a(S'1529967621'
p107
S'Ashutosh Pratap Singh'
tp108
a(S'100004096370865'
S'Kavita Verma'
tp109
a(S'100001818155177'
S'Rohit Tripathi'
tp110
a(S'100000886112631'
S'Manish Dafda'
tp111
a(S'100000906297545'
S'Ravinder Singh'
tp112
a(S'100001520084429'
S'Prakash Chandel'
tp113
a(S'587834329'
S'Noopur Mishra'
tp114
a(S'100001476529149'
S'Ajay Sharma'
tp115
a(S'100002542773051'
S'Mohit Garg'
tp116
a(S'1219138293'
S'Kumar Gaurav'
tp117
a(S'100003006175555'
S'Ram Kishor Meena'
tp118
a(S'100001605492130'
S'Gopeeram Choudhary'
tp119
a(S'100004089300573'
S'Abhimanyu Singh'
tp120
a(S'100003297834795'
S'Jagvir Singh Mahlawat'
tp121
a(S'100004154202273'
S'Kaushal Gautam'
tp122
a(S'1809767064'
S'Siva Naresh'
tp123
a(S'100003322917708'
S'Suman Panwar'
tp124
a(S'100001943323678'
S'Shiva Dhaman'
tp125
a(S'531618077'
S'Pawan Yadav'
tp126
a(S'100000079106512'
S'Gaurav Kumar Singh'
tp127
a(S'100004687562590'
S'Sagar Kumar'
tp128
a(S'100002371523312'
S'Narendra Dukiya'
tp129
a(S'1748330376'
S'Karim Lakhani'
tp130
a(S'100003516457228'
S'Saurabh Chaudhary'
tp131
a(S'100003303620344'
S'Maringtan Soni'
tp132
a(S'1420308904'
S'Aditya Ujjwal'
tp133
a(S'793612995'
S'Dhruman Nimbale'
tp134
a(S'100000698139804'
S'Virat Majboor'
tp135
a(S'1132195598'
S'Jayavardhan Sontyana'
tp136
a(S'100006727650769'
S'Anwesh Rao'
tp137
a(S'100002020369159'
S'Ankita Tiwari'
tp138
a(S'100001981890381'
S'Alka Meena'
tp139
a(S'100001478731743'
S'Divyang Parmar'
tp140
a(S'100001919156603'
S'Sandeep Kumar'
tp141
a(S'100002059273925'
S'Snehal P Bhapkar'
tp142
a(S'100002292973605'
S'Amit Goyal'
tp143
a(S'100001230834644'
S'Bhanwar Sudia'
tp144
a(S'100001186432982'
S'Vineet Kharb'
tp145
a(S'738245834'
S'Abhay Damle'
tp146
a(S'726325627'
S'Soumya Malawaliya'
tp147
a(S'1262132590'
S'Suman Balhara'
tp148
a(S'708010852'
S'Ankur Yadav'
tp149
a(S'1028317554'
S'Anupam Talwar'
tp150
a(S'1819851335'
S'Karthikeyan Rajamanickam'
tp151
a(S'100002914954266'
S'Prakash Panda'
tp152
a(S'699897357'
S'Vishal Gunni'
tp153
a(S'100000455040663'
S'Aditi Saini'
tp154
a(S'655291771'
S'Abhishek Pandey'
tp155
a(S'100003664557556'
S'Subhash Soni'
tp156
a(S'100001831365341'
S'Pawan Singh Faujdar'
tp157
a(S'100000010113349'
S'Vijaya Vinod Kurre'
tp158
a(S'100000430558447'
S'Manoj Kumar Meena'
tp159
a(S'1409654980'
S'Anshu Sharawat'
tp160
a(S'100004947540498'
S'Rajneesh Ranjan'
tp161
a(S'100002320063968'
S'Ram Krishan Jakhar'
tp162
a(S'1380687343'
S'\\u09b8\\u09c1\\u09ac\\u09c0\\u09b0 \\u0996\\u09be\\u0981'
tp163
a(S'100000066324761'
S'Harjeet Singh'
tp164
a(S'1818947734'
S'Vivek Kushwah'
tp165
a(S'100000489046022'
S'Prasad Ichangimath'
tp166
a(S'1161351946'
S'Deepak Mohan'
tp167
a(S'100002347867170'
S'Radheshyam Jangid'
tp168
a(S'715308446'
S'Simranjeet Singh'
tp169
a(S'563895117'
S'Bijendra Meena'
tp170
a(S'100001458724709'
S'Arun Kumar'
tp171
a(S'100001946071525'
p172
S'Sulochana Gajraj'
tp173
a(S'100001892760597'
S'Satya Yesubabu'
tp174
a(S'100001610395101'
S'Debashmita Chattopadhyay'
tp175
a(S'100000567508991'
S'Manikandan Soundararajan'
tp176
a(S'100002016098475'
S'Nireesh Rajput'
tp177
a(S'1163031473'
S'Bharath Ag M'
tp178
a(S'100006105160027'
S'Siddharth Dhinwa'
tp179
a(S'100000063411084'
S'Yedukondalu Vaddeboina'
tp180
a(S'542695819'
S'Nidhi Sharma'
tp181
a(S'100002858166410'
S'Vijay Singh'
tp182
a(S'100001324309480'
S'Laxma Reddy Kolla'
tp183
a(S'100002001071531'
S'Suprit Konar'
tp184
a(S'100001952163034'
S'Hemlata Kamal Poddar'
tp185
a(S'1012116644'
S'Ilyas Kpa'
tp186
a(S'100002459116291'
S'Pukhraj Soni'
tp187
a(S'100002071908191'
S'Jaya Singh Chauhan'
tp188
a(S'100001934253355'
S'Pawan Dhingra'
tp189
a(S'100000151065493'
S'Manoj Mahawar'
tp190
a(S'1243030979'
S'Praveen Yadav'
tp191
a(S'100002196887287'
S'Rajiv Mishra'
tp192
a(S'100000203968462'
S'Kanwaljeet Sarowa'
tp193
a(S'564470882'
S'Benita Reuben'
tp194
a(S'586744772'
S'Shrikant Mantri'
tp195
a(S'100001849783026'
S'Priyanka Soni'
tp196
a(S'100001691652860'
S'Indresh Garg'
tp197
asS'id'
p198
S'100003304154988'
p199
sS'name'
p200
S'Bhavpreeta Soni'
p201
s.