(dp1
S'friends'
p2
(lp3
(S'100000397789349'
S'Obaidullah Shafaq'
tp4
a(S'1662225442'
S'Shah Wali'
tp5
a(S'100001636206916'
S'Abdul Bashir Ahmadzay'
tp6
a(S'1224170366'
S'Mohammad Tayyab'
tp7
a(S'100004432961465'
S'Bilal Mulakhil'
tp8
a(S'100002006674104'
S'Faizan Ahmad'
tp9
a(S'1795255206'
S'\\u0627\\u0628\\u0648 \\u0645\\u062d\\u0645\\u062f \\u0639\\u0628\\u062f\\u0627\\u0644\\u0644\\u0647'
tp10
a(S'100000596589379'
p11
S'Ihsanullah Ihsan'
tp12
a(S'1317865226'
S'Ilyas Imam'
tp13
a(S'100008200050296'
S'Basharat Ullah'
tp14
a(S'1250329584'
S'\\u0639\\u0628\\u062f\\u0627\\u0644\\u062c\\u0628\\u0627\\u0631 \\u0628\\u0647\\u064a\\u0631'
tp15
a(S'553993935'
S'Numan Dost'
tp16
a(S'1502269661'
S'Hemayatullah Kakar'
tp17
a(S'100001576827998'
S'Nasir Ahmad Amire'
tp18
a(S'1815157742'
S'Roohullah Safi'
tp19
a(S'100001676245069'
S'Mehboob Ul Wahab Khan'
tp20
a(S'1465717023'
S'Lakarwal Shinwari'
tp21
a(S'100003768538702'
S'Fareed Malik'
tp22
a(S'100001210208136'
S'Seraj Kakar'
tp23
a(S'100000368674029'
S'Hikmat Shahid'
tp24
a(S'100000005632140'
S'AB Wasey'
tp25
a(S'100001024894404'
S'Shahid Wahab'
tp26
a(S'100005045652858'
S'M Hassan Haqyar'
tp27
a(S'100002256559996'
S'Noormohamad Noori'
tp28
a(S'100000870992327'
S'\\u062d\\u0641\\u0635\\u0629 \\u0627\\u0644\\u0644\\u062d\\u064a\\u0627\\u0646\\u064a'
tp29
a(S'1056790651'
S'Waheed Zaman'
tp30
a(S'100000612475716'
S'Hazrat Shah Khan'
tp31
a(S'100001942160966'
S'Edrees Sohrabi'
tp32
a(S'100000168610447'
S'\\u0634\\u06a9\\u0631\\u0627\\u0644\\u0644\\u0647 \\u0645\\u062e\\u0644\\u0635'
tp33
a(S'100001545010254'
S'Ziaullah Anwary'
tp34
a(S'100003025026912'
S'SayedAzam Sayedzada'
tp35
a(S'1434829986'
S'Naveed Ahmad Hamim Kakar'
tp36
a(S'100001512978028'
S'Mohammad Tawfiq'
tp37
a(S'100004162480260'
S'Lutfullah Wafa'
tp38
a(S'100002737874799'
S'Ayobi Salahuddin'
tp39
a(S'631482216'
S'Asad Sahak'
tp40
a(S'100007571358079'
S'Lal Mohammad Darwaish'
tp41
a(S'100002368157183'
S'Shefa Kakar'
tp42
a(S'100003362272693'
S'Bz Farooqi'
tp43
a(S'100000005920454'
p44
S'Sayed Farid Azam'
tp45
a(S'100003570613835'
p46
S'\\u0689\\u0627\\u06a9\\u062a\\u0631 \\u0634\\u0628\\u0646\\u0645 \\u0634\\u0628\\u0646\\u0645'
tp47
a(S'100003646486761'
S'Mahfooz Kakar'
tp48
a(S'100003774299060'
S'Adrees Kakar'
tp49
a(S'100007777033249'
S'Shoaib Mesbah'
tp50
a(S'100000321638637'
S'Muhammad Arif Adil'
tp51
a(S'1449289352'
S'Jamal Kakar'
tp52
a(S'100000352965978'
p53
S'Javed Hamim Kakar'
tp54
a(S'100001495540860'
S'\\u0639\\u0628\\u062f\\u0627\\u0644\\u0648\\u0627\\u0631\\u062b \\u0643\\u0627\\u0643\\u0631'
tp55
a(S'1834645934'
S'Lutfullah Mulakhil'
tp56
a(S'100002262963965'
S'Mohammad Arif Amiri'
tp57
a(S'100008139903248'
S'Ikram Kakar'
tp58
a(S'100001386826029'
S'Illiyyun Alghoul'
tp59
a(S'100003163203155'
S'Zubair Ahmad'
tp60
a(S'100002931549214'
S'Abu Huzifa Sabawoon'
tp61
a(S'100007586706006'
p62
S'Amanullah Habibi'
tp63
a(S'100002085311776'
p64
S'Mena Mangal'
tp65
a(S'100005102981655'
S'\\u0645\\u062d\\u0645\\u062f \\u0631\\u0642\\u064a\\u0628 \\u0645\\u0635\\u0628\\u0627\\u062d'
tp66
a(S'100007508018331'
S'Lalmohammad Darwaish'
tp67
a(S'100000992294285'
S'Aziz Rehman'
tp68
a(S'100003715660380'
S'Zahidullah Mulakhil'
tp69
a(S'1045477669'
S'Naqeeb Ahmad'
tp70
a(S'100003966708166'
S'\\u062a\\u0645\\u0631 \\u062d\\u0646\\u0629'
tp71
a(S'100005822702499'
S'Najmul Haq'
tp72
a(S'556042795'
S'Bashir Ahmad Gwakh'
tp73
a(S'100008176239053'
S'Shoaib Mesbah'
tp74
a(S'100001078104191'
S'Awal Khan'
tp75
a(S'100007425489493'
S'\\u0633\\u06cc\\u0641 \\u0627\\u0644\\u0644\\u0647'
tp76
a(S'1793365452'
S'Shamsulhaq Kakar'
tp77
a(S'100002908625652'
S'Muhammad Rooman'
tp78
a(S'100007413788772'
S'Abdulkarim Mulakhil'
tp79
a(S'100004221554116'
S'Emad Kakar'
tp80
a(S'100004502644599'
S'Mahbobshah Mahbob'
tp81
a(S'1268238960'
S'Noor Azizi'
tp82
a(S'100004674992661'
S'Khalilullah Mulakhil'
tp83
a(S'100002240560762'
p84
S'\\u0634\\u0631\\u0631 \\u0633\\u0627\\u067e\\u064a'
tp85
a(S'100003371240283'
S'\\u0641\\u0627\\u0637\\u0645\\u0647 \\u0627\\u0633\\u0644\\u0627\\u0645'
tp86
a(S'100002395307799'
S'Wasiq Hamim'
tp87
a(S'100003577837806'
S'Tariq Khan Mia Jee'
tp88
a(S'100008092410508'
S'Muhammad Asim'
tp89
a(S'100007551518210'
S'Afghan Faisal'
tp90
asS'id'
p91
S'100000613453389'
p92
sS'name'
p93
S'Mujahid Kakar'
p94
s.