(dp1
S'friends'
p2
(lp3
(S'100004528713156'
S'Rahul Jain'
tp4
a(S'100000417330885'
S'Sanchita Dhir'
tp5
a(S'100001305205797'
S'Abhimanyu Singh'
tp6
asS'id'
p7
S'100000417330885'
p8
sS'name'
p9
S'Sanchita Dhir'
p10
s.