(dp1
S'friends'
p2
(lp3
(S'100006883357546'
S'Iram Shaikh'
tp4
a(S'100005384615805'
S'Jhon Khan Sial'
tp5
a(S'100005183825810'
S'Malik Sibtain'
tp6
a(S'100005059114025'
S'Ch M Usmam'
tp7
a(S'539548693'
S'Usman Gilani'
tp8
a(S'100007276020097'
S'Malik Sohail Mehdi'
tp9
a(S'100007113907308'
S'Muhammad Abbas'
tp10
a(S'100006315309528'
S'Shahid Ali Shahid'
tp11
a(S'100005264916975'
S'Dilawar Hashmi'
tp12
a(S'100006973421965'
S'Sana Kanwal'
tp13
a(S'100006275556871'
S'Fariha Rani'
tp14
a(S'100003590121702'
S'Arslan Nazim'
tp15
a(S'100004673042927'
S'Qamar Zaman Zaman'
tp16
a(S'100002062921884'
S'Fozia Batool'
tp17
a(S'100001671081607'
S'Muhammad Taimur Khan'
tp18
a(S'100003041518934'
S'Malik Faisal Mehdi'
tp19
a(S'100002091288219'
S'Ameer Hassan Sargana'
tp20
a(S'100005799883602'
S'\\u0634\\u0628\\u0646\\u0645 \\u0635\\u0627\\u0641\\u06cc'
tp21
a(S'100002732421416'
S'Mary Grace M. Cunanan'
tp22
a(S'100000199618456'
S'Princess Manisha'
tp23
a(S'100000560413092'
S'Nimra Khakwani'
tp24
a(S'100005908931359'
S'Zakir Zaigham Abbas'
tp25
a(S'100006603426074'
S'Sidra Javad'
tp26
a(S'100001257239127'
S'\\u0633\\u064a\\u062f\\u062d\\u0633\\u0646\\u064a\\u0646 \\u064a\\u0648\\u0633\\u0641 \\u0646\\u0642\\u0648\\u064a'
tp27
a(S'100001713305309'
S'Sadia Khan'
tp28
a(S'100002176736830'
S'Dilawar Ali'
tp29
a(S'100006211240642'
S'Kabhi Aliyya Na Kehna'
tp30
a(S'100007094430692'
S'Adnan Tanha'
tp31
a(S'100007175522609'
S'Akhtar Abbas'
tp32
a(S'100004416723715'
S'Mehak Rania'
tp33
a(S'100007566423101'
S'Komal Fatima'
tp34
a(S'100004987441131'
S'Amir Raza'
tp35
a(S'100003629595105'
S'Naveed Anjum'
tp36
a(S'100006764341704'
S'\\u09a8\\u09c0\\u09b2\\u09bf\\u09ae\\u09be \\u09a8\\u09c2\\u09aa\\u09c1\\u09b0'
tp37
a(S'100007627958652'
S'Hamid Shehzad'
tp38
a(S'100004767360480'
S'Ahmad Raza'
tp39
a(S'100007391433406'
S'Muhammad Mushtaq'
tp40
a(S'100007509222050'
S'Imran Haidar Electreshan'
tp41
a(S'100003505375266'
S'Ameer Raza Sargana'
tp42
a(S'100006431813413'
S'Umar Hayyat Moon'
tp43
a(S'100003170796006'
S'Ali Hassan Jafary'
tp44
a(S'100003462265120'
S'Malik Khalid Anjum'
tp45
a(S'100002085311776'
S'Mena Mangal'
tp46
a(S'100007684681602'
S'Hashim Hussain Gishkori'
tp47
a(S'100004868223342'
S'Tanisha Akter Mim'
tp48
a(S'100007157502736'
S'Arslan Nazim'
tp49
a(S'100005789642885'
S'Anam Kashmiri'
tp50
a(S'100003938878558'
S'Mian Mazhir'
tp51
a(S'100005987413188'
S'Amir Prince'
tp52
a(S'100006714313488'
S'Sana Jan'
tp53
a(S'100002397330295'
S'Aon Haider'
tp54
a(S'100004649858523'
S'Muhammad Adnan Zafir'
tp55
a(S'100001357885769'
S'Shahid Mansoor Malangi'
tp56
a(S'100007639780720'
S'Muhammad Imran'
tp57
asS'id'
p58
S'100006634572714'
p59
sS'name'
p60
S'Hassan Raza'
p61
s.