(dp1
S'friends'
p2
(lp3
(S'100006193020064'
S'Chotu Mishra'
tp4
a(S'100003364272001'
S'Pratik Mishra'
tp5
a(S'100000910291089'
S'Rohit Tibrewal'
tp6
a(S'100003366990681'
S'Ashish Dubey'
tp7
a(S'100003162375854'
S'Sanjeev Ray'
tp8
a(S'100003119988905'
S'Pinky Kumari'
tp9
a(S'100004434218605'
S'Jeeteshkumar Mishra'
tp10
a(S'1577889574'
S'Ajay Pandey'
tp11
a(S'100003032802052'
S'Abhishek Kumar'
tp12
a(S'100003954254937'
S'Ascent Infotech'
tp13
a(S'100003303787311'
S'Asis Kumar'
tp14
a(S'100004519261936'
S'Bahadur Kumar Bahadur Kumar'
tp15
a(S'100004330483213'
S'Amit Monu'
tp16
a(S'100004796798185'
S'Ashesh Pathak'
tp17
a(S'100003100940010'
S'Rakesh Pathak'
tp18
a(S'100006138091188'
S'Pankaj Gupta'
tp19
asS'id'
p20
S'100006556719057'
p21
sS'name'
p22
S'Rohit Raj'
p23
s.