(dp1
S'friends'
p2
(lp3
(S'100001704735810'
S'Sneha Singh'
tp4
a(S'100006097573875'
S'Jp Parida'
tp5
a(S'100002239418326'
S'Bharat Mishra'
tp6
a(S'1829945208'
S'Kandy Klein'
tp7
a(S'100000583797523'
S'Debosmita Ghosh'
tp8
a(S'100001544434045'
S'Kanika Tewary'
tp9
a(S'100000986090081'
S'Anu V Rana'
tp10
a(S'100000125077258'
S'Akshay Sharma'
tp11
a(S'100000882919642'
S'Mvd Sagar'
tp12
a(S'100005080320671'
S'Pawan Siradhana'
tp13
a(S'100001662315621'
S'Sudipto Ghosh'
tp14
a(S'100000879091060'
S'Saurabh Pandey'
tp15
a(S'1814915005'
S'Mili Srivastava'
tp16
a(S'537250711'
S'Nishant Mamgain'
tp17
a(S'100000503374641'
S'Bhumika Kandpal'
tp18
a(S'100001282533387'
S'Chauhan Rahul'
tp19
a(S'100001426892368'
S'Amita Bhatt Kharkwal'
tp20
a(S'100000658652929'
S'Monica Srivastava'
tp21
a(S'100001743207021'
S'Manju Verma'
tp22
a(S'100007990171569'
S'Archana Pandey'
tp23
a(S'100002117828208'
S'Jyotirmayee Lenka'
tp24
a(S'100001111029393'
S'Ashish Kumar Supakar'
tp25
a(S'100000842253973'
S'Varsha Arya'
tp26
a(S'100000997631314'
S'Brahmos Mishra'
tp27
a(S'100003479371756'
S'Anamika Singh'
tp28
a(S'100000552214161'
S'Abhishek Kumar Singh'
tp29
a(S'1507730300'
S'Nitin Khedar'
tp30
a(S'100001718217767'
S'Sandeep Kumar'
tp31
a(S'711771895'
S'Uday D. D. Sane'
tp32
a(S'723631727'
S'Dushyant Singh Rathore'
tp33
a(S'100000952182158'
S'Sangita Sharma'
tp34
a(S'100001326776458'
S'Gaurav Bhardwaj'
tp35
a(S'100002072094363'
S'Rimple Joshi'
tp36
a(S'100001596211482'
S'Ashish Thakur'
tp37
a(S'100000596409142'
S'Neelabh Rai'
tp38
a(S'1318278274'
S'Manoj Kharkwal'
tp39
a(S'100001502932162'
S'Abhishek Duboliya'
tp40
a(S'1408155753'
S'Pravin Sonkar'
tp41
a(S'100002192913183'
S'Harkeet Singh Thakur'
tp42
a(S'100001075437193'
S'Ayush Bisht'
tp43
a(S'100001567938830'
S'Ketan Jazz Mariner'
tp44
a(S'100001122797566'
S'Abhishek Pandey'
tp45
a(S'100000554830756'
S'Abhay Singh Inda'
tp46
a(S'599496713'
S'Jaiveer Singh Chauhan'
tp47
a(S'100004299723278'
S'Rajesh Babu'
tp48
a(S'1259317950'
S'Numb Runner'
tp49
a(S'100000288531639'
S'Pankz Karasi'
tp50
a(S'100006932048668'
S'Shalini Thakur'
tp51
a(S'1552042083'
S'Hemant Singh'
tp52
a(S'100003550431445'
S'King Shaan'
tp53
a(S'100000134223264'
S'Hegin Lunkim'
tp54
a(S'100003060395973'
S'Archi Cool'
tp55
a(S'100001206010737'
S'Chham Thapa'
tp56
a(S'100002249966087'
S'Alisha Sharma'
tp57
a(S'100000600350998'
S'Prashant Kishore'
tp58
a(S'100000395336748'
S'Nikita Mishra'
tp59
a(S'100007784476596'
S'Angel Palke'
tp60
a(S'100001635587306'
S'Aarti Singh'
tp61
a(S'710061756'
S'Bhanu Pratap Singh Mankotia'
tp62
a(S'100001012843081'
S'Nano Wishy'
tp63
a(S'100005477201963'
S'Ankitta Pati'
tp64
a(S'1248330396'
S'Caahil Thakur'
tp65
a(S'568103697'
S'Abhimanyu Sharma'
tp66
a(S'1475341129'
S'Bryson Brave'
tp67
a(S'100001622085720'
S'Anita Kanwar'
tp68
a(S'100001911177382'
S'Naaz Alvi'
tp69
a(S'100002276815184'
S'Lal Bahadur Yadav'
tp70
a(S'100000541825703'
S'Vikas Kankarwal'
tp71
a(S'100001650310266'
S'Lovejoy Baite'
tp72
a(S'523233304'
S'Gauri Soman'
tp73
a(S'100001149881642'
S'Nidhi Handa'
tp74
a(S'786718913'
S'Khushvinder Singh'
tp75
a(S'100002009271874'
S'Shivani Pandey'
tp76
a(S'100001908972444'
S'Amit Singh'
tp77
a(S'100000356760866'
S'Gaurav Verma'
tp78
a(S'100001003195093'
S'Deepak Kashyap'
tp79
a(S'100001732401367'
S'Chandra Veer Shaktawat'
tp80
a(S'1820663356'
S'Anuradha Sharma'
tp81
a(S'1506922971'
S'Rajat Kumar Tomar'
tp82
a(S'100000880265175'
S'Surender Singh Mehta'
tp83
a(S'100000220143630'
S'Vineet Singh'
tp84
a(S'100003563628159'
S'Sonam Negi'
tp85
a(S'100001468434711'
S'Siddhant Saxena'
tp86
a(S'100003298587415'
S'Manmaya Prasad Vicky'
tp87
a(S'100000474501147'
S'Swikar Bhardwaj'
tp88
a(S'100001633157227'
S'Abhi Prince'
tp89
a(S'100000919708503'
S'Tushar Tango'
tp90
a(S'1034462229'
S'Anirudh Kohli'
tp91
a(S'1523867351'
S'Devashish Rout'
tp92
a(S'100000525040317'
S'Bravo Alpha'
tp93
a(S'1781904383'
S'Mayank Chaturvedi'
tp94
a(S'100004031536141'
S'Archana Dalai'
tp95
a(S'100000416507690'
S'Man Trips'
tp96
a(S'100001613423463'
S'Kanchan Kapoor'
tp97
a(S'1132162621'
S'Alna Chandra'
tp98
a(S'100001062735365'
S'Smart Jyoti'
tp99
a(S'100000605804528'
S'Ram Mohammad Singh'
tp100
a(S'100004953784800'
S'Andromeda Khushi'
tp101
a(S'100001262781281'
S'Bavita Adhikari'
tp102
a(S'100000792622928'
S'Anuja Chaudhary'
tp103
asS'id'
p104
S'100001160077740'
p105
sS'name'
p106
S'Manish Supakar'
p107
s.