(dp1
S'friends'
p2
(lp3
(S'100003140600680'
S'Akram Khan'
tp4
a(S'100003390459332'
p5
S'Jalaluddin Khan'
tp6
a(S'100003775270122'
S'Juhi Agarwal Koshik'
tp7
a(S'100004366563457'
S'Dharmedra Jaiswal'
tp8
a(S'100001978526432'
S'Israr Choudhry'
tp9
a(S'100007710224558'
S'Vaseem Chauhan'
tp10
a(S'100005533212084'
S'Muddiser Khan'
tp11
a(S'100004194061083'
S'Vk Mansure Mansure'
tp12
a(S'100002680658224'
S'Mohd Irshad Choudhary'
tp13
a(S'100003925253085'
S'Santosh Dwivedi'
tp14
a(S'100007137188706'
S'Sahil Khan'
tp15
a(S'100005099526294'
S'Altaf Choudhary'
tp16
a(S'100005624378616'
S'Rizwan Ghazi'
tp17
a(S'100003273182874'
p18
S'Kunwar Aftab'
tp19
a(S'100006510908825'
S'Waseem Chouhan'
tp20
a(S'100007531232819'
S'Rohit Rj'
tp21
a(S'100008163252923'
p22
S'Sajid Choudhary'
tp23
a(S'100002999770896'
S'Ikrar Choudhary'
tp24
a(S'100003549251444'
S'Rahul Dubey'
tp25
a(S'100002592158363'
S'Rashid Saifi'
tp26
a(S'100002617791423'
S'Zubair Khan'
tp27
a(S'100002965261480'
S'Salim Bhati'
tp28
a(S'100003507047418'
S'Robin Alvi'
tp29
a(S'100007887098310'
S'Chaudhray Waseem'
tp30
a(S'100002007550969'
S'Ammar Ahmed'
tp31
a(S'100003179890774'
S'Nitin Rathi'
tp32
a(S'100004964984426'
S'Sonam Sharma'
tp33
a(S'100004537301408'
S'Sanjay Kashyap'
tp34
a(S'100008220992886'
S'Sky Skies'
tp35
a(S'100003871144312'
S'King Don'
tp36
a(S'100007371421895'
S'Shifa Khan'
tp37
asS'id'
p38
S'100004262557376'
p39
sS'name'
p40
S'Shahid Choudhary'
p41
s.