(dp1
S'friends'
p2
(lp3
(S'100001213892949'
S'Sediqi Jumagul'
tp4
a(S'100003981790347'
S'Zahidullah Zaland'
tp5
a(S'100000095633280'
S'Ziaulhaq Qiam'
tp6
a(S'100003670778240'
S'Muslimkhan Andar'
tp7
a(S'100003058007790'
S'Gul Rahman Saail'
tp8
a(S'100004507833208'
S'Amir Mohammad Mozaffar'
tp9
a(S'100000573021124'
S'Hamed Basharmal'
tp10
a(S'100000952266290'
S'Aminullah Azimi'
tp11
a(S'100000155900953'
S'Ghulam Jilani Sharafat'
tp12
a(S'100007682023652'
S'Mohammad Safi'
tp13
a(S'100007452064320'
S'Sayed Asif Hashimi'
tp14
a(S'756843182'
S'Jamil Zalmai'
tp15
a(S'100002258551777'
S'Zakarya Abed'
tp16
a(S'100003943678641'
S'Mohammad Nawaz Abdurahimzy'
tp17
a(S'100001067447466'
S'Jaweedrahman Rahman'
tp18
a(S'100000867665519'
S'Mujahid Sangaryar'
tp19
a(S'100006717159679'
S'Aminullah Azimi'
tp20
a(S'100001468196442'
S'Kabuldin Mujahed'
tp21
a(S'100000857769568'
S'Jaweed Rahman'
tp22
a(S'100002697757058'
S'Mushtaq Ghulami'
tp23
a(S'100002085311776'
S'Mena Mangal'
tp24
a(S'100002360373269'
S'Najibullah Hashimi'
tp25
a(S'756873072'
S'Khushal Malikzai'
tp26
a(S'100003400480598'
S'Khairullah Miakhil'
tp27
a(S'100002545513450'
S'Riazullah Arab'
tp28
a(S'100000245470550'
S'Zohra Jon'
tp29
a(S'100000296627041'
S'Abdul Aziz Dorani'
tp30
a(S'100000581308106'
S'Wali Junbish'
tp31
a(S'100000993474186'
S'Jaweed Rahman'
tp32
a(S'100001763387070'
S'Sayed Rahman Joya'
tp33
a(S'100000261072847'
S'Sear Mahmoodi'
tp34
a(S'100003369361335'
S'Sayed Asif Hashimi'
tp35
a(S'100001783102364'
S'Emal Sherzad'
tp36
a(S'100000804056374'
S'Agha Jan Qanit'
tp37
a(S'1178252840'
S'Hamidullah Amin'
tp38
asS'id'
p39
S'100000669031687'
p40
sS'name'
p41
S'Mosawer Mesbah'
p42
s.