(dp1
S'friends'
p2
(lp3
(S'639190986'
S'Surabhi Nigam Bartarya'
tp4
a(S'100002821914164'
S'Sanya Mawal'
tp5
a(S'563050581'
S'Yash Bartarya'
tp6
a(S'100000587698673'
S'Almas Mawal'
tp7
a(S'554309010'
S'Seetha Bt'
tp8
a(S'100003845368912'
S'Ruchi Saxena'
tp9
a(S'100002671329963'
S'Pankaj Kumar Shrivastava'
tp10
a(S'627055864'
S'Natasha Rajput Soni'
tp11
a(S'1010259698'
S'Pawan Shrivastava'
tp12
a(S'100000586875277'
S'Kaushiki Upadhyaya'
tp13
a(S'100001380605731'
S'Nandini Sharma'
tp14
a(S'100000241944493'
S'Neeti Bartarya'
tp15
a(S'1340746858'
S'Urvashi Saxena'
tp16
a(S'100000608223287'
S'Anurag Shrivastav'
tp17
a(S'100000403393406'
S'Rekha Shanker'
tp18
a(S'100003526946868'
S'Sonakshi Saxena'
tp19
a(S'1327082086'
S'Tanuja Saxena'
tp20
a(S'560585347'
S'Samanvay Bartarya'
tp21
a(S'707774634'
S'Tanmay Bartarya'
tp22
a(S'100004605340022'
S'Gaurav Verma'
tp23
a(S'698982353'
S'Megha Nainwal Deorani'
tp24
a(S'745558950'
S'Rashi Ranjan Das'
tp25
a(S'100001448168648'
S'Vandana Upadhyaya'
tp26
a(S'1753073847'
S'RD Saxena'
tp27
a(S'100000879265659'
S'Lalitkumar Shrivastva'
tp28
a(S'100000258594319'
S'Shuchi Saxena'
tp29
asS'id'
p30
S'100008179601513'
p31
sS'name'
p32
S'Archana Bartarya'
p33
s.