(dp1
S'friends'
p2
(lp3
(S'100003797697368'
S'Kartik Dass'
tp4
a(S'100003259900322'
S'Shailja Sharma'
tp5
a(S'100002110391809'
S'Sunny Kumar'
tp6
a(S'100002910240027'
S'Pawan Thakur'
tp7
a(S'100004785730096'
S'Dang Khoa Nguyen'
tp8
a(S'1647491063'
S'Deepanshu Gaur'
tp9
a(S'100003117283489'
S'Hema Mahto'
tp10
a(S'100001126711411'
S'Aadil Khan'
tp11
a(S'100004048400900'
S'Rabin Khan'
tp12
a(S'100003822934036'
S'Shonaly Choudhary'
tp13
a(S'100002855536731'
S'Famida Akter'
tp14
a(S'100004826052181'
S'Raaz Obroye'
tp15
a(S'100001978212330'
S'Himanshu Goyal'
tp16
a(S'100002317687038'
S'Sanky Tanwar'
tp17
a(S'100004103345022'
S'Goraya Saab'
tp18
a(S'100000948578492'
S'Blkulfresh Hum'
tp19
a(S'100001409023893'
S'Manpreet Saini'
tp20
a(S'100001703263844'
S'Tushar Gosain'
tp21
a(S'100003403025820'
S'Ranjeeta Choudhary'
tp22
a(S'100003089122708'
S'Shweta Kapoor'
tp23
a(S'100002747415401'
S'Ishwar Tanwar'
tp24
a(S'100004019205371'
S'Yashaswi Khatri'
tp25
a(S'100003610323786'
S'Tazz Blue'
tp26
a(S'100004147448059'
S'Reymund Bucayu'
tp27
a(S'100001105958768'
S'Anuj Soin'
tp28
a(S'100003211323733'
S'Sarari Rai'
tp29
a(S'100003741665332'
S'Bharti Singh'
tp30
a(S'100002164321446'
S'Puja Verma'
tp31
a(S'100005061402508'
S'Le Mai Truong'
tp32
a(S'100002074905263'
S'Gaurav Bali'
tp33
a(S'100003202135379'
S'Shahid Khan'
tp34
a(S'100003244429067'
S'Jatin Gautam'
tp35
a(S'100003176885885'
S'Twinkle Yadav'
tp36
a(S'100004234233360'
S'Papinder Bhunder'
tp37
a(S'100003076353208'
S'Nimisha Mhalotra'
tp38
asS'id'
p39
S'100003084058682'
p40
sS'name'
p41
S'Papinder Kaur'
p42
s.