(dp1
S'friends'
p2
(lp3
(S'100005876233816'
S'Rohit Ravindranath'
tp4
a(S'100000578564616'
S'Monica Kumar'
tp5
a(S'100000581019118'
S'Rachna Ramesh'
tp6
a(S'1637431102'
S'Bareen Shaikh'
tp7
a(S'100003283131354'
S'Deepika Mohan'
tp8
a(S'100003107064838'
S'Mir Meesam'
tp9
a(S'661597139'
S'Ajith Prabhu'
tp10
a(S'100000302217840'
S'Akash S Reddy'
tp11
a(S'100002456663302'
S'Shankar Shivakumar'
tp12
a(S'100003585846599'
S'ShrEyas KulkArni'
tp13
a(S'100000301022316'
S'Tarun Kingsley'
tp14
a(S'100000306547606'
S'Vivian Anthony'
tp15
a(S'1008644350'
S'Saharsh Gowda'
tp16
a(S'1686472177'
S'Shruthi Sugadha'
tp17
a(S'100001853511672'
S'Jithin Cr'
tp18
a(S'100000961944709'
S'Nikhil Nagaraj'
tp19
a(S'100002463832658'
S'Sanjay Via'
tp20
a(S'100000594966799'
S'Shreyas Sreekanth Mayya'
tp21
a(S'100004479007146'
S'Bhumika J Ajjur'
tp22
a(S'100001421641181'
S'Rubiya Imthiaz'
tp23
a(S'1550208767'
S'Dattathreya Munirathnam'
tp24
a(S'1481117453'
S'Jijo Thomas'
tp25
a(S'100002471577778'
S'Sumana Shrivatsa'
tp26
a(S'100000873286732'
S'Nitin Reddy'
tp27
a(S'100001315537474'
S'Bharath Hs'
tp28
a(S'100001267160894'
S'Karthik Hfc'
tp29
a(S'100000564291346'
S'Bg Abhishek'
tp30
a(S'100000076368952'
S'Laksha Shetty'
tp31
a(S'100002534168699'
S'Thomas Rahul'
tp32
a(S'824498418'
S'Sahana Subbiah'
tp33
a(S'100001063613066'
S'Iengskhem Lyngdoh Nongbri'
tp34
a(S'100000036089379'
S'Ankith Gowda'
tp35
a(S'100004014452754'
S'Darshan Krishnappa Reddy'
tp36
a(S'100003119204086'
S'Ra Jath R'
tp37
a(S'100000683470038'
S'Anirudh Vc'
tp38
a(S'100000539565664'
S'Rahul Shivakumar'
tp39
a(S'100001822874907'
S'Tosha Bapat'
tp40
a(S'100002250519444'
S'Veeresh Adimane'
tp41
a(S'100000689288275'
S'Ahil Abraham Thachil'
tp42
a(S'100003591815028'
S'Kailash Vijay'
tp43
a(S'100001819255230'
S'Sowmya Ramesh'
tp44
a(S'1481175015'
S'Aditi Dash'
tp45
a(S'100000448376708'
S'Ritwik Tippu'
tp46
a(S'100002319897713'
S'Harshitha Venkatesh Gowda'
tp47
a(S'100002538969117'
S'Nikhil Beelur'
tp48
a(S'100007933800514'
S'Indira Raghavan'
tp49
a(S'100004262286623'
S'Nitin Hegde'
tp50
a(S'100006681397253'
S'Vishal Ramachandra'
tp51
a(S'100001734023338'
S'Supritha Krishnappa'
tp52
a(S'100001100984086'
S'Sujitha Arvind'
tp53
a(S'1732227852'
S'Manish Vasudevan'
tp54
a(S'100000092354736'
S'Abhishek Terminator'
tp55
a(S'100003274950938'
S'Basanth Kumar Basanth'
tp56
a(S'763929303'
S'Vinodhinee Thyagarajan'
tp57
a(S'100002514135754'
S'Vyshak Pn'
tp58
a(S'100001587632125'
S'Annapurna Pai'
tp59
a(S'100006151870231'
S'Abhisheknr Yashwanth'
tp60
a(S'100000881313250'
S'Arjun Ashokan'
tp61
a(S'100005724755578'
S'Nishitha Reddy'
tp62
a(S'100001472228777'
S'Abhinandan Rb'
tp63
a(S'100000516965715'
S'Ashaya Suprith'
tp64
a(S'100002311263810'
S'Giri Babu'
tp65
a(S'100004933778067'
S'Sushmitha Jain'
tp66
a(S'100005863087349'
S'Ginoy Joseph'
tp67
a(S'100001898590917'
S'Revanth Mn'
tp68
a(S'100000928635479'
S'Suhas Suzi'
tp69
a(S'100004932304892'
S'Anjana Kumari'
tp70
a(S'100001336997540'
S'Danish Siddique'
tp71
a(S'100002555773038'
S'Lohith Naidu'
tp72
a(S'100004832380079'
S'Darshan Darshan'
tp73
a(S'100001664852644'
S'Shiva Swaroop'
tp74
a(S'100002917924273'
S'Harsh Singh'
tp75
a(S'100000756813481'
S'Ekta Rathod'
tp76
a(S'100002226537054'
S'Bharath Sd'
tp77
a(S'100000219691833'
S'Abhay Nagesh'
tp78
a(S'1191882953'
S'Simona Fullinfaw'
tp79
a(S'1239549346'
S'Kavya Bhat'
tp80
a(S'1427771503'
S'Saira Ak'
tp81
a(S'631802269'
S'Bharath Padasale'
tp82
a(S'100001792194766'
S'Ankitha Reddy'
tp83
a(S'100001480160768'
S'Swathi Prakash'
tp84
a(S'100001219113078'
S'SreeJith SuResh'
tp85
a(S'100005567921549'
S'Habeeb Anwar'
tp86
a(S'100006605493664'
S'Ramya Veena'
tp87
a(S'100002528175769'
S'Sujan Gowda'
tp88
a(S'100002395318336'
S'Nanda Kishor R R'
tp89
a(S'100001556829710'
S'Harish Babu'
tp90
a(S'100003374321683'
S'Riya Jain'
tp91
a(S'100001282220507'
S'Pankaj Asija'
tp92
a(S'1263685395'
S'Akshay Ak'
tp93
a(S'100001242622149'
S'Rohith Srinivas'
tp94
a(S'100000157144789'
S'Vaishakh Joshi'
tp95
a(S'100000079935358'
S'Mukund Heragu'
tp96
a(S'100002226623737'
S'Deeksha Reddy'
tp97
a(S'1585755391'
S'Shashank Menon'
tp98
a(S'1665469644'
S'Afrah Siddique'
tp99
a(S'1144852736'
S'Lakshmi Deepa'
tp100
a(S'100005483190485'
S'Nagarjun Raikar'
tp101
a(S'100002429287461'
S'Ranjith Gowda'
tp102
a(S'1797590695'
S'Shailesh Maddy'
tp103
a(S'100003197370229'
S'Dhanush Keshava'
tp104
a(S'100003740828594'
S'Ppec Indiranagar'
tp105
a(S'100002560184709'
S'Puneeth Kumar K'
tp106
a(S'100000200833001'
S'Deepthi Reddy'
tp107
a(S'100000305040652'
S'Sonika Anuja'
tp108
a(S'100002115425023'
S'Patricia John'
tp109
a(S'100005639710311'
S'Karthik Raghu'
tp110
a(S'1450264837'
S'Varun Terdal'
tp111
a(S'100001213305032'
S'Partha Sarathy'
tp112
a(S'100000630930575'
S'Pruthvi Gowda'
tp113
a(S'1352184220'
S'Shrey Sunil Arora'
tp114
a(S'100001528033100'
S'Alwin Shajan'
tp115
a(S'100000664581951'
S'B.r. Sankeerth'
tp116
a(S'100002333408311'
S'Swetha Shankar'
tp117
a(S'100000023496023'
S'Aditya Chayapathy'
tp118
a(S'100002474262062'
S'Manisha Nair'
tp119
a(S'100002752598355'
S'Naveen Gopinath'
tp120
a(S'100000632732943'
S'Kunal Gowda'
tp121
a(S'100000468557174'
S'Shree Vidya Ravi Kumar'
tp122
a(S'100003083648387'
S'Poornesh Murali'
tp123
a(S'100002267659523'
S'Prajwal Rao'
tp124
a(S'100000617603880'
S'Chandrashekar Srinivas'
tp125
a(S'100002325162265'
S'Sagar Maddey'
tp126
a(S'100001184823584'
S'Deep Mody'
tp127
a(S'100000594560932'
S'Shivani Gangadhar'
tp128
a(S'100005639820757'
S'Pururav Nag'
tp129
a(S'100001684380726'
S'Aditya Naik'
tp130
a(S'100001954741076'
S'Sushanth Kumar'
tp131
a(S'1111444682'
S'Anjana Rao'
tp132
a(S'100003581970020'
S'Sahana Manjunath'
tp133
a(S'100003479796215'
S'Meenakshi Sundaram'
tp134
a(S'100006437301676'
S'Manoj Gowda'
tp135
a(S'100001158716102'
S'Abhilash Lj'
tp136
a(S'100001695305951'
S'Akram Shariff'
tp137
a(S'1467242409'
S'Kaushik Ghosh'
tp138
a(S'100000314058276'
S'Sohan Lk'
tp139
a(S'601860600'
S'Venkat Sundar'
tp140
a(S'100006066095560'
S'Gunda Srikanth'
tp141
a(S'100001005243683'
S'Piyush Singh'
tp142
a(S'1660951156'
S'Saiprasad Krishnamurthy'
tp143
a(S'100003684042505'
S'Badboys Fukk Feardrink Berr'
tp144
a(S'1059234270'
S'Likesh Devkumar'
tp145
a(S'100001024713534'
S'Rahul Rajesh'
tp146
a(S'100002818666983'
S'Vaishnavi Reddy'
tp147
a(S'100002267785385'
S'Manjula Sa'
tp148
a(S'546410496'
S'Chahat Paul'
tp149
a(S'100003153017691'
S'Shivaraj Sk'
tp150
a(S'100001382648992'
S'Sunil Reddy'
tp151
a(S'100000744075767'
S'Ramya Bhagirathi'
tp152
a(S'1748488609'
S'Sukrutha Ravi'
tp153
a(S'100000845149748'
p154
S'Simon Sajan'
tp155
a(S'100002384083610'
S'Kaustav Biswas'
tp156
a(S'100000695775082'
S'Pavan Red-e'
tp157
a(S'1593193693'
S'Ameya Talanki'
tp158
a(S'100000933016641'
S'Sri Raksha Udupa'
tp159
a(S'100001800425133'
S'Mohammed Ansaf'
tp160
a(S'100000520410735'
S'\\u0c85\\u0ca8\\u0cbf\\u0cb0\\u0cc1\\u0ca6\\u0ccd\\u0ca7\\u0ccd \\u0cb6\\u0cc6\\u0c9f\\u0ccd\\u0c9f\\u0cbf'
tp161
a(S'100000176417339'
S'Sudha Bhaskaran'
tp162
a(S'100001067607109'
S'Shyam Reddy'
tp163
a(S'100002669394348'
S'Kezia Pauline'
tp164
a(S'1421333916'
S'Shiva Prakash'
tp165
a(S'100002314112744'
S'Rahul Storm'
tp166
a(S'100001523122328'
S'Lohith Reddy'
tp167
a(S'100002630016440'
S'Ajith Prabhu'
tp168
a(S'100001381869034'
S'Jeethandar Devaraj'
tp169
a(S'100003318641891'
S'Krishna Asik'
tp170
a(S'100002198120834'
S'Dhanush Kumar'
tp171
a(S'1361928476'
S'Sharada Subramaniam'
tp172
a(S'1399249733'
S'Anwin T V Joseph'
tp173
a(S'100000109448599'
S'Anirud Srujan Reddy'
tp174
a(S'100002072999049'
S'Saranya Shree'
tp175
a(S'1079175262'
S'Avinash Dash'
tp176
a(S'100002517627273'
S'Sanjana Ravi'
tp177
a(S'100000460537804'
S'Sriram Venkataraman'
tp178
a(S'100001333788549'
S'Vinodh Kumar Reddy'
tp179
a(S'1808613450'
S'Akash Reddy'
tp180
a(S'100000773150498'
S'Sharmada Manoj'
tp181
a(S'100000032294518'
S'Fiza Aisha'
tp182
a(S'1520210400'
S'Naren Nandi'
tp183
a(S'100001618765029'
S'Deekshith Gowda'
tp184
a(S'100002392965844'
S'Pranamya Bhat'
tp185
a(S'754548507'
S'Srivatsa Divya'
tp186
a(S'100001770892715'
S'Radhika Bopaiah'
tp187
a(S'100003771002566'
S'Kishan Reddy'
tp188
a(S'100003577977725'
S'Yashwin S Gowda'
tp189
a(S'100001838572771'
S'Amogh Varsh'
tp190
a(S'100002862173898'
S'Nalini Reddy'
tp191
a(S'1784460783'
S'Abhishek G Acharya'
tp192
a(S'100006492435322'
S'Nakul Kulkarni'
tp193
a(S'100005797299124'
S'Annie Gladies'
tp194
a(S'100003322297524'
S'Prema Latha'
tp195
a(S'100002292783802'
S'Monali Jampani'
tp196
a(S'100000829680463'
S'Chidhambaram Pillai'
tp197
a(S'100001448826040'
S'Akhila Krishnamurthy'
tp198
a(S'100000064547722'
S'Jayapria Nair'
tp199
a(S'100000490014935'
S'H Ananda Rao'
tp200
a(S'100003266202069'
S'Vishwas Aradhya'
tp201
a(S'714753576'
S'Rishab Sharma'
tp202
a(S'1177642671'
S'Siddarth Sreekumar'
tp203
a(S'100001328339098'
S'Krupa Amrutheswara'
tp204
a(S'100005494540622'
S'Sai Ganesh'
tp205
a(S'1831382898'
S'Sanjitha Ganesh'
tp206
a(S'100000568730034'
S'Manoj Messi'
tp207
a(S'100002035101730'
S'Manivannan RN'
tp208
a(S'100002718786222'
S'Atul Shady E'
tp209
a(S'100002216844911'
S'Priyanka Chandramohan'
tp210
a(S'100000093908992'
S'Hema Pc'
tp211
a(S'100001207286213'
S'Sandy Sandyy'
tp212
a(S'100001191513133'
S'Bhushan Ramanjinappa'
tp213
a(S'100002054992515'
S'Akshay Hiremath'
tp214
a(S'1822863557'
S'Manjunath C Neeralagi'
tp215
a(S'100002441994092'
S'Nirnay M Prasad'
tp216
a(S'100006280569602'
S'Cr Shreyas'
tp217
a(S'659406357'
S'Arpita Varadaraj'
tp218
a(S'1581048874'
S'Satvika Shetty'
tp219
a(S'1198983389'
S'Jaya Subramaniam'
tp220
a(S'100002901623346'
S'Tejaswini Nagendra'
tp221
a(S'1225540443'
S'Nikhil Hari'
tp222
a(S'1208322897'
S'Gaurav Camma'
tp223
a(S'100001797040987'
S'Anand Mv'
tp224
a(S'100000599806776'
S'Sumanth Kumar'
tp225
a(S'100000551247515'
S'Srrinivasan Janakiraman'
tp226
a(S'1060861216'
S'Harish Kumar S'
tp227
a(S'100001272024995'
S'Eshwar Chintu'
tp228
a(S'1442212776'
S'Anjali Unnikrishnan'
tp229
a(S'1324554632'
S'Varun George'
tp230
a(S'100002393310474'
S'Deepti Sunil'
tp231
a(S'100000292308094'
S'Manjunath Venkataraman'
tp232
a(S'100003616014390'
S'Mpavan Kumar Bhat'
tp233
a(S'100000479922675'
S'Arun Kenath'
tp234
a(S'100000523393108'
S'Arun Kumar'
tp235
a(S'100002818938218'
S'Vinith Jarali'
tp236
a(S'100000867923807'
p237
S'Yogesh Chellappa'
tp238
a(S'1774389200'
S'Anusha Prabhu'
tp239
a(S'1706899985'
S'Raj Preetham'
tp240
a(S'100000553392055'
S'Selvakumar Balachandran'
tp241
a(S'1437529782'
S'Mallang Mohamed Masood'
tp242
a(S'100002969462550'
S'Tushar Hattikar'
tp243
a(S'100000016567837'
S'Abhishek Gowda'
tp244
a(S'100001453207935'
S'Tanuj Sai Kumar'
tp245
a(S'100001835514019'
S'Prajwal Reddy'
tp246
a(S'100000913950668'
S'Daman C Reddy'
tp247
a(S'100005858887273'
S'Vijith Rangaswamy'
tp248
a(S'100000875358842'
S'Rahul Muralidharan'
tp249
a(S'100000855572466'
S'Nithish Reddy'
tp250
a(S'100003267854780'
S'Moin Khan'
tp251
a(S'100003980146031'
S'Neha Purushotham'
tp252
a(S'100000666362654'
S'Chandan Raj'
tp253
a(S'100001416166853'
S'Anirudh Mv'
tp254
a(S'1768193205'
S'Mayuri Karanth'
tp255
a(S'100004009507676'
S'Murali Krishnan'
tp256
a(S'100001098933786'
S'Akshara Mythri'
tp257
a(S'1654741170'
S'Roxstar Aban'
tp258
a(S'100000259182947'
S'Aishwarya R Gowda'
tp259
a(S'100002044450298'
S'Shashank Gowda'
tp260
a(S'100003727974603'
S'Kenneth Neri'
tp261
a(S'100000616310194'
S'Hitesh Gowda'
tp262
a(S'100000967332720'
S'Jayanth Reddy'
tp263
a(S'1840051445'
S'Neethi Sivakumar'
tp264
a(S'100002791776470'
S'Manish Cp'
tp265
a(S'100001866253454'
S'Teju Belawadi'
tp266
a(S'100001660397155'
S'Harshitha Padasale'
tp267
a(S'1522010400'
S'Shraddha Iyer'
tp268
a(S'100000046696246'
S'Srinivasan Janakiraman'
tp269
a(S'100002720855905'
S'Mohammed Saleem'
tp270
a(S'100000233771401'
S'Rachita Ramesh'
tp271
a(S'100002206364747'
S'Manasa Rao'
tp272
a(S'1453873039'
S'Arjun Kini'
tp273
a(S'100000489968555'
S'Aditya Mb'
tp274
a(S'100001863263921'
S'V\\u00c5ishn\\u0105v\\u00ef \\u00c5b'
tp275
a(S'1166452796'
S'Rahul Prakash'
tp276
a(S'100003275614783'
S'Nikhil Anthonyraj'
tp277
a(S'100000095624630'
S'Samarth Vm'
tp278
a(S'100004380462942'
S'Yambem Pritam'
tp279
a(S'100002475514393'
S'Indrani N Raju'
tp280
a(S'1385605773'
S'Nihal Jayan'
tp281
a(S'100002096711888'
S'Kushal Reddy'
tp282
a(S'100000957778706'
S'Archana Vikram'
tp283
a(S'100001839443803'
S'Prateek Prakash'
tp284
a(S'100004945926045'
S'Sivaranjani Mahalingam'
tp285
a(S'1345137289'
S'Sushmita Shekar'
tp286
a(S'1062234667'
S'Ajay CJ'
tp287
a(S'100002498852170'
S'Roopashree Bg'
tp288
a(S'100002749466001'
S'Mohith Vijay'
tp289
a(S'1302262845'
S'Shwetha Cg'
tp290
a(S'100001681564810'
S'Sohail Ahmed'
tp291
a(S'100003896179122'
S'Etish Agarwal'
tp292
a(S'732733260'
S'Bala Iyer'
tp293
a(S'100001675543764'
S'Azeem Anees'
tp294
a(S'100001791326864'
S'Abhishek Patil'
tp295
a(S'100003260698652'
S'Kashyap Kumar'
tp296
a(S'100000466909899'
S'Yashu Yashes'
tp297
a(S'759627493'
S'Sriparn Saurabh'
tp298
a(S'100002371339714'
S'Bharat HD'
tp299
a(S'100000576738504'
S'Sailakshmi Sanal'
tp300
a(S'100001821557310'
S'Bhavana Reddy'
tp301
a(S'100001860637977'
S'Rahul Ramakrishna'
tp302
a(S'1138040452'
S'Rohin Prasad'
tp303
a(S'100000708269150'
S'Darshan Dsp'
tp304
a(S'100001414391946'
S'Nambudumada Preethu Lokesh'
tp305
a(S'100003300597677'
S'Varsha Manosh'
tp306
a(S'1081165068'
S'Tejus Reddy'
tp307
a(S'100001896426969'
S'Faiyaz Ahmed Bhatti'
tp308
a(S'100001323625314'
S'Varun BK'
tp309
a(S'100002656222803'
S'Pradeep Kumar'
tp310
a(S'100002530504106'
S'Srinidhi Gs'
tp311
a(S'100000601999057'
S'Anjana Ravi Reddy'
tp312
a(S'100002306892098'
S'Anend Iyer'
tp313
a(S'100002008315377'
S'Pritham Pavan Kumar'
tp314
a(S'100000625232628'
S'Rishitha Kalakata'
tp315
a(S'100000097931702'
S'Nitesh Kumar'
tp316
a(S'100002560273233'
S'Rahul Kakanur'
tp317
a(S'100000089560788'
S'Jashwanth Venugopal'
tp318
a(S'100001704488746'
S'Prithvi Suresh Kumar'
tp319
a(S'100003077377859'
S'L.s. Bharath Reddy'
tp320
a(S'1123891058'
S'Joseph Lukose'
tp321
a(S'100001852062035'
S'Nithin Mohan'
tp322
a(S'100001841074762'
S'Vishal Prajwal'
tp323
a(S'100001248961877'
S'Rajesh Upadhyaya'
tp324
a(S'1042327167'
S'Adnan Ahmed'
tp325
a(S'1574742461'
S'Deeksha Shetty'
tp326
a(S'100003134208759'
S'Dhanush Reddy'
tp327
a(S'100004081036528'
S'Pooja Ashok'
tp328
a(S'100000506383459'
S'Abhishek Selvaraju'
tp329
a(S'100001015383286'
S'Nikita Nair'
tp330
a(S'100001862985471'
S'Zako Wako'
tp331
a(S'100001833275617'
S'Samiksha Satish'
tp332
a(S'100005772935554'
S'Anush Reddy'
tp333
a(S'100003760961205'
S'Parvathy Vivek'
tp334
a(S'1026487189'
S'Saakshi Devraj'
tp335
a(S'100001808694766'
S'Daim Manzoor'
tp336
a(S'100003893534259'
S'Prathik Gowda'
tp337
a(S'100002411058878'
S'Shivashankar Sotte'
tp338
a(S'100000619253993'
S'Radha Balu'
tp339
a(S'100001043868599'
S'Karthik Chandrasekaran'
tp340
a(S'1829161069'
S'Darshan Nagraj'
tp341
a(S'100002567032846'
S'Shreyas Hirethota'
tp342
a(S'562390859'
S'Mahadevan. M. Sundar'
tp343
a(S'100001582830555'
S'Amritha Vibha'
tp344
a(S'100000649686863'
S'Nitin Hegde'
tp345
a(S'100001069780830'
S'Darshan Gowda'
tp346
a(S'1121112471'
S'Raghunath RN'
tp347
a(S'1753322178'
S'Tarooqh Arjetlam'
tp348
a(S'100002540721995'
S'Shejo Mathew'
tp349
a(S'100001230292107'
S'Rajat Sky'
tp350
a(S'100002885938614'
S'Mohammed Laeeq'
tp351
a(S'100000220284774'
S'Abhiram Komma'
tp352
a(S'100005221296433'
S'Rayvin Bruce'
tp353
a(S'100001494300532'
S'Sampath Chengappa'
tp354
a(S'100003699377203'
S'Manish Gowda'
tp355
a(S'1020262455'
S'Meghana M Rao'
tp356
a(S'561119894'
S'Ravikant Prabhakar'
tp357
a(S'100003392956970'
S'Arun Kichi'
tp358
a(S'100001156738963'
S'Pruthvi Raj'
tp359
a(S'1710148647'
S'Indu Mathi N'
tp360
a(S'100001073786414'
S'Utkarsh Dev'
tp361
a(S'100001657653994'
S'Avinash Vampz'
tp362
a(S'100003745127897'
S'Aishwarya Gowda'
tp363
a(S'100002868679533'
S'Priyanka Haridas'
tp364
a(S'1684222225'
S'Sunil U Hegde'
tp365
a(S'100000812705513'
S'Kavitha Kavi'
tp366
a(S'100006218262897'
S'Mohan Bharath Rao'
tp367
a(S'100000329266245'
S'Manoj Reddy'
tp368
a(S'100001709783627'
S'Subramanya Bhatt'
tp369
a(S'100002613014900'
S'Sayandip Bhowmik'
tp370
a(S'100002305344708'
S'Manasa Patgar'
tp371
a(S'100002376736850'
S'Vishal Venkateshan'
tp372
a(S'100000944436418'
S'Shashaank Kumar'
tp373
a(S'100003034937359'
S'Rakshitha Bopaiah'
tp374
a(S'100001795480340'
S'Nidish Hb'
tp375
a(S'100001164083354'
S'Ashish Chandra'
tp376
a(S'100002523263060'
S'Lekha Reddy'
tp377
a(S'1616923118'
S'Vivek Raju'
tp378
a(S'100002218562676'
S'Ajay Chandran'
tp379
a(S'100001714498588'
S'Tejaswini B Rao'
tp380
a(S'100002236558395'
S'Niveditha Gowda'
tp381
a(S'100001134242118'
S'Arjun Murthy'
tp382
a(S'100000326575403'
S'Sai Krishna'
tp383
a(S'100003800318225'
S'Abhinandan Shetty'
tp384
a(S'100002846517501'
S'Swaroop Mithra'
tp385
a(S'100001436926810'
S'Punitha Ponnappa'
tp386
a(S'100001636201206'
S'Lathish Kumar'
tp387
a(S'1195125502'
S'Shuhaib Shalu'
tp388
a(S'100001318893912'
S'Anuraj Gowda'
tp389
a(S'100000994905242'
S'Suhas Cmv'
tp390
a(S'100004912080538'
S'Vibha Reddy'
tp391
a(S'100006024122980'
S'Kumar Harsh'
tp392
a(S'709777562'
S'Naincy Neha Upadhyay'
tp393
a(S'100002670668315'
S'Vaishak Vasudev'
tp394
a(S'100000309376197'
S'Kushil Kumar'
tp395
a(S'100000220090974'
S'Ankita Jamadagni'
tp396
a(S'100006012672704'
S'Nakul Kulkarni'
tp397
a(S'100004595611595'
S'Ajay Vishal'
tp398
a(S'1104306515'
S'Amith Kadam'
tp399
a(S'1849480105'
S'Manoj Bn'
tp400
a(S'100002420102407'
S'Manish Ramesh'
tp401
a(S'100003621154691'
S'Shivam Agarwal'
tp402
a(S'100000625430019'
S'Rayvin Bruce'
tp403
a(S'100001477000720'
S'Ashutosh Jha'
tp404
a(S'100002114162245'
S'Padma Vathy'
tp405
a(S'100004568912703'
S'Mir Meesam'
tp406
a(S'100001042711669'
S'Shivani Ram'
tp407
a(S'100002591225030'
S'Darshan Ramesh'
tp408
a(S'100003094857945'
S'Surabhi Navada'
tp409
a(S'100004341842988'
S'Shreya Kamath'
tp410
a(S'100003206818186'
S'Dheeraj Manjunath'
tp411
a(S'100000588193369'
S'Rohan Kanade'
tp412
a(S'1064545583'
S'Shreyas N Dass'
tp413
a(S'1247315331'
S'Tushar Sunny'
tp414
a(S'1473616688'
S'Pooja Udupa'
tp415
a(S'100001961721811'
S'Rajitha Gn'
tp416
a(S'100002385118032'
S'Vikram Jackson'
tp417
a(S'100002616094581'
S'Ishwar Basavan'
tp418
a(S'100000480448916'
S'Aparnaa Thanigai'
tp419
a(S'100001989533499'
S'Soma Shekar'
tp420
a(S'1495396645'
S'Nikhil Mohan'
tp421
a(S'100003251186568'
S'Abhishek Sharma'
tp422
a(S'100003070891063'
S'Madhurya Shet'
tp423
a(S'100000920804334'
S'Vaishak Sv'
tp424
a(S'100003146250723'
S'Satish Gowda'
tp425
a(S'100001220104234'
S'Nikhil Endra Reddy'
tp426
a(S'100000176132747'
S'Anirudh Talikoti'
tp427
a(S'1540744468'
S'Manikantan Seshadri'
tp428
a(S'100001374395033'
S'Dave Batista'
tp429
a(S'100001944573011'
S'Raghvendra Pratap Singh'
tp430
a(S'100000939065943'
S'AK Ankith'
tp431
a(S'100003589467941'
S'Syed Fateh'
tp432
a(S'100002748570636'
S'Darshan Gowda'
tp433
a(S'100000210070885'
S'Mohammed Zeeya'
tp434
a(S'100000571071477'
S'Ragini Prabhu'
tp435
a(S'100004016359297'
S'Iyer Anand'
tp436
a(S'100001610718635'
S'Ashwin Rangarajan'
tp437
a(S'100006546931573'
S'Nikhi Annu Mohan Alexander'
tp438
a(S'100004275276588'
S'Siddharth Kumar R'
tp439
a(S'100000753924582'
S'Prashanth Pn'
tp440
a(S'1629802291'
S'Roopa Savalgi'
tp441
a(S'100000208620766'
S'Chandra Shekar'
tp442
a(S'1101621638'
S'Varsha Rk'
tp443
a(S'1456363538'
S'Rahul M Sindhe'
tp444
a(S'100000103720276'
p445
S'Shishir Krishna'
tp446
a(S'1685509003'
S'Shreya Udupa'
tp447
a(S'1434188629'
S'Nidhi Rh'
tp448
a(S'100002397064091'
S'Jeevan DC'
tp449
a(S'100000679885568'
S'Sandeep Jeffrey'
tp450
a(S'1812407759'
S'Gladston Sequeira'
tp451
a(S'1789171541'
S'Pratham Aggy'
tp452
a(S'595907954'
S'Ankit K Gowda'
tp453
a(S'100002885604203'
S'Alok Hinda'
tp454
a(S'100002643283063'
S'Mugilan Ravi'
tp455
a(S'100003333772003'
S'Ganesh Nag Acharya'
tp456
a(S'741898980'
S'Godwin Christopher'
tp457
a(S'100001722098683'
S'Prithvi Suresh Kumar'
tp458
a(S'100000599992987'
S'Ankush Agarwal'
tp459
a(S'100000152003524'
S'Akshay Prabhu'
tp460
a(S'100003966932878'
S'Jostin Jacob'
tp461
a(S'100003057202352'
S'Rachana Prakash'
tp462
a(S'100002077288912'
S'Rohit Shirsagar'
tp463
a(S'100000028968518'
S'Sharanya Kv'
tp464
a(S'100002051074681'
S'Chethan Reddy'
tp465
a(S'1464971246'
S'Saddam Jagirdar'
tp466
a(S'1537295157'
S'Sangeeth Rajan'
tp467
a(S'1378642139'
S'Shreyas Kolar'
tp468
a(S'100003759668412'
S'Saraswathi Subramanian'
tp469
a(S'100002995459379'
S'Shravan Reddy'
tp470
a(S'100000938521551'
S'Praharini Cb'
tp471
a(S'1038823935'
S'Thanush Reddy'
tp472
a(S'100000980156989'
S'Rahul Kulkarni'
tp473
a(S'100000026310838'
S'Yathish Gowda'
tp474
a(S'100000744772252'
S'Vaishnavi Srinath'
tp475
a(S'100000797174879'
S'Prashanth Ramesh'
tp476
a(S'1090480746'
S'Vignesh Suresh'
tp477
a(S'100001079500906'
S'Shalini Kempaiah'
tp478
a(S'100000163604684'
S'Arsal Rasheed'
tp479
a(S'100000598832795'
S'Prabhu Ravi'
tp480
a(S'100003804678992'
S'Navyata Kumar'
tp481
a(S'100000233585544'
S'Vivek Prakash'
tp482
a(S'100000856641136'
S'Ankith Bhat'
tp483
a(S'100003657425625'
S'Uma Bhaskaran'
tp484
a(S'1511089631'
S'Shravya Umesh'
tp485
a(S'100004348320424'
S'Degul Dinesh'
tp486
a(S'100001782003667'
S'Manish Reddy'
tp487
a(S'100005804284211'
S'Waris Raj Ali'
tp488
a(S'100001330283769'
S'Krishanamoorthy Bhaskaran'
tp489
a(S'526536839'
S'Mahadevan Gopalkrishnan'
tp490
a(S'100000972274758'
S'Shrinidhi Hegde'
tp491
a(S'100001372266901'
S'Priyanka Vasagam'
tp492
a(S'100002295926257'
S'Jai Prakash R'
tp493
a(S'1575173338'
S'Namrata Ajoy'
tp494
a(S'100000392971701'
S'Shwetha Cool'
tp495
a(S'100006609309735'
S'Sindhuja Radha'
tp496
a(S'100001408886397'
S'Sachin Kamat'
tp497
a(S'1071975293'
S'Akash Rangappa'
tp498
a(S'100002391272580'
S'Manoj Kumar'
tp499
a(S'100002285336490'
S'Mani Kanta'
tp500
a(S'100001791529406'
S'Sanu R\\u00e3j'
tp501
a(S'1526644485'
S'Krishik Nataraj'
tp502
a(S'100004706944201'
S'Manju Marshal'
tp503
a(S'100001019641165'
S'Kshitij Dhariwal'
tp504
a(S'100000604991056'
S'Nikhilesh Gowda'
tp505
a(S'100001060995762'
S'Chandana Mahesh'
tp506
a(S'100001434600495'
S'Manish Mona'
tp507
a(S'594848308'
S'Nimisha Dean'
tp508
a(S'531065751'
S'Poornima Krishnan'
tp509
a(S'100002824765489'
S'Hemanth Cena'
tp510
a(S'100001642554449'
S'Sharath Kumar'
tp511
a(S'100003568705810'
S'Vasanthi Lakshman'
tp512
a(S'100002893566791'
S'Rohan Nag'
tp513
a(S'100003740216191'
S'Nishitha Reddy'
tp514
a(S'100003026322684'
S'Salmanul Sallu Sallu'
tp515
a(S'100001208015143'
S'Nitish Saunshimath'
tp516
a(S'100001883834411'
S'Sujith Menon'
tp517
a(S'100002356868081'
S'Anshi Kannankote'
tp518
a(S'100002271178139'
S'Anoop RG'
tp519
a(S'1761177669'
S'Pratheeka Shetty'
tp520
a(S'100000712462115'
S'Kapil Sastry'
tp521
a(S'100003155465448'
S'Lochan Prathap'
tp522
a(S'1567233681'
S'Harsha Chetan'
tp523
a(S'100000841122198'
S'Anand Ramesh'
tp524
a(S'100001053896575'
S'Vinay Koppad'
tp525
a(S'1115358727'
S'Badal Shetty'
tp526
a(S'100002398557659'
S'Sharmada Manoj'
tp527
a(S'1148436774'
S'Shankar Giri'
tp528
a(S'100000761240436'
S'Abhay Pai'
tp529
a(S'100004009752634'
S'Anika Khan'
tp530
a(S'100001934659407'
S'Harsha Raghavendra'
tp531
a(S'100000394324473'
S'Sankarsh Rajeev'
tp532
a(S'100001028271727'
S'Liphi Aiyappa Kaliyanda'
tp533
a(S'100001171537658'
S'Kaisar Khan'
tp534
a(S'100002440207232'
S'Dhanush Reddy'
tp535
a(S'100001290028632'
S'Shushruth NM'
tp536
a(S'100001601843453'
S'Akshay V Reddy'
tp537
a(S'1021405459'
S'Vishal Vudaygiri'
tp538
a(S'100000245252257'
S'Nagarjun Nandakumar'
tp539
a(S'100003788769914'
S'Sindhu Reddy'
tp540
a(S'100002500519430'
S'Sahana Vadiraj Mundaragi'
tp541
a(S'100002310686126'
S'Pallavi Thogata'
tp542
a(S'100001757911001'
S'Nayana Siddalingamurthy'
tp543
a(S'100001132746106'
S'Rumesh Karthik'
tp544
a(S'100002203741440'
S'Bharath Bopanna'
tp545
a(S'100001385076343'
S'Arun Joseph'
tp546
a(S'100001546303873'
S'Raksha Lokesh'
tp547
a(S'100001011325366'
S'Irene Raj'
tp548
a(S'100002342494040'
S'Tenzin Tsomo'
tp549
a(S'100000031747793'
S'Taj Saitej'
tp550
a(S'100002832624218'
S'Misba Khan'
tp551
a(S'100003187932668'
S'Uday Kishore'
tp552
a(S'100004599272452'
S'Rakshith Mk'
tp553
a(S'100003151373228'
S'Varun Gowda'
tp554
a(S'100006610080863'
S'Bhagya Sathya B'
tp555
a(S'100000146520737'
S'Prashanth Ravi'
tp556
a(S'100005921079389'
S'Karthik Iyer'
tp557
a(S'1746052470'
S'Pooja Upendra'
tp558
a(S'100003647982447'
S'Reshma G Nair'
tp559
a(S'100002508060883'
S'Lakshan Lucky'
tp560
a(S'100001453426797'
S'Sampath Kumar'
tp561
a(S'672552548'
S'O V Kiren Nambiar'
tp562
a(S'100000393895985'
S'Jashwant Raj'
tp563
a(S'100003472465471'
S'Tridev Moonwalker'
tp564
a(S'100000060026340'
S'Swathy Mahalingam'
tp565
a(S'100001292688059'
S'Anush Reddy'
tp566
a(S'100002219911559'
S'Ajay Vishal'
tp567
a(S'1421662732'
S'Akshay Patil'
tp568
a(S'100002165368014'
S'Jay Prakash Naidu'
tp569
a(S'1544136432'
S'Janani Smitha'
tp570
a(S'100001083094233'
S'Shreyas Reddy'
tp571
a(S'711168203'
S'Kritika Gupta'
tp572
asS'id'
p573
S'100002311557573'
p574
sS'name'
p575
S'Naresh Iyer'
p576
s.