(dp1
S'friends'
p2
(lp3
sS'id'
p4
S'100000905362641'
p5
sS'name'
p6
S'\\u0648\\u0631\\u062f\\u06a9 \\u063a\\u0627\\u0632\\u06cc \\u0645\\u062d\\u0645\\u062f\\u062c\\u0627\\u0646 \\u062e\\u0627\\u0646\\u060c'
p7
s.