(dp1
S'friends'
p2
(lp3
(S'100002573375837'
S'Nayan Anand'
tp4
a(S'100005824182800'
S'Nitin Sharma'
tp5
a(S'100006767491408'
S'Auspicious Singh'
tp6
a(S'100001103736945'
S'Sumit Vats'
tp7
a(S'100002313955793'
S'Dinesh Dudy'
tp8
a(S'100004518250175'
S'Shubham Dobhal'
tp9
a(S'100006475921977'
S'Ananya Singh'
tp10
a(S'100003132166378'
S'Rahul Dua'
tp11
a(S'100002451056408'
S'Kamal Sarkar'
tp12
a(S'100002227544645'
S'Jasmeet Arora'
tp13
a(S'100003116224343'
S'Nikunj Bhalyan'
tp14
a(S'100001454743649'
S'Divya Singh'
tp15
a(S'100003702073246'
S'Ayush Sharma'
tp16
a(S'100003788990950'
S'Amit Singh Chauhan'
tp17
a(S'100003086746788'
S'Ravi Prakash'
tp18
a(S'100003163584665'
S'Abhishek Saryal'
tp19
a(S'100002537229198'
S'Deepak Jha'
tp20
a(S'100001846192410'
S'Palash Lavaniya'
tp21
a(S'100002591813358'
S'Rajesh Dalai'
tp22
a(S'100004131390637'
S'Vishal Tanwar Royalrajput'
tp23
a(S'100003894267252'
S'Aania Khan'
tp24
a(S'100004779558840'
S'Rohit Karhana'
tp25
a(S'100002279389660'
S'Hitakshi Khanna'
tp26
a(S'100001651832879'
S'Rahul Gulia'
tp27
a(S'100004496559459'
S'Shiv Sagar Pandey'
tp28
a(S'100002216570857'
S'Ayush Gupta'
tp29
a(S'1586326181'
S'Aditya Gupta'
tp30
a(S'100002534715724'
S'Nitin Anand'
tp31
a(S'100003236677044'
S'Udit Malik'
tp32
a(S'100006828784164'
S'Shiv Sagar Pandey'
tp33
a(S'100000939942385'
S'Arpit Talwar'
tp34
a(S'100002545946614'
S'Rahul Dixit'
tp35
a(S'100003296945423'
S'Sky Love'
tp36
a(S'100004429892360'
S'Aditi Sati'
tp37
a(S'100002567108352'
S'Jai Dixit'
tp38
a(S'100003674118226'
S'Sachin Kaushik'
tp39
a(S'100003699743649'
S'Sanju Gahlot'
tp40
a(S'100003576896065'
S'Poornima Bhardwaj'
tp41
a(S'100001395891366'
S'Vaibhav Jain'
tp42
a(S'100002967569067'
S'Mahesh Panchal'
tp43
a(S'100001521276157'
S'Kashish Goel'
tp44
a(S'100004852357734'
S'Vishal Gahlot'
tp45
a(S'100005643281506'
S'Harshit Sehrawat'
tp46
a(S'100005702410038'
S'Vishal Sharma'
tp47
a(S'100001531733534'
S'Aman Gahlot'
tp48
a(S'100002464835732'
S'Kamal Goyal'
tp49
a(S'100003740626109'
S'Vishwajeet Kumar'
tp50
a(S'100002362307399'
S'Amit Singh'
tp51
a(S'100003394035166'
S'Hemant Sankhla'
tp52
a(S'100002488515851'
S'Ashu Sharma'
tp53
a(S'100001019659172'
S'Chaitanya Kaushik'
tp54
a(S'100003517389609'
S'Tanisha Roy'
tp55
a(S'100003609312419'
S'R\\u00e5h\\u00fal \\u00df\\u00e5gr\\u00ec'
tp56
a(S'100002226248373'
S'Neelakshi Garg'
tp57
a(S'100001996556667'
S'Udit Bansal'
tp58
a(S'100001530454384'
S'Rahul Mahendru'
tp59
a(S'100005094150756'
S'Chaitanya Chez Raplife'
tp60
a(S'100003257064922'
S'MD Akram Choudhary'
tp61
a(S'100002456165084'
S'Suraj Kumar'
tp62
a(S'100001243447278'
S'Rohit Singh Bhandari'
tp63
a(S'100004014729610'
S'Rajat Singh Rana'
tp64
a(S'100007664890467'
S'Priyanshi Mehra'
tp65
a(S'1568059251'
S'Nikita Awal'
tp66
a(S'100004461485528'
S'Radhika Bansal'
tp67
a(S'100002933183745'
S'Ankit Prajapati'
tp68
a(S'100008286255549'
S'Naman Singh'
tp69
a(S'100001348307168'
S'Romaan Khan'
tp70
a(S'100005896261454'
S'Anjali Gahlawat'
tp71
a(S'100002746108784'
S'Sadaqat Ali'
tp72
a(S'100001455894869'
S'Aastha Narula'
tp73
a(S'100001146629349'
S'Sagar Baweja'
tp74
a(S'100006549105274'
S'Mannu Tehlan'
tp75
a(S'100003014130927'
S'Hitesh Kaushik'
tp76
a(S'100006859264865'
S'Pooja Singh'
tp77
a(S'100001943826743'
S'Theunpredictable Gahlot'
tp78
a(S'100005614983612'
S'Akshit Jasuja'
tp79
a(S'100002319444798'
S'Aman Thakran'
tp80
a(S'100003040695350'
S'Mahesh P\\u00e3\\u0144\\u00e7h\\u00e0\\u0142'
tp81
a(S'100006833890561'
S'Hari Kr'
tp82
a(S'100002929961417'
S'Rahul Chauhan'
tp83
a(S'100002896104314'
S'Siddharth Tomar'
tp84
a(S'100002078604167'
S'Ansh Dabas'
tp85
a(S'100002518311678'
S'Uttam Dhankhar'
tp86
a(S'100001220182596'
S'SoNu GoYal'
tp87
a(S'100005666683587'
S'Raghav Kaushik'
tp88
a(S'100001474554039'
S'Nikhil Gupta'
tp89
a(S'100003210792832'
S'Sohit Tehlan'
tp90
a(S'100000536022596'
S'Chirag Chhabra'
tp91
a(S'100000305284215'
S'Vipul Verma'
tp92
a(S'100001209563064'
S'Pawan Yadav'
tp93
a(S'100001968510447'
S'Shiv Sharma'
tp94
a(S'100002073299053'
S'CompLicated VaisHali'
tp95
a(S'100003915280036'
S'Vishal Negi'
tp96
a(S'100005758092746'
S'Harshit Pandey'
tp97
a(S'100001884092257'
S'Rahul Dhankhar'
tp98
a(S'100002523781510'
S'Dinesh Dudy'
tp99
a(S'100005628725233'
S'Nabin Patra'
tp100
a(S'100005647473382'
S'Aman Dalal'
tp101
a(S'100002456151252'
S'Deepak Jha'
tp102
a(S'100002230714997'
S'Naman Saxena'
tp103
a(S'100006725829978'
S'Yaami Gupta'
tp104
a(S'100001861495003'
S'Akshay Jain'
tp105
a(S'100002992108827'
S'Gourav Verma'
tp106
a(S'100002028115079'
S'Vijay Gulia'
tp107
a(S'100003855321460'
S'Deepak Rajput'
tp108
a(S'100003984585885'
S'Yamini Bhandari'
tp109
a(S'100000938465993'
S'Pranav Sharma'
tp110
a(S'100002960494051'
S'Satyam Shrivastava'
tp111
a(S'100007563849071'
S'Shanaya Dixit'
tp112
a(S'100006755315530'
S'Rashmi Chaudhary'
tp113
a(S'100005291674881'
S'R\\u00e2h\\u00fal R\\u00f4xt\\u00e5r'
tp114
a(S'100001258577669'
S'Puneet Yadav'
tp115
a(S'100006824018158'
S'F\\u00e0m\\u014d\\u016bs Att\\u00eeT\\u00fbd\\u00e8 K\\u00eell\\u00ebr'
tp116
a(S'100007908941543'
S'Usmaan Zaidi'
tp117
a(S'100005582615977'
S'Priyanka Dahiya'
tp118
a(S'100001518045613'
S'Sandeep Malik'
tp119
a(S'100001266366657'
S'Aman Bansal'
tp120
a(S'100003300138463'
S'Kinng Ishant Sardana'
tp121
a(S'100003087785095'
S'Sumit Yadav'
tp122
a(S'100000419842889'
S'Sarthak Sharma'
tp123
a(S'100006963633113'
S'Amit Singh'
tp124
a(S'100003485960947'
S'Arun Gahlot'
tp125
a(S'100003969485026'
S'Ashu Sharma'
tp126
a(S'100005880483366'
S'Manish Sharma'
tp127
a(S'100003813622663'
S'Vishal Tanwar'
tp128
a(S'100003640042889'
S'Nidhi Sangwan'
tp129
a(S'100002821038008'
S'AdaRsh AhlaWat'
tp130
a(S'100005142882484'
S'Aman Tayal'
tp131
a(S'100002350610998'
S'\\u00dfhavik Singh'
tp132
a(S'100000089434735'
S'Nishchal Gulati'
tp133
a(S'100005591682756'
S'Nitin Sharma'
tp134
a(S'100002585686981'
S'Vivek D\\u0105\\u0127i\\u0177\\u0105'
tp135
a(S'100002577640749'
S'Jatin Gupta'
tp136
a(S'100000303129333'
S'Anand Agarwal'
tp137
a(S'100001780706029'
S'Sahil Gahlot'
tp138
a(S'100003462416065'
S'Namrata Rai'
tp139
a(S'100004427558192'
S'Priyanka Sharma'
tp140
a(S'100006209527532'
S'Neha Arora'
tp141
a(S'100003015293887'
S'Ashi Chauhan'
tp142
a(S'100003530979559'
S'Gaurav Gahlawat'
tp143
a(S'100000561161571'
S'Akansha Aggarwal'
tp144
a(S'100003226280418'
S'Ingenious J\\u00e5\\u00f1\\u00fb'
tp145
a(S'100001886074645'
S'Sahil Rathi'
tp146
a(S'100001680527393'
S'Bigde Nawab'
tp147
a(S'100002887543570'
S'Omesh Dadhwal'
tp148
a(S'100001236268508'
S'Nitin Parashar'
tp149
a(S'100000213986611'
S'Suryansh Garg'
tp150
a(S'100000468651482'
S'Sahil Garg'
tp151
a(S'100001734241787'
S'Anisha Khurana'
tp152
a(S'100002961662222'
S'Iridescente Mohit'
tp153
a(S'100003324384153'
S'Sachin Rathi'
tp154
a(S'100002570833108'
S'Lokesh Gaur'
tp155
a(S'100002519926705'
S'Pooja Singh'
tp156
a(S'100004315480389'
S'Nitesh Kumar'
tp157
a(S'100005525533267'
S'Nandlal Pandey'
tp158
a(S'100002360238424'
S'Harit Bhardwaj'
tp159
a(S'100001666180355'
S'Ajay Sharma'
tp160
a(S'100002375192432'
S'Harish Si\\u00f1gh'
tp161
a(S'100001540788578'
S'Akky Mittal'
tp162
a(S'100003041650383'
S'Sonali Sharma'
tp163
a(S'100003247041178'
S'Karan Khivesra'
tp164
a(S'100001611177867'
S'Manish Sharma'
tp165
a(S'100000720182884'
S'Gagan Sarna'
tp166
a(S'100004039986787'
S'Sohit Huria'
tp167
a(S'100002095070166'
S'K\\u1eaf\\u1e3f\\u1ea3\\u1e3b Prajapati'
tp168
a(S'1678022630'
S'Ankit Mittal'
tp169
a(S'100001354444828'
S'Mansi Jaggi'
tp170
a(S'100002465094060'
S'Vishwajeet Kumar'
tp171
a(S'100002513145704'
S'Rohit Singh'
tp172
a(S'100001614668352'
S'Krrish Nainvaya'
tp173
a(S'100004656963622'
S'Avinash Kumar'
tp174
a(S'100007196619261'
S'Aman Shrivastava'
tp175
a(S'100002644535205'
S'Bhavya Sharma'
tp176
a(S'100003157353215'
S'Prabhjot Singh Loyal'
tp177
a(S'100000086399130'
S'Daksh Buddy'
tp178
a(S'100000763106508'
p179
S'Tushar Kamra'
tp180
a(S'100006932972775'
S'Raman Harsh'
tp181
a(S'100003171598843'
S'Harsh Raman'
tp182
a(S'100002514260114'
S'Tanu Chaudhary'
tp183
a(S'100004102115412'
S'Sahil Bakshi'
tp184
a(S'100001662579571'
S'Aman Sharma Vashist'
tp185
a(S'100001267299449'
S'Deepanshu Mann'
tp186
a(S'100003282611981'
S'Akshay Jangid'
tp187
a(S'100003225949512'
S'Amarpreet Singh'
tp188
a(S'100002852538385'
S'Shivani Khanna'
tp189
a(S'100003686614799'
S'Lokesh Yaar'
tp190
a(S'100002819960398'
S'Deepak Gahlot'
tp191
a(S'100005380449692'
S'Disha Singh'
tp192
a(S'100002110171948'
S'Shubham Dobhal'
tp193
a(S'100001939470871'
S'Avinash Kumar'
tp194
a(S'1759552994'
S'Yash Shrivastav'
tp195
a(S'100003088747846'
S'Deepak Kumar'
tp196
a(S'100002734892334'
S'Fca Deepak Deepak'
tp197
a(S'100003802307545'
S'Surya Pratap Singh'
tp198
a(S'100003931741820'
S'Nitish Tehlan'
tp199
a(S'100002399838111'
S'Alok Gahlot'
tp200
a(S'100002328968124'
S'Sakshi Deswal'
tp201
a(S'100003119144522'
S'Ajeet Kumar Jha'
tp202
a(S'100003517683801'
S'Invincible Rohit'
tp203
a(S'100001219011369'
S'Dee Rykwar'
tp204
a(S'100001101990410'
S'Hemant Rao'
tp205
a(S'100000915297431'
S'Abhay Agnihotri'
tp206
a(S'100005199510211'
S'Nidhi Dahiya'
tp207
a(S'100001225710192'
S'Hemant Dhawan'
tp208
a(S'100006603365748'
S'Dixit Jeet'
tp209
a(S'100003676904286'
S'Mahesh Real Nawab'
tp210
a(S'100006817267890'
S'Nikhil Pathak'
tp211
a(S'100003623889768'
S'Suraj Kumar'
tp212
a(S'100001037485013'
S'Nayan Malhotra'
tp213
a(S'100001688841246'
S'Rishabh Malik'
tp214
a(S'100002423810162'
S'Deepa Singh'
tp215
a(S'1829703525'
S'Shiva Choudhary'
tp216
a(S'100003246841017'
S'Baidhnath Kumar'
tp217
a(S'100004096657736'
S'Abhishek Jain'
tp218
a(S'100002169625821'
S'Gaurav Gahlawat'
tp219
a(S'100003391516518'
S'Ayush Tehlan'
tp220
a(S'100002530991229'
S'Ashwani Sharma'
tp221
a(S'100000123175726'
S'Pushpak Taneja'
tp222
asS'id'
p223
S'100003077599233'
p224
sS'name'
p225
S'Pramod Gahlot'
p226
s.