(dp1
S'friends'
p2
(lp3
(S'100001635076713'
S'Kiran Kumar'
tp4
a(S'100002990219143'
S'Dharm Raju'
tp5
a(S'100001908854383'
S'Adarsh Pathak'
tp6
a(S'100000887709823'
S'Joel John Mathai'
tp7
a(S'100002360742031'
S'Kohli Raj'
tp8
a(S'100002032557147'
S'Rahul Boundia'
tp9
a(S'100002105657482'
S'Sandeep Kumar'
tp10
a(S'100002267525159'
S'Aaliya Kapoor'
tp11
a(S'100001775899657'
S'Prasanna Kumar'
tp12
a(S'100002656402576'
S'Mukesh Kumar'
tp13
a(S'1503974128'
S'Rosy Hena'
tp14
a(S'100002973618721'
S'Ramandeep Singh'
tp15
a(S'100003055068900'
S'Kishan Kumar'
tp16
a(S'100002223473147'
S'Counselling Centre'
tp17
a(S'100002624330384'
S'Vikas Tiwari'
tp18
a(S'100001921686836'
S'Harmeet Chabra'
tp19
a(S'100001883457024'
S'Abhishek Nandi'
tp20
a(S'100005530773841'
S'Sachin Kumar'
tp21
a(S'100001049658036'
S'Shourabh Bhatt'
tp22
a(S'100002062030552'
S'John Kachhap'
tp23
a(S'100003768911337'
S'Aditya Kumar Jaiswal'
tp24
a(S'100005954553929'
S'Shristy Pathak'
tp25
a(S'100000769892342'
S'Sanjay Chourasia'
tp26
a(S'1523822686'
S'Shubham Boundia'
tp27
a(S'100001176960882'
S'Amit Agarwal'
tp28
a(S'100002875575241'
S'Siddharth Pandey EH'
tp29
a(S'100005801732299'
S'Priyanka Chauhan'
tp30
a(S'100005865546702'
S'Mamta Kumari'
tp31
a(S'100002184324321'
S'Ro Sall'
tp32
a(S'100002879930210'
S'Shreya Sharma'
tp33
a(S'100001077658717'
S'Raj Deep'
tp34
a(S'100001619415121'
S'Binay Upadhaya'
tp35
a(S'100002212953071'
S'Avinash Nonia'
tp36
a(S'100002359651979'
S'Abhishek Gupta'
tp37
a(S'100006800767121'
S'Shruti Shrabya Singh'
tp38
a(S'100002039241363'
S'Vikash Kumar Vinay'
tp39
a(S'100001518255201'
S'Swati Jain'
tp40
a(S'100001551670016'
S'Suvigya Katiyar'
tp41
a(S'100004399003649'
S'Roshan Indwar'
tp42
a(S'100001047664390'
S'Abhishek Pandey'
tp43
a(S'100002007037373'
S'Nilofar Tasneem'
tp44
a(S'100005735081931'
S'Aastha Choudhary'
tp45
a(S'100001893137918'
S'Tanya Gupta'
tp46
a(S'100002127598614'
S'Nikita Kakar'
tp47
a(S'100000690395440'
S'Amitkumar Pathak'
tp48
a(S'100003076551942'
S'Shubham Pundir'
tp49
a(S'100000039290421'
S'Sumit Pathak'
tp50
a(S'100002074655218'
S'Ajay TheApache'
tp51
a(S'100002439454833'
S'Ritesh Paul'
tp52
a(S'100003944233739'
S'Darleen Kaur'
tp53
a(S'100002513722428'
S'Ankit Kumar'
tp54
a(S'100004532772359'
S'Rakesh Rai'
tp55
a(S'100000156535566'
S'Avinash Deshmane'
tp56
a(S'100002148410295'
S'Vikas Ahlawat'
tp57
a(S'100001187594210'
S'Amit Jaggi'
tp58
a(S'1774586338'
S'Sakshi Poddar'
tp59
a(S'100003541182465'
S'Nikhil Kotecha'
tp60
a(S'100002371368649'
S'Priyanka Kashyap'
tp61
a(S'100001938202501'
S'Twinkle Bansal'
tp62
a(S'100003060811449'
S'Prasann Kumar'
tp63
a(S'100002400297119'
S'Bhaskar'
tp64
a(S'100002379291715'
S'Manasvi Rathore'
tp65
a(S'100001154746066'
S'Arpit Rajauria'
tp66
a(S'100002401243638'
S'Viraj Kumar'
tp67
a(S'100002524127069'
S'Rohit Chauhan'
tp68
a(S'100000959561684'
S'Asha Agrawal'
tp69
a(S'100001051584605'
S'Nishant Sharma'
tp70
a(S'100004004360592'
S'Ranjan Lyfgoes On'
tp71
a(S'100002812597483'
S'Manas Shukla'
tp72
a(S'100002487250143'
S'Rohit Anand'
tp73
a(S'100004110334454'
S'Karan Dagar'
tp74
a(S'100001674022045'
S'Kuljeet Singh Billing'
tp75
a(S'100002612690638'
S'Mohit Dubey'
tp76
a(S'100001216251533'
S'Aman Singh'
tp77
a(S'100002099140461'
S'Aakash Kumar Dwivedi'
tp78
a(S'100001270848462'
S'Dipbandhu Biswas'
tp79
a(S'100002570020139'
S'Siddharth Panigrahi'
tp80
a(S'100000003282216'
S'Pranav Ranjan'
tp81
a(S'100002063683817'
S'Prem Ranjan'
tp82
a(S'100003744645437'
S'Saloni Jain'
tp83
a(S'100002859891551'
S'Kaajal Mishra'
tp84
a(S'100001289755021'
S'Chaman Mistry'
tp85
a(S'100004648115071'
S'Aman Mishra'
tp86
a(S'100001549070637'
S'Neil Bilung'
tp87
a(S'100001714277209'
S'Abhijeet Raj'
tp88
a(S'100001181575991'
S'Akansha Agrawal'
tp89
a(S'100002406607441'
S'Smitha Agarwal'
tp90
a(S'100002469318037'
S'Rashmi Vishwakarma'
tp91
a(S'100005171706581'
S'Gohan Thomas'
tp92
a(S'100002639990919'
S'Priya Pandey'
tp93
a(S'100001396418940'
S'Rishab Anand'
tp94
a(S'100003100559594'
S'Shivam Kumar'
tp95
a(S'722043904'
S'Mili Singh'
tp96
a(S'1826538235'
S'Yash Nishant'
tp97
a(S'100001344996055'
S'Manjot Saini'
tp98
a(S'100000616914202'
S'Diwakar Trivedi'
tp99
a(S'100001979668897'
S'Pragya Jain'
tp100
a(S'100001789345698'
S'Kshitiz Singh'
tp101
a(S'100002438822921'
S'Shubhanshu Ranjan'
tp102
a(S'100004369025644'
S'Ketan Kotecha'
tp103
asS'id'
p104
S'100002198779449'
p105
sS'name'
p106
S'Ujjwal Choubey'
p107
s.