(dp1
S'friends'
p2
(lp3
(S'100004450961035'
S'Dalia Garcia'
tp4
a(S'100007355653795'
S'Honda Civic'
tp5
a(S'100006083316034'
S'Candy Crush'
tp6
a(S'100003321862266'
S'Sugar Sukie'
tp7
a(S'100008348252024'
S'Angelines Alegre Isern'
tp8
a(S'100004289371350'
S'Desde MI Cielo Amarteduele'
tp9
asS'id'
p10
S'100003321862266'
p11
sS'name'
p12
S'Sugar Sukie'
p13
s.