(dp1
S'friends'
p2
(lp3
(S'100003057876468'
S'Ankit Gupta'
tp4
a(S'100002307657228'
S'Shashank Singh Gaharwar'
tp5
a(S'100000042894517'
S'Upasana Issar'
tp6
a(S'100001300381895'
p7
S'Kavya Rathaur'
tp8
a(S'100003617858911'
S'Tejashvi Dubey'
tp9
a(S'100002036713785'
S'Adishree Kalra'
tp10
a(S'100003625499078'
S'Dias Antony Thakidiyel'
tp11
a(S'100002527440425'
S'Deepak Chauhan'
tp12
a(S'1067409573'
S'Abhishek Chugh'
tp13
a(S'1805515972'
S'Bhavesh Gupta'
tp14
a(S'100002358281763'
S'Amanda Victor'
tp15
a(S'100000477912185'
S'Shania Bhalotia'
tp16
a(S'1804763451'
S'Vivek Patel'
tp17
a(S'100002574504831'
S'Mansi Tiwari'
tp18
a(S'100006887013007'
S'M\\u00f4nica Dias'
tp19
a(S'100002930470718'
S'Tauheed Haqqani'
tp20
a(S'100002382415799'
S'Shraddha Pandey'
tp21
a(S'100000637920880'
S'Wani Adnan'
tp22
a(S'603625357'
S'Palki Bhattacharyya'
tp23
a(S'1328145572'
S'Anurag Banerjee'
tp24
a(S'100004447994067'
S'Kriti Mishra'
tp25
a(S'100006572950803'
S'Ranajit Roy'
tp26
a(S'100003564762949'
S'Chitransh Khare'
tp27
a(S'100005713205535'
S'Bandita Dwivedi'
tp28
a(S'1448228746'
S'Taisha Antony'
tp29
a(S'100000246147515'
S'Sanjula Halder'
tp30
a(S'100004644993853'
S'Siddarth Ningthoujam'
tp31
a(S'517079900'
S'Roopali Lakhotia'
tp32
a(S'100003108687378'
S'Uma Kumari'
tp33
a(S'100007366533792'
S'Amit Tiwari'
tp34
a(S'100006383683849'
S'Bibin Abraham'
tp35
a(S'836679900'
S'Namitha Sadanand'
tp36
a(S'100004404634722'
S'Gabrielle Jose'
tp37
a(S'1594458171'
S'Nikita Purty'
tp38
a(S'1013815559'
S'Sunil Issar'
tp39
a(S'100005263447692'
S'Ruth Simte'
tp40
a(S'1813212226'
S'Ashna Susan'
tp41
a(S'100001703958525'
S'Gandhi Study Circle'
tp42
a(S'1398108331'
S'Chandraneev Das'
tp43
a(S'100005493781794'
S'Angel Rose Gilbaliga'
tp44
a(S'100002532813425'
S'Shivani Tiwari'
tp45
a(S'1099905728'
S'Divya Kapur'
tp46
a(S'1155828229'
S'Maria Kuruvilla'
tp47
a(S'100001931844647'
S'Pooja Sharma'
tp48
a(S'100002493987789'
S'Adarsh Singh Chandanan'
tp49
a(S'100002092911260'
S'Rajat Pratap Singh'
tp50
a(S'100000934338364'
S'Jordan Kinchum Tshering Namchu'
tp51
a(S'100001129594621'
p52
S'Garima Thareja'
tp53
a(S'100001120867282'
S'Abhinav Jha'
tp54
a(S'100000102652717'
S'Debobroto Sensharma'
tp55
a(S'100001873041319'
S'Sadiah Zahoor'
tp56
a(S'100003619606443'
S'Silas Milton'
tp57
a(S'1627385259'
S'Anithasree Athiyaman'
tp58
a(S'100000744500685'
S'Rabin Jacob'
tp59
a(S'1271338637'
S'Akshita Jain'
tp60
a(S'100003264718450'
S'Divyabh Sharma'
tp61
a(S'100004879355005'
S'Wodehouse Ssc'
tp62
a(S'100005823402711'
S'Aarav Roy'
tp63
a(S'1809210907'
S'Syed Jaasirah Syedain'
tp64
a(S'100004066460634'
S'Reena Yadav'
tp65
a(S'1433994034'
S'Siddharth Chakravortty'
tp66
a(S'100000246384525'
S'Abhinav Joshi'
tp67
a(S'100000927240270'
S'Lovely Grover'
tp68
a(S'100003235806945'
S'Manmohan Thakur'
tp69
a(S'100002385120426'
S'Khushbu Singh Sengar'
tp70
a(S'100000045593006'
S'Shalu Vinod'
tp71
a(S'1328354985'
S'Vidushi J Roy'
tp72
a(S'100000140399286'
S'Vaishali Wkd'
tp73
a(S'100001059912619'
S'Raja Pandit'
tp74
a(S'1674495547'
S'Roderick Anthony'
tp75
a(S'100006882792508'
S'Kritika Nayar'
tp76
a(S'1062439600'
S'Abhisek Ghosh'
tp77
a(S'100005180288096'
S'Akhil Singh'
tp78
a(S'100002210676748'
S'Ritika Dua'
tp79
a(S'100000182641304'
S'Ben Sandquist'
tp80
a(S'100003920370326'
S'Rajarshi Mishra'
tp81
a(S'100006928652230'
S'Soumya Ranjan Das'
tp82
a(S'100000562128026'
S'Ayushi Mishra'
tp83
a(S'100004629549558'
S'Sitash Mishra'
tp84
a(S'1701292221'
S'Devyani Singh'
tp85
a(S'100003005156183'
S'Amit Singh'
tp86
a(S'100000653649115'
S'Haarsh Dubey'
tp87
a(S'100006222514941'
S'Sarvagya Singh'
tp88
a(S'100000569035595'
S'Yash Gupta'
tp89
a(S'100005344260128'
S'Santosh Gupta'
tp90
a(S'100001824347094'
S'Christy Perayil'
tp91
a(S'100002077035748'
S'Farhan Amin'
tp92
a(S'100002748190435'
S'Saurav Raj'
tp93
a(S'100002696102305'
S'Michelle Cherian'
tp94
a(S'100006290774317'
S'Shudhashil Bharthuar'
tp95
a(S'100000093876452'
S'Farkhanda Zahoor'
tp96
a(S'100001534816738'
S'Soumyajit Kar'
tp97
a(S'544559923'
S'Priyanka Das Rajkakati'
tp98
a(S'100001237479326'
S'Aditya Chaturvedi'
tp99
a(S'100006728972416'
S'Apoorva Dimri'
tp100
a(S'100006774969855'
S'Mihira Kallahalla'
tp101
a(S'1375870324'
S'Radhika Goswami'
tp102
a(S'1514442149'
S'Aayush Baid'
tp103
a(S'100003474711557'
S'Navdeep Sangwan'
tp104
a(S'100004107336413'
S'Juhi Prasad'
tp105
a(S'100001270162234'
S'Garima Singh'
tp106
a(S'100003038951439'
S'Rohit Kumar'
tp107
a(S'100002506839357'
S'Anchal Sharma'
tp108
a(S'100003295641095'
S'Nicole Noyal Thomas'
tp109
a(S'100000061741154'
S'Soutik Banerjee'
tp110
a(S'100003728810659'
S'Payal Patel'
tp111
a(S'100002210354046'
S'Vertika Singh'
tp112
a(S'100000524307614'
S'Teesha Chugh'
tp113
a(S'100000487520943'
S'John Jacob'
tp114
a(S'716673406'
S'Malvika Srivastava'
tp115
a(S'100005585194357'
S'Ranajit Roy'
tp116
a(S'100007726265194'
S"Stephen's StudentsCollective"
tp117
a(S'100001456113250'
S'Kamlesh Jat'
tp118
a(S'100000821751848'
S'Angela Massey'
tp119
a(S'100005639435367'
S'Shahbaz Siddiqui'
tp120
a(S'100000106600174'
S'Lawrence Simte'
tp121
a(S'100002453048758'
S'Abdul Quadir'
tp122
a(S'100003017351414'
S'Amandeep Kaur'
tp123
a(S'100004653617853'
S'Ashika Rajput'
tp124
a(S'100000332472637'
S'Sambodhi Sarkar'
tp125
a(S'100000447017627'
S'Mayank Bhardwaj'
tp126
a(S'1343900444'
S'Avidha Chakrabarti'
tp127
a(S'711014202'
S'Jasmin Bedi'
tp128
a(S'100008223514461'
S'Ren\\u00e9 Sharanya Verma'
tp129
a(S'100002470017403'
S'Nidhi Singh'
tp130
a(S'100007329433240'
S'Rohit Lakhara'
tp131
a(S'100002284622877'
S'Gurmeet Garry'
tp132
a(S'100000979880835'
S'Ananta Joshi'
tp133
a(S'100003908535421'
S'Saurabh Mishra'
tp134
a(S'100002982244992'
S'Nikhil Singh'
tp135
a(S'100001608277241'
S'Sthira Bhattacharya'
tp136
a(S'592846511'
S'Steffi Cherian'
tp137
a(S'646900737'
S'Nitin George'
tp138
a(S'100000202593085'
S'Emil Manu Oommen'
tp139
a(S'1120114562'
S'Deborah Swati Lall'
tp140
a(S'100003689093651'
S'Harman Malhotra'
tp141
a(S'100002480382424'
S'Jay Shukla'
tp142
a(S'100001882831845'
S'Sandeep Singh Baghel'
tp143
a(S'796545152'
S'Lakshya Dev Mudgil'
tp144
a(S'100001403158707'
S'Daisy Mowke'
tp145
a(S'100004078954159'
S'Arshia Jacob'
tp146
a(S'100001888855971'
S'Sanket Arpure'
tp147
a(S'1301229032'
S'Abhishek Bansal'
tp148
a(S'100006827503801'
S'Amar Tiwari'
tp149
a(S'100006589084180'
S'Rishika Khare'
tp150
a(S'100006698822538'
S'Amit Mishra'
tp151
a(S'100002281666021'
S'Rohan Michael'
tp152
a(S'100006269856853'
S'Shatakshi Mishra'
tp153
a(S'100002364306917'
S'Ashlin James'
tp154
a(S'100000774423334'
S'Vaibhav Singh'
tp155
a(S'100000738220098'
S'Kenyuni Tep'
tp156
a(S'100000224934763'
S'Apurva Pandey'
tp157
a(S'100004618450701'
S'Vaibhav Shukla'
tp158
a(S'100004366412846'
S'Atima Shahi'
tp159
a(S'100003710078280'
S'Shelly Malhotra'
tp160
a(S'100002009271874'
S'Shivani Pandey'
tp161
a(S'100002170864311'
S'Annu Tomar'
tp162
a(S'100003145089364'
S'Sheela Ninan'
tp163
a(S'100000593254449'
S'Parichay Mazumdar'
tp164
a(S'100004490915787'
S'Sinthia Jaura'
tp165
a(S'100004552329354'
S'Ayushi Kathayat'
tp166
a(S'100000576084005'
S'Param Adiseshiah'
tp167
a(S'100004101035521'
S'Parakadivil Jacob'
tp168
a(S'100002812297520'
S'Ankit Dwivedi'
tp169
a(S'100003580503703'
S'Lavish Hotwani'
tp170
a(S'100003573526818'
S'Kammu Pandey'
tp171
a(S'100002318652085'
S'Deepesh Singh'
tp172
a(S'100007380040297'
S'Alan Daniel'
tp173
a(S'100001481494611'
S'Shreyansha Bhargav'
tp174
a(S'100007554011919'
S'Joshua Roy'
tp175
a(S'661885249'
S'Atreyi Bhattacharya'
tp176
a(S'100001547927643'
S'Shani T Ninan'
tp177
a(S'100000057314562'
S'Prince Sunil Thomas'
tp178
a(S'100002254477229'
S'Deekshita Saikia'
tp179
a(S'100002391288281'
S'Darshanam Jude Lama'
tp180
a(S'100000633649402'
S'George Joseph'
tp181
a(S'100001381678512'
S'Joy Arun'
tp182
a(S'1527344376'
S'Rahul Vyas'
tp183
a(S'100003108824523'
S'Divyanshi Singh'
tp184
a(S'100001714661377'
S'Jaison C Koshy'
tp185
a(S'100001636724683'
S'Suresh Mudakappagol'
tp186
a(S'100003220137797'
S'Yogesh Singh Baghel'
tp187
a(S'100002444651098'
S'Divya Tekchandani'
tp188
a(S'100002761123818'
S'Prashant Ekka'
tp189
a(S'1083757394'
S'Nadeem Afroz'
tp190
a(S'100001247736520'
S'Reen Calway'
tp191
a(S'100003251585846'
S'Debabrat Meher'
tp192
a(S'100001360885817'
S'Justin Jose'
tp193
a(S'1216774368'
S'Cerin Philip'
tp194
a(S'100000184009054'
S'Jonathan David George'
tp195
a(S'100000500336367'
S'Prerna Pratham Singh'
tp196
a(S'100005100304836'
S'Anmol Virmani'
tp197
a(S'100004012813087'
S'Daniel Rajan'
tp198
a(S'1179090898'
S'Kavitha Morgan'
tp199
a(S'100000877258057'
S'Harshit David'
tp200
a(S'100008054761421'
S'Anand Pai'
tp201
a(S'100001867507711'
S'Leah Chrestien'
tp202
a(S'1023392281'
S'Vivek Redhu'
tp203
a(S'100002532615501'
S'Satya Vijay'
tp204
a(S'1265317003'
S'Nick Samuelson'
tp205
a(S'1173176116'
S'Suhasni Srivastava'
tp206
a(S'100004061292497'
S'Anjana Joseph'
tp207
a(S'100002825124270'
S'Sughosh Mishra'
tp208
a(S'100002261307066'
S'Mandvi Singh'
tp209
a(S'100006277448156'
S'Joshua Baskaran'
tp210
a(S'1206344548'
S'Dipak V. Chalakkal'
tp211
a(S'1593084569'
S'Sachu Sanil Chemmalakuzhy'
tp212
a(S'100002491787631'
S'Harshit Bansal'
tp213
a(S'100004312307519'
p214
S'Ssc Shots'
tp215
a(S'100002886663879'
S'Preethish Raja'
tp216
a(S'538369463'
S'Malay Neerav'
tp217
a(S'100001351338828'
S'Sam John'
tp218
a(S'100000473118246'
S'Jismol Joy'
tp219
a(S'100002056353777'
S'Athul P Kurian'
tp220
a(S'661602799'
S'Sanjana Thomas'
tp221
a(S'1806520168'
S'Anurag Sisodia'
tp222
a(S'1329842706'
S'Kanika Verma'
tp223
a(S'100002412716363'
S'Aditya Singh'
tp224
a(S'100001556295014'
S'Moncy Abraham'
tp225
a(S'100004086337549'
S'Sonu Parauha'
tp226
a(S'100002452526941'
S'Rajendra Singh'
tp227
a(S'100002708315911'
S'Akash Chaddha'
tp228
a(S'642857354'
S'Saagnik Paul'
tp229
a(S'100000170062516'
S'Idg StStephens'
tp230
a(S'100000699512718'
S'Anamika Patel'
tp231
a(S'100000586347163'
S'ParmEshwar Jha'
tp232
a(S'1569552939'
S'Ashwin Pothen'
tp233
a(S'1383362628'
S'Khamrosang Buhril'
tp234
a(S'1745587305'
S'Sambit Mohanty'
tp235
a(S'100002534448098'
S'Vikas Bhati'
tp236
a(S'874875723'
S'Arjun Chakravorty'
tp237
a(S'100006802748988'
S'Rosmy Davis'
tp238
a(S'100003092580838'
S'Animesh Singhal'
tp239
a(S'1610689273'
S'Ritika Gupta'
tp240
a(S'100000821204880'
S'Renish Geevarghese Abraham'
tp241
a(S'100000278978895'
S'Smiti Dubey'
tp242
a(S'100002550018416'
S'Shruti Chaturvedi'
tp243
a(S'566778114'
S'Devangana Tikku'
tp244
a(S'100002829766924'
S'Yepeto Vitoshe Rochill'
tp245
a(S'100008143754288'
S'Piya Singh'
tp246
a(S'1057709579'
S'Rohit Job Zachariah'
tp247
a(S'100004127982894'
S'Jiyash G Philipose'
tp248
a(S'100006921379023'
S'Sachin Agarwal'
tp249
a(S'100002365103286'
S'Siddhartha Samuel'
tp250
a(S'1528010711'
S'Shweta Sogani'
tp251
a(S'100003421643940'
S'Abhay Singh Chouhan'
tp252
a(S'1627732975'
S'Susan Abraham'
tp253
a(S'100001315060004'
S'Vivek Chauhan'
tp254
a(S'618581715'
S'Ananya Diwa'
tp255
a(S'100001907470708'
S'Sharon John'
tp256
a(S'100000063108887'
S'Rini Thomas'
tp257
a(S'100004930272078'
S'Mansi Agnihotri'
tp258
a(S'757895401'
S'Benston John'
tp259
a(S'1348296171'
S'Tanya Sharma'
tp260
a(S'1806772046'
S'Vinayaditya Reddy'
tp261
a(S'795584067'
S'Meera Martin'
tp262
a(S'100002698962421'
S'Abhinav Malaiya'
tp263
a(S'100006428391952'
S'Mitrajyoti Ghosh'
tp264
a(S'100003926142282'
S'Ayush Singh Sengar'
tp265
a(S'100004668453058'
S'Parul Shikha'
tp266
a(S'1218263786'
S'Urvi Vora'
tp267
a(S'100003014227330'
S'Wasim Ali'
tp268
a(S'100006756278192'
S'Ritu Bhardwaj'
tp269
a(S'100008001456624'
S'Shyla Varghese'
tp270
a(S'100004484081663'
S'Suraj Rawat'
tp271
a(S'100007543920682'
S'Pooja Arora'
tp272
a(S'100000609043373'
S'Ashok Vardhan'
tp273
a(S'1838562826'
S'Ebenezer Lyall'
tp274
a(S'100002595375059'
S'Amy Binny Philip'
tp275
a(S'100002674301947'
S'Vikram Singh'
tp276
a(S'100001063891756'
S'Anshul Jindal'
tp277
a(S'100004035019790'
S'Megha Bhardwaj'
tp278
a(S'649274774'
S'Tharun Thomas'
tp279
a(S'100001129272037'
p280
S'Rocky Chhikara'
tp281
a(S'100003749216053'
S'Rajat Ronald Rodney'
tp282
a(S'100006676350175'
S'Noble Kadaji'
tp283
a(S'1760217864'
S'Girish Chander Singh'
tp284
a(S'100004129420334'
S'Kunal Yadav'
tp285
a(S'100001014506559'
S'Raaz Dwivedi'
tp286
a(S'1703305737'
S'Sooraj Saksena'
tp287
a(S'100000852706570'
S'Cathrine Jeyaseelan'
tp288
a(S'100002139050814'
S'Rishabh Chaudha'
tp289
a(S'718676704'
S'Roma Dixit'
tp290
a(S'100001194848455'
S'Daisy Mathew'
tp291
a(S'100001722774574'
S'Akanksha Dikshit'
tp292
a(S'100002208710541'
S'Neha Joshi'
tp293
a(S'100000955126078'
S'Leonne Castellas'
tp294
a(S'100002453723436'
S'Shanu Ninan'
tp295
a(S'100002698818803'
S'Pooja Dixit'
tp296
a(S'100007675080984'
S'Kankipati Madhu Babu'
tp297
a(S'1540871363'
S'Rhea Colaco'
tp298
a(S'100001293244864'
S'Alan Stanley'
tp299
a(S'100001505237371'
S'Parm Rox'
tp300
a(S'100000061352555'
S'Jay Nair'
tp301
a(S'100003118148896'
S'Shipra Singh Tiwari'
tp302
a(S'1769025700'
S'Kapil Dhabu'
tp303
a(S'682845829'
S'Bhavna Jha'
tp304
a(S'100003946359089'
S'Rajpal Luhaniwal'
tp305
a(S'100002456856551'
S'Abhimanyu Tripathi'
tp306
a(S'100004005164628'
S'Hare Ram'
tp307
a(S'100002287993659'
S'Vivek Sharma'
tp308
a(S'100005233023847'
S'Dhruv Singh Baghel'
tp309
a(S'511220635'
S'Anagha Vasudevan'
tp310
a(S'100001336967577'
S'Debayan Saha'
tp311
a(S'100002881778508'
S'Prince Lovnish Verma'
tp312
a(S'100001017065351'
S'Jibin Oommen'
tp313
a(S'100001000175258'
S'Sohini Basak'
tp314
a(S'100002245687470'
S'Aditya Guha'
tp315
a(S'100003099852364'
S'Anu Joseph'
tp316
a(S'100002778026846'
S'Shubham Singh Tiwari'
tp317
a(S'100006705396477'
S'Unmukt Chand'
tp318
a(S'100000904375182'
S'Enosh Sinha'
tp319
a(S'100001791888855'
S'Alice David'
tp320
a(S'1231531483'
S'John Biju'
tp321
a(S'531721238'
S'Sumedha Chakravarthy'
tp322
a(S'100000514903561'
S'Mohit Tiwari Mohit'
tp323
a(S'842574799'
S'Shinjini Kulkarni'
tp324
a(S'556978970'
S'Jagat Sohail'
tp325
a(S'100007213772225'
S'A\\u00f1\\u0137it Ti\\u0175ari'
tp326
a(S'100007820893562'
S'Shilpa Thakur'
tp327
a(S'100006196540100'
S'Riya Singh'
tp328
a(S'864545343'
S'Archishman Pradhan'
tp329
a(S'100001507912731'
S'Ananya Mishra'
tp330
a(S'1145261849'
S'Henry Gomes'
tp331
a(S'100006436637887'
S'Shri Ram'
tp332
a(S'1062942034'
S'Kesav Krishnan'
tp333
a(S'100004034423986'
S'Ankur David Barrow'
tp334
a(S'100002914288797'
S'Sanskriti Singh'
tp335
a(S'100002064183559'
S'Subin T Daniel'
tp336
a(S'100006552904639'
S'Jibin Oommen'
tp337
a(S'100004464846253'
S'Bhupinder Singh Satpola'
tp338
a(S'100001291185193'
S'Anamika Tripathi'
tp339
a(S'100003048872993'
S'Sara Sinha'
tp340
a(S'100002343947093'
S'Shivangi Singh'
tp341
a(S'100003101771464'
S'Rani Chandra'
tp342
a(S'695855925'
S'Kopal Khanna'
tp343
a(S'100001950222247'
S'David Masih'
tp344
a(S'1152633150'
S'Prakhar Shrivastava'
tp345
a(S'100003716180305'
S'Aman Singh Sengar'
tp346
a(S'1784357355'
S'Prateek Rajan'
tp347
a(S'618766798'
S'Aarti Anand'
tp348
a(S'100002528934419'
S'Karan Puri'
tp349
a(S'100000057527153'
S'Manasij Pal Chowdhury'
tp350
a(S'1645640382'
p351
S'Arjoonn Sharma'
tp352
a(S'100001854344874'
S'Suzanne Santiago'
tp353
a(S'100000000914700'
S"Ankita S'inha"
tp354
a(S'1821678194'
S'Stelin Paul'
tp355
a(S'753608209'
S'Cybill Maria Sabu'
tp356
a(S'100003033063959'
S'Aakash Singh'
tp357
a(S'100001647756473'
S'Vijay Kaushik'
tp358
a(S'1198515372'
S'Nidhi Goel'
tp359
a(S'100004673232847'
S'Pakhi Bajpai'
tp360
a(S'100002303531848'
S'Neha Sharma'
tp361
a(S'100001915598228'
S'Kevin Varghese'
tp362
a(S'100001905783606'
S'Deepak Dabral'
tp363
a(S'1168756435'
S'Aakash Nain'
tp364
a(S'100002426070431'
S'\\u0160\\u00e2m\\u00ea\\u00ea\\u0159 Kh\\u00e2\\u0148'
tp365
a(S'100001499332751'
S'Roli Jain'
tp366
a(S'100001001623991'
S'Kabyashree Sonowal'
tp367
a(S'100002112717801'
S'Jimmy Joseph'
tp368
a(S'100003693284527'
S'Theresa John Mangalath'
tp369
a(S'100007690300098'
S'Mohanbir Singh Dang'
tp370
a(S'565166260'
S'Suyash Gabriel'
tp371
a(S'716401582'
S'Rajas Saroy'
tp372
a(S'100003089246395'
S'Vaidehi Singh'
tp373
a(S'100004982344343'
S'Parth Gairola'
tp374
a(S'100006289052020'
S'Ankit Sheokand'
tp375
a(S'100003848610237'
S'Sanchit Katiyar'
tp376
a(S'100003126378726'
S'\\u0126\\u012fm\\u00e2nshu S\\u012fngh B\\u00e0gh\\u0113l'
tp377
a(S'100001063677102'
S'Sukrit Joshi'
tp378
a(S'1672677132'
S'Annu Malhotra'
tp379
a(S'100000278045946'
S'Aditya Shailaj'
tp380
a(S'100002942527926'
S'Owais Farooq'
tp381
a(S'100005040572751'
S'Sandeep Ferrow'
tp382
a(S'1311944544'
S'Avleen Sahni'
tp383
a(S'100000929002125'
S'Maitreyee Rudola'
tp384
a(S'1830608871'
S'Anuradha Ashok'
tp385
a(S'1837775293'
S'Sajjan Khan'
tp386
a(S'100002258654820'
S'Inder Preet'
tp387
a(S'100001257186290'
S'Shambhavi Bundela'
tp388
a(S'100000102438674'
S'Roshni Varghese'
tp389
a(S'636545858'
S'Tanay M. Shah'
tp390
a(S'100003112140100'
S'Ankur Singh Baghel'
tp391
a(S'100003670816812'
S'Swati Nigam'
tp392
a(S'100006273962590'
S'Abhinav Tripathi'
tp393
a(S'100003206933869'
S'Sheron Rai'
tp394
a(S'100004511731247'
S'Aditya Raj Gaur'
tp395
a(S'100003474253270'
S'Pragati Malhotra'
tp396
a(S'100002607939262'
S'Apoorva Pandey'
tp397
a(S'100005898095361'
S'Sonal Maroo'
tp398
a(S'703485889'
S'Nishant Sharma'
tp399
a(S'100006488597870'
S'Pooja Singh'
tp400
a(S'100007071336178'
S'Sonam Agarwal'
tp401
a(S'100000294935266'
S'Ashish Philip'
tp402
a(S'100004654147923'
S'Vineet Pandey'
tp403
a(S'100008079061396'
S'Pratita Singh'
tp404
a(S'100003941929312'
S'Rosemary Thomas'
tp405
a(S'100004324620460'
S'Zainab Nawab'
tp406
a(S'100006842013679'
S'Tanya Sharma'
tp407
a(S'1051616961'
S'Jaan Sharma Pathak'
tp408
a(S'100003854314906'
S'Prateek Mishra'
tp409
a(S'100000517955631'
S'Alice Paskin'
tp410
a(S'1558124023'
S'Susan Mammen'
tp411
a(S'100003984161149'
S'Wiicked Oone'
tp412
a(S'100001814954513'
S'Q\\u00fc\\u00e9\\u00e8\\u00f1x Tanny'
tp413
a(S'100001314835464'
S'Sonal Badgaiyan'
tp414
a(S'1471124070'
S'Mochak Soni'
tp415
a(S'100000239718510'
S'Upasika Ghosh'
tp416
a(S'100006229989255'
S'Kritika Singh'
tp417
a(S'1632404325'
S'Shannon Sequeira'
tp418
a(S'100001784435705'
S'Mohammed Nadir'
tp419
a(S'1174913204'
S'Varsha Varghese'
tp420
a(S'100007398602588'
S'Juby John'
tp421
a(S'100002030905037'
S'Ajay Jaiswal'
tp422
a(S'100002072261822'
S'Anita Gemmy'
tp423
a(S'807255337'
S'Tanvi Barua'
tp424
a(S'100005050994230'
S'Ravi Gupta'
tp425
a(S'100005070991834'
S'Sneha A Gupta'
tp426
a(S'674663932'
S'Aishwarya Visweswaran Iyer'
tp427
a(S'100002466521099'
S'Justrus Mathew'
tp428
a(S'100005500360923'
S'Madhurima Sen'
tp429
a(S'100001360141737'
S'Sujit Scaria'
tp430
a(S'1844001036'
S'Mohammad Imran'
tp431
a(S'1292891398'
S'Imairaa Adlakha'
tp432
a(S'1823501763'
S'Mihir Verma'
tp433
a(S'1252741009'
S'Saloni Goel'
tp434
a(S'100000519414510'
S'Ani Samuel'
tp435
a(S'100002517710345'
S'Sudhanshu Kamal'
tp436
a(S'100008083749174'
S'Jose Edenilson'
tp437
a(S'100000601214455'
S'Tony Alex'
tp438
a(S'629198438'
S'Prince Samuel'
tp439
a(S'100002439950400'
S'Avantika Paul'
tp440
a(S'100000519587260'
S'Piyush Khattar'
tp441
a(S'100006817267890'
S'Nikhil Pathak'
tp442
a(S'100005875744053'
S'Iana Urfi'
tp443
a(S'100001212025020'
S'Shiraj Shrivastava'
tp444
a(S'100003559631608'
S'Guddi Jha'
tp445
a(S'100001886092483'
S'Akshay Thomas'
tp446
a(S'100006005980806'
S'Paritosh Gupta'
tp447
a(S'100000605356356'
S'Sugandha Tripathi'
tp448
a(S'100001638532349'
S'Karan Puri'
tp449
a(S'1318749279'
S'Annalisa Mansukhani'
tp450
a(S'100004852290755'
S'Aliena Singh'
tp451
a(S'100003359143638'
S'Raj Kapoor'
tp452
a(S'1107380446'
S'Abi Abraham M'
tp453
a(S'100002056340486'
S'HiManshu MAnu Misra'
tp454
a(S'1369200704'
S'Aashima Jain'
tp455
a(S'1006096447'
S'Tuhina Sinha'
tp456
a(S'100007118741029'
S'Prasoon Tiwari'
tp457
a(S'100004054428586'
S'Ankita Pandey'
tp458
a(S'1059110378'
S'Nidhaanjit Jain'
tp459
a(S'100004689370294'
S'Aisha Kapoor'
tp460
a(S'100001773439743'
S'Garima Duggal'
tp461
a(S'100002421783706'
S'Sneha Kuriakose'
tp462
a(S'1002413866'
S'Khare Ojas'
tp463
a(S'100002611122296'
S'Samuel Thangluai'
tp464
a(S'100002389026942'
S'Mathew Joseph'
tp465
a(S'100001033865395'
S'Saloni Agarwal'
tp466
a(S'100002862079369'
S'Sanchali Gakkhar'
tp467
a(S'100003064206752'
S'Shakti Singh Arya'
tp468
a(S'557905418'
S'Chhayankdhar Singh Rathore'
tp469
a(S'100001640565406'
S'Akash Singh Tiwari'
tp470
a(S'100001262928947'
S'Pulkit Joshi'
tp471
a(S'100002054652024'
S'Riya Sharma'
tp472
a(S'1431891131'
S'Sherry Verma'
tp473
a(S'100003181278312'
S'Gaurav Kumar Dwivedi'
tp474
a(S'597933121'
S'Abel Thayil'
tp475
a(S'100002050548702'
S'Hazuki Yamashita'
tp476
a(S'523600817'
S'Bharat Bajaj Radix'
tp477
a(S'559907988'
S'Vibhav Sinha'
tp478
a(S'100002145891285'
S'Aviral Rathore'
tp479
a(S'100002594005480'
S'Suchismita Panda'
tp480
a(S'100001441192455'
S'Siddarth Ningthouja'
tp481
a(S'100003856254003'
S'Rohan John'
tp482
a(S'100007813171476'
S'\\ufc5e\\ufc5e\\ufc5e\\ufc5e\\ufc5e'
tp483
a(S'100004650938092'
S'Kubra Nazir Baba'
tp484
a(S'100000882056668'
S'Vipul Dwivedi'
tp485
a(S'100005006859451'
S'Priyank Singh'
tp486
a(S'100002443846875'
S'Shown Geo Ninan'
tp487
a(S'100004892912259'
S'Ansh Mishra'
tp488
a(S'100001868957766'
S'Monica Thomas'
tp489
a(S'100005910943610'
S'Megha Reddy'
tp490
a(S'100006252692387'
S'Dinesh Pinto'
tp491
a(S'100001573761428'
S'Saurabh Mishra'
tp492
a(S'100004941819121'
S'Sofia Andrews'
tp493
a(S'100001740197565'
S'Sumit Scaria'
tp494
a(S'100003663829100'
S'Divya Kundu'
tp495
a(S'100001530447108'
S'Geet Jain'
tp496
a(S'100002318048588'
S'Debjit Roy'
tp497
a(S'100002420488147'
S'Shreya Agrawal'
tp498
a(S'100005477978114'
S'Hameed Ammi Bekur'
tp499
a(S'596146831'
S'Karen Grace Soans'
tp500
a(S'100001423100326'
S'Shemin Eliza Shaji'
tp501
a(S'100004945778875'
S'Prerakh Shrivastava'
tp502
a(S'100002078010186'
S'Aparna Mishra'
tp503
a(S'100004214225677'
S'Adamya Tripathi'
tp504
a(S'100000936138579'
S'Sabina Sebastian'
tp505
a(S'100002515389973'
S'Shreya GC Arya'
tp506
a(S'1790164271'
S'Syed Faizan Bukhari'
tp507
a(S'100002406205242'
S'Chandan Chintu'
tp508
a(S'100000356842229'
S'Aashita Pothen'
tp509
a(S'100002957472472'
S'Emy Mathew'
tp510
a(S'501570674'
S'Ishaan Singh'
tp511
a(S'100004899965577'
S'Suyog Mishra'
tp512
a(S'100002654546779'
S'Sameer Shrivastava'
tp513
a(S'543832536'
S'Varun Gupta'
tp514
a(S'100000328707251'
S'Swapnil Singh'
tp515
a(S'100004492234068'
S'Shubham Chaurasia'
tp516
a(S'100006082593771'
S'Aparth Sachan'
tp517
a(S'100000037643074'
S'Arnav Behera'
tp518
a(S'100001443623735'
S'Avichal Mishra'
tp519
a(S'100003917570916'
S'Mohammad Ismat'
tp520
a(S'100004606922397'
S'Dharadhar Dwivedi'
tp521
a(S'100003151085711'
S'Sunny Mishra'
tp522
a(S'100002311779923'
S'Shefali Mishra'
tp523
a(S'100003048250451'
S'Kamal Kumar'
tp524
a(S'809487411'
S'Rebecca Sarah John'
tp525
a(S'100000580698905'
S'Moureena Khokhar'
tp526
a(S'100001247297477'
S'Anoop Singh'
tp527
a(S'100004036252317'
S'Alina Sara Moncy'
tp528
a(S'100002981383548'
S'Elizabeth Parrella Pereira Oliveira'
tp529
a(S'1052958879'
S'Priyanka Cardoz'
tp530
a(S'100006432551426'
S'Amit Pratap'
tp531
a(S'100006829297684'
S'Nijita Mathew'
tp532
a(S'100006496600296'
S'Kopal Kapoor'
tp533
a(S'100006935522494'
S'Saumya Chaturvedi'
tp534
a(S'100001035841883'
S'Aswin Paul'
tp535
a(S'1010125131'
S'Harman Singh'
tp536
a(S'100004999000761'
S'Rahul Sharma'
tp537
a(S'100000403779041'
S'Anany Dubey'
tp538
a(S'100002618266627'
S'Ravinder Gulia'
tp539
a(S'100005415337024'
S'Riya Saswani'
tp540
a(S'100000492595855'
S'Sanhitha Jugulum'
tp541
a(S'1449547944'
S'Anisha Angelina Victor'
tp542
a(S'100003134333265'
S'Amal David'
tp543
a(S'100000851343314'
S'Ludhiya Johnson'
tp544
a(S'100008383840140'
S'Shivani Sharma'
tp545
a(S'100002874033227'
S'Anu Jose'
tp546
a(S'100002315950562'
S'Anushka Shrivastava'
tp547
a(S'733326988'
S'Amal Jahan'
tp548
a(S'100002398734257'
S'Sajji John'
tp549
a(S'100007983420777'
S'Tanya Singh'
tp550
a(S'735158638'
S'Shalin Jose'
tp551
a(S'1022814043'
S'Gayas Eapen'
tp552
a(S'1255777749'
S'Kuldeep Prakash'
tp553
a(S'100003852962002'
S'Jayshree Bhattacharya'
tp554
a(S'100001988937930'
S'Chandrima Attri'
tp555
a(S'100002679478660'
S'Nitesh K. Mahlawat'
tp556
a(S'561607789'
S'Samuel John'
tp557
a(S'100002199250415'
S'Shivam Pandey'
tp558
a(S'1512568459'
S'Shubham Sharma'
tp559
a(S'100002750831971'
S'Suyash Mishra'
tp560
a(S'100003248115814'
S'Salini Johnson'
tp561
a(S'1515990716'
S'Ann Varghese'
tp562
a(S'100002225942234'
S'Kapil Pachauri'
tp563
a(S'100004432482133'
S'Sahil Sangwan'
tp564
a(S'581003110'
S'Ann Susan Aleyas'
tp565
a(S'100004539974567'
S'Sheon John'
tp566
a(S'100003932821511'
S'Anu Augustine'
tp567
a(S'100000718476602'
S'Sheena Taboda'
tp568
a(S'100001171958828'
S'Basit Malik'
tp569
a(S'100002255367830'
S'Julia Elsa Raju'
tp570
a(S'604361905'
S'Akshit Goyal'
tp571
a(S'100000010498308'
S'Saif Rashid'
tp572
a(S'548344709'
S'Raghav Dahuja'
tp573
a(S'100004292351334'
S'Rashi Singh'
tp574
a(S'1294314908'
S'Michelle Nathaniel'
tp575
a(S'100004791462268'
S'Dhiru Yadav'
tp576
a(S'1321244392'
S'Aranya Sahay'
tp577
a(S'100005767333028'
S'Mohit Kumar'
tp578
a(S'100001036971945'
S'Merin Jose'
tp579
a(S'710821765'
S'Aflaq Ahmad'
tp580
a(S'100001394916839'
S'Nishchaiy Suri'
tp581
a(S'100000615843010'
S'Gulshan Dhanani'
tp582
a(S'1145168822'
S'Manisha Pant'
tp583
a(S'100000547155528'
S'Abison Scaria'
tp584
a(S'1622719748'
S'Chintal Manek'
tp585
a(S'1610187425'
S'Grusha Grace Victor'
tp586
a(S'100002935686759'
S'Bhupender Rathee'
tp587
a(S'1735735603'
S'Sangbarta Chakraborty'
tp588
a(S'100001040621014'
S'Abhimanyu Dhanda'
tp589
a(S'100000577496984'
S'Prashant Paul'
tp590
a(S'100002902749268'
S'Kartik Gautam'
tp591
a(S'100000790459061'
S'Akash Hotwani'
tp592
a(S'100002403864661'
S'Sheon John'
tp593
a(S'100002260215655'
S'Abhishek Deshwal'
tp594
a(S'100004586643931'
S'Kanchan Nigam'
tp595
a(S'100000462738327'
S'Krishan Bishnoi'
tp596
a(S'100003227652230'
S'Devendra Singh Tomar'
tp597
a(S'100000973270440'
S'Kapil Birthare'
tp598
a(S'620450194'
S'Jonathon Engelien'
tp599
a(S'100002166904157'
S'Anubhav Sengar'
tp600
a(S'100002666054817'
S'Mohit Kumar Tripathi'
tp601
a(S'100007957265290'
S'Swarali Singh'
tp602
a(S'1127225084'
S'Camilla Ann Lyndem'
tp603
a(S'100003292586742'
S'Abhinav Singh'
tp604
a(S'100004491194491'
S'Ankitsingh Bhadoriya'
tp605
a(S'100003284507688'
S'Sukrita Deb'
tp606
a(S'100002238214890'
S'Deepali Shukla'
tp607
a(S'565376539'
S'Rakhi Thareja'
tp608
a(S'100002507078563'
S'Palak Agarwal'
tp609
a(S'100003470451591'
S'Alka Patel'
tp610
a(S'100000463339756'
S'Poddar Gaurav'
tp611
a(S'100000622956548'
S'Gagan Mahajan'
tp612
a(S'100002337492570'
S'Sameer Akhtar'
tp613
a(S'100005224382574'
S'Anushka Goel'
tp614
a(S'1365445969'
S'Neerpriya Bakshi'
tp615
a(S'100001741393867'
S'Snehal Toppo'
tp616
a(S'100000153820553'
S'Mayank Sharma'
tp617
a(S'100001948481946'
S'Anamay Pandey'
tp618
a(S'1814506762'
S'Nandil Bhatia'
tp619
a(S'100006484982593'
S'Ananya Mishra'
tp620
a(S'100003112703581'
S'Mesmerizing Merin'
tp621
a(S'100000162397751'
S'Yash Panjrath'
tp622
a(S'100002938145622'
S'Gyan Pratap Singh Chauhan'
tp623
a(S'756639421'
S'Tara Sami Dutt'
tp624
a(S'100002980021328'
S'Rishabh Khare'
tp625
a(S'1163114612'
S'Avinash Mathews'
tp626
a(S'100004069112503'
S'Pallavi Bajpai'
tp627
a(S'100006265754239'
S'Sonal Singh'
tp628
a(S'829334355'
S'Shreya Sinha'
tp629
a(S'100001332245560'
S'Ifra Jan'
tp630
a(S'100002558742826'
S'Shubodh Shukla'
tp631
a(S'1624092635'
S'Akash Verma'
tp632
a(S'100004695001965'
S'Ganesh Pratap Singh'
tp633
a(S'100004220857878'
S'Rahul Kahler'
tp634
a(S'100008163637556'
S'Chiggly Wiggly'
tp635
a(S'100006783098144'
S'Saborni Saha'
tp636
a(S'1074234383'
S'Shayeree Chakraborty'
tp637
a(S'714880499'
S'Jaggi Malu'
tp638
a(S'100002221932331'
S'Abhishek Mishra'
tp639
a(S'1125994244'
S'Pranav Gupta'
tp640
a(S'100002634920645'
S'Gaurav Kumar Jaiswal'
tp641
a(S'100000446154387'
S'Aayush Banerjee'
tp642
a(S'100001813786619'
S'Vishvender Dahiya'
tp643
a(S'601914458'
S'Samira Bose'
tp644
a(S'100000646690464'
S'Deepto Mozumdar'
tp645
a(S'100003870634291'
S'Iven Mathew'
tp646
a(S'1788617653'
S'Prateek Rawat'
tp647
a(S'100003200517263'
S'Akanksha Singh Baghel'
tp648
a(S'100004256705596'
S'Shown Ninan Geo'
tp649
a(S'100004183801038'
S'Ron Mathew'
tp650
a(S'100003658105237'
S'Rupali Rati'
tp651
a(S'100000723349243'
S'Pranjay Vaidya'
tp652
a(S'100003103399644'
S'Shown Geo Ninan'
tp653
a(S'100003828734614'
S'Janet Joy'
tp654
a(S'100000547767169'
S'Madhulika Rajawat'
tp655
a(S'100000679358869'
S'Nikit Agarwal'
tp656
a(S'100003928261609'
S'Rahul Rock'
tp657
a(S'100003936184236'
S'Meenu Pandey'
tp658
a(S'639343096'
S'Kevin Samuel Vineeth'
tp659
a(S'100001383938048'
S'Rinu George'
tp660
a(S'100006410076288'
S'Diksha Goyal'
tp661
a(S'100000366311965'
S'Blesson Mathew'
tp662
a(S'511483794'
S'Ahona Palchoudhuri'
tp663
a(S'100001071388267'
S'Arjun Babu Nellikkattil'
tp664
a(S'100001376103962'
S'Joel Cornelius'
tp665
a(S'534389427'
S'Risheek Raj Srivastava'
tp666
a(S'1526994778'
S'Nishant Stephen'
tp667
a(S'745985817'
S'Ashish Joseph'
tp668
a(S'100002603157900'
S'Akshay Vedanti'
tp669
a(S'1615018224'
S'Mahasweta Bagchi'
tp670
a(S'100003810683351'
S'Mehvish Rather'
tp671
a(S'100005612827250'
S'Anju Varghese'
tp672
a(S'100002220884432'
S'Arushi Jain'
tp673
a(S'100002212971613'
S'Akshaya Ann'
tp674
a(S'1524765835'
S'Sameer Gardner'
tp675
a(S'100002734546767'
S'Somya Ohri'
tp676
a(S'100001286338202'
S'Shubham Payasi'
tp677
a(S'100005772249043'
S'Pratishtha Mamgain'
tp678
a(S'100002426537038'
S'Prafull Patel'
tp679
a(S'100002939580065'
S'Paul Varghese'
tp680
a(S'100003855205547'
S'Ankit Kumar'
tp681
a(S'100003192921406'
S'Shayantani Das'
tp682
a(S'1668459153'
S'Roy Joseph'
tp683
a(S'100000435949405'
S'Amol Singh Patel'
tp684
a(S'100005547731926'
S'Richa Saswani'
tp685
a(S'100000764970550'
S'Sukriti Bhardwaj'
tp686
a(S'100008013782311'
S'Nivedita Patel'
tp687
a(S'100000995525587'
S'Deepak Varghese'
tp688
a(S'100002447875083'
S'Sandali Tiwari'
tp689
a(S'100003218589247'
p690
S'Shankar Dhiman'
tp691
a(S'100002031636373'
S'Tarun Kateja'
tp692
a(S'100003026429137'
S'Subrat Meher'
tp693
a(S'100000951548398'
S'Minal Karanwal'
tp694
a(S'100005835030084'
S'Shubham Kaushik'
tp695
a(S'100004376592563'
S'Amit Chaubey'
tp696
a(S'100003548137076'
S'\\u00c1\\u00f1gry B\\u00f3y Pr\\u00edy\\u00e1\\u00f1k'
tp697
a(S'100008015586220'
S'Ridhika Sain'
tp698
a(S'693635257'
S'Tarun Verghese'
tp699
a(S'1379120774'
S'Shounak Morris'
tp700
a(S'100000771765519'
S'Mahroosh Banday'
tp701
a(S'100001141685752'
S'Sana Aziz'
tp702
a(S'803745827'
S'Avnika Jain'
tp703
a(S'100000157846132'
S'Sharu Jose'
tp704
a(S'100000099091112'
S'Rohan Thomas'
tp705
a(S'100000948904026'
S'Soorya James'
tp706
a(S'100004602160180'
S'Harshit Arora'
tp707
a(S'1449146414'
S'Pulkit Aggarwal'
tp708
a(S'100000886000024'
S'Rajesh K Dubey'
tp709
a(S'100002695870234'
S'Shivam Tripathi'
tp710
a(S'1487946579'
S'Zaki Hasan'
tp711
a(S'100004026468345'
S'Shailendra Pandey'
tp712
a(S'100006798151804'
S'Akash Chaurasia'
tp713
a(S'100003218683716'
S'Shakshi Dubey'
tp714
a(S'1806463344'
S'Namrata Dutta Mazumdar'
tp715
a(S'100002281003977'
S'Pragya Rastogi'
tp716
a(S'1600123318'
S'Romil Rathi'
tp717
a(S'1201299484'
S'Sudhir Pratap Singh Charan'
tp718
a(S'100002749669923'
S'Sumit Pratap Singh'
tp719
a(S'667209688'
S'Satender Singh Vijayran'
tp720
a(S'100005862612158'
S'Rajji John'
tp721
a(S'688466369'
S'Vani Zany Valson'
tp722
a(S'1797897715'
S'Yuvraj Francis'
tp723
a(S'100003159820748'
S'Kshipra Pal'
tp724
a(S'100000560860183'
S'Mahidhar Dwivedi'
tp725
a(S'1801430121'
S'Merin J Komban'
tp726
a(S'100002520497588'
S'Akash Nigam'
tp727
a(S'100001645321139'
S'Jitesh Pillai'
tp728
a(S'591672152'
S'Anmol Somanchi'
tp729
a(S'100003863899085'
S'Anurag Dubey'
tp730
a(S'1704108955'
S'Rashika Gupta'
tp731
a(S'100003398556533'
S'Prasoon Tiwari'
tp732
a(S'100001796002732'
S'Nikita Nagpal'
tp733
a(S'100002020104286'
S'Aakriti Batra'
tp734
a(S'100001093637987'
S'Maitraiyee Tiwari'
tp735
a(S'100000628023328'
S'Alan Thomas'
tp736
a(S'100000783628794'
S'Nishant Shrivastava'
tp737
a(S'659527901'
S'John Koshy'
tp738
a(S'100002400151497'
S'Stuti Sarah Lall'
tp739
a(S'100004043714572'
S'Jessy Rajan'
tp740
a(S'100006315491615'
S'Mugdha Kiran'
tp741
a(S'1297493288'
S'Ishita Mathur'
tp742
a(S'100006225663583'
S'Om Dwivedi'
tp743
a(S'100002668160889'
S'Sijo Abraham'
tp744
a(S'100003461626260'
p745
S'Motaram Jaat'
tp746
a(S'100001695788978'
S'Pooja Khare'
tp747
a(S'1337460254'
S'Mitali Poovayya'
tp748
a(S'100007880766931'
S'Basterd Boy Golu'
tp749
a(S'100002008087217'
S'Sukanya Samal'
tp750
a(S'1348504075'
S'Benoy Stephen'
tp751
a(S'100008339881298'
S'Asif Javed'
tp752
a(S'100000045652066'
S'Sonali Verma'
tp753
a(S'100001816047972'
S'Abhinav Baruah'
tp754
a(S'1090240408'
S'Lauren Robinson'
tp755
a(S'1714611101'
S'Carl Jaison'
tp756
a(S'1098277623'
S'Manpreet Kaur'
tp757
a(S'100001747923758'
S'Rajji John'
tp758
a(S'100002575588096'
S'Jaideep Pandey'
tp759
a(S'100000016013437'
S'Ipshita Kumar'
tp760
a(S'100002276583981'
S'Ananya Tripathi'
tp761
a(S'100002398765807'
S'Jasmine Kaur Bhatia'
tp762
a(S'100001740771789'
S'Tahir J Wani'
tp763
a(S'100007686454882'
S'Abigail Varghese'
tp764
a(S'100001228494189'
S'Milen Mathew John'
tp765
a(S'1784875826'
S'Aniket Baksy'
tp766
a(S'100001596654973'
S'Harsh Vardhan Singh'
tp767
a(S'1272411129'
S'Jigyasu Tiwari'
tp768
a(S'100000061376408'
S'Mathew Johnson'
tp769
a(S'100002572389930'
S'Dipesh Kapil'
tp770
a(S'100002145716571'
S'Shikha Pai'
tp771
a(S'100006705185735'
S'Princeschel Precious Gilbaliga'
tp772
a(S'100002519138536'
S'Joveine Jonnis'
tp773
a(S'100000823853215'
S'Mayank Mishra'
tp774
a(S'100001492402770'
S'Adhiraj Sharma'
tp775
a(S'100005633013511'
S'Samira Sarah Abraham'
tp776
a(S'100008123534129'
S'Aahna Singhania'
tp777
a(S'100001077347842'
S'Drishya Mathew'
tp778
a(S'1403252199'
S'Aditi Ramchandra'
tp779
a(S'1491499430'
S'Ak Tho'
tp780
a(S'548864788'
S'Aradhana Gupta'
tp781
a(S'100001908553219'
S'Zubin Mathew'
tp782
a(S'596703346'
S'Karishma Abigail Jayapaul'
tp783
a(S'100001503233448'
S'Devansh Mehta'
tp784
a(S'100001075924110'
S'Victoria Anthony Gomes'
tp785
a(S'514924420'
S'Pooja Lalwani'
tp786
a(S'100000438791544'
S'Sumedh Sinha'
tp787
a(S'100004751733941'
S'Sneha Thakur Rewa'
tp788
a(S'610626907'
S'Soven Trehan'
tp789
a(S'100003083212702'
S'Priyanshu Gupta'
tp790
a(S'714693797'
S'Pooja Khosla'
tp791
a(S'100001547805673'
S'Abhishek Singh Chauhan'
tp792
a(S'100003560407672'
S'Shubhi Singh Gaharwar'
tp793
a(S'100002063255184'
S'Manika Tomar'
tp794
a(S'100000569847370'
S'Devpriya Chauhan'
tp795
a(S'100002966317315'
S'Piyush Gupta'
tp796
a(S'100001396488139'
S'Amit Upadhyay'
tp797
a(S'544160105'
S'Sherry Mathews'
tp798
a(S'1759617989'
S'Ishadrita Lahiri'
tp799
a(S'100002166744368'
S'Shrutkirti Singh Parihar'
tp800
a(S'100000011667195'
S'Candace Andrew'
tp801
a(S'100003776360576'
S'Latika Singh'
tp802
a(S'100005089122197'
S'Sandali Tiwari'
tp803
a(S'100006055389892'
S'IRain India'
tp804
a(S'100002305238225'
S'Ditto Abraham'
tp805
a(S'100000169334300'
S'Jayant Istefanus Dharamjit'
tp806
a(S'100002634946420'
S'Ashish Dwivedi'
tp807
a(S'834157578'
S'Zach Holloway'
tp808
a(S'100002076537628'
S'Megha Singh Rana'
tp809
a(S'100002644961328'
S'Adnan Farooq'
tp810
a(S'100002331650609'
S'Heikrujam Prasanjeet'
tp811
a(S'1385237822'
S'Gregory George'
tp812
a(S'100001078555622'
S'Patel Anchala'
tp813
a(S'100000562110912'
S'Manish Tiwari'
tp814
a(S'100002267574741'
S'Surya P S Baghel'
tp815
a(S'100002068461202'
S'Abin Joy'
tp816
a(S'100006802269532'
S'Kshipra Dwivedi'
tp817
a(S'1019804907'
S'Mrittunjoy Guha Majumdar'
tp818
a(S'100002046072105'
S'Laxon Xavier'
tp819
a(S'1733185673'
S'Kamlesh Kumar Patel'
tp820
a(S'100003958593364'
S'Peunika Marwaha'
tp821
a(S'100001295873108'
S'Monica Chawla'
tp822
a(S'100004993664381'
S'Naresh Kumar'
tp823
a(S'524086785'
S'Arkaj Kumar'
tp824
a(S'100002184589605'
S'Amber Pandey'
tp825
a(S'1283068259'
S'Jerrin George'
tp826
a(S'1066263838'
S'Pallavi George'
tp827
a(S'769483746'
S'Sanju Abraham'
tp828
a(S'100001009522276'
S'Sarah James'
tp829
a(S'100000934188551'
S'Varunesh Chandra'
tp830
a(S'651481345'
S'Leeza Abraham'
tp831
a(S'711004992'
S'Rahul Sharma'
tp832
a(S'626396535'
S'Adya Rajkotia Luthra'
tp833
a(S'1532355892'
S'Samuel Augustin'
tp834
a(S'100003113714584'
S'Deepak Patel'
tp835
a(S'100002749230661'
S'Ayushi Agnihotri'
tp836
a(S'1015741910'
S'Ankit Sharma'
tp837
a(S'100000230714154'
S'Shreya Jain'
tp838
a(S'100000181311663'
S'Shifali Pandey'
tp839
a(S'100000068360327'
S'Mahima Singh'
tp840
a(S'100006034746978'
S'Saumya Phor'
tp841
a(S'100001387526215'
S'Hemant Mishra'
tp842
a(S'100004284734375'
S'Khushi Singh'
tp843
a(S'651952787'
S'Utkarsh Kumar'
tp844
a(S'100007734580022'
S'Priyank Rawat'
tp845
a(S'668523365'
S'Ashley Np'
tp846
a(S'100001495886764'
S'Ankita Gupta'
tp847
a(S'1213910048'
S'Sherin James'
tp848
a(S'100001428010349'
S'Nanakey Kalra'
tp849
a(S'513363554'
S'Avantika Viswanathan'
tp850
a(S'1027856097'
S'Shasti Jain'
tp851
a(S'521552725'
S'Smita Narayan'
tp852
a(S'100003155387578'
S'DevaShish Roy'
tp853
a(S'100001136621587'
S'Henry Singsit'
tp854
a(S'100000607724519'
S'Prachi Shukla'
tp855
a(S'1153494172'
S'Pranav Bhorkar'
tp856
a(S'100003739889260'
S'Komal Toppo'
tp857
a(S'100001771209088'
S'Alisha Roy'
tp858
a(S'100001554936250'
S'Shelin Saira Shaji'
tp859
a(S'100001358201027'
S'Shalin Jethwani'
tp860
a(S'100004006777373'
S'Khushi Singh'
tp861
a(S'1348400467'
S'Srishti Saini'
tp862
a(S'100000609898245'
S'Mazhiini Rachel M'
tp863
a(S'100007614519905'
S'Sandeep Bindra'
tp864
a(S'100002193307242'
S'Sakshi Dubey'
tp865
a(S'100003281226213'
S'Prateek Gupta'
tp866
a(S'1148668236'
S'Chetan Chawla'
tp867
a(S'100001595454525'
S'Silpa Mariya'
tp868
a(S'1282272819'
S'Khyati Ajmera'
tp869
a(S'796520108'
S'Priyanka Dass Saharia'
tp870
a(S'100004455846496'
S'Rajan Baghel'
tp871
a(S'100003254803169'
S'Shiraj Shrivastava'
tp872
a(S'100001579365640'
S'Amandeep Baweja'
tp873
a(S'100002446644691'
S'Jisha Mathews'
tp874
a(S'1223745391'
S'Divya Joseph'
tp875
a(S'1063787150'
S'Amitrajeet Mukherjee'
tp876
a(S'100002862914939'
S'Muhammed Seena Sulthan'
tp877
a(S'100004030563823'
S'Shivendra Singh'
tp878
a(S'100002394843135'
S'Harshit Shrivastava'
tp879
asS'id'
p880
S'100004350031614'
p881
sS'name'
p882
S'Robin John'
p883
s.