(dp1
S'friends'
p2
(lp3
(S'100004210811040'
S'Kumar Naksha'
tp4
a(S'100006542281291'
S'Ranjan Kumar'
tp5
a(S'100004608660577'
S'Linkan Kumar'
tp6
a(S'100003467859644'
S'Rahul Doifode'
tp7
a(S'100006287621896'
S'Ankita Agarwal'
tp8
a(S'100002868638786'
S'Nikhil Kumar Singh'
tp9
a(S'100002734546005'
S'Anand Chaudhary'
tp10
a(S'100003706787784'
S'Rohan Kumar'
tp11
a(S'100005483234466'
S'Naina Maheshwari'
tp12
a(S'100003504382263'
S'Manish Chouhan'
tp13
a(S'100003210491133'
S'Niraj Kumar Sharma'
tp14
a(S'100001765868713'
S'Rahul Singh'
tp15
a(S'100006459462676'
S'Ritu Ranjana'
tp16
a(S'100004687389668'
S'Sonaly Kumari'
tp17
a(S'100001784270318'
S'Bijendra Kumar Singh'
tp18
a(S'100003887803185'
S'Ayodhya Prasad Mahato'
tp19
a(S'100001037839869'
S'Sunny Kumar'
tp20
a(S'100007629901838'
S'Garima Jain'
tp21
a(S'100004832647579'
S'Siwangi Mishra'
tp22
a(S'100004414093882'
S'Pari Hon Na'
tp23
a(S'100003209806648'
S'Vinay Kumar'
tp24
a(S'100006334084826'
S'Ankit Arya'
tp25
a(S'100004593704038'
S'Arvind Kumar Prasad'
tp26
a(S'100004461394164'
S'Monu Kumar'
tp27
a(S'100006292440289'
S'Alisha Malhotra'
tp28
a(S'100006071713199'
S'Sweta Raj'
tp29
a(S'100007236369120'
S'Ajibola Akintomiwa'
tp30
a(S'100002455912182'
S'Kamlesh Kumar'
tp31
a(S'100001113163061'
S'Sonu Singh'
tp32
a(S'100001880017703'
S"Me\\u0131\\u0131'wah\\u0131\\u0131-Hu J\\u0131\\u0131se-Dekhkar'ter\\u0131\\u0131 Behe\\u014b-sm\\u0131\\u0131le'Det\\u0131\\u0131 Ha\\u0131\\u0131"
tp33
a(S'100004164360590'
S'Simran Rajput'
tp34
a(S'100002252168216'
S'Subir Das'
tp35
a(S'100003137122945'
S'Saroj Kumar'
tp36
a(S'100003598098205'
S'Vikram Choudhary'
tp37
a(S'100008336255890'
S'Jitendra Kumar Yadav'
tp38
a(S'100003344320451'
S'Neeraj Prajapati'
tp39
a(S'100003168227221'
S'Govind Kumar'
tp40
a(S'100003187996633'
S'Guddu Kumar'
tp41
a(S'100003490562685'
S'Siddharth Choudhary'
tp42
a(S'100004366231037'
S'Surendra Kumar'
tp43
a(S'100004240986121'
S'Laaiba Jahan'
tp44
a(S'100003786576996'
S'Kumar Rajesh'
tp45
a(S'100006452844714'
S'Neha Agarwal'
tp46
a(S'100003239353978'
S'Sivangi Singh'
tp47
a(S'100003188596759'
S'Kundan Raj Raj'
tp48
a(S'100004751044880'
S'Govinda Babu'
tp49
a(S'100004482073841'
S'Rajesh Kumar'
tp50
a(S'100003503542244'
S'Anuska Kumari'
tp51
a(S'100004287812233'
S'Satyam Kumar'
tp52
a(S'100003146847547'
S'Premranjan Kumar'
tp53
a(S'100003871095277'
S'Rahul Kumar'
tp54
a(S'100002847120955'
S'Chanchal Kushwaha'
tp55
a(S'100001706521585'
S'Swazal Williams'
tp56
a(S'100004724203235'
S'Ajit Singh'
tp57
a(S'100005126651846'
S'Rashpal Singh'
tp58
a(S'100003274004856'
S'Himanshu Prasad'
tp59
a(S'100003071055323'
S'Rahul Rai'
tp60
a(S'100003013326462'
S'Raj Roy'
tp61
a(S'100001690932122'
S'Ravi Ranjan Vikrant'
tp62
a(S'100004207686524'
S'Santosh Chaudhary'
tp63
a(S'100002671724897'
S'Binay Shankar'
tp64
a(S'100003232840742'
S'Manish Kumar Mishra'
tp65
a(S'100008253464670'
S'Dikshita Kashyap'
tp66
a(S'100002690854922'
S'Pravesh Kumar Pandit'
tp67
a(S'100002719831347'
S'Shubham Poddar'
tp68
a(S'100001923111956'
S'Nisha Sharma'
tp69
a(S'100004316402312'
S'Gunjan Singh'
tp70
a(S'100002422969796'
S'Devesh Arya'
tp71
a(S'100004735322692'
S'Abhilasa Gupta'
tp72
a(S'100000141389325'
S'Sandeep Sharma'
tp73
a(S'100005708070992'
S'Rohit Kumar'
tp74
a(S'100003171730397'
S'Sumit Singh Baghel'
tp75
a(S'100007408267569'
S'Nisha Kumari'
tp76
a(S'100003686251013'
S'Ravi Shankar Mishra'
tp77
a(S'100000829174466'
S'Pritam Prit Saha'
tp78
a(S'100002547609655'
S'Neha Kumari'
tp79
a(S'100004562134804'
S'Ankit Patel'
tp80
a(S'100002056674296'
S'Monu Singh'
tp81
a(S'100004714081294'
S'Raj Patel'
tp82
a(S'100001486652503'
S'Vivek Patel'
tp83
a(S'100003610660729'
S'Sunny Deathbycrushing'
tp84
a(S'100003252219429'
S'Munna Kumar'
tp85
a(S'100001405460844'
S'Maqsood Jhatial'
tp86
a(S'100004153843038'
S'Binod Kumar'
tp87
a(S'100003034611921'
S'Ranvirpratap Singh'
tp88
a(S'100003372464406'
S'Deep Narayan'
tp89
a(S'100008185842914'
S'Rani Tiwari'
tp90
a(S'100003355032028'
S'Manoj Choudhury'
tp91
a(S'100004240385120'
S'Kajal Agrawal'
tp92
a(S'100004176188840'
S'Sejal Singh'
tp93
a(S'100003245493866'
S'Prashant Shankar'
tp94
a(S'100003275836748'
S'Naveen Hembrom'
tp95
a(S'100003960597067'
S'Vinay Chauhan'
tp96
a(S'100000331579205'
S'Amna Ali Mughal'
tp97
a(S'100004180694066'
S'Lalit Tyagi'
tp98
a(S'100004567392155'
S'Nitesh Raj'
tp99
a(S'100003046325278'
S'Amit Kumar'
tp100
a(S'100002686316671'
S'Suraj Singh'
tp101
a(S'100002852044561'
S'Pravin Kumar'
tp102
a(S'100001616348374'
S'Anindya Datta'
tp103
asS'id'
p104
S'100003923197012'
p105
sS'name'
p106
S'Vikash Kumar'
p107
s.