(dp1
S'friends'
p2
(lp3
(S'1120351261'
S'Liviana Loreti'
tp4
a(S'100000672161914'
S'Claudia Erlinger'
tp5
a(S'100000795066646'
S'Angie Rangel'
tp6
a(S'1672936095'
S'Ximena Montalvan'
tp7
a(S'100000347495528'
S'Monster Worlds'
tp8
a(S'100000299999160'
S'Morgana Rodriguez'
tp9
a(S'100001656804225'
S'Ton Jok'
tp10
a(S'100000606401852'
S'Mauro Bigdog'
tp11
a(S'100002855184614'
S'Michael Prochaska'
tp12
a(S'100000050608357'
S'Sofia Rojas Ca\\u00f1ete'
tp13
a(S'100004425789464'
S'Francesca Estefania Martinez Jorquera'
tp14
a(S'100004043546082'
S'Abcj MonsterWprld'
tp15
a(S'1388923008'
S'Juste Lauwns'
tp16
a(S'685702959'
S'Jane Wong'
tp17
a(S'100000001520131'
S'Milena Rizzon'
tp18
a(S'1088924231'
S'Antonella Celi'
tp19
a(S'100002595945592'
S'Juh Cassimiro Ferreira'
tp20
a(S'100003904068367'
S'Jenny Spielt'
tp21
a(S'100000839052046'
S'Daniel Lannes'
tp22
a(S'100000694377825'
S'Ilginch Zekerieva'
tp23
a(S'100000584177770'
S'Lie Pin Pin'
tp24
a(S'100000818817846'
S'Carina Gon\\u00e7alves'
tp25
a(S'100000338120753'
S'Makena la Gabiota'
tp26
a(S'100000247209464'
S'Maria Lupita'
tp27
a(S'1671693841'
S'Pearl Michelle'
tp28
a(S'100000247683029'
S'Ione Gon\\u00e7alves'
tp29
a(S'100000671880437'
S'Evelyne Poisson'
tp30
a(S'100003206091000'
S'Monella Tremenda'
tp31
a(S'100003105906094'
S'Loco Lope'
tp32
a(S'100004049238680'
S'Lucas Flavio'
tp33
a(S'100002044528707'
S'Zenek \\u015amietana'
tp34
a(S'1601236192'
S'Vale Salas'
tp35
a(S'100003903605873'
S'Pika Lakatosz'
tp36
a(S'100000449793820'
S'Suniya Dureed'
tp37
a(S'1430460337'
S'Chris Bristowe'
tp38
a(S'100000652286228'
S'Joel Espinoza'
tp39
a(S'100000150315741'
S'Kenneth Romeo Stephano'
tp40
a(S'1148157272'
S'Pascale En Peter'
tp41
a(S'100000534284811'
S'Mairim Gonzalez'
tp42
a(S'1494782486'
S'Havva Serdaro\\u011flu'
tp43
a(S'1155797859'
S'Maisarah JamLi'
tp44
a(S'100000750781997'
S'Nikita Barroso'
tp45
a(S'100003629738893'
S'Kleintje Mathijs'
tp46
a(S'1129178926'
S'Su Ene'
tp47
a(S'1343058485'
S'Orlando Antonio Noriega L\\u00f3pez'
tp48
a(S'100000828832132'
S'Rita Maggi'
tp49
a(S'729088396'
S'Filiz Dogan'
tp50
a(S'100002267506651'
S'Talerng Chatwanichkul'
tp51
a(S'100004335184861'
S'Gustavo Fernandes Da Silva Semo\\u00e7as'
tp52
a(S'1624930122'
S'Hola Gente'
tp53
a(S'100002181624472'
S'Menin\\u00e3o Silva'
tp54
a(S'100001557596771'
S'Anna Iksi\\u0144ska'
tp55
a(S'100000451868645'
S"Marinella D'errico"
tp56
a(S'100001765261184'
S'Maha Idresy'
tp57
a(S'100003355231248'
S'Maria Salvador'
tp58
a(S'100002859854802'
S'Roberto Aimone Betinho'
tp59
a(S'100004272963281'
p60
S'G\\u00fcl G\\u00fcl\\u00fcm'
tp61
a(S'100001667024736'
S'Anderson Marcel'
tp62
a(S'100004171265447'
S'Benilde Cardozo Lucas'
tp63
a(S'1420028077'
S'Jorge Alberto Flores Vasquez'
tp64
a(S'100000371013823'
S'Wiola Wasilewska'
tp65
a(S'1278962489'
S'Vahide Avdyli'
tp66
a(S'100001720596706'
S'Ingeborg Pamminger'
tp67
a(S'100000587220772'
S'Darko Bozic'
tp68
a(S'1800423994'
S'Paolo Parenti'
tp69
a(S'100001597870212'
S'Norbert Gruf'
tp70
a(S'1474790213'
S'Nunzia Buoninconti'
tp71
a(S'100000129513952'
p72
S'Alejandro Reyes'
tp73
a(S'1399002509'
S'Leyla Yurt'
tp74
a(S'100000599756764'
S'Bianca Neve'
tp75
a(S'100001207304728'
S'Hassan Abdel Hamid'
tp76
a(S'100003374071767'
S'Ieda Rejane Santos'
tp77
a(S'864230383'
S'Wanda A Bell Harris'
tp78
a(S'100000693253477'
S'Flavy Badoi'
tp79
a(S'100000335226839'
S'Marita Canales'
tp80
a(S'100001658844206'
S'Petra Hoppel'
tp81
a(S'100004450233349'
p82
S'Vivi Mezza'
tp83
a(S'100000297245665'
S'Mary Huerta'
tp84
a(S'100004383940010'
p85
S'Olga Damasceno'
tp86
a(S'100000225905175'
S'Ghass Ihdoosh'
tp87
asS'id'
p88
S'100002442101639'
p89
sS'name'
p90
S'Frank Pop'
p91
s.