(dp1
S'friends'
p2
(lp3
(S'100001662457235'
S'\\u0639\\u0628\\u062f\\u0627\\u0644\\u0635\\u0645\\u062f \\u0635\\u0645\\u06cc\\u0645'
tp4
a(S'100008052635819'
S'Morsal Noori'
tp5
a(S'100002194943918'
S'Zohra Love'
tp6
a(S'100002077537422'
S'HY Rasoli'
tp7
a(S'100004408836509'
S'\\u062d\\u0633\\u06cc\\u0628 \\u0627\\u0644\\u0644\\u0647'
tp8
a(S'100005098170589'
S'Wardak Noori'
tp9
a(S'100000433116401'
S'\\u0645\\u062d\\u0645\\u062f \\u0646\\u0627\\u0641\\u0639 \\u0647\\u0645\\u062a'
tp10
a(S'1231220193'
p11
S'\\u0646\\u0627\\u0647\\u06cc\\u062f \\u0641\\u0631\\u06cc\\u062f'
tp12
a(S'100007956690821'
S'Saifurahman Maftoon'
tp13
a(S'100001475746035'
S'Akmal Wardak'
tp14
a(S'100002889536309'
S'Zekerya Popal'
tp15
a(S'100004705144848'
S'Dawood Mayar'
tp16
a(S'100006062642415'
S'\\u0639\\u0632\\u06cc\\u0632\\u06c1 \\u062b\\u0646\\u0627'
tp17
a(S'100007678183244'
S'Malaly Wardak'
tp18
a(S'100000605097683'
S'Naqibullah Akhtar'
tp19
a(S'100001947738543'
p20
S'Shafiq Wahdi'
tp21
a(S'100005676337525'
S'Meena Neemgaray'
tp22
a(S'100002466388324'
S'Hekmatullah Faizi'
tp23
a(S'100004581185660'
S'Leal Wardak'
tp24
a(S'100005996551433'
S'Esmatullah Wardak'
tp25
a(S'1433414045'
p26
S'Khushal Asefi'
tp27
a(S'100008300541490'
S'\\u0645\\u06cc\\u0646\\u0627 \\u0648\\u0631\\u062f\\u06af'
tp28
a(S'100004382766419'
S'Naeem Urrahman'
tp29
a(S'100002168087777'
p30
S'Jameel Jameel'
tp31
a(S'100005862041270'
S'\\u0633\\u0627\\u0646\\u06af\\u0647 \\u0634\\u06cc\\u062e \\u0627\\u0628\\u0627\\u062a\\u06cc'
tp32
a(S'100007185938418'
S'\\u0645\\u06cc\\u0646\\u0647 \\u06a9\\u0646\\u062f\\u0647\\u0627\\u0631\\u06cc'
tp33
a(S'100005134721493'
S'Nabeeullah Nasrat'
tp34
a(S'100001380733839'
S'\\u062f\\u062a\\u0648\\u062d\\u06cc\\u062f \\u062f\\u0639\\u0648\\u062a'
tp35
a(S'100005136006726'
S'Iqbal Ahmad Haamedi'
tp36
a(S'100006806110351'
S'Mansoor Ahmadzai'
tp37
a(S'100007540113672'
S'MG Abdullwahab Wardak Pilot'
tp38
a(S'100006792546503'
S'Esaq Hanafe'
tp39
a(S'100000893787246'
S'Mohammad Shoaib Ghiasi'
tp40
a(S'100008313166747'
S'\\u0645\\u0644\\u0627\\u0644\\u064a \\u0648\\u0641\\u0627'
tp41
a(S'100007843263672'
S'Khadija Sadat'
tp42
a(S'100008067819601'
S'Khorsheda Mazari'
tp43
a(S'100002676815595'
S'Ehsanullah Wardak'
tp44
a(S'100008083031265'
S'Jamila Alkozai'
tp45
a(S'732740832'
S'Belal Wardak'
tp46
a(S'100003228757682'
S'Hamidgull Mayar'
tp47
a(S'100004134812436'
S'Jawid Amiry W'
tp48
a(S'100003275635491'
S'\\u062d\\u0645\\u06cc\\u062f\\u0647 \\u0648\\u0631\\u062f\\u06a9'
tp49
a(S'100002587805772'
S'Mohammad Rafi Wardak'
tp50
a(S'100001798653103'
S'Mohammad Hamid Wardak'
tp51
a(S'100007666294303'
S'Ibrahim Wardak'
tp52
a(S'100003225021231'
S'Bahar Hamraz'
tp53
a(S'100003169290014'
S'Zalmai Wardak'
tp54
a(S'100002246892805'
S'Jawed Wardak'
tp55
a(S'100001270677420'
p56
S'Janagha Azizi'
tp57
a(S'100004695572104'
S'Mobina Romayesh'
tp58
a(S'100003682530806'
S'Malali Wafa'
tp59
a(S'100002202602761'
S'Mirwais Wardak'
tp60
a(S'100006700006768'
S'\\ufeb3\\ufee0\\ufee4\\ufe8e \\ufe8d\\ufea3\\ufee4\\ufeaa\\ufeaf\\ufef1'
tp61
a(S'100005035292207'
S'Farkhunda Mayar'
tp62
a(S'100008058844720'
S'\\u0645\\u062d\\u0645\\u062f \\u0628\\u0646 \\u0642\\u0627\\u0633\\u0645'
tp63
a(S'100002085311776'
p64
S'Mena Mangal'
tp65
a(S'678816977'
S'Inamullah Akbari W'
tp66
a(S'100002521952410'
S'Adila Afghan'
tp67
a(S'100003696758725'
S'Fahim Fahimy'
tp68
a(S'100007597333495'
S'Naqib Noori'
tp69
a(S'100001412858828'
S'Masood Ibrahimi'
tp70
a(S'100003464260921'
S'Sahar Ariyan'
tp71
a(S'100001066863357'
S'\\u069a\\u0627\\u06cc\\u0633\\u062a\\u0647 \\u06a9\\u0648\\u0686\\u06cd'
tp72
a(S'100001478993308'
S'Mufti K Wardak'
tp73
a(S'100005311033932'
S'\\u0627\\u0644\\u062d\\u0627\\u062c \\u0627\\u0646\\u062c\\u064a\\u0646\\u0631 \\u0634\\u0647\\u0632\\u0627\\u062f\\u0647 \\u0648\\u0631\\u062f\\u06ab'
tp74
a(S'100000612047361'
p75
S'Mohammad Usman Arhan'
tp76
a(S'100003169782109'
S'Eng M Bashir Wardak'
tp77
a(S'100002491384275'
S'\\u0642\\u0627\\u0631\\u06cc \\u062d\\u0645\\u0632\\u0647'
tp78
a(S'100008103099476'
S'\\u0627\\u0646\\u0648\\u0634\\u0647 \\u0647\\u0645\\u062f\\u0631\\u062f'
tp79
a(S'100003810527444'
p80
S'Zarkah Salgai'
tp81
a(S'100002045590237'
S'Hekmatullah Habibi'
tp82
a(S'100002265081838'
S'Obaidullah Ibrahimi'
tp83
a(S'100008123918843'
S'\\u0634\\u0645\\u0633\\u06cc\\u0647 \\ufb90\\ufee8\\ufeaa\\ufeeb\\ufe8e\\ufead\\ufbfc'
tp84
a(S'100000504892239'
p85
S'\\u0645\\u062d\\u0645\\u0648\\u062f \\u0633\\u0639\\u06cc\\u062f'
tp86
a(S'100008071592566'
S'Walwalah Walwalah W H'
tp87
a(S'100002252525229'
S'Hamid Amir HA'
tp88
a(S'100001175349845'
S'\\u0634\\u0631\\u0641 \\u0627\\u0644\\u062f\\u06cc\\u0646 \\u0633\\u062a\\u0627\\u0646\\u06a9\\u0632\\u06cc'
tp89
a(S'100006623618430'
S'\\u0641\\u0631\\u0634\\u062a\\u0646\\u0647 \\u062a\\u0646\\u0647\\u0627'
tp90
a(S'100003916745008'
S'Habiba Qarar'
tp91
asS'id'
p92
S'100001816472569'
p93
sS'name'
p94
S'Hasham Wardak'
p95
s.