(dp1
S'friends'
p2
(lp3
(S'524455986'
S'Arsalan Malik'
tp4
a(S'1577599327'
S'Balwinder Singh'
tp5
a(S'100000916186161'
S'Riyaz Khan'
tp6
a(S'100000346525269'
S'Sajid Choudry'
tp7
a(S'100000073167865'
S'Hery DhOnie IskaNdar'
tp8
a(S'100000253500063'
S'Irk Ali'
tp9
a(S'534695815'
S'Faraz Haider'
tp10
a(S'1491087802'
S'TC-Guven Keskin'
tp11
a(S'1041911699'
S'Sonia Kumari'
tp12
a(S'100001479649572'
S'Imran Dar'
tp13
a(S'100000637358122'
S'Hasan Khan'
tp14
a(S'100002544159720'
S'Sukhwinder Singh'
tp15
a(S'100000428560132'
S'MuhammAd Talha RaNa'
tp16
a(S'1471591653'
S'Umair Ashraf'
tp17
a(S'1282446556'
S'Atanda Amudat Olajumoke'
tp18
a(S'100002775190945'
S'Happy Kaushal'
tp19
a(S'100000858025583'
S'Tahir Khan'
tp20
a(S'664914580'
S'Fazlehaq Akhunji'
tp21
a(S'100000174083073'
S'Muhammad Zulkifal'
tp22
a(S'1850441241'
S'Ascione Leonardo Maria Falanga'
tp23
a(S'100001347208808'
S'Aadil Malik'
tp24
a(S'1789175212'
S'\\u0915\\u092a\\u093f\\u0932 \\u0926\\u0947\\u0935 \\u0936\\u0930\\u094d\\u092e\\u093e'
tp25
a(S'100000568998377'
S'Amir Ali Jamal'
tp26
a(S'100000758813005'
S'Raja Ittfaq Minhas'
tp27
a(S'100002122059144'
S'Ali Tayyab'
tp28
a(S'1008555774'
S'Rahul Yadav'
tp29
a(S'100002060278021'
S'Bernt E Hardemalm'
tp30
a(S'587082576'
S'Sid Jee'
tp31
a(S'100005395750041'
S'Nida Fazli'
tp32
a(S'1225363027'
S'Moeezali Ali Ali'
tp33
a(S'648265524'
S'Aderonke Adeniji Akanbi'
tp34
a(S'100001926686423'
S'Sk Juneth'
tp35
a(S'1540771975'
S'M.kasshif Moin'
tp36
a(S'100002281354839'
S'Maria Khan'
tp37
a(S'1217825131'
S'Shahzad Mehr'
tp38
a(S'100002190491018'
S'Amina Rajpoot'
tp39
a(S'100000462446133'
S'Sachin Gupta'
tp40
a(S'546425155'
S'Tania Saeed'
tp41
a(S'100000558129620'
S'Zeeshan Satti'
tp42
a(S'100000568910431'
S'CH Akram Wassan'
tp43
a(S'1048216225'
S'Madhavan Reddy'
tp44
a(S'568929257'
S'Ruchir Agarwal'
tp45
a(S'100000640196202'
S'Roland Stenman'
tp46
a(S'571415335'
S'Surendra Batas'
tp47
a(S'100000148175740'
S'Sanikant Singh'
tp48
a(S'100002085311776'
S'Mena Mangal'
tp49
a(S'1475893658'
S'Bavic Cray James'
tp50
a(S'511487386'
S'Waqas Amjad Sethi'
tp51
a(S'100006468977529'
S'Raj Kumar'
tp52
a(S'100003320252870'
S'Rizwan Haider'
tp53
a(S'100000553894557'
S'Raza Murad'
tp54
a(S'100007225689374'
S'Sherlyn Arora'
tp55
a(S'100000383372784'
S'Sam Jerath'
tp56
a(S'100003665839575'
S'Lovely Sen'
tp57
a(S'634441489'
S'Riaz Ahmed'
tp58
a(S'100002180919631'
S'Rubina Malik'
tp59
a(S'100002600289664'
S'Thakur Chandan Singh'
tp60
a(S'100001684499150'
S'Jeete Happ'
tp61
a(S'100000956811077'
S'Chzahid Farrukh'
tp62
a(S'1851886319'
S'Tawqeer Hussain'
tp63
a(S'100000309407538'
S'Richard Jones'
tp64
a(S'100000491423840'
S'Mohin Patel'
tp65
a(S'1693254842'
S'Anil Abeythilaka'
tp66
a(S'100000843975656'
S'Atif Shanky'
tp67
a(S'100000832808717'
S'Shan Zani'
tp68
a(S'100002155933133'
S'Nigaht Ara'
tp69
a(S'728428536'
S'Khizar Hayat Belky'
tp70
a(S'100002890778995'
S'Er Shine Yadav'
tp71
a(S'1419742933'
S'Saher Waqas Sheikh'
tp72
a(S'100003604268018'
S'Pramod Gaikwad'
tp73
a(S'1627463072'
S'Imre Simonji'
tp74
a(S'100006736770376'
S'Harsh Thakur'
tp75
a(S'100004523919369'
S'Kamba Shiko'
tp76
a(S'100001960894577'
S'MissIndependent Urvi'
tp77
a(S'566944906'
S'Anu Pathria'
tp78
a(S'100002253731154'
S'Junaid Malik'
tp79
a(S'100000147151008'
S'Daniel David Messey'
tp80
a(S'1016647542'
S'Imran Ghazali'
tp81
a(S'100006879727319'
S'Pawan Kumar'
tp82
a(S'1504130103'
S'Sardar Khan'
tp83
a(S'100003615565260'
S'Suhel Khan'
tp84
a(S'100002213883017'
S'Muhammad Waqar'
tp85
a(S'100002892112942'
S'Faizan Khan'
tp86
a(S'1043942990'
S'Majid Nejad'
tp87
a(S'100000593472224'
S'Tasaduq Rather'
tp88
a(S'100001165779891'
S'Hussnain Ali Chaudhry'
tp89
a(S'555967578'
S'Keni Gill'
tp90
a(S'100001551862086'
S'Mayur Sunone'
tp91
a(S'100002543307879'
S'Nazia Sial'
tp92
a(S'100000885464750'
S'Danial Satti'
tp93
a(S'100000609518196'
S'Khalid Masood'
tp94
a(S'100004013638183'
S'Pritam Paul'
tp95
a(S'100003603728269'
S'Abdul Rehman'
tp96
a(S'100000478463429'
S'Ogunjobi Irewole Stephen'
tp97
a(S'100002052946354'
S'Neeraj Dogra'
tp98
a(S'100000761634266'
S'Junaid Malik'
tp99
a(S'100004591772159'
S'Sharafat Naqvi'
tp100
a(S'100002009407317'
S'Ehtisham Thebest'
tp101
a(S'100002194035534'
S'Ahmed Bilal'
tp102
a(S'100004117775757'
S'Amit Rajan'
tp103
asS'id'
p104
S'100002217093181'
p105
sS'name'
p106
S'Mona Dar'
p107
s.