(dp1
S'friends'
p2
(lp3
(S'1700666903'
S'Prasad Bhadsawale'
tp4
a(S'100000810941640'
S'Jyoti Ambekar'
tp5
a(S'100000080002033'
S'Santosh Ghante'
tp6
a(S'609595427'
S'Rahul Deshpande'
tp7
a(S'1234659586'
S'Sharad Kanmadikar'
tp8
a(S'1798383507'
S'Anand Deshmukh'
tp9
a(S'703891558'
S'Sahana Banerjee'
tp10
a(S'100000085263674'
S'Shirish Mahabal'
tp11
a(S'100000027227723'
S'Revati Bharat Kamat'
tp12
a(S'100001377421588'
S'Saaranga Kul'
tp13
a(S'100002124413037'
S'Priyadarshini Kulkarni'
tp14
a(S'587261435'
S'Ashutosh Joshi'
tp15
a(S'100001906288985'
S'Upendra Chinchore'
tp16
a(S'580266034'
S'Mahesh Kale'
tp17
a(S'100000799180507'
S'Deepali Joshi'
tp18
a(S'100004125480953'
S'Swati Namjoshi'
tp19
a(S'100001691323880'
S'Shruti Karandikar'
tp20
a(S'100007571864372'
S'Vinay P Phadnis'
tp21
a(S'100001600943880'
S'Vijay Koparkar'
tp22
a(S'100000743253971'
S'Bharat Balvalli'
tp23
a(S'100001052945121'
S'Medha Kumbhojkar'
tp24
a(S'100000760133350'
S'Manjiri Dhamankar'
tp25
a(S'100000508353301'
S'Ishwari Pendse'
tp26
a(S'100000788123508'
S'Shruti Vishwakarma'
tp27
a(S'1453488883'
S'Anil Khare'
tp28
a(S'1658367480'
S'Manjusha Sandeep Patil'
tp29
a(S'1733286842'
S'Mohankumar Darekar'
tp30
a(S'100000429402259'
S'Manjushree Oak'
tp31
a(S'100000075735406'
S'Ganesh Bagdare'
tp32
a(S'100001112322659'
S'Chetan Risbud'
tp33
a(S'100002254817230'
S'Anjali Date'
tp34
a(S'100002191375534'
S'Rashmi Abhisheki'
tp35
a(S'100003276677152'
S'Keshav Kulkarni'
tp36
a(S'100001507720771'
S'Parineeta Marathe'
tp37
a(S'100001657958939'
S'Kaivalyakumar Gurav'
tp38
a(S'100002877296274'
S'Pradnya Deshpande'
tp39
a(S'1452742050'
S'Vidyanidhee Vanarase Prasad'
tp40
a(S'100004486004062'
p41
S'Pushpita Rath'
tp42
a(S'1561909081'
S'Jyoti Dhakne'
tp43
a(S'551199695'
S'Atul Ravindra Khandekar'
tp44
a(S'1415088851'
S'Umesh Bagul'
tp45
a(S'1442615058'
S'Mugdha Bhat-Samant'
tp46
a(S'100005233180152'
S'Satish Vyas'
tp47
a(S'1318850227'
S'Gauri Pathare'
tp48
a(S'100001197942964'
S'Sujata Suvarnapathki'
tp49
a(S'855289819'
S'Sudhir Nayak'
tp50
a(S'100001959561280'
S'Suyog Kundalkar'
tp51
a(S'1627137149'
S'Sampada Bhalerao'
tp52
a(S'100001879032744'
S'Kasturi Datar Atrawalkar'
tp53
a(S'100002214263176'
S'Arati Thakur-Kundalkar'
tp54
a(S'1272187406'
S'Bharati Barhate'
tp55
a(S'1219831913'
S'Ravi Gaonkar'
tp56
a(S'100007927213442'
S'Anjali Marathe'
tp57
a(S'1536242370'
S'Atul Gokhale'
tp58
a(S'100000813698982'
S'Aparna Gurav'
tp59
a(S'100003601803210'
S'Shubha Sathe'
tp60
a(S'860124287'
S'Suhas Vyas'
tp61
a(S'690827812'
S'Sameer Dublay'
tp62
a(S'100000941864891'
S'Prashant Kulkarni'
tp63
a(S'100002092252493'
S'Vinayak Gurav'
tp64
a(S'100003718848566'
S'Vaibhav Khandekar'
tp65
a(S'100001256025658'
S'Radhika Tamhankar'
tp66
a(S'100002542911526'
S'Suresh Phadtare'
tp67
a(S'1171100666'
S'Chandrashekhar Mahamuni'
tp68
a(S'1598965820'
S'Pradeep Kurulkar'
tp69
a(S'100001531441763'
S'Atul Date'
tp70
a(S'100001227461693'
S'Medha Kulkarni'
tp71
a(S'738628436'
S'Shreedhar Pathak'
tp72
a(S'716041954'
S'Ramdas Palsule'
tp73
a(S'1258338064'
S'Satish Desai'
tp74
a(S'1850892358'
S'Rahul Dattatraya Solapurkar'
tp75
a(S'100003151614962'
S'Raya Korgaonkar'
tp76
a(S'1199841260'
S'Abhijit Bartakke'
tp77
a(S'100002630216830'
S'Nibedita Nanda'
tp78
a(S'100001447211079'
S'Ranjana Tonpay'
tp79
a(S'100002900195490'
S'Sanvadini Kalamanch'
tp80
a(S'1793557723'
S'Anuja Zokarkar'
tp81
a(S'100001795280342'
S'Prasad Bhatwadekar'
tp82
a(S'100000463692004'
S'Avinash Patil'
tp83
asS'id'
p84
S'100000151647714'
p85
sS'name'
p86
S'Hemant Pendse'
p87
s.