(dp1
S'name'
p2
S'Aakash Raj'
p3
sS'current_class'
p4
S'india'
p5
sS'home_class'
p6
Vnew delhi, delhi, india
p7
sS'home_text'
p8
VNew Delhi, India\u000aHometown
p9
sS'current_link'
p10
Vhttps://www.facebook.com/l.php?u=https%3A%2F%2Fwww.bing.com%2Fmaps%2Fdefault.aspx%3Fv%3D2%26pc%3DFACEBK%26mid%3D8100%26where1%3D28.613900916609%252C%2B77.207794189453%26name%3DNew%2BDelhi%252C%2BIndia%26mkt%3Den-IN&h=-AQFlaeDC&s=1
p11
sS'home_link'
p12
Vhttps://www.facebook.com/l.php?u=https%3A%2F%2Fwww.bing.com%2Fmaps%2Fdefault.aspx%3Fv%3D2%26pc%3DFACEBK%26mid%3D8100%26where1%3D28.613900916609%252C%2B77.207794189453%26name%3DNew%2BDelhi%252C%2BIndia%26mkt%3Den-IN&h=-AQFlaeDC&s=1
p13
sS'current_text'
p14
VNew Delhi, India\u000aCurrent City
p15
sS'friends'
p16
(lp17
(S'100000229335989'
S'Sanu Kumar'
tp18
a(S'100007397106598'
S'Saurav Anand'
tp19
a(S'100003586066883'
S'NikkiTta Innyminimynymo Ralhi'
tp20
a(S'100002353968527'
S'Vishal Shokeen'
tp21
a(S'100002240535898'
S'Anshika Kumar'
tp22
a(S'100003176239857'
S'Manish Rana'
tp23
a(S'100002238825702'
S'Praveen Kazuma'
tp24
a(S'100004215849649'
S'Shruti Singh'
tp25
a(S'100001784110936'
S'Satish Kumar Sahu'
tp26
a(S'100001413864291'
S'Megha Dahiya'
tp27
a(S'100002138923679'
S'Umang Sharma'
tp28
a(S'100001248092190'
S'Deekshya Sarkar'
tp29
a(S'100003582383770'
S'Shivam Kumar'
tp30
a(S'100003805031496'
S'Nixon Athokpam'
tp31
a(S'100003819994968'
S'Abhishek Kumar'
tp32
a(S'797319294'
S'Neelakshi Nehru'
tp33
a(S'100000585764291'
S'Mushirul Aman'
tp34
a(S'100002644291637'
S'Puneet Mpho Kumar'
tp35
a(S'100001115690613'
S'Purvai Nehru'
tp36
a(S'100003148801761'
S'K\\u00fbm\\u00e2r \\u00c4r\\u00fa\\u00f1'
tp37
a(S'100003207633772'
S'Sonu Singh'
tp38
a(S'100002239425114'
S'Mohit Kumar'
tp39
a(S'100000635711611'
S'Anurag Shanu'
tp40
a(S'100003789165880'
S'Rahul Mahi'
tp41
a(S'100003563201402'
S'Amit Singh'
tp42
a(S'1242758542'
S'Sanchit Singh'
tp43
a(S'100002321972604'
S'Anupradha Singh'
tp44
a(S'100000995993713'
S'Mushtak Khan'
tp45
a(S'100002443584098'
S'Vishal Zambare'
tp46
a(S'100000817835768'
S'Ashish Kumar'
tp47
a(S'100001079404514'
S'Shubham Ghildiyal'
tp48
a(S'531973525'
S'Akshay Bhardwaj'
tp49
a(S'1041998314'
S'Sagar Taluja'
tp50
a(S'100003588952159'
S'Shurti Jain'
tp51
a(S'1119838091'
S'Richa Agarwal'
tp52
a(S'100003077152585'
S'Ankur Punia'
tp53
a(S'100003013479428'
S'Cade Hansdah'
tp54
a(S'100001633669453'
S'Gurpreet Singh'
tp55
a(S'100003866417103'
S'Ayan VJ'
tp56
a(S'100002291393565'
S'Vijay Poonia'
tp57
a(S'100003442946524'
S'Priya Verma'
tp58
a(S'1441958458'
S'Tejinder Singh Sidhu'
tp59
a(S'100005197506698'
S'Jitender Gupta'
tp60
a(S'100004197422286'
S'Subham Kumar Toppo'
tp61
a(S'100003606950660'
S'L.k. Oberoi'
tp62
a(S'686345104'
S'Arjun Kaushik'
tp63
a(S'1136927662'
S'Divij Atreya'
tp64
a(S'100003449939021'
S'Sameer Sharma'
tp65
a(S'100001576792556'
S'Akhil Nair'
tp66
a(S'1253239297'
S'Akanksha Parth'
tp67
a(S'100001121825883'
S'Masud Akhtar'
tp68
a(S'100003328459597'
S'Himanshu Kumar'
tp69
a(S'100004078097412'
S'Priyanka Dubey'
tp70
a(S'100002469609216'
S'Aneesh Bhat'
tp71
a(S'100001596257540'
S'Sunny Kujur'
tp72
a(S'1574855305'
S'Arshdeep Singh'
tp73
a(S'100000643510466'
S'Debopriya Chatterjee'
tp74
a(S'100000677384495'
S'Sunimesh Debnath'
tp75
a(S'1813452263'
S'Pranay Panwar'
tp76
a(S'100002515988131'
S'Akash Kumar'
tp77
a(S'100004581787384'
S'Pihu Kapoor'
tp78
a(S'100002418953590'
S'Nikita Ghosh'
tp79
a(S'100003037080976'
S'Anu Kumari'
tp80
a(S'1298583872'
S'Achala Kumar'
tp81
a(S'100000178032705'
S'Rahul Sehgal'
tp82
a(S'100003560006839'
S'Trishna Rana'
tp83
a(S'100003793962781'
S'Abhinav Sing'
tp84
a(S'100000973104933'
S'Sahil Xavier'
tp85
a(S'100002396513449'
S'Mikki Smit'
tp86
a(S'100001105855045'
S'Sanskriti Upasani'
tp87
a(S'100003332324723'
S'Aditi Sehgal'
tp88
a(S'100000949323825'
S'Nitin Kadian'
tp89
a(S'100001503780596'
S'Manoop Nair'
tp90
a(S'100001912344841'
S'Kamal Dhaliwal'
tp91
a(S'1609757134'
S'Nikhil Deshpande'
tp92
a(S'100002596433830'
S'Sidharth Varun'
tp93
a(S'100001509283622'
S'Satvika Sri'
tp94
a(S'1018608035'
S'Rajwant Singh Dhaliwal'
tp95
a(S'100004681238433'
S'Vivek Pandey'
tp96
a(S'1297012040'
S'Rishil C. Jacob'
tp97
a(S'100000894828495'
S'Varun Chauhan'
tp98
a(S'1850297742'
S'Sandeep Singh Brar'
tp99
a(S'100000572693047'
S'Karan Mahajan'
tp100
a(S'785912375'
S'Nikita Singh'
tp101
a(S'100001529990155'
S'Tripta Pandey'
tp102
a(S'100003312717537'
S'Saurabh Gupta'
tp103
a(S'100003949337070'
S'Vinay Rana'
tp104
a(S'1184234874'
S'Semal Varshney'
tp105
a(S'100000104359633'
S'Vivek Pandey'
tp106
a(S'100001477395170'
S'Jasleen Kaur'
tp107
a(S'100001952726585'
S'Vikram Kujur'
tp108
a(S'100000418525064'
S'Niki Sharma'
tp109
a(S'100002557039067'
S'Shyam Agarwal'
tp110
a(S'100003807038716'
S'Archit Thakur'
tp111
a(S'100006099936113'
S'Rohan Patra'
tp112
a(S'100000885203639'
S'Aanchal Pant'
tp113
a(S'100000098303388'
S'Ankit Ramakrishnan'
tp114
a(S'100002344789076'
S'Kunal Rai'
tp115
a(S'1796206111'
S'Arjun Wadhawan'
tp116
a(S'100003241838684'
S'Anurag Abhay'
tp117
a(S'100000847888193'
S'Ankit Arthur'
tp118
a(S'1134350542'
S'Lakshya Singh KHatana'
tp119
a(S'100003963252807'
S'Muddassir Sultan'
tp120
a(S'100003965092346'
S'Jyoti Singh Ranaut'
tp121
a(S'100003660041364'
S'Avinash Singh'
tp122
a(S'100002752443769'
S'Milan \\u00dfhandari'
tp123
a(S'100003641057499'
S'Avinash Verma Verma'
tp124
a(S'100004268406555'
S'Maansi Goel'
tp125
a(S'100001392328781'
S'Chandni Roy'
tp126
a(S'100000171748929'
S'Saurabh Kumar'
tp127
a(S'100002396619570'
S'Saloni Kumar'
tp128
a(S'584176343'
S'Lavanya Nigam'
tp129
a(S'100002401629697'
S'Anuradha Sharma'
tp130
a(S'100007167963817'
S'Sahil Jaiswal'
tp131
a(S'100005402832720'
S'Anish Ashutosh'
tp132
a(S'1159551195'
S'Tanvir Gill'
tp133
a(S'100001283735603'
S'Mano Ranjan'
tp134
a(S'100002444010349'
S'D\\u019bksh Br\\u019bndt'
tp135
a(S'100004470007271'
S'Sweta Kumari'
tp136
a(S'663958898'
S'Aakash Raj'
tp137
a(S'100001503650718'
S'Saroj Kumar'
tp138
a(S'559866735'
S'Anubhav Khosla'
tp139
a(S'100007835940717'
S'Jayprakash Bhagat'
tp140
a(S'100000869128269'
S'Akriti Rana'
tp141
a(S'100001308768769'
S'Akhtif Ahmed'
tp142
a(S'100001194841938'
S'Radhika Narsaria'
tp143
a(S'100002338496712'
S'Neha Sharma'
tp144
a(S'100000598781331'
S'Priyam Sharma'
tp145
a(S'100004202259796'
S'Sangeeth Kumar'
tp146
a(S'1331621502'
S'Lakshya Pandit'
tp147
a(S'100001113986821'
S'Nadish Haidar'
tp148
a(S'100002227856536'
S'Ankita Singh'
tp149
a(S'100003012556293'
S'Atanu Ghosh'
tp150
a(S'100002486133918'
S'Sameer Kumar'
tp151
a(S'1253044560'
S'Harsh Vardhan Dalal'
tp152
a(S'100003838510246'
S'Neha Chaturvedi'
tp153
a(S'100006095350517'
S'Rakesh Singh Chuahan'
tp154
a(S'100000878965883'
S'Abhishek Kumar'
tp155
a(S'1818324207'
S'Tarun Vasudevan'
tp156
a(S'100006158400832'
S'Karan Mishra'
tp157
a(S'100004273927868'
S'Jimmy David Ekka'
tp158
a(S'100000959622081'
S'Sakshi Prasad'
tp159
a(S'100000735691921'
S'Vishal Patil'
tp160
a(S'100003637396092'
S'Asha Salickram'
tp161
a(S'100001025886663'
S'Jessica Singh Rainal'
tp162
a(S'100002990494413'
S'\\u00c4\\u00f1k\\u00fcr K\\u00fbm\\u00e3r'
tp163
a(S'100002383487181'
S'Saurav Nasa'
tp164
a(S'1409722910'
S'Vikas Chaturvedi'
tp165
a(S'100001351415389'
S'Rahul Gupta'
tp166
a(S'1741252797'
S'Harkirat Singh B Positive'
tp167
a(S'100002686538582'
S'Abhimanyu Pandey'
tp168
a(S'100002529249066'
S'Kullu Sahu'
tp169
a(S'100003726257742'
S'Annabeth Bergonia'
tp170
a(S'100004201297644'
S'Sajid Khan'
tp171
a(S'100004403380621'
S'Megha Singh'
tp172
a(S'100000545952322'
S'Arvind Pathak'
tp173
a(S'100003262776900'
S'Parmeshwar Kumar'
tp174
a(S'100002235636865'
S'Satya Prakash Dubey'
tp175
a(S'100002981771834'
S'Payal Prity'
tp176
a(S'100002460319371'
S'Praveen Pandey'
tp177
a(S'100001635587306'
S'Aarti Singh'
tp178
a(S'100003650460853'
S'Braj Kishor'
tp179
a(S'1297533776'
S'Sunayana Bhatnagar'
tp180
a(S'100003553415394'
S'Atul Kumar'
tp181
a(S'100003017242858'
S'Neha Singh'
tp182
a(S'100001011258406'
S'AmEn Dhillon Bhardwaj'
tp183
a(S'100003266517384'
S'Hasnain Khan'
tp184
a(S'528022614'
S'Siddharth Marya'
tp185
a(S'100003492761806'
S'Alice Bhengra'
tp186
a(S'629507460'
S'Mehak Sikand'
tp187
a(S'100003171590707'
S'Shashank Tripathi'
tp188
a(S'100004660080111'
S'Megha Sharma'
tp189
a(S'100002963779943'
S'Anu Priya'
tp190
a(S'100003021472854'
S'Aditya Singh'
tp191
a(S'100001833948112'
S'Satish Sahu'
tp192
a(S'100000499127216'
S'Shrey Vasudev'
tp193
a(S'100002245507043'
S'Sumit Parmar'
tp194
a(S'100004255003320'
S'Jeazzin Sanchez Sablan'
tp195
a(S'100001338387038'
S'Rupal Singh Rupal'
tp196
a(S'100003984285349'
S'Rushika Rushky Sharma'
tp197
a(S'100003691270427'
S'Ajay Kumar Singh'
tp198
a(S'100001240974880'
S'Prakash Katiyar'
tp199
a(S'100003071599952'
S'Sonu Singh'
tp200
a(S'100003503089547'
S'Raj Kumar'
tp201
a(S'543832536'
S'Varun Gupta'
tp202
a(S'100000821654481'
S'Xavi Hernandes'
tp203
a(S'1116294360'
S'Dhruv Wason'
tp204
a(S'100000532902453'
S'Ankita Nupur'
tp205
a(S'1415966028'
S'Leena Sharma'
tp206
a(S'100003695140253'
S'Nitish Kumar'
tp207
a(S'100005961244560'
S'Abhishek Singh'
tp208
a(S'100003915296313'
S'Akanksha Dubey'
tp209
a(S'100002588361109'
S'Priti Koushik'
tp210
a(S'100001939398587'
S'Sumit Anrik'
tp211
a(S'1825123222'
S'Aradhana Kaushik'
tp212
a(S'100003353420835'
S'\\u0641\\u0627\\u0631\\u0633 \\u0627\\u0644\\u0627\\u062d\\u0644\\u0627\\u0645'
tp213
a(S'100000614624733'
S'Amit Kumar'
tp214
a(S'100006220330676'
S'Naleeni Verma'
tp215
a(S'676944072'
S'Sarit Guha Thakurta'
tp216
a(S'100003975520178'
S'Vikash Sahoo'
tp217
a(S'100003977705345'
S'Harsh Singh'
tp218
a(S'100000509631447'
S'Aarit Bhargava'
tp219
a(S'100001800101311'
S'Jayant Mehta'
tp220
a(S'100002684260270'
S'Rishab Singh'
tp221
a(S'1534594202'
S'Amber Raj'
tp222
a(S'100004122908499'
S'Nitesh Kumar'
tp223
a(S'1347536750'
S'Saksham Bhargava'
tp224
a(S'100002458122230'
S'Himanshu Sharma'
tp225
a(S'1322845681'
S'Harman Bal'
tp226
a(S'100004057276771'
S'Akshay Jalan'
tp227
a(S'100001526201322'
S"Eva Moerriiezone Say's"
tp228
a(S'100003077973743'
S'Abhishek Singh'
tp229
a(S'627652593'
S'Adhaar Khosla'
tp230
a(S'100003700905313'
S'Anshuman Mehrotra'
tp231
a(S'100003752344480'
S'Narender Kumar Yadav'
tp232
a(S'1053465954'
S'Anshu Sinha'
tp233
a(S'100003526686293'
S'Bipul Cool'
tp234
a(S'100003394463487'
S'Sara Ijaz'
tp235
a(S'100001960419325'
S'Divya Ranjan'
tp236
a(S'100000764972533'
S'Palash Niranjan'
tp237
a(S'100002888083073'
S'Kaushal Sharma'
tp238
a(S'100001311966000'
S'Pankaj Dhupparh'
tp239
a(S'728264091'
S'Mehak Gupta'
tp240
a(S'100002245965911'
S'Kamya Sharma'
tp241
a(S'1151121563'
S'Shivanyaa Rawat'
tp242
a(S'100001671534468'
S'Alok Kumar'
tp243
a(S'1409682040'
S'Nishant Kalita'
tp244
a(S'100003185412128'
S'Atul Kumar'
tp245
a(S'100004004734570'
S'Sid Anand'
tp246
a(S'100004703954613'
S'Rekha Kumari'
tp247
a(S'100003112844179'
S'Sangam Gupta'
tp248
a(S'100002536649144'
S'Abhishek Kumar'
tp249
a(S'100003469406015'
S'Lovpreet Toor'
tp250
a(S'100003019666417'
S'Robin Singh'
tp251
a(S'100007713157675'
S'Rajneesh Yadav'
tp252
a(S'100000166273144'
S'Amit Bhambral'
tp253
a(S'100000751499199'
S'Sagar Jo'
tp254
a(S'100002373002335'
S'Gopikishan Kumar'
tp255
a(S'1450208379'
S'Pratibha Mahto'
tp256
a(S'1312625873'
S'Ojusvni Kapur'
tp257
a(S'1256178988'
S'Vartika Upadhyay'
tp258
a(S'100003240547899'
S'Aditya Singh Yadav'
tp259
a(S'100002063995927'
S'Shrishti Tiwari'
tp260
a(S'1608637442'
S'Abhishek Ajith'
tp261
a(S'1281215385'
S'Vinay Jass'
tp262
a(S'100004306175786'
S'Aditya Raj Singh'
tp263
a(S'100000888680381'
S'Vijayant Singh'
tp264
a(S'100006335741389'
S'Neha Gupta'
tp265
a(S'100002374053038'
S'Richa Maharaj'
tp266
a(S'100004672330008'
S'Pooja Singh'
tp267
a(S'100004109914011'
S'Nitin Rai'
tp268
a(S'100001077469914'
S'Abhinav Khanna'
tp269
a(S'100008190600319'
S'Sitaram Raj'
tp270
a(S'100003082517940'
S'Safi Akram'
tp271
a(S'100003646374077'
S'Niraj Gaurav'
tp272
a(S'100000429947711'
S'Seema Nambiar'
tp273
a(S'1543179885'
S'Varun Gulati'
tp274
a(S'1439622742'
S'Faizan Khan'
tp275
a(S'100002885944795'
S'Nidhi Raj Chauhan'
tp276
a(S'100003349676583'
S'Mohamed Ahmed'
tp277
a(S'100001073225973'
S'Abhishek Upadhyay'
tp278
a(S'100003803987433'
S'Yeshpreet Singh'
tp279
a(S'100003503832493'
S'Saurab Choudhary'
tp280
a(S'100004211040083'
S'Anjali Yadav'
tp281
a(S'100002592904654'
S'Rupal Singh'
tp282
a(S'100006129730962'
S'Rahul Deshmukh'
tp283
a(S'1079260814'
S'Rhea Tomar'
tp284
a(S'713293821'
S'Rishi Raj Parasar'
tp285
a(S'100002676135270'
S'Yudhish Raja'
tp286
a(S'100003216278090'
S'V\\u00ef\\u00e7\\u00e7\\u00e3 R\\u00f8\\u00e7ks'
tp287
a(S'100003705173185'
S'Yash Kapoor'
tp288
a(S'100001917128716'
S'Anjana Ekka'
tp289
a(S'100006510876024'
S'Akshita Kumari'
tp290
a(S'100001840268305'
S'Aniket Alur'
tp291
a(S'100005185955207'
S'Pooja Kumari'
tp292
a(S'100000139862841'
S'Prateek Pathak'
tp293
a(S'100002489948612'
S'Madhav Kumar'
tp294
a(S'100003476255844'
S'Bipul Cool'
tp295
a(S'100002290506252'
S'Anil Rai'
tp296
a(S'100002683486493'
S'Kaushik Raj'
tp297
a(S'100001865269909'
S'Rahul Kumar'
tp298
a(S'100007646552739'
S'Sandhya Singh'
tp299
a(S'100004130013403'
S'Ajitb\\u00e1s\\u00e0nt \\u00dfh\\u00eangr\\u00e3'
tp300
a(S'1661945109'
S'Aseem Sidhu'
tp301
a(S'100002510696102'
S'Astha Negi'
tp302
a(S'1173746732'
S'Vaishali Kothari'
tp303
a(S'100004198951479'
S'Sweta Kumari'
tp304
a(S'100002447750680'
S'Arnav Kumar'
tp305
a(S'100003068102784'
S'Karan Maan'
tp306
a(S'100002138636100'
S'Rohit Kumar'
tp307
a(S'1202263445'
S'Tulika Chandra'
tp308
a(S'100004831050823'
S'Prerna Bhardwaj'
tp309
a(S'100002597447682'
S'Jitesh Sharma'
tp310
a(S'100002401556363'
S'Rajesh Raj'
tp311
a(S'1668799565'
S'Karan Singh Rai'
tp312
a(S'100002229439226'
S'Sumit Raj'
tp313
a(S'100000041289787'
S'Siddharth Saraf'
tp314
a(S'100005398477565'
S'Praveen Kumar Singh'
tp315
a(S'100000792522069'
S'Anu Singh'
tp316
a(S'1248067120'
S'Jasmine Rehill'
tp317
a(S'100002017252850'
S'Atul Sharma'
tp318
a(S'100002220397302'
S'Avinash Kumar'
tp319
a(S'1851552083'
S'Ayush Mehra'
tp320
a(S'100001514271526'
S'Krity Kajal'
tp321
a(S'100005978340891'
S'Digu Dagger'
tp322
a(S'100003154874136'
S'Shreya Narang'
tp323
a(S'100005517787211'
S'Aditya Vardhan'
tp324
a(S'100001134767637'
S'Sagar Xavier'
tp325
a(S'100000177042936'
S'Apoorva Yadav'
tp326
a(S'100003349759941'
S'Aaditya Sharma'
tp327
a(S'100002530104217'
S'Deepika Nannaware'
tp328
a(S'1296993272'
S'Rohit Chakravarty'
tp329
a(S'100002859292995'
S'Divyansh Awasthi'
tp330
a(S'100004478881748'
S'Ratnesh Kumar'
tp331
a(S'100003003966522'
S'Gaurav Jain'
tp332
a(S'100003483198393'
S'Mahek Kumari'
tp333
a(S'100004187610108'
S'Pragati Rani'
tp334
a(S'100002344495550'
S'Sau Putt'
tp335
a(S'100001474046987'
S'Avinash Kumar'
tp336
a(S'1633968714'
S'Tanmay Sharma'
tp337
a(S'100005265825176'
S'Anjali Bharti'
tp338
a(S'100002469433838'
S'Jibin P Jacob'
tp339
a(S'100003019463819'
S'Avinash Singh'
tp340
a(S'100003805991134'
S'Divya Sinha'
tp341
a(S'1206233724'
S'Kiran Tudu'
tp342
a(S'100003725832491'
S'Nik Shah'
tp343
a(S'1302451408'
S'Naved Siddiqui'
tp344
a(S'1201404938'
S'Arsha Chopra'
tp345
a(S'100003571659792'
S'Niket Kumar Bhagat'
tp346
a(S'100004045561844'
S'Akshay Pandey'
tp347
a(S'100002670009582'
S'Saumya Singh'
tp348
a(S'100001602004401'
S'Bhavana Tiwari'
tp349
a(S'1282517299'
S'Nishil Jacob'
tp350
a(S'100003843831821'
S'Tanvi Sharma'
tp351
a(S'760198050'
S'Nilima Singh'
tp352
a(S'100004182607221'
S'Neetu Singh'
tp353
a(S'100001714108678'
S'Utkarsh Bali'
tp354
a(S'100001274918172'
S'Tista Jacob'
tp355
a(S'100002481993113'
S'Amie Aikmr'
tp356
a(S'1838222921'
S'Srishti Seth'
tp357
a(S'647820716'
S'Neha Bhambral'
tp358
a(S'100001567888882'
S'Subin John'
tp359
a(S'100001251461209'
S'Mankirat Gill'
tp360
a(S'100004217438601'
S'Taanvi Negi'
tp361
a(S'100001143936479'
S'Ishan Mahendra'
tp362
a(S'100002888035190'
S'Ambisha Rathore'
tp363
a(S'100003379000130'
S'Ashish Yadav'
tp364
a(S'100007412234572'
S'Madhukar Mishra'
tp365
a(S'100008222506734'
S'Shriti Paul'
tp366
a(S'100001607018854'
S'Shishir Das'
tp367
a(S'100002801341482'
S'Amandeep Singh'
tp368
a(S'100002489684303'
S'Biswas Kumar'
tp369
a(S'100003763444194'
S'Bliz Nkashif'
tp370
a(S'100003932548781'
S'Sakshi Bansal'
tp371
a(S'100003793692733'
S'Ayesha Malik'
tp372
a(S'1085061819'
S'Divya Singh Bist'
tp373
a(S'1594638022'
S'Tejeshwar Singh Nerwal'
tp374
a(S'100002654976297'
S'Navin Paul'
tp375
a(S'100000090734717'
S'Abhinav Chandel'
tp376
a(S'100003571150303'
S'Raj Kiran Kumar'
tp377
a(S'100002925467855'
S'Quazi Nashra Ahmad'
tp378
a(S'100003499006297'
S'Rohit Roshan Kandulna'
tp379
a(S'100004571403942'
S'Shreya Sen'
tp380
a(S'100003068900858'
S'Bishwajeet Suman'
tp381
a(S'100000987393487'
S'Rajiv Patra'
tp382
a(S'100002289022445'
S'Vishal Singh'
tp383
a(S'100004476880842'
S'Himmata Ram'
tp384
a(S'100003310664847'
S'Agam Gangwar'
tp385
a(S'100002075681027'
S'Avinash Singh'
tp386
a(S'1669483060'
S'Samam Srivastava'
tp387
a(S'100002116769233'
S'Prince Mandal'
tp388
a(S'100002559373727'
S'Rahul Singh'
tp389
a(S'1037121601'
S'Sameera Sahgal'
tp390
a(S'100000960265517'
S'Gursharan Deep'
tp391
a(S'100000846727789'
S'Kanishk Shukla'
tp392
a(S'100002489091634'
S'Anjali Sharma'
tp393
a(S'100000455909344'
S'Sweta Kumari'
tp394
a(S'100003976977172'
S'Sumana Bhattacharya'
tp395
a(S'100002368219700'
S'Premjit Singh'
tp396
a(S'741786718'
S'Chhavi Rahul'
tp397
a(S'100003205904988'
S'Rakesh Mallick'
tp398
a(S'100002318400553'
S'Sakshi Singh'
tp399
a(S'100001968087806'
S'Satish Malik'
tp400
a(S'1245242363'
S'Nikhil Chaudhuri'
tp401
a(S'100001026023146'
S'Edward Kullen'
tp402
a(S'100002776952456'
S'Ankur Mittal'
tp403
a(S'100000115188424'
S'Smita Ganguli'
tp404
a(S'100001325076553'
S'Vivek Gupta'
tp405
a(S'100000624823002'
S'Roshan Kumar'
tp406
a(S'100005027110422'
S'Ankita Sharma'
tp407
a(S'100003544172299'
S'Ankur Mittal'
tp408
a(S'1313010264'
S'Devika Rathore'
tp409
a(S'100003392619555'
S'Roxe Sanu Bhattacharjee'
tp410
a(S'100002926302500'
S'Rakesh Kumar Singh'
tp411
a(S'100001722124466'
S'N\\u0101bh Singh'
tp412
a(S'100002644750489'
S'Amit Raj'
tp413
a(S'100001099115755'
S'Subhakankha Manna'
tp414
a(S'100003471630592'
S'Prakash Singh Rajput'
tp415
a(S'100000488405472'
S'Abhimanyu Mor'
tp416
a(S'100001593055704'
S'Rock On'
tp417
a(S'100001109940331'
S'Vakas Khan'
tp418
a(S'100002972282496'
S'Mak Khan'
tp419
a(S'100004793827489'
S'Abhinav Kumar'
tp420
a(S'100000013724909'
S'Shubhankar Singh'
tp421
a(S'100000315387795'
S'Texan Bison'
tp422
a(S'100000093231331'
S'Arjun Singh Rai'
tp423
a(S'588368518'
S'Shreya Acharya'
tp424
a(S'100002072646946'
S'Rita Mehta'
tp425
a(S'100003656754552'
S'Swati Sharma'
tp426
a(S'100006473757624'
S'Varinder Singh'
tp427
a(S'100001441675632'
S'Shubh Singh'
tp428
a(S'100003795300828'
S'Sheena Rajpal'
tp429
a(S'1584573210'
S'Jharnaa Malhotra'
tp430
a(S'100001933270662'
S'Anshika Parth'
tp431
a(S'100002029553884'
S'Ranjan Saryal'
tp432
a(S'100003100317738'
S'Pankaj Kohli'
tp433
a(S'100001401083923'
S'Rishav Bhartia'
tp434
a(S'1617363976'
S'Gaurav Mishra'
tp435
a(S'100004325645021'
S'Saurav Nasa'
tp436
a(S'100002655380261'
S'Pankaj Kumar'
tp437
a(S'100002298850868'
S'Shivankan Yadav'
tp438
a(S'100004988052937'
S'Ayush Chandra'
tp439
a(S'100003073376070'
S'Rahul Dev'
tp440
a(S'100001648675708'
S'Kashyap Sharma'
tp441
a(S'100001939238278'
S'Koustav Mandal'
tp442
a(S'100002281633956'
S'Manisha Oraon'
tp443
a(S'100003932894397'
S'Sudhiti Mehta'
tp444
a(S'100003370638182'
S'Sana Raza'
tp445
a(S'1475943309'
S'Manya Upadhyay'
tp446
a(S'1030020658'
S'Anchal Keshab'
tp447
a(S'100001698062835'
S'Prasan Paul Lakra'
tp448
a(S'608323145'
S'Azmat Bashir Khan'
tp449
a(S'100000822633770'
S'Subham Singh'
tp450
a(S'100000029819325'
S'Navya Bali'
tp451
a(S'100004275126654'
S'Puja Singh'
tp452
a(S'100006149263280'
S'Shubhankan Kumar'
tp453
a(S'100002481823432'
S'Jomarie Chandria Bernardo'
tp454
a(S'100001827800880'
S'Amarjit Kumar'
tp455
a(S'597701183'
S'Aby Mathew'
tp456
a(S'100000044258445'
S'Daljit Singh Brar'
tp457
a(S'100003729250250'
S'Dimple Kumar'
tp458
a(S'100001377434605'
S'Pushpendra Kumar'
tp459
a(S'100003890990569'
S'Sajjad Alam'
tp460
a(S'100000573699064'
S'Vidula Dhanda'
tp461
a(S'100003025860497'
S'Sony Raj'
tp462
a(S'100001179067555'
S'Shaz Ajmal'
tp463
a(S'100000093603004'
S'Sukraat Dang'
tp464
a(S'1211644500'
S'Aishwarya Sharma'
tp465
a(S'100002438158300'
S'Moninder Tomar'
tp466
a(S'100003702361257'
S'Amit Singh'
tp467
a(S'100003017359757'
S'Jitender Rathore'
tp468
a(S'100002063313113'
S'Ram Narayan Tiwari'
tp469
a(S'100005302084993'
S'Avinash Kumar'
tp470
a(S'100003817314572'
S'Ujjwal Kr Sharma'
tp471
a(S'1527766162'
S'Digvijay Singh Jodha'
tp472
a(S'100001514543056'
S'Imran Ansari'
tp473
a(S'100002321410508'
S'Shikha Jha'
tp474
a(S'100001392256752'
S'Shreya Roy'
tp475
a(S'100000623798195'
S'Indu Prasad'
tp476
a(S'100003778821920'
S'Pankaj Kumar'
tp477
a(S'100003295512047'
S'Vikramaditya Bhattacharya'
tp478
a(S'100003279015432'
S'Akash Kumar'
tp479
a(S'100001665936844'
S'Jai Deepu Minj'
tp480
a(S'100003677725207'
S'Chandni Singh'
tp481
a(S'100002895930349'
S'Prateek Dhan'
tp482
a(S'1300500805'
S'Athira Sunil Namboodiri'
tp483
a(S'100002819325097'
S'Mukesh Choudhary'
tp484
a(S'100002124655094'
S'Lakshay Khanna'
tp485
a(S'100001287481968'
S'Tulika Mishra'
tp486
a(S'100001209867162'
S'Saloni Rastogi'
tp487
a(S'100002821406577'
S'Alisha Singh'
tp488
a(S'100004077414352'
S'Shanvi Jiya'
tp489
a(S'100004005674903'
S'\\u0645\\u0635\\u0637\\u0641\\u0649 \\u062d\\u0633\\u0646'
tp490
a(S'100003574039339'
S'Vikash Kumar'
tp491
a(S'100003159191476'
S'Suraj Kumar'
tp492
a(S'100004610199040'
S'Shiva Ram'
tp493
a(S'100006855643390'
S'Rahul Rajput'
tp494
a(S'1751788120'
S'Angela Huidrom'
tp495
a(S'100003304336714'
S'Sunny Sarai'
tp496
a(S'100001750082448'
S'Aditya Singh Parmar'
tp497
a(S'100002426020858'
S'Aditya Tripathi'
tp498
a(S'1648279026'
S'Alekh Singh Mehta'
tp499
a(S'100001111306821'
S'Tanvi Butola'
tp500
a(S'100003595141523'
S'Ankita Chowdhury'
tp501
a(S'100000721006463'
S'Sartaj Singh Oberoi'
tp502
a(S'100003354301009'
S'Mridul Kaul'
tp503
a(S'100003387747297'
S'Warun Hasnain'
tp504
a(S'100002754662260'
S'OM Prakash'
tp505
a(S'1735742302'
S'Abhilasha Kashyap'
tp506
a(S'1065768014'
S'Robin Bhalla'
tp507
a(S'100002466124044'
S'Amandeep Singh'
tp508
a(S'100001659221938'
S'Atin Lakra'
tp509
a(S'100000511324736'
S'Shaalein Sehgal'
tp510
a(S'100004280321321'
S'Poping L Ashreeta'
tp511
a(S'100000360449231'
S'Himani Kapoor'
tp512
a(S'100002537091654'
S'Yogesh Singhania'
tp513
a(S'1255819048'
S'Aniket Dennis'
tp514
a(S'100005912647475'
S'Ruksana Rai'
tp515
a(S'100000482901023'
S'Piyush Singh'
tp516
a(S'100003374631426'
S'Anish Kumar'
tp517
a(S'100003393706182'
S'Mafer Morales Zamora'
tp518
a(S'100002540150736'
S'Rima Mukherjee'
tp519
a(S'100002453860709'
S'Aashi Chaturvedi'
tp520
a(S'100002922123784'
S'Bhawesh Kumar'
tp521
a(S'100001300951532'
S'Harshit Kumar Singh'
tp522
a(S'100001425791796'
S'Akhil Agarwal'
tp523
a(S'100003721752367'
S'Shaurya Singh'
tp524
a(S'100002270782012'
S'Dhiraj Kumar'
tp525
a(S'100003748960349'
S'Akshat Kashyap'
tp526
a(S'1604949722'
S'Megha Chopra'
tp527
a(S'100003869165666'
S'Rhea Grover'
tp528
a(S'100001172352479'
S'Harsha Hooda'
tp529
a(S'100003046010258'
S'Aaskien Khan'
tp530
a(S'100002595799780'
S'Abhishek Tripathi'
tp531
a(S'100003743901513'
S'Abhay Singh'
tp532
a(S'1563834192'
S'Monica Pradhan'
tp533
a(S'100000451123503'
S'Anuj Rautela'
tp534
a(S'100003715420826'
S'Vishal Dhiman'
tp535
a(S'100000738159865'
S'Ronit Singh'
tp536
a(S'100003723680467'
S'Nishant Verma'
tp537
a(S'1408613558'
S'Angad Bajwa'
tp538
a(S'100000915724879'
S'Yash Jamwal'
tp539
a(S'100003257501175'
S'Manoj Bhagat'
tp540
a(S'100005363972564'
S'Safi Akram'
tp541
a(S'100002410225491'
S'Ayushi Sabu'
tp542
a(S'100001193733927'
S'Manisha Rayamajhi'
tp543
a(S'100002238864055'
S'Shonali Sharma'
tp544
a(S'100002612231961'
S'Rajat Kumar'
tp545
a(S'100006133684245'
S'Shubham Singh'
tp546
a(S'100002933968442'
S'Nishant Singh'
tp547
a(S'100003448798556'
S'Anshu Singh'
tp548
a(S'100003815018251'
S'Akhilesh Kumar'
tp549
a(S'100002638411136'
S'Prashant Tripathy'
tp550
a(S'100002716596663'
S'Parmeshwar Ojha'
tp551
a(S'100002772931318'
S'Nidhi Singh'
tp552
a(S'100001228348272'
S'Kashish Bains'
tp553
a(S'100004479754952'
S'Saif Alam'
tp554
a(S'100002314248919'
S'Kumar Vishal'
tp555
a(S'100002290557559'
S'Vivek Prasad Sahu'
tp556
a(S'100001004797977'
S'Vashnao Mazid'
tp557
a(S'1346493405'
S'Saaniya Sharma'
tp558
a(S'100001186958860'
S'Chandan Singh'
tp559
a(S'100002611813027'
S'Salman Khan'
tp560
a(S'1729798516'
S'Yashveer Singh Sisodia'
tp561
a(S'582383102'
S'Arjit Oberoi'
tp562
a(S'100004461150705'
S'Ananya Mukherjee'
tp563
a(S'100000479662131'
S'Malvika Gupta'
tp564
a(S'100001033926925'
S'Neha Priya'
tp565
a(S'100001049733623'
S'Yograj Singh Rajawat'
tp566
a(S'100003391815190'
S'Taranjit Gangu Bai'
tp567
a(S'100003480986208'
S'Aditya Kumar'
tp568
a(S'100003723231475'
S'Fahad Pandita'
tp569
a(S'581685336'
S'Prabhjit Oberoi'
tp570
a(S'100001488375547'
S'Ankit Jain'
tp571
a(S'100003757314504'
S'Winda Handika'
tp572
a(S'1494990715'
S'Parker Paratrooper Karia'
tp573
a(S'1294669737'
S'Tanisha Kohli'
tp574
a(S'100004221580520'
S'Yeshpreet Singh'
tp575
a(S'100003320546530'
S'Pratik Kumar'
tp576
a(S'100003171134841'
S'Mahadeva Mysore'
tp577
a(S'100002565612497'
S'Ajay Hazzda'
tp578
a(S'100002447841230'
S'Anuj Kumar'
tp579
a(S'100003925205111'
S'Kunal Babu'
tp580
a(S'728868985'
S'Vaibhav Khanna'
tp581
a(S'1587549486'
S'Adhiraj Mishra'
tp582
a(S'100006495770722'
S'Abhinav Roxzz'
tp583
a(S'100002460834793'
S'Vivek Rock'
tp584
a(S'100001182610502'
S'Yogesh Panghal'
tp585
a(S'100002992477455'
S'Shajad Alam'
tp586
a(S'100007199793417'
S'Arun Chaturvedi'
tp587
a(S'100003248591505'
S'Mahek Noor'
tp588
a(S'100004751348951'
S'Naveen Kumar'
tp589
a(S'100001683851880'
S'Vishakha Dhiman'
tp590
a(S'100003239663183'
S'Vishwa Prakash'
tp591
a(S'100002558213707'
S'Mohit Chavan'
tp592
a(S'728630619'
S'Aman Malik'
tp593
a(S'100001132818272'
S'Manish Singh'
tp594
a(S'100001767469197'
S'Ankit Choudhary'
tp595
a(S'100000067207346'
S'Augine Babu Francis'
tp596
a(S'100002773015468'
S'Anup Pandey'
tp597
a(S'100002403764881'
S'Jignesh Raj'
tp598
a(S'1785152002'
S'Ajay Singh Khatana'
tp599
a(S'100001516556478'
S'Shivangi Dahiya'
tp600
a(S'100002370227875'
S'Niraj Yadav'
tp601
a(S'100002126285406'
S'Vani Dudhraj'
tp602
a(S'100003828591704'
S'Omkar Srivastava'
tp603
a(S'100003175900928'
S'Divya Singh'
tp604
a(S'100001846463730'
S'Abhishek Hevenion'
tp605
a(S'100002534972072'
S'Ravi Sharma'
tp606
a(S'100002186654471'
S'Christopher Manish'
tp607
a(S'100002696170388'
S'Kamal Thapa'
tp608
a(S'100006113113197'
S'Rahul Bhagat'
tp609
a(S'100004049056832'
S'Nupur Anand'
tp610
a(S'100003494290174'
S'Bittu Sharma'
tp611
a(S'100003060662054'
S'Marisha Gautam'
tp612
a(S'100001218284980'
S'Arahna Mehra'
tp613
a(S'100003575774611'
S'Deepti Pushp'
tp614
a(S'100004901025384'
S'Riya Kumari'
tp615
a(S'100001232378741'
S'Prince Kumar'
tp616
a(S'100000036432847'
S'Goldy Dave'
tp617
a(S'1450390163'
S'Deepali Doley'
tp618
a(S'100005638808177'
S'Abhishek Kumar'
tp619
a(S'1011045817'
S'Gitanjali Sanyal'
tp620
a(S'100001895633931'
S'Praveen Kumar'
tp621
a(S'100001472604547'
S'Prankster Tiwari'
tp622
a(S'100003281894656'
S'Nitin Singh'
tp623
a(S'557620115'
S'Sanchia Thimanna'
tp624
a(S'100001603121896'
S'Humsa Vardhini'
tp625
a(S'1299168939'
S'Reschebdev Singh Ajrawat'
tp626
a(S'1645640382'
S'Arjoonn Sharma'
tp627
a(S'100003312835966'
S'Chirag Cj'
tp628
a(S'100004916431391'
S'Pihu Gupta'
tp629
a(S'100003268764507'
S'Guruji Guruji'
tp630
a(S'100003126979041'
S'Sumit Rock'
tp631
a(S'643324158'
S'Vedika Sood'
tp632
a(S'1168371881'
S'Pratyush Shukla'
tp633
a(S'100000603352794'
S'Nikhil Khess'
tp634
a(S'100001341729197'
S'Nikhita Singh'
tp635
a(S'100006189216908'
S'Anupama Mohanty'
tp636
a(S'100002727378937'
S'Maneesh Kumar Jamwal'
tp637
a(S'761444120'
S'Anshuman Srivastava'
tp638
a(S'100003223696238'
S'Pawan Kumar'
tp639
a(S'100003774558072'
S'Abhi Pradhan'
tp640
a(S'1003724914'
S'Nipun Kalia'
tp641
asS'id'
p642
S'100000977233750'
p643
s.