(dp1
S'friends'
p2
(lp3
(S'100006561240203'
S'\\u0634\\u06cc\\u0631\\u0639\\u0644\\u06cc \\u0633\\u0644\\u0637\\u0627\\u0646'
tp4
a(S'100005854480448'
S'Hawaa Khan'
tp5
a(S'100008192941248'
S'Noorzia Afghan'
tp6
a(S'100001591958747'
S'Asif Khan'
tp7
a(S'100008103120017'
S'Sanam Ox'
tp8
a(S'100007373562323'
S'Noorjan Ahmadzai'
tp9
a(S'100000484180259'
S'Bilal Kocager'
tp10
a(S'100007928854459'
S'Amy Gill'
tp11
a(S'100006788923025'
S'Khan Ali'
tp12
a(S'100008085131543'
S'Sadia Begum'
tp13
a(S'100003842733735'
S'Okkes Ozzengin'
tp14
a(S'100006272772158'
S'Noormahmad Ahmadzai'
tp15
a(S'100004133113916'
S'Maxy Don Boxa'
tp16
a(S'1268401147'
S'Kerry Reynolds'
tp17
a(S'100002270087288'
S'Mohammad Armani'
tp18
a(S'100000379790395'
S'Akii Noori'
tp19
a(S'100004463850553'
S'Sumeera Naz'
tp20
a(S'100004171808394'
S'Sheragha Ahmadzai'
tp21
a(S'100002318874015'
S'Muhammad Wasim Ali'
tp22
a(S'100005015886035'
S'Mirzaman Ahmadzai'
tp23
a(S'1370395982'
S'Nemo Nawaz'
tp24
a(S'100006473126891'
S'Ifsah Ibrahim'
tp25
a(S'100001533064863'
S'Zabiullah Tasmeem'
tp26
a(S'100000662622623'
S'Gabriela Sarah Nischova'
tp27
a(S'100000651377383'
S'Joveria Fareed'
tp28
a(S'100006205412160'
S'Denise Denusik Klibaniova'
tp29
a(S'1357691800'
S'Rachel Jaikens'
tp30
a(S'100007769651033'
S'Charlotte Latham'
tp31
a(S'100007985884975'
S'Ayuob Ahmadzai'
tp32
a(S'100007399114733'
S'Qadir Ahmadzai'
tp33
a(S'100003986434883'
S'Shabana Khomar'
tp34
a(S'100006899495720'
S'Abdullah Khan'
tp35
a(S'100002582876817'
S'\\u00c7\\u00fct\\u00eb M\\u00e4\\u00f1\\u00f6'
tp36
a(S'100005166219351'
S'Yar Mafyah'
tp37
a(S'100007398607295'
S'SAraj Ahmadzi'
tp38
a(S'100008327827886'
S'Zakir Ahmadzai'
tp39
a(S'100006857650759'
S'Aiyat Hossaini'
tp40
a(S'100003271727771'
S'Bilal Khush'
tp41
a(S'100008063223926'
S'Noorzia Afghani'
tp42
a(S'100002924306717'
S'Haylee Louise Hallsworth'
tp43
a(S'100001889904537'
S'Sonia Princess Sonia'
tp44
a(S'100003469398986'
S'Laila Safi'
tp45
a(S'100000611703588'
S'Hamid Afg Solider'
tp46
a(S'100007784079201'
S'\\u06af\\u0644\\u0628\\u062f\\u06cc\\u0646 \\u0627\\u062d\\u0645\\u062f\\u0632\\u06cc'
tp47
a(S'100000415898955'
S'Sohail Khan'
tp48
a(S'100003932321378'
S'Yar Afg'
tp49
a(S'100005363979742'
S'Attiqullah Safi'
tp50
a(S'100003225021231'
S'Bahar Hamraz'
tp51
a(S'548946742'
S'Shoorty Sanna'
tp52
a(S'100002326533885'
S'Hasam Ahmady'
tp53
a(S'100007407493842'
S'Adam Khan'
tp54
a(S'100001122095671'
S'Kirby X Allen'
tp55
a(S'100003694416320'
S'Noorgulii Zama Spoogmai'
tp56
a(S'100004107816674'
S'Ehsan Khan'
tp57
a(S'100006592056678'
S'Misstah Umair'
tp58
a(S'100002926170836'
S'Noor Zamankehl'
tp59
a(S'100002085311776'
S'Mena Mangal'
tp60
a(S'100008363071386'
S'Zynullah Ahmadzai'
tp61
a(S'100002510924546'
S'Faima Afghan'
tp62
a(S'100000960522876'
S'Georgia Thompson'
tp63
a(S'100004074349140'
S'Marwa Jan'
tp64
a(S'100005825406633'
S'Demi Yasmin Khan'
tp65
a(S'100004939621321'
S'Shanks Afg'
tp66
a(S'100006566173389'
S'Aksaa Ox'
tp67
a(S'100003963763817'
S'Wali Khan'
tp68
a(S'100008295711659'
S'Pali Khan'
tp69
a(S'100002984470192'
S'Miistah Yar'
tp70
a(S'100001839595214'
S'Zahir Saill'
tp71
a(S'100007249655924'
S'Pachamir Ahmadzai'
tp72
a(S'100003292555312'
S'Habib Wtan Doust'
tp73
a(S'100007982492841'
S'Salma Stanikzai'
tp74
a(S'100000887533837'
S'Afmatin Khan'
tp75
a(S'100001931143794'
S'Emma Afg Khan'
tp76
a(S'100000631905102'
S'Qudrat Raihan'
tp77
a(S'100002368762374'
S'Javed Tanha'
tp78
a(S'100004841797960'
S'Khalid Jaan'
tp79
a(S'100005521533914'
S'Mustafa Pamir'
tp80
a(S'100003110532296'
S'Nas Afg'
tp81
a(S'100001572615634'
S'Rani Hussian'
tp82
a(S'100004132384856'
S'Tanya Ox'
tp83
asS'id'
p84
S'100001189886650'
p85
sS'name'
p86
S'Janni Dost Afg'
p87
s.