(dp1
S'name'
p2
S'Nishikant Deshmukh'
p3
sS'current_class'
p4
S'india'
p5
sS'home_class'
p6
Vamravati, maharashtra, india
p7
sS'home_text'
p8
VAmravati\u000aHometown
p9
sS'current_link'
p10
Vhttps://www.facebook.com/l.php?u=https%3A%2F%2Fwww.bing.com%2Fmaps%2Fdefault.aspx%3Fv%3D2%26pc%3DFACEBK%26mid%3D8100%26where1%3D21.070000345948%252C%2B79.269104003906%26name%3DNagpur%26mkt%3Den-IN&h=xAQHCnE96&s=1
p11
sS'home_link'
p12
Vhttps://www.facebook.com/l.php?u=https%3A%2F%2Fwww.bing.com%2Fmaps%2Fdefault.aspx%3Fv%3D2%26pc%3DFACEBK%26mid%3D8100%26where1%3D20.933300374092%252C%2B77.748870849609%26name%3DAmravati%26mkt%3Den-IN&h=QAQFsB5tp&s=1
p13
sS'current_text'
p14
VNagpur\u000aCurrent City
p15
sS'friends'
p16
(lp17
sS'id'
p18
S'100001701783597'
p19
s.