(dp1
S'friends'
p2
(lp3
(S'1315449163'
S'Mukesh Meshram'
tp4
a(S'100000172692535'
S'Ram Kumar Gupta'
tp5
a(S'100000824597384'
S'Zahid Mahmood'
tp6
a(S'1355743604'
S'Devendra Shrivastava'
tp7
a(S'778724870'
S'Shikha Nema'
tp8
a(S'832887499'
S'Vivek Thapa'
tp9
a(S'100002635342538'
S'Akhilesh Singh'
tp10
a(S'750045906'
S'Girish Kumar'
tp11
a(S'100000148309822'
S'Ashok Agarwal'
tp12
a(S'100004519093127'
S'Girish Pande'
tp13
a(S'1818968451'
S'Sunil Kurup'
tp14
a(S'1587461201'
S'Alok Verma'
tp15
a(S'100000911143227'
S'Rakesh Sharma'
tp16
a(S'624953876'
S'Govind Gupta'
tp17
a(S'100001287815110'
S'Sanjay Verma'
tp18
asS'id'
p19
S'100000074207626'
p20
sS'name'
p21
S'Aditya Goel'
p22
s.