(dp1
S'friends'
p2
(lp3
(S'1136654660'
S'Aditya Ravishankar'
tp4
a(S'1614450249'
S'Shradha Agrawal'
tp5
a(S'684513931'
S'Ashwin V Anand'
tp6
a(S'100001108734346'
S'Kushal Ganesh'
tp7
a(S'710382183'
S'Anusha Prasad'
tp8
a(S'1342853597'
S'Bharath Kashyap'
tp9
a(S'1162692363'
S'Sindhu Manjunath'
tp10
a(S'100002260532658'
S'Keerthana Srinivasan'
tp11
a(S'1221351579'
S'Swati Eswar'
tp12
a(S'1054898588'
S'Bhagirath Ashiya'
tp13
a(S'100001332600713'
S'Hema Murthy'
tp14
a(S'1764552824'
S'Shweta Gopal'
tp15
a(S'100005470240494'
S'Nandita Krishna'
tp16
a(S'100002908054029'
S'Priyanka Vaidyanath'
tp17
a(S'100000540072503'
S'Paul Albert'
tp18
a(S'542155170'
S'Shishir Bharadwaj'
tp19
a(S'100001126211759'
S'Sanidhya Arora'
tp20
a(S'100003182427811'
S'Sagar Panchamukhi'
tp21
a(S'728642171'
S'Naasha Anklesaria'
tp22
a(S'100002137752877'
S'Sushmitha S Jois'
tp23
a(S'100002253907295'
S'Varsha Sathish'
tp24
a(S'525010994'
S'Shashank Atreya'
tp25
a(S'565592506'
S'Shwetha Acharya'
tp26
a(S'100001739481154'
S'Kartikey Dudi'
tp27
a(S'1777324073'
S'Adithya Menon'
tp28
a(S'100000911037198'
S'Madhuri L Shastry'
tp29
a(S'597933121'
S'Abel Thayil'
tp30
a(S'617018432'
S'Arathy Kushalappa'
tp31
a(S'100000249175640'
S'Ronit Sarangi'
tp32
a(S'1541547127'
S'Dipti Pavan'
tp33
a(S'589418631'
S'Rayees Backer'
tp34
a(S'598961446'
S'Joshua Koshy'
tp35
a(S'100001585038469'
S'Arjun Ravishankar'
tp36
a(S'100001478353754'
S'Sanjay Kumar Rathod'
tp37
a(S'1246023025'
S'Sushant Dinesh'
tp38
a(S'697360214'
S"Carissa M. D' Almeida"
tp39
a(S'1204555858'
S'Yateesh Begoore'
tp40
a(S'100000502601165'
S'Pranay Kapur'
tp41
a(S'715822713'
S'Rituparna Sanyal'
tp42
a(S'643421481'
S'Mahamaya Chatterjee'
tp43
a(S'100000477938922'
S'Sagnik Dam'
tp44
a(S'100002227618613'
S'Anusha Harish'
tp45
a(S'100000813867465'
S'Suraj Chandrasekar'
tp46
a(S'1264299158'
S'Aditya Venkataraman'
tp47
a(S'1167897231'
S'Krishna Srinivasan'
tp48
a(S'715293600'
S'Sindhu Rajkumar'
tp49
a(S'100000171817249'
S'Mudit Mundkur'
tp50
a(S'100003514085878'
S'Jasmine Ligy'
tp51
a(S'1712042090'
S'Kalyani Desai'
tp52
a(S'100002203328746'
S'Aniketh Bharadwaj'
tp53
a(S'100000071943851'
S'Atisha Sisodiya'
tp54
a(S'100001047190895'
S'Abhishek Bagga'
tp55
a(S'776340242'
S'Aditya Mitra'
tp56
a(S'100000205726758'
S'Sangeetha Thomas'
tp57
a(S'626209881'
S'Nishanth Harikishan'
tp58
a(S'1155832183'
S'Nandita Bhakta'
tp59
a(S'100007202914003'
S'Pushpalatha M Narayanaswamy'
tp60
a(S'1047300364'
S'Andrew Chakrabarty'
tp61
a(S'100004550040609'
S'Nishant Kolla'
tp62
a(S'1452510845'
S'Medhaa Shankar'
tp63
a(S'100004010497261'
S'Vaisakh Shankar'
tp64
a(S'1734661715'
S'Medha Rao'
tp65
a(S'1026457212'
S'Rashmi R Koushik'
tp66
a(S'1180404503'
S'Harini Babu'
tp67
a(S'100000201140320'
S'Naman Awasthi'
tp68
a(S'560339812'
S'Bhargavi Balasundaram'
tp69
a(S'560337462'
S'Chandana Shivaram'
tp70
a(S'100001226436735'
S'Pavan Kumar S'
tp71
a(S'1642691467'
S'Gautam Suseel'
tp72
a(S'100004057531336'
S'Aditi Rao'
tp73
a(S'100000944688620'
S'Pari Prakash'
tp74
a(S'100001381934498'
S'Shrushti Mehta'
tp75
a(S'634714312'
S'Spurthy Akshar'
tp76
a(S'100002742873621'
S'Disha Dinakar'
tp77
a(S'636129320'
S'Sahana Srivathsa'
tp78
a(S'100001201577149'
S'Sneha Gprasad'
tp79
a(S'100003857085100'
S'Pramod R Rao'
tp80
a(S'1825021366'
S'Suraj Bharadwaj'
tp81
a(S'1127086654'
S'Maithree Mahesh'
tp82
a(S'568681794'
S'Vishal Srinivas'
tp83
a(S'100000105010240'
S'Samyuktha Patil'
tp84
a(S'657027881'
S'Radhika Sabnis'
tp85
a(S'1250328373'
S'Aishwarya Sriraman'
tp86
a(S'1276844247'
S'Adoksh Shastry'
tp87
a(S'100000433709373'
S'Kanahalli Vijeth'
tp88
a(S'100001289655924'
S'Shruthi Jacob'
tp89
a(S'100001018904128'
S'Sachin Shasthri'
tp90
a(S'100003836644381'
S'Priyamvada Janardhan'
tp91
a(S'706892400'
S'Ritu Parna'
tp92
a(S'100003702939144'
S'Priyanka Mandikal'
tp93
a(S'100000305964509'
S'Abhilash Kashyap'
tp94
a(S'1295342627'
S'Shashank Nair'
tp95
a(S'783404720'
S'Nandita Narayan'
tp96
a(S'563570697'
S'Aadya Misra'
tp97
a(S'100001539645890'
S'Umang Srivastav'
tp98
a(S'100001622322309'
S'Alwyn Sebastian'
tp99
a(S'100001535379757'
S'Pranav Bhat'
tp100
a(S'100000296029827'
S'Udit Seth'
tp101
a(S'100000899246797'
S'Anand Gopalakrishnan'
tp102
a(S'100001032049921'
S'Tejus Sreepad'
tp103
a(S'587881642'
S'Savithran Ramesh'
tp104
a(S'632096304'
S'Amrutha Jalihal'
tp105
a(S'1420898361'
S'Nachiketa Singh'
tp106
a(S'100002654261597'
S'Neeti Murthy'
tp107
a(S'100002195368806'
S'Akhil Nene'
tp108
a(S'100002240044148'
S'Omkar B Prabu'
tp109
a(S'1591330291'
S'Varsha Yogish'
tp110
a(S'1112173014'
S'Savyasachi Jagadeeshan'
tp111
a(S'100006691180105'
S'Mythri Ram Mohan'
tp112
a(S'100000472341910'
S'Priya Kale'
tp113
a(S'100007054753620'
S'AnuRag SiNgh'
tp114
a(S'1143819302'
S'Heba Sara Abraham'
tp115
a(S'1150944571'
S'Nikitha Nj S'
tp116
a(S'100006171093461'
S'Aneesh Kanth'
tp117
a(S'1698574241'
S'Nirankush Kenjige'
tp118
a(S'100002371599615'
S'Pallav Mishra'
tp119
a(S'100001073310003'
S'Prajwal Rao'
tp120
a(S'100002261483471'
S'Snigdha Ravi'
tp121
a(S'645610546'
S'Aayushi Mishra'
tp122
a(S'1455735615'
S'Sparshith Sampath'
tp123
a(S'100000029327358'
S'Sribhashyam Saisriram'
tp124
a(S'100001316511389'
S'Pragna Shekar'
tp125
a(S'100000617829363'
S'Vishwas Madi'
tp126
a(S'1105288216'
S'Sandeep Moudgalya'
tp127
a(S'100003142754458'
S'Erika Kasba'
tp128
a(S'1174447453'
S'Sharadindu Jana'
tp129
a(S'1107433235'
S'Manasa Ram Raj'
tp130
a(S'100001330415633'
S'Arunav Kaul'
tp131
a(S'100002041082553'
S'Rashmi Ramesh'
tp132
a(S'1238602266'
S'Tushita Prasad'
tp133
a(S'100000797239023'
S'Arjun Kg'
tp134
a(S'649123550'
S'Anish Munu'
tp135
a(S'1838514400'
S'Mayank Sharma'
tp136
a(S'1420172093'
S'Aradhyanayan Tiwari'
tp137
a(S'100003708824915'
S'Paramita Banerjee'
tp138
a(S'100003144829261'
S'Aditya Lh'
tp139
a(S'598085320'
S'Nakul Ganapathy'
tp140
a(S'735330601'
S'Srihari Shankar'
tp141
a(S'100000585268426'
S'John Jv'
tp142
a(S'100000680085524'
S'Harsha A Dass'
tp143
a(S'100004281064167'
S'Akash Dubey'
tp144
a(S'780123792'
S'Aishvarya Varma'
tp145
a(S'1825351978'
S'Seema Sathyanarayana'
tp146
a(S'1463890139'
S'Ashwini Shridhar'
tp147
a(S'100000172171393'
S'Bhanu Samyal'
tp148
a(S'100000191640280'
S'Aravind Kommineni'
tp149
a(S'1032991465'
S'Vaidehi Shankar'
tp150
a(S'566986207'
S'Santhosh Ns'
tp151
a(S'527977148'
S'Zeeshan Patel'
tp152
a(S'100000425787707'
S'Shorya Vardhan'
tp153
a(S'100008025120255'
S'Nikhil Kumar'
tp154
a(S'734325575'
S'Prerna Ponappa'
tp155
a(S'735268503'
S'Samartha Chaitanya R'
tp156
a(S'1353944224'
S'Jayashankar Warrier'
tp157
a(S'100000173284955'
S'Aiyappa KG'
tp158
a(S'100001122785636'
S'Kruthika Ravindra'
tp159
a(S'613603763'
S'Bharath Rajan'
tp160
a(S'100000046214942'
S'Chaarvi Chiduruppa'
tp161
a(S'560726799'
S'Pradvay Sivashankar'
tp162
a(S'1573816323'
S'Keshav Raghu'
tp163
a(S'100000999549012'
S'Manisha Sudharshan'
tp164
a(S'100002409609892'
S'Tanvi R Pillai'
tp165
a(S'100000957593514'
S'Nisha Magalam'
tp166
a(S'641583830'
S'Saptarshi Banerjee'
tp167
a(S'100000933762433'
S'Sai Sruti S'
tp168
a(S'100000951618645'
S'Aditi Venkatesh'
tp169
a(S'1085554887'
S'Sanjith Prahas'
tp170
a(S'645417877'
S'Prerana Sridhar'
tp171
a(S'1513314794'
S'Adithya Mk'
tp172
a(S'627202078'
S'Sumukh Kashyap'
tp173
a(S'1075694103'
S'Anjali Dwivedi'
tp174
a(S'618073558'
S'Arvind Velu'
tp175
a(S'725814683'
S'Rakshitha Anil'
tp176
a(S'100000780313624'
S'Nishanth Kadur'
tp177
a(S'100001086190394'
S'Ashwij Ramaiah'
tp178
a(S'1193312298'
S'Aakanksha N Sastry'
tp179
a(S'100001206160830'
S'Shreyaa Gprasad'
tp180
a(S'1207235920'
S'Madhusudan Raman'
tp181
a(S'1078338458'
S'Vikhyat Oberoi'
tp182
a(S'100001219174210'
S'Darshini Ravishankar'
tp183
a(S'1760726048'
S'Joseph Thaliath'
tp184
a(S'1460250994'
S'Saarthak Narsipur'
tp185
a(S'100000468052929'
S'Sameera Sayed'
tp186
a(S'716361230'
S'Medha Rao'
tp187
a(S'100000373970005'
S'Krutika Khare'
tp188
a(S'1109705158'
S'Neha Agarwal'
tp189
a(S'100000904252338'
S'Smitha Sanjeev'
tp190
a(S'1496848356'
S'Vinit Shah'
tp191
a(S'100001280190261'
S'Mohana Bhargava'
tp192
a(S'1141772168'
S'Omkar Nadiger'
tp193
a(S'609589596'
S'Supraja Prasad'
tp194
a(S'1386039737'
S'Gautam Kesh'
tp195
a(S'100001020882432'
S'Vinay Venugopal'
tp196
a(S'1676580916'
S'Siddharth Kheskani'
tp197
a(S'100000480000657'
S'Shreyas Simha'
tp198
a(S'1502551059'
S'Abhilasha Ram'
tp199
a(S'100000146171569'
S'Ilam Paridi'
tp200
a(S'1590263399'
S'Deepta Seshadri'
tp201
a(S'1132490781'
S'Kshitij Kashyap'
tp202
a(S'686437438'
S'Samyuktha Suresh'
tp203
a(S'636923735'
S'Koka Tarini Siddhartha'
tp204
a(S'100001106826014'
S'Indulekha Koundinya'
tp205
a(S'1219329662'
S'Priya Kolisetty'
tp206
a(S'1007307191'
S'Aravind Ramesh'
tp207
a(S'100004052540427'
S'Rohit Hooda'
tp208
a(S'100000900686973'
S'Sai Vardhan'
tp209
a(S'100000275212766'
S'Pavan Tej'
tp210
a(S'100001069340039'
S'Shubham Shastri'
tp211
a(S'602641425'
S'Aditya Pandey'
tp212
a(S'100001146757126'
S'Jagruthi Reddy'
tp213
a(S'100002855659953'
S'Suraj Kumar'
tp214
a(S'822573956'
S'Aashima Panikar'
tp215
a(S'100000961534340'
S'Savitha Sameerdas'
tp216
a(S'100006846637216'
S'Shridhar Chinni'
tp217
a(S'100000728862105'
S'Sahana Rao'
tp218
a(S'100002587269430'
S'Bharath Rangaswamy'
tp219
a(S'100001650879051'
S'Akhy Akhila'
tp220
a(S'100000450355085'
S'Anirudh Vasudev'
tp221
a(S'100003732306534'
S'Sucheth Ramprasad'
tp222
a(S'599147944'
S'Aditya Chavali'
tp223
a(S'1037460921'
S'Prithvi Poona'
tp224
a(S'100003883135999'
S'Shruthi Prakash'
tp225
a(S'100003776081413'
S'Annapoorna G Jois'
tp226
a(S'100000038740769'
S'Jawahar Krishna'
tp227
a(S'1576945357'
S'Mohana Krishna'
tp228
a(S'1505875018'
S'Srivathsan Jayaraman'
tp229
a(S'100000113607357'
S'Nireeksha Gowda'
tp230
a(S'1232664870'
S'Shashwat Singh'
tp231
a(S'100000083119051'
S'TejaSvi ShaRma'
tp232
a(S'1195012736'
S'Shishir Moyade'
tp233
a(S'593605373'
S'George Sebastian'
tp234
a(S'1726070319'
S'Somesh Rathore'
tp235
a(S'100003759477602'
S'Vivek KR'
tp236
a(S'1441317615'
S'Ishaana Aiyanna'
tp237
a(S'740018906'
S'Nandita Bose'
tp238
a(S'100003227368591'
S'Aditya Subramanyam'
tp239
a(S'1490160869'
S'Rouble Sorkkar'
tp240
a(S'100000591272639'
S'Achyuth Menon'
tp241
a(S'1126145572'
S'Ajith Viswanathan'
tp242
a(S'587436414'
S'Ananth Acharya'
tp243
a(S'1471986425'
S'Peri Nikhil'
tp244
a(S'788594858'
S'Bhavesh Choudhary'
tp245
a(S'560369993'
S'Arjav Jain'
tp246
a(S'1073034858'
S'Aishwarya Prasad'
tp247
a(S'100000298449585'
S'Aniket Joshi'
tp248
a(S'1121052988'
S'Pradyoth Hegde'
tp249
a(S'716431431'
S'Priyanka Bhat'
tp250
a(S'1099226948'
S'Sahhana Reddy'
tp251
a(S'1662857187'
S'Tejaswi Gopinath'
tp252
a(S'1001011734'
S'Vishnu Anand'
tp253
a(S'1365261934'
S'Rahul Dev'
tp254
a(S'602720423'
S'Shweta Sadanandan'
tp255
a(S'714631154'
S'Rajath Sridhara'
tp256
a(S'100000668386623'
S'Ayush Aggarwal'
tp257
a(S'1698211697'
S'Danny Mynha'
tp258
a(S'1275685970'
S'Sinchana Bhagavan'
tp259
a(S'1094122741'
S'Leila Srinivasan'
tp260
a(S'1448207304'
S'Sarena Beriwala'
tp261
a(S'100002134355866'
S'Abraham Mathan'
tp262
a(S'1217918993'
S'Manjusha Ghatke'
tp263
a(S'1090166680'
S'Zikran Shamshuddin'
tp264
a(S'628100571'
S'Dhruva Suresh'
tp265
a(S'100000600292779'
S'Shreyas Cn'
tp266
a(S'565016921'
S'Lavanya Bhaskar Ananth'
tp267
a(S'100002072805331'
S'Manas Mehrotra'
tp268
a(S'551695220'
S'Mahim John Kamath'
tp269
a(S'1221974992'
S'Vishnu Kumar'
tp270
a(S'100001418735839'
S'Anushree Khanna'
tp271
a(S'1126841888'
S'Krishna Teja'
tp272
a(S'100003966139114'
S'Chirag Shyamsundar S'
tp273
a(S'1197932968'
S'Srikar Naga'
tp274
a(S'100001498657948'
S'Eldhose Sunny'
tp275
a(S'1200272373'
S'Bharadwaj Kulkarni'
tp276
a(S'1109285607'
S'Jyothi Suresh'
tp277
a(S'1529012338'
S'Rahul Raman'
tp278
a(S'1102212918'
S'Aneesh Subramanya'
tp279
a(S'100004024660844'
S'Sneha Banerjee'
tp280
a(S'1125535242'
S'Bhushita Seshadri'
tp281
a(S'100000964364222'
S'Sugandha Bhushan'
tp282
a(S'703688953'
S'Aditya Chatterjee'
tp283
a(S'100001291247074'
S'Naincy Jain'
tp284
a(S'1394134051'
S'Afaan Arshad'
tp285
a(S'100002022918017'
S'Abhishek Patil'
tp286
a(S'1175050507'
S'Neeraj Sastry'
tp287
a(S'100000293961335'
S'Raghu Nath'
tp288
a(S'694930003'
S'Sanaaya R Doust'
tp289
a(S'100001469878920'
S'Nikhil Rao'
tp290
a(S'100002046023121'
S'Appoorva K Anil'
tp291
a(S'100000266220232'
S'Rency George'
tp292
a(S'1644443136'
S'Sharath Nambiar'
tp293
a(S'1321290834'
S'Avneesh Chandra'
tp294
a(S'646669526'
S'Anirudh Buddhiraju'
tp295
a(S'1547304595'
S'Apoorva Uday Shankar'
tp296
a(S'1741260268'
S'Harshith Balakrishna'
tp297
asS'id'
p298
S'100007568582425'
p299
sS'name'
p300
S'Medha Ghatge'
p301
s.