(dp1
S'friends'
p2
(lp3
(S'603472410'
S'Vivek Bahl'
tp4
a(S'1838943911'
S'Harman Kour'
tp5
a(S'726903628'
S'Deepak Chandhok'
tp6
a(S'1080872787'
S'Ojaswi Tagore'
tp7
a(S'1793293188'
S'Sunny Saurav'
tp8
a(S'1226263259'
S'Kshitij Gupta'
tp9
a(S'100001052445795'
S'Harsh Srivastava'
tp10
a(S'544347098'
S'Vinayak Bharti'
tp11
a(S'100000585167093'
S'Onkar Desai'
tp12
a(S'707912069'
S'Ayush Ranjan'
tp13
a(S'1328145572'
S'Anurag Banerjee'
tp14
a(S'597933121'
S'Abel Thayil'
tp15
a(S'1103423921'
S'Ak Shukla'
tp16
a(S'1263994824'
S'Poojitha Reddy GV'
tp17
a(S'1115893057'
S'Keerthi Teja'
tp18
a(S'1000570045'
S'Sandeep Reddy'
tp19
a(S'100000623299898'
S'Nikhil Kale'
tp20
a(S'1668459153'
S'Roy Joseph'
tp21
a(S'100002166007522'
S'Mac OnlineTeam'
tp22
a(S'1304161362'
S'Karan Gupta'
tp23
a(S'623190117'
S'Gurleen Kaur'
tp24
a(S'746543477'
S'Abhishek Biswas'
tp25
a(S'100000220131292'
S'William Marinus'
tp26
a(S'100000042341534'
S'Naresh Vinay'
tp27
a(S'775655386'
S'Gautam Bhargav Viswanathan'
tp28
a(S'100001009823918'
S'Mohit Pundir'
tp29
a(S'100000446787736'
S'Dev Mehra'
tp30
a(S'1085586998'
S'Himanshu Dhamankar'
tp31
a(S'588261566'
S'Kritarth Jha'
tp32
a(S'100001117083391'
S'Dhwanil Panchal'
tp33
a(S'1129614968'
S'Rohit Prabhudesai'
tp34
a(S'1264708135'
S'Saiket Talukdar'
tp35
a(S'1603267127'
S'Arunima Suresh'
tp36
a(S'505345217'
S'Mvl Manikantan'
tp37
a(S'803745827'
S'Avnika Jain'
tp38
a(S'1173527786'
S'Darshan Gowda'
tp39
a(S'681834497'
S'Anirudh Singh'
tp40
a(S'100000934338364'
S'Jordan Kinchum Tshering Namchu'
tp41
a(S'100001319118176'
S'Cricket Arsenal'
tp42
a(S'100000609043373'
S'Ashok Vardhan'
tp43
a(S'793843208'
S'Jasjeev Singh'
tp44
a(S'100001283151051'
S'Soy Shaikh'
tp45
a(S'1785860157'
S'Rohan Daftary'
tp46
a(S'634607833'
S'Masood Mohammed'
tp47
a(S'100000846727789'
S'Kanishk Shukla'
tp48
a(S'1241426519'
S'Mohit L. Mohanty'
tp49
a(S'1534659895'
S'Raunaq Surana'
tp50
a(S'100004899965577'
S'Suyog Mishra'
tp51
a(S'100000888769829'
S'Pro Automods'
tp52
a(S'603420090'
S'Sayan Maitra'
tp53
a(S'1293519287'
S'Shyam Schweini Wenger'
tp54
a(S'100001018583685'
S'Kapil Sathe'
tp55
a(S'100000517700391'
S'Ranganath Dommalapati'
tp56
a(S'1103001687'
S'Ajit Deshpande'
tp57
a(S'515916243'
S'Arnav Singh Bisht'
tp58
a(S'1485741911'
S'Shamir Reuben'
tp59
a(S'100003727041838'
S'Sagar Darne'
tp60
a(S'100002288563677'
S'Sree Nayani Kodali'
tp61
a(S'100001030731547'
S'Rudra Narayan Saha'
tp62
a(S'1337460254'
S'Mitali Poovayya'
tp63
a(S'100001942842504'
S'Akshay K Kolte'
tp64
a(S'100003971440814'
S'Kaustubh Awasthi'
tp65
a(S'100002270411937'
S'Rajeev Ghotar'
tp66
a(S'1080026202'
S'Pujith Thomas Jose'
tp67
a(S'100000028684989'
S'Rishabh Chordia'
tp68
a(S'100000018298852'
S'Abhishek Mali'
tp69
a(S'100000722529762'
S'Tanya Sharma'
tp70
a(S'100004122223178'
S'Rahul Dev'
tp71
a(S'1665495404'
S'Abhinav Mahesh'
tp72
a(S'1241481613'
S'Reuben Das'
tp73
a(S'100000045652066'
S'Sonali Verma'
tp74
a(S'100000728839436'
S'Siddharth Shankar'
tp75
a(S'659235489'
S'Kerovin Black'
tp76
a(S'541875594'
S'Shankul Varada'
tp77
a(S'100002507078563'
S'Palak Agarwal'
tp78
a(S'100003134333265'
S'Amal David'
tp79
a(S'1204562904'
S'Urvashi Pathak'
tp80
a(S'1508614330'
S'Abhinav Tripathi'
tp81
a(S'100000422275214'
S'Jacob Thomas'
tp82
a(S'100000520884398'
S'Yash Vashistha'
tp83
a(S'100003775470137'
S'Gaurish Kant Shukla'
tp84
a(S'1373263444'
S'Rakesh Tiberius Kirk'
tp85
a(S'100001988937930'
S'Chandrima Attri'
tp86
a(S'100001975849726'
S'Utkarsh Arsenal Chopra'
tp87
a(S'1220867364'
S'Glen Shorey'
tp88
a(S'100000103738011'
S'Tanuj Gooner Dalal'
tp89
a(S'100000088545006'
S'Yardo Clari\\u0144do Dos Santos'
tp90
a(S'1377170843'
S'Mihir Haryal'
tp91
a(S'100002268443034'
S'James Ford'
tp92
a(S'648188098'
S'Aniruddha Badbade'
tp93
a(S'1491808160'
S'Puneet Sharma'
tp94
a(S'1127050808'
S'Adithya Code'
tp95
a(S'751792274'
S'Samritpal Singh'
tp96
a(S'100000545456325'
S'Selvin Jose'
tp97
a(S'100003773214259'
S'Gurlove Kahlon'
tp98
a(S'1488988171'
S'Meenu Thangam'
tp99
a(S'548344709'
S'Raghav Dahuja'
tp100
a(S'100000477963258'
S'ShaGun Choudhary'
tp101
a(S'100000779064635'
S'Ahan Rajiv'
tp102
a(S'100000057527153'
S'Manasij Pal Chowdhury'
tp103
a(S'1645640382'
p104
S'Arjoonn Sharma'
tp105
a(S'1198844455'
S'Gagandeep Panwar'
tp106
a(S'629601229'
S'Aina Jane-Frances D Hassan'
tp107
a(S'100000904501978'
S'Akash Deep'
tp108
a(S'100000326042202'
S'Shresth Kumar'
tp109
a(S'518615249'
S'Divyansh Gupta'
tp110
a(S'100002966317315'
S'Piyush Gupta'
tp111
a(S'656476486'
S'Nikita Minotra'
tp112
a(S'100001419602426'
S'Blaze India'
tp113
a(S'2235344'
S'Adithya Varadarajan'
tp114
a(S'1530227397'
S'Sruthi Shiva'
tp115
a(S'1595235508'
S'Arjoon Pande'
tp116
a(S'1240526423'
S'Ravjyot Singh'
tp117
a(S'1061245230'
S'Dan RedArmy Owers'
tp118
a(S'689103806'
S'Sarthak Arun'
tp119
a(S'100000692697439'
S'Akshay Kalke'
tp120
a(S'562249947'
S'Bertrand Dsouza'
tp121
a(S'1845937086'
S'Madhur Choudhary'
tp122
a(S'1413205497'
S'Sree Vuthaluru'
tp123
a(S'1312204917'
S'Ribhav Pande'
tp124
a(S'100000723057259'
S'David Marshall Scully'
tp125
a(S'100004040742358'
S'Aditendra Singh Chandel'
tp126
a(S'1645166679'
S'Yash Rambo Todi'
tp127
a(S'100001063677102'
S'Sukrit Joshi'
tp128
a(S'100000960462351'
S'Prathamesh Amble'
tp129
a(S'100000566214346'
S'Sukriti Kumar'
tp130
a(S'100001211395233'
S'Deeksha Afc Nole'
tp131
a(S'707327449'
S'Anirudh Goyal'
tp132
a(S'1309415030'
S'Jishnu Sudarshan'
tp133
a(S'100000542151802'
S'Ujjwal Sannala'
tp134
a(S'100000890652349'
S'Abhineet Kaushik'
tp135
a(S'1187264461'
S'Rohan Sinha'
tp136
a(S'100004773273603'
S'Rehan Conyers'
tp137
a(S'100002400918955'
S'Afc Red White'
tp138
a(S'100001641160459'
S'Sudhanshu Singh Panwar'
tp139
a(S'1658922609'
S'Aditya Gupta'
tp140
a(S'100004366412846'
S'Atima Shahi'
tp141
a(S'100002403431652'
S'Kopal Dixit'
tp142
a(S'100000318425466'
S'Burnyourfuel India'
tp143
a(S'100002976337436'
S'Delhi Gooners'
tp144
a(S'100000685382975'
S'Abhinay Raonic'
tp145
a(S'587616821'
S'Dhruv Vanka'
tp146
a(S'100004153562446'
S'Anthony Hawke'
tp147
a(S'1636386248'
S'Shourya Awasthi'
tp148
a(S'557262421'
S'Cara Anne Santiago'
tp149
a(S'100001234934908'
S'Abhinav Choudhary'
tp150
a(S'100000067600638'
S'Mihir Kumar'
tp151
a(S'100001935589210'
S'Suhas Ghanta'
tp152
a(S'1033248058'
S'Saloni Gupta'
tp153
a(S'100000050921608'
S'Shubham Ruhela'
tp154
a(S'100006484982593'
S'Ananya Mishra'
tp155
a(S'1837492658'
S'Mukund Marodia'
tp156
a(S'1105530559'
S'Mohit Vyas'
tp157
a(S'1169850842'
S'Nipun Malhotra'
tp158
a(S'100002062911608'
S'Cars Arena'
tp159
a(S'100000789935550'
S'Pulkit Shukla'
tp160
a(S'100000559643067'
S'Nikhil Patnaik'
tp161
a(S'610949675'
S'Karan Singh Mankotia'
tp162
a(S'1108347222'
S'Sagnik Dey'
tp163
a(S'100001826952560'
S'Kunal Shukla'
tp164
a(S'1233533135'
S'Sunanda Rajmohan'
tp165
a(S'100003448604182'
S'Arvind Kumar'
tp166
a(S'100004236704238'
S'Pragati Mishra'
tp167
a(S'100003783593388'
S'Ajinkya Kulkarni'
tp168
a(S'1617038300'
S'Aakash Shukla'
tp169
a(S'100000693144966'
S'Rashi Shukla'
tp170
a(S'799663373'
S'Rupal Chandra'
tp171
a(S'1063787150'
S'Amitrajeet Mukherjee'
tp172
a(S'100000703018397'
S'Ayush Rai'
tp173
a(S'1593084569'
S'Sachu Sanil Chemmalakuzhy'
tp174
asS'id'
p175
S'100001496123410'
p176
sS'name'
p177
S'Varun Shukla'
p178
s.