(dp1
S'friends'
p2
(lp3
(S'100002129148405'
S'Toryalai Adel'
tp4
a(S'100007567321606'
S'Nasrullah Sarfraz'
tp5
a(S'100005857394147'
S'Atiqullah Sarfraz'
tp6
a(S'519256005'
S'Mirwais Sarfraz Hadel'
tp7
a(S'100002061423746'
S'Abdul Matin Sarfraz'
tp8
a(S'100003406458859'
S'Sardaar Bedaar Wardak'
tp9
a(S'100003271188276'
S'Naseer Ashraf Kharotai'
tp10
a(S'100004571700497'
S'Habibullah Zaland'
tp11
a(S'100003052882032'
S'Najibullah Sarfaraz'
tp12
a(S'100007374733898'
S'Najibullah Sarfaraz'
tp13
a(S'100000702946799'
S'Haroon Sarfaraz'
tp14
a(S'100003571883541'
S'Taj Mohammad Kakar'
tp15
a(S'100008181579695'
S'Nangyali Sarfaraz'
tp16
a(S'538327407'
S'Basher Sarfraz'
tp17
a(S'100005501560919'
S'Jumadin Kharoti'
tp18
a(S'100002085311776'
S'Mena Mangal'
tp19
a(S'100004691015820'
S'Osman Mirzad'
tp20
a(S'100001902994316'
S'Razmal Sardar'
tp21
a(S'100004252983435'
S'Muhammad Yasin Hamdard Kharotai'
tp22
a(S'100002126742344'
S'AllahMohammad Utmanzai'
tp23
a(S'100000636600360'
S'Nesar Ahmad Yousifzay'
tp24
a(S'100000622808134'
S'HK Chashmaan'
tp25
a(S'100005912704650'
S'Bashir Kharoti'
tp26
a(S'100000213669985'
S'Ajmal Sarfraz'
tp27
a(S'100003168744646'
S'Rohullah Utmanzai'
tp28
a(S'100001260277028'
S'Dost Mohammad Sarferaz'
tp29
asS'id'
p30
S'100008322420635'
p31
sS'name'
p32
S'Zabiullah Sarfaraz'
p33
s.