(dp1
S'friends'
p2
(lp3
(S'100001373361980'
S'Faiza Ali'
tp4
a(S'100002682065178'
S'Raja Arsalan'
tp5
a(S'100001428395894'
S'ALi MaLik'
tp6
a(S'100001604760599'
S'Aysha Mirza'
tp7
a(S'100001688973886'
S'Obaid Bin Mehmood'
tp8
a(S'100001541682342'
S'O\\u0140\\u0111 S\\u0137\\u0169\\u0142\\u0142'
tp9
a(S'100000830045788'
S'Rubab Khan'
tp10
a(S'100000592913734'
S'Ehtisham Ahmed EMmii'
tp11
a(S'100001420694844'
S'Samina Malik'
tp12
a(S'100001381472093'
S'Hassan Mughal'
tp13
a(S'100001363796871'
S'ReHan Ya\\u01a7in'
tp14
a(S'100002591057685'
S'Saad Maqbool'
tp15
a(S'100001992631453'
S'Ahmed Attique'
tp16
a(S'100001495661590'
S'Farhan Nehmat'
tp17
a(S'100001461026869'
S'Awais Rizwan'
tp18
a(S'100001242885436'
S'Farwa Nawaz Farwa'
tp19
a(S'100001381965610'
S'Farooq Ahmed'
tp20
a(S'100001074145469'
S'Princess Mehak'
tp21
a(S'100002815126294'
S'Sana Ijaz'
tp22
a(S'100002274474780'
S'Sonia Waqar'
tp23
a(S'100001267006836'
S'Aysha Noor'
tp24
a(S'100001956041832'
S'Khan Arman'
tp25
a(S'100001355899426'
S'Aisha Khan'
tp26
a(S'100001644382589'
S'Sana Khan'
tp27
a(S'100001459510690'
S'Fazal Mehmood'
tp28
a(S'100002526960339'
S'Sadiya Khan Sadiya'
tp29
a(S'100002729378537'
S'Haseeb Abdullah'
tp30
a(S'100001256807367'
S'Laiq Rehman'
tp31
a(S'100002647968672'
S'Ahmad Nadeem'
tp32
a(S'100001486344974'
S'Anoushe Kazmi'
tp33
a(S'100001032436532'
S'Zahad Jamshad G'
tp34
a(S'100001326707375'
S'Zeyneb Banu'
tp35
a(S'100001093238759'
S'Shermeen Khan'
tp36
a(S'100002286222485'
S'Amir Sadiq'
tp37
a(S'100001630992752'
S'Tahir Qadri'
tp38
a(S'100000447125888'
S'Asma Khan'
tp39
a(S'100001392371488'
S'Prince Hamid Saeed'
tp40
a(S'100001627849658'
S'Robert Nafter'
tp41
a(S'100001707223452'
S'Archana Shah'
tp42
a(S'100001477375141'
S'Maya Malik'
tp43
a(S'100002931624720'
S'Umair Maqbool Umair Maqbool'
tp44
a(S'100001778714887'
S'Abu Obedah'
tp45
a(S'100001707090478'
S'Maria Mukhtar'
tp46
a(S'100001362723567'
S'Steel Wating'
tp47
a(S'100002571403398'
S'Redroze Dolli'
tp48
a(S'100002298104178'
S'Taniya Khan'
tp49
a(S'100002864177148'
S'Abdullah Shabir'
tp50
a(S'100001801716359'
S'Aamir Chaudhry'
tp51
a(S'100001942891086'
S'Ubaidullah Samo'
tp52
a(S'100002245771160'
S'Hw Waqas'
tp53
a(S'100001291630646'
S'Samreena Khan'
tp54
a(S'100001607651201'
S'Mehwish Ata Ata'
tp55
a(S'100000594295207'
S'Zaibu Nisa'
tp56
a(S'100002138781469'
S'Fahad Aslam'
tp57
a(S'100000141823329'
S'Jee Khan Jee'
tp58
a(S'100002518189445'
S'Princess Anum'
tp59
a(S'100001085824334'
S'Sana Mirza'
tp60
a(S'100001367104440'
S'Imran Iqbal'
tp61
a(S'100000562468808'
S'Ali Jamil'
tp62
a(S'100001330608072'
S'Mahmood Ahmed'
tp63
a(S'100001479070856'
S'Sana Butt'
tp64
a(S'100001326349224'
S'Ujala Hayat'
tp65
a(S'100001240368807'
S'Zahid Jamshaid'
tp66
a(S'100001404273588'
S'Ammar Akram'
tp67
a(S'100001558400722'
S'Daniyal Dani'
tp68
a(S'100001223237640'
S'Fatima Naveed'
tp69
a(S'100001542465685'
S'Rana Adnan'
tp70
a(S'100001446120384'
S'Rizwana Sayeeda'
tp71
a(S'100000136042873'
S'Abdul Wahid'
tp72
a(S'100001069985651'
S'Mubassir Ali Bangash'
tp73
a(S'100000929304199'
S'Maha Ali'
tp74
a(S'100000988184856'
S'Mona Ali'
tp75
a(S'100001252612395'
S'Awais Malik'
tp76
a(S'838710053'
S'Ahad Jamshaid'
tp77
a(S'100002409458086'
S'Wasim Afzal'
tp78
a(S'1763122424'
S'Husnain Javed'
tp79
a(S'100000878827162'
S'Qasim Ali'
tp80
a(S'100001392651778'
S'Aalia Malik'
tp81
a(S'1743802634'
S'Kh Arslan'
tp82
a(S'100001587530289'
S'Amna Khan'
tp83
asS'id'
p84
S'100001635669875'
p85
sS'name'
p86
S'Kamran Riaz'
p87
s.