(dp1
S'friends'
p2
(lp3
(S'100002265759607'
S'Farahnaz Forotan'
tp4
a(S'1342441322'
S'Khalid Maqsodi'
tp5
a(S'610551325'
S'Sher Jan Ahmadzai'
tp6
a(S'100000179580656'
S'Abdullah Azada Khenjani'
tp7
a(S'1506039237'
S'Mohammad Aalem Abdullah Sarwary'
tp8
a(S'1417334318'
S'Sayed Mahdi Kazemi'
tp9
a(S'617147618'
S'Mujtaba Faiz'
tp10
a(S'100000605921363'
S'Nasrat Jamil'
tp11
a(S'1579015616'
S'Aryan Hadi Aryan Hadi'
tp12
a(S'1615654794'
S'Bashir Ansari'
tp13
a(S'1665681460'
p14
S'Ahmad Samim'
tp15
a(S'100000521154654'
S'Naim Poia'
tp16
a(S'100001848541036'
S'Qasim Rahimi'
tp17
a(S'1272383318'
S'Faisal Karimi'
tp18
a(S'100001914708710'
S'Mir Zaki Ansari'
tp19
a(S'1670225431'
p20
S'Najib Mayar'
tp21
a(S'673303361'
S'Jawid Naimi'
tp22
a(S'100001591760671'
S'Bashir Ahmad Qasani'
tp23
a(S'100002439317171'
S'Ajmal Khuram'
tp24
a(S'1099692934'
S'Najib Amiri'
tp25
a(S'100000738915544'
p26
S'Saboor Raoufi'
tp27
a(S'100002027608079'
S'Fahim Ghoori'
tp28
a(S'100002441522834'
S'Ali Eftekhari'
tp29
a(S'100001585633897'
S'Waheed Gharwal'
tp30
a(S'1140214756'
S'Sami Mahdi'
tp31
a(S'100002278684428'
S'Abdul Qahar Jawad'
tp32
a(S'100002460007607'
S'Baktash Siawash'
tp33
a(S'100000218872871'
S'\\u062d\\u0628\\u064a\\u0628 \\u0642\\u0648\\u064a\\u0627\\u0634'
tp34
a(S'100000517114382'
S'Naweed Bakhshi'
tp35
a(S'100000131791731'
S'Jamail Faried Kabiry'
tp36
a(S'100002318625770'
S'\\u0628\\u0631\\u06cc\\u0627\\u0644\\u06cc \\u062d\\u0627\\u0645\\u062f'
tp37
a(S'519440496'
S'Tamim Hamid'
tp38
a(S'1680576913'
S'Ahmad Khalil Niazai'
tp39
a(S'100001497114472'
S'Zhwand Zindagee'
tp40
a(S'100000211534693'
S'Mohammad Shafiq Hamdam'
tp41
a(S'100001307735903'
S'Khalid Ahmad Zahid'
tp42
a(S'100000233508158'
S'Zekria Amini'
tp43
a(S'1496757594'
S'Sayed Ali Kazemi'
tp44
a(S'1507659638'
S'Mohammad Salem Wahdat'
tp45
a(S'100000005075043'
S'Na Wid'
tp46
a(S'715125474'
S'Mukhtar Soar'
tp47
a(S'100002085311776'
p48
S'Mena Mangal'
tp49
a(S'100001813940727'
p50
S'Rohullah Ahmadzai'
tp51
a(S'100000353000000'
S'Masoud Mahdi'
tp52
a(S'1705105521'
S'Jawad Shrifzada'
tp53
a(S'100007782452062'
S'MA Masood'
tp54
a(S'100000221752967'
S'Hamid Haidary'
tp55
a(S'100001094382808'
S'Mohamad Zarin'
tp56
a(S'100000350174329'
S'Ahsan Yosufi'
tp57
a(S'1394034919'
S'Abdullah Yadgare'
tp58
a(S'1195692161'
S'Ahmad Zia Ferozpur'
tp59
a(S'100001565990073'
p60
S'Mujahid Andarabi'
tp61
a(S'100001903573979'
S'Haseeb Motaref'
tp62
a(S'100002144004141'
S'Haseebullah Afzali'
tp63
a(S'100000214044747'
S'Wakil Ehsass'
tp64
a(S'1470766627'
S'Mirwais Nasiry'
tp65
a(S'536485805'
S'Sad\\u0131q Jebran'
tp66
a(S'100000210962920'
S'Wali Arian'
tp67
a(S'1818828037'
S'Zabiullah Haidari'
tp68
a(S'100000147222437'
S'Islamuddin Payez'
tp69
a(S'100000267785495'
S'Ramesh Arman'
tp70
a(S'100001049821286'
S'Eqbal Hadi'
tp71
a(S'1107964743'
S'Wakil Naibi'
tp72
a(S'100001205032720'
S'Yusuf Jaihoon'
tp73
a(S'1104098845'
S'Hamid Obaidi'
tp74
a(S'100002943244150'
S'Hekmatullah Noori'
tp75
a(S'100000792121637'
S'Jamalnaser Farahmand'
tp76
a(S'100000315092347'
S'\\u0647\\u0627\\u0631\\u0648\\u0646 \\u0645\\u0639\\u062a\\u0631\\u0641'
tp77
a(S'100000733506737'
S'Ali Askar Lali'
tp78
a(S'1448777959'
S'Naseer Ahmad'
tp79
a(S'100000753331511'
S'Hamed Elmi'
tp80
a(S'63209055'
S'Chris Allen'
tp81
a(S'100000107422685'
S'Mujib Mehrdad'
tp82
a(S'100000745006532'
S'Zmaryalai Abasin'
tp83
a(S'100003228916105'
S'\\u0647\\u0648\\u0627\\u062f\\u0627\\u0631\\u0627\\u0646 \\u0628\\u0627\\u0634\\u06af\\u0627\\u0647 \\u0622\\u0631\\u0633\\u0646\\u0627\\u0644 \\u062f\\u0631\\u0627\\u0641\\u063a\\u0627\\u0646\\u0633\\u062a\\u0627\\u0646'
tp84
a(S'100003392078332'
S'Dunya Ibrahimi'
tp85
a(S'1066443376'
S'Mukhtar Pidram'
tp86
a(S'100003385863817'
S'Ro Meel'
tp87
a(S'100002864700034'
S'Jawid Sukoot'
tp88
a(S'1768710803'
S'Shakeela Ebrahimkhel'
tp89
a(S'100000249936593'
S'Masooda Zia'
tp90
a(S'100000218150576'
S'Mohammad Naweed Yamin'
tp91
a(S'1496615325'
S'Foad MA'
tp92
a(S'100001600416469'
S'Rahmatullah Ghafoori'
tp93
a(S'100002153995352'
S'Qiam Noori'
tp94
a(S'1116784674'
S'Mirwais Arya'
tp95
a(S'100000871666366'
S'Aryan Khalilyar'
tp96
a(S'651171945'
S'Ramin Isaar'
tp97
a(S'100002188852095'
S'Mujtaba Sufi'
tp98
a(S'1545662219'
S'Said Amin Hashimy'
tp99
a(S'100000327622381'
S'Parwiz Qarin'
tp100
a(S'614869124'
S'Hamid Noorzad'
tp101
a(S'100001030779639'
S'Shershah Nawabi'
tp102
a(S'1073816482'
S'Ghafar Salehi'
tp103
a(S'100000784273228'
S'Mustafa Solaiman Khil Amani'
tp104
a(S'100001781566791'
S'Abdul Qadeer Merzai'
tp105
a(S'100000972972241'
S'Farhad Hazrati'
tp106
a(S'100001656980908'
S'Amrullah Saleh'
tp107
a(S'100003462885694'
S'Haris Jamalzada'
tp108
a(S'742019054'
S'Tahir Qadiry'
tp109
asS'id'
p110
S'100000206124412'
p111
sS'name'
p112
S'Raouf Ajmal'
p113
s.