(dp1
S'friends'
p2
(lp3
(S'100002581615901'
S'Naheem Baba'
tp4
a(S'100001694130756'
S'Ammar Hyder'
tp5
a(S'100001403660389'
S'Kamalpreet Singh'
tp6
a(S'100002850649254'
S'Manu Ashok'
tp7
a(S'100008272098404'
S'Aamir Khan'
tp8
a(S'100002626652534'
S'Majid Ali Sofi'
tp9
a(S'100006721807976'
S'Syed Iqtadar Ali'
tp10
a(S'100001382128341'
S'Viniak Dev Mahajan'
tp11
a(S'100001255431785'
S'Arshad Aziz'
tp12
a(S'100002506886103'
S'Gourav Phool'
tp13
a(S'1671002282'
S'Mahesh Kakkad'
tp14
a(S'100003483810444'
S'Sunny Rather'
tp15
a(S'100004063020454'
S'Tehseen Sofi'
tp16
a(S'100003750504742'
S'Syed Shoib Hyder Jaffri'
tp17
a(S'100001429980986'
S'Afroz Mierr'
tp18
a(S'100001983374146'
S'Roderick Mehrooz'
tp19
a(S'100002020694849'
S'Abhinandan Kesar'
tp20
a(S'100004675322614'
S'Nadeem Lone'
tp21
a(S'100002328166146'
S'Nasir Ali Sofi'
tp22
a(S'100002011638237'
S'Ayf Aay'
tp23
a(S'100004784803156'
S'Aby Joseph'
tp24
a(S'100005563152381'
S'Aqib Mir'
tp25
a(S'100007100708524'
S'Tej Karan Singh'
tp26
a(S'100004897743302'
S'Bhumika Sharma'
tp27
a(S'100002236172685'
S'Jps Sachdev'
tp28
a(S'100001520480125'
S'Syed Sabeel'
tp29
a(S'100004382683542'
S'Poonch Mirror'
tp30
a(S'100001860185454'
S'Ayaan Ali'
tp31
a(S'100001658976125'
S'Aaqib Khan'
tp32
a(S'100002941814623'
S'Shuja Mir'
tp33
a(S'100003747511023'
S'Kumail Asgar Myr'
tp34
a(S'100001512569145'
S'Faheem Sheikh'
tp35
a(S'100003261887981'
S'Sahil Dogra'
tp36
a(S'100003666156736'
S'Meer Anees'
tp37
a(S'100002173545029'
S'Mustu Aba'
tp38
a(S'100002511319250'
S'Syed Shadab Ali'
tp39
a(S'100002843614865'
S'Syed Imtiyaz Husainee'
tp40
a(S'100006570097637'
S'Raman Jot Singh'
tp41
a(S'100001769143503'
S'Ali Gohar'
tp42
a(S'100003713777538'
S'Rashid Mir'
tp43
a(S'100005353893389'
S'Sheraz Ch'
tp44
a(S'100004407690683'
S'Rayaz Ahmed Sheikh'
tp45
a(S'100003839409908'
S'Asrar Mir'
tp46
a(S'100007328439155'
S'Rehan Choudhary'
tp47
a(S'100002348823511'
S'Shahzad Shabir'
tp48
a(S'100002529650217'
S'Arslan Manhas'
tp49
a(S'100005657799239'
S'Wasim Qureshi'
tp50
a(S'100002742983329'
S'Wasim Kazmi'
tp51
a(S'100003358268329'
S'Waqar Malik'
tp52
a(S'100002116450162'
S'Xfy Hydr'
tp53
a(S'100004585920949'
S'Sahil Jaiker'
tp54
a(S'100004621331701'
S'Addy Puri'
tp55
a(S'100001372226228'
S'Mohamed YaSir'
tp56
a(S'100003621029205'
S'Purujeet Singh Shady'
tp57
a(S'100003161422370'
S'Rameez Sheikh'
tp58
a(S'100002293562493'
S'Ayat RaZa'
tp59
a(S'100002682696493'
S'Kumail Asgar Mir'
tp60
a(S'100002273382483'
S'Badshah Jafferi'
tp61
a(S'100002614860691'
S'ER Manu Malik'
tp62
a(S'100003516577098'
S'Nawaz Rather'
tp63
a(S'100000746114724'
S'Zeshan Syed'
tp64
a(S'100005307580910'
S'Gourav Phool'
tp65
a(S'100000619986603'
S'Hamid Hadri'
tp66
a(S'100002344482057'
S'Jagtaish Singh'
tp67
a(S'100003294555478'
S'Shah Oor'
tp68
a(S'100004082677757'
S'Rishika Verma'
tp69
a(S'100002053915562'
S'Ehsan Asgar'
tp70
a(S'100001408287904'
S'Elahi Mir'
tp71
a(S'100004254069705'
S'Sameeksha Ishar'
tp72
a(S'100002296673433'
S'Syed Sajid Ali'
tp73
a(S'100002357295936'
S'Sayed Zahid Kazmi'
tp74
a(S'100002729185560'
S'Belbin Poulose'
tp75
a(S'100007636067626'
S'Saki Hyder'
tp76
a(S'100001926245351'
S'Syed Ali Kazmi'
tp77
a(S'100001833754633'
S'Sayed Jahanzeb Ali Naqvi'
tp78
a(S'100002744063204'
S'Zaffar Khan'
tp79
a(S'100002004705823'
S'Kamran Ali'
tp80
a(S'100001706772185'
S'Wazziem Jawfer'
tp81
a(S'100002914935248'
S'Nipun Sudan'
tp82
a(S'100001967624924'
S'G Preet Singh'
tp83
a(S'100006680830850'
S'Ishtiaq Lovelorn'
tp84
a(S'100003278371154'
S'Karanjeet Singh'
tp85
a(S'100002058492803'
S'Irfan Mir'
tp86
a(S'100005729353453'
S'Itz Hayder'
tp87
a(S'100002620366513'
S'Syed Sadam'
tp88
a(S'100002028270581'
S'Saqib Hassan Ansari'
tp89
a(S'100004536877958'
S'Abhie Bajaj'
tp90
a(S'100001208841255'
S'Abbas Jafri'
tp91
a(S'100001992644865'
S'Zeeshan Hydermir'
tp92
a(S'100001735733552'
S'Fahim Mir'
tp93
a(S'100008155111899'
S'Bo He Mia'
tp94
a(S'100005996916774'
S'Ajaz Bhat'
tp95
a(S'100005953360053'
S'Zafar Shah'
tp96
a(S'100008169219357'
S'Jassimran Kaur'
tp97
a(S'100002775726343'
S'SAr Fraz'
tp98
a(S'100001474429545'
S'Rajeev Sharma'
tp99
a(S'100007395007684'
S'Raman Jot Singh'
tp100
a(S'1404747146'
S'Shaheryar Ali Jafri'
tp101
a(S'100002816725518'
S'Jalil Ul Rehman Saddiqi'
tp102
a(S'100002328187036'
S'Muneeb Ahmed'
tp103
asS'id'
p104
S'100000704428434'
p105
sS'name'
p106
S'Shuaib Mir'
p107
s.