(dp1
S'friends'
p2
(lp3
(S'100003016183022'
S'Sameer Khan'
tp4
a(S'100002360690723'
p5
S'Karan Gautam'
tp6
a(S'100000824907474'
p7
S'Narender Yadav'
tp8
a(S'100008034793718'
S'Alka Kaur'
tp9
a(S'100002612222552'
S'Supriya Singh'
tp10
a(S'100004796053537'
S'Naveen Sagar'
tp11
a(S'100003522494671'
S'Harshita Paliwal'
tp12
a(S'100003996323549'
S'Pooja Sharma'
tp13
a(S'100002348109189'
S'Nidhi Gola'
tp14
a(S'100001704585018'
S'Aakash Singh'
tp15
a(S'100001578916651'
S'Swati Jaiswal'
tp16
a(S'100007700550180'
p17
S'Pushpa Gautam'
tp18
a(S'100004454227968'
S'Simran Rani Simran Rani'
tp19
a(S'100002160456472'
S'Rahul Thapa'
tp20
a(S'100003305075924'
S'Ganpati Davakhana'
tp21
a(S'100001767623891'
S'Tanvi Shah'
tp22
a(S'100007957231512'
S'Rahul Sagar'
tp23
a(S'100001715228775'
S'Ashok Kumar'
tp24
a(S'100001201611556'
p25
S'Ankit Hastauriya'
tp26
a(S'100001232397176'
S'Renuka Vora'
tp27
a(S'100000731608988'
S'Pinky Gupta'
tp28
a(S'1299137686'
S'Yash Khurana'
tp29
a(S'100001893570103'
S'Harpreet Kaur'
tp30
a(S'100002194224146'
S'Pal Jain'
tp31
a(S'100004468633188'
S'Himanshu Anu'
tp32
a(S'100002389249488'
S'Preeti Sharma'
tp33
a(S'100004212120918'
S'Dabangg Bhai'
tp34
a(S'100002951011480'
p35
S'Pooja Gautam'
tp36
a(S'100008291269282'
S'Puja Kumari'
tp37
a(S'100001898140936'
p38
S'Bhawna Jarwal'
tp39
a(S'100001517120294'
S'Puneet Sagar'
tp40
a(S'100002007195615'
S'Vinay Kumar'
tp41
a(S'100002055789069'
S'\\u00c4tt\\u00eet\\u00fa\\u00f0\\u00ea \\u00d0\\u00e0shi\\u00d1\\u0123 \\u00df\\u00f8\\u00fd'
tp42
a(S'100002678000645'
S'Nidhi Pandey'
tp43
a(S'100001852490939'
S'Nisha Mehra'
tp44
a(S'100001891260858'
S'Vineeta Singh Nigam'
tp45
a(S'100003454887799'
p46
S'Gitika Cool'
tp47
a(S'100001759689312'
p48
S'Rohit Kumar Gautam'
tp49
a(S'100003055049206'
S'Prince Chhetri'
tp50
a(S'100002515312548'
S'Nidhi Pandey J'
tp51
a(S'100001324401827'
S'Charan Preet'
tp52
a(S'100001983818468'
S'Nisha Tiwari'
tp53
a(S'100001841932704'
S'Sonali Desai'
tp54
a(S'100001797443524'
S'Isha Kaur'
tp55
a(S'100001777182477'
S'Monika Ferdous'
tp56
a(S'100001851270658'
S'Nirosha Pillai'
tp57
a(S'100001660061312'
S'Rashmi Singh'
tp58
a(S'100007044818481'
S'Rohit Nigam'
tp59
a(S'100007930654098'
S'Lavisha Aggarwal'
tp60
a(S'100002884439257'
S'Yogesh Yadav'
tp61
a(S'100002178138127'
S'Soniya Singh'
tp62
a(S'100002095345805'
S'Ananya Singh'
tp63
a(S'100004251365619'
p64
S'Parvesh Gautam'
tp65
a(S'100002228913876'
p66
S'Annu Gautam'
tp67
a(S'100000366328419'
S'Avantika Rajan'
tp68
a(S'100002638984362'
S'Puja Roy'
tp69
a(S'100003244429067'
p70
S'Jatin Gautam'
tp71
a(S'100001875626966'
S'Rishu Singh'
tp72
a(S'100001993711632'
S'Tapus PAl Burmmon'
tp73
asS'id'
p74
S'100001902381128'
p75
sS'name'
p76
S'Vikas Gautam'
p77
s.