(dp1
S'friends'
p2
(lp3
(S'1069029346'
S'Dashmeet Oberoi'
tp4
a(S'100001012708733'
S'Clifford Mason'
tp5
a(S'1473720388'
S'Kalyani Sharma'
tp6
a(S'100007817521540'
S'Jatin Kachhala'
tp7
a(S'100001852596465'
S'Sanket Tingre'
tp8
a(S'100001143728703'
S'Shreyansh Bhutra'
tp9
a(S'100002344427130'
S'Venkatesh Iyer'
tp10
a(S'1242686454'
S'Yash Lath'
tp11
a(S'100002194368160'
S'Bhagyashree Pawar'
tp12
a(S'100001782246961'
S'Adi FroZen'
tp13
a(S'100001176307795'
S'Yash Karwa'
tp14
a(S'100001289760992'
S'Tsering Palkyi'
tp15
a(S'100002018188330'
S'Ajit Karanjkar'
tp16
a(S'100003274376940'
S'Vivienna Longjam'
tp17
a(S'100001948016376'
S'Kushagra Pandey'
tp18
a(S'100000022006397'
S'Mainak Kundu'
tp19
a(S'1257337876'
S'Anushka Deshpande'
tp20
a(S'1588367096'
S'Mayank Daga'
tp21
a(S'100000401858951'
S'Waseem Shaikh'
tp22
a(S'754849598'
S'Prathamesh Khatavkar'
tp23
a(S'1659977640'
S'Rutuja Kulkarni'
tp24
a(S'607839069'
S'Tarun Kumar Chand'
tp25
a(S'1101435387'
S'Clinton Robert'
tp26
a(S'100004981896221'
S'Samuel Paul'
tp27
a(S'1398990409'
S'Harsh Sharma'
tp28
a(S'100001462566828'
S'Prasanna Kenche'
tp29
a(S'100000619586347'
S'Divesh Ramrakhiany'
tp30
a(S'1061988632'
S'Akash Bhirud'
tp31
a(S'100000902420358'
S'Augustine Morris'
tp32
a(S'100001770895773'
S'Tishya Venkatraman'
tp33
a(S'1192598692'
S'Rohan Bhat'
tp34
a(S'100000398633682'
S'Romit Khurd'
tp35
a(S'100000562013216'
S'Omkar Sapre'
tp36
a(S'100005072341543'
S'Neeyati Ghanwat'
tp37
a(S'1623325257'
S'Siddharth Nandurdikar'
tp38
a(S'100000276758974'
S'Arun Sharma'
tp39
a(S'100000906837262'
S'Dhoka Pranesh'
tp40
a(S'1456704742'
S'Shruti Jategaonkar'
tp41
a(S'100003372510289'
S'Pradip Kadam'
tp42
a(S'100002383806052'
S'Hrutwik Potdar'
tp43
a(S'1745937070'
S'Indranil Barry'
tp44
a(S'100001202203275'
S'Sujay Jadhav'
tp45
a(S'1802827829'
S'Alraaz Saiyed'
tp46
a(S'100006083341595'
S'Ulhas Shindeulhas'
tp47
a(S'100000995238677'
S'Tanya Mehta'
tp48
a(S'688018308'
S'Prachee Mishra'
tp49
a(S'1325736769'
S'Niharika Gogate'
tp50
a(S'100001637170314'
S'Rhea Rebello'
tp51
a(S'100001240046488'
S'Dolly Vyas Sanghvi'
tp52
a(S'100000905332553'
S'Ankit Sharma'
tp53
a(S'100006469722087'
S'Arunav Chakravarty'
tp54
a(S'100002215865317'
S'Pavan Pardeshi'
tp55
a(S'1118787448'
S'Soham Sen'
tp56
a(S'100001743297622'
S'Shardul Oza'
tp57
a(S'100005622219503'
S'Rohit KaduDeshmukh'
tp58
a(S'1550269600'
S'Rama Kulkarni'
tp59
a(S'100002387718918'
S'Shriyash Dhumal'
tp60
a(S'100000710592333'
S'Omkar Mujumdar'
tp61
a(S'100003272032520'
S'Vijay Kasture'
tp62
a(S'100004225747652'
S'Mohit Rishi'
tp63
a(S'1157121986'
S'Rishi Karia'
tp64
a(S'100006230316957'
S'Niket Sapre'
tp65
a(S'100001492519677'
S'Akansha Dhiwar'
tp66
a(S'100000105657367'
S'Ketaki Yawatkar'
tp67
a(S'581593674'
S'Rahil Nerkar'
tp68
a(S'100001933946106'
S'Rushikesh Chate'
tp69
a(S'1427470133'
S'Prerna Bhalla'
tp70
a(S'100001109077034'
S'Rohit Sanas'
tp71
a(S'1638013671'
S'Rahul Yadav'
tp72
a(S'690113295'
S'Bijoy Dourado'
tp73
a(S'550083457'
S'Niharika Jatar'
tp74
a(S'686518049'
S'Anurag Pujari'
tp75
a(S'100000593036538'
S'Anshul Ahuja'
tp76
a(S'1475113243'
S'Jeet Jagdhane'
tp77
a(S'100000234118072'
S'Yash Chaturvedi'
tp78
a(S'1113734448'
S'Yash Dole'
tp79
a(S'1010233160'
S'Kedar Panchanadikar'
tp80
a(S'100004000978752'
S'Nilesh Shiravale'
tp81
a(S'100001181945472'
S'Abhijeet Singh Gulati'
tp82
a(S'100001164216554'
S'Gurbir Singh'
tp83
a(S'100001430854650'
S'Vivek Agarwal'
tp84
a(S'100000153578515'
S'Akash Shashikumar'
tp85
a(S'1125460005'
S'Rohit Kanitkar'
tp86
a(S'1355163813'
S'Anushka Sanap'
tp87
a(S'100001714958137'
S'Snehali Yashwant Patil'
tp88
a(S'1163170122'
S'Ronit Augustin'
tp89
a(S'100007372590091'
S'Preeti John'
tp90
a(S'1255549297'
S'Anvay Gogate'
tp91
a(S'671556666'
S'Saugata Sarma Sarker'
tp92
a(S'1303882997'
S'Devika Menon'
tp93
a(S'100000387694670'
S'Mohnish Madaan'
tp94
a(S'100000309541328'
S'Balraj Snehi'
tp95
a(S'602385863'
S'Rohit Yawatkar'
tp96
a(S'100000137256053'
S'Onkar Koli'
tp97
a(S'100000829610494'
S'Ketan Raje Bhosale'
tp98
a(S'1004501577'
S'Shreeya Saldanha'
tp99
a(S'100001821421252'
S'Joel Joseph'
tp100
a(S'100000980583679'
S'Ishan Taldekar'
tp101
a(S'511068594'
S'Ajinkya Mandhare'
tp102
a(S'100001210693599'
S'Pawan Singh Negi'
tp103
a(S'694336861'
S'Rishi Ramchandani'
tp104
a(S'1385993166'
S'Shringar Prakash'
tp105
a(S'1351526755'
S'Neil Ambre'
tp106
a(S'100000502414546'
S'Dhaval Kabnurkar'
tp107
a(S'100000167979147'
S'Sneha Sajjan'
tp108
a(S'100001026610893'
S'Jessica Lawrence'
tp109
a(S'1309472979'
S'Abhishek Bairy'
tp110
a(S'548892746'
S'Ali Freese'
tp111
a(S'100000940906370'
S'Sophia Samuel'
tp112
a(S'690853692'
S'Tanya Fernandes'
tp113
a(S'100000450493724'
S'Meyrick Dabreo'
tp114
a(S'100000185400800'
S'Swatej Vankudre'
tp115
a(S'100001123955337'
S'Mayura Maitri'
tp116
a(S'739384406'
S'Archit Khandeparkar'
tp117
a(S'100000481762248'
S'Nikhil Mali'
tp118
a(S'1167998194'
S'Tejaswini Chavda'
tp119
a(S'565830372'
S'Shubina Roy'
tp120
a(S'1601270896'
S'Tahseen Shah'
tp121
a(S'1420040958'
S'Abhiroop Gupta'
tp122
a(S'645697177'
S'Karan Kusalkar'
tp123
a(S'100000762962478'
S'Shreyas Gandhi'
tp124
a(S'1178393308'
S'Sayak Ray'
tp125
a(S'819305557'
S'Prajakti Shet'
tp126
a(S'626526450'
S'Bhargav Srinivasa'
tp127
a(S'100005345504544'
S'Raashi Patil'
tp128
a(S'100000323742620'
S'Gautam Arekar'
tp129
a(S'100000195326940'
S'Ujjwal Dahiya'
tp130
a(S'1592383286'
S'Yash Deshpande'
tp131
a(S'100001082689612'
S'Amar More'
tp132
a(S'591822894'
S'Sumedh Borkar'
tp133
a(S'1712143851'
S'Ansh Pherwani'
tp134
a(S'553675174'
S'Niddhi Berinjela Mehta'
tp135
a(S'100000609083965'
S'PratHamesh Mandke'
tp136
a(S'532629688'
S'Aakash Mansukhani'
tp137
a(S'725892397'
S'Shrey Rathi'
tp138
a(S'100000705638244'
S'Kedar Pol'
tp139
a(S'1359888225'
S'Neel Maitra'
tp140
a(S'100005605475963'
S'Mayank Gupta'
tp141
a(S'100003885533739'
S'George Jacob'
tp142
a(S'100001128936369'
S'Aquib Chougle'
tp143
a(S'1301984709'
S'Dolly Agarwal'
tp144
a(S'1557812071'
S"Varun 'Vandi' Deshpande"
tp145
a(S'100000014930257'
S'Abhishek Khandelwal'
tp146
a(S'100001542045125'
S'Ronak Shah'
tp147
a(S'100004411121071'
S'Richie Joseph'
tp148
a(S'100001003455952'
S'Rayan Mysterio'
tp149
a(S'1021274100'
S'Mankirat Pannu'
tp150
a(S'1508997317'
S'Chaitanya Haram'
tp151
a(S'100000101158578'
S'Sushant Pawar'
tp152
a(S'100000500048402'
S'Neha Kuchi'
tp153
a(S'1782377614'
S'Akshay Chowdhry'
tp154
a(S'809794885'
S'Shivam Sen'
tp155
a(S'1656482486'
S'Mohit Matai'
tp156
a(S'100001221563377'
S'Divyank Shah'
tp157
a(S'206700384'
S"Tamsyn Marie D'Souza"
tp158
a(S'100001930412860'
S'Khimanshu Patel'
tp159
a(S'100000661000789'
S'Evelyn Prasad'
tp160
a(S'1193354783'
S'Sahil Lombar'
tp161
a(S'698875728'
S'Tanaaz Kothari'
tp162
a(S'100000043951079'
S'Monarch Patel'
tp163
a(S'1478671145'
S'Apoorv Kulkarni'
tp164
a(S'100004779190699'
S'Samir Jaura'
tp165
a(S'1568681265'
S'Pranav Siddheshwar'
tp166
a(S'100003691101921'
S'Jesse Gotting'
tp167
a(S'775758270'
S'Krittika Mahajan'
tp168
a(S'1289015371'
S'Chiranjay Shah'
tp169
a(S'100001792782321'
S'Riya Wagh'
tp170
a(S'752044856'
S'Radhika Oza'
tp171
a(S'100000834758603'
S'Aayush Singh'
tp172
a(S'1583573094'
S'Arpit Srivastava'
tp173
a(S'100000120745899'
S'Saumya Gupta'
tp174
a(S'100001446584510'
S'Shreelekha Bhonsle Patil'
tp175
a(S'100000097665867'
S'Avinash Madala'
tp176
a(S'100002868414289'
S'Vaibhav Thorat'
tp177
a(S'1283157049'
S'Richi Fauji Gyan'
tp178
a(S'100000415291836'
S'Yash Gupta'
tp179
a(S'100000315416992'
S'Aanchal Tyagi'
tp180
a(S'100001540177960'
S'Sayam Kathuria'
tp181
a(S'100001188575690'
S'Ketaki Bhagwat'
tp182
a(S'1550319908'
S'Karan Bora'
tp183
a(S'687429402'
S'Vinay Shet'
tp184
a(S'100001195611969'
S'Rohith Krishna'
tp185
a(S'1345695166'
S'Nachiket Yeole'
tp186
a(S'696191387'
S'Sameer S. Marathe'
tp187
a(S'1010422315'
S'Jay Singh'
tp188
a(S'1341986053'
S'Shivani Shifu Chauhan'
tp189
a(S'1639418882'
S'Lalit Ahuja'
tp190
a(S'100000071447973'
S'Rohan Shaji'
tp191
a(S'100000587627340'
S'Eric Cainne Demitrius'
tp192
a(S'100007336473649'
S'Parnal Joshi'
tp193
a(S'100002834394219'
S'Rohini Kashyap'
tp194
a(S'1549315799'
S'Anushriya Pherwani'
tp195
a(S'100001455287238'
S'Aditya Bhole'
tp196
a(S'727013726'
S'Kirtana Chouthoy'
tp197
a(S'100002062123283'
S'Jaideep Seth'
tp198
a(S'1272422516'
S'Viraj Mahalunkar'
tp199
a(S'1339755460'
S'Ameya Bhalerao'
tp200
a(S'1187864402'
S'Rikta Tapase'
tp201
a(S'1645640382'
p202
S'Arjoonn Sharma'
tp203
a(S'584343141'
S'Arwin Mesquita'
tp204
a(S'100001543309578'
S'Larika Gadkari'
tp205
a(S'100002431732458'
S'Karishma Mishra'
tp206
a(S'100001149012319'
S'Chaitanya Risbud'
tp207
a(S'1424076922'
S'Neil Dongre'
tp208
a(S'100000748111676'
S'Siddharth Yawatkar'
tp209
a(S'1612595997'
S'Durgesh Darekar'
tp210
a(S'100001039464009'
S'Tanmay Kawade'
tp211
a(S'1800346218'
S'Sanjay Shenoy'
tp212
a(S'100000682191294'
S'Ashley Joseph'
tp213
a(S'100002348574185'
S'Kusum Choudhary'
tp214
a(S'100001426970187'
S'Rashdeep Sethi'
tp215
a(S'537648219'
S'Gaurav Gupta \\u2729'
tp216
a(S'100001518690531'
S'Pratik Londhe'
tp217
a(S'1013262031'
S'Sai Yogesh'
tp218
a(S'1675655774'
S'Rohit Das'
tp219
a(S'849905701'
S'Ritesh Jain'
tp220
a(S'100000164704563'
S'Rucha Wagh'
tp221
a(S'738558640'
S'Anshuman Mishra'
tp222
a(S'651724266'
S'Viraj Sose'
tp223
a(S'100003183032293'
S'Gayatri Juvekar'
tp224
a(S'735405407'
S'Satyajeet Nayak'
tp225
a(S'672686833'
S'Kunal Talreja'
tp226
a(S'538555723'
S'Asha Sood'
tp227
a(S'100008044111958'
S'Saurabh Aarti Sharma'
tp228
a(S'100002659388050'
S'Shubham Mangrule'
tp229
a(S'100000121539342'
S'Arpit Yadav'
tp230
a(S'100005667063791'
S'Prasad Kulkarni'
tp231
a(S'100001387583359'
S'Mamta Gandhi'
tp232
a(S'1343974134'
S'Shailesh Uchale'
tp233
a(S'100000141769544'
S'Allan Pinto'
tp234
a(S'100003726536240'
S'Arshia VS'
tp235
a(S'100001413604492'
S'Soham Kathuria'
tp236
a(S'100000710388720'
S'Aditya Mahadik'
tp237
a(S'100001143169303'
S'Sanchita Shah'
tp238
a(S'100003357884352'
S'Ibn Al Waleed Ibrahim'
tp239
a(S'1619000175'
S'Ranoji Dafle'
tp240
a(S'1063189970'
S'Raj Jangate'
tp241
a(S'100000709543552'
S'Desmond Michael'
tp242
a(S'100000400693548'
S'Abhishek Upadhyay'
tp243
a(S'100004886530099'
S'Arsheen Excellent'
tp244
a(S'100001199030164'
S'Hemakshi Bhargava'
tp245
a(S'100000110793250'
S'Sanraksha Mayya'
tp246
a(S'100001482020540'
S'Ninad Gosavi'
tp247
a(S'100002908189855'
S'Siddhesh Chavan'
tp248
a(S'100000543732154'
S'Ayush Kanitkar'
tp249
a(S'100003548790199'
S'Upendra Vaddadi'
tp250
a(S'100004095369035'
S'Mitaan Patil'
tp251
a(S'100001101581185'
S'Akshay Chakrawarti'
tp252
a(S'100000045560873'
S'Fariba Fallah'
tp253
a(S'1311554417'
S'Sanket Chhoriya'
tp254
a(S'100001078309868'
S'Komal Bade'
tp255
a(S'100000909357463'
S'Amala Phadkule'
tp256
a(S'100007253713674'
S'Prajakta Jagtap'
tp257
a(S'100000116075717'
S'Vipul Nair'
tp258
a(S'1814033036'
S'Zane Young'
tp259
a(S'100000191404698'
S'Reva Shree Baniya'
tp260
a(S'1741826755'
S'Satyajit Vaidya'
tp261
a(S'100000280514632'
S'Nikhil Hegde'
tp262
a(S'100000066545781'
S'Navdeep Aggarwal'
tp263
a(S'1418448421'
S'Chaitanya Tappu'
tp264
a(S'595114648'
S'Kunal Ganorkar'
tp265
a(S'100001557376669'
S'Paloma Chandrachud'
tp266
a(S'100000101478714'
S'Rahoul Acharya'
tp267
a(S'100000103557276'
S'Manasi Yawatkar'
tp268
a(S'100001571920414'
S'Annissa Rebello'
tp269
a(S'100001870600018'
S'Ryesh Venkatraman'
tp270
a(S'1702029855'
S'Adarsh Sekar'
tp271
a(S'1149283745'
S'Rhea Bhavsar'
tp272
a(S'721088987'
S'Arnav Pradhan'
tp273
a(S'100003536670693'
S'Ody Rutaz'
tp274
a(S'689208033'
S'Himanshu Sharma'
tp275
a(S'1137356747'
S'Gauri Ratnam'
tp276
a(S'1347124759'
S'Karan Varu'
tp277
a(S'100000965093022'
S'Albert Anthony'
tp278
a(S'100007308134195'
S'Zaatar Ismaek'
tp279
a(S'758931962'
S'Amar Ummat'
tp280
a(S'533179857'
S'Pramod Sonawane'
tp281
a(S'833774310'
S'Rahul Kunju'
tp282
a(S'1198437401'
S'Omita Dalvi'
tp283
a(S'100002448549969'
S'Abhishek Kamble'
tp284
a(S'100001402956750'
S'Ujwal Nayak'
tp285
a(S'100000295847155'
S'Anushka Jadhav'
tp286
a(S'1815725667'
S'Arnav Ghatage'
tp287
a(S'100000028948519'
S'Aditya Jadhav'
tp288
a(S'100000802159146'
S'Saaket Joshi'
tp289
a(S'759914360'
S'Suhasini Dave'
tp290
a(S'100002934325979'
S'Rushi Jagtap'
tp291
a(S'599222631'
S'Vineet Tolia'
tp292
a(S'100000971554112'
S'Deeksha Sharma'
tp293
a(S'646756416'
S'Srushti Shanbhag'
tp294
a(S'1252634088'
S'Tanmay Parashar'
tp295
a(S'834384118'
S'Rohan Tikone'
tp296
a(S'100000289592209'
S'Anshuman Pati'
tp297
a(S'1670305779'
S'Aniket Singh Rathore'
tp298
a(S'100003271304879'
S"Rameet D'Souza"
tp299
a(S'1277908179'
S'Ameet Parekh'
tp300
a(S'100003130317209'
S'Rohit Bhosale'
tp301
a(S'1249441626'
S'Sushant Langore'
tp302
a(S'100000516583506'
S'Gayatri Suresh'
tp303
a(S'1407230569'
S'Sarthak Nemade'
tp304
a(S'100001060400419'
S'Isha Sahasrabudhe'
tp305
a(S'100000950649884'
S'Akanksha Bhatt'
tp306
a(S'100001740732386'
S'Avinash Kshirsagar'
tp307
a(S'100002278737839'
S'Vaikhari Kale'
tp308
a(S'667926916'
S'Revati Patwardhan'
tp309
a(S'100000286932655'
S'Ameet Shinde'
tp310
a(S'100000985951224'
S'Atharva Pashankar'
tp311
a(S'100002525728656'
S'Vijay Gawade'
tp312
a(S'100002487733212'
S'Aishwarya Konnur'
tp313
a(S'1271417050'
S'Poorvi Gautam'
tp314
a(S'1199105474'
S'Aniket Mohan'
tp315
a(S'100005313182892'
S'Simran Pawar'
tp316
a(S'1228667427'
S'Saunak Kundu'
tp317
a(S'1573359593'
S'Yash Kankaria'
tp318
a(S'1568607880'
S'Rohan Galande'
tp319
a(S'100000107328533'
S'Vaidehi \\u0162 BaviSkar'
tp320
a(S'664628997'
S'Selvira Monteiro'
tp321
a(S'100000513214627'
S'Divjot Mago'
tp322
a(S'100003142583589'
S'Purva Bavare'
tp323
a(S'100000423261660'
S'Poorvee Barjatya'
tp324
a(S'100000191675171'
S'Ryan Shelke'
tp325
a(S'1352346316'
S'Sanjana Joshi'
tp326
a(S'100000014149199'
S'Pranav Dangat'
tp327
a(S'1112785727'
S'Chinmay Chobhe'
tp328
a(S'100001619264100'
S'Mervyn Vinod'
tp329
a(S'100003558700481'
S'Rehan Laljee'
tp330
a(S'1290257376'
S'Tej Pandit'
tp331
a(S'1714122084'
S'Aahana Singh'
tp332
a(S'100000327882572'
S'Swapnil Tate'
tp333
a(S'100001848844316'
S'Saumya Nagar'
tp334
a(S'1247490969'
S'Utkantha Doshi'
tp335
a(S'1751997350'
S'Rushabh Bhide'
tp336
a(S'556969163'
S'Sanmay Khanvilkar'
tp337
a(S'1583814050'
S'Raj Pandey'
tp338
a(S'709419459'
S'Deepika Nagesh'
tp339
a(S'100000769506061'
S'Anjali Bhagwani'
tp340
a(S'627714993'
S'Oshina Lalwani'
tp341
a(S'100000203914825'
S'Prithviraj Deshmukh'
tp342
a(S'715369201'
S'Mihir Bharmal'
tp343
a(S'100002073033600'
S'Akshay Jaitly'
tp344
a(S'100005564195851'
S'Siddhartha Singh'
tp345
a(S'100000746513115'
S'Purva Veera'
tp346
a(S'1782104406'
S'Yash Sharma'
tp347
a(S'1019405194'
S'Sunny Rishab'
tp348
a(S'689740892'
S'Aditya Kulkarni'
tp349
a(S'1431524102'
S'Mehek Gandhi'
tp350
a(S'1456915210'
S'Gaurav Shewani'
tp351
a(S'100003453383649'
S'Brian Parker'
tp352
a(S'100001419538729'
S'Divya Jain'
tp353
a(S'671484688'
S'Indraneel Kulkarni'
tp354
a(S'100000117241106'
S'Pranjal Khairnar'
tp355
a(S'100004068876591'
S'Rahul Kharote'
tp356
a(S'100000466032624'
S'Anna Mary George'
tp357
a(S'1302405258'
S'Amay Kothari'
tp358
a(S'709680173'
S'Gaurav Katti'
tp359
a(S'1241828726'
S'Parikshit Goenka'
tp360
a(S'1296291816'
S'Eshaan Thakar'
tp361
a(S'100003358291761'
S'Kimi EunMi Hauva'
tp362
a(S'1415873089'
S'Shahzar Sajid'
tp363
a(S'100002232646189'
S'Carlton Greatorex'
tp364
a(S'100001068422119'
S'Rudresh Kshirsagar'
tp365
a(S'100002217825820'
S'Joanna Sam'
tp366
a(S'100003837607041'
S'Rutwik Patil'
tp367
a(S'100000631869048'
S'Pushkar Kulkarni'
tp368
a(S'1683604022'
S'Rupal Sharma'
tp369
a(S'1220289037'
S'Ishwari Deshpande'
tp370
a(S'100001155988301'
S'Aishwary Deshpande'
tp371
a(S'100001991767282'
S'Marissa Fonseca'
tp372
a(S'1576577666'
S'Rahul Thomas'
tp373
a(S'1046773503'
S'Shruti Alekar'
tp374
a(S'100003230190554'
S'Nikhil Raskar'
tp375
a(S'100000009019693'
S'Harshila Jagtap'
tp376
a(S'100001264363708'
S'Gaurav Charnalia'
tp377
a(S'1454514000'
S'Kunal Jadhav'
tp378
a(S'644606157'
S'Rohit Bhonagiri'
tp379
a(S'1371412400'
S'Moksh Lalwani'
tp380
a(S'690142772'
S'Nikhil Patil'
tp381
a(S'1280422979'
S'Satesh Mirpuri'
tp382
a(S'100003679194725'
S'Saumitra Shaligram'
tp383
a(S'100003717485055'
S'Aditi Verma'
tp384
a(S'1227559639'
S'Yashvardhan Agarwal'
tp385
a(S'100001409804959'
S'Vijay Kumar Naik'
tp386
a(S'100000219530725'
S'Shivani Amidwar'
tp387
a(S'625597502'
S'Kirit Thadaka'
tp388
a(S'1179573379'
S'Krishnai Bhosale'
tp389
a(S'100004964347898'
S'Sneha Bendre'
tp390
a(S'1518556256'
S'Sharvari Chikhalkar'
tp391
a(S'100003879714142'
S'Pushkar Maloo'
tp392
a(S'671857641'
S'Smrithi Shetty'
tp393
a(S'1724367805'
S'Rhea Repe'
tp394
a(S'100002055886696'
S'Aniket Patil'
tp395
a(S'100001359763291'
S'Nilesh Kanase'
tp396
a(S'100001681774463'
S'Sanket Dixit'
tp397
a(S'777080450'
S'Sanaya Irani'
tp398
a(S'631010094'
S'Zain Ahmed'
tp399
a(S'1461998246'
S'Jayesh Baldota'
tp400
a(S'100000109458363'
S'Nihal Singh'
tp401
a(S'100000390222771'
S'Arshia Ahad'
tp402
a(S'661785126'
S'Sumeet Hanagal'
tp403
a(S'100003158124330'
S'Hiya Jethani'
tp404
a(S'100000393121269'
S'Archana Iyer'
tp405
a(S'100008038151955'
S'Shraddha Uchale'
tp406
a(S'553725415'
S'Shraddha Musick Kutty'
tp407
a(S'100001910453005'
S'Chetan Choudhari'
tp408
a(S'100001762875006'
S'Rachel Pherwani'
tp409
a(S'100000106774415'
S'Neha Oberoi'
tp410
a(S'518633806'
S'Marishaa Shah'
tp411
a(S'1420390198'
S'Prithmesh Mago'
tp412
a(S'1630813189'
S'Pranava Monty Gupta'
tp413
a(S'682213366'
S'Divya Jagtap'
tp414
a(S'1323951883'
S'Aishwarya Sood'
tp415
a(S'1020254965'
S'Chiraag Shah'
tp416
a(S'1738282124'
S'Shakti Singh'
tp417
a(S'100001442268868'
S'Aniket Shirole'
tp418
a(S'100000598742462'
S'Shivam Kailash'
tp419
a(S'626590207'
S'Shreya Kadapa'
tp420
a(S'100006553563100'
S'Yash Sanghvi'
tp421
a(S'100004186207602'
S'Shivam Agarwal'
tp422
a(S'1685152160'
S'Kabir Ab'
tp423
a(S'100000899527167'
S'Darshan Halyal'
tp424
a(S'100000659871600'
S'Niharika Bhatia'
tp425
a(S'100000258518262'
S'Shikhar Sambhav Narula'
tp426
a(S'100000365520573'
S'Vipul Malik'
tp427
a(S'1029072911'
S'Samir Kutty'
tp428
a(S'100008134560985'
S'Ayaan Chopra'
tp429
a(S'100002085417032'
S'Arjun Kothari'
tp430
a(S'1257140138'
S'Nirav Tanna'
tp431
a(S'100006387544324'
S'Khot Sachin'
tp432
a(S'100000578858672'
S'Sarthak Agarwal'
tp433
a(S'100000134581870'
S'Chaitanya Joshi'
tp434
a(S'100001103657102'
S'AmAn ShAikh'
tp435
a(S'1061791180'
S'Ranjeev Dutt'
tp436
a(S'704327563'
S'Rishi Deshpande'
tp437
a(S'100000322422327'
S'Indraneel Bhat'
tp438
a(S'100003676068344'
S'Mangesh Damekar'
tp439
a(S'657888119'
S'Zahaan Pudumjee'
tp440
a(S'1130708802'
S'Karan Madan'
tp441
a(S'566415763'
S'Rahul Asani'
tp442
a(S'100000578649005'
S'Damanpreet Singh Dang'
tp443
a(S'1578693020'
S'Rajas Raygade'
tp444
a(S'1615355325'
S'Shaunak Potdar'
tp445
a(S'100003057743324'
S'Zayn O-Logy'
tp446
a(S'1614222365'
S'Leyon Angre'
tp447
a(S'1842813502'
S'Radhika Barve'
tp448
a(S'768574591'
S'Saniya Alekar'
tp449
a(S'1178510866'
S'Nishi Khaladkar'
tp450
a(S'626662405'
S'Avinash Suman'
tp451
a(S'100000558110083'
S'Kuber Bhatia'
tp452
a(S'100000125834433'
S'Subbu Iyer'
tp453
a(S'100003561805508'
S'Balaji Rathod'
tp454
a(S'100002225420614'
S'Kartik Bhosale'
tp455
a(S'705227988'
S'Nikhil Shinde'
tp456
a(S'100001844370754'
S'Vishal Mishra'
tp457
a(S'1682162372'
S'Namit Sharma'
tp458
a(S'100000928220337'
S'Shishir Kanade'
tp459
a(S'100003972428874'
S'Shubham Satpute'
tp460
a(S'100001247020575'
S'Rohan Sanas'
tp461
a(S'1804303800'
S'Sunny Godhwani'
tp462
a(S'1557099160'
S'Kingsley Glass'
tp463
a(S'1460754975'
S'Gayatri Patankar'
tp464
a(S'100001711707019'
S'Siddhesh Magar'
tp465
a(S'1404124803'
S'Ankit Sharma'
tp466
a(S'1048010806'
S'Armaan Dua'
tp467
a(S'100001255171361'
S'Apurva Kolhatkar'
tp468
a(S'100000940085935'
S'Malvika Barry'
tp469
a(S'100001461712678'
S'Abhinav Nair'
tp470
a(S'1204305132'
S'Ila Shrivastava'
tp471
a(S'527855415'
S'Sumit Harwalkar'
tp472
a(S'1241905771'
S'Neelay Kamath'
tp473
a(S'100006385843575'
S'Huzaifa Mohsinally'
tp474
a(S'100000981092476'
S'Tejas Pinglikar'
tp475
a(S'100005662239653'
S'Junaid Magdum'
tp476
a(S'100005549468546'
S'Anup Doddamani'
tp477
a(S'610867573'
S'Sneha Ahuja'
tp478
a(S'555532900'
S'Sayalee Potdar'
tp479
a(S'687717468'
S'Dhruv Bhonagiri'
tp480
a(S'100001216515927'
S'Pooja V Shidhaye'
tp481
a(S'1811743761'
S'Luke Rodricks'
tp482
a(S'100000208282726'
S'Ronak Tanna'
tp483
a(S'1680245555'
S'Merv Thomas'
tp484
a(S'601493505'
S'Avantika Diwadkar'
tp485
a(S'100000418699613'
S'Shweta Gore'
tp486
a(S'100000443938916'
S'Tushar Chand'
tp487
a(S'100001006202236'
S'Shreya Namde'
tp488
a(S'1315990230'
S'Debneil Mukherjee'
tp489
a(S'100000844533360'
S'Mihir Deo'
tp490
a(S'561692497'
S'Atulya Nadkarni'
tp491
a(S'100000066948898'
S'Raj Kulkarni'
tp492
a(S'1245243503'
S'Pooja Javeri'
tp493
a(S'100005944654025'
S'Pinak Ghate'
tp494
a(S'100002956231211'
S'Rohit Shinde'
tp495
a(S'1331220354'
S'Pranav Anil Bastawade'
tp496
a(S'100002095775868'
S'Shaswat Yashwardhan'
tp497
a(S'100001068030415'
S'Abhishikta Bandopadhyay'
tp498
a(S'100005370191894'
S'Asawari Johnson'
tp499
a(S'100000372773726'
S'Anish Pingle'
tp500
a(S'1313502882'
S'Rahul Mathur'
tp501
a(S'100002943310822'
S'Shriya Shende'
tp502
a(S'1180364018'
S'Pinak Bhapkar'
tp503
a(S'1381421170'
S'Prashasta Vijai Singh'
tp504
a(S'100001561090652'
S'Jeunelle Florence Rebello'
tp505
a(S'1460692724'
S'Faizal Memon'
tp506
a(S'590248359'
S'Shivani Sawant'
tp507
a(S'100001976686042'
S'Shahrukh Inamdar'
tp508
a(S'100003326389501'
S'Samuel Teron'
tp509
a(S'100000035445168'
S'Chris Saldanha'
tp510
a(S'1424216964'
S'Hiten Damor'
tp511
a(S'1017163304'
S'Padmini Venugopal'
tp512
a(S'100000238708249'
S'Shashank Yadav'
tp513
a(S'100001161669154'
S'Pawan Patil'
tp514
a(S'100001167420384'
S'Rohan Kale'
tp515
a(S'1351347549'
S'Preshit Parihar'
tp516
a(S'100001410337903'
S'Jonathan Mason'
tp517
a(S'100004772438506'
S'Tanmay Shirodkar'
tp518
a(S'100000249128564'
S'Geoffery Athaide Jr.'
tp519
a(S'1296639498'
S'Gaurav Chakankar'
tp520
a(S'100000840935306'
S'Rhea Anne Rego'
tp521
a(S'1424195636'
S'Irvan Sanghvi'
tp522
a(S'1387164140'
S'Niharika Singh'
tp523
a(S'533218240'
S'Tejash Laijawala'
tp524
a(S'100003290131589'
S'Umesh Biradar'
tp525
a(S'1791173957'
S'Aakash Shimpi'
tp526
a(S'1355632777'
S'Srishti Malhotra'
tp527
a(S'100003105273855'
S'Yogesh Jagdale'
tp528
a(S'1003893613'
S'Dhruv Subramanian'
tp529
a(S'1496822219'
S'Sahil Mali'
tp530
a(S'100002324540659'
S'Jonathan El Nino Young'
tp531
a(S'100000450887401'
S'Milind Madhusudan Kshirsagar'
tp532
a(S'1680228903'
S'Pranal Shetty'
tp533
a(S'100000353467679'
S'Nirmalendu Paul'
tp534
a(S'575109583'
S'Dhruv Paknikar'
tp535
a(S'1490738572'
S'Srinivas Dudhgaonkar'
tp536
a(S'100003706749851'
S'Fahad Vora'
tp537
a(S'100000997424010'
S'Prachi Jog'
tp538
a(S'100002005909479'
S'Animesh Bhat'
tp539
a(S'1214913766'
S'Ria Sheth'
tp540
a(S'1221694083'
S'Aditya Khonde'
tp541
a(S'100001407787963'
S'Akshay Khade'
tp542
a(S'100000583615962'
S'Devanjan Indra Mukherjee'
tp543
a(S'1237995162'
S'Khyatee Nigam'
tp544
a(S'100000536919153'
S'Shourya Chahande'
tp545
a(S'1357736933'
S'Vivek Jha'
tp546
a(S'100002424103271'
S'Sumant Jogdand'
tp547
a(S'100005602564404'
S'Yash Dwivedi'
tp548
a(S'1162967880'
S'Rohan Gaglani'
tp549
a(S'100001570563318'
S'Deeksha Patil'
tp550
a(S'100000507867578'
S'Merwyn Savio Menezes'
tp551
a(S'1115671421'
S'Arun Balachandran'
tp552
a(S'100001065837297'
S'Raja Mirpuri'
tp553
a(S'740715052'
S'Vyankatesh Kharage'
tp554
a(S'100001148436391'
S'Amru Jethani'
tp555
a(S'100003171008970'
S'Swanand Ghaisas'
tp556
a(S'100002292384864'
S'Hussey Hussain'
tp557
a(S'100001579543178'
S'Shaurya Jaisinghani'
tp558
a(S'512739719'
S'Rehan Poncha'
tp559
a(S'1031987185'
S'Rajas Kharkar'
tp560
a(S'1558574399'
S'Apoorva Kanago'
tp561
a(S'100000218760491'
S'Akshay Pathare'
tp562
a(S'701036281'
S'Jacob Samuel Moses'
tp563
a(S'1330712729'
S'Samadh Sayed'
tp564
a(S'689789134'
S'Olivia Alycia Magdalene'
tp565
a(S'100000148340034'
S'Shriyash Sonawane'
tp566
a(S'100001362274976'
S"Brian Shaun D'Rosario"
tp567
a(S'1843621041'
S'Sushmita Pahuja'
tp568
a(S'1203195114'
S'Aditya Suttatti'
tp569
a(S'1732460923'
S'Aditya Jadia'
tp570
a(S'1437455508'
S'Yash Sanghvi'
tp571
a(S'100001755320934'
S'Yashaswini Pandit'
tp572
a(S'509089330'
S'Aakash Bhatia'
tp573
a(S'100001871955522'
S'Cris Mariyan'
tp574
a(S'100000789351783'
S'Justin Jacob'
tp575
a(S'100000072924126'
S'Ashwin Dixit'
tp576
a(S'100001294020648'
S'Kedar Kuchekar'
tp577
a(S'100003098754240'
S'Arshiya Dutt'
tp578
a(S'100000295967340'
S'Udit Bhojwani'
tp579
a(S'100005272063646'
S'Riya Shah'
tp580
a(S'100001328462324'
S'Satish Kelkar'
tp581
a(S'703577642'
S'Vinit Ravishankar'
tp582
a(S'100001182513342'
S'Vikrant Kshirsagar'
tp583
a(S'1343504264'
S'Abhishek Darekar'
tp584
a(S'100000586077232'
S'Rishi Rajan Dhebe'
tp585
a(S'1168467187'
S'Palak Gupta'
tp586
a(S'1244374536'
S'Alpris Solitario'
tp587
a(S'587701580'
S'Abhishek Singh Tomar'
tp588
a(S'100001215256898'
S'Aishwarya Gadgil'
tp589
a(S'1117153217'
S'Zaid Ali'
tp590
a(S'100001019298189'
S'Hussey Ukani'
tp591
a(S'100000391351177'
S'Siddhesh Dwivedi'
tp592
a(S'100006826594626'
S'Harshad Patil'
tp593
a(S'100002077658506'
S'Shristi Pawnikar'
tp594
a(S'100001640176933'
S'Amrita Shinde'
tp595
a(S'722983603'
S'Yash Modi'
tp596
a(S'643990143'
S'Mark Rodricks'
tp597
a(S'1179552660'
S'Praaket Chopde'
tp598
a(S'100005915621022'
S'Abhijeet Kale'
tp599
a(S'1124318342'
S'Mohit Rathod'
tp600
a(S'100000127930189'
S'Gandhar Deodhar'
tp601
a(S'1525479186'
S'Indraneel Raygade'
tp602
a(S'650204308'
S'Geet Pradhan'
tp603
a(S'100000934211593'
S'Rakesh Mirpuri'
tp604
a(S'100000187489183'
S'Rishab Rao'
tp605
a(S'100000970045421'
S'Abdul Ahad Shah'
tp606
a(S'659899701'
S'Sumeet Salvekar'
tp607
a(S'100000590457575'
S'Niket Agarwal'
tp608
a(S'100002626394562'
S'Nilesh Chile'
tp609
a(S'690531184'
S'Akshay Garg'
tp610
a(S'1268130964'
S'Vipul Jamdade'
tp611
a(S'1127075091'
S'Leela Gour Broome'
tp612
a(S'100000687909304'
S'Mihir Rane'
tp613
a(S'100003288963447'
S'SanJna Sawant'
tp614
a(S'100002674165913'
S'Nomaan Shaikh'
tp615
a(S'100000815348841'
S'Shubham Chipade'
tp616
a(S'100000905145669'
S'Hoshner Patel'
tp617
a(S'627293641'
S'Gaurav Inamke'
tp618
a(S'692186242'
S'Aastha Sehgal'
tp619
a(S'1407671217'
S'Sumit Milind Kshirsagar'
tp620
a(S'100002800831179'
S'Sanaya Anne Dhondy'
tp621
a(S'1797736321'
S'Kushal Darda'
tp622
a(S'1592726685'
S'Anand Shende'
tp623
a(S'100001181482370'
S'Aditya Kale'
tp624
a(S'1312393775'
S'Sarita Malik Chaudhary'
tp625
a(S'100001016948390'
S'Akanksha Roy'
tp626
a(S'100000953824928'
S'Rucha Datar'
tp627
a(S'100001476858861'
S'Shanky Nagaraj'
tp628
a(S'100000125130923'
S'Shoaib Shaikh'
tp629
a(S'100003321991411'
S'Caroline Storey'
tp630
a(S'100000925564182'
S'Prafulla Dedge'
tp631
a(S'100001014078178'
S'Akhila Joshi'
tp632
a(S'100000044790958'
S'Rushikesh Thackeray'
tp633
a(S'100000977212892'
S'Meet Rathod'
tp634
a(S'1333914194'
S'Bijoy Mathews'
tp635
a(S'1660172540'
S'Nikhil Varghese'
tp636
a(S'100001202780035'
S'Nehal Dhamdhere'
tp637
a(S'100004081611796'
S'Datta Bhisle'
tp638
a(S'100001835019175'
S'Hardik Patel'
tp639
a(S'100000790413220'
S'Sharvari Dixit'
tp640
a(S'100007455750534'
S'Suyash Kankariya'
tp641
a(S'100001224276197'
S'Sanman Bamble'
tp642
a(S'100000096321309'
S'Radhikaa Duggal'
tp643
asS'id'
p644
S'100003739146933'
p645
sS'name'
p646
S'Mayank Deo'
p647
s.