(dp1
S'friends'
p2
(lp3
(S'100005909700391'
S'Rubeel Ahmad'
tp4
a(S'100003570765829'
p5
S'Raisani Baloch'
tp6
a(S'100005637005213'
S'G Hussain Gujjar'
tp7
a(S'100006164144391'
S'Abdul Hameed'
tp8
a(S'744113876'
p9
S'Muhammad Kamran Shah Bukhari'
tp10
a(S'100003492862791'
p11
S'Abdul Rasheed Mehtrabi'
tp12
a(S'100002085294859'
S'Tahir Bin Yousuf'
tp13
a(S'100003643714745'
p14
S'India Ka Baap'
tp15
a(S'100006673470576'
S'Aman Ahmm'
tp16
a(S'100008289817343'
S'\\u062c\\u0632\\u0628\\u06c1 \\u0642\\u062a\\u0627\\u0644'
tp17
a(S'100005103365381'
S'Zulfiqar Hassan Gondal'
tp18
a(S'100001717000482'
p19
S'Real Pakistan'
tp20
a(S'100006000454140'
p21
S'Muskan Khan'
tp22
a(S'100004408231439'
p23
S'Zakar Baloch'
tp24
a(S'100001037315564'
p25
S'Captan Falak'
tp26
a(S'100003086442561'
p27
S'Ghulam Fakhar Ud Din'
tp28
a(S'100007563522958'
S'Ilyas Qadri'
tp29
a(S'100005820820448'
p30
S'Ismail Khan'
tp31
a(S'100005560896105'
S'Pakistanqaumiitehad Tehreek'
tp32
a(S'100007233694380'
S'AbDul GhaFfar RajpUt'
tp33
a(S'100004129177840'
S'Dinga Leaks Tag'
tp34
a(S'100003557569692'
S'Timesof Khalistan'
tp35
a(S'100005194268036'
S'Baloch Nurges'
tp36
a(S'100004095542583'
p37
S'Meri Pehchan Pakistan'
tp38
a(S'100007106974716'
p39
S'Malik Azam Ali'
tp40
a(S'100005980118247'
p41
S'Rayyan Khattak'
tp42
a(S'1483233503'
p43
S'Hum Sab Ka Pakistan'
tp44
a(S'100006287054549'
p45
S'Mohammad Rafiq'
tp46
a(S'100001698460395'
p47
S'Lewanay Khan'
tp48
a(S'100007305965238'
p49
S'Mian Muzammil'
tp50
a(S'100004577954414'
p51
S'Pakistanii Tiger'
tp52
a(S'100004009855403'
p53
S'Abrar Bhai'
tp54
a(S'100000710721130'
S'Khawaja Omer Sohail'
tp55
a(S'100006966909011'
p56
S'Pak King Baloch'
tp57
a(S'100005107814218'
S'Waqas Zubair'
tp58
a(S'100002650650704'
p59
S'Muhammad Zia Ul Haq'
tp60
a(S'100003773664638'
p61
S'Akhlaq Hussain Arain'
tp62
a(S'100008184787736'
S'Jihad Ilaveu'
tp63
a(S'100007471420259'
S'Lashkri Jutt'
tp64
a(S'100005154635527'
p65
S'Tiger Pakistan'
tp66
a(S'100007028974143'
p67
S'\\u067e\\u06cc\\u0627\\u0631\\u0648 \\u067e\\u0627\\u06aa\\u0633\\u062a\\u0627\\u0646'
tp68
a(S'100002296796091'
S'Imran Ahmad'
tp69
a(S'100000979062472'
p70
S'Hamid Qureshi'
tp71
a(S'100001929173893'
p72
S'Waqar Ali'
tp73
a(S'753296838'
p74
S'Hassan Baloch'
tp75
a(S'100005636345564'
S'Asad Ali'
tp76
a(S'100003967906920'
p77
S'Muhammad Ibrahem'
tp78
a(S'100003590197629'
p79
S'Pakistaani Foji'
tp80
a(S'100006575704034'
S'Awais Aslam'
tp81
a(S'100002107896727'
S'Waqas Arshad'
tp82
a(S'100000412614059'
p83
S'Haseeb Habib Waheed'
tp84
a(S'100005325430963'
S'Simran Kaur'
tp85
a(S'100003691962666'
S'Kashmir Mera Hai'
tp86
a(S'100003779155628'
p87
S'Azhar Khan Akhunzada'
tp88
a(S'100005781455814'
p89
S'Rana E Pakistan'
tp90
a(S'100006190720258'
p91
S'Shanzy Hassan'
tp92
a(S'100006695680832'
p93
S'Hamid Qureshi'
tp94
a(S'100003308143004'
p95
S'\\u0648\\u0633\\u06cc\\u0645 \\u0639\\u0628\\u0627\\u0633 \\u067e\\u0631\\u0627\\u0686\\u06c1'
tp96
a(S'644527340'
S'Waqar Azeem'
tp97
a(S'100004205682096'
S'Hakim Iqbal'
tp98
a(S'100000868113836'
S'Arif Majeed'
tp99
a(S'100000890865790'
p100
S'Re-Build Pakistan'
tp101
asS'id'
p102
S'100005840612778'
p103
sS'name'
p104
S'Abdul Khaliq'
p105
s.