(dp1
S'friends'
p2
(lp3
(S'1013630700'
S'Ritika Chopra'
tp4
a(S'100001997901465'
S'Merry Joseph'
tp5
a(S'576989004'
S'Munish Dhiman'
tp6
a(S'1505791859'
S'Tarun Garg'
tp7
a(S'100000069829157'
S'Sam Cool Buddy'
tp8
a(S'100001151985537'
S'Joni Saini'
tp9
a(S'100000265778819'
S'Arun Bansal'
tp10
a(S'100001339050347'
S'Nirdosh Kumar'
tp11
a(S'100000919303551'
S'Kaushal Kishore'
tp12
a(S'100000020832429'
S'K Huma Saif'
tp13
a(S'1053640706'
S'IvAr RaVi'
tp14
a(S'519768128'
S'Ajay Musale'
tp15
a(S'1838133952'
S'Saini Mohinder'
tp16
a(S'100000042621186'
S'Rose Kaur'
tp17
a(S'100002437136151'
S'Jagjit Kaur Bhalla'
tp18
a(S'1705435961'
S'Awadhesh Kushwaha'
tp19
a(S'100000429169369'
S'Anshu Agarwal'
tp20
a(S'570475249'
S'Nikhil Manchanda'
tp21
a(S'100002481350200'
S'Sameer Puri'
tp22
a(S'1758714753'
S'Rajdeep Singh'
tp23
a(S'100000633777683'
p24
S'Syed Naiyer Ali Najmi'
tp25
a(S'1157172585'
S'Amit K Varma'
tp26
a(S'700222933'
S'Vivek Ruhil'
tp27
a(S'100002105028117'
S'Vandana Saini'
tp28
a(S'1070985427'
S'Jaya Sharma'
tp29
a(S'100000124087673'
S'Saurabh Bothra'
tp30
a(S'100002981660188'
S'Shobhit Kumar'
tp31
a(S'100000857664622'
S'Birendra Kumar'
tp32
a(S'100004442349174'
S'Mohan Singh'
tp33
a(S'1169649573'
S'Ekta Phulwadhwa'
tp34
a(S'662667054'
S'Shrideep Vartak'
tp35
a(S'734824077'
S'Roji P Koshy'
tp36
a(S'100000279652716'
S'Jassme Crown'
tp37
a(S'656093579'
S'Sumit Wadhwa'
tp38
a(S'1049504405'
S'Amandeep Singh'
tp39
a(S'100000898608322'
S'Jasmine Saini'
tp40
a(S'100000781755606'
S'Supriya Saini'
tp41
a(S'100001103590994'
S'Anjali Chadha'
tp42
a(S'100001082002746'
S'Prakash Shukla Vidya'
tp43
a(S'100006349513190'
S'Purav Saini'
tp44
a(S'536914689'
S'Punita Chaurasia'
tp45
a(S'100001203830141'
S'Sunil Saini'
tp46
a(S'100000848517930'
S'Deep Saini'
tp47
a(S'1123721491'
S'Rajesh Jethawani'
tp48
a(S'764778117'
S'Raj Arora'
tp49
a(S'506961153'
S'Vineet Pandey'
tp50
a(S'663892513'
S'Amit Singhal'
tp51
a(S'754727575'
S'Shakti Tandon'
tp52
a(S'1171772048'
S'Anita Panigrahi'
tp53
a(S'100004604140033'
S'Priyanka Singh'
tp54
a(S'100000806572170'
S'Ritesh Saini'
tp55
a(S'100000229235747'
S'DrSandeep Kumar'
tp56
a(S'100003952450718'
S'Pinks Saini'
tp57
a(S'661896928'
S'Amit Trips'
tp58
a(S'548188957'
S'Rajiv Bhattacharya'
tp59
a(S'1411119022'
S'Sangeeta Shankar'
tp60
a(S'518184646'
S'Sandip Kar'
tp61
a(S'698185880'
S'Jyoti Amit Tripathi'
tp62
a(S'664066275'
S'Satinder Sharma'
tp63
a(S'100000005964688'
S'Shivam Verma'
tp64
a(S'539292308'
S'Ravija Rathore Parmar'
tp65
a(S'797690693'
S'Dipendar Singh'
tp66
a(S'1110282033'
p67
S'Lekha Kumar'
tp68
a(S'100000612833312'
S'Rajender Kumar Saini'
tp69
a(S'1736814886'
S'Mayank Singhal'
tp70
a(S'669271926'
S'Ichha Bakshi Chaudhry'
tp71
a(S'583701406'
S'Sachin Rao'
tp72
a(S'100003226663854'
S'Sukhvinder Saini Kaithal'
tp73
a(S'100002751902148'
S'Neha Dhamija'
tp74
a(S'100004090712210'
S'Sandeep Dahiya'
tp75
a(S'1441877501'
S'John Maringmei'
tp76
a(S'100002587373211'
S'Vinod Kumar'
tp77
a(S'750978091'
S'Harkirat Bhalla'
tp78
a(S'100001874025318'
S'Neha Jain'
tp79
a(S'1673767049'
S'Bali Singh'
tp80
a(S'100001478476734'
S'Harpreet Singh'
tp81
a(S'666989282'
S'Vijyant Jain'
tp82
a(S'100001214772146'
S'Swate Bedi'
tp83
a(S'100002452319135'
S'Naveen Singh'
tp84
a(S'688093164'
S'Shilpa Shandil'
tp85
a(S'100006929467568'
S'Suman Suren'
tp86
a(S'100003334698341'
S'Suman Vinod Saini'
tp87
a(S'100002942539914'
S'Kalpu Saini'
tp88
a(S'1292796108'
S'Gourav Rastogi'
tp89
a(S'100001406497104'
S'Vikas Saini'
tp90
a(S'100001464459967'
S'Shalu Saini'
tp91
a(S'100002830369456'
S'Lr Saini'
tp92
a(S'1515436773'
S'Parth Kumar'
tp93
a(S'100001858219346'
S'Anil K Nair'
tp94
a(S'100003399279755'
S'Er Sameer Saini'
tp95
a(S'1273309664'
S'Shivinder Thakur'
tp96
a(S'554004586'
S'Anurag Aggarwal'
tp97
a(S'100001075655944'
S'Balbir Singh'
tp98
a(S'100001625707963'
S'Satyendra Sisodia'
tp99
a(S'1543836365'
S'Mudit Kapoor'
tp100
a(S'1315519751'
S'Dharmender Rana'
tp101
a(S'580440966'
S'Saurabh Mathur'
tp102
a(S'100002043857366'
S'Anil Dhiman'
tp103
a(S'1187775625'
S'Manjit Singh'
tp104
asS'id'
p105
S'100000815004995'
p106
sS'name'
p107
S'Ajay Saini'
p108
s.