(dp1
S'friends'
p2
(lp3
(S'1174611253'
S'Rahul Gupta'
tp4
a(S'100001034620911'
p5
S'Vibin Johny'
tp6
a(S'100000078876485'
p7
S'Anmon Issac'
tp8
a(S'1090942785'
S'Pratham Vardhan'
tp9
a(S'100000398337213'
p10
S'Josna George'
tp11
a(S'1796812242'
S'Shefali Verma'
tp12
a(S'100000669702916'
S'Jayanti Suri'
tp13
a(S'1551140901'
S'Meghana Deshpande'
tp14
a(S'1316337561'
S'Kabir Dhingra'
tp15
a(S'658631606'
S'Shikhar Verma'
tp16
a(S'1070808222'
S'Abhinav Sharma'
tp17
a(S'697691778'
S'Aashish Beergi'
tp18
a(S'100001347433362'
S'Kenneth S Varughese'
tp19
a(S'697272860'
S'Ruhani Suneja'
tp20
a(S'1659810642'
S'Yashasvie Sadhu'
tp21
a(S'1586746288'
S'Chaitanya Subramanian'
tp22
a(S'100001102269259'
S'Tushar Jindal'
tp23
a(S'1337190717'
S'Parisha Jain'
tp24
a(S'742681947'
S'Shivangi Gupta'
tp25
a(S'100000953262657'
S'Nitika Mehta'
tp26
a(S'100001611519669'
S'Vaibhav Anand'
tp27
a(S'100001004176677'
S'Tj Varghese'
tp28
a(S'574794541'
S'Himank Nanda'
tp29
a(S'1001713172'
S'Sidhant Garg'
tp30
a(S'1551884712'
S'Siddhant Mohanty'
tp31
a(S'100000859044556'
S'Ekambara Subramanian'
tp32
a(S'100000030615519'
S'Anirudh Sridhar'
tp33
a(S'1633326263'
S'Akshita Sethi'
tp34
a(S'100000202999349'
S'Shreya Sinha'
tp35
a(S'100000676881908'
S'Abhilash Ramesh'
tp36
a(S'1327440297'
S'Surabhi Gupta'
tp37
a(S'1755050847'
p38
S'Ronin Mathew'
tp39
a(S'100000331277013'
p40
S'Shanaya Mahiwal'
tp41
a(S'100000002079325'
p42
S'Shruti Jain'
tp43
a(S'100001006856938'
S'Garvi Walia'
tp44
a(S'1432917518'
S'Stuti Jain'
tp45
a(S'100001732415762'
p46
S'Anson Raphael'
tp47
a(S'1569394250'
S'Abhijit Singh'
tp48
a(S'526040813'
S'Binny Tomy'
tp49
a(S'100000947626187'
S'Janet Jose'
tp50
a(S'100001114096527'
S'Yasha Srivastava'
tp51
a(S'100001265774514'
S'Chandni Malhotra'
tp52
a(S'100000936334164'
p53
S'Selvin Tom'
tp54
a(S'100001967251357'
p55
S'Brinda Achu'
tp56
a(S'1177174412'
S'Jibin Babu'
tp57
a(S'100000895940711'
S'Rashi Sharma'
tp58
a(S'100000394429051'
S'Aniket Prakash Singh'
tp59
a(S'1533172865'
S'Nikhil Dalmia'
tp60
a(S'100000615246661'
S'Anuja Gusain'
tp61
a(S'1434797836'
S'Apoorv Bhatnagar'
tp62
a(S'1085061819'
S'Divya Singh Bist'
tp63
a(S'100001184919027'
S'Prateek Mago'
tp64
a(S'1014593684'
S'Suyasha Mishra'
tp65
a(S'1232093065'
S'Yashvardhan Mehra'
tp66
a(S'100001193960546'
S'Gauri Arora'
tp67
a(S'1729122569'
S'Priti Verma'
tp68
a(S'1671562199'
S'Divyanshu Sharma'
tp69
a(S'1468637369'
S'Srishti Srivastava'
tp70
a(S'100000315917062'
p71
S'Kevin Alex'
tp72
a(S'1812664259'
p73
S'Alen J Mampilly'
tp74
a(S'1520927107'
S'Param Pandey'
tp75
a(S'1803475215'
S'Shashwat Anand'
tp76
a(S'1725560823'
S'Sharannia Pillai'
tp77
a(S'669446943'
S'Ameya Gupta'
tp78
a(S'1798373477'
S'Mayank Negi'
tp79
a(S'1803380106'
S'Shayak Chaudhuri'
tp80
a(S'100000603844809'
p81
S'Jefin Cherian'
tp82
a(S'100000957982540'
S'Ashwin J Nair'
tp83
a(S'1375654624'
S'Shireena Jose'
tp84
a(S'100001330193486'
S'Tanvi Latta'
tp85
a(S'100000697256851'
p86
S'Simi Sebastian'
tp87
a(S'100000750692606'
S'Geetansh Arora'
tp88
a(S'100000083553504'
p89
S'Jin Thomas'
tp90
a(S'100001369326340'
S'Snigdha Agrawal'
tp91
a(S'100001375306001'
S'Sonima Katara'
tp92
a(S'100001600006271'
S'Amrita Dinil'
tp93
a(S'100001072811486'
S'Neha Gupta'
tp94
a(S'100001199412195'
S'Srishti Khera'
tp95
a(S'526267513'
S'Abin L Koshy'
tp96
a(S'699741080'
S'Somesh Sharma'
tp97
a(S'1523423059'
S'Manpreet Choudhary'
tp98
a(S'100001916927053'
S'Himani Bisht'
tp99
a(S'100000235646237'
S'Anik Kachroo'
tp100
a(S'100001019759122'
p101
S'Vishnu Venugopal'
tp102
a(S'100000729759879'
p103
S'Jeffrey Mathews'
tp104
a(S'100000331748712'
S'Sudhanshu Sutar'
tp105
a(S'1549005057'
S'Divyank Sethi'
tp106
a(S'1158219185'
S'Aayush Mohanty'
tp107
a(S'100000219743031'
S'Sarthak Zadoo'
tp108
a(S'100001730254186'
p109
S'Shweta Anand'
tp110
a(S'610947906'
S'Parv Mudgil'
tp111
a(S'1243403033'
S'Akshat Arora'
tp112
a(S'100000954006047'
S'Garima Joshi'
tp113
a(S'1390005887'
S'Sohal Kaur'
tp114
a(S'1222655972'
S'Akshay Rana'
tp115
a(S'100001000295431'
S'Bhupinder Singh'
tp116
a(S'100001107611219'
S'Lawina Paul'
tp117
a(S'100000549921413'
S'Jishnu Pillai'
tp118
a(S'1466056975'
S'Shreya Jain'
tp119
a(S'100000561291515'
S'Joel Joy'
tp120
asS'id'
p121
S'100000943795536'
p122
sS'name'
p123
S'Roja Raphael'
p124
s.