(dp1
S'friends'
p2
(lp3
(S'100001610420434'
S'Rinku Maurya'
tp4
a(S'100001609970647'
S'Mastermind Deepak'
tp5
a(S'100001647158932'
S'Shalini Mishra'
tp6
a(S'1723434779'
S'Shrikant Kaushal'
tp7
a(S'100003885315413'
S'Virat Kohali'
tp8
a(S'100003976884547'
S'Orance Chauhan'
tp9
a(S'1259442568'
S'Sujeet Bairagi'
tp10
a(S'589641542'
S'Nitin Badak'
tp11
a(S'1593475625'
S'AR Ajay'
tp12
a(S'100001649264119'
S'Deep Agarwal'
tp13
a(S'100000586756112'
S'Gyanender Sharma'
tp14
a(S'100002656730920'
S'Simran Kashyap'
tp15
a(S'100000532953332'
S'Lata Rawat Bisht'
tp16
a(S'100000518148066'
S'Bharat Badhwar'
tp17
a(S'100003669917010'
S'Sanjay Pandey'
tp18
a(S'100000891512178'
S'Rajni Suraj'
tp19
a(S'672982754'
S'Rehan Abdi'
tp20
a(S'100003686834139'
S'Suhas Sharma'
tp21
a(S'100001178985049'
S'Lalit Agarwal'
tp22
a(S'100003787497375'
S'Deepak Nath'
tp23
a(S'1113923689'
S'Raghvendra Sharma'
tp24
a(S'100000844136146'
S'Munna Singh'
tp25
a(S'100001777217282'
S'Pradeep Kumar'
tp26
a(S'100002025369673'
S'Nitin Bisht'
tp27
a(S'1662900878'
S'Tarun Joshi'
tp28
a(S'100000533753450'
S'Kapil Sharma'
tp29
a(S'1050937222'
S'Pramod Singh'
tp30
a(S'100000811921132'
S'Roshan Kr'
tp31
a(S'662139783'
S'Mukesh Rawat'
tp32
a(S'100002511539170'
S'Happy Shergill'
tp33
a(S'100000560109552'
S'Barnabas Lucky Baske'
tp34
a(S'100002120794950'
S'Raj Kumar'
tp35
a(S'100001029782330'
S'Gaurav Kant'
tp36
a(S'100000479424882'
S'Deepa Minz'
tp37
a(S'100005993345951'
S'Deepak Nath'
tp38
a(S'1257493728'
S'Aniket Thomas'
tp39
a(S'100001353172769'
S'Ramesh Bangari'
tp40
a(S'100003106222861'
S'Ghanshyam Singh'
tp41
a(S'1417237163'
S'Ayush Kadyan'
tp42
a(S'100001709157009'
S'Mohammad Rafiq'
tp43
a(S'100001912167890'
S'Deepak Kumar'
tp44
a(S'100002623933866'
S'Amit Yash'
tp45
a(S'100001173406681'
S'Jai Shankar Sharma'
tp46
a(S'100001361735458'
S'Ajay Singh Dhankhar'
tp47
a(S'750392834'
S'Sanjeev Sethi'
tp48
a(S'100003403295815'
S'Parkash Mourya'
tp49
a(S'1811417512'
S'Meenakshi Gautam'
tp50
a(S'1834681966'
S'Vikrant Kumar'
tp51
a(S'100000324630262'
S'Surinder Singh'
tp52
a(S'1416260692'
S'Angel Reena'
tp53
a(S'100000547585870'
S'Raushan Kumar'
tp54
a(S'100003454435221'
S'Abhimanyu Upadhyay'
tp55
a(S'1438550763'
S'Poonam Saraya'
tp56
a(S'100000701871432'
S'Keshav Tsena'
tp57
a(S'680950518'
S'Karan Yadav'
tp58
a(S'524928474'
S'Varun Bagai'
tp59
a(S'100002562124373'
S'Jitendra Tripathi'
tp60
a(S'100000226574573'
S'Dayal Pandey'
tp61
a(S'1578938029'
S'Chandan Gupta'
tp62
a(S'1335636394'
S'Bishwajeet Jha'
tp63
a(S'100001203041727'
S'Chhavineet Trehan'
tp64
a(S'100000742531867'
S'Pankaj Jaiswal'
tp65
a(S'100001767186241'
S'Vikram Singh'
tp66
a(S'1772095513'
S'Frederick Gomes'
tp67
a(S'1408090299'
S'Navin Singh'
tp68
a(S'100005390285048'
S'Bhawana Verma'
tp69
a(S'1027685417'
S'Shripal Singh'
tp70
a(S'1144362559'
S'Balaji Peddamuthu'
tp71
a(S'100003132986014'
S'Rakhi Mourya'
tp72
a(S'1341709346'
S'Braj Raj Vishwakarma'
tp73
a(S'100002856537548'
S'Manas Kumar'
tp74
a(S'1270176697'
S'Sanjay Jain'
tp75
a(S'1076090774'
S'Rajesh Kumar'
tp76
a(S'100002582573246'
S'Jincy Sebastian'
tp77
a(S'100002695452113'
S'Vijay Kumar'
tp78
a(S'100000777006417'
S'Manjit Pallavi'
tp79
a(S'100002460710395'
S'Pallavi GM'
tp80
a(S'100001499687651'
S'Krishna Singh'
tp81
a(S'100002395364498'
S'Jyoti Maurya'
tp82
a(S'100002050105266'
S'Usha Moghe'
tp83
asS'id'
p84
S'100000418168319'
p85
sS'name'
p86
S'Sunil Kumar'
p87
s.