(dp1
S'friends'
p2
(lp3
(S'1190851416'
p4
S'Wajib Rehman'
tp5
a(S'100001320456066'
S'Qader Arman'
tp6
a(S'100001491123708'
p7
S'Gul Jawhar'
tp8
a(S'100002085311776'
p9
S'Mena Mangal'
tp10
asS'id'
p11
S'100002300230634'
p12
sS'name'
p13
S'Gulsadiq Sadiq'
p14
s.