(dp1
S'friends'
p2
(lp3
(S'100001399891123'
S'Jhony Black'
tp4
a(S'100002029780219'
S'Piyush Singhal'
tp5
a(S'100002237796198'
S'Sagar Randhawa'
tp6
a(S'100000451188353'
S'Seethal Nair'
tp7
a(S'1442062281'
p8
S'Parvesh Choudhary'
tp9
a(S'100000354200925'
S'Ashok Kashyap'
tp10
a(S'100003728849159'
S'Rahul Kumar'
tp11
a(S'100001242937510'
S'Vikash Nam'
tp12
a(S'100001613787235'
S'Rahul Sharma'
tp13
a(S'100000203793638'
S'Vijay Sharma'
tp14
a(S'100002490711576'
S'Seema Rai'
tp15
a(S'100007663507043'
S'Parveen Kumar'
tp16
a(S'100000880854075'
S'Piyush Aggarwal Aggarwal'
tp17
a(S'629278375'
p18
S'Subhash Shanker'
tp19
a(S'100004352803780'
S'Pawan Choudhary'
tp20
a(S'100004657243736'
S'Raj Sen'
tp21
a(S'100002852077204'
p22
S'Suraj Uniyal'
tp23
a(S'1423031597'
p24
S'Klnv Prasad'
tp25
a(S'100003817407140'
S'Rohit Kainee'
tp26
a(S'100007222841993'
S'Umesh Nishad'
tp27
a(S'100000834220013'
S'Raghwendra Pratap Singh'
tp28
a(S'100002490975723'
S'Kuldeep Singh'
tp29
a(S'100003336140563'
S'Parveen Dahiya'
tp30
a(S'100000530665097'
S'Yogesh Kumar'
tp31
a(S'100002499121688'
S'Ashu Charan'
tp32
a(S'100004862285378'
S'Anwar Khan'
tp33
a(S'738139372'
p34
S'Deepak Rawat'
tp35
a(S'522783259'
S'Bv Bhawan'
tp36
a(S'100001997050288'
S'Rahul Kharbanda'
tp37
a(S'100006132544983'
S'Ramji Pal'
tp38
a(S'573728808'
S'Mansur Ali'
tp39
a(S'100000589214567'
S'Sunil Kumar'
tp40
a(S'100006845380199'
S'Imtiyaz Ali'
tp41
a(S'100001612862209'
S'Vinit Dalal'
tp42
a(S'100007947904309'
S'Jatin Rajput'
tp43
a(S'1686495091'
S'Nitendra Shukla'
tp44
a(S'100002921967979'
S'Malkeet Singh'
tp45
a(S'1650782338'
p46
S'Dhiraj Singh'
tp47
a(S'1749459396'
S'Dheeraj DK'
tp48
a(S'100001134245112'
S'Ranjit Singh'
tp49
a(S'100004083673210'
S'Vinay Kumar'
tp50
a(S'100001425013608'
S'Sandeep Bishnoi'
tp51
a(S'100005652913521'
S'Rakesh Sharma'
tp52
a(S'100000608523814'
S'Sahil Ali Khan'
tp53
a(S'1381566468'
S'Jagdish Joshi'
tp54
a(S'100003081502279'
S'Arshad Nawaz'
tp55
a(S'100003206481338'
S'Nikhil Balgohar'
tp56
a(S'100005555584245'
S'Harish Bisht'
tp57
a(S'100001060784329'
S'Neeraj Mba'
tp58
a(S'661656227'
S'Kanav Sharma'
tp59
a(S'100003553310587'
S'Intakhab Aalam'
tp60
a(S'666794656'
S'Pallav Dixit'
tp61
a(S'100002368166308'
p62
S'Parveen Pawar'
tp63
a(S'1805421180'
S'Abhishek Choubey'
tp64
a(S'100000257770381'
p65
S'Dhruv Kandhari'
tp66
a(S'100000490959966'
S'Akhlaq Qureshi'
tp67
a(S'100005635353152'
S'Amit Joshi'
tp68
a(S'100002437468833'
S'Dhawan Sagwan'
tp69
a(S'100006213547220'
S'Ajay Sagwan'
tp70
a(S'100000745779055'
S'Priyavrat Mehla'
tp71
a(S'100002337852132'
S'Ganesh Shamariya'
tp72
a(S'100003228804105'
S'Vishal Chowdhary'
tp73
a(S'100004478770592'
p74
S'Abdul Salam'
tp75
a(S'100000322088699'
S'Ajay Kumar'
tp76
a(S'100006699212060'
S'Akil Khan'
tp77
a(S'100001032050096'
S'Devasheesh Nautiyal'
tp78
a(S'100003697993623'
S'Ajay Kumar'
tp79
a(S'100002943001953'
S'Ajeet Kumar'
tp80
a(S'100004433044462'
S'Kuldeep Mavi'
tp81
a(S'100005701391744'
S'Zaara Khan'
tp82
a(S'100002136877777'
S'Dharmesh Gaur'
tp83
a(S'100005131140232'
S'Sunil Kumar'
tp84
a(S'100000566725013'
S'Shekhar Amar Pokhriyal'
tp85
a(S'100003158755657'
S'Pawan Kumar'
tp86
a(S'100005386873588'
S'Vinesh Dalal'
tp87
a(S'100003263453626'
S'Pali Singh'
tp88
a(S'100001461756793'
S'Ajit Kumar'
tp89
a(S'1615124322'
p90
S'Sachin Kumar'
tp91
a(S'100001436533363'
S'Rakesh Kumar Verma'
tp92
a(S'1614246147'
p93
S'Kabir Lamba'
tp94
a(S'1244794280'
S'Abhimanu Singh'
tp95
a(S'100002585903213'
S'Mala Boruah'
tp96
a(S'100004680666896'
S'Vineet Sharma'
tp97
a(S'100001684168127'
S'Deepak Singh'
tp98
a(S'100002338663438'
S'Monali Singh'
tp99
a(S'100002118321403'
S'Yuvraj Singh'
tp100
a(S'100000818130109'
p101
S'Rohit Bajaj'
tp102
a(S'100007347551516'
S'Ozone Clubs Rohtak'
tp103
a(S'100001559814852'
S'Sushil Sharma'
tp104
a(S'100004262253911'
S'Prem Arya'
tp105
asS'id'
p106
S'100001878648099'
p107
sS'name'
p108
S'Mukesh Kumar'
p109
s.