(dp1
S'name'
p2
S'Chandraprakash Saroj'
p3
sS'current_class'
p4
S'india'
p5
sS'home_class'
p6
Vallahabad, uttar pradesh, india
p7
sS'home_text'
p8
VAllahabad, India\u000aHometown
p9
sS'current_link'
p10
Vhttps://www.facebook.com/l.php?u=https%3A%2F%2Fwww.bing.com%2Fmaps%2Fdefault.aspx%3Fv%3D2%26pc%3DFACEBK%26mid%3D8100%26where1%3D18.975000641097%252C%2B72.825622558594%26name%3DMumbai%252C%2BMaharashtra%252C%2BIndia%26mkt%3Den-IN&h=fAQEwDd7k&s=1
p11
sS'home_link'
p12
Vhttps://www.facebook.com/l.php?u=https%3A%2F%2Fwww.bing.com%2Fmaps%2Fdefault.aspx%3Fv%3D2%26pc%3DFACEBK%26mid%3D8100%26where1%3D25.450000497375%252C%2B81.849517822266%26name%3DAllahabad%252C%2BIndia%26mkt%3Den-IN&h=8AQFN85pf&s=1
p13
sS'current_text'
p14
VMumbai, Maharashtra, India\u000aCurrent City
p15
sS'friends'
p16
(lp17
(S'592113985'
S'M.p. Lohia'
tp18
a(S'5744345'
S'Ravi Kiran'
tp19
a(S'1218021830'
S'Umesh Matkari'
tp20
a(S'1122257204'
S'Rama Kumar'
tp21
a(S'1024341439'
S'Vinay Sinha'
tp22
a(S'564402708'
S'Sushil Chandra'
tp23
a(S'1209321011'
S'Kumud C P Patnaik'
tp24
a(S'100002125983950'
S'Lal Chand'
tp25
a(S'1104560127'
S'Vijay Navandhar'
tp26
a(S'619743429'
S'Shahnawaz Ul Rahman'
tp27
a(S'1613414529'
S'Vivek Batra'
tp28
a(S'1423903285'
S'Hukum Chand'
tp29
a(S'1064547969'
S'Amitabh Kumar'
tp30
a(S'100003766254376'
S'Jitendra Bharti'
tp31
a(S'100000594267574'
S'Kamad Nigam'
tp32
a(S'100000930507403'
S'Prasoon Kabra'
tp33
a(S'100000463313475'
S'Anil P. Chaware'
tp34
a(S'100004213710176'
S'Umesh Chandra Palai'
tp35
a(S'100003314412772'
S'Bhunesh Kumar'
tp36
a(S'100001120243105'
S'Ranjit Kumar Sinha'
tp37
a(S'100000479264011'
S'Satinder Rana'
tp38
a(S'100003872277716'
S'Ramashankar Bharati'
tp39
a(S'100001527162658'
S'Rajesh Sthapak'
tp40
a(S'1107802857'
S'Amol Kamat'
tp41
a(S'100000619300708'
S'Deba Sonowal'
tp42
a(S'1364494290'
S'Suresh Hegde'
tp43
a(S'100003129090537'
S'Anuradha Bhatia'
tp44
a(S'567708456'
S'Shishir Srivastava'
tp45
a(S'100001448555634'
S'Gs Singh'
tp46
a(S'652998347'
S'Chandrajit Singh'
tp47
a(S'100004917451699'
S'Nandlal Saroj'
tp48
a(S'100000605060456'
S'Rajeev Kumar'
tp49
a(S'100002275479652'
S'Suresh Kumar'
tp50
a(S'1468440651'
S'Deepak Sanchety'
tp51
a(S'731987354'
S'Rajiv Nabar'
tp52
a(S'537499342'
S'Om Prakash Kakralia'
tp53
a(S'100000040860041'
S'Sapna Bhatia'
tp54
a(S'100001654338029'
S'Ajit Kumar Singh'
tp55
a(S'599532820'
S'Ravindra Kumar'
tp56
a(S'100005210773103'
S'Devadasan Pn'
tp57
a(S'1180930569'
S'Amit Singh'
tp58
a(S'100000033690068'
S'Sanjeev Shelgikar'
tp59
a(S'1605216153'
S'Vinod Kumar Pandey'
tp60
a(S'1088143106'
S'Rohan Rai'
tp61
a(S'100000378435446'
S'Vibha Bhalla'
tp62
a(S'100001035681330'
S'Om Prakash Meena'
tp63
a(S'1256844376'
S'Sharat Sarangi'
tp64
a(S'655809884'
S'Ravichandran Ramasamy'
tp65
a(S'100001550141655'
S'Sushil Kumar Agarawal'
tp66
a(S'514706811'
S'Mukesh Jain'
tp67
a(S'1839628210'
S'Manish Kumar Singh'
tp68
a(S'100000280941938'
S'Vidyasagar Patil'
tp69
a(S'1486491918'
S'Sanjay Shivam'
tp70
a(S'780190706'
S'Ram Mohan Tiwari'
tp71
a(S'100002779621951'
S'DrDipak Ripote'
tp72
a(S'1246428984'
S'Gopal Dhal'
tp73
a(S'100003906879166'
S'Ashok D Suri'
tp74
a(S'100000094640701'
S'Dinesh Singh'
tp75
a(S'1577889574'
S'Ajay Pandey'
tp76
a(S'1359523723'
S'Geetha Ravichandran'
tp77
a(S'1263593128'
S'Kalyan Chand'
tp78
a(S'1598071299'
S'Durgesh Sumrott'
tp79
a(S'100000162620541'
S'CA Brajesh Agarwal'
tp80
a(S'100002221931926'
S'Sunita Singh'
tp81
a(S'1577439466'
S'Pankaj Kr'
tp82
a(S'100000653884006'
S'Gc Srivastava'
tp83
a(S'1144740205'
S'Murali Marappan'
tp84
a(S'1177660803'
S'Shabana Parveen'
tp85
a(S'100003349328215'
S'Suresh Panwar'
tp86
a(S'100000621081453'
S'Alok Singh'
tp87
a(S'565673289'
S'Rajni Rani Roy'
tp88
a(S'100001249132013'
S'Sandip Pradhan'
tp89
a(S'100001971080197'
S'Niraj Bansal'
tp90
a(S'100001429777341'
S'Priti Patnaik'
tp91
a(S'1330698488'
S'Ravi Inder Gill'
tp92
a(S'100000055052127'
S'Sunil Kumar Singh'
tp93
a(S'100001344283308'
S'Anurag Singh Bhadouria'
tp94
a(S'1241898173'
S'Sunil Kumar'
tp95
a(S'100003818923169'
S'Dibakar Chatterjee'
tp96
a(S'100000661325471'
S'Bishwanath Jha'
tp97
a(S'100000901437387'
S'Sudhakara Rao Dirisam'
tp98
a(S'759424765'
S'Gulshan Raj'
tp99
a(S'738539735'
S'Deepak Tralshawala'
tp100
a(S'1472344034'
S'Kc Badhok'
tp101
a(S'1588441303'
S'Ananthappan Selvaraj'
tp102
a(S'751948236'
S'Sunil Gupta'
tp103
a(S'574647373'
S'Divya Bajpai'
tp104
a(S'1795568346'
S'Kailash Mangal'
tp105
a(S'572647969'
S'Kedia Rajeshkumar'
tp106
a(S'1626159715'
S'Anurag Sahay'
tp107
a(S'100001295493660'
S'Prashant Pandit'
tp108
a(S'1266394593'
S'Sandeep Diddi'
tp109
a(S'537967737'
S'Chandar Singh'
tp110
a(S'1005336247'
S'Amitabh Shukla'
tp111
a(S'100001910617904'
S'Sunita Ojha'
tp112
a(S'100000396114388'
S'Ahmad Fareed'
tp113
a(S'1003793720'
S'Paramjeet Singh'
tp114
a(S'100002201474286'
S'Shivkumar Dhanuka'
tp115
a(S'100000280374252'
S'Anand Upadhyay'
tp116
a(S'100001769619874'
S'Ravi Nar'
tp117
a(S'1490490599'
S'Rahul Navin'
tp118
a(S'1161766982'
S'Girish Chandorkar'
tp119
a(S'100001838326861'
S'Pranab Kumar Das'
tp120
a(S'571401469'
S'Athikho Obou'
tp121
a(S'1340746858'
S'Urvashi Saxena'
tp122
a(S'517669950'
S'Sanjay Bhatia'
tp123
a(S'510693315'
S'Harsh Prakash'
tp124
a(S'100000671967433'
S'Anurag Prasad'
tp125
a(S'100001281592312'
S'Suresh Panwar'
tp126
a(S'100001377654673'
S'Dharm Vir Singh'
tp127
a(S'100002611225301'
S'Jayant Tripathi'
tp128
a(S'1642086280'
S'Suraj Bhan Nain'
tp129
a(S'1568611356'
S'Sandeep Dahiya'
tp130
a(S'574502956'
S'Samir Tekriwal'
tp131
a(S'100000621370268'
S'Madhusudan P Thanvi'
tp132
a(S'1086372648'
S'Darshan Nanavati'
tp133
a(S'100001058281201'
S'Vranda Matkari'
tp134
a(S'1379745728'
S'Ashok Kardam'
tp135
a(S'1202156554'
S'Jeet Sahay'
tp136
a(S'100000428966758'
S'Kalika Singh'
tp137
a(S'1325319960'
S'Brahma Prakash Gaur'
tp138
a(S'100002223770529'
S'Arti Madhuk'
tp139
a(S'724163872'
S'Sanjiv Singh'
tp140
a(S'100005403307015'
S'Upendra Singh'
tp141
a(S'100000394234831'
S'Rajesh Bhoot'
tp142
a(S'723023349'
S'Ritesh Misra'
tp143
a(S'705578504'
S'Asif Karmali'
tp144
a(S'1470420576'
S'Raj Kumar'
tp145
a(S'100000185677892'
S'Pitambar Das'
tp146
a(S'100002490150512'
S'Umesh Chogale'
tp147
a(S'100003795622109'
S'Sriram Singh'
tp148
a(S'1345481122'
S'Kishor Joshi'
tp149
a(S'648551536'
S'Munesh Kumar'
tp150
a(S'1582472935'
S'Vatsalya Saxena'
tp151
a(S'100001062952469'
S'Satender Singh Rana'
tp152
a(S'100003029195850'
S'Virendra Ojha'
tp153
a(S'596321182'
S'Rupesh Agrawal'
tp154
a(S'1587991248'
S'Virendra Ojha'
tp155
a(S'100000037578902'
S'Bhanu Mansinghka'
tp156
a(S'683689870'
S'Venkatadri Venkat'
tp157
a(S'100001482584784'
S'Prashant Bhushan'
tp158
a(S'839654303'
S'Poonam Khaira Sidhu'
tp159
a(S'1330430557'
S'Pankaj Singhania'
tp160
a(S'100001220797370'
S'Arunachalam Soorianarayanan'
tp161
a(S'1420890721'
S'Om Prakash Kant'
tp162
a(S'100001568747170'
S'Mahender Bishnoi'
tp163
a(S'1647267918'
S'Sanjeev Baranwal'
tp164
a(S'100003792054442'
S'Ram Niwas Poonia'
tp165
a(S'1501090036'
S'Surinder Jit Singh'
tp166
a(S'100002362658663'
S'Selvaganesh Puvaneswaran'
tp167
a(S'100004086263366'
S'Raghu Pervela'
tp168
a(S'1489680635'
S'Niraj N. Kumar'
tp169
a(S'713170827'
S'Shahid Khan'
tp170
a(S'1496400927'
S'Shyam Benupani'
tp171
a(S'517511689'
S'Arvind Mishra'
tp172
a(S'100007251662419'
S'Srinivas Danda'
tp173
a(S'100000813233702'
S'Jasbir Chouhan'
tp174
a(S'100006995681279'
S'Anita Jhep'
tp175
a(S'100002242004818'
S'Sankar Thillaiappan'
tp176
a(S'747788731'
S'Manpreet Singh Duggal'
tp177
a(S'849635082'
S'Rajul Awasthi'
tp178
a(S'100000728716516'
S'Ajay Modi'
tp179
a(S'100002047594426'
S'Rajan Singh'
tp180
a(S'1484520200'
S'Sunil Chander Sharma'
tp181
a(S'1588269386'
S'Ajay Chandra'
tp182
a(S'100000159486283'
S'Ashok Jha'
tp183
a(S'738339999'
S'Pathlavath Peerya'
tp184
a(S'607082340'
S'Hukum C Jain'
tp185
a(S'100000583569679'
S'Rahul Mehra'
tp186
a(S'100001436154691'
S'Nitish Rai'
tp187
a(S'819468699'
S'Sanjay Agrawal'
tp188
a(S'1250002764'
S'Nagin Parekh'
tp189
a(S'1061764312'
S'Manish Mishra'
tp190
a(S'816969061'
S'Anshu Prakash'
tp191
a(S'100000475782506'
S'Arun Shenoy'
tp192
a(S'1765507298'
S'Umesh Phade'
tp193
a(S'100004083921483'
S'Prabhat Kumar Srivastava'
tp194
a(S'1668777333'
S'Sangam Srivastava'
tp195
a(S'100000820762320'
S'Jk Mishra'
tp196
a(S'1281622114'
S'Santosh Kumar'
tp197
a(S'100002335527930'
S'Ram Krishna Gupta'
tp198
a(S'100004545973230'
S'Peadeep Pawar'
tp199
a(S'710321996'
S'Dilip Sharma'
tp200
a(S'100001217762913'
S'Ram Phool Meena'
tp201
a(S'1608699390'
S'Amrita Misra'
tp202
a(S'1517470020'
S'Manoj Kumar Singh'
tp203
a(S'100003333825935'
S'Ramji Sinha'
tp204
a(S'547510861'
S'Paresh Johri'
tp205
a(S'1201683588'
S'Sandeep Kedia'
tp206
a(S'100000980607480'
S'Suresh Satapathy'
tp207
a(S'1599631281'
S'Shyamsundar Keshkamat'
tp208
a(S'100000555691705'
S'Neena Jeph'
tp209
a(S'100000461286330'
S'Neena Singh'
tp210
a(S'756199384'
S'Navneet Soni'
tp211
a(S'100002231132691'
S'Bhagchand Meena'
tp212
a(S'1428332344'
S'Laxmi Narayan Pant'
tp213
a(S'1632931953'
S'Mudit Nagpal'
tp214
a(S'1240275445'
S'Mehul Shah'
tp215
a(S'1415598660'
S'Sunil Ojha'
tp216
a(S'1424920022'
S'Sudesh Garg'
tp217
a(S'1791320987'
S'Daya Shanker'
tp218
a(S'100000025192489'
S'Pritam Singh'
tp219
a(S'100003090568532'
S'Anupama Singh'
tp220
a(S'703621333'
S'Rajeev Harit'
tp221
a(S'1317437587'
S'Suman Singh'
tp222
a(S'100000150831103'
S'Ritesh Parmar'
tp223
a(S'100000819688981'
S'Shilpa Pandey'
tp224
a(S'1376457439'
S'Bhanwar Singh Ratnoo'
tp225
a(S'1052821370'
S'Ajay Kumar'
tp226
a(S'100000948178962'
S'Alok Singh'
tp227
a(S'100000981876788'
S'Dharm Veer Singh'
tp228
a(S'1548605393'
S'Satish Sharma'
tp229
a(S'100000169557753'
S'Vijay Shendre'
tp230
a(S'1201064635'
S'Vinod K Tripathi'
tp231
a(S'100001806237098'
S'Gunjan Prasad'
tp232
a(S'1542167963'
S'Mohit Jain'
tp233
a(S'100002113743545'
S'Bharat Dhanuka'
tp234
a(S'1683665350'
S'Bhuvnesh Kulshrestha'
tp235
a(S'1747693554'
S'Gajendra Singh'
tp236
a(S'1403033056'
S'Narayan Prasad Bhagat'
tp237
a(S'1061611391'
S'Peeyush Sonkar'
tp238
a(S'1014527879'
S'Anadee Nath Misshra'
tp239
a(S'633224398'
S'Sarish Irukulla Kumar'
tp240
a(S'100007126321908'
S'Brajesh Kumar Singh'
tp241
a(S'1156017995'
S'Sushil Madhuk'
tp242
a(S'100000854317180'
S'Rajeshwar Yadav'
tp243
a(S'1114457433'
S'Avinash Mishra'
tp244
a(S'100000597845240'
S'Shyam Saroj Radhey'
tp245
a(S'1715473878'
S'Harigovind Singh'
tp246
a(S'100001959628836'
S'Alpana Saksena'
tp247
a(S'1485290072'
S'Deepak Modi'
tp248
a(S'100002143757740'
S'Ramesh Danday'
tp249
a(S'100003480730312'
S'Prakash S Pasi'
tp250
a(S'100002497186195'
S'Shahina Parveen'
tp251
a(S'100000619491617'
S'Milind Bhusari'
tp252
a(S'1820141478'
S'Amar Singh'
tp253
a(S'1140287493'
S'Sanjeev K Abrol'
tp254
a(S'763960071'
S'Ashish Heliwal'
tp255
a(S'100000394166644'
S'Veerappalam Mahalingam'
tp256
a(S'100002814481008'
S'Kumar Hrishikesh'
tp257
a(S'1011548334'
S'Surendra Kumar'
tp258
a(S'100001973577072'
S'Anil Misra'
tp259
a(S'1418350893'
S'Surendra Babu'
tp260
a(S'100007614305005'
S'Darzakhum Songate'
tp261
a(S'1090457076'
S'Susie Varghese'
tp262
a(S'100000001180862'
S'Vikram Sankhala'
tp263
a(S'1480860812'
S'Sanyogita Nagpal'
tp264
a(S'729990414'
S'Sk Singh'
tp265
a(S'525929005'
S'Uma Singh'
tp266
a(S'100007424647737'
S'Nilima Mansukhani'
tp267
a(S'100000353166111'
S'Anurag Vardhan'
tp268
a(S'789468621'
S'Arun S Bhatnagar'
tp269
a(S'100001218530599'
S'Mukesh Gautam'
tp270
a(S'100000007112731'
S'Dipak Kumar Sinha'
tp271
a(S'1607921652'
S'Shri Prakash Dubey'
tp272
a(S'660616193'
S'Prathamesh Lawand'
tp273
a(S'100001216211173'
S'Anil Kumar'
tp274
a(S'1082145714'
S'Shantanu Ghosh'
tp275
a(S'100002365488245'
S'Amrisha Rai'
tp276
a(S'100002840383583'
S'Kaushal Sharma'
tp277
a(S'100000012660872'
S'Srinivasulu Hanumanthgari'
tp278
a(S'1844194497'
S'Satya Prasant P'
tp279
a(S'100001115832999'
S'Arun Kumar Singh'
tp280
a(S'510670224'
S'Sitanshu Singh'
tp281
a(S'100002116154677'
S'Sujit Kumar'
tp282
a(S'1037131183'
S'Vijay Kumar'
tp283
a(S'1287318712'
S'Naresh Balodia'
tp284
a(S'1029713428'
S'Sandip Garg'
tp285
a(S'573122485'
S'Satya Pal Kumar'
tp286
a(S'100001275327786'
S'Rajneesh Arvind'
tp287
a(S'1325190196'
S'Rajeev P Singh'
tp288
a(S'1325143421'
S'Rangnath Jha'
tp289
a(S'1112834612'
S'Rabi Narayan Dash'
tp290
a(S'1370554854'
S'Oma Sharma'
tp291
a(S'1497690573'
S'Sanjeev Sharma'
tp292
a(S'508328936'
S'Kinjal Gandhi'
tp293
a(S'1213292358'
S'Anand Baiwar'
tp294
a(S'1623427993'
S'Prafulla Mishra'
tp295
a(S'1048152953'
S'Bala Krishnan'
tp296
a(S'1057808456'
S'Ramesh Narain Parbat'
tp297
a(S'100003678730944'
S'Pawan Tomar'
tp298
a(S'550139175'
S'Sangeeta Gupta'
tp299
a(S'1645277359'
S'Sandeep Kumar'
tp300
a(S'100000633777683'
S'Syed Naiyer Ali Najmi'
tp301
a(S'688072801'
S'Sameer Sharma'
tp302
a(S'1789895039'
S'Milap Jain'
tp303
a(S'1465966631'
S'Sunil Bajpai'
tp304
a(S'1351275734'
S'Prem Chandra Maurya'
tp305
a(S'1105334973'
S'Surendra Singh'
tp306
a(S'100002298824624'
S'Brijesh Mishra'
tp307
a(S'100000731025624'
S'Yagyesh Raghuvanshi'
tp308
a(S'100006481855170'
S'Ratnesh Kumar'
tp309
a(S'100004079137554'
S'Vinita Rathore'
tp310
a(S'100001130414357'
S'Swatantra Kumar'
tp311
a(S'100000423148631'
S'Devesh Vasavada'
tp312
a(S'100002489491480'
S'Waris Ali'
tp313
a(S'1455229897'
S'Sunil Kumar Singh'
tp314
a(S'1130435278'
S'Inder Solanki'
tp315
a(S'1400496182'
S'Shishir Agnihotri'
tp316
a(S'100002630320884'
S'Gaurav Ojha'
tp317
a(S'100002118817124'
S'Alok Kumar'
tp318
a(S'661770196'
S'Dhananjay Kumar'
tp319
a(S'100002223185074'
S'Ajay Kumar'
tp320
a(S'100000947493819'
S'Ramana Babu K'
tp321
a(S'100000779774677'
S'Vimal Tiwari'
tp322
a(S'100001209437027'
S'Ravi Sarangal'
tp323
a(S'100001572862793'
S'Krishan Kanwat'
tp324
a(S'1609951241'
S'Vidhu Shekher Singh'
tp325
a(S'572793560'
S'Zakir Thomas'
tp326
a(S'1659596041'
S'Ranjana Gaur'
tp327
a(S'100000593772952'
S'Shyamsundar Keshkamat'
tp328
a(S'1637676219'
S'Shafiq R Malik'
tp329
a(S'705003987'
S'Tushar Dhawal Singh'
tp330
a(S'780843935'
S'Ashish Abrol'
tp331
a(S'100002635514521'
S'Harishankar Kumar Lal'
tp332
a(S'100000296042736'
S'Saravana Kumaran'
tp333
a(S'100000828944856'
S'John Langstieh'
tp334
a(S'100001244107014'
S'Jyotirmaya Khelwar'
tp335
a(S'1079453739'
S'Karun K Ojha'
tp336
a(S'100000525753112'
S'Rahul Kr'
tp337
a(S'707279394'
S'Mahua Sarkar'
tp338
a(S'802784895'
S'Surabhi Sharma'
tp339
a(S'1288876382'
S'Jagadish Irs'
tp340
a(S'100002278956874'
S'Shashi Prasad'
tp341
a(S'722098754'
S'Shashi Bhushan Prasad'
tp342
a(S'100000611075409'
S'Feroz Khan'
tp343
a(S'100001158680445'
S'Santosh Mahendra'
tp344
a(S'100001704057197'
S'Sundar Tr'
tp345
a(S'1711076561'
S'Sanjay Punglia'
tp346
a(S'1340474143'
S'Prasad Reddy'
tp347
a(S'100000519085010'
S'Maruti Maddewad'
tp348
a(S'633209247'
S'Vineet Agrawal'
tp349
a(S'1742761483'
S'Sanjay Kumar'
tp350
a(S'100001484205123'
S'Rajesh Ranjan Prasad'
tp351
a(S'1567385476'
S'Yagya Dutt Sharma'
tp352
a(S'1827947545'
S'Rakesh Kumar Paliwal'
tp353
a(S'100000328975078'
S'LK Agarwal'
tp354
a(S'100000538775462'
S'Manvendra Goyal'
tp355
a(S'543760762'
S'Anand Kumar Kedia'
tp356
a(S'100004234239253'
S'Kamlesh Chandra Varshney'
tp357
a(S'100003867079745'
S'Narottam Mishra'
tp358
a(S'100002213636551'
S'Gopal Rawlani'
tp359
a(S'100001438657973'
S'Debashis Chanda'
tp360
a(S'100002628310148'
S'Vivek Wadekar'
tp361
a(S'766719488'
S'Ajay Srivastava'
tp362
a(S'734608651'
S'Anadee Nath Misshra'
tp363
a(S'100001180201201'
S'Uday Kumaran'
tp364
a(S'1111069308'
S'Senthil Kumar'
tp365
a(S'100001599878523'
S'Rohit Dhawan'
tp366
a(S'100000481764816'
S'Prakash Shetty'
tp367
a(S'100002580347687'
S'Sita Ram Meena'
tp368
a(S'100000216930960'
S'Rupinder Pannu Brar'
tp369
a(S'100002408542832'
S'Durga Prasad Mamidisetty'
tp370
a(S'100003488178541'
S'Vipul Yadav'
tp371
a(S'100000671656072'
S'Pradeep Sharma'
tp372
a(S'1427071599'
S'Ashok Bal'
tp373
a(S'813791987'
S'Rajeev Kesarwani'
tp374
a(S'1062541387'
S'Rajgopal Sharma'
tp375
asS'id'
p376
S'100002020612984'
p377
s.