(dp1
S'friends'
p2
(lp3
(S'100006465631148'
S'Himanshi Juneja'
tp4
a(S'100001405820100'
S'Saloni Jagga'
tp5
a(S'100000629536841'
S'Naman Sharma'
tp6
a(S'100001263649569'
S'Sahil Kumar'
tp7
a(S'100002613115114'
S'Ajay Poonia'
tp8
a(S'100002606695022'
S'Sachin Saini'
tp9
a(S'650549073'
S'Naman Bansal'
tp10
a(S'100000135412783'
S'Sumil Mudgal'
tp11
a(S'100002147723015'
S'Vivek Jain'
tp12
a(S'100001743004816'
S'Sakshi Kapoor'
tp13
a(S'100003756156604'
S'Vikas Yadav'
tp14
a(S'100005593991299'
S'Antima Goyal'
tp15
a(S'704402152'
S'Priyali Soota'
tp16
a(S'100001119156405'
S'Himanshi Girdhar'
tp17
a(S'100002505725077'
S'Vivek Raghav'
tp18
a(S'100000668621821'
S'Aaradhya Anshul Luthra'
tp19
a(S'1305272063'
S'Tanwar Himanshu'
tp20
a(S'100003904054497'
S'Priyanshu Garg'
tp21
a(S'100002232135225'
S'Dheeraj Singh'
tp22
a(S'100001112908301'
S'DrSamaira Sharma'
tp23
a(S'100006111336048'
S'Priya Sharma'
tp24
a(S'100000969526157'
S'Abhi Shek'
tp25
a(S'100003307201025'
S'Neetu Farswal'
tp26
a(S'100002885278738'
S'Sachin Sangwan'
tp27
a(S'100001455008038'
S'Dharmender Sheoran'
tp28
a(S'1327445792'
S'Parveen Sharma'
tp29
a(S'100001327625925'
S'Pooja Mishra'
tp30
a(S'100000157321232'
S'Abhav Awasthi'
tp31
a(S'100001451266094'
S'Akash Goel'
tp32
a(S'100004116519395'
S'Digvijay Rajput'
tp33
a(S'100002549557494'
S'Aman Tomer'
tp34
a(S'100000956896106'
S'Ruchi Parveen Sharma'
tp35
a(S'100002207573455'
S'Aakash Nehra'
tp36
a(S'100004681415541'
S'Heena Singla'
tp37
a(S'100002174896693'
S'Garima Arya'
tp38
a(S'100003285392742'
S'Sikander Singh'
tp39
a(S'100001791645417'
S'Ankit Sharma'
tp40
a(S'1633525756'
S'Swati Batra'
tp41
a(S'100000614832222'
S'Avni Nangia'
tp42
a(S'100002528103921'
S'Fca Anil Choudhary'
tp43
a(S'100000577313717'
S'Bhuv Arya'
tp44
a(S'100000520254389'
S'Shubham Jangra'
tp45
a(S'100002355619520'
S'Sunny Parmar'
tp46
a(S'1310944341'
S'Siddhant Sharma'
tp47
a(S'100001954977572'
S'Durgesh Rana'
tp48
a(S'600987792'
S'Kanishk Deka'
tp49
a(S'100006474420979'
S'Monika Mehta'
tp50
a(S'100001941706830'
S'Atul Garg'
tp51
a(S'100000574223305'
S'Nitin Gupta'
tp52
a(S'100001741149871'
S'Robin Singh Rajput'
tp53
a(S'100005130790422'
S'Rajat Sharma'
tp54
a(S'100001096781400'
S'Piyush Goyal'
tp55
a(S'100002606035663'
S'Rashmi Arya'
tp56
a(S'100003663608844'
S'Vaishali Sharda'
tp57
a(S'100005754188029'
S'Naveen Aggarwal'
tp58
a(S'100004710576223'
S'ViVek Chauhan'
tp59
a(S'100004011867223'
S'Anu Arya'
tp60
a(S'100002040815642'
S'Dhiraj Raghav'
tp61
a(S'100000183432902'
S'Kirti Ojha'
tp62
a(S'100002905462735'
S'Kushagra Bhardwaj'
tp63
a(S'100001182610502'
S'Yogesh Panghal'
tp64
a(S'100003318444626'
S'Sajjan Bhardwaj'
tp65
a(S'100001166842462'
S'Gaurav Bhardwaj'
tp66
a(S'100002649682540'
S'Sharma Ashutosh'
tp67
a(S'568555474'
S'Sudeep Mudgal'
tp68
a(S'100002505367185'
S'Dhanda Manish'
tp69
a(S'100000372480559'
S'Ravi Sharma'
tp70
a(S'1580117185'
S'Suchit Mudgal'
tp71
a(S'1665584823'
S'Arun Sangwan'
tp72
a(S'100001208173195'
S'Megha Goyal'
tp73
a(S'1027155553'
S'Sakshi Singh Rajpoot'
tp74
a(S'100002051170439'
S'Yogyata Sharma'
tp75
a(S'100002179756549'
S'Shagun Chawla'
tp76
a(S'100001614715364'
S'Sakshi Aggarwal'
tp77
a(S'100004061011859'
S'Ishan Sharma'
tp78
a(S'100002124425082'
S'Nitin Tanwar'
tp79
a(S'1270545871'
S'Pankaj Karnwal'
tp80
a(S'100000086214208'
S'Lakshya Agarwal'
tp81
a(S'100001093473920'
S'Jyoti Kaushik Rattan'
tp82
a(S'100005871284153'
S'Alina Hasan'
tp83
a(S'100006428426793'
S'Aditi Aggarwal'
tp84
a(S'1745693622'
S'Deevaker Goel'
tp85
a(S'100002375824302'
S'Karan Jhingon'
tp86
a(S'100001253247179'
S'Ashutosh Pratap Singh'
tp87
a(S'100002546105420'
S'Nikita Aggarwal'
tp88
a(S'100005505722052'
S'Aanchal Jindal'
tp89
a(S'100000740798093'
S'Pulkit Singla'
tp90
a(S'100003688821322'
S'Aditi Sharma'
tp91
a(S'760590213'
S'Parul Sabharwal'
tp92
a(S'668780226'
S'Kanika Pal'
tp93
a(S'100004140523055'
S'Aanchal Goyal'
tp94
a(S'100002184450245'
S'Surya Pratap'
tp95
a(S'100003115852345'
S'Suruchi Sharma'
tp96
a(S'100003717858617'
S'Ravi Sheoran'
tp97
a(S'1289367721'
S'Jeet Singh Chauhan'
tp98
a(S'100004873473414'
S'Yash Tanwar'
tp99
a(S'1437230590'
S'Pankhuri Gupta'
tp100
a(S'100002786780527'
S'Ravish Masta'
tp101
a(S'658303933'
S'Aditi Aggarwal'
tp102
a(S'100004056212553'
S'Devdutt Kaushik'
tp103
asS'id'
p104
S'100000942744467'
p105
sS'name'
p106
S'Akhilesh Bhardwaj'
p107
s.