(dp1
S'name'
p2
S'Kamal Yadav'
p3
sS'current_class'
p4
S'india'
p5
sS'home_class'
p6
Vgwalior, madhya pradesh, india
p7
sS'home_text'
p8
VGwalior\u000aHometown
p9
sS'current_link'
p10
Vhttps://www.facebook.com/l.php?u=https%3A%2F%2Fwww.bing.com%2Fmaps%2Fdefault.aspx%3Fv%3D2%26pc%3DFACEBK%26mid%3D8100%26where1%3D28.613900916609%252C%2B77.207794189453%26name%3DNew%2BDelhi%252C%2BIndia%26mkt%3Den-IN&h=cAQHQZMnE&s=1
p11
sS'home_link'
p12
Vhttps://www.facebook.com/l.php?u=https%3A%2F%2Fwww.bing.com%2Fmaps%2Fdefault.aspx%3Fv%3D2%26pc%3DFACEBK%26mid%3D8100%26where1%3D26.223599985146%252C%2B78.1787109375%26name%3DGwalior%26mkt%3Den-IN&h=vAQHkhsIO&s=1
p13
sS'current_text'
p14
VNew Delhi, India\u000aCurrent City
p15
sS'friends'
p16
(lp17
(S'100000405043117'
p18
S'Kamal Yadav'
tp19
a(S'564061417'
S'Alok Kumar'
tp20
a(S'100000079193838'
S'Rajesh Verma'
tp21
a(S'644471203'
S'Chandni Singh'
tp22
asS'id'
p23
g18
s.