(dp1
S'friends'
p2
(lp3
(S'100006718031998'
S'Mir Amanullah Kandrani'
tp4
a(S'100006673145131'
S'Rabnawaz Khan'
tp5
a(S'100003089682110'
S'Meer Waheed'
tp6
a(S'100003113201704'
S'Dalilatou Takpa'
tp7
a(S'100005634363956'
S'Changez Nayab'
tp8
a(S'100000809614487'
S'Jan Buledi'
tp9
a(S'100000458237897'
S'Zafar Rind'
tp10
a(S'100007735740426'
S'Sadamferoz Shafiqferoz'
tp11
a(S'100005808523648'
S'Mir Sajjad Khan Bulledi'
tp12
a(S'100007877857359'
S'Samar Ayaan'
tp13
a(S'100004831324988'
S'Wafa Baloch'
tp14
a(S'100007770249386'
S'Firdous Yatoo'
tp15
a(S'573021999'
S'Arbab Nasruminallah'
tp16
a(S'100001059531800'
S'\\u017d\\u00e1\\u00f1 \\u00ce\\u015fh\\u00e3q'
tp17
a(S'100006210792029'
S'Mir Naeem Ahmed Bulledi'
tp18
a(S'1483233503'
p19
S'Hum Sab Ka Pakistan'
tp20
a(S'100007580886481'
S'Ems Guisona'
tp21
a(S'100006774191964'
S'Zafar Mengal'
tp22
a(S'100003119769142'
p23
S'Azad Balochistan'
tp24
a(S'100002252840636'
S'Fida Buledi Baloch'
tp25
a(S'100007600301102'
S'Raja Shakir'
tp26
a(S'100000440139133'
S'Afaq Mazari'
tp27
a(S'100003761076734'
S'Qamar Ul Hassan Bharon'
tp28
a(S'100005047381318'
S'Ghulam Mohammad Kanrani'
tp29
a(S'1243613064'
S'Maqbool Baloch'
tp30
a(S'100003038397995'
S'Sundar Ali'
tp31
a(S'1108881571'
p32
S'Zohaib Baig'
tp33
a(S'100000032398886'
S'Alicia Jeny Magretha'
tp34
a(S'100007398674569'
S'Shabir Ahmed Bulledi Baloch'
tp35
a(S'100003551188670'
p36
S'Uzair Saifi'
tp37
a(S'100007707364833'
S'ShehNazz ZohRa'
tp38
a(S'100000109828143'
S'Muhammad Sohail Alvi'
tp39
a(S'100008048433558'
S'Mir Abdul Haq Rind'
tp40
a(S'100003027100357'
S'Singer Arif Bugti'
tp41
a(S'100005604272788'
S'Shams Baloch'
tp42
a(S'100000714842757'
S'Farid Ullah Jan'
tp43
a(S'100001218622063'
S'Gulzar Ahmed Kandrani'
tp44
a(S'100000680218668'
S'Mahnaz Baloch'
tp45
a(S'100001105197207'
S'Sikandar Hameed'
tp46
a(S'100000517802092'
S'Alimurad Jatoi'
tp47
a(S'636034353'
p48
S'Pakistan Tuje Salaam'
tp49
a(S'100007065703287'
S'Abdul Malik Baloch'
tp50
a(S'100006490036080'
S'Fyaz Ahmed Shah'
tp51
a(S'100008299182600'
S'Zoya Bano'
tp52
a(S'100001431470029'
S'M Aslam Jaan'
tp53
a(S'100006597845228'
p54
S'Ishtiaq Ahmed Jellani'
tp55
a(S'100005684410817'
p56
S'\\u062c\\u0627\\u0646 \\u0633\\u06d2 \\u067e\\u06cc\\u0627\\u0631\\u0627 \\u067e\\u0627\\u06a9\\u0633\\u062a\\u0627\\u0646'
tp57
a(S'100000815263940'
S'Muddasir Nawaz'
tp58
a(S'100000534857078'
S'Nazeer Rind'
tp59
a(S'100000865316380'
S'Kamran Khan'
tp60
a(S'100007839962769'
S'Heena Malik'
tp61
a(S'645106131'
S'Younus Raza'
tp62
a(S'100008031490595'
S'Muzafar Hussain Bulledi'
tp63
a(S'100000509744379'
S'Zara Sheikh'
tp64
a(S'100000851912458'
p65
S'Pakistan Zindabad Pakistan Paindabad'
tp66
a(S'100008030612876'
S'Singer Sabz Ali Bugti'
tp67
a(S'100006406774667'
S'Mahnoor Khan'
tp68
a(S'100006441039655'
S'Asfa Baloch'
tp69
a(S'100003954698848'
S'Sohrab Baloch'
tp70
a(S'100005233509994'
S'Mohammad Rafiq Abro'
tp71
a(S'100001354867695'
S'Adv M Waqas Khan'
tp72
a(S'100005588220303'
S'Khyber Marwat'
tp73
a(S'100000674101939'
S'MD Khan'
tp74
a(S'100006675630172'
S'Akbar Ali Baloch'
tp75
a(S'100000339566194'
S'Wali Perozani Bugti'
tp76
a(S'100006096361729'
S'Riaz Ali Baloch'
tp77
a(S'100000853175429'
p78
S'Rajazainulabideen Raja Harjai'
tp79
a(S'100007685645844'
S'Hussain Bulledi Hussaini'
tp80
a(S'100001266701903'
S'Aftab Rind'
tp81
a(S'100008077302339'
S'Sadam Sarwar Gajani'
tp82
a(S'100007283880644'
S'Mushtaq Khan Behrani'
tp83
a(S'100000539621348'
S'Aamir Khan Behrani'
tp84
a(S'100006568423006'
p85
S'\\u0645\\u0633\\u0679\\u0631 \\u067e\\u0627\\u06a9\\u0633\\u062a\\u0627\\u0646\\u06cc'
tp86
a(S'100000380503587'
p87
S'Umair Ramay'
tp88
a(S'100007745674879'
S"Im'n\\u1ec3xt Pr\\u00ecnc\\u1ec3s-\\u1eddf \\u00dd\\u1edd\\u01b0r-H\\u1ec3\\u1ea5rt Ft'r\\u1ea5bi\\u1ea5"
tp89
a(S'100008223373616'
S'Shabnam Nayab'
tp90
a(S'100006526038318'
S'Faqeer Raffiq Bulledi Kanrani'
tp91
a(S'100000865183230'
S'Atta Bugti'
tp92
a(S'100006468123212'
S'Maheen Baloch'
tp93
a(S'100005944327650'
S'Marvi Khan'
tp94
a(S'100006361112568'
S'Muhammad Farooq'
tp95
a(S'100000061112751'
S'Umar Khan'
tp96
a(S'100003690191595'
S'Jameel Ahmed Nindwani'
tp97
a(S'100000416203840'
S'Mir Ali Nawaz Panhwar'
tp98
a(S'100006506011314'
S'Faiq Khan'
tp99
a(S'100001203980034'
S'Nadeem Hussain Buledi'
tp100
a(S'100007482131878'
S'Rubina Khan Abro'
tp101
a(S'100006706993757'
S'Meharban Khan Kandrani'
tp102
a(S'100001233328566'
p103
S'Humara Pakistan'
tp104
a(S'1488651795'
p105
S'Hasrat Kiani'
tp106
a(S'100005772901709'
S'Hameed Behrani'
tp107
a(S'100007647879774'
S'Saraa Khan'
tp108
a(S'100006833554976'
p109
S'Lanat India Pe'
tp110
a(S'100001041421720'
S'Mehmood Khosa'
tp111
a(S'100007083303982'
S'Abdul Wahid'
tp112
a(S'100004115529145'
S'Naik Muhammad Bugti Baloch'
tp113
a(S'100000706311853'
S'Jorge A Wong'
tp114
a(S'100007866069513'
S'Dhamaka Baloch'
tp115
a(S'661700762'
S'Mureed Bizenjo'
tp116
a(S'100005710394065'
S'Nako Basham'
tp117
asS'id'
p118
S'100006708367135'
p119
sS'name'
p120
S'Fareed Ullah Bulledi'
p121
s.