(dp1
S'friends'
p2
(lp3
(S'100004223534546'
S'Kevin Slade'
tp4
a(S'100001351338828'
S'Sam John'
tp5
a(S'100001000416262'
S'Koshika Sharma'
tp6
a(S'100001034620911'
S'Vibin Johny'
tp7
a(S'100001692786114'
S'Tipsy Thomas'
tp8
a(S'100006206078158'
S'Sonam Michael'
tp9
a(S'100002613679818'
S'Subin Joy'
tp10
a(S'100002545381873'
S'Vishakh Massey'
tp11
a(S'1844484722'
S'Suja Saji'
tp12
a(S'833803303'
S'Priyanka Toppo'
tp13
a(S'100004070677545'
S'Divya Walecha'
tp14
a(S'100001247263982'
S'Sanchit Gupta'
tp15
a(S'100004030634732'
S'Mouli Das'
tp16
a(S'100001894250236'
S'Vishnu Vivek'
tp17
a(S'100000780608947'
S'V\\u00ed\\u00f1\\u00e0y \\u00d1\\u00ebg\\u00ee'
tp18
a(S'100008290816789'
S'Lakshmi Prasad'
tp19
a(S'100001100762929'
S'Aiashna Buttan'
tp20
a(S'100001175716889'
S'Sakshi Arora'
tp21
a(S'100001193768238'
S'Anisha Mehta'
tp22
a(S'100000006634264'
S'Priyanka Yadav'
tp23
a(S'100002360487258'
S'Khyati Yadav'
tp24
a(S'100002108650325'
S'Frenky D Unbreakable'
tp25
a(S'100003858046710'
S'Satwik Arora'
tp26
a(S'1836201039'
S'Dwijendra Kumar'
tp27
a(S'1224577771'
S'Jasmine Joseph'
tp28
a(S'100001328712607'
S'Preeti Upreti'
tp29
a(S'100000190467304'
S'Prasoon Sudhakaran'
tp30
a(S'100001096966313'
S'Sakshi Chawla'
tp31
a(S'100001913094914'
S'Ashwin AG'
tp32
a(S'100002091175411'
S'Pushpesh Sharma'
tp33
a(S'100006452111299'
S'Ranjith Raj'
tp34
a(S'100002345318235'
S'Swati Sudhanshu'
tp35
a(S'100004370894570'
S'Prachi Sinia'
tp36
a(S'100002259774406'
S'Surbhee Dewan'
tp37
a(S'100005683923444'
S'Rashmi Mangla'
tp38
a(S'100002450426854'
S'Manish Raj'
tp39
a(S'100007850144290'
S'Mahi Kakkar'
tp40
a(S'100001735931211'
S'Deepanshu Pokhriyal'
tp41
a(S'100002643292426'
S'Jano Raas Jose'
tp42
a(S'100001094850299'
S'Sheetal Minj'
tp43
a(S'100000557547153'
S'Margesh Pokhriyal'
tp44
a(S'100000277645148'
S'Mansi Thomas'
tp45
a(S'100000265156080'
S'Saurav Virdi'
tp46
a(S'100002220547017'
S'Swati Kataria'
tp47
a(S'100001360543845'
S'Anchal Mishra'
tp48
a(S'100003658478674'
S'Laya Sreekumar'
tp49
a(S'100000997121643'
S'Eric Peter'
tp50
a(S'100002347421910'
S'Damini Mota'
tp51
a(S'1147545916'
S'Nninja Singh'
tp52
a(S'100002632194350'
S'Kanika D C\\u00f8\\u00d8l'
tp53
a(S'100001497554120'
S'Garima Bhaskar'
tp54
a(S'100001508174794'
S'Ritika Banerjee'
tp55
a(S'100000924979898'
S'Rashee Sharma'
tp56
a(S'100008139070376'
S'Jibi Toms'
tp57
a(S'100002943990238'
S'Vj Jon'
tp58
a(S'100004638150583'
S'Gayatri Iyer'
tp59
a(S'100003630920392'
S'Snigdha Bhattacharya'
tp60
a(S'100003583538463'
S'Bonnie Sebastian'
tp61
a(S'100003101674015'
S'Steffi Sakshi'
tp62
a(S'100000580605060'
S'Kanupriya Kaikeya'
tp63
a(S'100003994708470'
S'Tresa Juan'
tp64
a(S'100001629234151'
S'Panushreya Senendran'
tp65
a(S'100003004870945'
S'Kodrox Sikki'
tp66
a(S'100000317172401'
S'Akhil Narayanan'
tp67
a(S'100001797111231'
S'Sibi G Varghese'
tp68
a(S'515843281'
S'Ritika Ramtri'
tp69
a(S'100004274644690'
S'Aurarius Kanchan'
tp70
a(S'100005355098164'
S'Manvi Nagpal'
tp71
a(S'100001171801365'
S'Lubna Ismailee'
tp72
a(S'100002560090217'
S'Priyanka Dutta'
tp73
a(S'100001074251232'
S'Lino Suresh'
tp74
a(S'100002352345896'
S'Monica John'
tp75
a(S'100002135188468'
S'Ishita Vij'
tp76
a(S'1524121830'
S'Jobin Johny'
tp77
a(S'100006060725128'
S'Rahul Rana'
tp78
a(S'100000756543300'
S'Vaishali Bangari'
tp79
a(S'100002565455204'
S'Akanksha Singh'
tp80
a(S'733446174'
S'Prabind Prabhakaran'
tp81
a(S'100003315667060'
S'Juan Spain'
tp82
a(S'100000581575342'
S'Anant Dev Roy'
tp83
a(S'100002288033106'
S'Meghna Chauhan'
tp84
a(S'100000167195764'
S'William Haris'
tp85
a(S'100008142308460'
S'Aishwarya Unni'
tp86
a(S'100002222033201'
S'Magdilina Gomes'
tp87
a(S'100003736100784'
S'Akhila Elizabeth Abraham'
tp88
a(S'100005939580779'
S'Sameer Kumar'
tp89
a(S'100003240558935'
S'Gujjar Viky Dedha'
tp90
a(S'100000028941986'
S'Moris William Massy'
tp91
a(S'100000496612138'
S'Jerin George'
tp92
a(S'100001730254186'
S'Shweta Anand'
tp93
a(S'100007184858360'
S'Sunny Rajput'
tp94
a(S'100000947719384'
S'Nickita Iyer'
tp95
a(S'100002322207826'
S'Akash Chandel'
tp96
a(S'100001991395090'
S'Esha Maxwell Rayaprol'
tp97
a(S'100000049068215'
S'Rishabh Mishra'
tp98
a(S'100007949460557'
S'Rachin Samuel'
tp99
a(S'100003255326803'
S'Bhavika Wasandi'
tp100
a(S'100004441083308'
S'Rachin Samuel'
tp101
a(S'100000770144576'
S'Luxmi Tiwari'
tp102
a(S'100005589544669'
S'Aathira Dinil'
tp103
asS'id'
p104
S'100002335206084'
p105
sS'name'
p106
S'Oshin Juan'
p107
s.