(dp1
S'friends'
p2
(lp3
(S'100002748860798'
S'Sanjay Kaushal'
tp4
a(S'100000912517822'
S'Sumana Banerjee'
tp5
a(S'100003823974561'
S'Partha Pratim Panja'
tp6
a(S'100000869576934'
S'Arpit Patel'
tp7
a(S'100005204288337'
S'Biplob Borkakoti'
tp8
a(S'100000575936083'
S'Shankar Dangi'
tp9
a(S'100002213533314'
S'Sahdev Sayla'
tp10
a(S'100006247089811'
S'Rajesh Sharma'
tp11
a(S'100006654158567'
S'Radika Goswami'
tp12
a(S'100000439450369'
S'Shajar Uddin'
tp13
a(S'100003025334458'
S'Ajay Kumar'
tp14
a(S'100005516590522'
S'Dilip Kumar'
tp15
a(S'100002174654612'
S'Anant Mishra'
tp16
a(S'1154856323'
S'Vibhanshu Vaibhav'
tp17
a(S'100004730707010'
S'Naresh Sharma'
tp18
a(S'1658211175'
S'Swati Mallick'
tp19
a(S'100006199423735'
S'Kadar Khan'
tp20
a(S'100004352079443'
S'Nitesh Srivastava'
tp21
a(S'100001481292342'
S'Neeraj Malik'
tp22
a(S'100000670484178'
S'Nisha Ratheesh'
tp23
a(S'100002591073376'
S'Radha Nicky'
tp24
a(S'100003499646381'
S'Ajay Singh'
tp25
a(S'100000906155839'
S'Kautilya Kalyan'
tp26
a(S'100003029338480'
S'Suraj Singh Chauhan'
tp27
a(S'100002938613976'
S'Nidhi Sharma'
tp28
a(S'100001770700261'
S'Walter Peter'
tp29
a(S'100006461706400'
S'Arad Ahmadi'
tp30
a(S'100004181894223'
S'Priya Ashwani Kumar'
tp31
a(S'1443671806'
S'Raj Kapil'
tp32
a(S'100001532738312'
S'Jassi Singh'
tp33
a(S'100005273354342'
S'Prince Meghwal'
tp34
a(S'100005251951061'
S'Saurabh Bajpai'
tp35
a(S'100003849215292'
S'Atamjeet Singh Singh'
tp36
a(S'1352485153'
S'Naresh Chander Lal'
tp37
a(S'100002537461024'
S'Rohit Teotia'
tp38
a(S'100004162809163'
S'Jazz Arora'
tp39
a(S'100002761500378'
S'Bna Samvad'
tp40
a(S'100003889378174'
S'Amarjit Sharma'
tp41
a(S'100000400384754'
S'Sayyed Ahmed'
tp42
a(S'100003963265042'
S'Niket Senghani'
tp43
a(S'100008333265900'
S'Khushi Jain'
tp44
a(S'100001560369480'
S'Harshit Kumar'
tp45
a(S'100000538993910'
S'Bharat Sharma'
tp46
a(S'100006006030774'
S'Bishnu Newar'
tp47
a(S'100006502968383'
S'Aaqib Khan'
tp48
a(S'100003136969428'
S'Ronik Roy'
tp49
a(S'100001045208796'
S'Farid Bazmi'
tp50
a(S'100001964091773'
S'Babita Pandey'
tp51
a(S'100001460390971'
S'Manoj Chowdhury'
tp52
a(S'100000442431383'
S'Rish Gupta'
tp53
a(S'1839163125'
S'Akhil Gautam'
tp54
a(S'100001198182431'
S'Tarun Bisht'
tp55
a(S'100003702220369'
S'Eugin Tirkey'
tp56
a(S'100003613762112'
S'Bishnu Newar'
tp57
a(S'826074687'
S'Jagdish Italiya'
tp58
a(S'539410083'
S'Capt-Shalini Rao'
tp59
a(S'100003192948028'
S'Ashu Rock'
tp60
a(S'100005098025670'
S'Ranjeetkumar Singh'
tp61
a(S'100000755315222'
S'Umang ChildrenTheatre'
tp62
a(S'100003233817356'
S'Er Vaibhav Chaudhary'
tp63
a(S'100004977822321'
S'Subrata Ghosh'
tp64
a(S'100005935204071'
S'Neha Gupta'
tp65
a(S'100000909387226'
S'Show Talkies'
tp66
a(S'100001558809174'
S'Sundeep Singhal Cfp'
tp67
a(S'100000404858848'
S'Himanshu Talreja'
tp68
a(S'100006536648445'
S'Vikas Malvi'
tp69
a(S'100000343424720'
S'Sandeep Tandon'
tp70
a(S'100006815911599'
S'Kadar Khan'
tp71
a(S'100001657386018'
S'Santanu Chakraborty'
tp72
a(S'100002218703080'
S'Sajjad Khan'
tp73
a(S'100004951926073'
S'Prakash Shrivastava'
tp74
a(S'1199783564'
S'Yogendra Choubey'
tp75
a(S'100004965457266'
S'Niraj Saxena'
tp76
a(S'100002009287151'
S'Arvind Mishra'
tp77
a(S'100001890211092'
S'Raghvendra Singh'
tp78
a(S'100001453002594'
S'Rakhi Kumari'
tp79
a(S'100003111069171'
S'Pramod Sharma'
tp80
a(S'100004459172174'
S'Ravi Kushvaha'
tp81
a(S'100002023057560'
S'Vijay Shukla'
tp82
a(S'100000747757205'
S'Gupta Prince'
tp83
a(S'100005300323335'
S'Sahil Raghuvanshi'
tp84
a(S'100001693586698'
S'Nand Pant'
tp85
a(S'100006239555052'
S'Amarjeet Ak'
tp86
a(S'100000929552124'
S'Sunaina Jain'
tp87
a(S'100002892435062'
S'Hcrftr Mandi'
tp88
a(S'1513219350'
S'V.k. Sharma'
tp89
a(S'100006246554110'
S'Om Kapur'
tp90
a(S'100000921687948'
S'Barry Myriam'
tp91
a(S'100003838181207'
S'Meera Koundal'
tp92
a(S'100003142644827'
S'Anju Sharma Pandey'
tp93
a(S'798597714'
S'Yashraj M Jadhav'
tp94
a(S'100002700129958'
S'Jagmohan Singh'
tp95
a(S'100002815554673'
S'Avinash Thakur'
tp96
a(S'100001086715864'
S'Pakkhi Hegde'
tp97
a(S'100000340303286'
S'Sudheer Rikhari'
tp98
a(S'100002925573592'
S'Paromita Sikdaer'
tp99
a(S'100000614756732'
S'Inaamul Haq'
tp100
a(S'1301826280'
S'Govind Singh Yadav'
tp101
a(S'100005132581440'
S'Shrawan Kumar'
tp102
a(S'100006099720142'
S'Viruddh VJ'
tp103
a(S'100006942311730'
S'SuperStar Mahi'
tp104
a(S'100001439865887'
S'Deepak Nair'
tp105
a(S'100001732512184'
S'Priyanka Vaish'
tp106
a(S'100001905625436'
S'Aimal Massoudy'
tp107
a(S'806975477'
S'Inder Makkar'
tp108
a(S'100007341338391'
S'Ellora Singh'
tp109
a(S'100002137479302'
S'Book Cart'
tp110
a(S'1600528184'
S'Anju Jaitle'
tp111
a(S'100004906839462'
S'Ronroyal Royal'
tp112
a(S'100000954901229'
S'Govind Pandey'
tp113
a(S'100003890484689'
S'Abhay Sohale'
tp114
a(S'797737737'
S'Parag Sarmah'
tp115
a(S'1350641563'
S'Anand Kumar'
tp116
a(S'100004061195307'
S'Ranmeet Sahni'
tp117
a(S'1100700727'
S'Arun Kumar Mallick'
tp118
a(S'100005336646311'
S'Ipta Vaikom'
tp119
a(S'100004417532420'
S'Utpal Jha'
tp120
a(S'100002864090608'
S'Bithika Howlader'
tp121
a(S'100002675331545'
S'Mukesh Kr Guddu'
tp122
a(S'100008116599701'
S'Arun Alpana Rawat'
tp123
a(S'100005980864261'
S'Ankur Chauhan'
tp124
a(S'100004618034355'
S'Koteshwari Singh'
tp125
a(S'100000669257960'
S'Neelofar Mustafa Khar'
tp126
a(S'100003641730528'
S'Akhill Yadav'
tp127
a(S'100006978674042'
S'Kajal Pahadiya'
tp128
a(S'100005921983470'
S'Meghanaad Rana'
tp129
a(S'100001525210911'
S'Mahek Sharma'
tp130
a(S'100001621543682'
S'Nishha Nehha Nayak'
tp131
a(S'100000885021468'
S'Jyoti Dhir'
tp132
a(S'100002000733027'
S'Mohit Pandey'
tp133
a(S'100002657746463'
S'Pradeep Arora'
tp134
a(S'1636748301'
S'Madeeha Gauhar'
tp135
a(S'100002294281755'
S'Binod Sharma'
tp136
a(S'1592483820'
S'Ashwani Kumar'
tp137
a(S'100006109961436'
S'Sangam Yadav'
tp138
a(S'565124397'
S'Bhupesh Kumar Pandya'
tp139
a(S'1011328067'
S'Jugnu Ishiqui'
tp140
a(S'100002474932695'
S'Purvi Mehra'
tp141
a(S'100007789655190'
S'Aarti Yadav'
tp142
a(S'1053081617'
S'Suman Vaidya'
tp143
a(S'100004088081487'
S'Kulbhushan Sharma'
tp144
a(S'100000604565441'
S'Rajneesh Bisht'
tp145
a(S'1429389835'
S'Raaj Raaj'
tp146
a(S'100002781365988'
S'Deepak Negi'
tp147
a(S'100000454320584'
S'Vinita Tandon Yadav'
tp148
a(S'100000722992470'
S'Nihal Kardam'
tp149
a(S'684365406'
S'Kavita Srinivasan'
tp150
a(S'670886268'
S'Happy Ranajit'
tp151
a(S'1749148039'
S'Divya Bhhatnagar'
tp152
a(S'100001626522172'
S'Chhabra Mukesh'
tp153
a(S'100001553450971'
S'Chandar Dutt Tiwari'
tp154
a(S'100000642125605'
S'Mohit Chandaliya'
tp155
a(S'1529858856'
S'Md.sahidur Rahaman'
tp156
a(S'1600347846'
S'Anshu Kumar'
tp157
a(S'100004912422034'
S'Deepu Sharma Raj'
tp158
a(S'1564579518'
S'Rajinder Sharma Nanu'
tp159
a(S'100000611126153'
S'Vandana Vashisht'
tp160
a(S'100004867448302'
S'John Thakur'
tp161
a(S'695634399'
S'Heeba Shah'
tp162
a(S'100003838843506'
S'Krish Kumar Singh'
tp163
a(S'100006013864245'
S'Ashish Yadav'
tp164
a(S'1739006078'
S'Jolly Pramanick'
tp165
a(S'100001584507442'
S'Sikarwar Shiv'
tp166
a(S'100004712135731'
S'Ajent Jey'
tp167
a(S'1299022980'
S'Mohd Mubashshir'
tp168
a(S'100006461987186'
S'Balwinder Singh'
tp169
a(S'100005798440619'
S'Bishnu Newar'
tp170
a(S'1611272488'
S'Deepak Dogra'
tp171
a(S'1306986183'
S'Sanjay Singh'
tp172
a(S'1142081675'
S'Ajay Raj Tomar'
tp173
a(S'100001584843490'
S'Sarat Kumar Jena'
tp174
a(S'100000421231679'
S'Ajay Kumar'
tp175
a(S'100000429293285'
S'Muzamil Bhawani'
tp176
a(S'100001075934144'
S'Jyoti Sinha'
tp177
a(S'100000749843536'
S'Sanjeev Agnihotri'
tp178
a(S'1393467076'
S'Shuchi Chopra'
tp179
a(S'100001181755665'
S'Ak Daur'
tp180
a(S'533622955'
S'Rajesh Kumar Sharma'
tp181
a(S'100001671132716'
S'Arvind Parashar'
tp182
a(S'1131531386'
S'Govind Pandey'
tp183
a(S'100000717175638'
S'Mumtaz Ali'
tp184
a(S'100004171597703'
S'Bhumisuta Das'
tp185
a(S'100003940172695'
S'Archana Srivastava'
tp186
a(S'513658072'
S'Gagan Dev Riar'
tp187
a(S'100002301249721'
S'Ankit Marc'
tp188
a(S'100002376482708'
S'Mahesh Anand'
tp189
a(S'100002908141518'
S'Pritam Jaiswal'
tp190
a(S'100001492745483'
S'Hira Manikpuri'
tp191
a(S'100003903314098'
S'Palash Jyoti'
tp192
a(S'100006286214530'
S'Prosenjit Bhattacharya'
tp193
a(S'1220616206'
S'Jay Singh Shekhawat'
tp194
a(S'100003325766336'
S'Kuldeep Kumar'
tp195
a(S'100001264390653'
S'Sonya Chaudhary'
tp196
a(S'710557061'
S'TC Jaspal Singh'
tp197
a(S'100000650724489'
S'Susheel Sharma'
tp198
a(S'100005628609823'
S'Abhishek Kumar Yadav'
tp199
a(S'100003014830220'
S'Balraj Bohara'
tp200
a(S'100007621745575'
S'Neha Shora'
tp201
a(S'795579568'
S'Dipendra Rawat'
tp202
a(S'100006065112630'
S'Anil Besra'
tp203
a(S'100004252719234'
S'Mira Belle'
tp204
a(S'100001248153869'
S'Ishan Kinra'
tp205
a(S'100003219278022'
S'Wasim Ansari'
tp206
a(S'100001093992834'
S'Himanshi Sharma'
tp207
a(S'100003468548508'
S'Vivek Kumar'
tp208
a(S'100001879860805'
S'Rahul Sati'
tp209
a(S'100002553319876'
S'Surjeet Kumar'
tp210
a(S'1099915545'
S'Dale Bhagwagar'
tp211
a(S'100004842490933'
S'Shivam Shukla'
tp212
a(S'100003114676421'
S'Nitin Sachdeva'
tp213
a(S'565951057'
S'Saransh Taneja'
tp214
a(S'100000347483143'
S'Bhupesh Joshi'
tp215
a(S'689989899'
S'Bharti Sharma'
tp216
a(S'100004717420667'
S'Ishant Kumar'
tp217
a(S'100003395812947'
S'Dheeraj Singh'
tp218
a(S'100003092523863'
S'Inspire Inspire'
tp219
a(S'100000672605103'
S'Ajit Chowdhury'
tp220
a(S'100005830680906'
S'Niraj Kumar'
tp221
a(S'100001773021792'
S'Nikhil Naidu'
tp222
a(S'100001627220059'
S'Mukesh Rai'
tp223
a(S'100003139077427'
S'Vikram Singh'
tp224
a(S'100001578042255'
S'Rohit Shettyfanspage'
tp225
a(S'100006402666897'
S'Rohit Kumar'
tp226
a(S'100003022646320'
S'Shri Ganesh'
tp227
a(S'573563536'
S'Rajesh Tailang'
tp228
a(S'100006396304691'
S'Taqmir Ahmed'
tp229
a(S'100001221096426'
S'Madhavi Vimal'
tp230
a(S'100000834112231'
S'Babli Srivastava'
tp231
a(S'100001419160294'
S'Alok Nath'
tp232
a(S'100002531734039'
S'Nilesh Mishra'
tp233
a(S'547974551'
S'Harish Khanna'
tp234
a(S'100006267064127'
S'Jazz Linda'
tp235
a(S'100001546530206'
S'Alok Chatterjee'
tp236
a(S'727197891'
S'Kaustubh Nirmal'
tp237
a(S'100006347730150'
S'Raju Kumar'
tp238
a(S'100000653062023'
S'Someshwar Sharma'
tp239
a(S'100002375693874'
S'Amit Dhiman'
tp240
a(S'100001013076324'
S'Amitosh Nagpal'
tp241
a(S'100000094341832'
S'Rajiv Kumar Sharma'
tp242
a(S'1184724273'
S'Swati Tarar'
tp243
a(S'100006697960330'
S'Krishna Murari Mishra'
tp244
a(S'100002904703389'
S'Real Nawab Panipat Ka'
tp245
a(S'727258392'
S'Vijay Kashyap'
tp246
a(S'100004124105508'
S'Arvind Kumar'
tp247
a(S'100002114256629'
S'Mohan Kumar'
tp248
a(S'100001462340755'
S'Viva Modelz'
tp249
a(S'100002746897959'
S'Bir Singh'
tp250
a(S'100001950015261'
S'Sandeep Jaiswal'
tp251
a(S'1632945011'
S'Vijai Singh'
tp252
a(S'100000868226198'
S'Tarun Kumar Rajput'
tp253
a(S'100003183995607'
S'Dev Kumar Patel'
tp254
a(S'778920698'
S'Pulkit Arora'
tp255
a(S'100001254620163'
S'Er Abhishek Kumar'
tp256
a(S'100001760140377'
S'Jayotsna Kumar'
tp257
a(S'544127689'
S'Damini K Shetty'
tp258
a(S'100001899140425'
S'Aakash Mithbavkar'
tp259
a(S'100004646294579'
S'Chander Shourya'
tp260
a(S'100003266081350'
S'Prakash Magare'
tp261
a(S'671386095'
S'Manish Joshi'
tp262
a(S'581375005'
S'Rishank Tiwari'
tp263
a(S'100005528317724'
S'Saurav Rock'
tp264
a(S'100002436855655'
S'Akash Garg'
tp265
a(S'100002087512783'
S'Rajanyaa Dey'
tp266
a(S'100002324323345'
S'Mauli Dave'
tp267
a(S'100002473364529'
S'Dipak Bora'
tp268
a(S'100004798323673'
S'Tapan Kumar'
tp269
a(S'100001375707145'
S'MD Iqbal Ahmad'
tp270
a(S'100000726013678'
S'Pankaj Tripathi'
tp271
a(S'1278272974'
S'Vijaypal Vashist'
tp272
a(S'100008360020818'
S'Nilam Thakur'
tp273
a(S'100006256533547'
S'Baljit Singhdadyal'
tp274
a(S'770124618'
S'Dheerendra Dwivedi'
tp275
a(S'100000250481838'
S'Anupama Kaushik'
tp276
a(S'100006045700960'
S'Anand Sharma'
tp277
a(S'100000838225688'
S'Chandan Mallah'
tp278
a(S'100000149721073'
S'Saurabh Raj'
tp279
a(S'1344930715'
S'Sushmita Guha'
tp280
a(S'100004327154803'
S'Deepa Singh'
tp281
a(S'100003469556277'
S'Pragati Sheel Manch'
tp282
a(S'100003486848049'
S'Vaibhav Kale'
tp283
a(S'100001165921856'
S'Surbhi Malhotra'
tp284
a(S'100004473032190'
S'Rangamati Chandannagar'
tp285
a(S'100001602741225'
S'HealthCare InfoXchange'
tp286
a(S'100002839642188'
S'Boca Nakshtrya'
tp287
a(S'609408883'
S'Chandrahas Tiwari'
tp288
a(S'100004917968193'
S'Indresh Kumar'
tp289
a(S'100003301732655'
S'Bhagirathi Bai Kadam'
tp290
a(S'1224945573'
S'Ajay Manchanda'
tp291
a(S'100001017878574'
S'Rounaq Banerjee'
tp292
a(S'100000206160473'
S'Amarnath Ghosh'
tp293
a(S'700588299'
S'Amitabh Srivastava'
tp294
a(S'100006303361535'
S'Pooja Vishwas'
tp295
a(S'100000596427172'
S'Imtiaznsd Imtiaz Ansari'
tp296
a(S'100003815419223'
S'King Deorari'
tp297
a(S'629347000'
S'Meena Dadlaney'
tp298
a(S'100002078392592'
S'Patel Roma'
tp299
a(S'1452742050'
S'Vidyanidhee Vanarase Prasad'
tp300
a(S'100003047148585'
S'Shreya Shinde'
tp301
a(S'100002838029046'
S'Preeti Kaushal'
tp302
a(S'100006473777592'
S'Monu Kashyap'
tp303
a(S'100000260874476'
S'Pooja Bhaskar'
tp304
a(S'100000100770145'
S'Benu Sonkla'
tp305
a(S'100000032090973'
S'Tarun Bisht'
tp306
a(S'100006854140096'
S'Atif Khan'
tp307
a(S'100003290796440'
S'Keshav Verma'
tp308
a(S'100000121366044'
S'Bharti Kharbanda Ghai'
tp309
a(S'100002352452867'
S'Sushmita Mukkherjee Bundela'
tp310
a(S'100000497125480'
S'Biswajit Biswas'
tp311
a(S'100004501268669'
S'Kartikeya Tss'
tp312
a(S'100001903149662'
S'Mudit Gera'
tp313
a(S'100003524347770'
S'Viplav Singh Kaikey'
tp314
a(S'1218187504'
S'Anil Goel'
tp315
a(S'100001288727474'
S'Bharast Dhruba Madur'
tp316
a(S'100001987076830'
S'Bapi Bose'
tp317
a(S'100001697240048'
S'Harish Meena'
tp318
a(S'100001334070476'
S'Pabitra Rabha'
tp319
a(S'598984070'
S'Durgesh Kumar'
tp320
a(S'100002550754318'
S'Manoj Sharma'
tp321
a(S'100004968763716'
S'Sonu Parmar'
tp322
a(S'100007461698640'
S'Qrisna Qasyap'
tp323
a(S'100005004696504'
S'Jitender Singh'
tp324
a(S'100004582538276'
S'Veerendra Vishwakarma'
tp325
a(S'1009423404'
S'Pravin Kumar Gunjan'
tp326
a(S'100004834242141'
S'Ipta Alappuzha'
tp327
a(S'100005028790046'
S'Raveesh Yadav Rahul'
tp328
a(S'100006589054076'
S'Dipu Kathiyavadi'
tp329
a(S'668429993'
S'Suvrat Laxman Joshi'
tp330
a(S'100000051411519'
S'Indervesh Yogee'
tp331
a(S'100000626406312'
S'Pradhuman Nayak'
tp332
a(S'100007192901301'
S'Sunny Rao'
tp333
a(S'100003754813338'
S'Bhavna Patel'
tp334
a(S'100002925257181'
S'Ajit Kuntal'
tp335
a(S'100003650914275'
S'Sonam Verma'
tp336
a(S'100003355368072'
S'Mohammad Faruk Ansari'
tp337
a(S'100004343973960'
S'Surya Nikeya'
tp338
a(S'100003039730108'
S'Rajender Kumar'
tp339
a(S'100001621303416'
S'Anindita Ghosh'
tp340
a(S'100001581541275'
S'Yashpal Sharma'
tp341
a(S'100004060253311'
S'Priyanka Verma'
tp342
a(S'100005286014069'
S'Purvi Rana'
tp343
a(S'100006621570565'
S'Abhimaniyu Singh'
tp344
a(S'100004801633179'
S'Kshitij Gupta'
tp345
a(S'100000592868522'
S'Dakhal Rangmanch'
tp346
a(S'100001963228833'
S'Anil Bhardwaj'
tp347
a(S'100003071503998'
S'Mukesh Bhati'
tp348
a(S'100004286258799'
S'Suneel Dogra'
tp349
a(S'100005251513766'
S'Rajesh Meena'
tp350
a(S'100006290372243'
S'Raj Vipin Vcd'
tp351
a(S'100000417116641'
S'Jagdish Chand'
tp352
a(S'100006251263001'
S'Pooja Singh'
tp353
a(S'100001858157438'
S'Adity Pancholi'
tp354
a(S'100000797897968'
S'Kuldeep Singh'
tp355
a(S'658241142'
S'Shivani Trikha'
tp356
a(S'1676480265'
S'Amit Sinha'
tp357
a(S'100004764338618'
S'\\u0938\\u0915\\u094d\\u0938\\u0947\\u0928\\u093e \\u0928\\u0940\\u0930\\u091c'
tp358
a(S'100005034752195'
S'Sameer Khan'
tp359
a(S'1344427137'
S'Sameer Rajan Parasher'
tp360
a(S'100006194224156'
S'Sunil Tank'
tp361
a(S'639673690'
S'Virendra Saxena'
tp362
a(S'100003925083646'
S'Laboto Thomas Sumi'
tp363
a(S'761750332'
S'Kriti V.Sharma'
tp364
a(S'100000965654185'
S'Sidhaant Sharma'
tp365
a(S'100000887555334'
S'Shiv Pandey'
tp366
a(S'100006353379903'
S'Gunjan Sen'
tp367
a(S'679404880'
S'Satyabrata Rout'
tp368
a(S'770542941'
S'Santanu Bose'
tp369
a(S'1553894361'
S'Chhavi Vij'
tp370
a(S'100001413369491'
S'Nitin K Kumar'
tp371
a(S'100000133277179'
S'Pankaj Kumar'
tp372
a(S'100006701315136'
S'Dharam Pal'
tp373
a(S'100004765535863'
S'Yashwant Wirle'
tp374
a(S'100005872842420'
S'Aashu S Khan'
tp375
a(S'100001344658197'
S'Vijay Malla'
tp376
a(S'100002392427012'
S'Reetuparna Boruah'
tp377
a(S'100002922637184'
S'Rakesh Singh'
tp378
a(S'100004980301528'
S'Arvind Kumar Singh'
tp379
a(S'100000854294974'
S'Akhilesh Yadav'
tp380
a(S'100002909029581'
S'Anand Kumar Yadav'
tp381
a(S'100000702258392'
S'Rishikesh Sharma'
tp382
a(S'100003258317065'
S'Ftii Pune'
tp383
a(S'100003594758767'
S'Rabangla Dharmapal'
tp384
a(S'100001777984712'
S'Sachhin Sahu'
tp385
a(S'1311876193'
S'Anjali Patil'
tp386
a(S'100001488765700'
S'Mohd Rashid'
tp387
a(S'100004484731715'
S'Dineshkumar Koundal'
tp388
a(S'100002312303728'
S'Asifa Kaynat Shubhankar'
tp389
a(S'100005021974156'
S'Dushyant Dushyant'
tp390
a(S'599657920'
S'Gagan Deep'
tp391
a(S'100000204031860'
S'Kailash Mani Tripathi'
tp392
a(S'1667197898'
S'Shyam Sunder'
tp393
a(S'100001517120294'
S'Puneet Sagar'
tp394
a(S'100005970878359'
S'Vansh KKc'
tp395
a(S'100002258228805'
S'VJ Kudia'
tp396
a(S'861570367'
S'Kamayani Bali Mahabal'
tp397
a(S'1827393562'
S'Mona Sehgal'
tp398
a(S'100001600572834'
S'Dev Kumar'
tp399
a(S'100000976116788'
S'Atul Jassi'
tp400
a(S'100002061693773'
S'Rachna Joshi'
tp401
a(S'100002503417951'
S'Divyank Verma'
tp402
a(S'1535528752'
S'Maz Har Khan'
tp403
a(S'100004679023250'
S'Mithun Sharma'
tp404
a(S'100004471200606'
S'Jhony Singla'
tp405
a(S'100000429274743'
S'Mushtaq Kak'
tp406
a(S'100003197507477'
S'Nisha Sharma'
tp407
a(S'100002350464067'
S'Mk Raina'
tp408
a(S'1073833231'
S'Souti Chakraborty'
tp409
a(S'100005973451914'
S'Bishnu Newar'
tp410
a(S'100003836688973'
S'Vikas Singh'
tp411
a(S'100000460517627'
S'Hemant Jha'
tp412
a(S'100001693509297'
S'Winie Chan'
tp413
a(S'100005844938095'
S'Raj Mishra'
tp414
a(S'100006525407687'
S'Sandeep Yadav'
tp415
a(S'100002959747570'
S'Shubham Bhambri'
tp416
a(S'100003252065817'
S'Raju Paul'
tp417
a(S'100002554489141'
S'Divesh Trehan'
tp418
a(S'100003638650735'
S'Roouf Nowsooz'
tp419
a(S'100001240208640'
S'Akash Kaushal'
tp420
a(S'526628065'
S'Meghna Patel Actress'
tp421
a(S'100000843224303'
S'Gagan Mishra'
tp422
a(S'100002850835470'
S'Gourav Kashyap'
tp423
a(S'100000596739037'
S'Raja Bhattacharyya'
tp424
a(S'1564891585'
S'Abhay Joshi'
tp425
a(S'100001185643651'
S'Ritu Bhardwaj'
tp426
a(S'575428915'
S'Sahil Ansari'
tp427
a(S'100001139881940'
S'Mynk Sharma'
tp428
a(S'100007434763346'
S'Davaajamts Nyamsuren'
tp429
a(S'1250470986'
S'Vishal Samra'
tp430
a(S'100001403136649'
S'Vishal Jeswani'
tp431
a(S'100005219952574'
S'Balwant Varma'
tp432
a(S'100001266964101'
S'Lokendra Trivedi'
tp433
a(S'100004515275211'
S'S P Kunal Chaubey'
tp434
a(S'100000112382216'
S'Sunil Sharma'
tp435
a(S'100000616917742'
S'Mohan Kumar'
tp436
a(S'100004131344431'
S'Atul Jangid'
tp437
a(S'100005019071735'
S'Jaideep Narwal'
tp438
a(S'100000696741266'
S'Ananth Narayan Mahadevan'
tp439
a(S'100003238347023'
S'Rohit Singh'
tp440
a(S'100002979997231'
S'Aman Sid'
tp441
a(S'1751878630'
S'Gopal Verma'
tp442
a(S'100004852153119'
S'Reema Naren Singh'
tp443
a(S'100006597461430'
S'Kadar Khan'
tp444
a(S'100000513565184'
S'Ashis Das'
tp445
a(S'100004176282896'
S'Geeta Joshi'
tp446
a(S'100001044953288'
S'Ashutosh Rana'
tp447
a(S'100002689560758'
S'Manoj Mishra'
tp448
a(S'100001220363637'
S'Shibu Kaushal'
tp449
a(S'672820995'
S'Ipta Mumbai'
tp450
a(S'100003122748892'
S'Sachin Rajpoot'
tp451
a(S'100002620402144'
S'Sanjeev Jaiswal'
tp452
a(S'1096041334'
S'Dakshina Sharma'
tp453
a(S'1624493828'
S'Balwant Thakur'
tp454
a(S'100001955425105'
S'Shushant Kumar'
tp455
a(S'672368785'
S'Ashwatthama Jd'
tp456
a(S'100000659353699'
S'Lukingu Khan'
tp457
a(S'100001401796570'
S'Rahul Agrawal'
tp458
a(S'100002228071554'
S'Fahim Baba'
tp459
a(S'100005236089847'
S'Deepak Dorby'
tp460
a(S'1015704482'
S'Shant Prakash Jatav'
tp461
a(S'100003197511042'
S'Wasim Ansari'
tp462
a(S'1423869014'
S'Hemant Pandey'
tp463
a(S'100000304272691'
S'Alpesh Upadhyay'
tp464
a(S'1608473493'
S'Sahil Sharma'
tp465
a(S'100004783812566'
S'Damoder Pal'
tp466
a(S'1089998480'
S'Surinder Kumar'
tp467
a(S'745953242'
S'Biplob Borkakoti'
tp468
a(S'100004524035867'
S'Manish Gill'
tp469
a(S'100002265528791'
S'Anka Kaushal'
tp470
a(S'1455442020'
S'Baharul Islam'
tp471
a(S'1792857812'
S'Abhishek Garg'
tp472
a(S'1270056591'
S'Nicky S Kanhai'
tp473
a(S'100005137023000'
S'Shayar Vinit Mittal'
tp474
a(S'100006456596149'
S'Tapan Kumar'
tp475
a(S'1302274912'
S'Subhadip Raha'
tp476
a(S'100005358999727'
S'Dilip Singh'
tp477
a(S'100002487998670'
S'Shekhar Tiwari'
tp478
a(S'100000281818003'
S'Baanee Sharad'
tp479
a(S'100000282492904'
S'Prashant Anand'
tp480
a(S'100002402694840'
S'Sanaul Mustafa'
tp481
a(S'100002503805080'
S'Shikha Mittal'
tp482
a(S'532507879'
S'Roshan Ng'
tp483
a(S'1438621414'
S'Rishu Gupta'
tp484
a(S'100002147125855'
S'Kanhaiya Lal Rathore'
tp485
a(S'100001458017486'
S'Chetan Vijay'
tp486
a(S'1109775342'
S'Arun Bali'
tp487
a(S'100003928698886'
S'Shiddharth Chauhan'
tp488
a(S'100005175492734'
S'Sanjana Kaushal'
tp489
a(S'100002369884934'
S'Avinashh Devgan'
tp490
a(S'100005281328429'
S'Shashi Dinesh Kumar'
tp491
a(S'100000961833744'
S'Purnima Kharga'
tp492
a(S'701505591'
S'Solaris Pictures'
tp493
a(S'100007251913725'
S'Amit Pathak'
tp494
a(S'1340221357'
S'Payel Tarafdar'
tp495
a(S'100006044082423'
S'Vaishali Aniket Kulkarni'
tp496
a(S'620552058'
S'Moazzam Ali'
tp497
a(S'100004318662767'
S'Dhiraj Jaiswal'
tp498
a(S'625432573'
S'Rajive Verma'
tp499
a(S'580790198'
S'Susheel Sharma'
tp500
a(S'1625028300'
S'Surinder Kumar Gurgaon'
tp501
a(S'1280225807'
S'Ramendra Chakarwarti'
tp502
a(S'100003588496082'
S'Sonu Singh'
tp503
a(S'100000323129280'
S'Durgesh Raj'
tp504
a(S'100001750973532'
S'Baldev Bhartiya'
tp505
a(S'712511006'
S'Kuljeet Singh'
tp506
a(S'100005426076753'
S'Mahesh N Bhatt'
tp507
a(S'100000509622362'
S'Samiran Deka'
tp508
a(S'100001355965600'
S'Pooja Tiwari'
tp509
a(S'100004388042568'
S'Salil Kumar'
tp510
a(S'100005304429227'
S'Sandeep Ray'
tp511
a(S'100001539408080'
S'Jaswant Singh'
tp512
a(S'100002550301859'
S'Akansh Kakkar'
tp513
a(S'100005871134225'
S'Shiv Singh'
tp514
a(S'100002564312270'
S'Shabbab Pathan Shoby'
tp515
a(S'1372173311'
S'Rajendra Gupta'
tp516
a(S'522637764'
S'Mohammad Sajid'
tp517
a(S'100000554035737'
S'Hemant Mahaur'
tp518
a(S'100003385657360'
S'Sikkim Nsd'
tp519
a(S'100004304222396'
S'Jeetu Yadav'
tp520
a(S'1421624965'
S'Harvinder Kaur Babli'
tp521
a(S'100007987774248'
S'Anjali Rani'
tp522
a(S'100006143315207'
S'Gyan Babu Kamal'
tp523
a(S'100002181429791'
S'Manoj Arya'
tp524
a(S'100001716118690'
S'Shalu Arora'
tp525
a(S'100004566399485'
S'Chandan Sharma'
tp526
a(S'100004360542402'
S'Bichawan Creation'
tp527
a(S'764391907'
S'Prashasan S. Maltiar'
tp528
a(S'100002288445693'
S'Charumati Khandare'
tp529
a(S'730862737'
S'Ashish Vidyarthi'
tp530
a(S'100004042373134'
S'Hem Srievaas'
tp531
a(S'100000159675659'
S'Vikash Bharti'
tp532
a(S'1509786193'
S'Girish Pardesi'
tp533
a(S'1066384241'
S'Ashok Lalchandani'
tp534
a(S'100006637117502'
S'Dinesh Sharma'
tp535
a(S'100000976854820'
S'Poonam Kanwar'
tp536
a(S'592681294'
S'Daulat Vaid'
tp537
a(S'100002252331681'
S'Mayank Vishwakarma'
tp538
a(S'100001500777340'
S'Pravendra Kushwaha'
tp539
a(S'100003355060742'
S'Ajay Singh Parihar'
tp540
a(S'100001524405410'
S'Amita Udgata'
tp541
a(S'100002169071401'
S'Gary Aaron Drew Borgohain'
tp542
a(S'100005670661107'
S'Amit Kumar'
tp543
a(S'100000845586031'
S'Ravi Mohan'
tp544
a(S'100004109978437'
S'Ranjeet Khawla'
tp545
a(S'100000052519024'
S'Anant Goyal'
tp546
a(S'100005345616071'
S'Sahid Shukla'
tp547
a(S'100000926712955'
S'Vikas Kumar'
tp548
a(S'100002059609772'
S'Narendra Raj'
tp549
a(S'100003714867699'
S'Anil Pohoja'
tp550
a(S'100003927742762'
S'Manthan Theatres'
tp551
a(S'100003704872860'
S'Akashkaushal Kaushal'
tp552
a(S'100002379931623'
S'Sumit Srivastava'
tp553
a(S'100003145441139'
S'Ramesh Sharma'
tp554
a(S'100000118015493'
S'Simanta Phukan'
tp555
a(S'535649333'
S'Rajan Kumar'
tp556
a(S'1282593462'
S'Vipin Bhardwaj'
tp557
a(S'547277485'
S'Hemant Raipuria'
tp558
a(S'523236239'
S'Danish Iqbal'
tp559
a(S'100001548003842'
S'Ningombam Jadumani Singh'
tp560
a(S'100004759270651'
S'Budhisagar Mishra'
tp561
a(S'100000424875688'
S'Rajesh Prabhu M'
tp562
a(S'100003347080523'
S'Rajiv Lochan'
tp563
a(S'599595864'
S'Prateek Srivastava'
tp564
a(S'100001465185218'
S'Abhigyan Natya'
tp565
a(S'100002715030829'
S'Rajesh Rana'
tp566
a(S'100000886779088'
S'Neha Manchanda'
tp567
a(S'504067492'
S'Scott Vitaioli'
tp568
a(S'100000540006300'
S'Rajendran K Srinivasan'
tp569
a(S'100006441128678'
S'Sonu Sonu'
tp570
a(S'100000536773195'
S'Sulakshna Raul'
tp571
a(S'100003516228829'
S'Rishabh Gautam'
tp572
a(S'100006047501807'
S'Shivam Roy'
tp573
a(S'100005318711874'
S'Shanu Khan'
tp574
a(S'100003967995065'
S'Sanju Kumar'
tp575
a(S'100005966794217'
S'Manya Singh'
tp576
a(S'100003829413221'
S'Priyanshu Bhat Ji'
tp577
a(S'100000963951284'
S'Shibbu Gour'
tp578
a(S'1494261661'
S'Deepak Suman'
tp579
a(S'100003094019776'
S'Reena Chaudhary'
tp580
a(S'100001547309126'
S'Prabhav Upadhyay'
tp581
a(S'1372215108'
S'Padam Mishra PM'
tp582
a(S'100001155135617'
S'Anas Khan'
tp583
a(S'100002323489207'
S'Sandeep Kumar'
tp584
a(S'100005190394488'
S'Bhawana Mehra'
tp585
a(S'100002839962525'
S'Vs Rathore'
tp586
a(S'100001265567089'
S'Sadanand Patil'
tp587
a(S'100003008065685'
S'Tilak Raj'
tp588
a(S'100003903599259'
S'Shivam Shukla'
tp589
a(S'100004476844572'
S'Himani Shivpuri'
tp590
a(S'100000025354899'
S'Saurabh Chaturvedi'
tp591
a(S'1289368795'
S'Ashraful Haque'
tp592
a(S'100002451194370'
S'Gaurav Kumar'
tp593
a(S'100001625202581'
S'Sam Jha'
tp594
a(S'100004929784226'
S'Kanchan Dada'
tp595
a(S'100000726664397'
S'Arun Sinha'
tp596
a(S'100002682552939'
S'Aman Khan'
tp597
a(S'100006470123992'
S'Robin Singh'
tp598
a(S'100000557544542'
S'Manisha Malhotra'
tp599
a(S'100002936779971'
S'Demetrious Lavrenti'
tp600
a(S'100000981327893'
S'Sonamoni Jayant'
tp601
a(S'1214845079'
S'Ghulam Murtaza'
tp602
a(S'100006595896741'
S'Giriraj Singh'
tp603
a(S'100002432268095'
S'Rudra Prasad Chakraborty'
tp604
a(S'664036484'
S'Sajid Anwer'
tp605
a(S'100004645023821'
S'Raj Mishra'
tp606
a(S'100002445894496'
S'Aditi Gupta'
tp607
a(S'549440748'
S'Renu Garg'
tp608
a(S'100002171712145'
S'Anil Kumar'
tp609
a(S'1549262836'
S'Raj Sharma'
tp610
a(S'648728072'
S'Olya Milentis'
tp611
a(S'100001307876819'
S'Sonu Arya'
tp612
a(S'100002051143685'
S'Monita Sharma Sinha'
tp613
a(S'100002571524679'
S'Pankaj Prasad'
tp614
a(S'100002929684282'
S'Abdul Jabbar'
tp615
a(S'1328877143'
S'Robin Das'
tp616
a(S'1783136400'
S'Rakesh Bedi'
tp617
a(S'100005942888984'
S'Bishnu Newar'
tp618
a(S'100000206351921'
S'Gaurav Kumar'
tp619
a(S'100001234283275'
S'Suman Raj'
tp620
a(S'1309656160'
S'Rajendra Panchal'
tp621
a(S'100000523120576'
S'Bhoomika Dance Centre'
tp622
a(S'1074032936'
S'Manish Saini'
tp623
a(S'1461897288'
S'Satish Anand'
tp624
a(S'100002541602265'
S'Arvind Salhotra'
tp625
a(S'1675357239'
S'Anjali Kapur Trehan'
tp626
a(S'100003388511626'
S'Shailesh Gaur'
tp627
a(S'100001701208648'
S'Nagesh Sharma'
tp628
a(S'100000682910937'
S'Faaiz Anwaar'
tp629
a(S'100000547179764'
S'Kiran Deep Sharma'
tp630
a(S'100002231218388'
S'Casteeng Kapoor'
tp631
a(S'1506442865'
S'Ravi Gossain'
tp632
a(S'100001488376585'
S'Naren Singh'
tp633
a(S'100001309200418'
S'Seema Pandey'
tp634
a(S'100005127190598'
S'Amit Dhurve'
tp635
a(S'1014812373'
S'Kanika Khanna'
tp636
a(S'100000081068638'
S'Vidhu Khare'
tp637
a(S'100000512688357'
S'IStyle Shailesh'
tp638
a(S'100004625283048'
S'Ankur Smarty'
tp639
a(S'100006789782189'
S'Sonu Singh'
tp640
a(S'100001047112327'
S'Suwarn Rawat'
tp641
a(S'100004971157681'
S'Jitender Malhotia'
tp642
a(S'100003665713903'
S'Vijay Choudhary'
tp643
a(S'100005090921880'
S'Pooja Joshi'
tp644
a(S'659652581'
S'Laila Dangor'
tp645
a(S'100000863204432'
S'Pankaj Gadodiya'
tp646
a(S'100003980070233'
S'Ipta Bijnor'
tp647
a(S'100004296612675'
S'Greenpark Avijan'
tp648
a(S'100001113710224'
S'Ranjan Trivedi'
tp649
a(S'100002202789365'
S'Dinesh Rai'
tp650
a(S'100000426361901'
S'Sanjay Srivastava'
tp651
a(S'631493213'
S'Pawan Kumar'
tp652
a(S'100000488424758'
S'Geeta Agrawal Sharma'
tp653
a(S'100001454292352'
S'Somali Bisht'
tp654
a(S'100003501769391'
S'DeepaliTarun Rajput'
tp655
a(S'100003291170431'
S'Lokesh Malviya'
tp656
a(S'100000539713072'
S'Nupor Alenkar'
tp657
a(S'100000589733777'
S'Vinod Nahardih'
tp658
a(S'1050647150'
S'Rakesh Pandey'
tp659
a(S'100002432022043'
S'Siddharth Agarwal'
tp660
a(S'100000942578574'
S'Dinesh Kumar'
tp661
a(S'100000340552140'
S'Denesh Pandey'
tp662
a(S'100000776312364'
S'Dhyan Singh'
tp663
a(S'100002392645531'
S'Shilpa Kumari'
tp664
a(S'100000990341281'
S'Kaushal Mishra'
tp665
a(S'100001319583784'
S'Mahesh Sharma'
tp666
a(S'100006477408435'
S'Sachendra Kumar'
tp667
a(S'100003395324521'
S'Devesh Pandey'
tp668
a(S'100001214053727'
S'Niket Kumar'
tp669
a(S'100000270646933'
S'Kanika Jain'
tp670
a(S'100003225258677'
S'Sinha Golu'
tp671
a(S'100003229272269'
S'Ahmad Nadeem'
tp672
a(S'100002011746880'
S'Pari Mehta'
tp673
a(S'100000563736366'
S'Nitin Dhongade'
tp674
a(S'100005015102241'
S'Ravi Kumar Gupta'
tp675
a(S'1685121427'
S'Simran Malhotra'
tp676
a(S'100004609170098'
S'Abhishek Kumar'
tp677
a(S'100003177979677'
S'Samad Khan'
tp678
a(S'100002965618617'
S'Gyan Gourav'
tp679
a(S'1654171165'
S'Shivani Sharma'
tp680
a(S'100004191790937'
S'Utsav Odisha'
tp681
a(S'100005119622373'
S'Auditions-India Updates'
tp682
a(S'100005435522980'
S'Yashwant Wirle'
tp683
a(S'762167447'
S'Prasanna Sagar'
tp684
a(S'835833985'
S'Rajeev Kamal'
tp685
a(S'100002884675426'
S'Krishna Tiwari'
tp686
a(S'1449247686'
S'Karina Alemis'
tp687
a(S'1180323310'
S'Pragati Hisar'
tp688
a(S'100004345806752'
S'Manohar Manohar'
tp689
a(S'637980453'
S'Gaurav Sharma'
tp690
a(S'100002043405000'
S'Dimpy Mehra'
tp691
a(S'100002065882934'
S'Himanshu Dwivedi'
tp692
a(S'100004965636159'
S'Rakesh Kumar Ojha'
tp693
a(S'100004931340511'
S'Prakash Kumar'
tp694
a(S'100004501626612'
S'Aman Karkhur'
tp695
a(S'100005902803096'
S'Amrit Punjab'
tp696
a(S'100002463236001'
S'Indu Bakshi'
tp697
a(S'100006188054618'
S'Ganesh Madanrao'
tp698
a(S'100000576293679'
S'Subhash Chander'
tp699
a(S'100004499974706'
S'Riya Joshi'
tp700
a(S'100001283371394'
S'Rang Vidushak'
tp701
a(S'623337931'
S'Neha Saraf'
tp702
a(S'1248701706'
S'Dinesh Yadav'
tp703
a(S'100004944225817'
S'Mohini Gangwar'
tp704
a(S'100001479769111'
S'Rishabh Malhotra'
tp705
a(S'100000408561922'
S'Lujane Amr'
tp706
a(S'807659460'
S'Anil Dogra'
tp707
a(S'100001808215158'
S'Laique Hussain'
tp708
a(S'100006838681094'
S'Raj Banerjee'
tp709
a(S'1257485058'
S'Amit Gupta'
tp710
a(S'100002087656591'
S'Neha Mishra'
tp711
a(S'100006674823785'
S'Kavita Sahu'
tp712
a(S'100001783844779'
S'Prasun Chowdhury'
tp713
a(S'100000722389058'
S'Natasha Oberoi'
tp714
a(S'100006827558613'
S'Dharam Pal'
tp715
a(S'1421126322'
S'Gita Guha'
tp716
a(S'100001007819039'
S'Jeetendra Kapoor'
tp717
a(S'100006428154838'
S'Suvd Namsrai'
tp718
a(S'100002854615226'
S'Deepak Raj'
tp719
a(S'100006828606156'
S'Bablu Kumar'
tp720
a(S'100002438207294'
S'Silp Kanon Nagaon Assam'
tp721
a(S'100000536762954'
S'Pankaj Berry'
tp722
a(S'100004013396398'
S'Raj Joshi'
tp723
a(S'100005050322259'
S'Lokanath Padhi'
tp724
a(S'1648821567'
S'Nikhar Leena'
tp725
a(S'642472998'
S'Shiffy Duggal'
tp726
a(S'100004730024296'
S'Manish Kumar'
tp727
a(S'100002078024953'
S'Roshani Prashad Mishra'
tp728
a(S'100002530603764'
S'Harsh Dogra'
tp729
a(S'100005123771156'
S'Hemanta Malik'
tp730
a(S'100004750778484'
S'Suraj Prakash'
tp731
a(S'100006940022709'
S'Bilal Kabeer Khan Khan'
tp732
a(S'100006508244992'
S'Sandeep Kumar'
tp733
a(S'100005009413769'
S'Manuranjan Singh'
tp734
a(S'1376585150'
S'Sangeeta Sharma'
tp735
a(S'100002160109178'
S'Sunil Rawat'
tp736
a(S'100002128630885'
S'Rajwal Sandeep Kumar'
tp737
a(S'100001141167283'
S'Constantin Ana-Maria'
tp738
a(S'100000503312038'
S'Satinder Singh'
tp739
a(S'100000215471540'
S'Mizeeng Woleng'
tp740
a(S'100003791884237'
S'Kaliyaganj AnanyaTheatre'
tp741
a(S'100000864451511'
S'Sreedev Iyer'
tp742
a(S'1751424731'
S'Komal Singh'
tp743
a(S'100005020693376'
S'Santu Mandal'
tp744
a(S'100004780530247'
S'Deepak Bhup'
tp745
a(S'1665762293'
S'Ganpat Swarup Pathak'
tp746
a(S'100004230812301'
S'Nirbhay Kumar Singh'
tp747
a(S'100003402377406'
S'Babu Babu'
tp748
a(S'100001289300266'
S'Hemlata Sharma'
tp749
a(S'628486571'
S'Subhash Rawat'
tp750
a(S'100001451070709'
S'Ajay Singh'
tp751
a(S'100005631750402'
S'Prabir Chand'
tp752
a(S'100000105962747'
S'Ajit Kanojia'
tp753
a(S'100005937612576'
S'Yashwant Wirle'
tp754
a(S'1630396188'
S'Gopal K Singh'
tp755
a(S'554980208'
S'Dipankar Paul'
tp756
a(S'100000801883358'
S'Diksha Thakur'
tp757
a(S'100000782779163'
S'Sunder Chhabra'
tp758
a(S'100005860891282'
S'Priya Gautam'
tp759
a(S'100001590458409'
S'Samay Bhaskar'
tp760
a(S'100001495821404'
S'Sanjeev Srivastava'
tp761
a(S'573603442'
S'Shobha Deepak Singh'
tp762
a(S'100007180295363'
S'Pradeep Kumar'
tp763
a(S'100006186103563'
S'Devendra Badshah'
tp764
a(S'100002500573336'
S'Dalpat Parihar'
tp765
a(S'100004384082835'
S'Amar Jeet Jangra'
tp766
a(S'1734206625'
S'Sandeep Mishra'
tp767
a(S'100001720787100'
S'Sajid Khan'
tp768
a(S'100005659064447'
S'Sourabh Aggarwal'
tp769
a(S'564925726'
S'Arsh Biji'
tp770
a(S'100002427133127'
S'Mahesh Kumar'
tp771
a(S'100001871297732'
S'Amit Saxena'
tp772
a(S'100002632345969'
S'Sheel Kashyap'
tp773
a(S'1265782391'
S'Ankit Kishan'
tp774
a(S'100002281151717'
S'Amit Singh'
tp775
a(S'100006015607126'
S'Sahil Tyagi'
tp776
a(S'100003131613410'
S'Lovely Shivam'
tp777
a(S'691586201'
S'Asmat Mushir'
tp778
a(S'100000421346450'
S'Chander Nath Mishra'
tp779
a(S'100003502467383'
S'Virendar Kumar Veeru'
tp780
a(S'100004410673731'
S'Annie Kapoor'
tp781
a(S'100000750168963'
S'Dolly Dogra'
tp782
a(S'100005287272016'
S'Setty Praveen'
tp783
a(S'1613337497'
S'Neeraj Sood'
tp784
a(S'100000727605556'
S'Monika Gupta'
tp785
a(S'100002921481555'
S'Sapna Kaushal'
tp786
a(S'1000021824'
S'Barnali Medhi'
tp787
a(S'100001481113114'
S'Sam Sp'
tp788
a(S'100006570520232'
S'Manoranjan Thakurela'
tp789
a(S'1509456538'
S'Surabhi Snehi'
tp790
a(S'100000946418562'
S'Ankur Saxena Bashar'
tp791
a(S'100002908300234'
S'Khugol Jangra'
tp792
a(S'1160201396'
S'Santosh Ojha'
tp793
a(S'100000367476658'
S'Sumesh Pb'
tp794
a(S'784439770'
S'Hemant Bhatnagar'
tp795
a(S'1100962030'
S'Seema Azmi'
tp796
a(S'100006172417508'
S'Sanju Mithbavkar'
tp797
a(S'100000826675270'
S'Ganesh Madanrao'
tp798
a(S'100006294277174'
S'Pooja Vishwas'
tp799
a(S'100003398197742'
S'Vikram Singh Chouhan'
tp800
a(S'100004383243231'
S'Susanta Das'
tp801
a(S'100001002027531'
S'Anil Jadhav'
tp802
a(S'100003544904525'
S'Rishi Sachan'
tp803
a(S'1252330027'
S'Chitrra Jetliy'
tp804
a(S'100000364012059'
S'Dani Karmakar'
tp805
a(S'100000450996718'
S'Gopal Kanojia'
tp806
a(S'100001738068632'
S'Gyan Prakash'
tp807
a(S'100001643367175'
S'Bharathi Raja'
tp808
a(S'1234118832'
S'Jitu Shastri'
tp809
a(S'100004867926422'
S'Vita Dewi'
tp810
a(S'100005898554442'
S'Mamta Sharan'
tp811
a(S'100000609886154'
S'Sadrey Alam'
tp812
a(S'100001022210532'
S'\\u0930\\u0923\\u0927\\u0940\\u0930 \\u0915\\u0941\\u092e\\u093e\\u0930'
tp813
a(S'1664313061'
S'Archana Tyagi'
tp814
a(S'738037402'
S'Jitender Vashist'
tp815
a(S'100003122951756'
S'Himanshu Chauhan'
tp816
a(S'1249145321'
S'Nitesh Singh'
tp817
a(S'100001429295687'
S'Nasib Singh'
tp818
a(S'100001426267403'
S'Surender Golu'
tp819
a(S'100003025852606'
S'Devender Chauhan'
tp820
a(S'100005272722760'
S'Tritesh Rawte'
tp821
a(S'662502330'
S'Vasudha Mathur'
tp822
a(S'1224633660'
S'Sandy Singh'
tp823
a(S'692447400'
S'Adil Hussain'
tp824
a(S'1303400898'
S'Prakash Jha'
tp825
a(S'100002396403762'
S'Ganesh Gaurav'
tp826
a(S'100001863491871'
S"'Neha Sakhuja"
tp827
a(S'100001206467126'
S'Papori Medhi'
tp828
a(S'100000707952774'
S'Uhinee Kolkata'
tp829
a(S'100008007575055'
S'Rajnandani Singh'
tp830
a(S'100007479692460'
S'Priyanka Joshi'
tp831
a(S'1381731919'
S'VJ Kumar'
tp832
a(S'100003497082286'
S'Actress Home'
tp833
a(S'100001136840515'
S'Rajeev Kumar'
tp834
a(S'517307942'
S'Manohar Khushalani'
tp835
a(S'1820439386'
S'Asit Sinha'
tp836
a(S'100001340005692'
S'Jana Natya Manch'
tp837
a(S'100003222490194'
S'Satpal Singh'
tp838
a(S'100001521424415'
S'Ishan Singh'
tp839
a(S'100001581406302'
S'Viruddh Vicky Vidhyarthi'
tp840
a(S'100007571503714'
S'Pari Jain'
tp841
a(S'100006384523624'
S'Rahul Kumar Koundal'
tp842
a(S'100001205891820'
S'Rajkumar Rajak'
tp843
a(S'100001235912567'
S'Sanjan Chander'
tp844
a(S'100000411066826'
S'Sanjeev Dogra'
tp845
a(S'100003522094038'
S'Narendra Kumar'
tp846
a(S'100006182438403'
S'Narendra Kumar'
tp847
a(S'100003506078722'
S'Deepak Verma'
tp848
a(S'100002472275731'
S'Ravindra Kaushik'
tp849
a(S'100006273094135'
S'Alisha Bhagat'
tp850
a(S'100005913874655'
S'Shivam Choudhary'
tp851
a(S'644044744'
S'Ajay Sethi'
tp852
a(S'100000731598454'
S'Shalini Agrawal'
tp853
a(S'100005212093133'
S'Abhishek Sonker'
tp854
a(S'693136232'
S'Anish Singh'
tp855
a(S'100001606997293'
S'Gaurav Gupta'
tp856
a(S'100005178758176'
S'Monica Gupta'
tp857
a(S'100003331010168'
S'Jolly Guha Roy'
tp858
a(S'100004191278215'
S'Sonu Prashar'
tp859
a(S'630735544'
S'Vivek Mansukhani'
tp860
a(S'100003692881508'
S'Vishwapati Guha'
tp861
a(S'100000132604747'
S'Vinod Anand'
tp862
a(S'100000407817063'
S'Muralee Chandra'
tp863
a(S'100001355892983'
S'Yagna Ramakrishanan'
tp864
a(S'100002550972099'
S'Shatrujeet Mishra'
tp865
a(S'100001496362678'
S'Naresh Dabral'
tp866
a(S'100002093079902'
S'Guruaribam Rakhesh Sharma'
tp867
a(S'100001484198141'
S'Suresh Shetty'
tp868
a(S'100000219283194'
S'Gunjan Kumar Gong'
tp869
a(S'100006397148151'
S'Lakshya Singh'
tp870
a(S'100005958874164'
S'Neha Gupta'
tp871
a(S'1147703779'
S'Jagat Singh Rawat'
tp872
a(S'100006567646725'
S'Shuren Khan'
tp873
a(S'100001439248662'
S'Ayushi Tiwari'
tp874
a(S'100004653283203'
S'Rafeek Khan'
tp875
a(S'100004366213752'
S'Som Pal'
tp876
a(S'100002727241254'
S'Akash Mohan Motherao'
tp877
a(S'100006181630313'
S'Vivek Kumar'
tp878
a(S'100003271316518'
S'Usha Kharbal'
tp879
a(S'769963345'
S'Ranjit Kapoor'
tp880
a(S'100000801230938'
S'Mukund Chandra'
tp881
a(S'100001427490728'
S'Gaurav Digwa'
tp882
a(S'100001427292456'
S'Liaqat Ali'
tp883
a(S'100005938543889'
S'Mamta Sharan'
tp884
a(S'1075606043'
S'Hakeem Javeed'
tp885
a(S'100001053920588'
S'Ajit Ranjan'
tp886
a(S'100003399782575'
S'Abdul Mubeen'
tp887
a(S'807438846'
S'Asif Ali Haider Khan'
tp888
a(S'100001663112978'
S'Naina Sharma'
tp889
a(S'100000832658911'
S'Lisa Strastus'
tp890
a(S'845834098'
S'Mahesh V Patil'
tp891
a(S'1555084802'
S'Tauqeer Alam Khan'
tp892
a(S'100001777447390'
S'Ajit Rai'
tp893
a(S'100001206549715'
S'Nisha Trivedi'
tp894
a(S'100006086350581'
S'Jagdish Thakur'
tp895
a(S'100000071266123'
S'Ashok Jain'
tp896
a(S'100005810441490'
S'Pardeep Daderwal'
tp897
a(S'634863808'
S'Rasika Agashe'
tp898
a(S'100005626053746'
S'Manmohan Solanki'
tp899
a(S'100001314913007'
S'Kewal Dhaliwal'
tp900
a(S'100005072641426'
S'Manoj Nirala'
tp901
a(S'806023850'
S'Gargi Bharadwaj'
tp902
a(S'100001771957445'
S'Sachin Verma'
tp903
a(S'100001522452188'
S'Manik Roy'
tp904
a(S'100002417379836'
S'Dwarika Dahiya'
tp905
a(S'100005066971394'
S'Ravinder Singh'
tp906
a(S'1059144640'
S'Nitin Bhasin'
tp907
asS'id'
p908
S'100000113389945'
p909
sS'name'
p910
S'Surinder Kumar'
p911
s.