(dp1
S'name'
p2
S'Faraz Shoukat'
p3
sS'current_class'
p4
S'pakistan'
p5
sS'home_class'
p6
Vhyderabad, pakistan
p7
sS'home_text'
p8
VHyderabad, Sindh\u000aHometown
p9
sS'current_link'
p10
Vhttps://www.facebook.com/l.php?u=https%3A%2F%2Fwww.bing.com%2Fmaps%2Fdefault.aspx%3Fv%3D2%26pc%3DFACEBK%26mid%3D8100%26where1%3D25.379200037404%252C%2B68.367919921875%26name%3DHyderabad%252C%2BSindh%26mkt%3Den-IN&h=KAQGljQ83&s=1
p11
sS'home_link'
p12
Vhttps://www.facebook.com/l.php?u=https%3A%2F%2Fwww.bing.com%2Fmaps%2Fdefault.aspx%3Fv%3D2%26pc%3DFACEBK%26mid%3D8100%26where1%3D25.379200037404%252C%2B68.367919921875%26name%3DHyderabad%252C%2BSindh%26mkt%3Den-IN&h=ZAQEOwUzE&s=1
p13
sS'current_text'
p14
VHyderabad, Sindh\u000aCurrent City
p15
sS'friends'
p16
(lp17
(S'100003696194495'
S'Faraz Shoukat'
tp18
asS'id'
p19
S'100003696194495'
p20
s.