(dp1
S'friends'
p2
(lp3
(S'100000326468628'
S'Suresh Holi'
tp4
a(S'1657058394'
S'Nitin Jain'
tp5
a(S'100001397230175'
S'Nitin Jain'
tp6
a(S'1487657919'
S'Amar Relan'
tp7
a(S'1450311290'
S'Vijaykumar Wani'
tp8
a(S'797790499'
S'Ajay Hans'
tp9
a(S'100001434594029'
S'Manoj Kapoor'
tp10
a(S'100000401712329'
S'Naveen Kumar'
tp11
a(S'100001428856319'
S'Sudarshan Rattan'
tp12
a(S'605385957'
S'Saurabh Srivastava'
tp13
a(S'1158776862'
S'Jitendra Madaan'
tp14
a(S'100000031630366'
S'Ajay Bindlish'
tp15
a(S'100001213488028'
S'Ajay Gambhir'
tp16
a(S'100000765574759'
S'Ram Mehrotra'
tp17
a(S'1291190296'
S'Ashish Sharma'
tp18
a(S'100001236481818'
S'Ashok Kp'
tp19
a(S'100001018908607'
S'Deepak Agrawal'
tp20
a(S'100000374292009'
S'Rajesh Sharma'
tp21
a(S'1222959180'
S'Suresh Yadav'
tp22
a(S'1315185035'
S'Vinay Gupta'
tp23
a(S'1442348461'
S'Puneet Tandon'
tp24
a(S'100002727312398'
S'Ravindra Nath Bajpai'
tp25
a(S'100000037749015'
S'Rajesh Rohilla'
tp26
a(S'658695292'
S'Amit Mukherji'
tp27
a(S'698127436'
S'Rajeev Khandelwal'
tp28
a(S'1331385052'
S'Yogesh Chandra'
tp29
a(S'1430162464'
S'Surjit Angra'
tp30
a(S'100000794674310'
S'Krishan Gopal'
tp31
a(S'1612150339'
S'Gaurav Agrawal'
tp32
a(S'100002308152844'
S'Sunil Kumar'
tp33
a(S'1634476293'
S'Sanjay Aggarwal'
tp34
a(S'1011520831'
S'Jaideep Mittal'
tp35
a(S'1740627212'
S'Sudhir Kumar Saxena'
tp36
a(S'1671000956'
S'Jitendra Jain'
tp37
a(S'100001016438312'
S'Manish Singh'
tp38
asS'id'
p39
S'100000249107048'
p40
sS'name'
p41
S'Ajai Jain'
p42
s.