(dp1
S'friends'
p2
(lp3
(S'100004288333285'
S'Whisper Sweetie'
tp4
a(S'100002259107313'
S'Kirsten Giesbrecht'
tp5
a(S'598706146'
S'Andres Garc\\u00eda de Vinuesa'
tp6
a(S'100000041582240'
S'Taylor Christine Hess'
tp7
a(S'1319683409'
S'Sydney Maxwell'
tp8
a(S'1313203809'
S'Amy Bullock Kahn'
tp9
a(S'100003786699900'
S'Deuce Gibson'
tp10
a(S'100001312105693'
S'Alex Hengge'
tp11
a(S'100001200833645'
S'Rachel Motley'
tp12
a(S'1305870560'
S'Anna Kenney'
tp13
a(S'100000007068623'
S'Paige Gieske'
tp14
a(S'1718297304'
S'James Schwyn'
tp15
a(S'659245829'
S'Alayna Simpson'
tp16
a(S'1768785410'
S'Ben Steiger'
tp17
a(S'100000539323982'
S'Andy Piccirillo'
tp18
a(S'1220330154'
S'Megan Barton'
tp19
a(S'1374055361'
S'Zacko Lawrence Rightmire'
tp20
a(S'1606080472'
S'Marisa Lorch'
tp21
a(S'1148322312'
S'Alexa Raye Dauphin'
tp22
a(S'1041927103'
S'Tarushi Ravindra'
tp23
a(S'1282064674'
S'Dillon Dishman'
tp24
a(S'100000630563568'
S'Stephanie Marie Robinson'
tp25
a(S'100000144373952'
S'Cody James Piper'
tp26
a(S'100002023838979'
S'Sarah Krems'
tp27
a(S'100001556969225'
S'Madeline McGraw'
tp28
a(S'100000143242094'
S'Morgan Case'
tp29
a(S'1428463563'
S'Clay Jackson'
tp30
a(S'100000546434521'
S'Madison Trenkamp'
tp31
a(S'1364737294'
S'Lauren Burt'
tp32
a(S'100001169831964'
S'Alex Guenther'
tp33
a(S'1525158960'
S'Kenny Kurzendoerfer'
tp34
a(S'21105622'
S'Andrew Kenney'
tp35
a(S'100002998982475'
S'Joyce Lu'
tp36
a(S'762224265'
S'Nicole Andrea Hennard'
tp37
a(S'1478371033'
S'Haley Nicole Duggan'
tp38
a(S'1244306975'
S'Andrew Wagner'
tp39
a(S'515932399'
S'Chad Ackerman'
tp40
a(S'705422185'
S'Lauren Mikhail'
tp41
a(S'100002207525569'
S'Jacob Von Handorf'
tp42
a(S'100000235137115'
S'Ellie Stoddart'
tp43
a(S'638779575'
S'Payton Grace'
tp44
a(S'100000669227202'
S'Alex Barton'
tp45
a(S'1660113127'
S'Molly M. Stoddart'
tp46
a(S'100003016482519'
S'Alyssa  Qiu'
tp47
a(S'1424262106'
S'Maddy Plummer'
tp48
a(S'551433524'
S'Lauren Vennefron'
tp49
a(S'100004106437410'
S'Randy Lund'
tp50
a(S'673261807'
S'Katie Felts'
tp51
a(S'1317432873'
S'Doug Herbert'
tp52
a(S'629404458'
S'Martha Guariglia'
tp53
a(S'528082730'
S'Daniel Arguelles'
tp54
a(S'607453856'
S'Mansi Jain'
tp55
a(S'1418559307'
S'Brian Murray'
tp56
a(S'100000187330346'
S'Kevin Tillery'
tp57
a(S'100000595302581'
S'Sam Adamson'
tp58
a(S'1732443448'
S'Maddie Clabough'
tp59
a(S'100000063420744'
S'Andrew Smith'
tp60
a(S'670741788'
S'Julie Bierach Guariglia'
tp61
a(S'100002821306802'
S'Oxen D. Arca'
tp62
a(S'1359772935'
S'Natalie Yim'
tp63
a(S'100001069045899'
S'Mitchell Schleper'
tp64
a(S'12930240'
S'Alex Curran'
tp65
a(S'100000160149138'
S'Jake Fields'
tp66
a(S'689269938'
S'Olivia Clements'
tp67
a(S'100000732396283'
S'Lucas Sopko'
tp68
a(S'100001620993798'
S'Lynn Bullock Kenney'
tp69
a(S'658339765'
S'Crystal Gram'
tp70
a(S'744956644'
S'Chance Manzler'
tp71
a(S'1805744550'
S'Charissa Junker'
tp72
a(S'100001193812634'
S'Nhattan Do'
tp73
a(S'1358108309'
S'Jack Rees'
tp74
a(S'1054360088'
S'Melissa Cunha'
tp75
a(S'1322719143'
S'Ronnie Givver'
tp76
a(S'100001039655259'
S'Daniel Hillenmeyer'
tp77
a(S'1276787430'
S'Meredith Moser'
tp78
a(S'100000151568509'
S'Ryan Anthony Samarakoon'
tp79
a(S'100000128450593'
S'Shane Burck'
tp80
a(S'698555109'
S'Hawken Lord'
tp81
a(S'100000481024086'
S'Jack Oldfield'
tp82
a(S'100000156159598'
S'Jack FitzGerald'
tp83
a(S'1580560052'
S'Michael Plummer'
tp84
a(S'596188993'
S'Gilberto Coto'
tp85
a(S'100000271444525'
S'Fox Purcell'
tp86
a(S'1086704175'
S'Chris Simon'
tp87
a(S'1051950075'
S'Andy Magliano'
tp88
a(S'662246658'
S'Sach Anthony'
tp89
a(S'1324107343'
S'Tommy Murta'
tp90
a(S'100000111060003'
S'Tyler Cobaugh'
tp91
a(S'100003081771618'
S'Spencer Cox'
tp92
a(S'100001379551091'
S'Grace Marie Clabough'
tp93
a(S'100001382232894'
S'Luke Hontas'
tp94
a(S'1041911590'
S'Brandon Livengood'
tp95
a(S'610872367'
S'Andrew Pfriem'
tp96
a(S'749418435'
S'Drew Harmon'
tp97
a(S'100002559521453'
S'Lauren Dumaine'
tp98
a(S'577355005'
S'Melissa Han'
tp99
a(S'1260027136'
S'Craig Wagner'
tp100
a(S'827264205'
S'Brooke Eliot'
tp101
a(S'1437333189'
S'Kayla Flick'
tp102
a(S'100003878008707'
S'Nicholas Boucher'
tp103
asS'id'
p104
S'100001595792763'
p105
sS'name'
p106
S'Zach Kenney'
p107
s.