(dp1
S'friends'
p2
(lp3
(S'100002507291311'
S'Nancy Mamdouh'
tp4
a(S'100007091410965'
S'Imran Wafa'
tp5
a(S'100007894143551'
S'Gullali Khan'
tp6
a(S'100003920253429'
S'Gull Panra'
tp7
a(S'100004214924595'
S'Sadiqullah Sadiq'
tp8
a(S'100007918599798'
S'Akbar Ali'
tp9
a(S'100007704584070'
S'Ali Khan'
tp10
a(S'100007213421260'
S'Muhammad Nawab'
tp11
a(S'100007847501884'
S'Ajmeer Khan'
tp12
a(S'100004738261348'
S'Amjad Ali'
tp13
a(S'100006866773693'
S'Gul Islam'
tp14
a(S'100007877886440'
S'Abo Pazal Hamed Khan'
tp15
a(S'100006452147007'
S'Shena Daskor Khan'
tp16
a(S'100004028665107'
S'Tahir Shams'
tp17
a(S'100002176507613'
S'Ihsan Haq'
tp18
a(S'100007874862733'
S'Hayadat Khan Hayadat Khan'
tp19
a(S'100007103436062'
S'Arshad Ali'
tp20
a(S'100007987414653'
S'Yasar Ali'
tp21
a(S'100006708308212'
S'Faizmohammad Khan'
tp22
a(S'100003512930226'
S'Khurshid Painda Kheel'
tp23
a(S'100007341730881'
S'Ayaz Mashal'
tp24
a(S'100006536528267'
S'Muhammad Ayaz'
tp25
a(S'100007482424381'
S'Gul Parna'
tp26
a(S'100006142093437'
S'Hamish Gul'
tp27
a(S'100007334322576'
S'Ataullah Khan'
tp28
a(S'100005805665659'
S'Moneba Khan'
tp29
a(S'100007743571883'
S'Eman Khan'
tp30
a(S'100007269972768'
S'Nazeem Khan'
tp31
a(S'100007627326378'
S'Arif Ullah Kakad'
tp32
a(S'100007185013657'
S'\\u0633\\u0644\\u0645\\u0627 \\u0628\\u064a \\u062c\\u0627\\u0646\\u0627\\u0646\\u0647'
tp33
a(S'100003492193353'
S'Naseer Ahmad'
tp34
a(S'100005071393224'
S'Malik Awais Khan'
tp35
a(S'100008037243068'
S'\\u062f\\u06cc\\u0631 \\u0648\\u0627\\u0691\\u06cc'
tp36
a(S'100007075783680'
S'Sumaia Rakib'
tp37
a(S'100008124841367'
S'Zamer Khan'
tp38
a(S'100006434540225'
S'\\u062e\\u0691\\u062a\\u0647 \\u062e\\u0691\\u0648\\u062a\\u0647'
tp39
a(S'100007832592771'
S'Abo Salman'
tp40
a(S'100002757348669'
S'Meena Shams'
tp41
a(S'100006514082540'
S'\\u0634\\u0627\\u0644\\u06af\\u0627\\u0647 \\u0646\\u0647\\u0627\\u06af\\u062f\\u0631\\u0647'
tp42
a(S'100007151921232'
S'Daskor Bala'
tp43
a(S'100007085381531'
S'Shan Shan'
tp44
a(S'100002085311776'
S'Mena Mangal'
tp45
a(S'100007875782256'
S'Pasmenkhan Khan'
tp46
a(S'100004907915099'
S'Ailkhan Zaland'
tp47
a(S'100007091403384'
S'Sajid Ali Khan'
tp48
a(S'100006549573071'
S'Ismail Khan'
tp49
a(S'100007296306346'
S'Sahib Zada'
tp50
a(S'100006993752351'
S'Mohd Saeed'
tp51
a(S'100007082652040'
S'Qasem Khan'
tp52
a(S'100007441290880'
S'Shah Tamrez'
tp53
a(S'100003747036851'
S'Gull Parna'
tp54
a(S'100007927262626'
S'Ana Mena Shams'
tp55
a(S'100007329695239'
S'Umar Zamin'
tp56
a(S'100006475058121'
S'Ailkhan Adssain'
tp57
a(S'100007097077421'
S'Saba Batol'
tp58
a(S'100002509214483'
S'Bacha Zeb'
tp59
a(S'100008014327395'
S'Ahsan Jatoi Ahsan Jatoi'
tp60
a(S'100005704209970'
S'Zarif Zarif Zarif'
tp61
a(S'100004659792503'
S'Gul Awar Khan'
tp62
a(S'100006778569109'
S'Gull Parna'
tp63
a(S'100007846483384'
S'Anwar Taj'
tp64
a(S'100007825299781'
S'Ismail Khan'
tp65
a(S'100008075378188'
S'Niaz Akbar'
tp66
asS'id'
p67
S'100008170983438'
p68
sS'name'
p69
S'\\u0634\\u0627\\u0632\\u06cc\\u0647 \\u067e\\u06cc\\u0634\\u0627\\u0648\\u0631'
p70
s.