(dp1
S'name'
p2
S'Ravi Gill'
p3
sS'current_class'
p4
S'india'
p5
sS'home_class'
p6
Vjaipur, rajasthan, india
p7
sS'home_text'
p8
VJaipur, Rajasthan\u000aHometown
p9
sS'current_link'
p10
Vhttps://www.facebook.com/l.php?u=https%3A%2F%2Fwww.bing.com%2Fmaps%2Fdefault.aspx%3Fv%3D2%26pc%3DFACEBK%26mid%3D8100%26where1%3D26.916700827147%252C%2B75.816650390625%26name%3DJaipur%252C%2BRajasthan%26mkt%3Den-IN&h=eAQG6t3jS&s=1
p11
sS'home_link'
p12
Vhttps://www.facebook.com/l.php?u=https%3A%2F%2Fwww.bing.com%2Fmaps%2Fdefault.aspx%3Fv%3D2%26pc%3DFACEBK%26mid%3D8100%26where1%3D26.916700827147%252C%2B75.816650390625%26name%3DJaipur%252C%2BRajasthan%26mkt%3Den-IN&h=CAQHjMTLw&s=1
p13
sS'current_text'
p14
VJaipur, Rajasthan\u000aCurrent City
p15
sS'friends'
p16
(lp17
(S'100003180023851'
S'Ravi Gill'
tp18
asS'id'
p19
S'100003180023851'
p20
s.