(dp1
S'name'
p2
S'Haroon Xheikh'
p3
sS'current_class'
p4
S'pakistan'
p5
sS'home_text'
p6
VIcharaqui, Oruro, Bolivia\u000aHometown
p7
sS'current_link'
p8
Vhttps://www.facebook.com/l.php?u=https%3A%2F%2Fwww.bing.com%2Fmaps%2Fdefault.aspx%3Fv%3D2%26pc%3DFACEBK%26mid%3D8100%26where1%3D31.549700669186%252C%2B74.343109130859%26name%3DLahore%252C%2BPakistan%26mkt%3Den-IN&h=FAQGWoVdB&s=1
p9
sS'home_link'
p10
Vhttps://www.facebook.com/l.php?u=https%3A%2F%2Fwww.bing.com%2Fmaps%2Fdefault.aspx%3Fv%3D2%26pc%3DFACEBK%26mid%3D8100%26where1%3D-18.883298943296%252C%2B-67.667541503906%26name%3DIcharaqui%252C%2BOruro%252C%2BBolivia%26mkt%3Den-IN&h=YAQEHQ5x2&s=1
p11
sS'current_text'
p12
VLahore, Pakistan\u000aCurrent City
p13
sS'friends'
p14
(lp15
(S'100002447303624'
S'Bilal Brave'
tp16
a(S'100006531693092'
S'Umar Sheikh'
tp17
a(S'100007332720100'
S'Muhammad Khurram'
tp18
a(S'100003300719091'
S'Azish True Friend'
tp19
a(S'100000449894366'
S'Ahsan Ali'
tp20
a(S'100000197862466'
S'Tariq Azi'
tp21
a(S'100008253634408'
S'Zeenat Khan'
tp22
a(S'100001969545823'
S'Hina Khalid'
tp23
a(S'100005171167111'
S'Wajahat Ali'
tp24
a(S'100006760560220'
S'Ali Khan Khan'
tp25
a(S'100000617180122'
S'Nida Yasir'
tp26
a(S'100002367620821'
S'Saud Roxx'
tp27
a(S'100003505001846'
S'Arslan Ali'
tp28
a(S'100001702807931'
S'Hafiz Haris Saleem'
tp29
a(S'100006765601177'
S'Bahroz Shykh'
tp30
a(S'100007181881543'
S'Shanaya Khan'
tp31
a(S'100002077183704'
S'Sajid Ayub'
tp32
a(S'100007971134050'
S'Umar Khalid'
tp33
a(S'100007394916580'
S'Zahid Jutt'
tp34
a(S'100003779229134'
S'Saba Nargis'
tp35
a(S'100008263029958'
S'\\u0646\\u0648\\u0631 \\u0647\\u0627\\u062f\\u064a \\u0645\\u062c\\u064a\\u062f'
tp36
a(S'100003964564053'
S'Awais Shykh'
tp37
a(S'100001041446416'
S'Wahab Hasan'
tp38
a(S'100004050382437'
S'Sonu Mehmood'
tp39
a(S'100008109787229'
S'Alia Doll'
tp40
a(S'100007197183205'
S'Shahzad Shahzad'
tp41
a(S'100003293110685'
S'Sunny Falak'
tp42
a(S'100001271402020'
S'Hassan Saleem'
tp43
a(S'100004947552172'
S'Muhammad Ali'
tp44
a(S'100007941060158'
S'Mussadiq Sheikh'
tp45
a(S'100007040623777'
S'Naanii Sheikh'
tp46
a(S'1445666137'
S'Zara Khan'
tp47
a(S'100006090999686'
S'Muhammad Saleem'
tp48
a(S'100005203653821'
S'Zohaib Mani'
tp49
a(S'100005094644236'
S'Sajid Shafiq'
tp50
a(S'100007398910089'
S'Prince Khan'
tp51
a(S'100008237322747'
S'Mabia Insha'
tp52
a(S'100001558400722'
S'Daniyal Dani'
tp53
a(S'100002996625390'
S'Siyaasat Khan'
tp54
a(S'100007597689074'
S'Sohaib Sajid'
tp55
a(S'100001992086966'
S'Ahsan Ijaz'
tp56
a(S'100003659156623'
S'Hamna Rmz'
tp57
a(S'100008110874080'
S'Kuldeep Bharati'
tp58
a(S'100003557267684'
S'Muhammad Naveed'
tp59
a(S'100000983231045'
S'Mohsin Mansha'
tp60
a(S'100004420174003'
S'Ali Abbas'
tp61
asS'id'
p62
S'100003266166817'
p63
s.