(dp1
S'friends'
p2
(lp3
(S'100001831554614'
p4
S'Farida Ahmadi'
tp5
a(S'100000832889253'
S'Mohammad Amin Zadran'
tp6
a(S'100000177752597'
S'Esmatullah Asmat Buniadi'
tp7
a(S'100000279252778'
S'Louie Dianon'
tp8
a(S'100000924427681'
S'Atiq Safi'
tp9
a(S'100001283076053'
S'Shamadullah Alham'
tp10
a(S'100006757179477'
S'Gabriella Smith'
tp11
a(S'100001098046051'
S'Niazai Najib'
tp12
a(S'100007503813233'
S'Amin Zaland'
tp13
a(S'100002424970135'
S'Sahra Afghan'
tp14
a(S'100004414896304'
S'Wolosmir Amiri'
tp15
a(S'100002897153525'
S'Nawid Esmati'
tp16
a(S'100002972166672'
S'Rashid Khan'
tp17
a(S'100005840166598'
S'Khalisa Mahmoud'
tp18
a(S'1683493367'
S'Brad Curtis'
tp19
a(S'100006060014482'
p20
S'Goodar Zazai'
tp21
a(S'719413442'
S'Fozii \\u0641\\u0648\\u0632 \\u062d\\u0633\\u064a\\u0646'
tp22
a(S'100005961061537'
p23
S'Noori Omid'
tp24
a(S'100004380542863'
S'Rahmatullah Amani'
tp25
a(S'100002070077047'
S'Mohammad Naeem Angar'
tp26
a(S'1597684742'
S'Sana Tariq'
tp27
a(S'100000965537310'
S'Abdul Wali Popalzai'
tp28
a(S'100003260541053'
S'Omid Jan'
tp29
a(S'1239766556'
S'Khaawri Afghan'
tp30
a(S'100002581333306'
S'Inayat Siddique'
tp31
a(S'100000262494806'
S'Ghulam Mustafa'
tp32
a(S'100007229293634'
S'Ahmad Asmar Sultani'
tp33
a(S'630564870'
S'Desmond Brumfield'
tp34
a(S'100003227427967'
S'Aftab Omer'
tp35
a(S'100001103387411'
S'Ken Stolp'
tp36
a(S'100001039730895'
S'Aimal Jan Saba'
tp37
a(S'100001671444730'
S'Hashmat Afghanzoi'
tp38
a(S'100000926012643'
S'Zabihullah Rafeeq'
tp39
a(S'100003715781917'
S'Atiq Faryabi'
tp40
a(S'100000848518031'
S'Azizullah Niazi'
tp41
a(S'100000648645512'
S'Mohammad Ghafoori'
tp42
a(S'100000838914638'
p43
S'Mashal Khan Mashal'
tp44
a(S'865160160'
S'Steph Jones'
tp45
a(S'100000180715117'
S'Izatullah Dawlatzai'
tp46
a(S'100007047181526'
S'\\u0648\\u0631\\u06a9 \\u0681\\u0627\\u0681\\u06cc'
tp47
a(S'100004089544080'
S'\\u09ae\\u09c7\\u0998\\u09b2\\u09be \\u0986\\u0995\\u09be\\u09b6'
tp48
a(S'100003972021183'
S'Rabi Fayaz Esmati'
tp49
a(S'100000469724564'
S'Habib Jabarkhil'
tp50
a(S'100003262614951'
S'Amir Ahmadzai'
tp51
a(S'100001359154413'
S'Fazlullah Sayedzi'
tp52
a(S'100001601909048'
S'Andra Apostol'
tp53
a(S'100001057074420'
S'Attiqullah Ihsan'
tp54
a(S'100001850236822'
S'Fawad Ahmadi'
tp55
a(S'100003223844578'
S'Arash Andishwar'
tp56
a(S'100002082559549'
S'Faizrahman Rahmani'
tp57
a(S'100006921933788'
S'\\u062f\\u06a9\\u062a\\u0648\\u0631\\u0633 \\u062a\\u0645\\u0646\\u0627 \\u062a\\u0648\\u0627\\u0646\\u0627'
tp58
a(S'100002398203911'
S'Aimal Najrabi Safi'
tp59
a(S'1641531734'
S'Wais Alamyaar'
tp60
a(S'100000723356867'
S'Najeeb Zareffe'
tp61
a(S'100004882621176'
S'Ehsanullah Paktiawal'
tp62
a(S'100003814846057'
S'Wahidullah Wahidi'
tp63
a(S'100002085311776'
p64
S'Mena Mangal'
tp65
a(S'100002518142262'
S'Jigyasa Sharma'
tp66
a(S'100000602258585'
S'Aimal Suhrab'
tp67
a(S'100005110655650'
S'Hussain Humdard'
tp68
a(S'100000637283266'
S'Jordan Caldwell'
tp69
a(S'100003259526457'
S'Saidullah Totakhil'
tp70
a(S'100000455316557'
S'Chris Tina'
tp71
a(S'100001646848600'
S'Noor Rahman Hazrati'
tp72
a(S'100001213526736'
S'Ahmad Khasrow Labib'
tp73
a(S'100007564692073'
S'Hakim Barak'
tp74
a(S'100002329622568'
S'Ahmad Ratib Kargar'
tp75
a(S'100001023973899'
S'Amenda Gorge'
tp76
a(S'756309404'
S'Sayed Zabihullah'
tp77
a(S'100007072562607'
S'Muhammadullah Ibrahimi'
tp78
a(S'100001586068385'
S'Jaan Arif'
tp79
a(S'100001166956003'
S'Liezel Jalon'
tp80
a(S'100005073069534'
p81
S'\\u0633\\u0645\\u06cc\\u0639 \\u0627\\u0644\\u0644\\u0647 \\u0646\\u0648\\u0631\\u06cc'
tp82
a(S'100001177893237'
S'Mutiia Friendhells'
tp83
a(S'100002418520162'
S'Omid Zazy'
tp84
a(S'100006850561361'
p85
S'Haji Noorullah Jalali'
tp86
a(S'100007380637957'
S'Atiqullah Totakhail'
tp87
a(S'100007470971424'
S'Maar\\u00fa Beth Martynzz'
tp88
a(S'100002601236908'
S'Matiullah Kaka'
tp89
a(S'100007719090605'
S'Bismillah Totakhail'
tp90
asS'id'
p91
S'100002264320705'
p92
sS'name'
p93
S'Noor Nadiree'
p94
s.