(dp1
S'friends'
p2
(lp3
(S'100006518684065'
S'True Islam Afghanistan'
tp4
a(S'100001519742618'
S'Abasin Rawan'
tp5
a(S'100001949664365'
S'Shoja Afghan'
tp6
a(S'579974203'
S'Farid Bahige'
tp7
a(S'100006277028616'
S'Ashraf Khan'
tp8
a(S'100000720697507'
S'Aimal Sultanzai'
tp9
a(S'100002132080811'
S'Smk Khan'
tp10
a(S'100000839289301'
S'Burhan Agha'
tp11
a(S'100001621022151'
S'Asif Mal'
tp12
a(S'100008190304702'
S'Khaber Mangal'
tp13
a(S'100001774403965'
S'Takoor Zazai'
tp14
a(S'100001922465569'
S'Fraidoon Mansoori'
tp15
a(S'1499761692'
S'Munib HL'
tp16
a(S'100001859030979'
S'Sabawoon Mangal'
tp17
a(S'100000323812681'
S'Lawangeen Afghani'
tp18
a(S'100001510046784'
S'Faisal Saidee'
tp19
a(S'100000090703145'
S'Mujeeb Seddiqi'
tp20
a(S'100002022106084'
S'Jamil Khan'
tp21
a(S'100000688068917'
S'John Berrino'
tp22
a(S'100003529599544'
S'Ajmal Kakar'
tp23
a(S'100003137799187'
S'Qudrat Khan Alizai'
tp24
a(S'502937533'
S'Fazal Afghani'
tp25
a(S'100000615044627'
S'Said Mohmund'
tp26
a(S'100006047291370'
S'Abdulaziz Baturzay'
tp27
a(S'100002274907241'
S'\\u0648\\u0635\\u0627\\u0644 \\u0627\\u062d\\u0645\\u062f \\u0648\\u0635\\u0627\\u0644'
tp28
a(S'100007512995078'
S'Ahmad Shakib Sahibzada'
tp29
a(S'100002321916045'
S'Samer Noori'
tp30
a(S'100005814574427'
S'Abdullah Wardak'
tp31
a(S'100001794518274'
S'Ismail Mungan'
tp32
a(S'100001465998345'
S'Ismatullah Mayar'
tp33
a(S'100004385469312'
S'Muhajer Dost Mal'
tp34
a(S'100002219485776'
S'Sanam Abbas'
tp35
a(S'100004564383665'
S'Abid Tanha'
tp36
a(S'100008043990943'
S'Lila Afghan'
tp37
a(S'100001919675587'
S'M Rafi Khan Stanikzai'
tp38
a(S'100000945223197'
S'Abdulrshid Khan'
tp39
a(S'100007779941033'
S'Tofan Noori'
tp40
a(S'100004433431862'
S'Dilawar Nasari'
tp41
a(S'100001534590275'
S'Aisha Stanikzai'
tp42
a(S'100002127088279'
S'Hazem Mondher'
tp43
a(S'100001029767114'
S'Abdullah Jamal'
tp44
a(S'100007537542429'
S'Fareed Ullah'
tp45
a(S'100000541018550'
S'Wakash Khokar'
tp46
a(S'100001168696424'
S'Mateen Zakir'
tp47
a(S'100005345431129'
S'Mahmood Sahar'
tp48
a(S'100001645511859'
S'Gharany Zwak'
tp49
a(S'100001890927885'
S'Talash Afghan'
tp50
a(S'100002389564141'
S'\\u0632\\u0644\\u0645\\u06cc \\u0627\\u0634\\u0646\\u0627'
tp51
a(S'100001070128173'
S'Qismat Afridi'
tp52
a(S'100000627754313'
S'Arman Ashna'
tp53
a(S'100000464227123'
S'Rafique Khan Khan'
tp54
a(S'100001952166787'
S'Tamorshah Mangal'
tp55
a(S'100001465851798'
S'Rafiullah Ziar'
tp56
a(S'1810518859'
S'Mohammadgul Totakhil'
tp57
a(S'100004921205822'
S'Elham Faroqi'
tp58
a(S'100004004378925'
S'Javed Aftab'
tp59
a(S'100001181056252'
S'Ahmadullah Salimee'
tp60
a(S'100007016791884'
S'Emal Mangal'
tp61
a(S'100004946074779'
S'Salam Arif'
tp62
a(S'100000904995766'
S'Afghan Starr'
tp63
a(S'100001884983486'
S'Fazalhaq Haidari'
tp64
a(S'100002083947337'
S'Salem Dost'
tp65
a(S'584515088'
S'Minanak Totakhil'
tp66
a(S'100002263301352'
S'Estifam Carlson'
tp67
a(S'100002202740343'
S'Jahaan Shah'
tp68
a(S'100002127363510'
S'\\u0646\\u0630\\u06cc\\u0631 \\u0633\\u0631\\u0641\\u0631\\u0627\\u0632'
tp69
a(S'100001959669158'
S'Nisar Zhwand'
tp70
a(S'100006994212764'
S'Yaseeni Khosti'
tp71
a(S'100002526211469'
S'Manish Madan'
tp72
a(S'100004151980992'
S'Sarif K Zalim'
tp73
a(S'1033573801'
S'King Khan'
tp74
a(S'100000514814863'
S'Sher Khan'
tp75
a(S'100002502767192'
S'Mustafa Jutt'
tp76
a(S'100000377038379'
S'Afghan Melat'
tp77
a(S'100001765593981'
S'Fazal Rahim Wardak'
tp78
a(S'100002212426448'
S'Anar Khan'
tp79
a(S'1277848523'
S'Hakim Sayedi'
tp80
a(S'100002145931113'
S'Breshna Safy'
tp81
a(S'100001855836472'
S'Hamed Mangal'
tp82
a(S'100002117243353'
S'Hakim Arman Zazai'
tp83
a(S'100000890462467'
S'Jamal Rehan'
tp84
a(S'100000596672452'
S'Javid Omar'
tp85
a(S'100001530697930'
S'Maiwand Amanzai'
tp86
a(S'100000628451863'
S'Mojebrahman Mahmoodi'
tp87
a(S'100000944687151'
S'Zakir Fazli'
tp88
a(S'1545280531'
S'Ab Wares Nayel'
tp89
a(S'100006949260709'
S'Bilal Safi'
tp90
a(S'100001488728994'
S'Yaseen Anwari'
tp91
a(S'100000946518150'
S'Abdul Waris Mamozai'
tp92
a(S'1450927380'
S'Hikmat Ullah'
tp93
a(S'100002113909435'
S'Waheed Sahel'
tp94
a(S'100004082904010'
S'Zabihullah Padshah Wardak'
tp95
a(S'100005932054272'
S'Pir Zadeh'
tp96
a(S'100001758312047'
S'Bakhtiar Zadran'
tp97
a(S'100001873060749'
S"'Khalid Ibrahimkhail"
tp98
a(S'100005180650180'
S'Khalid Omeri'
tp99
a(S'100002264320705'
S'Noor Nadiree'
tp100
a(S'100002315989034'
S'Rahman Khan'
tp101
a(S'100000122914144'
S'Khoshal Popal'
tp102
a(S'100002200333803'
S'Ayatullah Mohammadi'
tp103
a(S'100000767199014'
S'Fazal Raheem Rokhan'
tp104
a(S'100002261548673'
S'Shama Zalme'
tp105
a(S'100000939039205'
S'Bahadur Ahmadi'
tp106
a(S'100003467288842'
S'Khyber Masoud'
tp107
a(S'100000733682049'
S'Ali Ahmad Saifi'
tp108
a(S'100001611126011'
S'Nasar Iqbal Yousafzai'
tp109
a(S'100001892088114'
S'Murtaza King Hqbine'
tp110
a(S'100006516703583'
S'Zishan Tasal'
tp111
a(S'100003758412782'
S'Asmat Mangal'
tp112
a(S'100000465935368'
S'Daud Miraki'
tp113
a(S'100001663376766'
S'Aqkk Khan G'
tp114
a(S'671370613'
S'Khoshal Khan Yousufzai'
tp115
a(S'100004919071531'
S'Sabaoon Fatohee'
tp116
a(S'100002084323649'
S'Ahmad Shah Ahmadi'
tp117
a(S'100000718423933'
S'Khalid Sediqi'
tp118
a(S'100002459703503'
S'Iftikhar Ahmad'
tp119
a(S'732354339'
S'Takkal Abdurrahimzai'
tp120
a(S'100007470939851'
S'Tama Mad'
tp121
a(S'100001292746920'
S'Nassim Qari'
tp122
a(S'100007505440449'
S'Tajdar Alam'
tp123
a(S'100007838281439'
S'Ibrahim Khalil'
tp124
a(S'100003198411506'
S'Dawood Jan'
tp125
a(S'100002337456996'
S'Pashtana Darwish'
tp126
a(S'100008236449715'
S'Fazle Amen'
tp127
a(S'100000028315972'
S'Niaz Wali Ahmadzai'
tp128
a(S'100004141442118'
S'Habib Zadran'
tp129
a(S'100001213522288'
S'Faize Faize'
tp130
a(S'100000769429331'
S'Afghan Ahmad'
tp131
a(S'100001614535587'
S'Zohaib Zada Yousaf Zai'
tp132
a(S'100004063009332'
S'\\u0648\\u0644\\u064a \\u062c\\u0627\\u0646 \\u0641\\u0643\\u0631\\u0645\\u0646'
tp133
a(S'100003480319290'
S'Samad Babakarkhail'
tp134
a(S'100001833670000'
S'Fakhr Afghan Khan'
tp135
a(S'100001264199152'
S'Firoz Zadran'
tp136
a(S'100001842787793'
S'Hela Nazo'
tp137
a(S'100001624120457'
S'Khalid Qureshi'
tp138
a(S'100001033721063'
S'Safi Saleh'
tp139
a(S'100002239244522'
S'Afghan Atal'
tp140
a(S'100001754245519'
S'Mohammad Musa'
tp141
a(S'100000678225985'
S'Bashir Hatef'
tp142
a(S'100003465499725'
S'Irshadullah Wahabzai'
tp143
a(S'100001037255600'
S'Asmail Samsor'
tp144
a(S'100002941510329'
S'Naqeebullah Meakhil'
tp145
a(S'100002202798301'
S'Yasir Afghan'
tp146
a(S'100000030883265'
S'Ezatullah Pamir'
tp147
a(S'100000060538255'
S'Jawed Majbor'
tp148
a(S'100000514214679'
S'Arman Ahmadzai'
tp149
a(S'100000650910508'
S'Taj Malik Alam'
tp150
a(S'100002254430938'
S'Khan Ahmad Dewan'
tp151
a(S'100002103300128'
S'Safi Asludin'
tp152
a(S'100000986913258'
S'Rafiullah Hosinkhel'
tp153
a(S'100002943086773'
S'Hewad Mal'
tp154
a(S'100002169902878'
S'Sahar Afghan'
tp155
a(S'1788865153'
S'MUhammed Shafiq'
tp156
a(S'100003523338857'
S'Najeebullah Shenwari'
tp157
a(S'100004651540736'
S'Abdulwakeel Azizi'
tp158
a(S'100008211001117'
S'Gautam Meghwal'
tp159
a(S'100001079369092'
S'Rahimullah Tanay'
tp160
a(S'100001921827124'
S'Yama Afghan'
tp161
a(S'100000701683345'
S'Ayesha Khan'
tp162
a(S'100007774091128'
S'Jalall Janbaz'
tp163
a(S'100005754365371'
S'Khan Mohammad Noorzai'
tp164
a(S'1811667627'
S'Deewa Mangal'
tp165
a(S'100000038733603'
S'Zia Afghan'
tp166
a(S'100000075026338'
S'Noor Sharafat'
tp167
a(S'100002282466053'
S'Haq Dost'
tp168
a(S'100005968921577'
S'Badsha Khan Mangal'
tp169
a(S'100002642668924'
S'Nur Mangal'
tp170
a(S'100000714918876'
S'Rohullah Elham'
tp171
a(S'100001617364698'
S'Jawid MaYar'
tp172
a(S'100002220520038'
S'Ata U Rehman'
tp173
a(S'1836182108'
S'Shah Nassrat'
tp174
a(S'100002176020532'
S'Bilal Jabarkhail'
tp175
a(S'100000629523686'
S'Angela Stiena'
tp176
a(S'100006799807052'
S'Precious Venus'
tp177
a(S'100000034125295'
S'Naveed Ahmad Noor'
tp178
a(S'100000351244591'
S'Noor Udin Sabawoon Wafa'
tp179
a(S'100001158551236'
S'Yalda Allone'
tp180
a(S'100002000175084'
S'Ghafar Zadran'
tp181
a(S'586973693'
S'Abdul Rahman Ulfat Mahmoodi'
tp182
a(S'100000558587712'
S'Fazal Aziz Bunairee'
tp183
a(S'584522774'
S'Wakil Said'
tp184
a(S'100001915314083'
S'Abdullah Zurmati'
tp185
a(S'100007493376121'
S'Gulabodin Parsa'
tp186
a(S'100000205848477'
S'Naseem Shafaq'
tp187
a(S'100002402475727'
S'Qais Mohammad Hotak'
tp188
a(S'100001668297649'
S'Abas Karim'
tp189
a(S'100002329107458'
S'\\u0633\\u0627\\u06cc\\u0631\\u0647 \\u0627\\u0641\\u063a\\u0627\\u0646\\u0632\\u06cc'
tp190
a(S'100001195635479'
S'Habib Ahmadi'
tp191
a(S'100001820418380'
S'Mohd Arif'
tp192
a(S'100002394821238'
S'Najeeb Khan Pushtun'
tp193
a(S'100005131476241'
S'Tasal Hussaini'
tp194
a(S'100002009296502'
S'Smart Gul'
tp195
a(S'100001888614538'
S'Hamidullah Wardak'
tp196
a(S'100000066313191'
S'Gul M Wafa Niazi'
tp197
a(S'100002215082322'
S'Hameed Haqmal'
tp198
a(S'100000126182781'
S'Amin Himat'
tp199
a(S'100002264101848'
S'Hasanath Haidary'
tp200
a(S'100001958431044'
S'Naqim Sayed Hashimi'
tp201
a(S'100000879607840'
S'Faisal Ansari'
tp202
a(S'100001992420210'
S'Jumagull Ghmay Besmell'
tp203
a(S'100002343086214'
S'Rana Mina Mina'
tp204
a(S'100001992268957'
S'Sayed Samiullah Hakimi'
tp205
a(S'100001832805374'
S'Hamidullah Hakimy'
tp206
a(S'100000119038864'
S'Mirwais Amini'
tp207
a(S'100002173116357'
S'Kihan Wafa'
tp208
a(S'100002037521925'
S'Reshad Ahmad Tasnim'
tp209
a(S'100000312138121'
S'Najeeb Ikrami'
tp210
a(S'100000731380003'
S'Ajmal Zadran'
tp211
a(S'100002622802386'
S'Laghmani Safi'
tp212
a(S'100001986587466'
S'\\u0627\\u0641\\u063a\\u0627\\u0646 \\u0628\\u0686\\u0647'
tp213
a(S'100001305206411'
S'UmarSaeed Bangash'
tp214
a(S'100001990191701'
S'Haseebuddin Siddiqi'
tp215
a(S'1652670336'
S'Pardes Bakhtani'
tp216
a(S'100002236248733'
S'Sunita Thapa'
tp217
a(S'100001982344924'
S'Jafar Khandan'
tp218
a(S'100002115019713'
S'Imran Dilsooz'
tp219
a(S'100002239230521'
S'Habibullah Malekyar'
tp220
a(S'100001285631673'
S'Nazir Hakimzai Mangal'
tp221
a(S'100001412172246'
S'Omid Zawak'
tp222
a(S'100002161052369'
S'Akhtar Dilsoz'
tp223
a(S'100000206124412'
S'Raouf Ajmal'
tp224
a(S'100001949700836'
S'\\u0645\\u0633\\u0627\\u0641\\u0631 \\u0622\\u0641\\u0631\\u06cc\\u062f\\u06cc'
tp225
a(S'100002198106784'
S'Amir Ahmadzay'
tp226
a(S'100006719946375'
S'Ayaan Raisani'
tp227
a(S'100002017542048'
S'\\u0633\\u06a9\\u0646\\u062f\\u0631 \\u0642\\u0627\\u0636\\u06cc \\u0632\\u0627\\u062f\\u0647'
tp228
a(S'100007646470754'
S'Asif Shah'
tp229
a(S'100001125613468'
S'Nusama Ayubken'
tp230
a(S'566488618'
S'Zia Ur Rahman Sabawoon'
tp231
a(S'100006837121432'
S'Sharif Mangal'
tp232
a(S'100000688038606'
S'Ishtiaq Hussain'
tp233
a(S'100003077567599'
S'Sami Popal'
tp234
a(S'100001214255362'
S'Wardak Najib'
tp235
a(S'100007194937251'
S'Khalid Maftoonyaar'
tp236
a(S'1625770619'
S'Eimal Dorani'
tp237
a(S'100001005957765'
S'Abdul Rauf Aref'
tp238
a(S'100001980512717'
S'Totakay Mujala'
tp239
a(S'100000625964133'
S'Mubeen Zazai'
tp240
a(S'100001057663839'
S'Ahmed Rawy Bakar'
tp241
a(S'100002189650733'
S'Farzad Afshar'
tp242
a(S'100002231570536'
S'Mujeb Arfan'
tp243
a(S'100000736282430'
S'Ahmad Ramin Faizad'
tp244
a(S'100001412010731'
S'Azatullah Qiyam'
tp245
a(S'100002188957555'
S'Niamatullah Haqyar'
tp246
a(S'100001271606280'
S'Ahmadshah Khushzad'
tp247
a(S'100002033340086'
S'Hossini Ander'
tp248
a(S'100001638283655'
S'Selab Hamdard'
tp249
a(S'100000135745588'
S'Abdul Khalil Tapand'
tp250
a(S'1371769601'
S'Haleem Esaqzai'
tp251
a(S'100001980001349'
S'Afghanistan Pashtoons'
tp252
a(S'100002041417936'
S'Dawod Nasir'
tp253
a(S'100003754476444'
S'Yousuf Ahmadzai'
tp254
a(S'100002194248139'
S'\\u0646\\u062c\\u06cc\\u0628\\u0647 \\u0645\\u06cc\\u0646\\u0647'
tp255
a(S'100007076444057'
S'Hasib Arshad'
tp256
a(S'100000540340606'
S'Muhammad Asif'
tp257
a(S'100002268850797'
S'Veesa Soary'
tp258
a(S'100001278960985'
S'Donia Ali Mangal'
tp259
a(S'728000453'
S'Baseer Safi'
tp260
a(S'100008110142521'
S'Abdull Ghani Osmani'
tp261
a(S'100001710105971'
S'Hekmatullah Hekmat'
tp262
a(S'1186888138'
S'Abdullah Jamal'
tp263
a(S'100002200237642'
S'Sema Khan'
tp264
a(S'100004246964056'
S'Khushal Khan Ahmadzai'
tp265
a(S'100000901850009'
S'Maiwand Hamid'
tp266
a(S'100002076495065'
S'Ahmad Morid'
tp267
a(S'100000699475859'
S'Abdul Hameed Barekzai'
tp268
a(S'100001895141277'
S'\\u06af\\u0644 \\u0646\\u0631\\u06af\\u06cc\\u0633'
tp269
a(S'100001111178722'
S'Morteza Mohammadi'
tp270
a(S'669623318'
S'Atkal Sayal Tanai'
tp271
a(S'100007053640954'
S'Faizan Ali'
tp272
a(S'100001924233503'
S'Aziz Wardak Sadiq'
tp273
a(S'100000578982989'
S'\\u0645\\u062d\\u0645\\u062f\\u0627\\u0633\\u062f\\u0627\\u0639\\u062c\\u0627\\u0632 \\u0645\\u0627\\u0646\\u06cc\\u0631\\u0648\\u0627\\u0644'
tp274
a(S'100007070521306'
S'Wafamal Aryobzai'
tp275
a(S'100007415283046'
S'Akbar Ahmadzai'
tp276
a(S'100001189886650'
S'Janni Dost Afg'
tp277
a(S'100002142828047'
S'Esmatullah KhpalWak'
tp278
a(S'100001858099217'
S'Eng Abdulbaqi Nasar'
tp279
a(S'100000370770531'
S'Amin Aarween'
tp280
a(S'100002200975165'
S'Akhtar Rehman'
tp281
a(S'100004766289902'
S'Rahim Shah'
tp282
a(S'100002666665831'
S'Khisraw Rabati'
tp283
a(S'100001094260324'
S'Fazal Hadi'
tp284
a(S'100000252327460'
S'Fraidoon Sekander'
tp285
a(S'100002100061816'
S'\\u0646\\u0646\\u0646\\u06cc \\u0627\\u0641\\u063a\\u0627\\u0646\\u0633\\u062a\\u0627\\u0646 \\u0647\\u0641\\u062a\\u0647 \\u0646\\u0627\\u0645\\u0647'
tp286
a(S'100001262598099'
S'Asill Mangal'
tp287
a(S'100002348566887'
S'Zohra Hejran'
tp288
a(S'100008158114596'
S'Razeq Yar'
tp289
a(S'100001208105203'
S'Munib Hakimi'
tp290
a(S'100001281069698'
S'Atal Safi'
tp291
a(S'100000964014847'
S'Farid Ahmad'
tp292
a(S'100002005304622'
S'Mustafa Ibrahimi'
tp293
a(S'100002261903626'
S'\\u0641\\u0631\\u0634\\u062a\\u0647 \\u062c\\u0648\\u06cc\\u0646\\u06cc'
tp294
a(S'100001358490732'
S'Dil Agha Nasiri'
tp295
a(S'100000372357263'
S'Younis Ahmadzai'
tp296
a(S'100001783265782'
S'Maula Khan Aminzai'
tp297
a(S'100000595421643'
S'Khaleel Khan'
tp298
a(S'100002269404137'
S'Khalil Omerzy'
tp299
a(S'100004264171231'
S'Abdullahkhan Musazay'
tp300
a(S'100007815032364'
S'Ayub Mangal'
tp301
a(S'100001843356399'
S'Said Najibullah Sadaat'
tp302
a(S'100002130955940'
S'Rahmatullah Drd'
tp303
a(S'100001649566268'
S'Rahmat Dewan'
tp304
a(S'100000579720063'
S'Zubair Ali'
tp305
a(S'100008264408831'
S'Hamayoon Tani'
tp306
a(S'100000021697184'
S'Muhammad Nabi'
tp307
a(S'100002349455856'
S'Rauf Akhtar'
tp308
a(S'100000325438370'
S'Bacha Khan'
tp309
a(S'100002796268592'
S'Samirullah Popal'
tp310
a(S'100000140627311'
S'Samoon Khan'
tp311
a(S'100002072283505'
S'Naeem Noorzai'
tp312
a(S'100002983640668'
S'Babangida Bazukson'
tp313
a(S'100003276311178'
S'Hamidullah Hamidi'
tp314
a(S'100003227178771'
S'Akbar Khalid'
tp315
a(S'100001840146448'
S'Zmari Hiwad'
tp316
a(S'100002012742487'
S'Log Logari'
tp317
a(S'100001589359700'
S'Waheed Sahar'
tp318
a(S'100002300193566'
S'Amin Sheerzad'
tp319
a(S'100001974465982'
S'Said Esmatullah'
tp320
a(S'100001076950065'
S'Obaid Marhony'
tp321
a(S'100000078753788'
S'Sayed Karim Wardak'
tp322
a(S'100001098239116'
S'\\u063a\\u064a\\u0631\\u062a \\u067e\\u069a\\u062a\\u0648\\u0646'
tp323
a(S'100003025492462'
S'Intellectual Youths'
tp324
a(S'100002022522366'
S'Haroon Khpalwak'
tp325
a(S'100003872159214'
S'Aslam Watnjar'
tp326
a(S'100002363020022'
S'Hassan Tanha'
tp327
a(S'100006897428417'
S'Abdrahman Mihraban'
tp328
a(S'100007671961733'
S'\\u062e\\u06cc\\u0627\\u0644\\u06cc \\u0681\\u062f\\u0631\\u0627\\u06bc'
tp329
a(S'1204970585'
S'Naqeeburrahman Kameen'
tp330
a(S'100002257832774'
S'Karim Jawad'
tp331
a(S'100002373927664'
S'Jaaro Kash Khan'
tp332
a(S'100001642925062'
S'Sawab Chamkani'
tp333
a(S'100001606410387'
S'Tameem Safi'
tp334
a(S'100005044754356'
S'Ahmad Sayed'
tp335
a(S'100001429240716'
S'Nawab Khan'
tp336
a(S'100007636514492'
S'Asadullah Abid'
tp337
a(S'100001339252976'
S'Musarrat Mohmand'
tp338
a(S'100000199229389'
S'Khogman Kamalpory'
tp339
a(S'100001636288159'
S'Abdul Bais Bangash'
tp340
a(S'100001254076853'
S'Pashtoon Kaka'
tp341
a(S'100000127265037'
S'Junaid Akram'
tp342
a(S'100001959433309'
S'Mohammadullah Ahmadzai'
tp343
a(S'100007904074135'
S'Ahmad Mohammadi'
tp344
a(S'1270893713'
S'Abdullah Miakhil'
tp345
a(S'100000917266072'
S'Sayed Afg'
tp346
a(S'100004850232509'
S'Eng Wali'
tp347
a(S'1834026940'
S'Hamed Habibzai'
tp348
a(S'100000539815523'
S'Hameed Ullah'
tp349
a(S'100002215476232'
S'Sayeh Amiri'
tp350
a(S'100000192296531'
S'Hedayatullah Noori'
tp351
a(S'100001669756132'
S'Fakhar Imam Sipah'
tp352
a(S'100005728781524'
S'Akbar Akbari'
tp353
a(S'100002001808183'
S'Ahmad Kochai'
tp354
a(S'100001801825766'
S'Safiullah Seerat Shahab'
tp355
a(S'100001774572937'
S'Noora Khan Ahmadzai'
tp356
a(S'1747988757'
S'Gul Khan Amazai'
tp357
a(S'100004753747883'
S'Shafiq Zadran'
tp358
a(S'100007574261292'
S'Afghan Khan'
tp359
a(S'100001726986765'
S'Atiqullah Ahmadzai'
tp360
a(S'100000605206827'
S'Sayed Mansoor Sadaat'
tp361
a(S'100007960087951'
S'\\u062a\\u0644 \\u062f\\u06d0 \\u064a\\u0627\\u062f\\u0648\\u0645'
tp362
a(S'100000311320515'
S'Maiwand Fida'
tp363
a(S'100001206881045'
S'Afg Prince'
tp364
a(S'100002063405155'
S'Sayed Wahab Sayedi'
tp365
a(S'100000171852299'
S'\\u067e\\u0627\\u0686\\u0627 \\u067e\\u069a\\u062a\\u0648\\u0646'
tp366
a(S'1265610284'
S'Amin Khatir'
tp367
a(S'100002127416478'
S'Nader Khan'
tp368
a(S'100000946781519'
S'Akmal Khan'
tp369
a(S'100000942410095'
S'Sadar Khan'
tp370
a(S'759593956'
S'Rahim Khan Tanai'
tp371
a(S'1099759398'
S'Mohammad Shafiq Mandozai'
tp372
a(S'1426885969'
S'Awrang Zeb Wazir'
tp373
a(S'100000493578298'
S'Munir Ullah Sabawoon'
tp374
a(S'100000393005654'
S'Javid Khan Momand'
tp375
a(S'100000786582699'
S'Rauf Ibrahimkhil'
tp376
a(S'100000704449987'
S'Muhammad Zarshid Bangash'
tp377
a(S'100003116079362'
S'Naveed Ahmad Sardar'
tp378
a(S'1573189815'
S'Wahed Faqiri'
tp379
a(S'100001548717646'
S'Sangar Sahil'
tp380
a(S'100000974363635'
S'Shorr Zarmalwal'
tp381
a(S'100001210406528'
S'Zaman Khan Chagharzai'
tp382
a(S'100000254792970'
S'Sabeel Rokhan'
tp383
a(S'100001415966550'
S'Jahanzeb Masoom'
tp384
a(S'100000667222545'
S'Najib Paiman'
tp385
a(S'100001001233595'
S'Nisar Ahmad'
tp386
a(S'100002149899038'
S'A Satar Rashidi'
tp387
a(S'100005222702285'
S'\\u0639\\u0628\\u062f\\u0627\\u0644\\u0648\\u0644\\u06cc \\u0645\\u0646\\u06af\\u0644'
tp388
a(S'1192576904'
S'Bilal Khan'
tp389
a(S'100007777537839'
S'Abdul Ghani Sakhi Zada'
tp390
a(S'100002182272368'
S'Noory Hail'
tp391
a(S'1356121310'
S'Waheed Atal'
tp392
a(S'100001441501793'
S'Matiullah Safi'
tp393
a(S'100001476068124'
S'Younas Zadran'
tp394
a(S'100000210254746'
S'\\u0635\\u0628\\u063a\\u062a \\u0627\\u0644\\u0644\\u0647 \\u0633\\u0644\\u06cc\\u0645\\u0627\\u0646 \\u062e\\u06cc\\u0644'
tp395
a(S'100002094964079'
S'Yasmeen Poshtana'
tp396
a(S'100007662338103'
S'Fareed Haqpal'
tp397
a(S'100002092649231'
S'Pyara Bacha'
tp398
a(S'100007067912379'
S'Suliman Mangal'
tp399
a(S'100001850274915'
S'Obaid Amin Chai'
tp400
a(S'100004370172829'
S'Mustafa Tabee'
tp401
a(S'100006410770519'
S'Saleh Mohamad Lodin'
tp402
a(S'100001228610802'
S'M Kalim Naeemi Emkn'
tp403
a(S'100002308386833'
S'Walid Kawash'
tp404
a(S'100001051261217'
S'Azizullah Khilji'
tp405
a(S'100000647711694'
S'Daud Jan'
tp406
a(S'100001237309259'
S'Musbahudin Aryouby'
tp407
a(S'100000930234900'
S'Wahab Bacha'
tp408
a(S'100005582820239'
S'Shakil Shaikh'
tp409
a(S'100001347391545'
S'Gulab Gulab Salafi'
tp410
a(S'100001993400601'
S'Arafat Shah'
tp411
a(S'591151926'
S'Redi Gull Safi'
tp412
a(S'1545940344'
S'Zubair Marwat'
tp413
a(S'100003846669568'
S'Sameer Safi'
tp414
a(S'1649960536'
S'HEkmat ULlah ROshan'
tp415
a(S'1756421780'
S'Habibullah Habibi'
tp416
a(S'100002068805533'
S'Ghulam Hazrat Haidary'
tp417
a(S'100002314591931'
S'\\u0644\\u0646\\u0689\\u063a\\u0631 \\u0644\\u0648\\u0641\\u0631'
tp418
a(S'100002186396679'
S'\\u0645\\u062d\\u0645\\u062f \\u0632\\u0628\\u064a\\u0631 \\u062a\\u0631\\u06a9\\u0649'
tp419
a(S'100001670553490'
S'Sabawoon Malgarai'
tp420
a(S'100005761233580'
S'Zahid Mangal'
tp421
a(S'100003154738241'
S'Sameer Karim'
tp422
a(S'100002075015107'
S'Wadood Qazi'
tp423
a(S'100001533143521'
S'Tawab Turabi'
tp424
a(S'100004703944927'
S'Dost Adil'
tp425
a(S'100001587151996'
S'Samiullah Aminy'
tp426
a(S'100002138237178'
S'Jamal Naser Osoli'
tp427
a(S'100000631178049'
S'Kamran Amiri'
tp428
a(S'100002128113975'
S'Sharaf Pathan Sediqi'
tp429
a(S'100000182979878'
S'Ayub Sayed'
tp430
a(S'100007697372822'
S'Qandagha Aryoubi'
tp431
a(S'100001959517738'
S'Sahar Safi'
tp432
a(S'100000867564531'
S'Alhaj M Jan Rasolyaar'
tp433
a(S'100002023994841'
S'Shafiq Mored'
tp434
a(S'100001776244383'
S'Rafiullah Hassani'
tp435
a(S'100007449191983'
S'Mutiara Chaniago'
tp436
a(S'100000432478281'
S'Nawaz Malak'
tp437
a(S'100006300554474'
S'Suhil Noory'
tp438
a(S'100008313911108'
S'Razia Barekzai'
tp439
a(S'100001866057521'
S'M Tariq Bazger'
tp440
a(S'100002019384780'
S'Mohammad Sadiq Shinwari'
tp441
a(S'100001918708585'
S'Latif Khan Zhawandai'
tp442
a(S'100004538044247'
S'Syed Mohammad'
tp443
a(S'100005238583116'
S'Nazl Ali Millyoung Lagaras'
tp444
a(S'100002160308370'
S'Ahmadullah Naseer'
tp445
a(S'100007368001952'
S'Faizullah Tanha Niazi'
tp446
a(S'100002380953701'
S'Ayesha Sahar'
tp447
a(S'100000296174401'
S'Noorullah Sabawoon'
tp448
a(S'100001685323605'
S'Shirina Afghan'
tp449
a(S'100000330753505'
S'Akhunzada Nang Kamavi'
tp450
a(S'100006273278931'
S'Agha Jaan'
tp451
a(S'100007994433858'
S'Sahar Yar'
tp452
a(S'100000658061099'
S'Qazi Marzia Babakarkhail'
tp453
a(S'100000395019880'
S'Abdul Fahim Qayoumi'
tp454
a(S'100004089129895'
S'Susan Sanam'
tp455
a(S'100000913989619'
S'\\u067e\\u069a\\u062a\\u0648\\u0646 \\u0681\\u0648\\u0627\\u0646'
tp456
a(S'100006002651383'
S'Aslam Malang'
tp457
a(S'1280246566'
S'Habib Hashmi'
tp458
a(S'100001269858210'
S'Afghan YouthAgenda'
tp459
a(S'100006156127734'
S'Lalbat Khan'
tp460
a(S'100001404302611'
S'Zubair Barai'
tp461
a(S'100002221072535'
S'Najeba Samih'
tp462
a(S'100002555713571'
S'Daud Rohani'
tp463
a(S'100001434985283'
S'Seyar Ahmad Ranjbar'
tp464
a(S'100000623021562'
S'\\u0178\\u00e4s\\u00e4r \\u00c4l\\u00ef\\u017c\\u00e4d'
tp465
a(S'100002136876994'
S'Sadia Watan'
tp466
a(S'1552785490'
S'Ahmed Zazai'
tp467
a(S'100007974461061'
S'Abdurahaman Mangal'
tp468
a(S'100006772570414'
S'Mohammad Qasim Omarzai Amarkhil'
tp469
a(S'100003555743652'
S'Samiullah Khyber'
tp470
a(S'100001905537606'
S'Khalid Qasimi'
tp471
a(S'100000512138598'
S'Elam Yousafzai'
tp472
a(S'100006391897914'
S'Mohibullah Nabizadah'
tp473
a(S'100001719080249'
S'Basher Sangar'
tp474
a(S'100000313388267'
S'Prince Khan'
tp475
a(S'100001186685374'
S'Hakim Alizai'
tp476
a(S'100001247123325'
S'Basir Abas Noori'
tp477
a(S'100001134827943'
S'Ziakhan Amarkhail'
tp478
a(S'100001944352597'
S'Mobin Noor'
tp479
a(S'100001878692379'
S'Mohammad Shafiq Besmil'
tp480
a(S'100004345086218'
S'Ehsas Rahim'
tp481
a(S'100002261826436'
S'Gulsaid Khan Khosty'
tp482
a(S'100001773669357'
S'Inam Alham'
tp483
a(S'100000572633585'
S'Aqal Jan Totakhil'
tp484
a(S'100000508093328'
S'Mohammad Feroz Mangal'
tp485
a(S'100007594303063'
S'Wahab Kiazai Wahab'
tp486
a(S'100000738372184'
S'Masood Zareef'
tp487
a(S'100000363762939'
S'Mohammad Rahman'
tp488
a(S'785556666'
S'Dawa Khan Menapal'
tp489
a(S'100003351364321'
S'Sadiqullah Abid'
tp490
a(S'100001316151465'
S'Tahmed Ahmed'
tp491
a(S'100007031250309'
S'\\u0633\\u06cc\\u062f\\u0634\\u0627\\u0647 \\u062d\\u06a9\\u06cc\\u0645\\u06cc'
tp492
a(S'100000773575526'
S'Mohammad Yousuf'
tp493
a(S'100001450860738'
S'Rahmatshah Stanikzai'
tp494
a(S'100002081769152'
S'Khalid Afghan'
tp495
a(S'100001343155494'
S'Nangialai Wahid'
tp496
a(S'100008045348515'
S'\\u062d\\u0633\\u06cc\\u0628 \\u0627\\u0644\\u0644\\u0647 \\u062e\\u067e\\u0644\\u0648\\u0627\\u06a9'
tp497
a(S'100002645108644'
S'Pekhawri Pakhton'
tp498
a(S'100002261384863'
S'Iqbal Khan'
tp499
a(S'100001747287672'
S'Enayatullah Habibi'
tp500
a(S'100000692981410'
S'Abdul Kamawi'
tp501
a(S'100004673220309'
S'Ismail Totakhil'
tp502
a(S'717523705'
S'Khadim Hussain'
tp503
a(S'1434068604'
S'Saber Shah'
tp504
a(S'100001327952459'
S'Wahid Azizi'
tp505
a(S'100001092086693'
S'Jalwa Wofa'
tp506
a(S'100001258181107'
S'Basir Ahmad'
tp507
a(S'100000049682649'
S'\\u0631\\u0627\\u0632 \\u0645\\u062d\\u0645\\u062f \\u0631\\u0627\\u0632'
tp508
a(S'100002097461409'
S'Masood Ahmad'
tp509
a(S'100000167341416'
S'Ziauddin Refah'
tp510
a(S'100001438970616'
S'Lutfullah Faqerzai'
tp511
a(S'100001595470745'
S'Asadullah Zazai'
tp512
a(S'100001135035873'
S'Shahzada Nur'
tp513
a(S'100007370945013'
S'Said Agha'
tp514
a(S'100008168591545'
S'Wahidullah Nasra'
tp515
a(S'100002113441730'
S'Spogmai Mangal'
tp516
a(S'100001370945838'
S'Abdul Rahman Sahar'
tp517
a(S'100007748282411'
S'Wesal Wahdat'
tp518
a(S'100002062755535'
S'Dukhtari Qand'
tp519
a(S'100002081164502'
S'\\u0641\\u0631\\u06cc\\u062f \\u0627\\u062d\\u0645\\u062f\\u06cc'
tp520
a(S'100003273590024'
S'Asia Shahzada'
tp521
a(S'100008023143168'
S'Sayed Nasratullah Nasrat'
tp522
a(S'1230135844'
S'Naqibullah Zazai'
tp523
a(S'100000830215949'
S'Abdul Saboor Ansary'
tp524
a(S'100001416196454'
S'M Ibrahim Wardag'
tp525
a(S'100007045830471'
S'Naser Sakhizada'
tp526
a(S'100002045221719'
S'Hassan Zarabi'
tp527
a(S'100002240914480'
S'Sohrab Khan'
tp528
a(S'100002195028355'
S'Shumaila Tariq'
tp529
a(S'100000914866844'
S'Abdullah Niazi The-Master'
tp530
a(S'100002117103287'
S'Hamid Temori'
tp531
a(S'100001661182133'
S'Stana Gul Ahmadzai'
tp532
a(S'100002155866760'
S'Khjusta Wafa Wafa'
tp533
a(S'100003255456222'
S'Mustafa Shirzai'
tp534
a(S'100002121027602'
S'Mohammad Ali'
tp535
a(S'546059896'
S'Afrasiab Khan'
tp536
a(S'100001899083858'
S'Farzana Naz'
tp537
a(S'100000312088126'
S'Abed Khorami'
tp538
a(S'100006113585545'
S'Naimat Haqprist'
tp539
a(S'100002127504646'
S'Mohammad Ullah Jan Besmil'
tp540
a(S'100002111363439'
S'Alingarai Laghmanai'
tp541
a(S'100001986736869'
S'Masood Zazai'
tp542
a(S'100002138909208'
S'Ahmad Hussein Enayat'
tp543
a(S'100000732124087'
S'Ferooz Yosufzai'
tp544
a(S'100002003938027'
S'Jan Aga Nizami'
tp545
a(S'100002018323668'
S'Ahmad Murad'
tp546
a(S'1715674339'
S'Inam Ullah'
tp547
a(S'100004332883433'
S'\\u0639\\u0637\\u0627\\u0621\\u0627\\u0644\\u062d\\u0642 \\u0639\\u0645\\u0631\\u0632\\u064a'
tp548
a(S'100000608097726'
S'Hamayoun Ghafourzay'
tp549
a(S'100001517020858'
S'Masood Siddiqi'
tp550
a(S'100000586633098'
S'Asma Ahmad'
tp551
a(S'100007129329541'
S'Maryam Hmra'
tp552
a(S'100001051019068'
S'Najim Wafa'
tp553
a(S'100001490026504'
S'Inamuddin Paigham'
tp554
a(S'100000556798820'
S'Salma Noor'
tp555
a(S'100000521383111'
S'Atiq Rahman Rahmani Khishkai'
tp556
a(S'100002025557063'
S'Nazir Saydi'
tp557
a(S'100007298283417'
S'Tariq Ahmad'
tp558
a(S'100000468569315'
S'Dawa Wardak'
tp559
a(S'100004240536016'
S'Aqrar Mangal'
tp560
a(S'100001565048274'
S'Riaz Majeedy'
tp561
a(S'100006685329432'
S'Prince Shah'
tp562
a(S'100005627913979'
S'Jalalkhan Afghan'
tp563
a(S'100000296892746'
S'Farhad Jaelany'
tp564
a(S'100002267155235'
S'Ahsanullah Aliaszoi'
tp565
a(S'100004547312150'
S'Aminullah Kunari'
tp566
a(S'100000068332428'
S'Ahmad Iftikhar'
tp567
a(S'100002084350642'
S'Ahmad Waheed Ahmad'
tp568
a(S'100007478322178'
S'Mohammad Amin Khan'
tp569
a(S'100001479637106'
S'Parwiz Sapy'
tp570
a(S'100003215466119'
S'Arifullah Haqparast'
tp571
a(S'1167883223'
S'Nelson Navarro'
tp572
a(S'100001980520901'
S'Khurram Udass'
tp573
a(S'100005148936561'
S'Sabawoon Noori'
tp574
a(S'781522587'
S'\\u0645\\u062d\\u0645\\u062f \\u0641\\u064a\\u0636\\u064a'
tp575
a(S'100001645407496'
S'Khan Mohammad Gharwal'
tp576
a(S'698623696'
S'Ahmad Hussein Enayat'
tp577
a(S'100005471507764'
S'Hameedullah Nazari'
tp578
a(S'100001696328576'
S'Wahidullah Shrifi'
tp579
a(S'100001936691779'
S'Latif Jaan'
tp580
a(S'100001596784146'
S'Ashiqullah Ikhlasyar'
tp581
a(S'100001764332331'
S'Masood Khalili'
tp582
a(S'100001111855379'
S'Jailani Zabuli'
tp583
a(S'100001060801717'
S'Qadershah Noor'
tp584
a(S'1759232822'
S'Abdul Hamid Adeel'
tp585
a(S'100000808604750'
S'Enayatullah Noori'
tp586
a(S'100002192383095'
S'\\u041c\\u043e\\u0445\\u0430\\u043c\\u0430\\u0434 \\u0411\\u0430\\u0441\\u0438\\u0440'
tp587
a(S'100001504594193'
S'Zafar Khan'
tp588
a(S'100002271596399'
S'Fathom Al Blushi'
tp589
a(S'100006293622231'
S'Shabir Ahmad'
tp590
a(S'100002316752632'
S'Rohaan Khan'
tp591
a(S'100007611672482'
S'Zabihullah Habibi'
tp592
a(S'100007537177489'
S'Sher Muhammad'
tp593
a(S'100000368269049'
S'Hashmatullah Jalil'
tp594
a(S'100001836914086'
S'Jan Samim'
tp595
a(S'100002217553653'
S'Wadan Afghanistan'
tp596
a(S'100000845219120'
S'M Shah Siddiqi'
tp597
a(S'100001062257811'
S'Behzad Said'
tp598
a(S'100002699390633'
S'Tatobay Newspaper'
tp599
a(S'100001827813443'
S'Abdul Khaliq Achakzai'
tp600
a(S'100001675824610'
S'Paktia Zazai'
tp601
a(S'100001397714483'
S'Zarwali Khoshnood'
tp602
a(S'100002208502083'
S'Pukhton Khan'
tp603
a(S'100000581671424'
S'Dukhter E Watan'
tp604
a(S'100001278266892'
S'Imran Zaheer'
tp605
a(S'100000834919809'
S'Abdul Hadi Hamdard'
tp606
a(S'100001184792386'
S'\\u0627\\u062c\\u0645\\u0644 \\u06a9\\u0693\\u06cc\\u062f\\u0644\\u06cc'
tp607
a(S'100005838938923'
S'Abdulnasir Elham'
tp608
a(S'100001790798460'
S'Adalat Aminzai'
tp609
a(S'1083364001'
S'Andekhman Zazai'
tp610
a(S'100001440323384'
S'Hamdullah Arbab'
tp611
a(S'100004015348765'
S'Real Khan'
tp612
a(S'100008307633796'
S'Amir Rahman Amir'
tp613
a(S'100001106368569'
S'Adil Mangal'
tp614
a(S'100002071871912'
S'Kamal Ahmadzai'
tp615
a(S'100000397853483'
S'Javidullah Zwakman'
tp616
a(S'100001443433620'
S'Zawar Khan'
tp617
a(S'100008322420635'
S'Zabiullah Sarfaraz'
tp618
a(S'100000163310571'
S'\\u0645\\u064a\\u0631\\u0648\\u064a\\u0633 \\u0635\\u0627\\u064a\\u0645'
tp619
a(S'100000037989283'
S'Gul Mohamad Aryobi'
tp620
a(S'100000872602175'
S'Nawroz Mangal'
tp621
a(S'100002116284311'
S'Qader Jan'
tp622
a(S'100001447408932'
S'Abdulfatha Ulfat'
tp623
a(S'100000610732062'
S'Abdul Rahman Shagiwal'
tp624
a(S'1213095193'
S'Abdul Rahman Nasar'
tp625
a(S'571962146'
S'Naveed Nazari'
tp626
a(S'100004491661626'
S'Arash Arash'
tp627
a(S'100001573726374'
S'Hayatullah Ulfat'
tp628
a(S'100003105592191'
S'Modir Sherzad'
tp629
a(S'100008114533985'
S'Jayant Kumar Pathak'
tp630
a(S'100001677284171'
S'Naeem Wardak'
tp631
a(S'100000951194819'
S'Khalid Ahmadzai'
tp632
a(S'100008222914173'
S'Rahmatullah Rahmat'
tp633
a(S'100001539388235'
S'Gulabzoi Ahmadzai'
tp634
a(S'100002121816830'
S'Hamid Yaqoobi'
tp635
a(S'100007848788881'
S'Fazila Afghan'
tp636
a(S'100002081930013'
S'Abdulwadood Sahib Zada'
tp637
a(S'1183162415'
S'Ahmad Gul Totakhyl'
tp638
a(S'1610127257'
S'Amin Yaqoobei'
tp639
a(S'100002639055750'
S'Yousef Rahman'
tp640
a(S'100001865909033'
S'Asaldin Sahebzai'
tp641
a(S'100002179834417'
S'Rahmat Khan'
tp642
a(S'100002124330412'
S'Akram Sajid'
tp643
a(S'100003350074297'
S'Ihsan Ali'
tp644
a(S'100000590192585'
S'Muneer Ahmad'
tp645
a(S'100005732555718'
S'Asyah Yekta Kunduzi'
tp646
a(S'100001817561480'
S'Samir Sahel'
tp647
a(S'1064971328'
S'Abdullah Mangal'
tp648
a(S'100001869797682'
S'Amin Sadiq'
tp649
a(S'100000256194722'
S'Benawa Baran'
tp650
a(S'100001619933515'
S'Abdul Hakim Hameed'
tp651
a(S'100004105789236'
S'Sajad Ahmad Rasikh'
tp652
a(S'100001983429760'
S'Sheraz Shayan Khan Bunery'
tp653
a(S'100003128357533'
S'Baseer Mangal'
tp654
a(S'100000624770371'
S'Ikramullah Khan'
tp655
a(S'100000791349206'
S'\\u062e\\u06cc\\u0628\\u0631 \\u0627\\u0641\\u063a\\u0627\\u0646'
tp656
a(S'100001727165495'
S'Anarkali Honaryar'
tp657
a(S'100000422722700'
S'Bashir Ahmad Faizi'
tp658
a(S'100000663309368'
S'Rafiullah Alkozai'
tp659
a(S'100002086151773'
S'Salma Barakzai'
tp660
a(S'100001215028314'
S'Jabbar Abid'
tp661
a(S'100000738915544'
S'Saboor Raoufi'
tp662
a(S'100001036241247'
S'Nangialai Samandar'
tp663
a(S'100006391711079'
S'Raheem Kha'
tp664
a(S'100000108268926'
S'Afghan Score'
tp665
a(S'100001407108574'
S'Mena Khan'
tp666
a(S'100002255357107'
S"Ngelu Ngeke'i Jeneng"
tp667
a(S'100000449834199'
S'Muhammad Saddiq'
tp668
a(S'100001742334889'
S'Katib Aryubi Afghan'
tp669
a(S'100004657263203'
S'Sadamhussain Zaheer'
tp670
a(S'100003818718158'
S'Zoh Ra'
tp671
a(S'100001905157354'
S'Dr Asar Buneri'
tp672
a(S'100004999122622'
S'Imran Ahmadzai'
tp673
a(S'100000219116796'
S'Noor M Noori'
tp674
a(S'100007729380392'
S'Ahmad Zubair'
tp675
a(S'100000720557900'
S'Bashir Ahmad Inayat'
tp676
a(S'100005150106658'
S'Shinwari Khan'
tp677
a(S'100001255676486'
S'Qais Raofi'
tp678
a(S'100001711708504'
S'Shafi Khan'
tp679
a(S'100001784114770'
S'Marina Rasole'
tp680
a(S'100000659202884'
S'Zarmina Aliyah'
tp681
a(S'100001683742740'
S'Khalid Safi'
tp682
a(S'100000741129067'
S'Farid Shinwaray'
tp683
a(S'100000129865468'
S'Rohullah Wafa'
tp684
a(S'100002247588142'
S'Rashid Akbari'
tp685
a(S'100000242758666'
S'Saidrahman Niazai'
tp686
a(S'100001345125838'
S'Maten Khan'
tp687
a(S'100002183841986'
S'Makay Kaliwala'
tp688
a(S'100001558250710'
S'Iftekhar Ahmad Samsoor'
tp689
a(S'528958006'
S'Gharghakht Ghori'
tp690
a(S'100000473134396'
S'Lalajan Niazai'
tp691
a(S'100002190277975'
S'\\u0645\\u062d\\u0645\\u062f \\u0645\\u0644\\u0646\\u06af \\u0639\\u0638\\u06cc\\u0645\\u06cc'
tp692
a(S'100001736461556'
S'Ibrahem Safi'
tp693
a(S'100000595856933'
S'Ezatullah Rahmanzai'
tp694
a(S'100001968856605'
S'Zawan Mahselan'
tp695
a(S'100002272220019'
S'\\u0634\\u0639\\u06cc\\u0628 \\u062a\\u0646\\u0647\\u0627'
tp696
a(S'100002025539806'
S'Shir Mohammad Siddiqy'
tp697
a(S'100005347722589'
S'Wilrocho Santos'
tp698
a(S'100000325454589'
S'Fazel Rasuli'
tp699
a(S'100002155277069'
S'Princess Maryam Hamdard'
tp700
a(S'100000559724650'
S'Mansoor Ahmad Rahmanzai'
tp701
a(S'100001622554787'
S'Gulajan Jabbarkhail'
tp702
a(S'100000894274001'
S'Naqibullah Danish'
tp703
a(S'100008063283647'
S'Sardarwale Zazai'
tp704
a(S'100000066866943'
S'Ghazi Afghan Babakar Khel'
tp705
a(S'1267578231'
S'Ahmadullah Totakhail'
tp706
a(S'100000776653422'
S'\\u067e\\u069a\\u062a\\u0648 \\u0698\\u0628\\u0647'
tp707
a(S'100008155598226'
S'Ashraf Mangal'
tp708
a(S'100002300230634'
S'Gulsadiq Sadiq'
tp709
a(S'100003659983861'
S'Naveed Hafizi'
tp710
a(S'100008190753359'
S'\\u0627\\u0641\\u063a\\u0627\\u0646 \\u0641\\u0648\\u0631'
tp711
a(S'100000431327992'
S'Aryobzai Saba Janan'
tp712
a(S'100007524763014'
S'SD L Ctg'
tp713
a(S'100001501812244'
S'Zohair Zohair'
tp714
a(S'100002279213915'
S'Ayuob Khan'
tp715
a(S'100000091382785'
S'Fahmeed Khan'
tp716
a(S'100001328470057'
S'Miakhel Ali'
tp717
a(S'100001512193271'
S'Mahmood Kochai'
tp718
a(S'100000448695108'
S'Najeeb Khan Hotak'
tp719
a(S'100001690824273'
S'Besmillah Saadat'
tp720
a(S'100007340020191'
S'\\u0633\\u06cc\\u062f \\u0645\\u062d\\u0645\\u062f \\u0627\\u062d\\u0633\\u0627\\u0646\\u06cc'
tp721
a(S'100000669031687'
S'Mosawer Mesbah'
tp722
a(S'100001351801683'
S'Faisal Mangal'
tp723
a(S'674587420'
S'David Mccastle'
tp724
a(S'100000708053552'
S'Haxrat Allie Turi'
tp725
a(S'720293422'
S'Farhad Ghafoor'
tp726
a(S'100000195661906'
S'Mohammad Bashir Durrani'
tp727
a(S'100002089956992'
S'Sahar Ahmadi'
tp728
a(S'100002205290415'
S'Ehsan Ahmadi'
tp729
a(S'100001937185159'
S'Eidullah Afghan Zazai'
tp730
a(S'100003670778240'
S'Muslimkhan Andar'
tp731
a(S'100001531181733'
S'Walli Mohammad Momand'
tp732
a(S'100005581538385'
S'Nisar Safi'
tp733
a(S'100006021545226'
S'Irfan Mughal'
tp734
a(S'100000976052498'
S'Sayedwali Zazai'
tp735
a(S'1297700180'
S'Nissar Khan'
tp736
a(S'100002168459121'
S'Ahmad Hussein Muhsin'
tp737
a(S'100007549628394'
S'Pacha Khan'
tp738
a(S'100002139079261'
S'Shamsulhuda Shams'
tp739
a(S'100003530857036'
S'Khalid Naikzai'
tp740
a(S'100006464054426'
S'Abdull Rauf Salih'
tp741
a(S'100002214347059'
S'Roza Din'
tp742
a(S'100000590404757'
S'Mohammad Sadiq'
tp743
a(S'100000348569152'
S'Rumaika Saleem'
tp744
a(S'1132293337'
S'Khan Saeed Arab'
tp745
a(S'100000781608650'
S'Mohabzadeh Masoud'
tp746
a(S'100000570575810'
S'Seraj Nasseri'
tp747
a(S'100001285176280'
S'Tahir Abshar'
tp748
a(S'100000618665351'
S'Fazal Rahman Maiwand'
tp749
a(S'100001632981885'
S'Anwar Ali'
tp750
a(S'100004044858048'
S'Saied Sulaiman Himat'
tp751
a(S'100005713717849'
S'LaLy Jaan'
tp752
a(S'1326858284'
S'Touryalai Zazai'
tp753
a(S'100002906574049'
S'Shir Mohammad Afghanzai'
tp754
a(S'100000655504412'
S'Masoom Habibi'
tp755
a(S'100006406774564'
S'\\u062f\\u0644\\u0648\\u06cc \\u067e\\u06a9\\u062a\\u06cc\\u0627 \\u0645\\u0646\\u06af\\u0644'
tp756
a(S'100002341422907'
S'Hezbullha Hamedi Hamedi'
tp757
a(S'100002205728435'
S'Khwahish Meher'
tp758
a(S'100002310000920'
S'Jan Afghan'
tp759
a(S'100002327315986'
S'Mohammad Ajmal'
tp760
a(S'100002992667890'
S'Bostan  Waziri'
tp761
a(S'100002145298432'
S'Majid Aryobi'
tp762
a(S'100001813021238'
S'Iqbal Sani'
tp763
a(S'100003362963051'
S'Tabasum Nikzad'
tp764
a(S'100001419678302'
S'Wardak Province'
tp765
a(S'100002248248492'
S'Akbar Jan'
tp766
a(S'100001783318229'
S'Shakela Shahen'
tp767
a(S'100002059373267'
S'Salar Osoli'
tp768
a(S'100000582649412'
S'Ghayasuddin Ghorzang'
tp769
a(S'100000057751001'
S'Mohibullah Aryubi'
tp770
a(S'100000167008667'
S'Rahimullah Muztar'
tp771
a(S'100000942496294'
S'Hakeem Jan Muffaker'
tp772
a(S'100005826634777'
S'Abdul Wali Majrooh'
tp773
a(S'100001217870727'
S'Roheed Afghan Ahmadzai'
tp774
a(S'100003666628236'
S'Rafeeq Sahil'
tp775
a(S'1636030162'
S'Salahudin Ludin'
tp776
a(S'100002056105296'
S'Ibrahim Sekandari'
tp777
a(S'100007565138618'
S'Shahid Zazai'
tp778
a(S'100007596846654'
S'Ban Jar Gai'
tp779
a(S'100001978593077'
S'Khan Mohammad Afridi'
tp780
a(S'100000846706618'
S'Hameed Sahak'
tp781
a(S'100002027187739'
S'Khyber Dagar'
tp782
a(S'100001645994642'
S'Sajjad Ali'
tp783
a(S'100001990548215'
S'Bank Khanda'
tp784
a(S'100002197963141'
S'Prince Arsalan'
tp785
a(S'100003545625164'
S'Bashir Mahmoodi'
tp786
a(S'1830703995'
S'Nemat Mujtaba'
tp787
a(S'100000148287703'
S'Faisal Nawabi'
tp788
a(S'100000266151636'
S'Mohmmad Tareq Nabizadeh'
tp789
a(S'100006936127119'
S'\\u042f\\u043e\\u0452'
tp790
a(S'1129104352'
S'Almass Khan'
tp791
a(S'100002190324127'
S'Homa Ahadi'
tp792
a(S'100001202520988'
S'Inam Dareez'
tp793
a(S'683769594'
S'S. Mudassirali Shah'
tp794
a(S'100002179459009'
S'Ishfaq Hunar'
tp795
a(S'100002604215893'
S'Saleemanzai Shafiq'
tp796
a(S'700785881'
S'Zia Jamal'
tp797
a(S'100004993623648'
S'\\u0627\\u0641\\u063a\\u0627\\u0646 \\u062e\\u0628\\u0631\\u06cc\\u0627\\u0644 \\u062e\\u0628\\u0631\\u0646\\u06af\\u0627\\u0631 \\u0627\\u0641\\u063a\\u0627\\u0646'
tp798
a(S'100000026065094'
S'Marwand Waziri'
tp799
a(S'100001534475038'
S'Sediqullah Safi'
tp800
a(S'1446338393'
S'Najuibullah Khan'
tp801
a(S'1281226341'
S'Shaheen Afghan'
tp802
a(S'100004092485522'
S'Reyaz Ahmad Safi'
tp803
a(S'100002136992779'
S'Hasina Naz'
tp804
a(S'1041425336'
S'Ahmad Nadeem'
tp805
a(S'100006295860803'
S'Akbar Jan'
tp806
a(S'100001223589567'
S'Alexander Prince'
tp807
a(S'100001822129485'
S'Tamim Azimi'
tp808
a(S'100001703670552'
S'Dawoodkhan Bandarkhail Kharoti'
tp809
a(S'1731574187'
S'Mar Lemar'
tp810
a(S'100001613365822'
S'\\u0645\\u0637\\u06cc\\u0639 \\u0648\\u0637\\u0646\\u0645\\u0644'
tp811
a(S'100001319755033'
S'Habib Khan Ghaznavi'
tp812
a(S'100001193547380'
S'Malik Sirat'
tp813
a(S'100002311051965'
S'Sahra Popal'
tp814
a(S'100001988001353'
S'Hedayatullah Hairan'
tp815
a(S'100001933913091'
S'Tanha Herati'
tp816
a(S'100001351044910'
S'Matiullah Afghandost'
tp817
a(S'100001620080710'
S'Lutfuallah Khan Danish'
tp818
a(S'100007105261004'
S'Ayaz Ahsas Afghan'
tp819
a(S'100008050208103'
S'\\uc815\\uc11d\\uc8fc'
tp820
a(S'100000493509626'
S'Qudratullah Stanikzai'
tp821
a(S'1444122850'
S'Wajid Ishaqzai'
tp822
a(S'1691349008'
S'Sahar Mohammad'
tp823
a(S'100001684617064'
S'Aminullah Habiby'
tp824
a(S'100000695552660'
S'Elham Zadran'
tp825
a(S'100001083546162'
S'Alamzeb Sherzad'
tp826
a(S'100000790157496'
S'Assadullah Zraswand'
tp827
a(S'100002139707504'
S'Waheed Ebady'
tp828
a(S'585008772'
S'Fareed Ahmad Sameem'
tp829
a(S'100001479120199'
S'Ab Sahibzadha'
tp830
a(S'100001724281076'
S'\\u0627\\u062d\\u0645\\u062f \\u0633\\u0647\\u0631\\u0627\\u0628 \\u0627\\u0633\\u062d\\u0642 \\u0632\\u064a'
tp831
a(S'100000465311973'
S'Lema Halim'
tp832
a(S'100002039535406'
S'Kherkhewa Swat'
tp833
a(S'100000325295096'
S'Tayeb Omer'
tp834
a(S'100002090686764'
S'\\u067e\\u069a\\u062a\\u0648 \\u063a\\u0693\\u064a'
tp835
a(S'100000772579347'
S'Mohsin Farhat'
tp836
a(S'100003150072621'
S'Amanullah Khalil'
tp837
a(S'1125800248'
S'Lawangeen Afghanzai'
tp838
a(S'100000176668656'
S'Mansoor Amani Amani'
tp839
a(S'100001906072265'
S'Sarfaraz Hussain'
tp840
a(S'100000225876375'
S'Bakhtiar Khan \\u0160afi'
tp841
a(S'100000726330202'
S'Muhammad Khalil Ahmadzay'
tp842
a(S'100000456555470'
S'Jannat Khan'
tp843
a(S'100002143530250'
S'Janan Safi'
tp844
a(S'100002094986009'
S'Bilal Khan'
tp845
a(S'100000145488758'
S'Zameer Saar'
tp846
a(S'100005065601693'
S'Fazalhaq Sadaf'
tp847
a(S'100000228545922'
S'Ilham Nasari'
tp848
a(S'100000767543042'
S'Hayatullah Ahmadzai'
tp849
a(S'100000894150014'
S'Mirwais Achekzai'
tp850
a(S'100001104126062'
S'Fazalrabi Mohmand'
tp851
a(S'1459430791'
S'Eng. Shams'
tp852
a(S'1292731818'
S'Nazir Ahmad Nazary'
tp853
a(S'100007685474035'
S'Khalil Latifi'
tp854
a(S'100002133944793'
S'Khan Shahzad'
tp855
a(S'100000265808483'
S'Zeerak Fahim'
tp856
a(S'100000338040799'
S'Zahid Rehman Yousufzai'
tp857
a(S'100003477175298'
S'Sh Jabarzai'
tp858
a(S'100001849393934'
S'Jameel Jameel'
tp859
a(S'100001950261856'
S'Farhad Noori'
tp860
a(S'100002576471428'
S'Omarashna Zazai'
tp861
a(S'100004462064024'
S'Pari Ghulame'
tp862
a(S'100000071971752'
S'Za Afghan Yam'
tp863
a(S'100002020306809'
S'Bilal Ahmed Khan'
tp864
a(S'100000057395571'
S'Abasin Afghan'
tp865
a(S'100002194359074'
S'Umair Raja'
tp866
a(S'100002355878130'
S'Fahim Stanikzai'
tp867
a(S'100002935273496'
S'Affan Khan'
tp868
a(S'100000186083305'
S'Adel Tanha'
tp869
a(S'100001491123708'
S'Gul Jawhar'
tp870
a(S'100006008952534'
S'Ismatullah Ismat'
tp871
a(S'100000559451536'
S'Asif Khan'
tp872
a(S'100000092486906'
S'Hamayon Yaqobi'
tp873
a(S'100002114901920'
S'Nasir Matoonwall'
tp874
a(S'100001801495893'
S'Sharifullah Ehsas'
tp875
a(S'100007607345361'
S'Afghan Afghan'
tp876
a(S'100002340047529'
S'Adil Jan Alam'
tp877
a(S'100001229893401'
S'Ajmal Fitrat'
tp878
a(S'100002230247076'
S'Haroon Parhez Khostai'
tp879
a(S'100002252072696'
S'Mujahid Amin'
tp880
a(S'100007173672980'
S'Hewad Momand'
tp881
a(S'100008107027968'
S'\\u0622\\u0648\\u0627\\u06cc \\u063a\\u0648\\u0631'
tp882
a(S'762887305'
S'Nabi Jan'
tp883
a(S'100007306747160'
S'Najlaa Rehmat'
tp884
a(S'100001500645427'
S'Ibrahim Camara'
tp885
a(S'100002223148196'
S'Aisha Madhi'
tp886
a(S'100002087484845'
S'Atta Muhammad Helwak'
tp887
a(S'100000858806270'
S'MA Zaland'
tp888
a(S'100000833807735'
S'Mesbahuddin Asadi'
tp889
a(S'576512270'
S'Farid Ahmad Bashardost'
tp890
a(S'100002084982579'
S'Aazad Khattak'
tp891
a(S'100007294056070'
S'Qand Agha Miakhil'
tp892
a(S'100002080665452'
S'Niazwali Lewall'
tp893
a(S'100002254136308'
S'Yaqoob Nassari'
tp894
a(S'100001491685682'
S'Gulalay Afghana'
tp895
a(S'1197750656'
S'Hematullah Niazmand'
tp896
a(S'100000712993670'
S'Bisme Deljo'
tp897
a(S'100002209922948'
S'Hamdard Rose'
tp898
a(S'100001426088117'
S'Saleem Dero'
tp899
a(S'100001552186699'
S'Liaqat Ameri'
tp900
a(S'100001713619231'
S'Sarnavesht Daily'
tp901
a(S'100001193455229'
S'Abdul Hadi'
tp902
a(S'100008313042891'
S'Laila Amarkhil'
tp903
a(S'100001859934950'
S'Anoop Mishra'
tp904
a(S'100000898716901'
S'Mohammad Bahir'
tp905
a(S'100001654060048'
S'Fershta Ghafuori'
tp906
a(S'100007942870093'
S'Sayedmarjan Wesal'
tp907
a(S'100003965777340'
S'Baitullah Mangal'
tp908
a(S'1357087091'
S'Khader Sharif'
tp909
a(S'100001993258479'
S'Abdul Rahman Azizi'
tp910
a(S'100002094077130'
S'Roohullah Azad'
tp911
a(S'100006840671061'
S'Jawanan Laghman'
tp912
a(S'100007579417366'
S'Aleem Jan Aleem Jan'
tp913
a(S'100000467208559'
S'Sayed Ahmad Zia Ebrahimi'
tp914
a(S'1125192903'
S'Abdul Ghafar Kamyab'
tp915
a(S'100000365199024'
S'Mohibullah Ishaqi'
tp916
a(S'100001948031413'
S'Salman Malik'
tp917
a(S'100008260928816'
S'Mohammed Darwvesh'
tp918
a(S'100000556431709'
S'Naqibullah Hemat'
tp919
a(S'100000173774218'
S'Zabihullah Noori'
tp920
a(S'100001386028204'
S'Imran Hashemi'
tp921
a(S'100001125721382'
S'Wahid Safi'
tp922
a(S'100001623507268'
S'Javid Nazari'
tp923
a(S'100005183913455'
S'Riaz Ul Haq'
tp924
a(S'100000797866240'
S'Abdul Hadi Zamani'
tp925
a(S'100001975958312'
S'Abdullah Abid'
tp926
a(S'100007392331888'
S'Daulat Niamati'
tp927
a(S'100002109947105'
S'\\u062e\\u062f\\u0645\\u062a\\u06af\\u0627\\u0631 \\u0648\\u0631\\u0681\\u067e\\u0627\\u06bc\\u0647'
tp928
a(S'100001087423517'
S'Zia Ghairat Abdulrahimzai'
tp929
a(S'1492860884'
S'Sadiq Samim'
tp930
a(S'100001700257238'
S'Mohammad Hassan'
tp931
a(S'1119291886'
S'Irfan Khan'
tp932
a(S'100002178904303'
S'Hbibullah Wardak'
tp933
a(S'1799397648'
S'Bismellah Anwary'
tp934
a(S'1783340323'
S'Ahsan Sheikh'
tp935
a(S'100002079892696'
S'Haroon Barekzai'
tp936
a(S'100001118591309'
S'Abdulmajid Safi'
tp937
a(S'100003468793860'
S'M Shareef Wardak'
tp938
a(S'100001406940828'
S'Ahmad Noor ShahzadPopal'
tp939
a(S'100001467900575'
S'Nabi Arif Zazai'
tp940
a(S'100001485748729'
S'Zinab Ahmadi'
tp941
a(S'100000808263734'
S'Janan Zazai'
tp942
a(S'100001517699180'
S'Pakhtun Khan Afghan'
tp943
a(S'100003172528832'
S'Mangal Sadeeq'
tp944
a(S'100005349150693'
S'Asad Sherzai'
tp945
a(S'100001351315422'
S'Fasial Khan'
tp946
a(S'100000385051017'
S'Navid Wardak'
tp947
a(S'100001108025261'
S'Faisal Alam'
tp948
a(S'100001077621120'
S'Izhar Bacha'
tp949
a(S'100002195076438'
S'Rohi Gul'
tp950
a(S'100004095532112'
S'Habiba Ghayasi'
tp951
a(S'100002174476536'
S'Abdul Hakeem Khogyania'
tp952
a(S'1108959931'
S'Adem Han Miyahil'
tp953
a(S'100006064690841'
S'Zyarmal Khan Inteezar'
tp954
a(S'100001887750250'
S'Lovely Naz'
tp955
a(S'100002033790085'
S'Noor Ahmad Salahy'
tp956
a(S'100001550696265'
S'Hameed Noorzai'
tp957
a(S'100001655910634'
S'Amanullah Iman'
tp958
a(S'100001903600778'
S'Parmender Dagar'
tp959
a(S'100002134435210'
S'Asadullah Asadullahachakzai'
tp960
a(S'100002165856804'
S'Muhammad Nawazkhan'
tp961
a(S'100001969327514'
S'Abdul Qasim Qayoumi'
tp962
a(S'100007612775787'
S'Hamayoon Khan'
tp963
a(S'100008139753973'
S'Ezatullah Ezat'
tp964
a(S'100001849185422'
S'Ezatullah Menhaj'
tp965
a(S'100000180056766'
S'Najeebullah Afghan'
tp966
a(S'100001195674253'
S'Zahra Hashemi'
tp967
a(S'100002262504116'
S'Daz Dazwal'
tp968
a(S'100000516046875'
S'Shamshad Khan Shinwari'
tp969
a(S'100001749156431'
S'Salih Ahmad Momand'
tp970
a(S'100001315031239'
S'Omid Salim'
tp971
a(S'100001875432426'
S'Abdul Aleem'
tp972
a(S'100001725449122'
S'Saeedullah Hasanzai'
tp973
a(S'100002132298450'
S'Bader Kh Zadran'
tp974
a(S'100005045287014'
S'Masood Khuram'
tp975
a(S'100003716187263'
S'Dur Mohamad Fazel'
tp976
a(S'100002273327553'
S'Paktia BuLbal'
tp977
a(S'100001837130398'
S'Assadullah Ghalib'
tp978
a(S'1053742932'
S'Dilawar Khan'
tp979
a(S'100008065570207'
S'Shabbab Mangal'
tp980
a(S'1138057094'
S'Eiqbal \\u0627\\u0642\\u0628\\u0627\\u0644 Aazam'
tp981
a(S'100007067198624'
S'Omid Naib'
tp982
a(S'100003819685486'
S'Omaidshah Khan'
tp983
a(S'100001604429113'
S'Wakil Khan'
tp984
a(S'100001733143311'
S'King Kabul'
tp985
a(S'100001671323218'
S'Sahil Zahidi'
tp986
a(S'100001646207207'
S'Mashal Pukhtoon'
tp987
a(S'100001988892879'
S'Bhn MustaQimah'
tp988
a(S'100001874298247'
S'Nazir Ahmad Harifal'
tp989
a(S'100000596194657'
S'Atal Sarwary'
tp990
a(S'100001538780615'
S'Shams Lodin'
tp991
a(S'100002173591505'
S'Imran Mangal'
tp992
a(S'100005126915034'
S'Haqyar Afghan'
tp993
a(S'100002140190085'
S'Ashraf Zadran'
tp994
a(S'100001577537454'
S'Mufti Ziaulislam Tikravi'
tp995
a(S'100002487171395'
S'Roya Ahmadzi'
tp996
a(S'100001433754431'
S'Hazrat Khan'
tp997
a(S'581022087'
S'Rashid Hassan Qazi'
tp998
a(S'1399142133'
S'Sohail Jaji'
tp999
a(S'100000993110487'
S'Muhammad Usman Zadran'
tp1000
a(S'100002282324967'
S'Ahmad Kaliwal Niazi'
tp1001
a(S'100001991839510'
S'Shakirullah Mamond'
tp1002
a(S'100002990641366'
S'Rahmat Mangle'
tp1003
a(S'1245830576'
S'Habib Taniwal'
tp1004
a(S'100000898358844'
S'Bashar Umer'
tp1005
a(S'100001261109034'
S'\\u0645\\u0644\\u064a \\u0633\\u0646\\u06ab\\u0631'
tp1006
a(S'100001137331061'
S'Abdul Qader Ghanizada'
tp1007
a(S'100002373398885'
S'Huma Islamian'
tp1008
a(S'100002449064684'
S'\\u0639\\u0628\\u062f\\u0627\\u0644\\u0645\\u062a\\u06cc\\u0646 \\u0633\\u0631\\u0648\\u0631\\u06cc'
tp1009
a(S'100001925182829'
S'Wazir Ahmad Samim'
tp1010
a(S'100001928463115'
S'Nadeem Shah Hashmi'
tp1011
a(S'100008282679415'
S'\\u062c\\u0648\\u0631\\u06af\\u0644 \\u062c\\u0648\\u06be\\u0631\\u06cc'
tp1012
a(S'100007836304231'
S'Delawar Adilahmadzai'
tp1013
a(S'1767139402'
S'Farooq Jan Marwat'
tp1014
a(S'100005573645931'
S'Sahil Amin'
tp1015
a(S'100000538038584'
S'Rafi Mangal'
tp1016
a(S'100001054804213'
S'Obaidullah Amiri'
tp1017
a(S'100001443232335'
S'Athal Samsor Khplwak'
tp1018
a(S'100001566441116'
S'Young Man'
tp1019
a(S'100001209011816'
S'Abdul Baqi Barak'
tp1020
a(S'100000815435748'
S'Abdul Waheed Barakzai'
tp1021
a(S'100002291192774'
S'Rahmatullah Noor'
tp1022
a(S'100000423600756'
S'Selgai Afghan'
tp1023
a(S'100001798925987'
S'Zafar Khan Durani'
tp1024
a(S'100001273183374'
S'Ajmal Hayat Afghan'
tp1025
a(S'1500140311'
S'Safiullah Abdul'
tp1026
a(S'100003194122636'
S'Sarhad Gulyar'
tp1027
a(S'100001846790344'
S'Qais Ahmad'
tp1028
a(S'100003709418913'
S'Abdulmnan Afghan'
tp1029
a(S'100001635045231'
S'Mal Mohammad Din'
tp1030
a(S'100001581917604'
S'Razique Khan'
tp1031
a(S'100004410429002'
S'Amanullah Zadran'
tp1032
a(S'100007171902683'
S'Elyas Elyas'
tp1033
a(S'100000475311090'
S'Fazal Karim Hakimi'
tp1034
a(S'100001662210752'
S'Jawed St'
tp1035
a(S'100006626410266'
S'Mohammad Dawood Sediqi Yousafzai'
tp1036
a(S'100003382880972'
S'Khalid Khan'
tp1037
a(S'610474468'
S'Abdul Qahar Malikzai'
tp1038
a(S'100001246930881'
S'Moneeb Zazai'
tp1039
a(S'100007048954377'
S'Abdul Wase Hamidi'
tp1040
a(S'627571974'
S'Mohammad Edrees'
tp1041
a(S'100001299306473'
S'Shabir Haidari'
tp1042
a(S'100000338125357'
S'Abdul Taj'
tp1043
a(S'100001269675416'
S'Shafiq Rassa'
tp1044
a(S'100008289399747'
S'Ahmmad Khan'
tp1045
a(S'100001394377690'
S'Habibkhan Ahmadzai'
tp1046
a(S'100002223736205'
S'Kaddour Zizi'
tp1047
a(S'100002066023298'
S'Anayat Akhtar'
tp1048
a(S'100002272357961'
S'Azim Nejati'
tp1049
a(S'100002254010618'
S'Amin Wardak'
tp1050
a(S'100002245844813'
S'Jawad Khan'
tp1051
a(S'1251200642'
S'Mohammad Yousaf Ahmadzai'
tp1052
a(S'100000627169149'
S'Bashir Kamran'
tp1053
a(S'100001224408653'
S'Shaukatullah Abid Afghan'
tp1054
a(S'100004834291315'
S'Zabihullah Stanikzai'
tp1055
a(S'100000544887011'
S'Najibullah Shafahi'
tp1056
a(S'100001072246719'
S'Sheikh Nadeem Ahmad'
tp1057
a(S'100001519282133'
S'Basir Ahmad Haqmal Khugyaniwaal'
tp1058
a(S'100004502289302'
S'Fazlullah Rahimee'
tp1059
a(S'100007473013837'
S'Zadran Zadran'
tp1060
a(S'100002338460793'
S'Abdul Musawir'
tp1061
a(S'100002036111125'
S'Sadat Ghufran Sadat'
tp1062
a(S'100001622627757'
S'Sanaullah Khan'
tp1063
a(S'100001028408086'
S'Shaheed Daud Khan Wathanpal'
tp1064
a(S'100000082312858'
S'Khalid Askarzai'
tp1065
a(S'100001318298419'
S'Aryan Khan'
tp1066
a(S'100001045566640'
S'Zarwali Khan Paktiawal'
tp1067
a(S'100005138973120'
S'Sifatullah Noori Atifee'
tp1068
a(S'100002056573106'
S'Said Ibrahim Hashimi'
tp1069
a(S'100005766994540'
S'Massoud Khan Selab'
tp1070
a(S'100002116425233'
S'Adil Khan'
tp1071
a(S'100004533223974'
S'Shaheen Tajmahal'
tp1072
a(S'100006962743141'
S'Amanullah Wardak'
tp1073
a(S'100002185617371'
S'\\u0635\\u0642\\u0631 \\u0627\\u0644\\u0646\\u0627\\u0635\\u0631'
tp1074
a(S'100002317145716'
S'Anamika Asha'
tp1075
a(S'100002032042340'
S'Sarbaz Mya Khiel'
tp1076
a(S'100001658763296'
S'Fahim Ullah Amin'
tp1077
a(S'100001500503826'
S'Mukhtar Amiri'
tp1078
a(S'100002117337455'
S'Rehanullah Rn'
tp1079
a(S'100000995937505'
S'Saleem Khan Mangal'
tp1080
a(S'1705789196'
S'Naimatullah Zafary'
tp1081
a(S'1473152305'
S'Mustafa Salek'
tp1082
a(S'100001969380611'
S'Torialy Amin'
tp1083
a(S'100000914356195'
S'Abid Shagiwal'
tp1084
a(S'100002388338496'
S'Ismail Zaland'
tp1085
a(S'100002204416791'
S'Ar Kaz'
tp1086
a(S'100002204086263'
S'Noorulhaq Ahmad'
tp1087
a(S'100001655882697'
S'Omid Orya'
tp1088
a(S'100000588358467'
S'Hamed Almas'
tp1089
a(S'100002193212017'
S'Khan Ahmadzai'
tp1090
a(S'100001043266367'
S'Amini Amini'
tp1091
a(S'100002698200439'
S'Ataurahma N Ata'
tp1092
a(S'1628617903'
S'Zabihullah Ghazi Nuristani'
tp1093
a(S'100003323564581'
S'Abdulrahman Arian'
tp1094
a(S'100006537660802'
S'Kashi Khan'
tp1095
a(S'100008280907613'
S'Zawan Paktiwal'
tp1096
a(S'100007272577398'
S'Masood Atal Safi'
tp1097
a(S'100002038711836'
S'Rais Khan Oghab'
tp1098
a(S'100002146160909'
S'Billy Hunter'
tp1099
a(S'100001254483233'
S'Aisyah Rizkyanna'
tp1100
a(S'100002187152953'
S'Gual Makay'
tp1101
a(S'100002160369219'
S'Aimal Walizada'
tp1102
a(S'100003087312038'
S'Subhanullah Zaki Khogianai'
tp1103
a(S'1514650345'
S'Mohammad R Yadgari'
tp1104
a(S'100001037451237'
S'Seliman Pushtonyar'
tp1105
a(S'100001811960084'
S'Mustafa Haideri'
tp1106
a(S'100000129237864'
S'Astina Syam'
tp1107
a(S'100000844321515'
S'\\u0645\\u0635\\u0637\\u0641\\u06cc \\u0647\\u0645\\u062f\\u0631\\u062f'
tp1108
a(S'100000866482034'
S'Breezy Ceesay'
tp1109
a(S'100003862976703'
S'Mohammad Ajmal Jabarkhel'
tp1110
a(S'100000764833309'
S'\\u0627\\u0644\\u062d\\u0627\\u062c \\u0627\\u0646\\u062c\\u064a\\u0646\\u0631 \\u0639\\u0628\\u062f\\u0627\\u0644\\u0647\\u0627\\u062f\\u064a \\u0645\\u062c\\u0627\\u0647\\u062f'
tp1111
a(S'100000178066775'
S'Ayaz Ahmad'
tp1112
a(S'1252944931'
S'Yaser Afg Afg'
tp1113
a(S'100001004828992'
S'Hilal Jani'
tp1114
a(S'100001649093345'
S'Sardar Mahmood'
tp1115
a(S'100002151115364'
S'Mast Halak Khan'
tp1116
a(S'1798943508'
S'Yasar Ahmadzai'
tp1117
a(S'100002502742790'
S'Hanif Zadran'
tp1118
a(S'100006490153293'
S'\\u0631\\u062d\\u0645\\u062a \\u0627\\u0644\\u0644\\u06c1 \\u0641\\u06cc\\u0631\\u062f\\u0648\\u0633 \\u0645\\u0646\\u06af\\u0644'
tp1119
a(S'750640578'
S'Sultan Muhammad Ghazi'
tp1120
a(S'100001868618012'
S'Rahim Gul Nayel'
tp1121
a(S'100001291055785'
S'Basir Ullah Hamkar'
tp1122
a(S'100001738325681'
S'Hameed Afghan Hotak'
tp1123
a(S'100001584051646'
S'Abdul Malik Watanyar'
tp1124
a(S'100000576321090'
S'Nasir Fayaz'
tp1125
a(S'100001888742029'
S'Habibullah Zadran'
tp1126
a(S'100000439879236'
S'Saber Aris'
tp1127
a(S'100005394698388'
S'Faranaz Tanha'
tp1128
a(S'100007581453992'
S'Abrahem Parhar'
tp1129
a(S'100002101671654'
S'Vicky Bannu'
tp1130
a(S'100001964117911'
S'Salih Mohammd Niaz'
tp1131
a(S'1242815317'
S'Jaan Mohammadi'
tp1132
a(S'100001135534308'
S'Jaan M Ahmadzai'
tp1133
a(S'100006669842890'
S'Naqeeb Masroor'
tp1134
a(S'100001873078836'
S'Kamal Khan'
tp1135
a(S'100000240060597'
S'Aroub Zazai'
tp1136
a(S'100001422352189'
S'Aziz Rahman Haqmal'
tp1137
a(S'100002085068267'
S'Farzana Korsheed'
tp1138
a(S'100001483838468'
S'Afghan Safi'
tp1139
a(S'100001416751834'
S'Sahil Sohail'
tp1140
a(S'100001111720087'
S'Sadaf Kohistani'
tp1141
a(S'100002037804080'
S'Dawood Khogyani'
tp1142
a(S'100007011782166'
S'Naveed Muhabbat'
tp1143
a(S'100004742073754'
S'Hassan Gul Mangal'
tp1144
a(S'100002044912480'
S'Muhammad Ghani'
tp1145
a(S'100001895048683'
S'Mozamel Panjsheri'
tp1146
a(S'100001133060546'
S'Jahangir Miakhail'
tp1147
a(S'534446277'
S'Muhammad Arif Ilyasee'
tp1148
a(S'100007946705045'
S'Zabihullah Khadim'
tp1149
a(S'100001108886831'
S'Khursheed Khan'
tp1150
a(S'100000784691790'
S'Wesal Noori'
tp1151
a(S'100002072997248'
S'Fahim Farhad'
tp1152
a(S'1302153692'
S'Sapand Sapand'
tp1153
a(S'100000726304117'
S'Zaki Mangal'
tp1154
a(S'100008212232938'
S'Noor Rahman'
tp1155
a(S'100000109948217'
S'Romaal Web'
tp1156
a(S'100007764909595'
S'Abdullah Noorzai'
tp1157
a(S'100001522486853'
S'Hamza Khan'
tp1158
a(S'100001160391070'
S'Daud Hilmand'
tp1159
a(S'100003309131086'
S'Hayatmohammad Hayat'
tp1160
a(S'100007306501989'
S'Shaakir Saifi'
tp1161
a(S'100007685765897'
S'Morteza Akbari'
tp1162
a(S'100001606612658'
S'Ghazala Javid'
tp1163
a(S'100002176274250'
S'Soma Jabarkhel'
tp1164
a(S'100001577254337'
S'Fayaz Khadimzai'
tp1165
a(S'100006421326673'
S'Nooragah Namatullah Namatullah'
tp1166
a(S'100001967965049'
S'Sami Ul Haq'
tp1167
a(S'100002159354651'
S'\\u0635\\u0627\\u0644\\u062d \\u0646\\u06cc\\u0627\\u0632'
tp1168
a(S'100001860548475'
S'\\u0634\\u064a\\u0631 \\u0643\\u0644 \\u062a\\u0631\\u0647 \\u0643\\u064a'
tp1169
a(S'100001214166608'
S'Khaled Ahmade'
tp1170
a(S'100002193380846'
S'Muhammad Nawaz'
tp1171
a(S'100002094202881'
S'\\u063a\\u0631\\u0685\\u0627\\u0646\\u06cd \\u063a\\u0631\\u0627\\u0646\\u06cd'
tp1172
a(S'100004063043752'
S'Eng Rafiq Hassan'
tp1173
a(S'100001613569937'
S'Yhy Yusuf'
tp1174
a(S'100001270677420'
S'Janagha Azizi'
tp1175
a(S'100004882268385'
S'Samsoor Bahar'
tp1176
a(S'100002145090367'
S'Khalilullah Hayatkheel'
tp1177
a(S'100001349105845'
S'Khalid Hairan Zazai'
tp1178
a(S'100001658713261'
S'Mohammad Sharif Omar'
tp1179
a(S'100007581545499'
S'Abid Afghan'
tp1180
a(S'100001248625354'
S'Janan Hamidi'
tp1181
a(S'100005336373414'
S'\\u0645\\u062d\\u0628\\u0648\\u0628 \\u0633\\u062a\\u0627\\u0646\\u06a9\\u0632\\u06cc'
tp1182
a(S'100002369728445'
S'Muhammad Lakanwall'
tp1183
a(S'100001596629159'
S'Niamat Ullah'
tp1184
a(S'1161740132'
S'Niaz Ahmad Ariob'
tp1185
a(S'100000883224636'
S'\\u062e\\u0628\\u0631\\u06cc\\u0627\\u0644 \\u0648\\u06cc\\u0628 \\u067e\\u0627\\u06bc\\u0647'
tp1186
a(S'100000337119928'
S'Mansoor Catalon'
tp1187
a(S'100000107339506'
S'Sultan Ahmadzai'
tp1188
a(S'100000458668756'
S'Saeedullah Sadat Safi'
tp1189
a(S'623988317'
S'Fahim Wardag'
tp1190
a(S'100002221826808'
S'Raza Ullah Pukhtoon Yar'
tp1191
a(S'100005063288962'
S'Jaqub Mangal'
tp1192
a(S'100001067650336'
S'Naser Faizmand'
tp1193
a(S'100001904205634'
S'Ali Satri'
tp1194
a(S'714388549'
S'Sayed Muhammad Saber'
tp1195
a(S'100001967274317'
S'Malik Ehsan Khan'
tp1196
a(S'100001581580424'
S'Naqibullah Farhat'
tp1197
a(S'100007044223418'
S'\\u0627\\u062f\\u0631\\u06cc\\u0633 \\u06a9\\u0627\\u0645\\u0648\\u0627\\u0644'
tp1198
a(S'100002095880824'
S'Melli Ghorzang'
tp1199
a(S'100000351325611'
S'Said Khalid Sadat'
tp1200
a(S'100001474846389'
S'Sadiqullah Afghan'
tp1201
a(S'100000919929719'
S'Ewaz Khan Mohmand'
tp1202
a(S'100001998296280'
S'Pashtana Achakzai'
tp1203
a(S'100002335479894'
S'Naser Haqmal'
tp1204
a(S'100000998178566'
S'Arian Arian'
tp1205
a(S'100005207291111'
S'Hidayat Shinwari'
tp1206
a(S'1266344413'
S'Kabir Khan Ahmadzai'
tp1207
a(S'100007972573370'
S'Sher Malik'
tp1208
a(S'100001450479292'
S'Payman Afghan'
tp1209
a(S'100001751338765'
S'Ahmadullah Ahmadi'
tp1210
a(S'100000688593057'
S'Habib Rahman Rasuli'
tp1211
a(S'100000115501726'
S'Naveed Peerzadah'
tp1212
a(S'100002194594188'
S'Amran Khan'
tp1213
a(S'100002235968321'
S'Shafiqullah Amin'
tp1214
a(S'1037551172'
S'Mohammad Farooq'
tp1215
a(S'100003153617803'
S'Akbar Haqmal'
tp1216
a(S'1274501670'
S'\\u0627\\u0628\\u0648 \\u062c\\u0627\\u0648\\u06cc\\u062f \\u06a9\\u067c\\u0648\\u0627\\u0632\\u06cc'
tp1217
a(S'100001252312266'
S'Pak Afghan Analysts'
tp1218
a(S'100002152517758'
S'Mehran Shah Hijazi'
tp1219
a(S'1504715641'
S'Umar Farooq'
tp1220
a(S'100002344112269'
S'Huma Mojadidi'
tp1221
a(S'100002285028125'
S'Freshta Suliman'
tp1222
a(S'100001626400594'
S'Fahim Urooj'
tp1223
a(S'100002049281168'
S'Nadeem Arshad'
tp1224
a(S'100001416566824'
S'Qudratullah Hamidi'
tp1225
a(S'100002116988276'
S'Mohammad Ayub Sultan'
tp1226
a(S'100001183663352'
S'Abdul Wahid Khan Isapzai'
tp1227
a(S'100002156676241'
S'Asad Leo'
tp1228
a(S'100001504707013'
S'Fahim Fakhri'
tp1229
a(S'100001436104216'
S'Hamad Rasooly'
tp1230
a(S'100001967767332'
S'Nahzat Nahzatullah'
tp1231
a(S'100001504756657'
S'Nazir Ahmad'
tp1232
a(S'100001076948026'
S'Mohammad Yasin Niazai'
tp1233
a(S'100001104062573'
S'MuhammadZahir Uyghon'
tp1234
a(S'100000716744301'
S'Jahan Ahmadzai'
tp1235
a(S'100001752907462'
S'Shafiqullah Ayubi'
tp1236
a(S'100001029401029'
S'Azizudin Noori'
tp1237
a(S'100008170983438'
S'\\u0634\\u0627\\u0632\\u06cc\\u0647 \\u067e\\u06cc\\u0634\\u0627\\u0648\\u0631'
tp1238
a(S'100001428942329'
S'Daring Sheraz'
tp1239
a(S'100000118654980'
S'Khalilullah Khan'
tp1240
a(S'100002269209651'
S'Foji FC'
tp1241
a(S'100008309735597'
S'Ehsanullah Ehsan'
tp1242
a(S'100001429560596'
S'Nazeer Rahimi'
tp1243
a(S'692771897'
S'Qudratullah Nasrat'
tp1244
a(S'100001751411920'
S'Baseer Meraj Khan'
tp1245
a(S'100003984468140'
S'Sunil Singh'
tp1246
a(S'1283275478'
S'Farshid Hakimyar'
tp1247
a(S'100000721846922'
S'Aftab Alam'
tp1248
a(S'100000611047827'
S'Samoon Afghan'
tp1249
a(S'100005140210052'
S'Baryalai Safi'
tp1250
a(S'754763151'
S'\\u0633\\u067e\\u0648\\u0696\\u0645\\u06cd \\u0627\\u062d\\u0645\\u062f\\u064a'
tp1251
a(S'100002277458311'
S'Mohammad Rafiq'
tp1252
a(S'100005825834407'
S'Inam Wahid'
tp1253
a(S'100000400228893'
S'Ramzan Kareem Ramzan'
tp1254
a(S'100001516239813'
S'Haseeb Sahel'
tp1255
a(S'100006990722611'
S'Modasir Jawad'
tp1256
a(S'100002223847880'
S'Aryan Aziz'
tp1257
a(S'100001665580196'
S'\\u0627\\u0645\\u0627\\u0646 \\u0627\\u0645\\u064a\\u0646 \\u0627\\u0631\\u064a\\u0648\\u0628\\u064a'
tp1258
a(S'100002895835780'
S'Rekawt Kazim'
tp1259
a(S'100002148270750'
S'Maqbool Shah'
tp1260
a(S'100001148567951'
S'Pashtoon Khan'
tp1261
a(S'100004567688254'
S'SHukria Jalalzay'
tp1262
a(S'100002102418140'
S'Rahmatullah Naseri'
tp1263
a(S'100005358872316'
S'Firooz Almass'
tp1264
a(S'100000366805487'
S'Abdulaziz Shoja'
tp1265
a(S'100004266091994'
S'Bashar Afghan'
tp1266
a(S'100000012832057'
S'Abdulhadi Safi'
tp1267
a(S'100002352224133'
S'Basir Shaida'
tp1268
a(S'100000639438789'
S'\\u0634\\u0631\\u0627\\u0641\\u062a \\u0645\\u06d0\\u0627\\u062e\\u06d0\\u0644'
tp1269
a(S'100001286294767'
S'Sayed Ali Wardak'
tp1270
a(S'100000496966173'
S'Osman Ghani'
tp1271
a(S'100002044728138'
S'Sonia Afghan'
tp1272
a(S'100001139284279'
S'Akram Khan'
tp1273
a(S'100002253277503'
S'Said Khan Rohi'
tp1274
a(S'100003468399172'
S'Imran Khan'
tp1275
a(S'100002249691744'
S'Ramin Khan'
tp1276
a(S'579831620'
S'Jawid Andyal'
tp1277
a(S'100000326582522'
S'Azeem Burran'
tp1278
a(S'100002020574825'
S'Ghias Hanifi'
tp1279
a(S'100001227033106'
S'Sharif Stanikzai'
tp1280
a(S'100004543121151'
S'Qader Mangal'
tp1281
a(S'100005040430181'
S'Abdul Momand'
tp1282
a(S'100007600510342'
S'Wail Sangin'
tp1283
a(S'100000395123101'
S'Mirwais Totakhil'
tp1284
a(S'100007713698820'
S'Dinesh Jogesh'
tp1285
a(S'100003159553137'
S'Sanga Ibrahimkhil'
tp1286
a(S'100008219165065'
S'Rehan Jhatt'
tp1287
a(S'100001947738543'
S'Shafiq Wahdi'
tp1288
a(S'100001268389485'
S'Jamshed Dawar'
tp1289
a(S'100001189430015'
S'Nawaz Tanha'
tp1290
a(S'100001829596785'
S'Mohd Khostwal'
tp1291
a(S'100001939492835'
S'Roz Shaista'
tp1292
a(S'100000275735130'
S'Reza Saber'
tp1293
a(S'100000923747952'
S'Mohammad Nasim Zareef'
tp1294
a(S'100001798175980'
S'Dr-Omidshah Orgunwal'
tp1295
a(S'100001313795942'
S'Rohullah Habibi'
tp1296
a(S'100001439615495'
S'Kamran Lawang'
tp1297
a(S'100006268180542'
S'Sadiqullah Dilsuz'
tp1298
a(S'100007839608163'
S'Dallkhor Tiezan'
tp1299
a(S'100000990624487'
S'Faridullah Hassanzai'
tp1300
a(S'100000518896084'
S'John Ibrahimi'
tp1301
a(S'100002159382605'
S'Shahnawaz Mangal'
tp1302
a(S'100001285537500'
S'Pakhtun Zalmai'
tp1303
a(S'100001579850597'
S'Zaitullah Rasoli'
tp1304
a(S'100002202046366'
S'Pashtun Afghan'
tp1305
a(S'100002223446377'
S'Khalid Khan'
tp1306
a(S'100002159325877'
S'Muhammad Irshad'
tp1307
a(S'100000061059076'
S'Suhail Babak'
tp1308
a(S'100002166564138'
S'Ahmad Adib Barekzai'
tp1309
a(S'1341211288'
S'Barakwal Myakhel'
tp1310
a(S'100004774868880'
S'Haleem Mengal Haleem Mengal'
tp1311
a(S'100007800583855'
S'Hakimullah Atal'
tp1312
a(S'100001378556351'
S'Nasier Alamyar'
tp1313
a(S'100007091164591'
S'Gul Wafa'
tp1314
a(S'100001774281014'
S'Fisal Shabab'
tp1315
a(S'100006387729898'
S'M Rauf Shah Banoori'
tp1316
a(S'100001385417699'
S'Sami Zeerak'
tp1317
a(S'100001338118076'
S'Asghar Khan'
tp1318
a(S'100000825373166'
S'Qadeer Shinwari'
tp1319
a(S'1731488616'
S'Daud Khan'
tp1320
a(S'100000226944773'
S'Abdul Samad Andar'
tp1321
a(S'100002086278980'
S'Sirajudin Shenwari'
tp1322
a(S'100002361304203'
S'Zamir Jan'
tp1323
a(S'100001943710342'
S'Mohamad Omer Farooqy'
tp1324
a(S'100002004546477'
S'Najdeen Ahmadzai'
tp1325
a(S'100001203331697'
S'Sajjad Ali'
tp1326
a(S'1210403954'
S'Faisal Mangal'
tp1327
a(S'100002291810073'
S'Eng Kawoon Sahak'
tp1328
a(S'100000547127412'
S'Back Tufan'
tp1329
a(S'100000974084380'
S'Ebadullah Akbari'
tp1330
a(S'100001193119509'
S'Mirbaz Sultani'
tp1331
a(S'100007705085290'
S'Shanawaz Azizi'
tp1332
a(S'100002423310580'
S'Yasin Mangal'
tp1333
a(S'100002084662969'
S'Nigar Popal'
tp1334
a(S'100001969518624'
S'Ab Jabar Khan Sayedi'
tp1335
a(S'100007608302141'
S'Maiwand Lawang'
tp1336
a(S'100001423390866'
S'Fahim Meher'
tp1337
a(S'100000612215471'
S'Rahmatullah Afghan'
tp1338
a(S'100000053261374'
S'Noorularafat Safi'
tp1339
a(S'100004575998915'
S'Hameedullah Faqeerzada'
tp1340
a(S'100001641616758'
S'Faridullah Badshah'
tp1341
a(S'100001181766813'
S'Rafiullah Hemat'
tp1342
a(S'826663598'
S'Eisa Almazmi'
tp1343
a(S'100000861522660'
S'Ameen Farhang Ameen'
tp1344
a(S'100001315116643'
S'Moh Qasim Duranai'
tp1345
a(S'100000617894157'
S'Pirqayom Azizi'
tp1346
a(S'100004412080150'
S'Mohamd Wali Rasoli'
tp1347
a(S'100002228113619'
S'\\u06ab\\u067e \\u0634\\u067e'
tp1348
a(S'100001662165826'
S'Emal Hand'
tp1349
a(S'100000793475832'
S'Khalid Mojaddedi'
tp1350
a(S'100008017685167'
S'Prince Rafi A B'
tp1351
a(S'100000626161804'
S'Mahssa Akbari'
tp1352
a(S'1368842195'
S'Abdullah Arghandiwal'
tp1353
a(S'100001174263232'
S'Mansoor Jamalzai'
tp1354
a(S'100007070950780'
S'Muhamadomid Jan'
tp1355
a(S'100001311413679'
S'Nisar Ahmed Sapand'
tp1356
a(S'703637212'
S'Mahfouz Zubaide'
tp1357
a(S'1038765861'
S'\\u067e\\u069a\\u062a\\u0646\\u0647 \\u0627\\u0641\\u063a\\u0627\\u0646'
tp1358
a(S'100001123923101'
S'Wakman Afghan'
tp1359
a(S'100003641432772'
S'Fareed Hamdard'
tp1360
a(S'100002199803803'
S'Nizam Mashwani'
tp1361
a(S'100001360758480'
S'Naqibullah Temor'
tp1362
a(S'100002292295030'
S'Salma Iqbal Iqbal'
tp1363
a(S'100001583928145'
S'Mirwais Sabit'
tp1364
a(S'100001348920482'
S'Zainullah Stanikzai'
tp1365
a(S'100002341725792'
S'Mohammad Umar Mangal'
tp1366
a(S'100002194278225'
S'\\u0645\\u06cc\\u0646 \\u062c\\u0627\\u0646\\u0627\\u0646'
tp1367
a(S'100001337941465'
S'Mohammad Haroon Hamim'
tp1368
a(S'100007337344990'
S'Quresh Khan'
tp1369
a(S'100000616700257'
S'Sunil Hamedi'
tp1370
a(S'100000644069103'
S'Shamsurahman Tahir'
tp1371
a(S'1103445313'
S'Khyber Ismailzai'
tp1372
a(S'100002151507532'
S'Amna Gul Waziri'
tp1373
a(S'100005560988352'
S'Sadiqullah Seaddiqi'
tp1374
a(S'100001555102030'
S'Aziz Rahmani'
tp1375
a(S'100006129243050'
S'Mustafa Oria'
tp1376
a(S'100000291162831'
S'Amin Saeedi'
tp1377
a(S'100002547909608'
S'Afghan Cricinfo'
tp1378
a(S'100002113240334'
S'Fazalsaid Abdulsaid'
tp1379
a(S'100000900040466'
S'Hashmatullah Hakimi'
tp1380
a(S'100001514965001'
S'\\u06a9\\u06cc\\u0647\\u0627\\u0646 \\u0633\\u0627\\u067e\\u06cc'
tp1381
a(S'100001242394247'
S'Naseer Ahmad'
tp1382
a(S'100000914291734'
S'Wafa Rahmati'
tp1383
a(S'100002099595857'
S'Mohammed Niazi'
tp1384
a(S'100000105875819'
S'Zirak Tumankhel'
tp1385
a(S'100002229199528'
S'Wahid Wafa'
tp1386
a(S'1166077017'
S'Sayed Niamatullah Sayer'
tp1387
a(S'100001468486347'
S'Hikmatullah Asadi'
tp1388
a(S'100001969171645'
S'Frashata Amar'
tp1389
a(S'100008104655996'
S'Pakhtoon Khan'
tp1390
a(S'100003601656247'
S'Shirahmad Haqmal'
tp1391
a(S'100000274318628'
S'\\u0627\\u062d\\u0645\\u062f\\u062c\\u0627\\u0646 \\u062e\\u0627\\u062f\\u0645'
tp1392
a(S'100000338960559'
S'\\u0627\\u0641\\u063a\\u0627\\u0646\\u0647\\u0627 \\u0627\\u0641\\u063a\\u0627\\u0646\\u0627\\u0646'
tp1393
a(S'100000680524293'
S'Soorgul Zazai'
tp1394
a(S'100000362881238'
S'Sherbaz Khan'
tp1395
a(S'100000253574656'
S'Haroon Sediqi'
tp1396
a(S'100002277183669'
S'Korosh Kazemi'
tp1397
a(S'100002074522004'
S'Mohammad Rahman'
tp1398
a(S'100003784474599'
S'Sardar Ajezi'
tp1399
a(S'100003642886267'
S'Mirwais Omaid'
tp1400
a(S'100002061003564'
S'Mohamad Bilal Khpalwak'
tp1401
a(S'100002001231008'
S'Aryobi Karimi Zazai'
tp1402
a(S'100006201970249'
S'Zhir Gul Afghan'
tp1403
a(S'698888938'
S'Ashfaq Khan'
tp1404
a(S'100000726189467'
S'Mohib Khan'
tp1405
a(S'100001983774292'
S'Uroj Momand'
tp1406
a(S'100001922769329'
S'Islam Khan'
tp1407
a(S'100002363720782'
S'\\u0126\\u0101wtl\\u012fc\\u012fOux Nawt\\u00eel\\u00ee\\u00e7i\\u00f8ux \\u00c7ut\\u012bel\\u012bc\\u012b\\u00f8us P\\u0157\\u00ee\\u014b\\u00c7\\u1ec7xx'
tp1408
a(S'821091109'
S'Azeez Khan'
tp1409
a(S'100001973574087'
S'Mohibullah Mohbobi'
tp1410
a(S'100001250433369'
S'Asad Moslem'
tp1411
a(S'100002045251658'
S'Rahmat Ullah Rahmani'
tp1412
a(S'100001288778617'
S'Sher Pashtoon'
tp1413
a(S'100001978053079'
S'Mohammad Nabi Arbab'
tp1414
a(S'100002228558533'
S'Wali Suliman Afghan'
tp1415
a(S'100000722223926'
S'Asif Sadiqi'
tp1416
a(S'100002109897363'
S'Abneamin Amin'
tp1417
a(S'100000662183658'
S'Suliman Khuram'
tp1418
a(S'100002366801582'
S'Sultan Zahid'
tp1419
a(S'100002834769545'
S'KhwajaHasib Sidiqy'
tp1420
a(S'100000510082035'
S'Surender Sharma'
tp1421
a(S'100007668211768'
S'Abdul Ahad Shinwari'
tp1422
a(S'100001271211743'
S'Tawab Qurayshi'
tp1423
a(S'100000718870391'
S'Burhan Uddin'
tp1424
a(S'100004367976049'
S'Halim Afghan'
tp1425
a(S'100000560470749'
S'Shokrullah Shakire'
tp1426
a(S'784066795'
S'Asif Nang'
tp1427
a(S'100007493730070'
S'Atiqullah Qati'
tp1428
a(S'100001136767508'
S'Sharifullah Mangal'
tp1429
a(S'100001518568007'
S'Jan Haidary'
tp1430
a(S'100005062773975'
S'Walid Jan'
tp1431
a(S'100007054295906'
S'Azimullah Hakimi'
tp1432
a(S'100004077971683'
S'Sahakzai YMs Sahak'
tp1433
a(S'100002198772073'
S'Sayed Esmail Paiman'
tp1434
a(S'100007478200927'
S'Hamidullah Dardman'
tp1435
a(S'635868812'
S'Speen Gher'
tp1436
a(S'100000219024575'
S'Afghan Mangal'
tp1437
a(S'529454687'
S'Faridullah Mirzad'
tp1438
a(S'100002271874939'
S'Abdul Ghaffar'
tp1439
a(S'100001315757707'
S'Adnan Ghani'
tp1440
a(S'1829629046'
S'Mohammad Khaled Sadeq'
tp1441
a(S'554743033'
S'Mohd Qader'
tp1442
a(S'100000064366343'
S'Adil Afghan'
tp1443
a(S'100002110585293'
S'Kandahar Afghanistan'
tp1444
a(S'100001566154310'
S'Bada Khan'
tp1445
a(S'1341197668'
S'Hedayatullah Arbab'
tp1446
a(S'100000972993633'
S'Piyauddin Aryobi'
tp1447
a(S'100000999468565'
S'Abdul Niazai'
tp1448
a(S'100002375387824'
S'\\u0633\\u06cc\\u062f\\u0622\\u063a\\u0627 \\u0646\\u0642\\u06cc \\u062e\\u06cc\\u0644'
tp1449
a(S'100002627606144'
S'Shahid Khan'
tp1450
a(S'100004379830004'
S'Hidayat Hidayat'
tp1451
a(S'100007865280893'
S'Azizullah Khawren'
tp1452
a(S'100002343462958'
S'Ahmad Ayaz'
tp1453
a(S'100000518807560'
S'Muhammad Arham Iqbal'
tp1454
a(S'100000535211819'
S'Basir Khan Zadran'
tp1455
a(S'100002263818081'
S'Bilal Ahmad Latify'
tp1456
a(S'1513981927'
S'Mojtaba Yosufzada'
tp1457
a(S'100002111911699'
S'Niamatullah Hmt'
tp1458
a(S'100000580810699'
S'Ahmadullah Safi'
tp1459
a(S'100000925131449'
S'Noor Jan Mangal'
tp1460
a(S'100002220266216'
S'Azmat Ali'
tp1461
a(S'100000506088687'
S'Rasheed Orakzai'
tp1462
a(S'100002072948204'
S'Jumagul Ahmazai Afghan'
tp1463
a(S'100004380726142'
S'Haji Khel Mangal'
tp1464
a(S'100001166370253'
S'Abdul Raheem Khan Ahmadzai'
tp1465
a(S'100002026033691'
S'Sadaq Osmani'
tp1466
a(S'100008329982615'
S'Abdullah Totakhel'
tp1467
a(S'100000699595666'
S'Lateef Ullah Qadri'
tp1468
a(S'100002156477811'
S'Habib Mirkhel'
tp1469
a(S'100001620364022'
S'Ak Alemdar'
tp1470
a(S'100008287711890'
S'Umar Shah'
tp1471
a(S'1336171378'
S'Mujahid Ahmadzai'
tp1472
a(S'1546519563'
S'Fazil Nagar'
tp1473
a(S'100002315580276'
S'\\u0639\\u0632\\u064a\\u0632 \\u063a\\u0648\\u062b \\u0627\\u0644\\u0631\\u062d\\u0645\\u0646'
tp1474
a(S'100003846099594'
S'Emamuddin Bawarzoy'
tp1475
a(S'667975845'
S'Sanjar Hussain'
tp1476
a(S'100006634572714'
S'Hassan Raza'
tp1477
a(S'100003575507927'
S'Mirza Gul'
tp1478
a(S'100000578115083'
S'Mushtaq Ahmad'
tp1479
a(S'100002285539227'
S'Gulsanga Nori'
tp1480
a(S'100006537333265'
S'Sohbat Khan Ahmadzai'
tp1481
a(S'100002265350416'
S'Shakila Shahab'
tp1482
a(S'100001044581599'
S'Aimal Zadran'
tp1483
a(S'100001266098062'
S'\\u0633\\u0646\\u06ab\\u0631 \\u0646\\u06cc\\u0627\\u0632\\u06cc'
tp1484
a(S'100001964902733'
S'Noor Zad Khawrain Zazai'
tp1485
a(S'100001499896335'
S'Baryalai Rahemi'
tp1486
a(S'100001270041757'
S'Munir Khan Siddiqi'
tp1487
a(S'100001595326657'
S'Numyali Naik'
tp1488
a(S'100000992853950'
S'Mohammad Tahir Zwakman'
tp1489
a(S'100001100659417'
S'Abid Amiri'
tp1490
a(S'100001924971312'
S'Afnan Ibrahimi'
tp1491
a(S'100006434799533'
S'Abdulahad Maohidi'
tp1492
a(S'100002218455143'
S'Abdul Qayum Nasap'
tp1493
a(S'100001420857782'
S'Ahad Wali Wali'
tp1494
a(S'100002220632783'
S'Wahid Shaharyar'
tp1495
a(S'100002429521382'
S'Marjan Arif Siddiqi'
tp1496
a(S'100001305512894'
S'Eng Shahzadah Asim'
tp1497
a(S'100002240714037'
S'Abdulhalq Noor'
tp1498
a(S'100007826163507'
S'Jamshid Gulbahari'
tp1499
a(S'100001291886761'
S'Emal Sherzad'
tp1500
a(S'100003261792912'
S'Mirajjan Noori'
tp1501
a(S'100001720333519'
S'Nasib Afghan'
tp1502
a(S'1264088214'
S'Najiburrahman Hamid'
tp1503
a(S'100001052243665'
S'Rahim Azami'
tp1504
a(S'100003024815944'
S'Hameedullah Masoudi'
tp1505
a(S'100001978578924'
S'Mahamd Romal Nikzad'
tp1506
a(S'100000949825728'
S'Azizurahman Niazai'
tp1507
a(S'100002049238562'
S'Nemat Rasuli'
tp1508
a(S'100002188834929'
S'Sidra Noor'
tp1509
a(S'100000905568494'
S'Khial Sahak'
tp1510
a(S'100001662964393'
S'Hashim Zazai'
tp1511
a(S'100000966705968'
S'Nasir Fagar'
tp1512
a(S'100004336443462'
S'Noorullah Noori'
tp1513
a(S'100005013630492'
S'Hayatullah Miakhil'
tp1514
a(S'100001909294583'
S'Hanif Zadran'
tp1515
a(S'100007012784351'
S'Jaidan Khan'
tp1516
a(S'100002206634430'
S'\\u0627\\u0646\\u0681\\u0648\\u0631 \\u0645\\u0646\\u06ab\\u0644'
tp1517
a(S'100003513669039'
S'Omid Sahil Sahil'
tp1518
a(S'100001585869305'
S'Nazeer Yousafzai'
tp1519
a(S'100005674692182'
S'Rhaimshah Miakhl'
tp1520
a(S'100000854474051'
S'Ishaq Jabarkhil'
tp1521
a(S'100001763221047'
S'Ahmad Shoaib Habibi'
tp1522
a(S'100000681039122'
S'\\u0627\\u0633\\u0644\\u0627\\u0645 \\u0627\\u0644\\u062f\\u06cc\\u0646'
tp1523
a(S'1588863614'
S'Munsif Ullah Anwari'
tp1524
a(S'100002293628353'
S'Sabawoon Saba'
tp1525
a(S'100002306464675'
S'Haji Qudratullah Amiri'
tp1526
a(S'100003164590193'
S'\\u0645\\u06cc\\u0646\\u0647 \\u0698\\u0648\\u0646\\u062f \\u062f\\u06cc'
tp1527
a(S'100001972953488'
S'Shah Scl'
tp1528
a(S'100000168096304'
S'Najeebullah Ferotan'
tp1529
a(S'100002084452603'
S'Hakim Boda'
tp1530
a(S'100002195109535'
S'Nisar Bangash'
tp1531
a(S'100000815372350'
S'Masood Khan'
tp1532
a(S'100001858132308'
S'Akhtar Mohammad Totakhail'
tp1533
a(S'100002098863390'
S'Lawang Arabzoi'
tp1534
a(S'100007673401843'
S'Ahmad Mughal'
tp1535
a(S'100003948875080'
S'Shams Habibzai'
tp1536
a(S'100002088557539'
S'Arifjan Naizi'
tp1537
a(S'100002177702685'
S'Muh Mahir Sharifi'
tp1538
a(S'1690796937'
S'Naseer Ahmad Mashal'
tp1539
a(S'100001204940626'
S'Zabi Haidari'
tp1540
a(S'100003252396929'
S'Fatima Afghan'
tp1541
a(S'100001963672034'
S'Hayat Agha'
tp1542
a(S'100000286329854'
S'Rahem Zazai'
tp1543
a(S'100001730527842'
S'Qazafi Mal'
tp1544
a(S'100000730202792'
S'Roullah Yaqobi'
tp1545
a(S'100002181394301'
S'Aimal Khan Zazai Zazai'
tp1546
a(S'100000745931558'
S'Ganapathy Gana'
tp1547
a(S'100001025730429'
S'Fahad Khan'
tp1548
a(S'100006033643019'
S'Omaid Mohmand'
tp1549
a(S'100003777096948'
S'Pakhto Zalanda Tolana'
tp1550
a(S'100002666141281'
S'Sabawoon Patman'
tp1551
a(S'1206553616'
S'Sudhir Ghavare'
tp1552
a(S'100000049162234'
S'Ajmal Hamza'
tp1553
a(S'100001955583201'
S'Javid Ghurbandy'
tp1554
a(S'100002659128238'
S'Pakhto Aw Pakhtana'
tp1555
a(S'100002278356485'
S'Janjanaan Meena'
tp1556
a(S'100001847756340'
S'Zahid Adil'
tp1557
a(S'100000233685666'
S'Saeed Arabi'
tp1558
a(S'100002083680341'
S'Paktika Ta Sallam'
tp1559
a(S'1493540170'
S'Kabir Naqshbandy'
tp1560
a(S'100002185651315'
S'Najeeb Sadat'
tp1561
a(S'100003551793740'
S'Sufyan Khan'
tp1562
a(S'100000165789057'
S'Jalal Khan'
tp1563
a(S'100007923162238'
S'Edris Ameri'
tp1564
a(S'100001941746368'
S'\\u0648\\u0637\\u0646\\u062f\\u0627\\u0631 \\u0646\\u0634\\u0631\\u06cc\\u0647\\u0621 \\u0633\\u06cc\\u0627\\u0633\\u06cc \\u0641\\u0631\\u0647\\u0646\\u06af\\u06cc'
tp1565
a(S'100001513653991'
S'Zia Mandokhail'
tp1566
a(S'100002998237773'
S'Shafiullah Murshid'
tp1567
a(S'100001228196056'
S'Ghani Tani'
tp1568
a(S'100001154323842'
S'Salim Baloch'
tp1569
a(S'100002288572635'
S'Jan Smith'
tp1570
a(S'100000677355017'
S'Learning Point'
tp1571
a(S'100005087882839'
S'King Shahin'
tp1572
a(S'100002548882493'
S'Umar Lulu'
tp1573
a(S'100000927577070'
S'Abdullah Hakimi'
tp1574
a(S'100006121982740'
S'Muzhdah Jan Wafa'
tp1575
a(S'100001476900063'
S'Kabul Aryana'
tp1576
a(S'100000640354609'
S'Wahid Wahdat'
tp1577
a(S'100001871968858'
S'Amin Wali'
tp1578
a(S'100002231726546'
S'Toury Zafeer'
tp1579
a(S'100007450664269'
S'Khyal Assirwardak'
tp1580
a(S'100002163109771'
S'Hameeda Ahmadzai'
tp1581
a(S'100002218575317'
S'Feda Muhammad'
tp1582
a(S'100007336208221'
S'Roya Zerak'
tp1583
a(S'100008111552333'
S'Ghafoor Afghan'
tp1584
a(S'100002356729383'
S'Hamid Sangar Sangar'
tp1585
a(S'100002186820139'
S'Noor Ullah'
tp1586
a(S'100002309850347'
S'Musa Momini'
tp1587
a(S'1248893051'
S'Niaz Mohammad Niazmand'
tp1588
a(S'100000896896240'
S'Fazal Haq Nabil'
tp1589
a(S'100006440013915'
S'Noor Aziz Sultan Zoy'
tp1590
a(S'100000113635354'
S'Ahmadzia Waziri'
tp1591
a(S'100001346491555'
S'Khyber Zwak'
tp1592
a(S'100001478958409'
S'Matteen Wafa'
tp1593
a(S'100002109538866'
S'Eng Shakib Wardak'
tp1594
a(S'100000579822662'
S'Qais Baji'
tp1595
a(S'1685027403'
S'\\u0627\\u0645\\u06cc\\u0646 \\u0627\\u0644\\u0644\\u0647 \\u0627\\u0633\\u062d\\u0642 \\u0632\\u06cc'
tp1596
a(S'100001956009665'
S'Sadiq Fazli'
tp1597
a(S'100002147490543'
S'ILyas Khan ManiKhail'
tp1598
a(S'100000874055362'
S'Najeeb Jan'
tp1599
a(S'100006387663966'
S'Haseebullah Kalemzai'
tp1600
a(S'100000312209060'
S'Hafeez Turab'
tp1601
a(S'100000111783456'
S'Asif Dilawar'
tp1602
a(S'1442594957'
S'Jawid Ahmad'
tp1603
a(S'100002357675799'
S'Qanoon Haq Wainaa'
tp1604
a(S'100000728785072'
S'Sayed Yama Alimi'
tp1605
a(S'100001868064753'
S'Arzoo Tanha'
tp1606
a(S'100001496939214'
S'Ehsan Mamozai'
tp1607
a(S'100001868388899'
S'Daqeeq Safi'
tp1608
a(S'100005075114471'
S'Abdul Rawoof Barak'
tp1609
a(S'100001654803189'
S'Bahauddin Hemmat Sakhi'
tp1610
a(S'100001858587245'
S'Shehreyar Khalil'
tp1611
a(S'100005451487269'
S'Wahid Popalzai'
tp1612
a(S'100001672034498'
S'Tela Habibzai'
tp1613
a(S'100002174768810'
S'Emi Popalzai'
tp1614
a(S'604956587'
S'Nesar Emal'
tp1615
a(S'100007968134165'
S'Afghanistan Pashto Safi'
tp1616
a(S'1559476491'
S'Ziaurahman Samsoor'
tp1617
a(S'100002227029732'
S'Pashton Khan'
tp1618
a(S'610373519'
S'Naveed Hussain'
tp1619
a(S'100006734076262'
S'Wais Armani'
tp1620
a(S'100007511169338'
S'Aman Mangal'
tp1621
a(S'100001233949286'
S'Khalid Hotak'
tp1622
a(S'100002286669734'
S'Abdulhai Qorishi'
tp1623
a(S'604783717'
S'Gul Nur Zadran'
tp1624
a(S'100001008085085'
S'Mumtaz Zwan Mal'
tp1625
a(S'100007070405147'
S'Mufad Yousafzai'
tp1626
a(S'100002271240796'
S'Sharif Sharafat'
tp1627
a(S'100001030321420'
S'Amir Hamza Barek Amir'
tp1628
a(S'100001411210393'
S'Saif Ul Islam Yousufzai'
tp1629
a(S'100001764458370'
S'Mohammad Rafi'
tp1630
a(S'1396375507'
S'Meerwais Saahoo'
tp1631
a(S'100008047021981'
S'Raees Khan'
tp1632
a(S'1450233852'
S'Naqib Gul'
tp1633
a(S'100008249318391'
S'Wali Gawhar Mangal'
tp1634
a(S'1239491853'
S'Akhtar Mohammad Khan'
tp1635
a(S'100007661853890'
S'Zarif Shreen'
tp1636
a(S'100001466506489'
S'Hemayatullah Rahmani'
tp1637
a(S'100001379455775'
S'Amber Saleem'
tp1638
a(S'100002144725635'
S'Abdullah Hood'
tp1639
a(S'669773338'
S'Najeebullah Nasrat'
tp1640
a(S'1422261100'
S'Matiullah Stanikzai'
tp1641
a(S'100007107493895'
S'Muhammad Afzal Jut'
tp1642
a(S'100002232786068'
S'Mir Ajmal'
tp1643
a(S'100002145612920'
S'Sahil Olfat'
tp1644
a(S'100001100940561'
S'Meerwais Ahmadzai'
tp1645
a(S'100006800080829'
S'Ajmal Pardis'
tp1646
a(S'100002159139323'
S'\\u0627\\u0641\\u063a\\u0627\\u0646 \\u0681\\u0648\\u0627\\u0646'
tp1647
a(S'100001770571413'
S'Jamshid Asefi'
tp1648
a(S'100007497521786'
S'\\u0631\\u062d\\u0645\\u062a \\u0627\\u0644\\u0644\\u0647'
tp1649
a(S'100001710686669'
S'\\u0639\\u0628\\u062f\\u0627\\u0644\\u0631\\u062d\\u0645\\u0627\\u0646 \\u063a\\u0636\\u0631\\u064a'
tp1650
a(S'100001589473756'
S'Haroon Safi'
tp1651
a(S'100003215170992'
S'Najeeb Ullah Khushdil'
tp1652
a(S'100004061663975'
S'Neda Afg'
tp1653
a(S'100006421831025'
S'Pakhtu Menah'
tp1654
a(S'100002206401432'
S'Asghar Sher'
tp1655
a(S'100000913716851'
S'Kawoon Sahak'
tp1656
a(S'100001154017760'
S'Azizullah Ri'
tp1657
a(S'100002255456262'
S'\\ufecb\\ufe92\\ufeaa\\u0627\\ufedf\\ufecc\\ufec6\\ufef4\\ufee2 \\u0627\\ufea3\\ufeb4\\ufe8e\\ufee5'
tp1658
a(S'100005611242643'
S'Abdulwazir Mangal'
tp1659
a(S'100000679466250'
S'Rashid Ali'
tp1660
a(S'100001315641040'
S'Bashir Ahmad Faizan'
tp1661
a(S'100002220243927'
S'Sk Kabir'
tp1662
a(S'100000748867765'
S'Atiq Safi'
tp1663
a(S'654201332'
S'Khalid Nasiri'
tp1664
a(S'100001816472569'
S'Hasham Wardak'
tp1665
a(S'100000271645642'
S'Mirwali Mangal'
tp1666
a(S'1249492331'
S'Massihullah Abdul Rahman Rahmani'
tp1667
a(S'100006069605136'
S'Zayam Pakhtoon'
tp1668
a(S'100000587959537'
S'Lemar Khan'
tp1669
a(S'100004626755060'
S'Sultan Ahmadzai'
tp1670
a(S'100000456599321'
S'Wali Khaksar'
tp1671
a(S'100004092111210'
S'Shamim Ahmad Norzai'
tp1672
a(S'100001382836657'
S'Ajmal Shinwari'
tp1673
a(S'672159546'
S'Sultan Baig'
tp1674
a(S'100000385926334'
S'Ghafar Abdel'
tp1675
a(S'100000164888398'
S'Saifoor Afridi'
tp1676
a(S'100001281708078'
S'\\u0639\\u0627\\u0628\\u062f \\u0632\\u0627\\u0628\\u0644\\u0626'
tp1677
a(S'100002129038405'
S'Az\\u00f8\\u00f8z Afg'
tp1678
a(S'100006515942204'
S'Abdulwali Akbarzai'
tp1679
a(S'806805593'
S'Assad Zazai'
tp1680
a(S'100001457123312'
S'Zafar Ullah Kakar'
tp1681
a(S'100000807932858'
S'Naeem Khan'
tp1682
a(S'100001975744323'
S'Mohsen Ali Zai'
tp1683
a(S'100002196050891'
S'Mukhtaar Ahmad'
tp1684
a(S'100001895265471'
S'\\u0627\\u0645\\u06cc\\u062f \\u0641\\u0631\\u0648\\u062a\\u0646'
tp1685
a(S'100000407798320'
S'Tahir Iqbal'
tp1686
a(S'100000038098594'
S'Ezatullah Yousafzay'
tp1687
a(S'100003182151404'
S'Ezatullah Lathefi'
tp1688
a(S'100007205321222'
S'Gulagha Hemat'
tp1689
a(S'100000871226220'
S'Mohammad Stanikzai'
tp1690
a(S'100000548529428'
S'Yusuf Omar'
tp1691
a(S'100006737466391'
S'Ainullah Ahmadzai'
tp1692
a(S'100001893818555'
S'Behroz Faizzad'
tp1693
a(S'100008106728777'
S'Rahmat Khan'
tp1694
a(S'100002243176698'
S'Farid Farzan'
tp1695
a(S'100001678725648'
S'Pashton Lion'
tp1696
a(S'100007557217113'
S'Sahil Toatakhil'
tp1697
a(S'100002369810183'
S'SayedAsadullah Sadat'
tp1698
a(S'100004152611021'
S'Sifatullah Talwar'
tp1699
a(S'100000612047361'
S'Mohammad Usman Arhan'
tp1700
a(S'100001976121743'
S'Sayed Rahman Assadi'
tp1701
a(S'100003135487988'
S'Amanullah Ehsas'
tp1702
a(S'100006108792752'
S'Mehak Mehak Mehak Mehak'
tp1703
a(S'100002249343856'
S'Aimal Dostyar'
tp1704
a(S'100002400090373'
S'Fazalhakim Nasimi'
tp1705
a(S'100004663722649'
S'Zabiullah Sangar Niazai'
tp1706
a(S'100001948022942'
S'Habibullah Rahimi'
tp1707
a(S'100007390210275'
S'\\u06a9\\u0641\\u0627\\u062a \\u06af\\u0644 \\u0634\\u0645\\u0634\\u064a \\u062e\\u064a\\u0644'
tp1708
a(S'100000257940177'
S'Farooq Muhammad Khan Hoti'
tp1709
a(S'100001019600315'
S'Nisar Ahmed Shamse'
tp1710
a(S'100001666613265'
S'Mujahid Khan'
tp1711
a(S'100001662349263'
S'Shafiullahafghan Tokhi'
tp1712
a(S'100002156302445'
S'Mohabat Wardak'
tp1713
a(S'100002650163742'
S'Khpalwak Hotak'
tp1714
a(S'100001008945571'
S'Kabir Yaqubi'
tp1715
a(S'100002204215694'
S'Prince Safi Safi'
tp1716
a(S'100002311465645'
S'Jahangirkhan Jani'
tp1717
a(S'100001798672884'
S'Naqibullah Naqib'
tp1718
a(S'100002134441406'
S'Sadaf Ahmadi'
tp1719
a(S'100007761731149'
S'\\u0632\\u0647 \\u062f\\u0631\\u062f\\u06cc\\u062f\\u0644\\u06cc \\u06cc\\u0645'
tp1720
a(S'100006169954387'
S'Aziz Pathan Laghmani'
tp1721
a(S'100004415413815'
S'Sadaqat Tasal'
tp1722
a(S'100001097130317'
S'Rahmatullah Niaz'
tp1723
a(S'100002166976475'
S'Sahile Hakimi'
tp1724
a(S'100000778615662'
S'Shan Pakhtun'
tp1725
a(S'100007041373749'
S'Sardarwali Afghan'
tp1726
a(S'100002206870934'
S'Senan Sharaf'
tp1727
a(S'100001444845322'
S'Abdulwahab Eahsase'
tp1728
a(S'100001552068888'
S'Farid Ahmad'
tp1729
a(S'1805568191'
S'Samina Khan'
tp1730
a(S'1385288457'
S'Subhanullah Shafaq'
tp1731
a(S'100002062726647'
S'Salam Afghan'
tp1732
a(S'100001381135685'
S'Asif Khan'
tp1733
a(S'100001086408500'
S'Muhammad Jawad Omari'
tp1734
a(S'100002168622257'
S'Ghafar Mazari'
tp1735
a(S'100003193192920'
S'Leema Ghafoori'
tp1736
a(S'100001974637607'
S'Khaled Andar'
tp1737
a(S'100001027092187'
S'Zaki Mohammad Wasif'
tp1738
a(S'100001668236788'
S'Samar Fayez'
tp1739
a(S'100001539553362'
S'Maiwand Khosti'
tp1740
a(S'100000201032780'
S'Sultan Muhamad'
tp1741
a(S'100001960259204'
S'Nisar Ahmad Mansoor'
tp1742
a(S'100001902994316'
S'Razmal Sardar'
tp1743
a(S'100002175678269'
S'Syed Mushahid Naqvi'
tp1744
a(S'100002283663863'
S'Shafiqullah Hairan'
tp1745
a(S'100000511671914'
S'Khushal Shams'
tp1746
a(S'100002210176071'
S'Tahir Jahangir'
tp1747
a(S'100001530996026'
S'Naqeebullah Naqeeb'
tp1748
a(S'100002216386941'
S'Arkan Sadozai'
tp1749
a(S'100001325516917'
S'Muzamil Sadrey'
tp1750
a(S'100004611813050'
S'Hameedullah Saber Mangal'
tp1751
a(S'100002338950266'
S'Nisar Ahmad Safa'
tp1752
a(S'100000143979960'
S'Zahid Afghan'
tp1753
a(S'100001791016404'
S'Iqbal Zarifi'
tp1754
a(S'100002028675014'
S'Aman Faiq Jalalkhel'
tp1755
a(S'100001938971529'
S'Ahmad Foolad'
tp1756
a(S'100002217093181'
S'Mona Dar'
tp1757
a(S'100004146640022'
S'Zahir Omid'
tp1758
a(S'100001419002101'
S'Ali Wafa'
tp1759
a(S'100002234649476'
S'Muhammad Saleem'
tp1760
a(S'100000915124491'
S'Nitin Kr'
tp1761
a(S'100000765082254'
S'Ilyas Bangash'
tp1762
a(S'100002224391422'
S'Naveed Ahmad'
tp1763
a(S'100002119766702'
S'Golzar Yas'
tp1764
a(S'1222062479'
S'Musafar Khan'
tp1765
a(S'100001451689469'
S'Akhtar Mohammad'
tp1766
a(S'100002127662640'
S'Salma Safi'
tp1767
a(S'1649244727'
S'Aziz Lucky'
tp1768
a(S'100002544793092'
S'Yaqoob Kan'
tp1769
a(S'100007364644608'
S'Haji Faizullah Mirgai'
tp1770
a(S'644633731'
S'Nayel Najibullah'
tp1771
a(S'100007632422215'
S'Sobhan Hadina'
tp1772
a(S'100001205697041'
S'Yad Khostai'
tp1773
a(S'1007421156'
S'Krorr Khan'
tp1774
a(S'100001013284518'
S'Babar Khan Yousafzai'
tp1775
a(S'100001976308700'
S'Melad Suja'
tp1776
a(S'100000879838417'
S'Bahar Hamdard'
tp1777
a(S'1010115852'
S'Kabeer Khan'
tp1778
a(S'100001725458453'
S'Noorullah Khan'
tp1779
a(S'1559942616'
S'Saleem Salar'
tp1780
a(S'549595877'
S'Gohar Khan'
tp1781
a(S'100000942360659'
S'Iqbal Iqbal Safi'
tp1782
a(S'100002537924485'
S'Ahmad Salarzai'
tp1783
a(S'1514830735'
S'Farhad Momand'
tp1784
a(S'100002258940487'
S'Rahimullah Niazy'
tp1785
a(S'100000190226451'
S'Arif Hamdard Safi'
tp1786
a(S'100002234615265'
S'Mahammadullah Zabuli'
tp1787
a(S'100002093084564'
S'Fazel Fazel Odessa Kohdamni'
tp1788
a(S'100005189469524'
S'Ghazniwal Attal'
tp1789
a(S'100001537993783'
S'Rafiullah Roohani'
tp1790
a(S'100000407389960'
S'Atall Afghan'
tp1791
a(S'100002188984134'
S'Mumtaz Khan Omari Paktiawal'
tp1792
a(S'100000070825422'
S'Sardar Hussain'
tp1793
a(S'100002187270205'
S'Hamid Li'
tp1794
a(S'1216759560'
S'Ziaurehman Musarat'
tp1795
a(S'100001444508045'
S'Mashal Mashal'
tp1796
a(S'100000220177930'
S'Khesrow Sharifee'
tp1797
a(S'100000533862228'
S'Abdul Jalil Kamawi'
tp1798
a(S'100007586706006'
S'Amanullah Habibi'
tp1799
a(S'100007785823181'
S'Imran Paktiawal'
tp1800
a(S'1130956793'
S'Folad Lalahand'
tp1801
a(S'100002136535424'
S'Mido Troubles'
tp1802
a(S'100002308926744'
S'Zalmai Yousafzai'
tp1803
a(S'100000731352196'
S'Zabihullah Ahmadi'
tp1804
a(S'100000314204714'
S'Khalid Najeem'
tp1805
a(S'100001996695385'
S'Abdul Nabi Ziar'
tp1806
a(S'100000894369200'
S'Naik Mohammad Spinghar'
tp1807
a(S'100005687144573'
S'Najeebullah Ahmad'
tp1808
a(S'100001848319016'
S'Samipaiwand Paiwand'
tp1809
a(S'100001605317825'
S'Sahil Mangal'
tp1810
a(S'100000021122148'
S'Raees Ahmadzai'
tp1811
a(S'100002364909701'
S'Abdurahman Rasuli'
tp1812
a(S'100007008210614'
S'Sunil Bansal'
tp1813
a(S'100004388920797'
S'Sulman Stanikzi'
tp1814
a(S'100005057881990'
S'Naseem Sahar'
tp1815
a(S'530949449'
S'Kadir Yi\\u011fit'
tp1816
a(S'100006489794249'
S'Azmat Ullah'
tp1817
a(S'100002140403920'
S'Sahil Samim'
tp1818
a(S'100002308501796'
S'Ihsan Khan'
tp1819
a(S'100002916424159'
S'Kings Ayaz'
tp1820
a(S'1809914324'
S'Atagul Himat'
tp1821
a(S'100001802738431'
S'Faisal Khan'
tp1822
a(S'100001637171423'
S'Naveed Ahmad Tarzi'
tp1823
a(S'100002200076285'
S'Rohullah Sanginyar'
tp1824
a(S'100001995016667'
S'\\u062d\\u0645\\u064a\\u062f \\u062a\\u0646\\u0647\\u0627'
tp1825
a(S'100001704778708'
S'Aamir Oria'
tp1826
a(S'100000829876955'
S'Malyar Pardes'
tp1827
a(S'100000879010058'
S'Ahmad Walid'
tp1828
a(S'100008229945505'
S'Babo Shabir'
tp1829
a(S'100002079982723'
S'Mohebullah Noori Wardak'
tp1830
a(S'100005168736709'
S'Rahmatullah Ayoubi'
tp1831
a(S'100000652532765'
S'\\u0627\\u062d\\u0645\\u062f\\u0648\\u0644\\u06cc \\u0633\\u0631\\u062d\\u062f\\u06cc'
tp1832
a(S'100004030275030'
S'Hela Muhammadi'
tp1833
a(S'100002011342983'
S'Khoshal Nassery'
tp1834
a(S'100002080093417'
S'Mahmoud Nasimi'
tp1835
a(S'1300917649'
S'Rafiullah Stanikzai'
tp1836
a(S'100006602670858'
S'Azizullhaq Babakarkhail'
tp1837
a(S'100001992984442'
S'Iqbal Zarmalwal'
tp1838
a(S'100000062771308'
S'Matiullah Safi'
tp1839
a(S'100000999041317'
S'Omidali Wardak'
tp1840
a(S'1244561328'
S'D\\u00e4\\u0175\\u00f3\\u00f2d \\u00cebr\\u00e3h\\u00ecm\\u00ee'
tp1841
a(S'100001833213326'
S'Shafiq Ahmadzai'
tp1842
a(S'100002237196254'
S'Waheed Mansori'
tp1843
a(S'100004093531730'
S'Abdul Rahim Ayoubi'
tp1844
a(S'100003780251436'
S'Sadullah Mohmand'
tp1845
a(S'100007575423975'
S'Ziaullah Sobhani'
tp1846
a(S'100006359101548'
S'Hanzala Hedayat Tagabi'
tp1847
a(S'100007140127794'
S'\\u0646\\u067e\\u0644\\u0648\\u0631\\u0646\\u06a9\\u06cc \\u0689\\u0644\\u0647'
tp1848
a(S'100001971594534'
S'Nasima Sharifi'
tp1849
a(S'100004703919442'
S'Nasibullah Zaky'
tp1850
a(S'100002298303184'
S'Saifurahman Shirzad'
tp1851
a(S'100002251592163'
S'Najeeb Ullah Nasir Nasar'
tp1852
a(S'100000191000850'
S'Ahmad Shah Arghandawai'
tp1853
a(S'100001662242562'
S'ML Pashton'
tp1854
a(S'100002249945593'
S'Imran Tokhi'
tp1855
a(S'100001979969047'
S'Enayatullah Sharifi'
tp1856
a(S'100000128808404'
S'Hamid Faraaz'
tp1857
a(S'100002120628705'
S'Nadia Khan'
tp1858
a(S'100002095353887'
S'Sayeed Rehman Sulaiman'
tp1859
a(S'100000899106996'
S'Edrees Sadat Safi'
tp1860
a(S'1593316345'
S'Sakhi Ahmad Yemgani'
tp1861
a(S'100007201980113'
S'Ramani Khosti'
tp1862
a(S'731251755'
S'Enayat Safi'
tp1863
a(S'100001861459741'
S'Khalid Bin Walid'
tp1864
a(S'100001332290373'
S'Bakhtiar Naseri'
tp1865
a(S'100008361938187'
S'Anisuzzaman Khandakar'
tp1866
a(S'100002327979344'
S'Asmat Ullah Yaqoobi'
tp1867
a(S'100001069335241'
S'Arman Armani'
tp1868
a(S'100001831558138'
S'Abdul Wahab Sharifi'
tp1869
a(S'1587120484'
S'Hameed Farzam'
tp1870
a(S'100004492660446'
S'Hazrat Mohammad'
tp1871
a(S'100000506776290'
S'Manoj Rathod'
tp1872
a(S'100003704362511'
S'Ahmad Gul Hemat'
tp1873
a(S'100001424142204'
S'Najibullah Stankzai Ludin'
tp1874
a(S'1017264668'
S'Ahmad Khattak'
tp1875
a(S'100001380105097'
S'Mustafa Khan'
tp1876
a(S'100001764384310'
S'Salman Khan'
tp1877
a(S'1798172634'
S'Zabiullah Hayat'
tp1878
a(S'100007196709306'
S'Zabehullah Miakhil'
tp1879
a(S'100002242446731'
S'Sahel Wafa'
tp1880
a(S'100006071714623'
S'Ab Mutalib Ibrahimkhail'
tp1881
a(S'100000562130615'
S'Rahmatullah Afzali'
tp1882
a(S'100001876303484'
S'Optimistic Guy'
tp1883
a(S'100000659307804'
S'Sultanhameed Habibzai'
tp1884
a(S'100001763175681'
S'Niamatullah Qeyami'
tp1885
a(S'100001589096089'
S'Hasibullah Nazary'
tp1886
a(S'100001600821526'
S'Afzal Muhammad'
tp1887
a(S'100000966303291'
S'Mohammed Daud Ahmadi'
tp1888
a(S'100007452665386'
S'SajjadAhmad Pardesi'
tp1889
a(S'100001078989169'
S'Fawad Jadeedi'
tp1890
a(S'100001009737214'
S'Mukhlis Ubaid'
tp1891
a(S'100000582709552'
S'Kader Helmandia'
tp1892
a(S'100006942639042'
S'Amin Agha'
tp1893
a(S'100002396177972'
S'Aimal Malakhel'
tp1894
a(S'100000418912040'
S'Haji Rahim Gul Maidanwal'
tp1895
a(S'100001878257031'
S'Abdul Wali Ahmadzai'
tp1896
a(S'100000711594973'
S'Nasir Mangal'
tp1897
a(S'1234963463'
S'Jamal Tarakai'
tp1898
a(S'100001764853074'
S'Jamal Khan Tarakai'
tp1899
a(S'100002922707208'
S'Mansor Sahar'
tp1900
a(S'100001313388700'
S'Wahid Ullah Naamani'
tp1901
a(S'100000023311519'
S'Aimal Sultanzai'
tp1902
a(S'100000704254073'
S'Nasir Ahmad Chakari'
tp1903
a(S'553733728'
S'Pardise Janan Buneri'
tp1904
a(S'100000581268667'
S'Jamil Ahmad Quraishi'
tp1905
a(S'100001916942437'
S'Shaheed Najibullah'
tp1906
a(S'100000189094550'
S'Pukhtun Yam'
tp1907
a(S'100001469378937'
S'\\u0634\\u0641\\u06cc\\u0642 \\u0627\\u0641\\u0636\\u0644\\u06cc'
tp1908
a(S'100002140231772'
S'Amanullahkhan Kharoti'
tp1909
a(S'675242667'
S'Hameed Katawazi'
tp1910
a(S'100001745870571'
S'Ased Jan'
tp1911
a(S'100005941896676'
S'Asma Jaan Asma Jaan'
tp1912
a(S'100005441251016'
S'Fazel Stanikzai'
tp1913
a(S'100001721232990'
S'\\u062f\\u067e\\u069a\\u062a\\u0646\\u0648 \\u0634\\u0627\\u0639\\u0631\\u0627\\u0646\\u0648 \\u067c\\u0648\\u0644\\u0646\\u0647'
tp1914
a(S'100004804897443'
S'Maqsood Durrani'
tp1915
a(S'100000023825689'
S'\\u0639\\u0645\\u0631 \\u0627\\u0644\\u0633\\u0648\\u064a\\u0644\\u0645\\u064a'
tp1916
a(S'100004938361373'
S'Rahimullah Allahyar'
tp1917
a(S'1433414045'
S'Khushal Asefi'
tp1918
a(S'100000350667459'
S'DrGul Radin Haqmal'
tp1919
a(S'100001846909493'
S'Issaq Danish'
tp1920
a(S'100000208811795'
S'Abaseen Khan Durrani'
tp1921
a(S'100001592539822'
S'Zamaryalai Mandozai'
tp1922
a(S'1520353781'
S'Abdul Hakeem Khogyani'
tp1923
a(S'1322031195'
S'Muhib Rahmati'
tp1924
a(S'100001479017795'
S'Tooryalai Rafiq'
tp1925
a(S'100001702825740'
S'Abdullah Ahmadzai'
tp1926
a(S'100007675113902'
S'Said Hafizullah Hashemi'
tp1927
a(S'100001613779337'
S'Nasib Ullah Afghan'
tp1928
a(S'1710691468'
S'Maryam Simba-Zamandan'
tp1929
a(S'100001542737727'
S'Khan Khan'
tp1930
a(S'100001766153497'
S'\\u0635\\u0631\\u0641 \\u0644\\u0628\\u062e\\u0646\\u062f'
tp1931
a(S'100007660111265'
S'Sabaoon Hotak'
tp1932
a(S'100001489331115'
S'Faizullah Isaqzai'
tp1933
a(S'100003628914623'
S'Na Eem Afg'
tp1934
a(S'100002143336448'
S'Nazar Khan Achikzai'
tp1935
a(S'100001263745021'
S'Khalid Nabizada'
tp1936
a(S'100002022685196'
S'Ghani Hassan'
tp1937
a(S'100002656102724'
S'Saidullah Khalil'
tp1938
a(S'100002209159617'
S'Omid Zahirmal'
tp1939
a(S'100006897043291'
S'Abdulhamid Noorzai'
tp1940
a(S'100001719580934'
S'Jon Noor'
tp1941
a(S'1190851416'
S'Wajib Rehman'
tp1942
a(S'1442646181'
S'Najo Negar'
tp1943
a(S'100003678644025'
S'Jamil Ehsas'
tp1944
a(S'100000531221454'
S'Sebghatullah Safi'
tp1945
a(S'100002370132987'
S'Saif Sapai'
tp1946
a(S'100002354357396'
S'Kaihan Love'
tp1947
a(S'100000833007629'
S'M Hakim Arman Afghan'
tp1948
a(S'100002021453051'
S'Pervez Pardes Sangarwal'
tp1949
a(S'100001022622899'
S'Mirwais Zazai'
tp1950
a(S'100002267148006'
S'Mohammad Arif Ahmady'
tp1951
a(S'100000831264741'
S'Leeda Ahmadzai'
tp1952
a(S'100000362970949'
S'Abdullah Akbari'
tp1953
a(S'1399983585'
S'Mohammad Qasem Ghairat'
tp1954
a(S'100001298251684'
S'Haydari Wardak'
tp1955
a(S'100007613052566'
S'Faizullah Afghar'
tp1956
a(S'100000035700872'
S'Nematullah Wd Basharwal'
tp1957
a(S'100001425787420'
S'Asfandyar Azeemi'
tp1958
a(S'100000563218387'
S'Khan Grace'
tp1959
a(S'100002078016505'
S'Pamir Andish'
tp1960
a(S'100002026627456'
S'Mentajudin Habibe'
tp1961
a(S'100001653831872'
S'Saleh Aziz'
tp1962
a(S'100001761195618'
S'Javed Iqbal Khattak'
tp1963
a(S'100001226683129'
S'Horakhsh Ariaye'
tp1964
a(S'100005610272412'
S'Imam Ali'
tp1965
a(S'100002062808749'
S'Ritu Sharma'
tp1966
a(S'100001734220260'
S'Abdul Jabbar'
tp1967
a(S'100002246977134'
S'Najeeb Khan Pushtun'
tp1968
a(S'100002443632454'
S'Usman Kuchey'
tp1969
a(S'100002218144980'
S'Abid Khan'
tp1970
a(S'100001980731266'
S'Nisar Ahmad Sultanzoi'
tp1971
a(S'100007056091070'
S'Mohammad Yassin'
tp1972
a(S'100001887653101'
S'Mehmet Ozbek'
tp1973
a(S'100004636121422'
S'Dellawarshah Mangal'
tp1974
a(S'100001526301802'
S'\\u0646\\u0648\\u0631\\u06cc \\u064a\\u0648\\u0627\\u0632\\u064a'
tp1975
a(S'100003632259102'
S'\\u0639\\u0628\\u062f\\u0627\\u0644\\u0644\\u0647 \\u0627\\u062d\\u0645\\u062f\\u0632\\u06cc'
tp1976
a(S'100002264735175'
S'Samim Khan Pakhton'
tp1977
a(S'1665681460'
S'Ahmad Samim'
tp1978
a(S'100001721440193'
S'Abdul Kabeer Muqeem'
tp1979
a(S'100008301532170'
S'Matin Amiri'
tp1980
a(S'100007441233106'
S'Anwar Dewana'
tp1981
a(S'100000471245595'
S'Jalees Mir Khaqan'
tp1982
a(S'100002083366407'
S'Saranwal Matiullah Ahmadi'
tp1983
a(S'100001561041937'
S'Wazir Ahmad Harifal'
tp1984
a(S'698901073'
S'Sayeed Ahmad Qani'
tp1985
a(S'100000005920454'
S'Sayed Farid Azam'
tp1986
a(S'100000613453389'
S'Mujahid Kakar'
tp1987
a(S'100001013540806'
S'Pmkarwan Karwan'
tp1988
a(S'100002201072847'
S'Pashtoon Nationalism'
tp1989
a(S'100001861138330'
S'Zain Malik'
tp1990
a(S'100000629303572'
S'Fatima Khawar'
tp1991
a(S'1198996249'
S'B Ali Ali'
tp1992
a(S'100007359520442'
S'Khatira Namorad'
tp1993
a(S'100006731766615'
S'Orfanullah Orfan'
tp1994
a(S'100001768696232'
S'Basir Amn'
tp1995
a(S'100002127297275'
S'Qasim Udass'
tp1996
a(S'100002448029139'
S'Safia Sahar Samim'
tp1997
a(S'100000117835487'
S'Jalil Wahabzai'
tp1998
a(S'100002141236630'
S'Hukum Khan Dawlatzai'
tp1999
a(S'100000488589727'
S'Ab Qadeer Hamdard'
tp2000
a(S'100002124369916'
S'Naseem Pasarlay'
tp2001
a(S'100004318984557'
S'\\u0627\\u064a\\u0648\\u0628 \\u062e\\u0631\\u0648\\u062a\\u064a'
tp2002
a(S'100002317939538'
S'Naila Riaz'
tp2003
a(S'100008240853382'
S'Sarwar Haidari'
tp2004
a(S'100002219941816'
S'Umair Merci'
tp2005
a(S'100000856807416'
S'Jan Bahlol'
tp2006
a(S'100001637197459'
S'Imran Khattak'
tp2007
a(S'100008024048381'
S'Faisal Noorzai'
tp2008
a(S'100002249366735'
S'Watan Gul'
tp2009
a(S'100002212354940'
S'Khaneykhan Sherani'
tp2010
a(S'100000647087839'
S'Rehmat Qayyum'
tp2011
a(S'100002169340737'
S'Eng Fazalrahman Ikhlas'
tp2012
a(S'100001048497665'
S'Nazawalai Fardeen'
tp2013
a(S'100000977345589'
S'Samoon Shar'
tp2014
a(S'100001253449118'
S'Asaila Jan Saba'
tp2015
a(S'100002201263894'
S'Waheedullah Zazai'
tp2016
a(S'100002437300840'
S'Asif Khan'
tp2017
a(S'100002234078738'
S'Shahwali Sayadi'
tp2018
a(S'100000890245039'
S'Sayed Ahmad'
tp2019
a(S'100000546459710'
S'Amjad Ali'
tp2020
a(S'1305987267'
S'Abdulrahman Yousafi'
tp2021
a(S'100007709851838'
S'Khoshal Khogman'
tp2022
a(S'548831786'
S'Nangarhari Halak'
tp2023
a(S'100003895413244'
S'Asad Ullah'
tp2024
a(S'100002054178673'
S'DjArke Rum'
tp2025
a(S'100004530850972'
S'Shah Muhmmad'
tp2026
a(S'100002059056603'
S'Tanveer Baig'
tp2027
a(S'100002445764503'
S'Muhammad Asim Arefi'
tp2028
a(S'523937036'
S'Afghan Friend'
tp2029
a(S'100001810394248'
S'Javed Ahmad Sayedi'
tp2030
a(S'100000551445846'
S'Kifayat Jan'
tp2031
a(S'100002240976092'
S'Ramin Noori'
tp2032
a(S'100007632494416'
S'Zargi Shenwary'
tp2033
a(S'100002002798490'
S'\\u0633\\u0644\\u06ab\\u06cd \\u0633\\u06a9\\u0648\\u062a'
tp2034
a(S'100006118603059'
S'Masihullah Akbari'
tp2035
a(S'100001161272422'
S'Wazir Zaukiwal'
tp2036
a(S'100000493997206'
S'Wariskhan Hotak'
tp2037
a(S'100002175792738'
S'Attaullah Sahil'
tp2038
a(S'100007532563222'
S'Ladla Jan'
tp2039
a(S'1312646939'
S'Adam Khan Serat'
tp2040
a(S'100002295994766'
S'Safa Afghan'
tp2041
a(S'100001048658900'
S'Jawad Aryan'
tp2042
a(S'100000591387339'
S'Omar Ahmadzai'
tp2043
a(S'100003292492417'
S'Ibrahim Wardag'
tp2044
a(S'100002066362718'
S'Kamran Rahi'
tp2045
a(S'100007712862294'
S'Abdelwasa Afghan'
tp2046
a(S'100004140423882'
S'Hidayatullah Habibi'
tp2047
a(S'100006393520790'
S'Zurmat Jaan Hemayat'
tp2048
a(S'100000021954324'
S'Inamullah Khakrizwal'
tp2049
a(S'100002357384462'
S'Aziz Ahmadzai'
tp2050
a(S'100002021882617'
S'Heela Sahar'
tp2051
a(S'100001593647846'
S'Nadeem Afzal'
tp2052
a(S'100001394950255'
S'Salimee Wardak'
tp2053
a(S'100001272081461'
S'Nasratullah Nasrat'
tp2054
a(S'692496658'
S'RJ Mudassar Zaman'
tp2055
a(S'100007301615325'
S'Ezatullah Zaki'
tp2056
a(S'100001043446388'
S'Aj Sahak'
tp2057
a(S'100004945990720'
S'MohammadFahim Rasuly'
tp2058
a(S'100002102256644'
S'Hekmatullah Mashal'
tp2059
a(S'100002225987543'
S'Emal Safi'
tp2060
a(S'100001565990073'
S'Mujahid Andarabi'
tp2061
a(S'100003924060464'
S'Muhammad Fahim'
tp2062
a(S'100001710325048'
S'Abasin Mashal'
tp2063
a(S'100002438853542'
S'Asma Loveafghan'
tp2064
a(S'100000928567790'
S'Azad Khan Afghan'
tp2065
a(S'100002309400541'
S'Waisuddin Ahmadzai'
tp2066
a(S'100002221914935'
S'Parveen Khan'
tp2067
a(S'100006771637847'
S'Habibullah Rasuli'
tp2068
a(S'100004686847599'
S'Muzamilkhan Afg'
tp2069
a(S'1082266640'
S'Spin Ghar'
tp2070
a(S'100000919508066'
S'Ogundoju Wolejoe'
tp2071
a(S'100002200951245'
S'Momen Khan'
tp2072
a(S'1756107527'
S'Menhaj Ul Haq Haqyaar'
tp2073
a(S'541625502'
S'Fahim Zazai'
tp2074
a(S'100002841394733'
S'Wali Sealab'
tp2075
a(S'100000224594952'
S'ZiaurRahman Khalili'
tp2076
a(S'100002229420671'
S'Janat Khan'
tp2077
a(S'566401230'
S'Murad Zabuli'
tp2078
a(S'100000609208516'
S'Zia Mandozai'
tp2079
a(S'100001036292639'
S'Khalid Afghan'
tp2080
a(S'100001551006532'
S'Sana Ullah Amirzai'
tp2081
a(S'100002388831388'
S'Mukhtar Ahmad Mangal'
tp2082
a(S'100007148914500'
S'Hamidullah Oryakhail'
tp2083
a(S'100006952740721'
S'\\u0633\\u062a\\u0648\\u0631\\u064a \\u067e\\u069a\\u062a\\u0627\\u0646\\u0647'
tp2084
a(S'100002247422966'
S'Aryan Khan'
tp2085
a(S'100001071156679'
S'Abdul Rahman Habibzui'
tp2086
a(S'100007177621674'
S'\\u0645\\u062d\\u06cc\\u0628 \\u0627\\u0644\\u0644\\u0647 \\u0648\\u0635\\u0627\\u0644'
tp2087
a(S'100002573018675'
S'Wali Hemat Mangal'
tp2088
a(S'100005013996622'
S'Daud Jami'
tp2089
a(S'100002124605798'
S'Khanjee Sani'
tp2090
a(S'100006338172313'
S'Habib Mangal'
tp2091
a(S'1472558326'
S'\\u067e\\u0631\\u062f\\u06cc\\u0633 \\u062a\\u06a9\\u0644'
tp2092
a(S'100002238142905'
S'Gulagha Zamiri'
tp2093
a(S'100003320949422'
S'Guhar Kabuli'
tp2094
a(S'100001647745688'
S'Zakir Khan'
tp2095
a(S'100001410799010'
S'Salma Salam'
tp2096
a(S'100002142054840'
S'Christ Yooma'
tp2097
a(S'100003778970362'
S'Gahiz Nijat'
tp2098
a(S'100007961804232'
S'Hamidullah Hasib'
tp2099
a(S'100000311462144'
S'Waheed Khan'
tp2100
a(S'1263810729'
S'Moh Nazaree'
tp2101
a(S'100001147092007'
S'Tamim Sahil'
tp2102
a(S'100007146421501'
S'Samsoor Omari'
tp2103
a(S'100007620789775'
S'Shabnam Ayan'
tp2104
a(S'100003696614468'
S'Jawed Norzoy'
tp2105
a(S'100001128134921'
S'Adil Ahmadzai'
tp2106
a(S'100000788684864'
S'Hanif Ullah Safi'
tp2107
a(S'100002253811634'
S'Feroz Askarzada'
tp2108
a(S'100001592423879'
S'Matiulhaq Qasmi'
tp2109
a(S'100001013985597'
S'Rakesh Bhatt'
tp2110
a(S'100000969496597'
S'Ahmad Naweed'
tp2111
a(S'100002922922025'
S'Amanullah Ranzor'
tp2112
a(S'100002131694100'
S'Nabeela Noorzai'
tp2113
a(S'100000385645654'
S'Basyal Naziri'
tp2114
a(S'100001368927728'
S'Hafizullah Mubariz'
tp2115
a(S'100005423706127'
S'Sefatullah Naimi'
tp2116
a(S'100000272344648'
S'Asadullah Farooqi'
tp2117
a(S'100001361750327'
S'Abdul Latif Qazizada'
tp2118
a(S'1154882259'
S'Waheed Zazai'
tp2119
a(S'100005076551024'
S'Sharif Sefatzai'
tp2120
a(S'100003639439217'
S'Naim Tanha'
tp2121
a(S'100003270199916'
S'Asif Zawi'
tp2122
a(S'100001785088381'
S'Walikhan Mangal'
tp2123
a(S'100002090596973'
S'Hassan Sunbhani'
tp2124
a(S'100007795080942'
S'Mohammad Usman Wafa Wafa'
tp2125
a(S'100002110671935'
S'Farooq Adil'
tp2126
a(S'100004332133974'
S'Najeebullah Sahil'
tp2127
a(S'100006296710960'
S'Sawabkhan Mangal'
tp2128
a(S'1246540357'
S'Sharif Habib'
tp2129
a(S'100002295185720'
S'Nisarahmad Pedram'
tp2130
a(S'100004056003202'
S'Samy Armani'
tp2131
a(S'100002362621755'
S'\\u063a\\u0648\\u0631\\u0628\\u0646\\u062f \\u062f\\u0681\\u0648\\u0627\\u0646\\u0627\\u0646\\u0648 \\u067c\\u0648\\u0644\\u0646\\u0647'
tp2132
a(S'100003042849923'
S'Marwa Jana'
tp2133
a(S'100002277881953'
S'Hedayatullah Agha'
tp2134
a(S'100001702623383'
S'Ahsan Ullah'
tp2135
a(S'684042150'
S'Tazagol Mahboob Shinwary'
tp2136
a(S'1267326893'
S'Margaret L Hester'
tp2137
a(S'100002247786126'
S'Qadim Khan'
tp2138
a(S'100002161813167'
S'Mahmood Wakman'
tp2139
a(S'1028934522'
S'Shafiq Ur Rehman Shafaq'
tp2140
a(S'100003367841191'
S'Hayat Khan Mangal'
tp2141
a(S'100000713274155'
S'Ahmad Reshad Hamidi'
tp2142
a(S'100001663515771'
S'\\u0645\\u062d\\u0645\\u062f\\u0646\\u0639\\u06cc\\u0645 \\u0631\\u062d\\u0645\\u0627\\u0646\\u06cc'
tp2143
a(S'100002282013175'
S'Ainullah Ayan'
tp2144
a(S'100007553073484'
S'Sadiq Afghan'
tp2145
a(S'100002155802072'
S'Alam Buneri'
tp2146
a(S'1233171601'
S'Khair Mohammad Zahid'
tp2147
a(S'100000868233609'
S'Azat Noor Khosty'
tp2148
a(S'100001111801712'
S'Abdul MaJeed Abbasi'
tp2149
a(S'100001547023997'
S'Anas Esmati'
tp2150
a(S'100000649461494'
S'Sayed Nazeem Sayedi'
tp2151
a(S'100003222866634'
S'Gharzai Khwakhuzhi'
tp2152
a(S'100007965672089'
S'Hosna Tanha'
tp2153
a(S'100001802960062'
S'Rahmatullah Paktiawal'
tp2154
a(S'100002301615338'
S'Mohibullah Mohib'
tp2155
a(S'100000486192632'
S'Noor Sahak'
tp2156
a(S'100002232657934'
S'Ayoub Tani'
tp2157
a(S'1372387866'
S'Pashtana Sail Sail'
tp2158
a(S'722137267'
S'Javed Ahmad Hejrat'
tp2159
a(S'100000595596515'
S'Naseeb Sherzad'
tp2160
a(S'100001755079493'
S'Noorullah Wz'
tp2161
a(S'100002156566599'
S'\\u062d\\u0633\\u06cc\\u0628 \\u0627\\u0644\\u0644\\u0647 \\u0639\\u0627\\u06a9\\u0641'
tp2162
a(S'100008301068999'
S'Salim Akhtar'
tp2163
a(S'100002058218382'
S'Hazrat Shams'
tp2164
a(S'100000471811942'
S'Shafiq Ahmad Ahmadzai'
tp2165
a(S'100002099564085'
S'Hazratullah Samon'
tp2166
a(S'100000609076275'
S'Sussan Ahmadi'
tp2167
a(S'1348764877'
S'Hekmat Hekmat'
tp2168
a(S'1683276166'
S'Jan Khostai Shir'
tp2169
a(S'100003088567214'
S'Hazrat Khan Halimi'
tp2170
a(S'1424063770'
S'Ajmal Sultani'
tp2171
a(S'100007664736131'
S'Javid Ahmad Tanwir'
tp2172
a(S'100005992831203'
S'Painda Khan'
tp2173
a(S'100002017032427'
S'Ziaullah Buneri'
tp2174
a(S'100001591977847'
S'Sanga Spoogmi'
tp2175
a(S'100000876889213'
S'Kochai Afghan'
tp2176
a(S'100000400411046'
S'Ofuq Khushal'
tp2177
a(S'100001730916131'
S'Obaidullah Otmankhail'
tp2178
a(S'100000608225238'
S'Zulmai Helmand'
tp2179
a(S'100002015034034'
S'Sahar Setare'
tp2180
a(S'100002877953546'
S'Naqib Naqibkhan'
tp2181
a(S'100002312397917'
S'Maheen Ullah Mahjor'
tp2182
a(S'100002242310432'
S'Hekmatullah Lawang'
tp2183
a(S'1381363893'
S'Khalid Banazada'
tp2184
a(S'100001985940167'
S'Abdul Khalil'
tp2185
a(S'100001611346278'
S'Naveed Jan'
tp2186
a(S'100001793864590'
S'Malala Khan'
tp2187
a(S'100000725857020'
S'Mohammad Zia Mirzayee'
tp2188
a(S'100001506679475'
S'Abid Wafa'
tp2189
a(S'100002088130191'
S'Sadia Khan'
tp2190
a(S'100002380712510'
S'Habib Ullah'
tp2191
a(S'100002192320877'
S'Hamza Karim'
tp2192
a(S'100001737318557'
S'Moneer Ahmad'
tp2193
a(S'100001555588574'
S'Zainullah Stanikzai'
tp2194
a(S'1694928591'
S'Atiqullah Sadiqi Niazi'
tp2195
a(S'100000800319544'
S'Nikmohammad Selab'
tp2196
a(S'100000188042158'
S'Suleman Khan'
tp2197
a(S'100002029915037'
S'Ahsanullah Ehsas'
tp2198
a(S'1415707137'
S'Sayed Ahmad Shah'
tp2199
a(S'100000693110239'
S'Aimal Fayaz'
tp2200
a(S'100001252634375'
S'Waleed Bin Hariz'
tp2201
a(S'728613827'
S'Mohammad Ziaulhaq Aslami'
tp2202
a(S'100001859333632'
S'Mangal Amc'
tp2203
a(S'100002279641873'
S'Mohammad Wali Suliman Afghan'
tp2204
a(S'100001062896052'
S'\\u0634\\u067e\\u0648\\u0646\\u06a9\\u06cc \\u067e\\u069a\\u062a\\u0648\\u0646 \\u062a\\u0631\\u0647 \\u062e\\u06cc\\u0644'
tp2205
a(S'100001990457225'
S'Wahidullah Tawhidy'
tp2206
a(S'100001948880039'
S'Ahmad Zia N'
tp2207
a(S'1006207542'
S'Berat Ali Ahmedi'
tp2208
a(S'100001058601184'
S'Irfan Anwer'
tp2209
a(S'100002013894384'
S'Prince Khan Tareen'
tp2210
a(S'100000812752765'
S'Wali Hotak'
tp2211
a(S'100004156782969'
S'Babrak Yousaf'
tp2212
a(S'100002741418769'
S'Mohammad Alezada'
tp2213
a(S'100001864172261'
S'Paktiawal Sahib'
tp2214
a(S'724640734'
S'Hussaini Farhat'
tp2215
a(S'100000576448639'
S'Majid Khan'
tp2216
a(S'100002455893594'
S'Shawali Wafa'
tp2217
a(S'100000779598245'
S'Shafiqullah Af'
tp2218
a(S'100001336125378'
S'Ghafoor Maroof'
tp2219
a(S'100006949830747'
S'Hidayatullah BroHi'
tp2220
a(S'100006151985262'
S'Darya Ahmadi'
tp2221
a(S'100002009846524'
S'Abdul Tanha'
tp2222
a(S'1763785316'
S'Qaisullah Wafa'
tp2223
a(S'100003314210620'
S'Hussain Hasrat'
tp2224
a(S'100002019702821'
S'\\u0639\\u0645\\u0631\\u0627\\u0646 \\u0648\\u0641\\u0627'
tp2225
a(S'100007403130672'
S'Mohammad Ullah Ahmadzai'
tp2226
a(S'100003462742252'
S'Sheer Janatzoy Mangal'
tp2227
a(S'100001217997181'
S'Rafiullah Salar'
tp2228
a(S'100001941173226'
S'Arash Nangial'
tp2229
a(S'100002282884025'
S'Abdul Jalil Zarmalwal'
tp2230
a(S'100002766120839'
S'Omari Sharif'
tp2231
a(S'733420646'
S'A Ashrati Amarkhail'
tp2232
a(S'1366681298'
S'Hematullah Aminzay'
tp2233
a(S'100001221897268'
S'Saif Masood'
tp2234
a(S'100003540068776'
S'Pakhtoon Lalzoy'
tp2235
a(S'100001506999319'
S'Emal Wardag'
tp2236
a(S'100001169342916'
S'Mohammad Khalid Jahanyar'
tp2237
a(S'100001240298336'
S'Maiwand Ahmadzai'
tp2238
a(S'100002084328987'
S'Mayaz Ayaz'
tp2239
a(S'100001496267147'
S'Wasiq Ur Rhman Ahmady'
tp2240
a(S'100007770904197'
S'Noor Habib Sherzai'
tp2241
a(S'100002214836259'
S'Khesraw Sultan Khan'
tp2242
a(S'100001088162171'
S'Masiullah Shoja'
tp2243
a(S'100007858891781'
S'Dalawer Afghan'
tp2244
a(S'100001167206244'
S'Ibrahim Karim'
tp2245
a(S'100004991228214'
S'Said Jalaludin Hashime'
tp2246
a(S'1463204925'
S'Muhammad Ayub'
tp2247
a(S'100003568385641'
S'Abdulnasir Rasouli'
tp2248
a(S'100000492863350'
S'Javid Nasiri'
tp2249
a(S'100001549728644'
S'Amrin Safi Himead'
tp2250
a(S'100002299955370'
S'Baz Muhammad Mangal'
tp2251
a(S'100000768807414'
S'Hussain Yousafzai'
tp2252
a(S'100001807731067'
S'Najeebullah Hairan'
tp2253
a(S'557543022'
S'Murid Shafaq'
tp2254
a(S'100001693524772'
S'Wali Olaaspal'
tp2255
a(S'100001443988435'
S'Hamayon Safi'
tp2256
a(S'100001541548668'
S'Mohammad Rahman Nasari'
tp2257
a(S'1188525208'
S'Hamad Wardak'
tp2258
a(S'100001219518420'
S'Sajid Ullah'
tp2259
a(S'100001236157658'
S'Ibrahime Shadeezai'
tp2260
a(S'100001022581208'
S'Shahwali Karimzoy'
tp2261
a(S'100007442800248'
S'Tsc Afghanistan'
tp2262
a(S'100003910423462'
S'Iqbal Ahmad Khan'
tp2263
a(S'100000415377808'
S'Salar Safi'
tp2264
a(S'100002241341660'
S'Ala Idrissi'
tp2265
a(S'100001331937902'
S'Fazelhaq Wseeq'
tp2266
a(S'100001519445938'
S'Mohibullah Alimi'
tp2267
a(S'804282849'
S'Said Miran Niazi'
tp2268
a(S'1096877151'
S'Subhan Ullah'
tp2269
a(S'100001260647807'
S'Hafiz Bin E Tahir'
tp2270
a(S'100006427744463'
S'Naveed Ahmad Sahil'
tp2271
a(S'100001202092242'
S'\\u0645\\u062d\\u0645\\u062f \\u0646\\u0639\\u06cc\\u0645 \\u062e\\u067e\\u0644\\u0648\\u0627\\u06a9'
tp2272
a(S'100005596410283'
S'Hajikhan Himat'
tp2273
a(S'100002225468883'
S'Loy Afghanistan Pashton'
tp2274
a(S'100000877025349'
S'Imran Ahmadzai'
tp2275
a(S'100000274191324'
S'Shahzada Halim Afghan'
tp2276
a(S'100003242470476'
S'Abdul Rahman Amiri'
tp2277
a(S'100008040607425'
S'Safiullah Asfi'
tp2278
a(S'100001300526558'
S'Shukrullah Pasoon'
tp2279
a(S'100001627613836'
S'\\u0639\\u0628\\u062f\\u0627\\u0644\\u0635\\u0645\\u062f \\u0641\\u0648\\u0644\\u0627\\u062f'
tp2280
a(S'100001688648284'
S'Zarmin Khan'
tp2281
a(S'100002251667114'
S'Adrian Solomon'
tp2282
a(S'100001566604431'
S'Naimat Mangal'
tp2283
a(S'1640806911'
S'Ihsanullah Shagiwal'
tp2284
a(S'100007054535773'
S'Shams Tanha'
tp2285
a(S'100002717688486'
S'Sadat Khan'
tp2286
a(S'100000568690039'
S'Hamid Ihsas'
tp2287
a(S'100001542725937'
S'Akbar Wardak'
tp2288
a(S'1508893751'
S'Ayaz Salarzai'
tp2289
a(S'100003243386979'
S'Aziz Bahir'
tp2290
a(S'100002013466539'
S'Bismillah Khan Zadran'
tp2291
a(S'1807793607'
S'Shams Shinwari'
tp2292
a(S'100002088923088'
S'Zia Bumia'
tp2293
a(S'100002288928048'
S'Touryalai Sayed Khail'
tp2294
a(S'100000213031578'
S'Noorwali Wafa'
tp2295
a(S'100000690477565'
S'Nadir Danish'
tp2296
a(S'865950581'
S'Waheed Ahmadzai'
tp2297
a(S'100001182338462'
S'Shawali Wardak'
tp2298
a(S'100005065929971'
S'Wahidullah Aman'
tp2299
a(S'100001981215907'
S'\\u0636\\u064a\\u0627\\u0621 \\u0627\\u0644\\u0631\\u062d\\u0645\\u0646'
tp2300
a(S'100000799942061'
S'Shamsudin Malang ZAzai'
tp2301
a(S'100007698133819'
S'Masood Noori'
tp2302
a(S'100001986810775'
S'\\u0627\\u0646\\u062c\\u0646\\u064a\\u0631\\u0646\\u062c\\u064a\\u0628 \\u0632\\u0631\\u0645\\u062a\\u064a'
tp2303
a(S'100002980774955'
S'\\u0639\\u0628\\u062f\\u0627\\u0644\\u0633\\u0644\\u0627\\u0645 \\u0639\\u0645\\u0631\\u064a'
tp2304
a(S'100001436079559'
S'Farishta Noor'
tp2305
a(S'582861015'
S'Nemat Afghan Wahidi'
tp2306
a(S'100000842052411'
S'Nasrullah Nasrat'
tp2307
a(S'100006503530130'
S'Ehsan Eliyaszoi'
tp2308
a(S'100002001270271'
S'Bakhtyar Zwanmal'
tp2309
a(S'100001440891770'
S'Ahmad Fawad'
tp2310
a(S'100000423382087'
S'Rahi Khan'
tp2311
a(S'100002216486188'
S'\\u0635\\u062f\\u06cc\\u0642 \\u0627\\u062d\\u0645\\u062f\\u0632\\u06cc'
tp2312
a(S'100001982440957'
S'Wasif Akbari'
tp2313
a(S'100001927986135'
S'\\u0627\\u0641\\u063a\\u0627\\u0646 \\u06cc\\u0648 \\u0648\\u0627\\u0644\\u06cc'
tp2314
a(S'100002017508915'
S'Sakoon Jan'
tp2315
a(S'100001641329105'
S'Noman Khan'
tp2316
a(S'100000846724652'
S'Fareed Khan'
tp2317
a(S'100003041052304'
S'Nawid Yarzada'
tp2318
a(S'100002008518586'
S'Ismail Shenwari'
tp2319
a(S'100008117261219'
S'Gul Badshah Mangal'
tp2320
a(S'100002615363616'
S'Babur Aydin'
tp2321
a(S'100001569656972'
S'Bismellah Bismell'
tp2322
a(S'100002232230906'
S'Raz Wafa'
tp2323
a(S'100004384627139'
S'Abdul Rahim Salarzai'
tp2324
a(S'100001555500399'
S'Mohammad Zaman Jamili'
tp2325
a(S'100003496016936'
S'Mi Lad'
tp2326
a(S'100001131541676'
S'Koshan Safi'
tp2327
a(S'100005385271211'
S'Wahid Sultani'
tp2328
a(S'100000074286772'
S'Ali Momand'
tp2329
a(S'100000661070400'
S'Faizullah Mayar'
tp2330
a(S'1754516926'
S'Khalilurahman Hanif'
tp2331
a(S'100006610990155'
S'Spin Gul Mangal'
tp2332
a(S'662888595'
S'Gul Rahman Hamdard'
tp2333
a(S'100001608935119'
S'Javed Wardak'
tp2334
a(S'100001716518893'
S'Said Ahmad Safi'
tp2335
a(S'100002111277888'
S'Mukhtiar Uddin'
tp2336
a(S'100001780212370'
S'Haider Salim'
tp2337
a(S'100000500740165'
S'Alam Ahmadi'
tp2338
a(S'100000194880408'
S'Muhammad Kareem Nakemel'
tp2339
a(S'100001575195609'
S'Hakim Hameed'
tp2340
a(S'100007650330910'
S'\\u062f\\u0627\\u06a9\\u062a\\u0631 \\u0639\\u0628\\u062f\\u0627\\u0644\\u063a\\u0641\\u0648\\u0631 \\u06cc\\u0648\\u0633\\u0641 \\u0632\\u06cc'
tp2341
a(S'100000939220508'
S'Mirwais Weyaar'
tp2342
a(S'100002023159321'
S'Edris Ameri'
tp2343
a(S'100000353049309'
S'Younas Zurmatty Zurmatty'
tp2344
a(S'100002167511170'
S'Hikmat Hassan'
tp2345
a(S'100002222402187'
S'Naeem Ahmadzai'
tp2346
a(S'1572618153'
S'Ziaullah Mohammadi'
tp2347
a(S'100002194568462'
S'Ahmed Shah'
tp2348
a(S'100003860606731'
S'Nasir Zazai'
tp2349
a(S'100000100772143'
S'Gul Shayan Arianzai'
tp2350
a(S'100005147111138'
S'Obaid Basirmangal'
tp2351
a(S'100000993494203'
S'Shafiq Sultan'
tp2352
a(S'100002347833486'
S'Esmat Shahen'
tp2353
a(S'100002260037619'
S'Ziaullhaq Sheraz'
tp2354
a(S'100000391318615'
S'Sayedullah Ahmadzai'
tp2355
a(S'1653962362'
S'Sayed Azizullah Hashimi'
tp2356
a(S'100000728350358'
S'Abdul Jalil'
tp2357
a(S'100003165423177'
S'Nizam Tahqiq'
tp2358
a(S'1329519813'
S'Hope Umeed Zadran'
tp2359
a(S'716621791'
S'Lutfullah Mashal'
tp2360
a(S'100001247657488'
S'Naseem Shadman'
tp2361
a(S'1315215307'
S'Fida Mohammad Mansoor'
tp2362
a(S'100002203115215'
S'Qais Khan'
tp2363
a(S'100007846928950'
S'Atiqullah Weqar'
tp2364
a(S'100000957313090'
S'Matin Ahmadzai'
tp2365
a(S'100000295138940'
S'Fareed Ahmad Duranai'
tp2366
a(S'100004652312080'
S'Mohammad Aref Hamdam'
tp2367
a(S'100001400663746'
S'Ymp Afghani'
tp2368
a(S'1796359175'
S'Mohammad Naveed'
tp2369
a(S'100000660185510'
S'Asifkhan Ahmadzai'
tp2370
a(S'100002246894957'
S'Sardar Waheed Khan Khilji'
tp2371
a(S'100000728457356'
S'Akbar Mandozai'
tp2372
a(S'100004537112359'
S'Ghulamsakhi Himat'
tp2373
a(S'100002538176965'
S'Momand Khostay'
tp2374
a(S'100002194756328'
S'Mohabbat Afghan'
tp2375
a(S'100001628948796'
S'Ayoub Tani'
tp2376
a(S'100001299673197'
S'Farid Ismaili'
tp2377
a(S'100001995292162'
S'Hidayatullah Shinwari'
tp2378
a(S'100001654320692'
S'Ahmad Kawoon'
tp2379
a(S'100001948498723'
S'Amanollah Popalzai'
tp2380
a(S'1767926114'
S'Muhsen Hotak'
tp2381
a(S'100007752513324'
S'Najibullah Wahide'
tp2382
a(S'100000925296914'
S'Rahim Khostwal'
tp2383
a(S'576216629'
S'Attaullah Waziry'
tp2384
a(S'100000376928288'
S'Abdul Jalil Wolaspal'
tp2385
a(S'100004744984014'
S'Nezami Sayed Samiullah'
tp2386
a(S'100001889575009'
S'Nissar Zazai'
tp2387
a(S'100007973199858'
S'Najeeb Raheme'
tp2388
a(S'100002255004936'
S'Yaqob Watanmal'
tp2389
a(S'100007060061023'
S'Aish Bahadur Dukhy'
tp2390
a(S'100002170601501'
S'Masoud Noori'
tp2391
a(S'100007729603448'
S'Gul Agha Khan'
tp2392
a(S'100002168452883'
S'Ahmad Faryadi'
tp2393
a(S'100000538526141'
S'Abdul Ghafar Shafaq'
tp2394
a(S'100007559794602'
S'Farhad Khamosh'
tp2395
a(S'100007258304209'
S'Qadarkhil Silab'
tp2396
a(S'100002243048907'
S'Syed Salman Bacha'
tp2397
a(S'100000716145799'
S'Khalid Momand'
tp2398
a(S'817966561'
S'\\u0648\\u0644\\u06cc \\u0627\\u0641\\u063a\\u0627\\u0646'
tp2399
a(S'100002058308912'
S'Pashi Rahim'
tp2400
a(S'781727441'
S'\\u0635\\u062f\\u064a\\u0642 \\u0627\\u0644\\u0644\\u0647 \\u0628\\u062f\\u0631'
tp2401
a(S'100005533003818'
S'\\u0645\\u062d\\u0645\\u062f \\u0627\\u062f\\u0631\\u06cc\\u0633 \\u0628\\u0647\\u0627\\u062f\\u0631\\u06cc'
tp2402
a(S'100002202955212'
S'Dep Eng Fazalrahman Ikhlas'
tp2403
a(S'100002172585353'
S'\\u063a\\u0631\\u0632\\u0626 \\u0627\\u0641\\u063a\\u0627\\u0646'
tp2404
a(S'100001656125542'
S'Larawbar Pashton'
tp2405
a(S'100000790257698'
S'Ramin Mulzem'
tp2406
a(S'100002627652771'
S'Homayoun Watan'
tp2407
a(S'100003174499707'
S'Hazrat Khadim'
tp2408
a(S'100000477322382'
S'Faizan Gul'
tp2409
a(S'100005153406975'
S'Karim Hakimzai'
tp2410
a(S'100002045864069'
S'Zazai Musafar Khan Zazai'
tp2411
a(S'100003140694554'
S'Kabul Khan'
tp2412
a(S'100007495777190'
S'Arif Khan Khan'
tp2413
a(S'100001543992077'
S'Said Anwar'
tp2414
a(S'100002167610768'
S'Shafiqullah Safi'
tp2415
a(S'100004847853387'
S'Merwais Mangal'
tp2416
a(S'100000442571456'
S'Mohammad Gull Wardak Mirkhail'
tp2417
a(S'100002076611763'
S'Ehsan Ahmadi'
tp2418
a(S'100007682797113'
S'Edris Malikzai'
tp2419
a(S'1272871518'
S'Abdullah Paikar'
tp2420
a(S'100004417544063'
S'Anwar Waziri'
tp2421
a(S'100006362922159'
S'Sher Khan'
tp2422
a(S'100000706097308'
S'Elham Haydarwall'
tp2423
a(S'100001413146589'
S'Zabihullah Sahar'
tp2424
a(S'100001450618053'
S'Eman Ghazi'
tp2425
a(S'100000926889918'
S'Ahmmad Hanafi'
tp2426
a(S'100001393799166'
S'Irshad Mohmand'
tp2427
a(S'532274047'
S'S Sajid Yousafzai'
tp2428
a(S'100000512328844'
S'Baidar Tanai'
tp2429
a(S'100002143324264'
S'Faisal Amiry'
tp2430
a(S'100000527017441'
S'Bahir Gul Sabiry'
tp2431
a(S'100004339392254'
S'Mirajgul Mengal'
tp2432
a(S'100001902621754'
S'\\u00dfL\\u00fa\\u00e9 M\\u00f8\\u00d8\\u0144'
tp2433
a(S'100000947611358'
S'Shamsudin Safi'
tp2434
a(S'100001896038902'
S'Shahid Ahmadzai Afghan'
tp2435
a(S'100006468479315'
S'Muhd Rahim'
tp2436
a(S'100002672843327'
S'Ajmal Naseemi'
tp2437
a(S'100001752374231'
S'Saeed Rahman'
tp2438
a(S'100001625324733'
S'Haleem Wardak'
tp2439
a(S'1707964534'
S'Ahmad Bangash'
tp2440
a(S'100001540420219'
S'Mohammad Naim Zazai'
tp2441
a(S'100000695447490'
S'Hedayat Zeer'
tp2442
a(S'100001806094065'
S'Maryam Heart'
tp2443
a(S'1361354145'
S'Pakhtun Larawbar'
tp2444
a(S'100006471228656'
S'Nawaz Sharif'
tp2445
a(S'100006354121557'
S'Qaher Samimi'
tp2446
a(S'100005940812540'
S'Hakim Zazai'
tp2447
a(S'100000249549657'
S'Masihullah Stanikzai'
tp2448
a(S'100000693405403'
S'Essa Bahram'
tp2449
a(S'100001061264317'
S'Ajmal Hodman'
tp2450
a(S'100001682026676'
S'Fazalrahman Amirzai'
tp2451
a(S'100008006915976'
S'Shkolla Barekzai'
tp2452
a(S'100002241391916'
S'Alam Khan'
tp2453
a(S'100002128097522'
S'Waiss Mangal'
tp2454
a(S'100001596086124'
S'Fariadoon Shenwari'
tp2455
a(S'100002125933576'
S'Gull Ahmad Saeedi'
tp2456
a(S'100003220277343'
S'Rohit Chauhan'
tp2457
a(S'100003662455671'
S'Hewad Lalpourwal'
tp2458
a(S'100002142770594'
S'Bashir Rahmat Khan'
tp2459
a(S'100004893241809'
S'Feroz Hayat'
tp2460
a(S'100000562627966'
S'Nazar Samimi'
tp2461
a(S'100003597106300'
S'Sanaullah Khanzaad'
tp2462
a(S'100002635800992'
S'Mukhles Dadwall'
tp2463
a(S'100001514876182'
S'Arsalan Tanha'
tp2464
a(S'100002182740174'
S'Hanif Shinwari'
tp2465
a(S'100000746206597'
S'Mohammad Hanif Ebad'
tp2466
a(S'100000577223301'
S'Khalid Ahmadzai'
tp2467
a(S'100002428553443'
S'Shamsullah Miakhil'
tp2468
a(S'100002317195791'
S'Smn Saberi'
tp2469
a(S'100007575001358'
S'Sahyl Hotak'
tp2470
a(S'100001695245295'
S'Popal Habibi'
tp2471
a(S'100000816851162'
S'Rasoul Ahmed Zazay'
tp2472
a(S'100000475024751'
S'Mohammad Temor'
tp2473
a(S'100001909459183'
S'Kamila Mangal'
tp2474
a(S'100000491066199'
S'Mohammad \\u0126\\u00e6qm\\u0105\\u0142'
tp2475
a(S'100001365327513'
S'Saqib Safi'
tp2476
a(S'100001623006163'
S'Basir Ibrahimee'
tp2477
a(S'100002184131890'
S'Naeem Ahdizada'
tp2478
a(S'100001916880706'
S'\\u067e\\u0627\\u06a9 \\u0627\\u0641\\u063a\\u0627\\u0646 \\u062c\\u0631\\u0646\\u0644\\u0633\\u067c \\u0641\\u0648\\u0631\\u0645'
tp2479
a(S'100000504892239'
S'\\u0645\\u062d\\u0645\\u0648\\u062f \\u0633\\u0639\\u06cc\\u062f'
tp2480
a(S'100000969195570'
S'Hamayun Watanjar'
tp2481
a(S'100006881140874'
S'Akram Haydarwall Khan'
tp2482
a(S'100002047926373'
S'Sahib Khan'
tp2483
a(S'100007933750363'
S'Shapoor Zadran'
tp2484
a(S'100002623238441'
S'Irfan Ahmad Khan'
tp2485
a(S'100001032532214'
S'Gharghasht Gharghakht'
tp2486
a(S'100000832076308'
S'Ajmal Haidary'
tp2487
a(S'100001148407130'
S'Ataullah Jawadi'
tp2488
a(S'100000157978893'
S'Abdullah Norway'
tp2489
a(S'100002202690492'
S'\\u0622\\u0631\\u0645\\u0627\\u0646 \\u0628\\u0647\\u0631\\u0648\\u0632\\u06cc'
tp2490
a(S'100002193161752'
S'Shaheed Asad'
tp2491
a(S'100000098941764'
S'Palwasha Tanha'
tp2492
a(S'100001964352813'
S'Ihsanullah Laghmani'
tp2493
a(S'100000417819690'
S'Ismail Azizi'
tp2494
a(S'100002173596358'
S'Khalil Arghistani'
tp2495
a(S'100002020317510'
S'Sara Khan'
tp2496
a(S'100000568685439'
S'Ashiqullah Rahimzoy'
tp2497
a(S'100001019286296'
S'\\u0639\\u0628\\u062f\\u0627\\u0644\\u0631\\u0627\\u0632\\u0642 \\u0635\\u0627\\u0641\\u06cc'
tp2498
a(S'100002483044896'
S'Rohullah Miakhil'
tp2499
a(S'100002486979177'
S'Shakib Shaifta'
tp2500
a(S'100001153275347'
S'Khial Mohamad Zazai'
tp2501
a(S'100001014540801'
S'Walizada Waris'
tp2502
a(S'100000923555542'
S'Abdul Jamil'
tp2503
a(S'100002274376117'
S'Shadab Sarwari'
tp2504
a(S'100003678706691'
S'Rafi Ul Rahman Niamaty'
tp2505
a(S'100000940848833'
S'Dawood Dilsoz'
tp2506
a(S'100000429907359'
S'Yama Arya'
tp2507
a(S'100001037357274'
S'Hijratullah Babar'
tp2508
a(S'100005913153561'
S'Zahidullah Haqmal'
tp2509
a(S'100002935293926'
S'Afghan Pardes'
tp2510
a(S'100005501412568'
S'Baser Khan Hemat'
tp2511
a(S'100001318415835'
S'Saif Ul Azman'
tp2512
a(S'100001749307653'
S'Wasim Safi'
tp2513
a(S'100000230852352'
S'\\u0628\\u0644\\u062e\\u06cc \\u0627\\u0641\\u063a\\u0627\\u0646'
tp2514
a(S'100001529770646'
S'Mohammad Daud'
tp2515
a(S'1032378183'
S'Sher Agha Shinwari'
tp2516
a(S'100004017351087'
S'Farhad Wardak'
tp2517
a(S'515920572'
S'Sada E Jawanan'
tp2518
a(S'100000840644164'
S'Younos Zurmati'
tp2519
a(S'100007482670733'
S'Qand Bachai Watan'
tp2520
a(S'100000611958780'
S'Naqibullah Mofaker'
tp2521
a(S'1473656018'
S'Qurish Zazai'
tp2522
a(S'100006424635432'
S'Ajmal Tanha'
tp2523
a(S'100002175919569'
S'Abousaid Momminee'
tp2524
a(S'100001688054112'
S'Matin Ameri'
tp2525
a(S'100001763182281'
S'Wahidullah Asrar'
tp2526
a(S'100007013890121'
S'Bahir Khan'
tp2527
a(S'100000909255899'
S'Matiullah Shahab'
tp2528
a(S'100001248860080'
S'Asadullah Mokhlis'
tp2529
a(S'100002329329562'
S'Nasir Zazai'
tp2530
a(S'100000987785878'
S'AB Zaheen'
tp2531
a(S'100001983415892'
S'Salman Khan Khilji Khan'
tp2532
a(S'100002158284610'
S'S Ab Hakim Hikmat'
tp2533
a(S'100003468480053'
S'Sajid Alkozai'
tp2534
a(S'100002369071217'
S'Hamid Rasooli'
tp2535
a(S'1046540653'
S'Toryal Khalil'
tp2536
a(S'100008124486043'
S'Fareed Khan'
tp2537
a(S'100002353610912'
S'Irshad Bangash'
tp2538
a(S'100000894666667'
S'Yusuf Mohmand'
tp2539
a(S'100007189980256'
S'Morsalin Adil'
tp2540
a(S'100002158654234'
S'Habibullah Rasooly'
tp2541
a(S'100004988884918'
S'Aorzala Amarkhail'
tp2542
a(S'100001861818101'
S'Naveed Ahmad'
tp2543
a(S'100000097831016'
S'Bismullah Arman'
tp2544
a(S'100001382090945'
S'Nasim Liwal'
tp2545
a(S'100007980031064'
S'Merwali Ahmadzi'
tp2546
a(S'100000192222642'
S'Abdul Rashid Jaan'
tp2547
a(S'100001487239282'
S'Ahad Wafa'
tp2548
a(S'100001358072003'
S'Ghulam Rabbani Fayaz'
tp2549
a(S'100006363817366'
S'Omar Mashooq Safi'
tp2550
a(S'100008022223581'
S'Imran Amiri'
tp2551
a(S'100000991980122'
S'Hussain Ahmad'
tp2552
a(S'100000274808426'
S'Afghan Masood'
tp2553
a(S'100001532311269'
S'Fahim SAfi'
tp2554
a(S'100000972531009'
S'Waheedullah Sahak'
tp2555
a(S'100000519120244'
S'Naheem Khan'
tp2556
a(S'100002216814205'
S'Anas Khan'
tp2557
a(S'100004130765651'
S'Sifullah Mangal'
tp2558
a(S'100001400938894'
S'Yauons Khan Abo Auons'
tp2559
a(S'100003208556435'
S'Mamoor Basharmall'
tp2560
a(S'100007604324143'
S'Sabir Zazai'
tp2561
a(S'100001076632432'
S'Ghamgen Bacha'
tp2562
a(S'100000553670836'
S'Farhad Haqmal Totakhail'
tp2563
a(S'100001184867107'
S'Mirzawali Lais'
tp2564
a(S'100004099250223'
S'Tamim Afzalee'
tp2565
a(S'100002364399432'
S'Tamim Murady'
tp2566
a(S'100007656790885'
S'Nang Np'
tp2567
a(S'100002092698781'
S'Reza Khan'
tp2568
a(S'100001892820174'
S'Jamshid Walizada'
tp2569
a(S'100000858930492'
S'Sakhi Marjan Majboor'
tp2570
a(S'100001983194562'
S'Jehangir Khan Hoti'
tp2571
a(S'100001075532075'
S'Esteqlal Yousufzai'
tp2572
a(S'100007578003918'
S'Marsail Mayar'
tp2573
a(S'100002222524481'
S'Abdulmajeed Sahak'
tp2574
a(S'100001260719211'
S'Saeed Khan'
tp2575
a(S'100001892448210'
S'Fazal Rabi Latifi'
tp2576
a(S'100000933673985'
S'Parvez Safar'
tp2577
a(S'100001939057202'
S'AraSh Khan'
tp2578
a(S'100001683744650'
S'Hameedullah Hamidi'
tp2579
a(S'100002169881720'
S'Milad Janan Ahmadzai'
tp2580
a(S'100002005879359'
S'Shafiq Pazhwak'
tp2581
a(S'100002285219159'
S'Najibhakimi Toryalli'
tp2582
a(S'100000565410565'
S'Bashir Ahmmad Nasiri'
tp2583
a(S'100001717941975'
S'Rana Alokozay'
tp2584
a(S'100007354811678'
S'\\u062f\\u062e\\u062a\\u0631\\u0627\\u0646 \\u062e\\u06cc\\u0631\\u062e\\u0627\\u0646\\u0647'
tp2585
a(S'100000739480951'
S'Saifullah Samim'
tp2586
a(S'100002305052695'
S'Lall Mohammed'
tp2587
a(S'100001634821649'
S'Fazalrehman Abid'
tp2588
a(S'100001058015252'
S'Tajgul Afridi'
tp2589
a(S'100007247075214'
S'Rabia Afghani'
tp2590
a(S'100000855021016'
S'Abdullah Habibzai'
tp2591
a(S'1780197594'
S'Afghanmina Afghan'
tp2592
a(S'1482005548'
S'Gul GUl'
tp2593
a(S'100002020057681'
S'Idris Ahmadzai'
tp2594
a(S'1362439062'
S'Ahmad Jawed Alkozai'
tp2595
a(S'100002105748174'
S'Farid Barani'
tp2596
a(S'100004516754099'
S'Nasibullah Nasib'
tp2597
a(S'1349701371'
S'Abdul Hameed'
tp2598
a(S'100002876383156'
S'Bibek Nisana'
tp2599
a(S'100000706921218'
S'Rustam Khan HassanZai'
tp2600
a(S'100002127828310'
S'Zalmai Ahmadi'
tp2601
a(S'100000978833302'
S'Moheb Elham'
tp2602
a(S'100008091213079'
S'Afnan Afnan'
tp2603
a(S'100001221433107'
S'Sultan Qurishi'
tp2604
a(S'100000173300695'
S'Hebatullah Samim'
tp2605
a(S'100001546530029'
S'Ziarmal Mansoor'
tp2606
a(S'100002146228221'
S'Ajmal Azam Safi'
tp2607
a(S'100002269979115'
S'Shafiq Pardees'
tp2608
a(S'100006104499471'
S'Lema Andar'
tp2609
a(S'100002301222522'
S'King Khan'
tp2610
a(S'100000140424047'
S'Jamshid Barakzai'
tp2611
a(S'100000123093507'
S'Ashiqullah Shamaliwal'
tp2612
a(S'100008239654884'
S'Ahmad Najib Joya'
tp2613
a(S'100001970916785'
S'Nargas Shamla'
tp2614
a(S'100002326597173'
S'Najib U Llah Taker'
tp2615
a(S'100002212323952'
S'Parishta Yalda'
tp2616
a(S'100001189257729'
S'Mohammad Shafiq'
tp2617
a(S'1104502982'
S'Sahib Khan'
tp2618
a(S'1782016913'
S'Daud Khan Bangash'
tp2619
a(S'100001929035457'
S'Chaprehar Nachar'
tp2620
a(S'100002142592866'
S'Sayed Rahman Rahmany'
tp2621
a(S'100002491341305'
S'Mhmad Shoiab Barialy'
tp2622
a(S'100007585931734'
S'Mohammadallah Mohammadallah'
tp2623
a(S'100001795823741'
S'Nazar Mohammad Salea'
tp2624
a(S'100001635464519'
S'Haseeb Yusufi'
tp2625
a(S'100001459213221'
S'Ahmadzahir Rodwal'
tp2626
a(S'100000584509044'
S'M Qadir Hijran'
tp2627
a(S'100000581894039'
S'Mangal Momand'
tp2628
a(S'100002056658173'
S'Khesraw Khoban'
tp2629
a(S'100001854546892'
S'Ershad Qayumi'
tp2630
a(S'100000118866107'
S'Baheer Ahmad'
tp2631
a(S'100001640251629'
S'Jebraeil Wardak Janan'
tp2632
a(S'100002047284058'
S'Masood Khan Ahmadi'
tp2633
a(S'100002108127825'
S'Hamid Sahil'
tp2634
a(S'100001079712867'
S'Janat Gul Sharafat'
tp2635
a(S'1577846876'
S'Sayed Ghazanfar'
tp2636
a(S'100000615387884'
S'Haidar Ahmadzai'
tp2637
a(S'100004536433883'
S'Rahmat Sahil'
tp2638
a(S'100002180546245'
S'Qaiss Pasarly'
tp2639
a(S'100007101011147'
S'Ezatullah Miakhil'
tp2640
a(S'1754371250'
S'Sahim Hamdard'
tp2641
a(S'100005278333566'
S'Abrahim Musafir'
tp2642
a(S'100002223515439'
S'Sejad Sediq'
tp2643
a(S'100000234873874'
S'Eh Ar'
tp2644
a(S'100000641171524'
S'Abdul Qahar Mahmmadzai'
tp2645
a(S'100000956084890'
S'Rhman Zazai'
tp2646
a(S'100001324330296'
S'M Safar Khan'
tp2647
a(S'100001599526857'
S'Kiramatullah Kiramat'
tp2648
a(S'100000187556515'
S'Atiqullah Rasooli'
tp2649
a(S'100001026731830'
S'Mohammad Khalid Karokhil'
tp2650
a(S'100000764002038'
S'Talib Mangal'
tp2651
a(S'100000599416506'
S'\\u0646\\u0627\\u0635\\u0631\\u0627\\u062d\\u0645\\u062f \\u0646\\u0635\\u0631\\u062a'
tp2652
a(S'100003792691682'
S'Sharafuddin Omarkhel'
tp2653
a(S'100000120689188'
S'Muhammad Akbar Zadran'
tp2654
a(S'100002042216001'
S'Dil Sherazi'
tp2655
a(S'100001296482603'
S'Haider Shah Haidi'
tp2656
a(S'100001751940620'
S'Abdul Wakil'
tp2657
a(S'1670225431'
S'Najib Mayar'
tp2658
a(S'1116934957'
S'Abdul Halim Achakzai'
tp2659
a(S'1599954084'
S'Samim Afghan'
tp2660
a(S'1235142233'
S'Ajmal Shams'
tp2661
a(S'100006485606617'
S'Zia Tanha'
tp2662
a(S'100000774636615'
S'Abdul Jamil Majidi'
tp2663
a(S'100000529424026'
S'Hamid Khan'
tp2664
a(S'100001944819061'
S'Mohammad Valy Eshaqzai'
tp2665
a(S'100001716170066'
S'\\u067e\\u069a\\u062a\\u0648 \\u062e\\u0628\\u0631\\u0648\\u0646\\u0647'
tp2666
a(S'1087434676'
S'Zabehullah Wagaray'
tp2667
a(S'100002074542420'
S'Naeem Danish'
tp2668
a(S'100001959633070'
S'Ezat Haqpal'
tp2669
a(S'100004242490319'
S'Waheedullah Wahed'
tp2670
a(S'100000186546163'
S'Frouthen Kamalpuri'
tp2671
a(S'100002113955064'
S'Shafiullah Rehan'
tp2672
a(S'100001836772212'
S'Najib Haqparast'
tp2673
a(S'100001506687851'
S'Tana Gul Noori Zazai'
tp2674
a(S'100002294828342'
S'Pakhtoon Zwan'
tp2675
a(S'100001715357512'
S'Mansour Mousazai'
tp2676
a(S'100000611041738'
S'Yasir Kundi'
tp2677
a(S'100000717212394'
S'Khalil Zhwand'
tp2678
a(S'100000943044751'
S'Jawid Sidiqee'
tp2679
a(S'100001215807101'
S'Zohib Sherzad'
tp2680
a(S'100002252773407'
S'Parvezg Pg'
tp2681
a(S'100002252109930'
S'Amir Sayedy'
tp2682
a(S'100005313009767'
S'Farhad Noori'
tp2683
a(S'1771950890'
S'Shiraz Vaziri'
tp2684
a(S'100000955836187'
S'\\u0628\\u062e\\u062a \\u0635\\u062f\\u064a\\u0642\\u064a'
tp2685
a(S'100004370013887'
S'Khaliqdad Daudzai'
tp2686
a(S'100007158152372'
S'Shanawaz Ranjan'
tp2687
a(S'100001747377398'
S'Lahore Jan Lakanwal'
tp2688
a(S'100007734814569'
S'\\u062f\\u06af\\u0628\\u06cc\\u0646 \\u063a\\u0644\\u0627\\u0648\\u0632\\u06be'
tp2689
a(S'100007712408603'
S'Hikmat Ahmadzai'
tp2690
a(S'100002353440063'
S'Abdulmajeed Sahak'
tp2691
a(S'100001183882674'
S'Muhsin Abed'
tp2692
a(S'1812154505'
S'Shahzad Abdullah'
tp2693
a(S'100000158728585'
S'Afghan Politics'
tp2694
a(S'100002127604842'
S'Ajabkhan Shirzad'
tp2695
a(S'100006081631346'
S'Wahid Zhawandoon'
tp2696
a(S'100001804911326'
S'Farid Ahmad Omed'
tp2697
a(S'100001962648786'
S'Ezatullah Hasankhil'
tp2698
a(S'100000690601411'
S'Baryali Baryal'
tp2699
a(S'1343761241'
S'Nematullah Zaheer'
tp2700
a(S'1094484011'
S'Rasool Emaan'
tp2701
a(S'100002122059144'
S'Ali Tayyab'
tp2702
a(S'100001479205532'
S'Abdullah Aryan'
tp2703
a(S'100001930028074'
S'Zabih Barakzai'
tp2704
a(S'100000833811298'
S'Aman Faiz'
tp2705
a(S'100003551915706'
S'Muslim Zazai'
tp2706
a(S'100001824957923'
S'Si Mahmoodi'
tp2707
a(S'100001582544387'
S'Afghan Bacha'
tp2708
a(S'100000610875957'
S'Abbas Ahadi'
tp2709
a(S'710525493'
S'Malik Tahir'
tp2710
a(S'100007717980750'
S'Zohal Asadi'
tp2711
a(S'645087337'
S'Farzad Lameh'
tp2712
a(S'100002339355529'
S'Rahmatullah Sherzoi'
tp2713
a(S'100007273837770'
S'M\\u0171h\\u00e3mm\\u00e3\\u0111 \\u015ah\\u00e3h\\u00e9\\u00e9\\u00f1'
tp2714
a(S'100007564510939'
S'Aman Ilyass'
tp2715
a(S'100004512574388'
S'Yaseer Kazimi'
tp2716
a(S'100002332202773'
S'Afghan Pashton'
tp2717
a(S'100001806525553'
S'Masih Masoodi'
tp2718
a(S'100000765534098'
S'Noorullah Noor'
tp2719
a(S'100002463520591'
S'Abdul Rahman Habibzui'
tp2720
a(S'100001824455567'
S'Shaheed Saheeb Khan Gazi'
tp2721
a(S'100003380296640'
S'Rawan Nazar'
tp2722
a(S'100000918608021'
S'Sulaiman Mashal'
tp2723
a(S'1832636900'
S'Nazir Ahmed'
tp2724
a(S'100000921847308'
S'Ahmad Khalid Ahmadzai'
tp2725
a(S'100000934997605'
S'Hamid Afghan'
tp2726
a(S'1198387733'
S'Faridullah Sherzad'
tp2727
a(S'100001280818761'
S'Mohammad Shah Shah'
tp2728
a(S'100007831542224'
S'\\u0632\\u0644\\u0645\\u06cc \\u0646\\u0648\\u0631\\u0632\\u06cc'
tp2729
a(S'660729686'
S'Shahpoor Ahmadzai'
tp2730
a(S'100000865162571'
S'Mohammad Khalil Laraway'
tp2731
a(S'1288211219'
S'Shafiq Shaheed'
tp2732
a(S'100001849434985'
S'Nazifullah Stanikzai'
tp2733
a(S'100005741525729'
S'Hamid Paktiawal'
tp2734
a(S'100001074272824'
S'Mo Agriculture'
tp2735
a(S'100002262980342'
S'Salman Salman Khan'
tp2736
a(S'100001512071426'
S'Shahid Ahmad'
tp2737
a(S'100000185242602'
S'Karan Khan'
tp2738
a(S'100001474257935'
S'\\u0646\\u06af\\u06cc\\u0646 \\u062d\\u0628\\u06cc\\u0628\\u06cc'
tp2739
a(S'100001033666093'
S'Mohmmad Wali Mokhlis'
tp2740
a(S'100002213844353'
S'Ahmad Fawad Sami'
tp2741
a(S'100001775481668'
S'Asadullah Mangal'
tp2742
a(S'100008191204196'
S'Abu Zahid'
tp2743
a(S'100002773011170'
S'Blapojapilala Begham'
tp2744
a(S'100001043165995'
S'Jamil Tahir'
tp2745
a(S'100002310716858'
S'Tamim Kohestani'
tp2746
a(S'1606406819'
S'Naveed Ullah'
tp2747
a(S'100002108185570'
S'Sohail Shahid'
tp2748
a(S'1103341625'
S'M Kabir Salihi'
tp2749
a(S'100001990918817'
S'Tuba Faizy'
tp2750
a(S'100002106860055'
S'Kalooz Hertt'
tp2751
a(S'1727182809'
S'Barialai Jabarkhail'
tp2752
a(S'100001972646957'
S'Sheragha Nasary'
tp2753
a(S'100007193679229'
S'Rafi Pakhtun'
tp2754
a(S'100003591521886'
S'Fazal Rahim Halimi Wardak'
tp2755
a(S'100001624003810'
S'Hekmat Bahram'
tp2756
a(S'100008191172121'
S'Sardar Saifi'
tp2757
a(S'100001687332364'
S'Wahid Zazai'
tp2758
a(S'100001137418055'
S'Qaseem Hilal'
tp2759
a(S'100002212720778'
S'Watan Dost'
tp2760
a(S'100001765196405'
S'Nima Nima'
tp2761
a(S'100006569042752'
S'Shahabaddin Shahab'
tp2762
a(S'1609616525'
S'Asadullah Noori'
tp2763
a(S'100001393665549'
S'M Abrahim Totakhil'
tp2764
a(S'100001314068025'
S'\\u00d1\\u00f8\\u00f8r W\\u00e2l\\u00ee Z\\u00e4dr\\u00e4n'
tp2765
a(S'100002213006322'
S'Abdul Raqib Hashimi'
tp2766
a(S'100001433158915'
S'Khalid Ahmad Ellahi'
tp2767
a(S'100001254740876'
S'A-rahim Mutmyan'
tp2768
a(S'100007665069070'
S'Naveed Afghan'
tp2769
a(S'100004637824884'
S'Ramazan Safdari'
tp2770
a(S'100000118410709'
S'Rahmatullah Haqmal'
tp2771
a(S'100000246933350'
S'Afghanistan Kandahar'
tp2772
a(S'100004849386291'
S'Jaseem Hotak'
tp2773
a(S'100001058860968'
S'Safi Janan'
tp2774
a(S'100002559238916'
S'Baheer Zhwandai'
tp2775
a(S'100002386387141'
S'Af Shamsullah'
tp2776
a(S'100002114094011'
S'Tamana Tanha Pokhtana'
tp2777
a(S'100001278020037'
S'Kays Alemdar'
tp2778
a(S'1672908028'
S'Bilal Mangal'
tp2779
a(S'100001209110262'
S'Lal Kakar'
tp2780
a(S'100001800657341'
S'Ramzan Jani'
tp2781
a(S'100002029656373'
S'Sultan Gulzar'
tp2782
a(S'100000791255369'
S'Zia Safi'
tp2783
a(S'100004847970673'
S'Hanif Khaksar'
tp2784
a(S'100007431846424'
S'Dewa Niazai'
tp2785
a(S'100005087976617'
S'Ziaurahman Paktiawal'
tp2786
a(S'100001916195743'
S'Fahim Fetrat'
tp2787
a(S'100000504293975'
S'Baba Malang Ariayee A'
tp2788
a(S'100002246536856'
S'Safya Paktiani'
tp2789
a(S'100000126682247'
S'Hamid Ghalib'
tp2790
a(S'100001238832181'
S'Naqib Gurbaz'
tp2791
a(S'100001073752453'
S'Sohail Ahmad Popal'
tp2792
a(S'100000615240417'
S'Zia Ul Rahman Mukhlis'
tp2793
a(S'100001116855340'
S'Sangar Pakhtoon'
tp2794
a(S'100001241874489'
S'Nooragha Dawlatzai'
tp2795
a(S'100007273446881'
S'Jamel Mabrouk'
tp2796
a(S'100005808011926'
S'Hewad Raihan'
tp2797
a(S'100002576075552'
S'Saeed Samad'
tp2798
a(S'100003360878008'
S'Sefatullah Amarkhil'
tp2799
a(S'100001726965038'
S'Muhamed Saleem'
tp2800
a(S'100002258617316'
S'Nawroz Mangal'
tp2801
a(S'502970793'
S'Sanaullah Mojaddedi'
tp2802
a(S'100004952131647'
S'Haroon Sherzaad'
tp2803
a(S'100002482375134'
S'Sherzaman Sherzai'
tp2804
a(S'100006586441513'
S'Shahid Khaksar'
tp2805
a(S'100007863424690'
S'Khaibar Tasal'
tp2806
a(S'100004837181880'
S'Basit Noorzai'
tp2807
a(S'100005054770215'
S'Mahmood Afghan'
tp2808
a(S'1058424732'
S'John Watan'
tp2809
a(S'100001841689970'
S'\\u0634\\u0631\\u064a\\u0641 \\u0627\\u0631\\u0645\\u0627\\u0646'
tp2810
a(S'1145865760'
S'Kamal Khan Rasooli'
tp2811
a(S'100002151610464'
S'Sulaiman Khan'
tp2812
a(S'100001697274523'
S'SaminSameem Zadran'
tp2813
a(S'1791465971'
S'Omaid Aryobzai'
tp2814
a(S'100001401494604'
S'Abdul Saboor Safi'
tp2815
a(S'100000368539563'
S'Najib Rashid'
tp2816
a(S'100000386516195'
S'Sebghatullah Wafa'
tp2817
a(S'785233318'
S'Asad Hasan'
tp2818
a(S'100001497032837'
S'Asal Mir Kaliwal'
tp2819
a(S'100003485920105'
S'Shahnawaz Maroof Ahmadzai'
tp2820
a(S'100000915848790'
S'Ajmal Hemat'
tp2821
a(S'686689351'
S'Hashmat Alizai'
tp2822
a(S'100000227166248'
S'Nawid Afghan'
tp2823
a(S'100005263141107'
S'Palawan Mangal'
tp2824
a(S'100000560682596'
S'Sabawoon Manzoor'
tp2825
a(S'100002080051939'
S'Abbas Yaqubi'
tp2826
a(S'100001254252152'
S'Mohammad Farid Hotak'
tp2827
a(S'100001640716608'
S'Ihsanullah Ghaziyar'
tp2828
a(S'100001272196793'
S'\\u062d\\u0628\\u06cc\\u0628 \\u0634\\u0627\\u0647 \\u062a\\u0693\\u0648\\u0646'
tp2829
a(S'100000839521170'
S'Najibrahman Rahmany'
tp2830
a(S'100001720459619'
S'Momin Mangal'
tp2831
a(S'100002217363060'
S'Esmat Amiri'
tp2832
a(S'100002476998023'
S'Yaqoob Wahedi'
tp2833
a(S'100001631564226'
S'Tasal Khan'
tp2834
a(S'100003164384333'
S'Mustafa Omid'
tp2835
a(S'100001023798353'
S'Abdullah Khalili'
tp2836
a(S'1396142778'
S'Sajid Bahar'
tp2837
a(S'100000211724061'
S'Rehmat Zadran'
tp2838
a(S'100002188573330'
S'Wafa Salma Jan'
tp2839
a(S'100002607895354'
S'Rahmanullah Musazai'
tp2840
a(S'100001958423843'
S'Agmal Ahmadzay'
tp2841
a(S'100002370228381'
S'Mohammd Jalil Afg'
tp2842
a(S'100000695218226'
S'Afghan Rights'
tp2843
a(S'100006491524658'
S'Ziawdin Yousufi'
tp2844
a(S'100001452688519'
S'Allahmohammad Hotak'
tp2845
a(S'100002204544659'
S'Junaid Khan Afridi'
tp2846
a(S'100001928787957'
S'Zabi Rahmani'
tp2847
a(S'100000108991942'
S'Atibar Khan'
tp2848
a(S'100001750470627'
S'Naimat Ullah Khosti'
tp2849
a(S'100002034307794'
S'M Aryubi Akbar'
tp2850
a(S'100002028706493'
S'Mohammad Fawad Dawoodzada'
tp2851
a(S'100001679426983'
S'Enayet Anwary'
tp2852
a(S'100000852651139'
S'Sabawoon Sahil'
tp2853
a(S'100003280491688'
S'Riaz Khogyani'
tp2854
a(S'100000127669825'
S'Nadir Khan'
tp2855
a(S'100000950963007'
S'Jawiria Love'
tp2856
a(S'100002243276284'
S'Shafiqullah Yosufzai'
tp2857
a(S'1280810893'
S'Didan Ahmadzai'
tp2858
a(S'100002312868715'
S'Haleem Farahe'
tp2859
a(S'100000956805976'
S'Shamsul Ari Fin Shinwary'
tp2860
a(S'100001694062919'
S'Zahir Ahmadzai'
tp2861
a(S'100004960324166'
S'Irfan AhmadZai'
tp2862
a(S'100000985906190'
S'Raziq Miani'
tp2863
a(S'100002916925387'
S'Mohammad Amiri Mkic'
tp2864
a(S'100002126608324'
S'Khaibar Ibrahim'
tp2865
a(S'100001793738793'
S'Zain Dawar'
tp2866
a(S'617102762'
S'Asadullah Zarmalwal'
tp2867
a(S'100007949377795'
S'Fareed Haseen'
tp2868
a(S'100002161201256'
S'Ahmadullah Spinghar'
tp2869
a(S'1038405735'
S'Nasrat Sahil'
tp2870
a(S'100002019230566'
S'Nasir Mahidi'
tp2871
a(S'100002410683052'
S'Meena Gul Gul'
tp2872
a(S'100000744477796'
S'Samiullah Sabawoon'
tp2873
a(S'100001921513600'
S'Abdullah Safi'
tp2874
a(S'100002098081563'
S'J\\u00e3\\u00f1 J\\u00e1\\u00f1\\u00fa\\u00f9'
tp2875
a(S'100001491706541'
S'Mohammad Zubair'
tp2876
a(S'100001410972578'
S'Noorzaman Khan'
tp2877
a(S'100001517472690'
S'Alammal Nangyalay'
tp2878
a(S'100008008242900'
S'Sadam Hamdard'
tp2879
a(S'100007082105416'
S'Nazifullah Mobariz'
tp2880
a(S'1815513485'
S'Seddiqullah Hamish'
tp2881
a(S'100002189502643'
S'Shershah Mansor'
tp2882
a(S'1740049818'
S'Khan Safi'
tp2883
a(S'100006557590357'
S'Ramiz Khan'
tp2884
a(S'100001281093810'
S'Najebullah Shahidi'
tp2885
a(S'100002334031645'
S'Obaidullah Honest'
tp2886
a(S'100006574869493'
S'Khpalwak Sherzad'
tp2887
a(S'100003814284438'
S'ShirShah Habibi'
tp2888
a(S'100001049630386'
S'Stanikzai Baheer'
tp2889
a(S'1151913525'
S'Zamary Zazai'
tp2890
a(S'100003821274482'
S'\\u06a9\\u0627\\u06a9\\u0627 \\u0645\\u0631\\u0627\\u062f'
tp2891
a(S'100000087000041'
S'NaXar KatawaXai'
tp2892
a(S'100000326877327'
S'Yamal Amin'
tp2893
a(S'100001108693000'
S'Niamat Khan'
tp2894
a(S'100000489586424'
S'Daud Shah'
tp2895
a(S'100002093332201'
S'Shahid Rajput'
tp2896
a(S'100001224434531'
S'Ehsas Mayar'
tp2897
a(S'100002286801457'
S'Naseer Sahak'
tp2898
a(S'100007614674324'
S'Sharifullah Wafa'
tp2899
a(S'100002131016166'
S'Hamza Hamzababa'
tp2900
a(S'100001730957131'
S'Hameedullah Mohammadi'
tp2901
a(S'100001852885677'
S'Yama Yousuf'
tp2902
a(S'100002215375936'
S'Emal Jan'
tp2903
a(S'100002253032819'
S'Abdul Haq'
tp2904
a(S'100001349020192'
S'Bashir Khan'
tp2905
a(S'753133826'
S'Ahmad Tassal'
tp2906
a(S'100002113851158'
S'Mansoor Sadri'
tp2907
a(S'100003004315679'
S'Anwar Ul Hassan'
tp2908
a(S'100007573293367'
S'Abdulhaq Mlatur'
tp2909
a(S'100002134560299'
S'Sadia Imam'
tp2910
a(S'100004385323987'
S'Asma  Aksanova'
tp2911
a(S'100000282494173'
S'Aimal Kabul'
tp2912
a(S'100001637620230'
S'Nejatullah Nazary'
tp2913
a(S'100006669635696'
S'Baz Afghan'
tp2914
a(S'100001741798582'
S'SunNy Arman'
tp2915
a(S'100004118975747'
S'Samira Mena'
tp2916
a(S'100007684781163'
S'Zedan Niazi'
tp2917
a(S'100002130967385'
S'Nihal Armani'
tp2918
a(S'100000839224860'
S'Fawad Khan Mashkori'
tp2919
a(S'100005910660871'
S'Palanikumar Rajamani'
tp2920
a(S'100003524566022'
S'Bakhtyar Adil'
tp2921
a(S'100002023348461'
S'Hasan Ali'
tp2922
a(S'100001083775640'
S'Rahmatullah Hamid'
tp2923
a(S'100001657184525'
S'Wais Mohibi'
tp2924
a(S'100004959521313'
S'Sabawoon Danish'
tp2925
a(S'623178647'
S'\\u0645\\u062d\\u0645\\u062f \\u064a\\u0648\\u0646\\u0633 \\u062d\\u0644\\u06cc\\u0645'
tp2926
a(S'100001342456712'
S'Reshad Nikzad'
tp2927
a(S'1098879375'
S'Zabih Ullah Amin'
tp2928
a(S'100006168729069'
S'Fazalrabi Shinwari'
tp2929
a(S'100002390458016'
S'Zabi Maqsoodi'
tp2930
a(S'100003935159163'
S'Khaksar Afghan'
tp2931
a(S'100001380940679'
S'Baber Khan Sahel'
tp2932
a(S'100001442716193'
S'Mohammad Zafar Jaamay'
tp2933
a(S'1627527816'
S'Ahmad Sadiqi Zee'
tp2934
a(S'100001923641644'
S'Abdulwaris Shinwari'
tp2935
a(S'100004563732032'
S'Faheem Ullah'
tp2936
a(S'100001025265782'
S'Niamat Ahmadzai'
tp2937
a(S'100001675200573'
S'Mohammad Din Hamdard'
tp2938
a(S'100007800305526'
S'Aman Tokhi Khilji'
tp2939
a(S'100002142323150'
S'Maja Carsteis'
tp2940
a(S'100007131632833'
S'Nabi Ahmadzai'
tp2941
a(S'100002231559105'
S'Shafaqat Sahil'
tp2942
a(S'100006086563227'
S'Karishma Krish'
tp2943
a(S'100007799740555'
S'Mohammad Rafiq Mangal'
tp2944
a(S'100008168223337'
S'Matin Bahar'
tp2945
a(S'100004265474451'
S'Momand Matoonwall'
tp2946
a(S'100002168087777'
S'Jameel Jameel'
tp2947
a(S'100002078633612'
S'Zahra Fathimah'
tp2948
a(S'100001813940727'
S'Rohullah Ahmadzai'
tp2949
a(S'100001107190775'
S'Arifullah Arif Khosty'
tp2950
a(S'1025304245'
S'Jalal Zaki'
tp2951
a(S'100000834000193'
S'Asad Amini'
tp2952
a(S'682809892'
S'\\u0681\\u0648\\u0627\\u06a9\\u0645\\u0646 \\u0627\\u0641\\u063a\\u0627\\u0646'
tp2953
a(S'100007443999305'
S'Abdul Samad Amiri'
tp2954
a(S'1799323465'
S'Farhad Omari'
tp2955
a(S'100002179348095'
S'\\u062c\\u0644\\u0627\\u0644 \\u06a9\\u0648\\u067c \\u0627\\u062f\\u0628\\u064a \\u062e\\u0648\\u0681\\u069a\\u062a'
tp2956
a(S'100000446354535'
S'Zabih Salimzoy'
tp2957
a(S'100001034794913'
S'Abdul Nafi Sharifi'
tp2958
a(S'1800676348'
S'Mobin Safi'
tp2959
a(S'1152472891'
S'Pakhtun Zalmay'
tp2960
a(S'1679222811'
S'\\u06af\\u0644 \\u0645\\u062d\\u0645\\u062f \\u0648\\u0631\\u062f\\u06af'
tp2961
a(S'100001734540786'
S'Aziz R Jabarkhail'
tp2962
a(S'100001077260803'
S'Abdul Khalil'
tp2963
a(S'100005904339625'
S'Shams Wafa'
tp2964
a(S'100001254716120'
S'Hamed Khan'
tp2965
a(S'100001892410746'
S'Emal Joh'
tp2966
a(S'100005521021978'
S'Rahimullah Ahmadzai'
tp2967
a(S'100000480341927'
S'Abdulwali Etemaad'
tp2968
a(S'100007626783023'
S'Habib Rahman Jaji'
tp2969
a(S'100002198304225'
S'Naimtullah Faryadi'
tp2970
a(S'100003681326231'
S'Zubair Malakzai'
tp2971
a(S'100003324844805'
S'Nasehullah Shaheed'
tp2972
a(S'100002982648444'
S'Hamayon Rahyab'
tp2973
a(S'100001647740031'
S'Shams Baryal'
tp2974
a(S'100003271934982'
S'Abdulkadir Ahmed'
tp2975
a(S'100001827664693'
S'Abdul Hakim Mujahid'
tp2976
a(S'100002745214216'
S'Muhammad Ali Bajwa'
tp2977
a(S'100001649960576'
S'Zainullah Rahimi'
tp2978
a(S'1232757419'
S'Hamid Khan'
tp2979
a(S'100001271421894'
S'Rahim Ziyarmal'
tp2980
a(S'100001736398730'
S'Sifatullah Qurishi'
tp2981
a(S'1151147952'
S'Adnan Khan Yousafzai'
tp2982
a(S'100000570774134'
S'Muhammad Rasool'
tp2983
a(S'100000437212756'
S'Naveed Khan'
tp2984
a(S'100000064618732'
S'Ebraheem Shah'
tp2985
a(S'100000606257586'
S'Rahman Gol Tutakhel'
tp2986
a(S'100002216506801'
S'Abdul Hadi Sakhi Zada'
tp2987
a(S'100002146781665'
S'Ahsanullah Ahsan'
tp2988
a(S'100000654786656'
S'Kamela Pakteen'
tp2989
a(S'100008074113625'
S'Love TO Neelam'
tp2990
a(S'1177926066'
S'\\u0646\\u0648\\u0631\\u0639\\u0644\\u06cc \\u0634\\u0627\\u0647 \\u0681\\u0644\\u0628\\u0644\\u0627\\u0646\\u062f'
tp2991
a(S'100000099969226'
S'Said Nabi Wahid'
tp2992
a(S'100001892940827'
S'Naseer Sadat'
tp2993
a(S'100001593790338'
S'Zia Nasrat'
tp2994
a(S'100001725537030'
S'Ashiq Khan Afgani'
tp2995
a(S'100001036134641'
S'Farman Ahmadzai Isakhel'
tp2996
a(S'100007071457736'
S'Mohammadtariq Amarkhil'
tp2997
a(S'565763464'
S'Mohammad Aimal Abdul Rahimzai'
tp2998
a(S'100001478691116'
S'Jawad Naqshbandi'
tp2999
a(S'100002013700366'
S'Ghafoor Zai'
tp3000
a(S'100002171927012'
S'Mohammad Mansoor Wahedi'
tp3001
a(S'100002187352703'
S'Baheer Pakhtoon Kochai'
tp3002
a(S'100002133988882'
S'Shahina Nazo'
tp3003
a(S'100006264911528'
S'Habib Khan Yosufkhel'
tp3004
a(S'100004943585019'
S'Tajir Mangal'
tp3005
a(S'100004212492600'
S'Sameer Mangal'
tp3006
a(S'100004096760754'
S'Faqir Salam Marufi'
tp3007
a(S'100002014330726'
S'Massoud Hakimi'
tp3008
a(S'100000928223648'
S'Sahil Shirzad'
tp3009
a(S'100002159631440'
S'Emmii Alyoo'
tp3010
a(S'100003803315860'
S'Abdul Raziq Kama V'
tp3011
a(S'100003130698792'
S'Qasim Hossini'
tp3012
a(S'100000143011966'
S'Real Afghan Leader Karzai'
tp3013
a(S'100004414590548'
S'Fikar Khost'
tp3014
a(S'100001849499056'
S'Ahmad Shaam'
tp3015
a(S'100001766902980'
S'Nasim Stori'
tp3016
a(S'100000176213634'
S'Janbaz Afghan'
tp3017
a(S'100005915041753'
S'Zubair Ahmad Zuhoor Hadawi'
tp3018
a(S'100003226745260'
S'King Tarakai'
tp3019
a(S'100000855741208'
S'\\u0646\\u0638\\u0631\\u0645\\u062d\\u0645\\u062f \\u0632\\u06cc\\u0627\\u0631'
tp3020
a(S'100005050830608'
S'Mohammad Shakeel Akramzoy'
tp3021
a(S'100001586005656'
S'Kamel Khatibi'
tp3022
a(S'100001687919077'
S'\\u0633\\u0627\\u062d\\u0644 \\u0635\\u0627\\u0641\\u06cc'
tp3023
a(S'100004646167411'
S'Hayatullah Zaland'
tp3024
a(S'786584049'
S'Ahmad Farzan'
tp3025
a(S'100004090082426'
S'Yousaf Masoom'
tp3026
a(S'100002170034622'
S'Faizullah Tanay'
tp3027
a(S'100001138670308'
S'Habibshah Azamyar'
tp3028
a(S'100001714351515'
S'Mmansoor Wardak'
tp3029
a(S'100003567154087'
S'Momtaz Karkhel'
tp3030
a(S'100001844354894'
S'Arefkhan Nawabzoy'
tp3031
a(S'100001848993099'
S'\\u067e\\u069a\\u062a\\u0648 \\u0627\\u0648\\u067e\\u069a\\u062a\\u0627\\u0646\\u0647'
tp3032
a(S'100002139462949'
S'\\u0685\\u0627\\u0631\\u06ab\\u0631 \\u0627\\u0641\\u063a\\u0627\\u0646'
tp3033
a(S'100005192763701'
S'Omat Gul Zadran'
tp3034
a(S'100007966474868'
S'Waheedullah Khan'
tp3035
a(S'535204522'
S'Malik Jan Akorkhail Ahmadzai'
tp3036
a(S'100002165202350'
S'Ibrahim Haqmal Haqmal'
tp3037
a(S'100000689985201'
S'Khalid Khan Khillje'
tp3038
a(S'1046949093'
S'Sobair Wardak'
tp3039
a(S'100008299532912'
S'Matiullah Sadiqi'
tp3040
a(S'100001667611845'
S'Tameem Jalalzai'
tp3041
a(S'100002189141968'
S'\\u0633\\u064a\\u062f\\u0627\\u0644\\u0631\\u062d\\u0645\\u0646 \\u0627\\u064a\\u0645\\u0627\\u0646'
tp3042
a(S'100006766754245'
S'Shawkat Afghan Zazai'
tp3043
a(S'100002129148405'
S'Toryalai Adel'
tp3044
a(S'100002127394005'
S'Khoshal Jabarkhil'
tp3045
a(S'100002055390370'
S'DrMasoud Shams'
tp3046
a(S'100001245404748'
S'Habibullah Habibi'
tp3047
a(S'100001341110756'
S'Ziaurrahman Spineghar'
tp3048
a(S'100001344689078'
S'Sawash Herat'
tp3049
a(S'100001013790787'
S'Usman Solizay'
tp3050
a(S'564608655'
S'Omar Bowra Zamani'
tp3051
a(S'100000999651910'
S'Abdulrahim Hotak'
tp3052
a(S'100005866573047'
S'Hemat Tingar'
tp3053
a(S'100001236020973'
S'Mashal Jamil'
tp3054
a(S'100002080657791'
S'Khushal Ahmadzai'
tp3055
a(S'100001605111170'
S'Mumtaz Jabarkhail'
tp3056
a(S'100007652678414'
S'Khano Entizar Manal'
tp3057
a(S'100001610460887'
S'Kj\\u00e6re Omid'
tp3058
a(S'100001248534873'
S'Sumaya Sahil Saeedi'
tp3059
a(S'100003829500433'
S'Shah Lawangeen Wange'
tp3060
a(S'100002840412491'
S'Khalid Amani'
tp3061
a(S'100002262049117'
S'Ahmad Reshad'
tp3062
a(S'100001639690633'
S'Inam Husainee'
tp3063
a(S'1204396096'
S'Saboor Zazai'
tp3064
a(S'100001979087228'
S'Muhammad Ishfaq Khan'
tp3065
a(S'100001974544033'
S'Mohib Atal'
tp3066
a(S'100000053238534'
S'Taleem Khan'
tp3067
a(S'100000457141178'
S'\\u0645\\u0644\\u0627 \\u0627\\u062e\\u0646\\u062f'
tp3068
a(S'100001105859241'
S'Qais Shakib'
tp3069
a(S'100002169886261'
S'Rahmatullah Ahmadzai'
tp3070
a(S'100001623530122'
S'Noor Mohammad Stanikzai'
tp3071
a(S'100001587984698'
S'Masoom Aryubi'
tp3072
a(S'100000146362565'
S'Khalid Safi'
tp3073
a(S'100000537351938'
S'Zia Noori'
tp3074
a(S'100001381860567'
S'Abdul Monir Ebrahimzai'
tp3075
a(S'100001332031680'
S'Pir Sharif Shah'
tp3076
a(S'100006670171281'
S'Sharabi Janan'
tp3077
a(S'513374602'
S'\\u0645\\u062d\\u0645\\u062f\\u0627\\u0644\\u0644\\u0647 \\u06a9\\u0645\\u0627\\u0644'
tp3078
a(S'100003049644595'
S'Khalid Ahmady'
tp3079
a(S'100001873687057'
S'Nahzate Ayende Afghanistan'
tp3080
a(S'100001804282080'
S'Wasee Hasyal'
tp3081
a(S'100002269825140'
S'Sahib Zada AC'
tp3082
a(S'100002179071116'
S'Afghanistan Bamian'
tp3083
a(S'100005170297786'
S'Shafiullah Wardak'
tp3084
a(S'100006623312358'
S'Mirwais Mangal'
tp3085
a(S'1417766294'
S'Ajmal Rohi'
tp3086
a(S'100001024876038'
S'Anwar Stanikzai'
tp3087
a(S'100001922677919'
S'Mansoor Shiraz'
tp3088
a(S'100001870967387'
S'Farhad Saqib'
tp3089
a(S'100000741503199'
S'Abaseen Yousufzai'
tp3090
a(S'100001728128143'
S'Firoza Alizade'
tp3091
a(S'1391297070'
S'Sarwar Khairee'
tp3092
a(S'1231220193'
S'\\u0646\\u0627\\u0647\\u06cc\\u062f \\u0641\\u0631\\u06cc\\u062f'
tp3093
a(S'100007645354316'
S'Ahmad Totakhail'
tp3094
a(S'100008150620234'
S'\\u062e\\u0627\\u0644\\u062f\\u06c1 \\u0648\\u0641\\u0627'
tp3095
a(S'100001766986660'
S'HaJi P\\u00e2\\u00f1J\\u015bhery'
tp3096
a(S'100003855722905'
S'Abdull Satar Saadat'
tp3097
a(S'100001802925451'
S'Amanullah Pardes'
tp3098
a(S'100001593821893'
S'Abu Omer Noorzai'
tp3099
a(S'100001647902809'
S'Yassin Zadran'
tp3100
a(S'100002108733932'
S'Suhab Khairkhwa'
tp3101
a(S'100000947574880'
S'Maqsood Patan'
tp3102
a(S'1820904445'
S'Bakhtiar Husain Khail'
tp3103
a(S'100007626906004'
S'Amirullah Khan'
tp3104
a(S'100000014159480'
S'Sharifullah Sangar'
tp3105
a(S'100007938011893'
S'Khatira Faizi'
tp3106
a(S'100001615859159'
S'Najeeb Abed Qadry'
tp3107
a(S'100001441527579'
S'Wadood Khan'
tp3108
a(S'100002084019855'
S'Mohammad Dawood Niazi'
tp3109
a(S'100002915576778'
S'Delawer Dawari'
tp3110
a(S'100007377152529'
S'Khalid Khan Mazzari'
tp3111
a(S'100001789819550'
S'Zabihullah Urozgan Afghanistan'
tp3112
a(S'100001553684881'
S'Abdul Khabir'
tp3113
a(S'100001716451664'
S'Toryalai Masoodi'
tp3114
a(S'100001498408603'
S'Ahmad Shikib'
tp3115
a(S'100000711564171'
S'Irfan Fida'
tp3116
a(S'100007744693508'
S'Iqbal Mangal'
tp3117
a(S'100000470258671'
S'Zabihullah Khan Sahak'
tp3118
a(S'100001269020631'
S'Helmand Khamosh'
tp3119
a(S'100002325213469'
S'Najeebullah Halim'
tp3120
a(S'100001035061725'
S'Pathan Khan'
tp3121
a(S'100000221324719'
S'Asfandyar Khan Hesami'
tp3122
a(S'100001432772355'
S'Asfandyar Khan'
tp3123
a(S'100002348971363'
S'Baryalai Sahak'
tp3124
a(S'100001259083305'
S'Hafizrahman Rahmany'
tp3125
a(S'100002228053675'
S'Deda Farhadi'
tp3126
a(S'100004623483516'
S'Nader Roshan Roshan'
tp3127
a(S'100001403000938'
S'Sheikh Esfand Iar Mandokhail'
tp3128
a(S'100002208732372'
S'Younas Sabiri'
tp3129
a(S'100001513480134'
S'Javed Noor'
tp3130
a(S'100001221177789'
S'Baryal Ahmadzai Ahmadzai'
tp3131
a(S'100002226740287'
S'Muhammad Irfan'
tp3132
a(S'100006775504039'
S'Dost Muhammad'
tp3133
a(S'100000815237402'
S'Ehsanullah Mukhles Patan'
tp3134
a(S'100001033062626'
S'Abad Rahman Reshtin'
tp3135
a(S'100001983025669'
S'Anzargul Zazai'
tp3136
a(S'100000509043058'
S'Wahidullah Zazai'
tp3137
a(S'100004447475345'
S'Zabi Ziyarmal'
tp3138
a(S'100001893229151'
S'Waheed Stankzi'
tp3139
a(S'100003211666200'
S'Ismail Ibrahimkhil'
tp3140
a(S'100000292452958'
S'Samiullah Sarfirazi'
tp3141
a(S'100001705468937'
S'Abdullah Khan'
tp3142
a(S'100002334363581'
S'Khalid Maftoonyar'
tp3143
a(S'100002211850233'
S'Hayat Bangush'
tp3144
a(S'100002016744392'
S'M Baseer Haqyaar'
tp3145
a(S'100001827902134'
S'Pradyoth Kumar Chowdhry'
tp3146
a(S'1249822365'
S'Mirwais Akeed Stanikzai'
tp3147
a(S'100002635142300'
S'Kaihan Samim'
tp3148
a(S'100001436653518'
S'Baryally Afghan'
tp3149
a(S'100007007974959'
S'Niamatallah Hakimi'
tp3150
a(S'100002797699663'
S'Alishah Dawran Abdulrahimzai'
tp3151
a(S'100002531281470'
S'Maruf Rahman Zakhail'
tp3152
a(S'100000199318642'
S'Jafar Asar'
tp3153
a(S'100002175854238'
S'Balbala Paktiayawala'
tp3154
a(S'100007390863833'
S'Sana Ulfat'
tp3155
a(S'100001172100162'
S'Qudratullah Ghaforzai'
tp3156
a(S'100001919492058'
S'MA Zargae'
tp3157
a(S'100001776625018'
S'Muxaayy Cool'
tp3158
a(S'100002106938949'
S'Sardar Sayeed'
tp3159
a(S'100002120655955'
S'Ihsan Ullah Talash'
tp3160
a(S'100003378790443'
S'Safiullah Patan'
tp3161
a(S'1782922293'
S'Zabi Hullah'
tp3162
a(S'1844175146'
S'Abdul Wali Khan Hekmat'
tp3163
a(S'100001923026635'
S'Obaid Asifzai'
tp3164
a(S'100004455211666'
S'Ahmadshah Lakankhail Andar'
tp3165
a(S'100001598080473'
S'Meyakhel Hashmatullah'
tp3166
a(S'1679285329'
S'Latif Yad'
tp3167
a(S'100000844439070'
S'Abdurauf Khamosh'
tp3168
a(S'566514972'
S'Mashal Shamsullah'
tp3169
a(S'100001424332623'
S'Zama Watan'
tp3170
a(S'100001486046357'
S'Mustafa Noori Wardak'
tp3171
a(S'100008061157783'
S'HB Habibullah'
tp3172
a(S'100001347177418'
S'Amir Shirzai'
tp3173
a(S'1265799850'
S'Mirwais Fazli'
tp3174
a(S'100001719887194'
S'Rehan Mahsud'
tp3175
a(S'100000699356887'
S'Sediqullah Zaheer'
tp3176
a(S'100001684499150'
S'Jeete Happ'
tp3177
a(S'100002087479446'
S'Arman Jalizi'
tp3178
a(S'100003881484989'
S'Noor Ali Khan'
tp3179
a(S'100006913034024'
S'Said Uallah'
tp3180
a(S'100000196181324'
S'Ajmal Atal'
tp3181
a(S'100002104933574'
S'Abdul Sattar Ghaznawy'
tp3182
a(S'100000854301426'
S'Hayat Ahmadzai'
tp3183
a(S'100004537594421'
S'Afghan Zindabad'
tp3184
a(S'100001727804597'
S'Waheed Shinwari'
tp3185
a(S'100001043702019'
S'Ahmad Monir Niazi'
tp3186
a(S'100000333982319'
S'Sharaf Katawazi'
tp3187
a(S'815707079'
S'Aurangzeb Khan'
tp3188
a(S'100000374455748'
S'Sher Khan Ahmadzai'
tp3189
a(S'1690860889'
S'Aziz Rahman'
tp3190
a(S'100001410133723'
S'Haqmal Esar'
tp3191
a(S'100002017823292'
S'Fahim Shahid Mohammad Sahak'
tp3192
a(S'100002136638445'
S'Srak Takar Pashton'
tp3193
a(S'838240295'
S'Mohammad Qahir Wardag'
tp3194
a(S'1304388295'
S'Paktia Wal'
tp3195
a(S'100001503610272'
S'Zazai Aieen'
tp3196
a(S'100008381077659'
S'Razmohammad Abrahimkhil'
tp3197
a(S'1754179944'
S'Droond Kochi'
tp3198
a(S'100007770222292'
S'Baharullah Safi'
tp3199
a(S'100006082951409'
S'Imdadulla Arbab'
tp3200
a(S'100000220998893'
S'Nek Sherzay'
tp3201
a(S'100005302804851'
S'Eng Wahid Shahaby'
tp3202
a(S'100002066146339'
S'Salman Afghan'
tp3203
a(S'100002352784728'
S'Faizullah Faiz'
tp3204
a(S'100001677959170'
S'Zeeshan Khan'
tp3205
a(S'100001161570447'
S'Arman Qais Durani'
tp3206
a(S'100002202543765'
S'Suraj Wafa'
tp3207
a(S'100006771754065'
S'\\u0627\\u0646\\u0639\\u0627\\u0645 \\u0627\\u0644\\u0644\\u0647 \\u0648\\u0631\\u062f\\u0643'
tp3208
a(S'100001775269764'
S'\\u0634\\u0645\\u0634\\u0627\\u062f \\u062d\\u064a\\u062f\\u0631'
tp3209
a(S'100008186730092'
S'Mahmud Khan'
tp3210
a(S'100000102782005'
S'Qader Fahim'
tp3211
a(S'100001137476389'
S'Yaqoob Nasiri'
tp3212
a(S'100002502571327'
S'Ahmed Jamal'
tp3213
a(S'100000697172074'
S'Ahmad Khan'
tp3214
a(S'100004031686593'
S'\\u0646\\u0648\\u0631\\u0627\\u062e\\u0645\\u0627\\u0646 \\u0633\\u0639\\u06cc\\u062f\\u06cc'
tp3215
a(S'694643375'
S'Nematullah Zaheer'
tp3216
a(S'100002302635774'
S'DrHaqmal Mangal'
tp3217
a(S'1229447399'
S'Ihsanullah Aseel'
tp3218
a(S'100002933017902'
S'Khan Afg'
tp3219
a(S'100001404692636'
S'Royal Pvc Kandahar'
tp3220
a(S'100003625542766'
S'Habib Totakhail'
tp3221
a(S'100005825562844'
S'YuSuf Jahish'
tp3222
a(S'100002381805384'
S'Karima Asad'
tp3223
a(S'100001858355245'
S'Mohammad Naseer'
tp3224
a(S'100000491955680'
S'Naseeb Stanickzai'
tp3225
a(S'100006515315853'
S'Zabihullah Hassan'
tp3226
a(S'100001750327258'
S'Mohd Nafees'
tp3227
a(S'100001406849005'
S'Eng Haroon Aseer'
tp3228
a(S'100000056838944'
S'Samikhan Akakhil'
tp3229
a(S'100004402565428'
S'Sirajudeen Zurmati'
tp3230
a(S'100002245958012'
S'Zalmay Pukhtun'
tp3231
a(S'100004048544164'
S'Najeeb Sharafzai'
tp3232
a(S'100003679912591'
S'Nourulah Jamali'
tp3233
a(S'1160066792'
S'Muhammad Idrees'
tp3234
a(S'100000488292335'
S'Majid Ali'
tp3235
a(S'100003185651370'
S'\\u0633\\u064a\\u062f\\u0645\\u0631\\u062c\\u0627\\u0646 \\u0647\\u0685\\u0627\\u0646\\u062f'
tp3236
a(S'100003811594988'
S'Drabdullah Kakar'
tp3237
a(S'100002281017919'
S'Bashir Ahmad Faizi'
tp3238
a(S'100000392322528'
S'Esrar Ahmad Esrar'
tp3239
a(S'100002184132026'
S'Ahmadullah Ahmadzai'
tp3240
a(S'100007723964518'
S'Gul Afghan'
tp3241
a(S'100001180666238'
S'Sefatullah Nickmal'
tp3242
a(S'100001535138898'
S'Muhammad Ahmadzai'
tp3243
a(S'100000547936914'
S'Hafeez Hashimi'
tp3244
a(S'100000929242232'
S'Sayed Sebghatullah Shahidzai'
tp3245
a(S'100000694598429'
S'Khan Farookh'
tp3246
a(S'100000774651644'
S'Meena Afghan'
tp3247
a(S'100000726606352'
S'Aimal Oriakhill'
tp3248
a(S'100001767408204'
S'Manija Herati'
tp3249
a(S'100000512181876'
S'Hask Pameer Stanikzai'
tp3250
a(S'100001504393476'
S'Amin Arsalan'
tp3251
a(S'100001482581434'
S'Gulwali Wardak'
tp3252
a(S'100001527858703'
S'Shakib Kabul'
tp3253
a(S'1329635701'
S'Rahmatgul Halim'
tp3254
a(S'1388193935'
S'Meraj Haqmal'
tp3255
a(S'100007181341759'
S'Zarjan Babakarkail'
tp3256
a(S'100003401777398'
S'Ahmad Yosuf Khial'
tp3257
a(S'100001939277779'
S'Khyber Safi'
tp3258
a(S'100001841134271'
S'Aminullah Molakhail'
tp3259
a(S'100000416031119'
S'Nasir Ali Turi'
tp3260
a(S'1207954803'
S'Hamid Omaryar'
tp3261
a(S'100007932159540'
S'Farid Firdos'
tp3262
a(S'100004371130880'
S'Toofan Ahmadi'
tp3263
a(S'100002100192053'
S'Enayatullah Alone-Afghan'
tp3264
a(S'100007750743823'
S'Alamgeer Khan'
tp3265
a(S'100001364556523'
S'Mirwais Stanikzai'
tp3266
a(S'100000369033576'
S'Mirajuddin Zaheer'
tp3267
a(S'100002105355509'
S'\\u0641\\u06a9\\u0627\\u0647\\u06cc\\u0627\\u062a \\u06af\\u0631\\u062f\\u0647 \\u06a9\\u0641\\u06a9'
tp3268
a(S'100002214743891'
S'Wahidullah Wahdat'
tp3269
a(S'100002140062738'
S'Esmat Ziaye'
tp3270
a(S'100005929623780'
S'Sediqullah Alizay'
tp3271
a(S'100002136828176'
S'Khurshid Afridi'
tp3272
a(S'100001336480222'
S'Asghar Jalal'
tp3273
a(S'100000673561325'
S'Nunung Ratnasari'
tp3274
a(S'100000859415694'
S'Spinghar Afghan'
tp3275
a(S'100000136344905'
S'Mazhar Ul Ghani'
tp3276
a(S'100001822087148'
S'Fawad Safi'
tp3277
a(S'1808326399'
S'Wahid Payman'
tp3278
a(S'100001844654024'
S'Ata Mohammad Miakhel'
tp3279
a(S'665866129'
S'Khalid Mehmood Safi'
tp3280
a(S'100001671823991'
S'Mohammad Ibrahim Abdulrahimzai'
tp3281
a(S'100001586708404'
S'\\u0645\\u062d\\u0628\\u062a \\u0634\\u0627\\u0647 \\u0635\\u0627\\u0628\\u0631\\u064a'
tp3282
a(S'100000803484773'
S'Said Anwarshah Quraishi'
tp3283
a(S'100001137317275'
S'Matiullah Sarwan'
tp3284
a(S'100002123497430'
S'Khaksar Matti'
tp3285
a(S'100000707557393'
S'Sobia Khan'
tp3286
a(S'100001600908502'
S'Rahim Wahidi Afghan'
tp3287
a(S'100006855455399'
S'Abdul Mateen'
tp3288
a(S'718821435'
S'Haseeb Shinwary'
tp3289
a(S'100000862008571'
S'Mazarjan Dadwall'
tp3290
a(S'100002272172193'
S'\\u0645\\u062d\\u0645\\u062f \\u0627\\u0628\\u0648 \\u0627\\u0644\\u0639\\u0644\\u0627'
tp3291
a(S'100007078952627'
S'Turyalai Mullakhil'
tp3292
a(S'100001085800565'
S'Tajwali Loyal'
tp3293
a(S'100002051639935'
S'Mohammad Farooq Boia'
tp3294
a(S'100000982898573'
S'Sameer Afghan'
tp3295
a(S'100002178948001'
S'Zabihullah Saad'
tp3296
a(S'100005729588569'
S'Najib Ullah Darwaish'
tp3297
a(S'100005655181538'
S'Frishta Sahar Sana'
tp3298
a(S'100001502627844'
S'\\u062d\\u06a9\\u06cc\\u0645 \\u06ab\\u0644 \\u0631\\u062d\\u06cc\\u0645\\u06cc'
tp3299
a(S'693852277'
S'Zalmay Pashton'
tp3300
a(S'100002098285566'
S'Haroon King'
tp3301
a(S'100001030549825'
S'Shafi Naseri'
tp3302
a(S'1273375421'
S'Syed Abdul Mutalib Agha'
tp3303
a(S'100002401025330'
S'\\u0635\\u062f\\u0627\\u0642\\u062a \\u06af\\u0631\\u0648\\u067e'
tp3304
a(S'1048394897'
S'Fazal Khan'
tp3305
a(S'100003485976824'
S'Safar Mohammad T'
tp3306
a(S'100002280114760'
S'Bashir Hanif'
tp3307
a(S'100000284175623'
S'Obaid Safi'
tp3308
a(S'100000764117585'
S'Baryalai Afghan'
tp3309
a(S'100000384565642'
S'Wazir Khan'
tp3310
a(S'100007331140321'
S'Fawad Pathan'
tp3311
a(S'1553413930'
S'Inayat Lutfi'
tp3312
a(S'100001724394947'
S'Bowraacom Bowra'
tp3313
a(S'100000660554213'
S'Ningyaly Dadwal'
tp3314
a(S'100000074249160'
S'Gm Bn'
tp3315
a(S'100001470556175'
S'Mohammad Nasim Ayobi'
tp3316
a(S'611478796'
S'Wali Ahmadzai'
tp3317
a(S'1126598412'
S'Sial Pashtun \\u0633\\u06cc\\u0627\\u0644 \\u067e\\u069a\\u062a\\u0648\\u0646'
tp3318
a(S'100001353537307'
S'Mohammad Faisal Kasra'
tp3319
a(S'100000596589379'
S'Ihsanullah Ihsan'
tp3320
a(S'100001559590164'
S'Sahibzadahpl Paktyawal'
tp3321
a(S'100000660910632'
S'Ahmad Shah Erfanyar'
tp3322
a(S'100002191495320'
S'Qadeemshah Hemat'
tp3323
a(S'100002070460698'
S'Basharmal Khan'
tp3324
a(S'1266627154'
S'Sawabdin Makhkash'
tp3325
a(S'1169077926'
S'Bakhter Ihsan'
tp3326
a(S'1790597543'
S'Haroon Haand'
tp3327
a(S'100000217030218'
S'Hilal Momand'
tp3328
a(S'100006440751408'
S'Muhammad Afzal'
tp3329
a(S'100002515140382'
S'Farman Hamdard'
tp3330
a(S'100007242813598'
S'Abid Sail Safi'
tp3331
a(S'100001523661433'
S'\\u062d\\u0627\\u0645\\u062f \\u0645\\u0627\\u0645\\u0648\\u0646\\u062f'
tp3332
a(S'100006577957395'
S'Waris Babakarkhil'
tp3333
a(S'100000091527389'
S'Noor Saeed'
tp3334
a(S'100007285449367'
S'Akbarjan Zazai'
tp3335
a(S'100002389702567'
S'Hamayon Aziz'
tp3336
a(S'1382307518'
S'Saidullah Haqmal'
tp3337
a(S'100002270661430'
S'Sajjad Ali'
tp3338
a(S'100003316380012'
S'Farhad Qaderi'
tp3339
a(S'100002167506781'
S'Heela Khan'
tp3340
a(S'1024214013'
S'Rahmatullah Hamraz Wardak'
tp3341
a(S'100007396773493'
S'Naseer Ahmad'
tp3342
a(S'100007138210186'
S'Arifin Galau'
tp3343
a(S'100000053739166'
S'Syed Jillani Jallan'
tp3344
a(S'100002144222724'
S'Sharifa Tanha'
tp3345
a(S'100000935039141'
S'Ibrahim Sharafzai'
tp3346
a(S'100000374858882'
S'Ghafarzai Bashir'
tp3347
a(S'100002054574782'
S'Zekrallah Tanweer'
tp3348
a(S'100007706344999'
S'Masroor Akhonzada'
tp3349
a(S'100001049911311'
S'Md Jwonaid'
tp3350
a(S'100001733664946'
S'Shah Rukh'
tp3351
a(S'100000702946799'
S'Haroon Sarfaraz'
tp3352
a(S'100002228913876'
p3353
S'Annu Gautam'
tp3354
a(S'100001821601752'
S'Javid Khan'
tp3355
a(S'100001577294797'
S'Abdullah Omar'
tp3356
a(S'100001859720118'
S'Lemar Zaher'
tp3357
a(S'100000115827338'
S'Mohammad Shoaib Nasiri'
tp3358
a(S'100002149799130'
S'Manzoor Ali'
tp3359
a(S'100002223232189'
S'Nuno Konan'
tp3360
a(S'100000505850837'
S'Sohail Ahmad'
tp3361
a(S'100000829989987'
S'Dervish Afghan'
tp3362
a(S'100007709257559'
S'Helamand Dawerzay'
tp3363
a(S'100000192242957'
S'Khalilullah Sarwari'
tp3364
a(S'100007972144727'
S'Zmaryali Zamary'
tp3365
a(S'100003971157947'
S'Dost Tanha'
tp3366
a(S'100000923434360'
S'Ilyas Mahsil Stanikzai'
tp3367
a(S'1422721073'
S'Arif Sana Valizada'
tp3368
a(S'100001175367409'
S'Samim Samady'
tp3369
a(S'1665580369'
S'Wahid Sherzad'
tp3370
a(S'634718767'
S'Arifullah Sahil'
tp3371
a(S'100006723842767'
S'Hamid Mangal'
tp3372
a(S'100002180756207'
S'\\u0631\\u06cc\\u069a\\u062a\\u0646\\u06cc \\u067e\\u069a\\u062a\\u0648\\u0646'
tp3373
a(S'100001014600690'
S'Wahid Haroon'
tp3374
a(S'100000908337580'
S'Salman Amiri'
tp3375
a(S'100003191505991'
S'Naik Mohammad Razi'
tp3376
a(S'100007783801960'
S'Aidatullah Ahmadzai'
tp3377
a(S'100001644736968'
S'Saidakbar Kuchi'
tp3378
a(S'1429286337'
S'Waheed Rahimi'
tp3379
a(S'100001562524434'
S'Ahmad Tariq Latifi'
tp3380
a(S'100001987596336'
S'Bunty Kumar'
tp3381
a(S'1684036391'
S'Abdul Shafi Ghani'
tp3382
a(S'100001960064069'
S'Naween Ahamdzai'
tp3383
a(S'100001616425053'
S'Ashraf Ghani'
tp3384
a(S'100001903050918'
S'Didarulhaq Didar'
tp3385
a(S'100002343384511'
S'Ian Breat Lee'
tp3386
a(S'100006069360112'
S'Mohammad Javid Hussainy'
tp3387
a(S'100005366166198'
S'Darweesh Khan'
tp3388
a(S'100007819560738'
S'Niamatullah Sahak'
tp3389
a(S'100002245433362'
S'Dipak Ghimire'
tp3390
a(S'100002357880730'
S'Khatir Khan'
tp3391
a(S'100002068984867'
S'Haroon Khan Hamidi'
tp3392
a(S'1089361592'
S'Fawad Lameh'
tp3393
a(S'100000556458587'
S'Md Ferdous'
tp3394
a(S'1266131422'
S'\\u0648\\u062d\\u06cc\\u062f\\u0627\\u0644\\u0644\\u0647 \\u0648\\u0631\\u062f\\u06a9'
tp3395
a(S'100007551490053'
S'Parviz Pasarly'
tp3396
a(S'100000736834143'
S'Esmatullah Wrd'
tp3397
a(S'100005233477620'
S'Dost Mohammad Afgan'
tp3398
a(S'100003164935331'
S'\\u0634\\u063a\\u0644\\u0647 \\u0633\\u0647\\u0627\\u0631 \\u0644\\u0645\\u0628\\u0647'
tp3399
a(S'100001573565009'
S'Noor Zaman Khan'
tp3400
a(S'100003387196730'
S'Jamshed Amirzai'
tp3401
a(S'100001770086238'
S'Ahmadi Roohullah'
tp3402
a(S'100001474746149'
S'Naeem Ahmadzai'
tp3403
a(S'1538194763'
S'Arshad Khan'
tp3404
a(S'100000753414745'
S'Noumy Khan'
tp3405
a(S'100002157621390'
S'Noor Zaman'
tp3406
a(S'100002272735930'
S'Younis Khan'
tp3407
a(S'100001151676455'
S'Mohammad Naseem Stanikzai'
tp3408
a(S'100001912019005'
S'Mirhaidar Selab'
tp3409
a(S'100001633405815'
S'Haji Abdul Qader Ahmadzai'
tp3410
a(S'100001277371262'
S'Aziz Attal'
tp3411
a(S'100007581370175'
S'Zahid Gul'
tp3412
a(S'100002242378905'
S'Ghulam Tanha'
tp3413
a(S'100008340301732'
S'Mamor Khan'
tp3414
a(S'100001972420077'
S'Faqir M Sturiy'
tp3415
a(S'100000841186050'
S'Sohail Amire Habibi'
tp3416
a(S'100001430997281'
S'Qaiser Jamal'
tp3417
a(S'100002174179393'
S'Farid Taskeen'
tp3418
a(S'100007366444392'
S'Masood Habib'
tp3419
a(S'100000499674068'
S'Jahangir Zadran'
tp3420
a(S'100000726807906'
S'Ahmadullah Ahmadzai'
tp3421
a(S'100001452720864'
S'Usman Kamran'
tp3422
a(S'100003365464405'
S'Tajmohammad Mohammady'
tp3423
a(S'100002239803337'
S'Sultan Ghani Ahmadzai'
tp3424
a(S'655902647'
S'\\u0627\\u0641\\u063a\\u0627\\u0646\\u0633\\u062a\\u0627\\u0646 \\u0632\\u06cc\\u0628\\u0627'
tp3425
a(S'757462397'
S'Naseer Ahmad Lateefzai'
tp3426
a(S'100001829472163'
S'Sebghatullah Omerkhil'
tp3427
a(S'100002222842746'
S'Abasin Bahand'
tp3428
a(S'100001217322095'
S'Zainullah Shaheedzoy'
tp3429
a(S'100001527966368'
S'Sayed Sharaf'
tp3430
a(S'100004343100559'
S'Masehullah Hasanzai'
tp3431
a(S'1314194450'
S'Dawood Jabarkhail'
tp3432
a(S'100000716285652'
S'Naimatullah Ahmadi'
tp3433
a(S'100005386150077'
S'\\u062e\\u067e\\u0644\\u0648\\u0627\\u0643 \\u0627\\u0641\\u063a\\u0627\\u0646'
tp3434
a(S'100000189624834'
S'Bashar Umer'
tp3435
a(S'100000905362641'
S'\\u0648\\u0631\\u062f\\u06a9 \\u063a\\u0627\\u0632\\u06cc \\u0645\\u062d\\u0645\\u062f\\u062c\\u0627\\u0646 \\u062e\\u0627\\u0646\\u060c'
tp3436
a(S'100001221515941'
S'Seerat Khan'
tp3437
a(S'100002107071472'
S'Suliman Almas Sanjar'
tp3438
a(S'100002154895819'
S'Murtaza Zameer'
tp3439
a(S'100002043260257'
S'Waisudin Faizi'
tp3440
a(S'100007211291384'
S'Ali Jan'
tp3441
a(S'100000311202573'
S'Omar Sana'
tp3442
a(S'100000118693734'
S'Sangin Naseri'
tp3443
a(S'100007258290757'
S'Sejad Rahimi'
tp3444
a(S'100001034153312'
S'Watan Dost Mandokhail'
tp3445
a(S'100006060183347'
S'Hakim Nizami'
tp3446
a(S'100000148247422'
S'Muhammad Gul Sartaj'
tp3447
a(S'100001398883207'
S'Abo Rayan'
tp3448
a(S'100000557217494'
S'Saeed Ktk'
tp3449
a(S'100002174942066'
S'Manzoor Barak'
tp3450
a(S'100001764824519'
S'Michael D. Ward'
tp3451
a(S'100002212003984'
S'Aamer Saeed Swat'
tp3452
a(S'100000739056454'
S'ShIrzai Tarakhel'
tp3453
a(S'100000850247355'
S'Hussain Alizai'
tp3454
a(S'100002186597928'
S'Farrukh Saair'
tp3455
a(S'1415253715'
S'Afghan Pashton'
tp3456
a(S'100007527811517'
S'Moshtaba Amarkhil'
tp3457
a(S'100000573321076'
S'Gold Af'
tp3458
a(S'100003970722894'
S'Mahbobshah Noorzai'
tp3459
a(S'100004235261540'
S'Sameer Nangahari'
tp3460
a(S'100002243135582'
S'Abdul Razzaq Mulla Khail'
tp3461
a(S'100001173348511'
S'\\u0648\\u0642\\u0627\\u0631 \\u0627\\u0639\\u0648\\u0627\\u0646'
tp3462
a(S'100004311308835'
S'Nawsher Hamkar'
tp3463
a(S'100007085527724'
S'Ghamgan Tanha'
tp3464
a(S'100003882631005'
S'Azeem Khan'
tp3465
a(S'100008282325517'
S'Rana Ahmadi'
tp3466
a(S'100004441061792'
S'Adil Khan'
tp3467
a(S'100001887437800'
S'Hashmat Alakozai'
tp3468
a(S'100006628145811'
S'Mahiudin Rasheed Salamzi'
tp3469
a(S'100000758980196'
S'Mirwais Mirzakwal'
tp3470
a(S'100001776703050'
S'Ajab Noor Gurbaz'
tp3471
a(S'707224464'
S'Sahameddin Ghiassi'
tp3472
a(S'100002230667936'
S'Pamir Afghan'
tp3473
a(S'100003834481423'
S'Ahmad Shoaib Dost'
tp3474
a(S'100005979486045'
S'Omeid Khan'
tp3475
a(S'100002971370772'
S'Najibullah Mirzad Sarferaz'
tp3476
a(S'100001482308921'
S'Nisar Ahmad Ahmadi'
tp3477
a(S'100001601365824'
S'Sadiq Ullah Sadiqi'
tp3478
a(S'100001840015123'
S'Ehsan Ullah Sarhawzewal'
tp3479
a(S'1619126786'
S'Zabihullah Ehsas'
tp3480
a(S'100000589585907'
S'\\u0644\\u0637\\u064a\\u0641 \\u0646\\u0646\\u06af\\u0631\\u06c1\\u0627\\u0631\\u06cc'
tp3481
a(S'100000218254427'
S'Naveed Khan'
tp3482
a(S'100001987341227'
S'Naima Nasseri'
tp3483
a(S'1452321538'
S'Kazim Qureshi'
tp3484
a(S'100007427526857'
S'Shawali Wardak'
tp3485
a(S'1780102300'
S'Tayeb Aryan'
tp3486
a(S'100006748262912'
S'Asadullah Karimi'
tp3487
a(S'100002045225449'
S'Rozi Khan Parwatzai'
tp3488
a(S'100003551632982'
S'Raz Mohammad Zirak'
tp3489
a(S'100007899971364'
S'Barialai Andaz'
tp3490
a(S'100001416469642'
S'Laghman Khan'
tp3491
a(S'100006555849594'
S'Shahzada Zraswand'
tp3492
a(S'554441660'
S'Mohammad Wais Khetab'
tp3493
a(S'756509740'
S'Tamimullah Azami'
tp3494
a(S'548086814'
S'Ahmad Hamid'
tp3495
a(S'100001606750780'
S'Naseem Alkozay'
tp3496
a(S'100007994194755'
S'Mohammad Nabi Shakir'
tp3497
a(S'100000119106712'
S'Atta Mandokhail'
tp3498
a(S'100001612944108'
S'Mahboob Elahi'
tp3499
a(S'100007656463184'
S'Sarar Taylor'
tp3500
asS'id'
p3501
S'100002085311776'
p3502
sS'name'
p3503
S'Mena Mangal'
p3504
s.