(dp1
S'friends'
p2
(lp3
(S'100001852596465'
p4
S'Sanket Tingre'
tp5
a(S'100001400906016'
S'Nana Kate'
tp6
a(S'100001434548227'
S'Suraj Bhumkar'
tp7
a(S'100000109543185'
S'Ajinkya Tekawade'
tp8
a(S'1755649644'
S'Abhijit Shivarkar'
tp9
a(S'100001085547938'
S'Bibishan Bhosale'
tp10
a(S'100001299757656'
S'Ashish Jadhav'
tp11
a(S'1778275388'
S'Yogesh Dattatray Deokar'
tp12
a(S'100001413796183'
S'Jay Manohar Ranade'
tp13
a(S'100001636710692'
S'Rishikesh Thube'
tp14
a(S'100001614485450'
S'Atul Jagtap'
tp15
a(S'100001031076716'
S'\\u092e\\u094b\\u0930\\u0947\\u0936\\u094d\\u0935\\u0930 \\u092d\\u094b\\u0908\\u0930'
tp16
a(S'100001534364637'
S'Prafull Nile'
tp17
a(S'100001353788389'
S'Nilesh Londhe'
tp18
a(S'594869360'
S'Dnyanesh Pawar'
tp19
a(S'100001056845641'
S'Abhi Patole'
tp20
a(S'100000098972011'
S'Manish Bhongle'
tp21
a(S'100001564800489'
S'Nikhil Gawade'
tp22
a(S'100001300697309'
S'Prashant Bhor'
tp23
a(S'100000027350526'
S'Akshay Bhongale'
tp24
a(S'100001244297336'
S'Nitin Dalvi'
tp25
a(S'100001593014335'
S'Vikas Maske'
tp26
a(S'100001441505945'
S'Sairaj Deshmukh'
tp27
a(S'100000365788928'
S'Anil Sipekar'
tp28
a(S'100001487752730'
S'Ajay Landge'
tp29
a(S'100000430746463'
S'Deepika Pawar'
tp30
a(S'100000357286082'
S'Santosh Sawant'
tp31
a(S'100001593636240'
S'Aditya Lonkar'
tp32
a(S'100001218495213'
S'Abhishek Jitendra Marathe'
tp33
a(S'542609439'
S'Sandeep Mandalik'
tp34
a(S'100000763714654'
S'Sandeep Inamke'
tp35
a(S'100000538890439'
S'Rahul R Unecha'
tp36
a(S'100000909868544'
S'Shivba Pimpri'
tp37
a(S'100000501719165'
S'Swapnil Kadam'
tp38
a(S'100001571600581'
S'Shubham Wadkar'
tp39
a(S'100000548248410'
S'Sushil Lonkar'
tp40
a(S'100000064577857'
S'Irfan Shaikh'
tp41
a(S'1104785318'
S'Manoj Jagtap'
tp42
a(S'1417178745'
S'Dipak Bhagwat'
tp43
a(S'100000671788987'
S'Rajasthan Mali Samaj Mumbai'
tp44
a(S'100001205462080'
S'Prakash Kharade'
tp45
a(S'100001029148587'
S'Swapnil Navale'
tp46
a(S'100000109942801'
S'Chinmay Rokade Mns'
tp47
a(S'100001573649006'
S'\\u0927\\u0928\\u0930\\u093e\\u091c \\u0928\\u093e\\u0908\\u0915'
tp48
a(S'100001016548173'
S'Pratik Dolas'
tp49
a(S'100001345581501'
S'Ajinkya Chinchwade'
tp50
a(S'100001125724041'
S'Shivaji Bhosale'
tp51
a(S'100001380054139'
S'Nisar Shaikh'
tp52
a(S'100000466636033'
S'Deepak Dagade Patil'
tp53
a(S'100000781238577'
S'Sharif Deshmukh'
tp54
a(S'1839579216'
S'Suraj Ankushraw'
tp55
a(S'1272674549'
S'\\u0905\\u0945\\u0921 \\u0905\\u0915\\u094d\\u0937\\u092f \\u0915\\u0932\\u0902\\u0924\\u094d\\u0930\\u0940'
tp56
a(S'1301701577'
S'Sandesh Bhujbal'
tp57
a(S'100001556441966'
S'Kiran Waghere'
tp58
a(S'100001249497280'
S'Pranay Tamhane'
tp59
a(S'100001192276727'
S'Ajinkya Ghule'
tp60
a(S'100000175993548'
S'Dilip Mali'
tp61
a(S'100001644071904'
S'Prashant Thorat'
tp62
a(S'100001611021741'
S'\\u092e\\u093e.\\u0936\\u0941\\u092d\\u092e \\u0936\\u0947\\u0920 \\u091c\\u094d\\u091e\\u093e\\u0928\\u0947\\u0936\\u094d\\u0935\\u0930 \\u0922\\u0935\\u0933\\u0947'
tp63
a(S'100000888731987'
S'Aanesh Patole'
tp64
a(S'100001440922352'
S'Shekhar Khamkar'
tp65
a(S'100001537068672'
S'Abhijeet Mate'
tp66
a(S'100001267780134'
S'Suryakant Kurhade'
tp67
a(S'100001616494961'
S'Hemant Bhongale'
tp68
a(S'100001211118856'
S'Hrushikesh Londhe'
tp69
a(S'100001493536237'
S'\\u0938\\u0902\\u0926\\u0940\\u092a \\u0926\\u0930\\u0947\\u0915\\u0930'
tp70
a(S'1715400372'
S'Vikas Dhore'
tp71
a(S'1173700336'
S'Ramesh Hse'
tp72
a(S'100001504131213'
S'\\u0905\\u0930\\u0942\\u0923 \\u092f\\u093e\\u0926\\u0935'
tp73
a(S'100000364283540'
S'Abhijeet Shelke Patil'
tp74
a(S'100001383454089'
S'Abhishek Arun Matkar'
tp75
a(S'100001349518093'
S'Ganesh Shinde'
tp76
a(S'1630357358'
S'Harshal Gaikwad'
tp77
a(S'100001189219387'
S'Pritam Sunil Bhujbal'
tp78
a(S'1795273094'
S'Mangesh Kadam'
tp79
a(S'100000836872995'
S'Sujit Ambirkar'
tp80
a(S'1091174677'
S'Vishal Kadam'
tp81
a(S'100000544045750'
S'Vaibhav Gawade'
tp82
a(S'100001026137978'
S'Nandkumar Balwadkar'
tp83
a(S'100000872703410'
S'Kiran Gaikwad'
tp84
a(S'100001594760164'
S'Mns Surya Raje Mahadik'
tp85
a(S'100001126723623'
S'Sandeep Chavan'
tp86
a(S'1397041828'
S'Shalva Mundale'
tp87
a(S'100001324537833'
S'Sachin Sureshrao Bhongale'
tp88
a(S'100001177579907'
S'Yogesh Kharat'
tp89
a(S'100000596870871'
S'\\u0905\\u091c\\u092f \\u092e\\u0930\\u0947'
tp90
a(S'100000595834329'
S'Gulam Husain Khan'
tp91
a(S'100000949672898'
S'Aditya Shirke'
tp92
a(S'100000300581267'
S'AnKit DhOle'
tp93
a(S'704622080'
S'Sujeet Shilamkar'
tp94
a(S'100001326956538'
S'Vijay Kadam Phaltankar'
tp95
a(S'697271912'
S'Ganesh Jagtap'
tp96
a(S'562978553'
S'Akshay Dalvi'
tp97
a(S'100001201448365'
S'Amar Athane'
tp98
a(S'100000890863687'
S'Prasad Maruti Mankar'
tp99
a(S'100000015433758'
S'Pradeep Jangam'
tp100
a(S'100001550701811'
S'Abhishek Bankar'
tp101
a(S'1221780838'
S'Vishal Waghere'
tp102
a(S'100001466926627'
S'Haji Arfat Shaikh'
tp103
a(S'100001511228272'
S'Niranjan Bhosale'
tp104
asS'id'
p105
S'100003027664860'
p106
sS'name'
p107
S'Pradeep Inamke'
p108
s.