(dp1
S'friends'
p2
(lp3
(S'100000631294561'
S'Radhakrishna Nelapatla'
tp4
a(S'100001230317844'
S'Faysal Mohammed'
tp5
a(S'100001883497113'
S'Praneeth Buruju'
tp6
a(S'1066599546'
S'Vineet Alampally'
tp7
a(S'100001459595613'
S'Krishna Reddy'
tp8
a(S'100000602972428'
S'Pratheek Reddy'
tp9
a(S'100004091378852'
S'Arun Savan'
tp10
a(S'1772154613'
S'Medhini Heeramaglore'
tp11
a(S'100002226897189'
S'Praful Sinha'
tp12
a(S'100000137851072'
S'Nived Veerapaneni'
tp13
a(S'100003570795313'
S'Likhith Kadaveru'
tp14
a(S'100002175608900'
S'Sagar Skylar'
tp15
a(S'100007328791934'
S'Jagadish Kumar'
tp16
a(S'100001238687513'
S'Mohammed Aafaq Bhutto'
tp17
a(S'100004090541176'
S'AmEet Rai'
tp18
a(S'100000945369296'
S'Prudhvi Janga'
tp19
a(S'598051118'
S'Biko Zuma Belnia'
tp20
a(S'100002313668076'
S'Banoth Loka Bharani'
tp21
a(S'100002010555854'
S'Gaddam Sankeerth'
tp22
a(S'100000740100397'
S'Anchit Abraham'
tp23
a(S'100003049458946'
S'Shivanand Boddu'
tp24
a(S'100002793395609'
S'Praveen Palepu'
tp25
a(S'100001841410857'
S'Anirudh Reddy'
tp26
a(S'100005008835115'
S'Guguloth Satishnayak'
tp27
a(S'100003474309281'
S"Rock Rock'y"
tp28
a(S'100003604219757'
S'Sama Praveen'
tp29
a(S'100000953586318'
S'Sai Teja'
tp30
a(S'100001958830646'
S'Omar Sayed'
tp31
a(S'100000094167640'
S'Anusha Konduri'
tp32
a(S'100000841465666'
S'Raj Akshay'
tp33
a(S'100003753940791'
S'Rishi K Raj'
tp34
a(S'1783138161'
S'Avinash Dwadasi'
tp35
a(S'1572687789'
S'Namit Sharma'
tp36
a(S'100001371125738'
S'Pramod Satya Raj'
tp37
a(S'1024444014'
S'Ubaid Ur Raheem Khan'
tp38
a(S'100002910471131'
S'Vinay Kumar Ohm'
tp39
a(S'100000535497470'
S'Simranjeet Salooja'
tp40
a(S'100003038417627'
S'Sai Kumar'
tp41
a(S'100000966314553'
S'Sanketh Palakollu'
tp42
a(S'100004405325398'
S'Sai Raju Nerella'
tp43
a(S'100001191650344'
S'Raghavendra Goud'
tp44
a(S'100002345192412'
S'Sridhar Kudali'
tp45
a(S'100005326384816'
S'Raju Gujjunuri'
tp46
a(S'1489013320'
S'Pavan K Rao Polkampally'
tp47
a(S'100000075371667'
S'Mohammad Vampier'
tp48
a(S'1240732205'
S'Sraghvi Anirudh'
tp49
a(S'100004592403697'
S'Banoth Krishna'
tp50
a(S'100003945096377'
S'Sriram Ambati'
tp51
a(S'100003464093204'
S'Roshan Adithya'
tp52
a(S'100002220653992'
S'Praveen Rathod'
tp53
a(S'100002615765991'
S'UdAy Teja'
tp54
a(S'100003767939138'
S'Aluvala Anil Babu'
tp55
a(S'100005898761192'
S'Sai Krishna'
tp56
a(S'100003020104026'
S'Uday Jojjy'
tp57
a(S'100000703365558'
S'Akshay Singh'
tp58
a(S'100004958531214'
S'Uday Kumar'
tp59
a(S'1380985823'
S'Medha Gayatri'
tp60
a(S'100003270957465'
S'Ajith Javvaji'
tp61
a(S'100003669406837'
S'Sanjay Dasari'
tp62
a(S'100006719808331'
S'Nilanjana Roshan Adithya'
tp63
a(S'1435870767'
S'Niharika Danturti'
tp64
a(S'100000913866576'
S'Maanasa Sai'
tp65
a(S'100001150522465'
S'\\u0c2f\\u0c21\\u0c35\\u0c32\\u0c4d\\u0c32 \\u0c38\\u0c41\\u0c2a\\u0c4d\\u0c30\\u0c3f\\u0c2f'
tp66
a(S'100001298508319'
S'Niharika Sarada'
tp67
a(S'100001459612613'
S'Naresh Maloth'
tp68
a(S'100000229231243'
S'Mazen Jd'
tp69
a(S'100002891306621'
S'Ajay Bommak'
tp70
a(S'100005856903466'
S'Shabana Parveen'
tp71
a(S'100001219093669'
S'Abishai John'
tp72
a(S'100005076667184'
S'Ahija Kollu'
tp73
a(S'100002879605865'
S'Y\\u00e3hy\\u00e5 H\\u00e3t\\u00e8m'
tp74
a(S'100002372939149'
S'Adarsh Reddy'
tp75
a(S'100003308745775'
S'Muhammad Issam'
tp76
a(S'100002314138054'
S'Anudeep Bajpai'
tp77
a(S'100000243863973'
S'Mir Ghulam'
tp78
a(S'100004037937714'
S'Lakshmi Narhari'
tp79
a(S'100001130147319'
S'K\\u00e3\\u015bb\\u1ebd\\u0157 P\\u0159\\u1ebd\\u015ft\\u0142\\u011f'
tp80
a(S'100002428548688'
S'Tuhin Bera'
tp81
a(S'100003170671723'
S'Akki Afaaq'
tp82
a(S'100002499590317'
S'Kiran Raj Kota'
tp83
a(S'100000006650624'
S'Md Faisal Khan'
tp84
a(S'100002425685879'
S'Madavi Balu'
tp85
a(S'100003573330105'
S'AShok NEtha JAdi'
tp86
a(S'100001814626416'
S'Himalay Durgam'
tp87
a(S'100002271714884'
S'Jeevan Chauhan'
tp88
a(S'1754207563'
S'Adithya Molleti'
tp89
a(S'100001106542208'
S'Anjan Karthik Chandra'
tp90
a(S'100003039845299'
S'Vinod Nani'
tp91
a(S'100003652944751'
S'Bapi Nalli'
tp92
a(S'100003225101908'
S'Srinivasa Manoj'
tp93
a(S'100001987487129'
S'Radwan Omar'
tp94
a(S'100002643274986'
S'Bhanu Krishna Rao'
tp95
a(S'100006477830105'
S'Anjan Karthik'
tp96
a(S'100001017100909'
S'Prashanth Prabhakar'
tp97
a(S'1616766933'
S'Saketh Saxena'
tp98
a(S'1805134329'
S'Khushal Kumar'
tp99
a(S'100000213608291'
S'Maninder Reddy'
tp100
a(S'100000307028685'
S'Surendra Dat'
tp101
a(S'100000762347580'
S'Srujana Rao'
tp102
a(S'100004436616903'
S'Sampath Kumar'
tp103
asS'id'
p104
S'100002926690096'
p105
sS'name'
p106
S'Nikhil Kumar Javvaji'
p107
s.