(dp1
S'friends'
p2
(lp3
(S'100002532820457'
S'Vishvesh Thakre'
tp4
a(S'100000314585413'
S'Abhinav Yadu'
tp5
a(S'1694674277'
S'Aneek Gupta'
tp6
a(S'100005172841422'
S'Ashok Bajaj II'
tp7
a(S'100001801163808'
S'Avishek Ekka'
tp8
a(S'100002087252300'
S'Biplab Banerjee'
tp9
a(S'100000502779485'
S'Birender Singh'
tp10
a(S'100002472623766'
S'Suraj Pandey'
tp11
a(S'100004037608167'
S'Kumesh Jain'
tp12
a(S'100004161369239'
S'Adarsh Awadhiya'
tp13
a(S'100000660946531'
S'\\u0936\\u0948\\u0932\\u0947\\u0928\\u094d\\u0926\\u094d\\u0930 \\u0936\\u0948\\u0932\\u0947\\u0928\\u094d\\u0926\\u094d\\u0930'
tp14
a(S'100000876807624'
S'Kewal Krishna'
tp15
a(S'100002008059899'
S'Arun Kumar Srivastava'
tp16
a(S'100001484620766'
S'Deepak Singh'
tp17
a(S'100000027307798'
S'Yogesh Ojha'
tp18
a(S'100002393715676'
S'Sanjay Bajpai'
tp19
a(S'100004668031998'
S'Ramy Ramy'
tp20
a(S'100002446103501'
S'Lokesh Belchandan'
tp21
a(S'100001205185498'
S'Rajesh Agrawal'
tp22
a(S'100001080217821'
p23
S'Mishra Ashutosh'
tp24
a(S'100001407945051'
S'Nishant Saxena'
tp25
a(S'100000230094830'
S'Malik Rajkumar'
tp26
a(S'558004299'
p27
S'Vikash Vaibhav'
tp28
a(S'100000491355683'
S'Mehmood Tharani'
tp29
a(S'100000830532102'
S'Ajay Verma'
tp30
a(S'642751798'
S'\\u0930\\u093e\\u091c\\u0940\\u0935 \\u0924\\u0928\\u0947\\u091c\\u093e'
tp31
a(S'100000064407044'
p32
S'Shesh Dhar Tiwari'
tp33
a(S'100005452117256'
S'Sunil Namdeo'
tp34
a(S'100001230524158'
S'Balram Chaubey'
tp35
a(S'100002199596897'
S'Manish Kumar'
tp36
a(S'100003132902353'
S'Rishabh Singh Thakur'
tp37
a(S'1528121243'
S'Rajeev Sharma'
tp38
a(S'100000332138834'
S'Sanju Thakur'
tp39
a(S'100002085528170'
S'Pankaj Prasun'
tp40
a(S'100002305688082'
S'Saumya Rzv'
tp41
a(S'808168319'
S'Tejendra Sharma'
tp42
a(S'1602883544'
S'\\u0906\\u0932\\u094b\\u0915 \\u0936\\u094d\\u0930\\u0940\\u0935\\u093e\\u0938\\u094d\\u0924\\u0935'
tp43
a(S'1391137740'
S'Parveen Chopra'
tp44
a(S'100003556974576'
S'Prem Kumar'
tp45
a(S'100003207550233'
S'Credible Chhattisgarh'
tp46
a(S'100003115524574'
S'Tapash Mandal'
tp47
a(S'100004634593545'
S'Chhattisgarh Mitra'
tp48
a(S'748349198'
S'Alok Sharma'
tp49
a(S'100005885438223'
S'K C Kar Kar'
tp50
a(S'100001488796982'
S'Vijay Kumar Dewangan'
tp51
a(S'100003273513014'
S'Shashikant Yadav'
tp52
a(S'100002452723562'
S'Dinesh Gautam'
tp53
a(S'641572436'
S'Payal Swali'
tp54
a(S'100004412230644'
S'Ved Prakash Tiwari'
tp55
a(S'1538134232'
S'Bipin Bhurtel'
tp56
a(S'100002616967704'
S'Vivek Pratap Singh Thakur'
tp57
a(S'100000684416971'
S'Sameera Khan'
tp58
a(S'100001976889140'
p59
S'\\u092a\\u0947\\u0902\\u0917\\u0941\\u0907\\u0928 \\u0939\\u093f\\u0902\\u0926\\u0940'
tp60
a(S'100002922284880'
S'Ajay Sahu'
tp61
a(S'100001399929650'
S'Rajendra Tiwari'
tp62
a(S'100000429353020'
S'Chandra Mohan Dwivedi'
tp63
a(S'614568653'
S'Jayant Deshmukh'
tp64
a(S'100001596173230'
S'Raman Murty'
tp65
a(S'1084353624'
S'Naveen Gupta'
tp66
a(S'100003037939537'
S'Kapila Mehra'
tp67
a(S'100000561612170'
S'Aayushman Sharma'
tp68
a(S'1738457620'
S'Rishi Shukla'
tp69
a(S'1343024206'
S'Tarkesh Mishra'
tp70
a(S'100003872126238'
S'\\u0936\\u093f\\u0915\\u094d\\u0937\\u093e\\u0926\\u0942\\u0924 \\u092a\\u094d\\u0930\\u0915\\u093e\\u0936\\u0928'
tp71
a(S'100000691015484'
S'Prashant Dixit'
tp72
a(S'100003903620643'
S'Kavi Balwant Jain Ballu'
tp73
a(S'100000658035849'
S'Pustak Sadan'
tp74
a(S'1500781966'
S'Vivi Disha'
tp75
a(S'100004675663229'
S'Maunas Maunas'
tp76
a(S'100005634248359'
S'Ajay Dewangan'
tp77
a(S'100000329294261'
S'Ramendra Mishra'
tp78
a(S'100001747378595'
S'Angel Kumud'
tp79
a(S'100004142824122'
S'Pankaj Tripathi'
tp80
a(S'100001641008177'
S'Manish Upadhyay'
tp81
a(S'100004049832933'
S'Mishra Rajesh'
tp82
a(S'100003515541247'
S'Arnav Singh'
tp83
a(S'100002360149813'
S'Prakash Sharma'
tp84
a(S'100002570264507'
p85
S'Meenakshi Barua'
tp86
a(S'100001069977400'
S'Renuka Shirhatti'
tp87
a(S'100004130739467'
S'Jayant Singh Kshatri'
tp88
a(S'100001644432666'
S'Rahul Singh'
tp89
a(S'100000877492040'
S'Pritpalsingh Hora'
tp90
a(S'100003310504145'
S'Amit Agrawal'
tp91
a(S'100000747319959'
S'Harish Yadav'
tp92
a(S'100003160562951'
S'Prachindra Mishra'
tp93
a(S'1097924119'
S'Indira Bhattacharyya'
tp94
a(S'100002461789992'
S'Anil Sharma'
tp95
a(S'100002380628755'
S'Kiran Awasthi'
tp96
a(S'1703865912'
S'Manisha Malhotra'
tp97
a(S'100005936949066'
S'Ashok Nirmal'
tp98
a(S'1324517376'
S'Giriraj Sharan Agrawal'
tp99
a(S'100000925614689'
S'\\u0905\\u0935\\u0928\\u0940\\u0936 \\u0938\\u093f\\u0902\\u0939 \\u091a\\u094c\\u0939\\u093e\\u0928'
tp100
a(S'1352843153'
S'Nilima Verma'
tp101
a(S'100001480797461'
S'Shahbaz Hussain'
tp102
a(S'100002134873937'
S'Asfun Bilaspur'
tp103
a(S'100000731407681'
S'Narendra Vyas'
tp104
a(S'100004343558961'
S'Rakesh Naredia'
tp105
a(S'100001356212505'
S'Tansina Mithila'
tp106
a(S'100004023072109'
S'Dinesh Kumar Sahu'
tp107
a(S'100002794997120'
S'Ratna Verma'
tp108
a(S'100001783987852'
S'Abhishek Nandan'
tp109
a(S'1157904028'
S'Alok Awasthi'
tp110
a(S'100003635166718'
S'Uttara Vidani'
tp111
a(S'100001841001135'
S'Sahitya Sanchay Prakashan'
tp112
a(S'100003484140781'
S'Shailesh Verma'
tp113
a(S'1098392331'
p114
S'Kajal Kumar'
tp115
a(S'100001195130018'
S'Hum Sab Sath Sath'
tp116
a(S'100001043496664'
S'Raj Bhatia'
tp117
a(S'100002562737637'
S'Daya Singh Bhilai'
tp118
a(S'100002180849113'
S'Firoz Siddiqui'
tp119
a(S'100003076087256'
S'Prem Gupta'
tp120
a(S'100002857224916'
S'Mian Ghazanfar'
tp121
a(S'100001720288726'
S'Rohit Hny'
tp122
a(S'100000176198046'
S'Navin Dewangan'
tp123
a(S'686947509'
S'Mission Bhartiyam'
tp124
a(S'100000744519084'
S'Paul Koshy'
tp125
a(S'100002028684695'
S'Manoj Agrawal'
tp126
a(S'100000940438978'
S'\\u0917\\u094c\\u0930\\u0935 \\u0936\\u0930\\u094d\\u092e\\u093e \\u092d\\u093e\\u0930\\u0924\\u0940\\u092f'
tp127
a(S'100002974397175'
S'\\u0905\\u092e\\u093f\\u0924\\u0947\\u0936 \\u0915\\u0947\\u0936\\u0930\\u0935\\u093e\\u0928\\u0940'
tp128
a(S'100002613251742'
S'Nirmal Sahu'
tp129
a(S'100003345602728'
S'Santosh Sahu'
tp130
a(S'100004396304438'
S'Prakash Chand Jain'
tp131
a(S'100003745596948'
S'Sanjay Pandey'
tp132
a(S'100002155476138'
S'Arun Nashine'
tp133
a(S'100003155346682'
S'True Ambikapur'
tp134
a(S'100000488088744'
S'Shiv Shankar Sarthi'
tp135
a(S'100002209973319'
S'Pravesh Shrivastava'
tp136
a(S'100001839314316'
S'Kapur Wasnik'
tp137
a(S'100000934857019'
S'Vishal Ghodkhande'
tp138
a(S'1638085016'
S'Sureshwar Tripathi'
tp139
a(S'1799650915'
S'Shyam Kori Uday'
tp140
a(S'1539817378'
S'Rajnish Parihar'
tp141
a(S'100000595180917'
S'Maya Mrig'
tp142
a(S'100001103805821'
S'Sushma Sharma'
tp143
a(S'100002932993121'
S'\\u0938\\u0926\\u094b\\u0937 \\u0939\\u093f\\u0938\\u093e\\u0930\\u0940'
tp144
a(S'100000827341371'
S'Mahendra Sahu'
tp145
a(S'100000113147817'
S'\\u092a\\u094d\\u0930\\u092d\\u093e\\u0924 \\u0938\\u093f\\u0902\\u0939'
tp146
a(S'1502462244'
S'Girish Billore'
tp147
a(S'100000732456980'
S'Classifieds India'
tp148
a(S'100000101962166'
S'Saurabh Tripathi'
tp149
a(S'100000898113251'
S'Lokendra Singh'
tp150
a(S'100000471208589'
S'Charandeep Ajmani'
tp151
a(S'100004628523376'
S'Getfood India'
tp152
a(S'100003113648969'
S'Padmanabhan Mohan'
tp153
a(S'100001432154790'
S'Laxmikantpandit Pandit'
tp154
a(S'1251911141'
S'Sd Sharma'
tp155
a(S'100003818904538'
S'Deependra Tiwari'
tp156
a(S'100000615653771'
S'Navdeep Setia'
tp157
a(S'100003319618656'
S'Neeraj Jain'
tp158
a(S'1522988046'
p159
S'Sanjay Dwivedi'
tp160
a(S'100000920822621'
S'Parshuram Tiwari'
tp161
a(S'100003593319906'
S'Pankaj Tiwari'
tp162
a(S'100002822222324'
S'Usman Beg'
tp163
a(S'100003382697129'
S'Sanjay Rajput'
tp164
a(S'100002468113599'
S'Krishna Sahu'
tp165
a(S'1018074101'
S'Girish Kabir'
tp166
a(S'100000334858781'
S'Tij Ram Sahu'
tp167
a(S'100002437753435'
S'Sanjay Singh Thakur'
tp168
a(S'100000051260839'
S'Ram Bhardwaj'
tp169
a(S'100001241867779'
S'Sonoo Ram Krishna Chandrakar'
tp170
a(S'100000133787038'
S'Himanshu Kumar'
tp171
a(S'100001796979616'
S'Ravipragya Press'
tp172
a(S'100002675588570'
S'Shreekumar Menon Gudhiyari'
tp173
a(S'100003385777333'
S'Naveen Singh Thakur'
tp174
a(S'1014554014'
p175
S'Sanjay Swadesh'
tp176
a(S'100004568915398'
S'Raju Surana'
tp177
a(S'100000866244275'
S'Ashok Sharma'
tp178
a(S'100000110889529'
S'Bhuneshwar Kashyap'
tp179
a(S'100004014820851'
S'Shikshak Panchayat Sanwad'
tp180
a(S'100006641105842'
S'Akram Kuraishi'
tp181
a(S'100001969834050'
S'Mithiladesham Sewa Samiti'
tp182
a(S'1522055599'
S'Albela Khatri'
tp183
a(S'100002136704432'
S'Salim Raj'
tp184
a(S'100004046852756'
S'Dinesh Sahu'
tp185
a(S'669843382'
S'Sagar Kumar'
tp186
a(S'100000890743631'
S'Ramkumar Nain'
tp187
a(S'100003315581368'
S'Mohammed Nadim'
tp188
a(S'100002550024448'
S'Jitendra Sharma'
tp189
a(S'100000956105949'
S'Rajendra Pardesi'
tp190
a(S'100003898997268'
S'Ganesh Kumar Yadav'
tp191
a(S'100002148244327'
S'Chandani Sihani'
tp192
a(S'100000721301103'
S'Netaa Ji'
tp193
a(S'100002118076769'
p194
S'Akash Verma'
tp195
a(S'100000507421105'
S'Suresh Neerav Jai Ho'
tp196
a(S'100000365889183'
S'Rajendra Kumar Gaikwad'
tp197
a(S'100004467403789'
S'PC Jain'
tp198
a(S'100002527118644'
S'Justpatrika Raipur'
tp199
a(S'100000778130618'
S'Muhammad Javed'
tp200
a(S'100002512682059'
S'Sachchidananda Upasane'
tp201
a(S'695847772'
S'Pramod Kumar'
tp202
a(S'100003669652086'
S'Azad Yuva Manch Bilaspur'
tp203
a(S'100002078013437'
S'Sandeep Pauranik'
tp204
a(S'692496921'
S'Sanjana AJ'
tp205
a(S'100002742070017'
S'Neeraj Sharma'
tp206
a(S'100000263458653'
S'Rajesh Kumar'
tp207
a(S'100002077035266'
S'Khel Khabar'
tp208
a(S'1284813071'
S'Maheshwar Dutt Sharma'
tp209
a(S'100002359725502'
S'Sumit Singh H'
tp210
a(S'100000925501811'
S'Aashutosh Mishra'
tp211
a(S'100006356922803'
S'Atript Anand'
tp212
a(S'1700887146'
S'Chandan Kumar'
tp213
a(S'100000677926496'
S'Samrendra Sharma'
tp214
a(S'100004142983787'
S'Durg-bhilai ON Line'
tp215
a(S'1187121336'
S'Amitt Gandhi'
tp216
a(S'100000434096543'
S'Anju Rajkumari Rajkumari'
tp217
a(S'100002442338758'
S'Kaielash Dubey'
tp218
a(S'1366220824'
S'Ram Kumar Kamat'
tp219
a(S'100005023501578'
S'\\u0905\\u091c\\u092f \\u091a\\u094c\\u0927\\u0930\\u0940'
tp220
a(S'100004101018324'
S'\\u0935\\u093f\\u0928\\u094b\\u0926 \\u0926\\u093e\\u0938'
tp221
a(S'100002194787102'
S'Pushpendra Singh'
tp222
a(S'100001798931424'
S'Jagdish Kinjalk'
tp223
a(S'100004006881869'
S'Virendra Namdeo'
tp224
a(S'100001097993229'
S'Sumit Das Kumar'
tp225
a(S'100002411896062'
S'Shyam Rao Raut'
tp226
a(S'100002826172544'
S'Ruchi Rathor'
tp227
a(S'1460131337'
S'Yogesh Verma'
tp228
a(S'100001158387645'
S'Ram Tamrakar'
tp229
a(S'1483715935'
S'\\u092a\\u0940 \\u0915\\u0947 \\u0936\\u0930\\u094d\\u092e\\u093e'
tp230
a(S'100000312302789'
S'Meditation Ashram'
tp231
a(S'100000225765890'
S'Rakesh Gupta'
tp232
a(S'100003142144634'
S'Drmahendra Agrwal'
tp233
a(S'100001578156215'
S'\\u0939\\u092e\\u093e\\u0930\\u0940 \\u0935\\u093e\\u0923\\u0940'
tp234
a(S'100003315004207'
S'Deonarayan Sharma Vastu Shastri'
tp235
a(S'1651268750'
S'Shrinath Soni'
tp236
a(S'1666396434'
S'Diben Singh'
tp237
a(S'100003344910952'
S'Punit Kaushik'
tp238
a(S'100000937749765'
S'Kalyani India'
tp239
a(S'100001108787458'
S'Ramesh Mishra Chanchal'
tp240
a(S'100002134296385'
S'Shailesh Veer'
tp241
a(S'100004382644469'
S'Suraj Aditya'
tp242
a(S'100003984381386'
S'Yogesh Patel'
tp243
a(S'1816091006'
S'Ram Vilas'
tp244
a(S'711493722'
S'Sanjeet Tripathi'
tp245
a(S'100001470113305'
S'Deepak Vadher'
tp246
a(S'100001372085517'
p247
S'Girish Pankaj'
tp248
a(S'100001319811331'
S'Shobha Yadav'
tp249
a(S'1053998324'
S'Dhirendra Asthana'
tp250
a(S'100001344605325'
p251
S'\\u0938\\u093e\\u0939\\u093f\\u0924\\u094d\\u092f \\u0936\\u093f\\u0932\\u094d\\u092a\\u0940 \\u0908-\\u092a\\u0924\\u094d\\u0930\\u093f\\u0915\\u093e'
tp252
a(S'100004018728863'
S'Sumit Ranjan'
tp253
a(S'100001277891921'
S'Bhuwaneshwar Rathore'
tp254
a(S'100004230213650'
S'Sarvesh Singh Thakur'
tp255
a(S'1592569156'
S'Ritesh Jain'
tp256
a(S'100004434163118'
S'Rajesh Gupta'
tp257
a(S'100002152204858'
S'Vijay Lal'
tp258
a(S'100002514142689'
S'Dig Dhamtari'
tp259
a(S'1434665272'
S'Amitabh Thakur'
tp260
a(S'100002598831937'
S'Dev Raj'
tp261
a(S'100004088171620'
S'Rajesh Vaishnav'
tp262
a(S'100001245705629'
S'Chandrasen Verma'
tp263
a(S'100001206675801'
S'Raghu Thakur'
tp264
a(S'100000100254301'
S'Sumeet Dwivedi'
tp265
a(S'100003782662890'
S'Shantonu Roy'
tp266
a(S'100002032479157'
S'Rajesh Agrawal'
tp267
a(S'1582186871'
S'Kabir Dwivedi'
tp268
a(S'100000907105664'
S'Ram Krishna Gautam'
tp269
a(S'100002836950687'
S'Shashank Shukla'
tp270
a(S'100002377487066'
S'Tameshwar Sinha'
tp271
a(S'100001038222399'
S'Sharad Chandak'
tp272
a(S'100000529887004'
S'Vinod Vishwakarma'
tp273
a(S'1195557473'
S'Jai Kaushal'
tp274
a(S'1162083001'
S'Vibha Rani'
tp275
a(S'100004239902410'
S'Vastu Modulars'
tp276
a(S'100001339964756'
S'Vikas Nath'
tp277
a(S'100002213514717'
S'Alok Tiwari'
tp278
a(S'100002516947321'
S'Anish Shrivas'
tp279
a(S'100002858167176'
S'Pratap Agrawal'
tp280
a(S'100004097013792'
S'Ankit Singh Thakur'
tp281
a(S'100001622525085'
S'Rajesh Chopda'
tp282
a(S'100000749006924'
S'\\u0939\\u092e\\u0930 \\u091b\\u0924\\u094d\\u0924\\u0940\\u0938\\u0917\\u0922.\\u0915\\u0949\\u092e \\u0938\\u093e\\u092a\\u094d\\u0924\\u093e\\u0939\\u093f\\u0915 \\u0938\\u092e\\u093e\\u091a\\u093e\\u0930'
tp283
a(S'1640171871'
S'Sanjeev Kumar Babbar'
tp284
a(S'100002138894114'
S'Naveen Devangan'
tp285
a(S'100002887436337'
S'Subhash Agrawal'
tp286
a(S'1089276444'
S'Anupamaa Shetty'
tp287
a(S'100002292399410'
S'Aankhon Dekhii Live'
tp288
a(S'100001868695606'
S'Sandeepkumar Pandey'
tp289
a(S'100004472101515'
S'\\u092a\\u094d\\u0930\\u0940\\u0924\\u092e \\u0915\\u0941\\u092e\\u093e\\u0930 \\u0926\\u093e\\u0938'
tp290
a(S'100000980824515'
p291
S'Kewal Ram'
tp292
a(S'100004038616940'
S'Canon Raipur'
tp293
a(S'100002064051902'
S'Abhishek Singh Sikarwar'
tp294
a(S'100004462422218'
S'Vikramsingh Verma'
tp295
a(S'100002237272335'
S'Narayan Sharma'
tp296
a(S'100000339385687'
S'Shekhar Kumawat Amrit Wani'
tp297
a(S'100004755336382'
S'Amarpal S. Broka'
tp298
a(S'778280230'
S'Uday Prakash'
tp299
a(S'100002514057746'
p300
S'Janta Ka Manch Hindi'
tp301
a(S'100002269527958'
S'Jay Praksh'
tp302
a(S'100002596532241'
S'Bharat Ajay'
tp303
a(S'100002534708830'
S'Bawa Sarkar'
tp304
a(S'100000644463196'
S'Shyam Skha Shyam Moudgil'
tp305
a(S'1499079385'
S'Anil Dwivedi'
tp306
a(S'100001012862457'
S'Sudhakar Adeeb'
tp307
a(S'100005023600376'
S'Bashant Thripati'
tp308
a(S'749178695'
S'Omkar Singh Mudhar'
tp309
a(S'100001990691886'
S'Vallabh Chandak'
tp310
a(S'100004011950818'
S'Naveen Jaiswal'
tp311
a(S'100001056211236'
S'Shailendra Thakur'
tp312
a(S'100001992321160'
S'Amita Sharma'
tp313
a(S'100000069740917'
S'Raman Kiran'
tp314
a(S'100003028643854'
S'Tarun Sinha'
tp315
a(S'1755420811'
S'Pradeep Dutta'
tp316
a(S'100000671133208'
S'Dhanesh Diwakar'
tp317
a(S'100002551491723'
S'Anil Lachhwani'
tp318
a(S'100004179961750'
S'Abhinav Dwivedi'
tp319
a(S'100000112372169'
S'Yogesh Kumar Goyal'
tp320
a(S'100001278229787'
S'Poonam Prakash Chandra Sahu'
tp321
a(S'100001372413526'
S'Manmohan Saral'
tp322
a(S'100000990918197'
S'Vishnu Script'
tp323
a(S'100003289690721'
S'Sandeep Tiwari'
tp324
a(S'100001049050473'
S'Dastagir Bhabha Lala'
tp325
a(S'100000429102062'
S'Muhammad Javed Memon'
tp326
a(S'100001259013174'
S'Yogendra Tnb'
tp327
a(S'100001540296143'
S'Ricky Judani'
tp328
a(S'100003622300029'
S'VW Canyon'
tp329
a(S'100004619891903'
S'Harshit Jain'
tp330
a(S'100000672321096'
S'Mahesh Dewedy'
tp331
a(S'100003032303089'
S'Amar Agrawal'
tp332
a(S'100003002196480'
S'Dharmendra Singh Chouhan'
tp333
a(S'100007093869347'
S'Rakesh Jain'
tp334
a(S'100002156170510'
S'Mahesh Parmar Parimal'
tp335
a(S'100003928146275'
S'Bhishmadev Chaturvedi'
tp336
a(S'1004816572'
S'Joyshree Chatterjee'
tp337
a(S'100004126352459'
S'Navneet Wahne'
tp338
a(S'534988846'
p339
S'Shail Agrawal'
tp340
a(S'100002183117937'
S'Rajen Sinh'
tp341
a(S'100003586376318'
S'Rajiv Sharma'
tp342
a(S'100001987244980'
S'Saikripa Upendra Tripathi'
tp343
a(S'100003787891071'
S'Yeshukriti Ukey'
tp344
a(S'100002430811662'
S'Ranjeet Bhonsle'
tp345
a(S'100002006859511'
S'Surendra Chetwani'
tp346
a(S'100003903797926'
S'Dadi Dham Muzaffarpur'
tp347
a(S'100002879273839'
S'Nandkishore Tiwari'
tp348
a(S'100002414023377'
S'Laxmi Narayan Lahoti'
tp349
a(S'100002544794260'
S'Joy Banerjee'
tp350
a(S'100002752540867'
S'Jitendra Goel'
tp351
a(S'100002396106163'
S'Gurmit Singh Gurdutta'
tp352
a(S'100004374305709'
S'\\u0921\\u0949. \\u092e\\u0941\\u0939\\u092e\\u094d\\u092e\\u0926 \\u0905\\u0939\\u092e\\u0926'
tp353
a(S'100003281897410'
S'Navneet Chawla'
tp354
a(S'100001419732887'
S'Omprakash Chandraker'
tp355
a(S'100001361113352'
S'Shahnawaz Ahmed'
tp356
a(S'1314694005'
S'Himanshu Mohan'
tp357
a(S'100001573238757'
S'Anil Srivas'
tp358
a(S'100002091638048'
S'Nagesh Pandey Sanjay'
tp359
a(S'100001641935445'
S'R.k. Shukla'
tp360
a(S'547797521'
S'Dinesh Akula'
tp361
a(S'100004527183010'
S'Lalsay Sahu'
tp362
a(S'1555237465'
S'Girish Pokhrel'
tp363
a(S'100002884130775'
S'Satish Agrawal'
tp364
a(S'100002738074420'
S'\\u0928\\u0940\\u0932\\u0915\\u092e\\u0932 \\u0935\\u0948\\u0937\\u094d\\u0923\\u0935 \\u0905\\u0928\\u093f\\u0936'
tp365
a(S'100003095159683'
S'Rajesh Singh'
tp366
a(S'100002181742329'
S"Mann JagoIndian'sJago"
tp367
a(S'100000507510985'
p368
S'KP Saxena Dusre'
tp369
a(S'100002573522407'
S'Satish Sharma'
tp370
a(S'100000434036482'
S'Mangla Joshi Mohini'
tp371
a(S'100002024859118'
S'Amit Kashyap'
tp372
a(S'100002336101203'
S'Bhushan Sahu'
tp373
a(S'100001757881660'
S'Gtstar Raipur'
tp374
a(S'100002680124905'
S'Sanjay Bhardwaj'
tp375
a(S'100001861993262'
S'Arun Kumar Nigam'
tp376
a(S'100000651279145'
S'Dilip Sulekh Sen'
tp377
a(S'100002821289162'
S'Ishwar Dubey'
tp378
a(S'1240722996'
S'IndianCults Sumit'
tp379
a(S'100001477703537'
S'Asif Iqbal'
tp380
a(S'100002925289408'
S'Shivesh Agrawal Nanhakavi'
tp381
a(S'100003757948865'
S'Manoj Kumar Dubey'
tp382
a(S'100000122246115'
S'Ashutosh Singh'
tp383
a(S'100001885157605'
S'Sunil Kukreja'
tp384
a(S'100002719820995'
S'Arvind Verma'
tp385
a(S'100004088553261'
S'Saojany Kumar Singh'
tp386
a(S'100001917841023'
S'Mohan Sahu'
tp387
a(S'100003302516094'
S'Poonam Chandrakar'
tp388
a(S'100002876178111'
S'Manish Agrawal'
tp389
a(S'100002818785787'
S'Ajay Panikar'
tp390
a(S'100000129594483'
S'Veena Sethi'
tp391
a(S'100003240709979'
S'Ashok Bani'
tp392
a(S'100002362996571'
S'Mamta Yadav'
tp393
a(S'100003600489872'
S'Vijay Sappatti'
tp394
a(S'100002498727313'
S'Deepak Mishra'
tp395
a(S'100000146422790'
S'Suresh Panda'
tp396
a(S'100000500748216'
S'Arvind Kumar Singh'
tp397
a(S'100000428939026'
S'Kamalnayan Patel'
tp398
a(S'100002173326056'
S'Satya Shiv Tiwari'
tp399
a(S'1633941774'
S'Priyanka Kaushal'
tp400
a(S'100001323062793'
S'Pankaj Subeer'
tp401
a(S'100000225226462'
S'Harsh Panday'
tp402
a(S'100000273918394'
S'Rajesh Agrawal'
tp403
a(S'100002063638129'
S'Anuraag Raag'
tp404
a(S'100001243605919'
S'Ayush Darpan'
tp405
a(S'100002993194885'
S'Lalit Kumar Pal'
tp406
a(S'100000574478962'
S'Tapesh Jain'
tp407
a(S'1473206219'
S'Chandrashekhar Hada'
tp408
a(S'100000660561840'
S'Narendra Agrawal'
tp409
a(S'100000187184794'
S'Gurvinder Singh Arora'
tp410
a(S'100003885837898'
S'Satyendra Agrawal'
tp411
a(S'100004655402096'
S'Narendra Kumar Gupta'
tp412
a(S'100000733558463'
S'Pranit Jain'
tp413
a(S'100001203933916'
S'Shashank Shukl'
tp414
a(S'100003850805976'
S'Aish Sahu'
tp415
a(S'100000120387531'
S'Atul Dube'
tp416
a(S'100004989033884'
S'Surendra Ahluwalia'
tp417
a(S'100000312494260'
S'Arun Dubey'
tp418
a(S'100000168070975'
S'Anand Brat Shukla'
tp419
a(S'1620370598'
p420
S'Bs Pabla'
tp421
a(S'100002512482488'
S'Sunil Singh'
tp422
a(S'100002589149182'
S'Raipur MitraNews'
tp423
a(S'100002385930901'
S'Nirmal Shukla'
tp424
a(S'100000069489326'
S'Mohit Sahu'
tp425
a(S'100002470280247'
S'Amar Parchani Raipur'
tp426
a(S'100000930944988'
S'Sunil Saxena'
tp427
a(S'100000215537515'
S'Er Ganesh Jee Bagi'
tp428
a(S'100000852506300'
S'Nitin Choubey'
tp429
a(S'100001787537775'
p430
S'\\u092a\\u0941\\u0937\\u094d\\u092a\\u0947\\u0928\\u094d\\u0926\\u094d\\u0930 \\u092b\\u093e\\u0932\\u094d\\u0917\\u0941\\u0928'
tp431
a(S'100000051641084'
S'Vinod Dongre'
tp432
a(S'1532101233'
S'Kamlesh Chauhan'
tp433
a(S'100001005570916'
S'Aslam Khan'
tp434
a(S'100002149597806'
S'Dk Singh'
tp435
a(S'100005163607935'
S'Devana Bhargava'
tp436
a(S'100003502290384'
S'Awadhesh Narayan Bajpai'
tp437
a(S'100003606179069'
S'Jantar Mantar'
tp438
a(S'1406333199'
S'Krishna Chandra'
tp439
a(S'100003107278927'
S'Vishawjeet Singh Parihar IV'
tp440
a(S'1149726289'
S'Ajeet Sharma'
tp441
a(S'100002093877614'
S'Manhar Chowhan'
tp442
a(S'100001519173061'
S'Ajay Tiwari'
tp443
a(S'100003258235266'
S'Virendra Bahadur Singh'
tp444
a(S'100000626562128'
S'Dipankar Roy Banerjee'
tp445
a(S'100001129958769'
S'Jasvinder Bagga'
tp446
a(S'100000694398631'
S'\\u0939\\u0902\\u0938\\u0930\\u093e\\u091c \\u092a\\u091f\\u0947\\u0932 \\u092a\\u094d\\u0930\\u0925\\u092e'
tp447
a(S'1389019963'
S'Praveen Kumar Nayak'
tp448
a(S'100000599952829'
S'Shailja Pathak'
tp449
a(S'100001317657680'
S'Basant Saraf'
tp450
a(S'100002631232859'
S'Rakesh Pandey'
tp451
a(S'1699825541'
p452
S'Buddhi Nath Mishra'
tp453
a(S'100001024863296'
S'Vijay Bajpai'
tp454
a(S'1839945101'
S'Shiv Shankar Pandey'
tp455
a(S'100001201378151'
S'DrSubhash Singh Raj'
tp456
a(S'100002010128280'
S'Mohan Anty'
tp457
a(S'1333952232'
S'Manoj Bhawuk'
tp458
a(S'100005705408121'
S'Pawan Kumar Binwal'
tp459
a(S'100001732978824'
S'Vijendra Kumar Kande'
tp460
a(S'100002370164323'
S'Sai Nath'
tp461
a(S'100006385144953'
S'Shiv Kumar Sharma'
tp462
a(S'100002154376454'
S'Praveena Tripathi'
tp463
a(S'100002738815966'
S'Bhushan Sahu'
tp464
a(S'100000218726389'
S'Vidosh Kumar Dwivedi'
tp465
a(S'100001360856965'
S'Raaj Dev'
tp466
a(S'1846625235'
S'Kamal Kumar'
tp467
a(S'100001262907720'
S'Jaiprakash Mishra'
tp468
a(S'100003838625215'
S'Sandip Srijan'
tp469
a(S'100002073072426'
S'\\u092a\\u094d\\u0930\\u0915\\u093e\\u0936 \\u092e\\u0923\\u093f \\u0935\\u0948\\u0937\\u094d\\u0923\\u0935'
tp470
a(S'100003501241429'
S'Gopal Vora'
tp471
a(S'701117745'
S'Surendra Pathak'
tp472
a(S'100000802661891'
S'Manoj Kothari'
tp473
a(S'1221557052'
S'Mahesh Sinha'
tp474
a(S'100000537708627'
S'Artsmith Babita Biswas'
tp475
a(S'100004910593435'
S'Arun Nepal'
tp476
a(S'1525734481'
S'Kunwar Preetam'
tp477
a(S'1578505451'
S'Vandana Gupta'
tp478
a(S'100000852020082'
S'Adolf Maier'
tp479
a(S'1790891510'
S'Varun Jha'
tp480
a(S'100003013966475'
S'Arun Kochar'
tp481
a(S'100000942990031'
S'Kunal Deo'
tp482
a(S'100002145389145'
S'Avinash Tripathy'
tp483
a(S'100001695785799'
S'Sunil Kumar Verma'
tp484
a(S'743364730'
S'Shekhar Suman'
tp485
a(S'100003130512844'
S'Koshal Kumar'
tp486
a(S'100001864580778'
S'Rajkumar Markande'
tp487
a(S'100002214047916'
S'Shailesh Sharma Bilaspur'
tp488
a(S'1473223075'
S'Sharwan Singh'
tp489
a(S'100002264903298'
S'Kumar Jagdalwi Sunil'
tp490
a(S'100003306006122'
S'Rocky Singh'
tp491
a(S'1152841240'
S'Amit Kumar Doye'
tp492
a(S'100000609342201'
S'Ashok Jamnani'
tp493
a(S'100003896246602'
S'Sansar Buildcon'
tp494
a(S'100004374729768'
S'Nilu Pradhan Rajput'
tp495
a(S'1511754375'
p496
S'Neeraj Goswamy'
tp497
a(S'100003387031547'
S'Raja Paul'
tp498
a(S'100002523496856'
S'Rajkumar Shukla'
tp499
a(S'100000783358891'
S'Get Idea'
tp500
a(S'100000867296249'
S'\\u0921\\u0949. \\u092e\\u0928\\u091c\\u0940\\u0924 \\u0938\\u093f\\u0902\\u0939'
tp501
a(S'100003296413661'
S'Satyendar Sharma'
tp502
a(S'100000916379204'
S'Newporttravel Manali'
tp503
a(S'1502911726'
S'Dwijendra Dwij'
tp504
a(S'688461812'
p505
S'Girish Mishra'
tp506
a(S'100000873243945'
S'Premkumar Pandey'
tp507
a(S'100001097980229'
S'Amit Agrawal'
tp508
a(S'100002513533256'
S'Suresh Sahu'
tp509
a(S'100002051016549'
S'Diptanshu Choubey'
tp510
a(S'1730353782'
S'Shankar Goyal'
tp511
a(S'1132673336'
S'B V Panduranga Rao'
tp512
a(S'100001210973134'
S'Ratnesh Soni'
tp513
a(S'100002922642718'
S'Krishna Patnaik'
tp514
a(S'100002157147154'
S'Devi Prasad Gupta'
tp515
a(S'100001519097974'
S'Subhash Singh'
tp516
a(S'100002195601169'
S'Om Nagar'
tp517
a(S'100002027521261'
S'Ashutosh Rajvaid'
tp518
a(S'100000479559451'
S'Deendayal Sharma'
tp519
a(S'100002732379904'
S'Rakesh Tiwari'
tp520
a(S'100004046570207'
S'Kodar Resorts'
tp521
a(S'100004378719666'
S'Staronefastfood Staronefastfoodindia'
tp522
a(S'100001248010256'
S'Aman Mishra'
tp523
a(S'100005268908298'
S'Janmabhoomi Trust'
tp524
a(S'100001868144263'
S'Shahroz Anwari'
tp525
a(S'100003272488861'
S'\\u091b\\u0924\\u094d\\u0924\\u0940\\u0938\\u0917\\u0922 \\u0938\\u0902\\u0918'
tp526
a(S'100000709717613'
S'Amit Agrawal'
tp527
a(S'100000693725293'
S'Ravi Ranjan'
tp528
a(S'100005265541842'
S'Sanjay Sahu Potiyakala'
tp529
a(S'1775659863'
S'Sudheer Pal'
tp530
a(S'100001231171064'
S'Paresh Furia'
tp531
a(S'1650949861'
S'Shravan Kumar Shukla'
tp532
a(S'100002564238714'
S'Ramesh Kashyap'
tp533
a(S'100001218814376'
S'Ashish Yadav'
tp534
a(S'100003643239115'
S'Manmohan Mundhra'
tp535
a(S'100000193187589'
S'Abhishek Goeal'
tp536
a(S'100000792642032'
S'Pankaj Acharya'
tp537
a(S'100005105552633'
S'Mahesh Sharma'
tp538
a(S'100003120871840'
S'Shailesh Kumar Singh'
tp539
a(S'100001617087799'
S'Naveen Agrawal'
tp540
a(S'100002620738744'
S'Ranjana Singh'
tp541
a(S'100001160492854'
p542
S'Khandelwal Braj'
tp543
a(S'100000124582026'
S'Dinesh Choudhary'
tp544
a(S'100000111517194'
S'Ashutosh Singh'
tp545
a(S'100002399164652'
S'Patrika Aajkal'
tp546
a(S'100003124824825'
S'Jitendra Kumar Dubey'
tp547
a(S'100002212594338'
S'Drrajivrattan Tiwari'
tp548
a(S'100000535284856'
S'Rector Kathuria'
tp549
a(S'100003823786511'
S'Satyameva Jayate'
tp550
a(S'100000854684941'
S'M.m. Funcity'
tp551
a(S'100004948444239'
S'Sunil Jha'
tp552
a(S'100003285531992'
S'Manjeet Singh'
tp553
a(S'100001807640840'
S'Samir Ganguli'
tp554
a(S'100001650916396'
S'Pankaj Trivedi'
tp555
a(S'100000055862744'
S'Manav Shrivastava'
tp556
a(S'100000440757789'
S'Daljeet Singh Kalra'
tp557
a(S'100000119363790'
S'Upendra Pokhrel'
tp558
a(S'100002538489191'
S'Arjun Singh Thakur'
tp559
a(S'100002882920902'
S'Lalit Mishra'
tp560
a(S'100002705121665'
S'Rajesh Agrawal'
tp561
a(S'1285927977'
S'Swami Ji'
tp562
a(S'100001992163877'
S'Manish Verma'
tp563
a(S'100001194931234'
S'Prem Tanwani'
tp564
a(S'100002366989467'
S'Santosh Pandey'
tp565
a(S'1751764444'
p566
S'Subhash Chander'
tp567
a(S'100000546781062'
S'\\u0909\\u0928\\u094d\\u092e\\u0924\\u094d\\u0924 \\u090f\\u0915 \\u0905\\u0939\\u0938\\u093e\\u0938'
tp568
a(S'100003161790720'
S'Vishawjeet Singh II'
tp569
a(S'1610323481'
S'Manish Kumar Mishra'
tp570
a(S'100001030654234'
S'Ravindra Chopra'
tp571
a(S'100004225241965'
S'Ashok Kashyap Kavi'
tp572
a(S'100002861034365'
S'\\u0938\\u0902\\u0926\\u0940\\u092a \\u092f\\u093e\\u0926\\u0935'
tp573
a(S'100004985341982'
S'Hareram Tiwari'
tp574
a(S'100005260509028'
S'Sushil Bhole'
tp575
a(S'100002976090027'
S'Sanjiv Kavi'
tp576
a(S'100004035235745'
S'Vinay Rathore'
tp577
a(S'621023970'
S'BK Manish'
tp578
a(S'100000257419536'
S'Umesh Mishra'
tp579
a(S'100001986054183'
S'Kunal Tikariha'
tp580
a(S'100000077907431'
S'Sushil Krishnet'
tp581
a(S'100001646642194'
S'Swamee Samvardhaka Sharma'
tp582
a(S'100002345758550'
S'Sanjay Kumar Soni'
tp583
a(S'100002777787093'
S'Gautam Agrawal'
tp584
a(S'100003319402030'
S'Sanjeev Shukla'
tp585
a(S'100002467453404'
S'Mohsin Khan'
tp586
a(S'100001112221350'
S'Malik Imran Awan'
tp587
a(S'100004311192248'
S'Bazar Mantra'
tp588
a(S'100003193722932'
S'Manoj Rajput'
tp589
a(S'100003105668585'
S'Narendra Kohli'
tp590
a(S'100000793216706'
S'Anjani Jha'
tp591
a(S'100002618968654'
S'Navin Sen'
tp592
a(S'100003633079282'
S'\\u092c\\u093e\\u092a\\u093e \\u092a\\u092c\\u094d\\u0932\\u093f\\u0915\\u0947\\u0936\\u0928'
tp593
a(S'100001131661305'
S'Kailash Jatwala'
tp594
a(S'1400231969'
p595
S'Kishore Diwase'
tp596
a(S'100001510869390'
S'Shakeel Lohani'
tp597
a(S'100002130725246'
S'Ambrish Kumar'
tp598
a(S'100001214158228'
S'Ramchandran Natesh'
tp599
a(S'100003991653820'
S'Mithlesh Thakur'
tp600
a(S'100001651009292'
S'Ajeet Singh'
tp601
a(S'100002182066404'
S'Pukharaj Singh'
tp602
a(S'1337242765'
p603
S'Soumitra Roy'
tp604
a(S'100003514188609'
S'Aashutosh Mishra'
tp605
a(S'100000072136228'
S'Neha Tiwari'
tp606
a(S'100000032937458'
S'Praveen Godheja'
tp607
a(S'100001676989167'
S'Yogesh Mishra'
tp608
a(S'1481605938'
S'Vibhash Kumar Jha'
tp609
a(S'100000349366480'
S'Bhujit Doshi'
tp610
a(S'1681016141'
S'Hemant Yadav'
tp611
a(S'100002599082632'
S'Pradeep Sharma'
tp612
a(S'100004423029333'
S'Manavdharmsewasangh Manavdharmsewasangh'
tp613
a(S'100002492960246'
S'Satish Yadu Ica'
tp614
a(S'100001535708166'
S'Nishant Hota'
tp615
a(S'100001401026122'
S'Sanjay Sharma'
tp616
a(S'100002890193184'
S'Parmanand Shastri'
tp617
a(S'100000904763253'
S'\\u0905\\u0928\\u093f\\u0915\\u0947\\u0924 \\u092a\\u094d\\u0930\\u093f\\u092f\\u0926\\u0936\\u0940\\u0902'
tp618
a(S'1013663516'
S'Masijeevi Hindi'
tp619
a(S'100004409649908'
S'Manvadharmsewasangh Anand Vishwakarma'
tp620
a(S'100003655152460'
S'Desidanda Enews'
tp621
a(S'100003090488892'
S'Dinesh Thakkar Bapa'
tp622
a(S'100003509058246'
S'Farmood Allahabadi'
tp623
a(S'100001772178453'
S'Aditya Pandey'
tp624
a(S'100002359167106'
S'Amin Raza'
tp625
a(S'100002035630549'
p626
S'Sangita Puri'
tp627
a(S'100001483482535'
S'Lalit Joshi'
tp628
a(S'100004904493668'
S'Ziya Faruqi'
tp629
a(S'100002540421344'
S'Yogi Agrawal'
tp630
a(S'787798248'
S'\\u0905\\u0935\\u093f\\u0928\\u093e\\u0936 \\u0935\\u093e\\u091a\\u0938\\u094d\\u092a\\u0924\\u093f \\u092e\\u0941\\u0928\\u094d\\u0928\\u093e\\u092d\\u093e\\u0908'
tp631
a(S'100006831510949'
S'Hemchandra Jangde'
tp632
a(S'100001769124865'
S'Alok Mishra'
tp633
a(S'100002724633388'
S'Preeti Gain'
tp634
a(S'100002206731999'
S'Satya Biswas'
tp635
a(S'100001188721342'
p636
S'Santbetra Ashoka'
tp637
a(S'1143988258'
S'Triambak Sharma'
tp638
a(S'100002356818658'
S'Madhu Saxena'
tp639
a(S'100001209533133'
S'Balvikassevasamiti Reg'
tp640
a(S'100002670916594'
S'Daulat Rohra'
tp641
a(S'1106332637'
S'Virendra Jain'
tp642
a(S'100001880910599'
S'Jai Tewatia'
tp643
a(S'100004035297846'
S'Bansal Priya'
tp644
a(S'100002011389495'
S'Varun Roy'
tp645
a(S'100003646178946'
S'Manojsirstar Danceacademy'
tp646
a(S'100002908160459'
S'\\u0905\\u0930\\u0942\\u0923 \\u0936\\u0940\\u0924\\u093e\\u0902\\u0936'
tp647
a(S'100002483002984'
S'Ankita Varma'
tp648
a(S'100000894547749'
S'Pankhuri Sinha'
tp649
a(S'100003624611049'
S'Jyoti Khare'
tp650
a(S'100005361852720'
S'Kavi Sushil Bhole'
tp651
a(S'100000020571070'
p652
S'\\u0928\\u0935\\u0940\\u0928 \\u0930\\u093e\\u091c\\u0939\\u0902\\u0938 \\u092e\\u0921\\u093c\\u0935\\u093e \\u0935\\u093e\\u0932\\u0947'
tp653
a(S'100000968844290'
S'Sameer Satpalkar'
tp654
a(S'100001580452051'
S'Ranjan Nirala'
tp655
a(S'100004032334283'
S'Ramesh Chauhan'
tp656
a(S'100003518325439'
S'Shabdyog Patrika'
tp657
a(S'100002868036654'
S'Pankaj Gupta'
tp658
a(S'100001242388340'
S'Chhagan Lal Mundra'
tp659
a(S'100004477059724'
S'Sourabh Agrawal'
tp660
a(S'1375022247'
S'Manisha Pandey'
tp661
a(S'100001337980277'
S'Rajendra Mishra'
tp662
a(S'829509350'
S'Priyankar Paliwal'
tp663
a(S'100003047442535'
S'Sandeep Vasing'
tp664
a(S'100004866432883'
S'Rishiraj Pandey'
tp665
a(S'100001869547934'
p666
S'Vikram Singh Chauhan'
tp667
a(S'1135450317'
S'Pankaj Narayan'
tp668
a(S'100002017797332'
S'Brijesh Singh'
tp669
a(S'100001466358847'
S'Sangya Tandon'
tp670
a(S'100001141005681'
S'Manoj Chaturvedi'
tp671
a(S'592842873'
S'Sujeet Kumar'
tp672
a(S'100001066677387'
S'Gaurav Chaturvedi'
tp673
a(S'100002110297461'
S'Girish Sharma'
tp674
a(S'100001135964440'
S'Anil Gurbaxani'
tp675
a(S'100003223113976'
S'\\u0906\\u0936\\u0940\\u0937 \\u0915\\u0941\\u092e\\u093e\\u0930'
tp676
a(S'100000244520435'
S'Navneet Pandey'
tp677
a(S'100001521950514'
S'Aman Jain'
tp678
a(S'1750996167'
S'Jaya Sharma'
tp679
a(S'100002499682940'
S'Sanjeev Tiwari'
tp680
a(S'100002808559683'
S'Badhte Kadam'
tp681
a(S'1253602942'
S'Toshi Gupta Kesharwani'
tp682
a(S'100000185559532'
S'Sameer Shrivastava'
tp683
a(S'1039628500'
S'Navin Khatwani'
tp684
a(S'100003598438340'
S'Umesh Kumar Vishwakarma'
tp685
a(S'100004373230100'
S'Awsum Bastar'
tp686
a(S'100001287522322'
S'Lalit Khandelwal'
tp687
a(S'100003100280469'
S'Kavi Haleem Aaina'
tp688
a(S'1826358184'
S'Sumeet Barore'
tp689
a(S'100000149735762'
S'Devendra Gupta'
tp690
a(S'100002523574009'
S'Gopal Dewangan'
tp691
a(S'100002590400948'
S'Indrajeet Singh Chhabra Latu'
tp692
a(S'1573046052'
S'Malkeet Gill'
tp693
a(S'696558129'
S'Surendra S Rajput'
tp694
a(S'100003723842745'
S'\\u0926\\u0940\\u092a\\u0915 \\u0935\\u0948\\u0937\\u094d\\u0923\\u0935'
tp695
a(S'100003944996615'
S'Mukesh Rai'
tp696
a(S'100003243189226'
S'Manohar Puri'
tp697
a(S'100003081416970'
S'Akansh Singh'
tp698
a(S'100001572120671'
S'Anil Sulabh'
tp699
a(S'1363267914'
S'Prakash Badal'
tp700
a(S'1737570270'
S'Raj Goswami'
tp701
a(S'100003001526165'
S'Soumen Chatterjee'
tp702
a(S'100001144257463'
S'Sujit Naidu'
tp703
a(S'100000009285358'
S'Brijesh Verma'
tp704
a(S'100001505023517'
S'Kundan Pandey'
tp705
a(S'100002730224290'
S'Sanat Chandra'
tp706
a(S'1191143610'
S'Sanjay Kumar Chourasia'
tp707
a(S'100002839907928'
S'Dinanath Khunte'
tp708
a(S'100001212686025'
S'Digvijay Mishra'
tp709
a(S'100001370543966'
S'Abul Fazal'
tp710
a(S'100003518184324'
S'Rusen Kumar'
tp711
a(S'100004244258916'
S'\\u091c\\u0928\\u093e\\u0927\\u093e\\u0930 \\u0928\\u094d\\u092f\\u0942\\u091c\\u093c'
tp712
a(S'100000579751354'
S'Manoj Verma'
tp713
a(S'100001079296709'
S'Rupesh Soni'
tp714
a(S'100000087818154'
S'Jitendra Arolia'
tp715
a(S'100002448687487'
S'Chhattisgarh Ka Prahri'
tp716
a(S'100002491823252'
S'Babulal Agrawal'
tp717
a(S'100001966536338'
S'Sudeep Upadhyay'
tp718
a(S'100002610960481'
S'Shiv Kumar Barman'
tp719
a(S'100001206564732'
S'Ankush Jaswal'
tp720
a(S'100004028929076'
S'Samata Mahila Mandaal'
tp721
a(S'1781696199'
p722
S'\\u0924\\u0928\\u0939\\u093e \\u0905\\u091c\\u092e\\u0947\\u0930\\u0940'
tp723
a(S'1527502722'
S'Madhusudan H. Jhaveri'
tp724
a(S'100000323112099'
S'Chhattisgarh Janman'
tp725
a(S'100001499741822'
S'Rohit Singh Arya'
tp726
a(S'533803347'
p727
S'Vijay Rana'
tp728
a(S'100000298144576'
p729
S'Neera Tyagi'
tp730
a(S'100001819075131'
S'Devnarayan Sinha'
tp731
a(S'100002805805546'
S'Virendra Shrivastava'
tp732
a(S'100004311180156'
S'Ashraf Hingora'
tp733
a(S'1369512150'
S'Prabhat Ranjan'
tp734
a(S'1031673933'
p735
S'Braj Kishore Singh'
tp736
a(S'100000545155708'
S'Nitin Gadkari'
tp737
a(S'100000470089048'
S'\\u0905\\u092e\\u093f\\u0924 \\u0906\\u0928\\u0902\\u0926'
tp738
a(S'100001516078390'
S'Papai Das Gupta'
tp739
a(S'100001462977966'
S'Shyam Bihari Shyamal'
tp740
a(S'100000010501793'
S'Ashok Kumar Anand'
tp741
a(S'100001264102944'
S'Vishal Jain'
tp742
a(S'100001328700861'
S'Anurag Mishra'
tp743
a(S'100001948992846'
S'\\u0932\\u0915\\u094d\\u0937\\u094d\\u092e\\u0940 \\u0928\\u093e\\u0930\\u093e\\u092f\\u0923 \\u0932\\u0939\\u0930\\u0947'
tp744
a(S'100002726588203'
S'Harsh Shrivastava'
tp745
a(S'1814685088'
S'Shashank Tiwari'
tp746
a(S'100003073176188'
S'Dainik Bhojpuri'
tp747
a(S'100003814491759'
S'Darpan Jhooth Na Bole'
tp748
a(S'100003071333312'
S'Kunjbihari Sahu'
tp749
a(S'100000237883694'
S'Shailesh Verma'
tp750
a(S'100001559992363'
S'Safir Ahmad'
tp751
a(S'100002095221204'
S'\\u0917\\u094c\\u0930\\u0935 \\u0936\\u0930\\u094d\\u092e\\u093e'
tp752
a(S'1322492787'
S'\\u0935\\u093f\\u092e\\u0932\\u0947\\u0936 \\u0924\\u094d\\u0930\\u093f\\u092a\\u093e\\u0920\\u0940'
tp753
a(S'100000756681211'
S'Shobhit Bajpayee'
tp754
a(S'100003687627993'
S'Astro Abhishek Mukherjee'
tp755
a(S'100001638489034'
S'Shreesh Rakesh Jain'
tp756
a(S'1717280849'
S'Anup Kumar Tikariha'
tp757
a(S'1485313098'
S'\\u0905\\u091c\\u092f \\u0915\\u0941\\u092e\\u093e\\u0930 \\u091d\\u093e'
tp758
a(S'1571633878'
S'Alekh Prakashan'
tp759
a(S'100004083547327'
S'Subodh Singhania'
tp760
a(S'100001419285764'
p761
S'\\u092a\\u094d\\u0930\\u094b\\u092b.\\u0938\\u0930\\u094b\\u091c \\u092e\\u093f\\u0936\\u094d\\u0930'
tp762
a(S'100004032489066'
S'Master Neev Kem Cho'
tp763
a(S'100002800050442'
S'Utkarsh Tripathi'
tp764
a(S'100004327835956'
S'Deepak Singh Kathayat'
tp765
a(S'100002425390621'
S'Chouleshwar Chandrakar'
tp766
a(S'100002131160359'
S'\\u0935\\u093f\\u0915\\u094d\\u0930\\u093e\\u0902\\u0924 \\u0938\\u093f\\u0902\\u0939 \\u0938\\u094b\\u092e\\u0942'
tp767
a(S'100001406870084'
p768
S'Shivendu Rai'
tp769
a(S'100001526894980'
S'Rajkumar Sahu'
tp770
a(S'1617772693'
S'SanDeep Janghel'
tp771
a(S'100000586851264'
S'Akanksha Yadav'
tp772
a(S'100003355283721'
S'Mohit Sahu'
tp773
a(S'1352407686'
S'Rakesh Bhramar'
tp774
a(S'100003890356578'
S'Sheela Bhattacharya'
tp775
a(S'100000524548719'
S'Girish Jatav'
tp776
a(S'100001554223317'
S'Pawan Gupta'
tp777
a(S'100003872366244'
S'Rashtrawadi Manch'
tp778
a(S'100001391322375'
S'\\u0926\\u0940\\u092a\\u0915 \\u092a\\u093e\\u0923\\u094d\\u0921\\u0947\\u092f'
tp779
a(S'1673345610'
S'\\u092a\\u094d\\u0930\\u092c\\u0932 \\u092a\\u094d\\u0930\\u0924\\u093e\\u092a \\u0938\\u093f\\u0902\\u0939'
tp780
a(S'100000108751766'
S'Rishi Agrawal'
tp781
a(S'100003223936935'
S'Zafar Ashrafi'
tp782
a(S'100001499021329'
S'Shekhar Upadhyay'
tp783
a(S'100005424426153'
S'Shailesh Trivedi'
tp784
a(S'1008092279'
S'Rajneesh Madhok'
tp785
a(S'1563007395'
S'Vinay Upadhyay'
tp786
a(S'1842669768'
S'Anoop Verma'
tp787
a(S'100001124689864'
S'Ajit Jain Banswara -'
tp788
a(S'100000981312049'
S'Sadhana Rai'
tp789
a(S'100003248869586'
S'Vijendra Dahare'
tp790
a(S'100001074446476'
S'Shahnawaz Hassan Journalist'
tp791
a(S'100005554149806'
S'Qataat Aur Muktak'
tp792
a(S'1172527707'
S'Ritesh Jain'
tp793
a(S'100003018493946'
S'Sudeep Bhattacharya'
tp794
a(S'100001118620273'
S'Rupesh Sunaliya'
tp795
a(S'100003497899973'
S'Pankaj Choudhari'
tp796
a(S'100002187012607'
S'Arbind Kumar Thakur'
tp797
a(S'100003594412393'
S'Vinay Dwivedi'
tp798
a(S'778259389'
S'Bunibroto Dasgupta'
tp799
a(S'100002650276729'
S'Satish Kumar Dwivedi'
tp800
a(S'100000022358712'
S'Puneet Bisaria'
tp801
a(S'100002272057489'
S'Pravasi Duniya'
tp802
a(S'620973401'
S'Veerendra Mishra'
tp803
a(S'100003736319031'
S'Aman Jain'
tp804
a(S'100000492981952'
S'Kumar Krishna'
tp805
a(S'100001684815839'
S'Naresh Chandra Gupta'
tp806
a(S'100002646844681'
S'Dil Tor Diwana Hai'
tp807
a(S'1755922697'
S'Abhishek Gupta'
tp808
a(S'100006594312959'
S'Rajendra Tiwari'
tp809
a(S'100000187832255'
S'\\u0906\\u0928\\u0902\\u0926 \\u092a\\u094d\\u0930\\u0938\\u093e\\u0926 \\u092e\\u0928\\u0938\\u093e'
tp810
a(S'100002315701686'
S'Pathik Tarak'
tp811
a(S'100000917722432'
S'Yasin Memon'
tp812
a(S'100002648266878'
S'Sanjeev Trivedi'
tp813
a(S'100003217855867'
p814
S'Narendra Dubey'
tp815
a(S'100003843222649'
S'Bharat Kumar'
tp816
a(S'100003721792077'
S'Sushma Bhandari'
tp817
a(S'100000126572778'
S'Vikram Sharma'
tp818
a(S'1102492385'
S'Ravindra Prabhat'
tp819
a(S'100003892201406'
S'Jasbir Komal'
tp820
a(S'100002044683735'
S'Mohan Amritsar'
tp821
a(S'100002810031209'
S'Ankit Singh Thakur'
tp822
a(S'100002491116606'
S'Param Dadsena'
tp823
a(S'100001075736262'
S'Vinay Sharma'
tp824
a(S'100002606885754'
S'Ajay Sharma'
tp825
a(S'100003346952979'
S'Shobha Chandrakar'
tp826
a(S'1693016122'
S'Satya Patel'
tp827
a(S'100003834812833'
S'Nandu Sinha'
tp828
a(S'100003138665627'
S'Satish Thakur'
tp829
a(S'100004836313637'
S'Vijay Kumar Dev'
tp830
a(S'100000690162552'
S'Vinay Pandey'
tp831
a(S'1664097689'
p832
S'Girindranath Jha'
tp833
a(S'100000740651175'
S'Vaibhav Agrawal'
tp834
a(S'1338014495'
S'Sanjeev Khudshah'
tp835
a(S'780103791'
p836
S'Tania Gupta'
tp837
a(S'100002828392384'
S'Anil Moitra'
tp838
a(S'100004405899383'
S'Ansha Rta'
tp839
a(S'100003583486186'
S'Savitesh Mukherjee'
tp840
a(S'100000964727251'
S'Jai Ho Pammy'
tp841
a(S'100002150095755'
S'Amit Kumar'
tp842
a(S'100002240719337'
S'Sandeep Sahu'
tp843
a(S'100000595218897'
S'Arvind Jha'
tp844
a(S'100001318583077'
S'Prashant Pandey'
tp845
a(S'100001574390461'
S'Purushottam Patra'
tp846
a(S'100000002731702'
S'Renu Goel'
tp847
a(S'1399370881'
S'Kamlesh Maheshwari'
tp848
a(S'100003646178251'
S'Kailash Mandlekar'
tp849
a(S'100004475978565'
S'\\u0935\\u093f\\u091c\\u0928 \\u0928\\u094d\\u092f\\u0942\\u091c\\u093c'
tp850
a(S'100000856910066'
S'Gaurav Shukla'
tp851
a(S'100001387890022'
S'Santosh Sikarwar'
tp852
a(S'100002892623997'
S'Praviraj Shrivastava'
tp853
a(S'100001540027320'
S'Ramagya Shashidhar'
tp854
a(S'100002176353489'
S'Abhishek Khandelwal'
tp855
a(S'100000224109995'
S'Neeraja Gurramkonda'
tp856
a(S'100000906152350'
S'Leeladhar Rathi'
tp857
a(S'100000371859936'
S'Sanjay Dixit'
tp858
a(S'100000033486520'
S'Manoj Kumar Choudhary Choreographer'
tp859
a(S'100001406604857'
S'\\u0909\\u0924\\u094d\\u0924\\u092e\\u0930\\u093e\\u0935 \\u0915\\u094d\\u0937\\u0940\\u0930\\u0938\\u093e\\u0917\\u0930'
tp860
a(S'100002614385723'
S'Prince Hazari'
tp861
a(S'100002260170704'
S'Santosh Yadav'
tp862
a(S'100006969576930'
S'Sakshi Ahuja'
tp863
a(S'100002310171904'
p864
S'Devraj Budhiraja'
tp865
a(S'719601377'
S'Srijan Shilpi'
tp866
a(S'100003308025380'
S'Jp Sharma'
tp867
a(S'1022749152'
S'Aparajit Shukla'
tp868
a(S'647978178'
S'Bhupendra Singh'
tp869
a(S'100004680276412'
S'Tiger Reserve'
tp870
a(S'100001999326266'
S'Ankit Tiwari'
tp871
a(S'1700747644'
S'Ravindra Goyal'
tp872
a(S'100004916917738'
S'Gaurav Sharma II'
tp873
a(S'100000912131866'
S'Rajendra Padhye'
tp874
a(S'100002113175242'
S'Pankaj Agrawal'
tp875
a(S'1672776568'
S'DrSunil Kumar Tripathi'
tp876
a(S'100002217341130'
S'Yogesh Chandra Sharma'
tp877
a(S'100000726942151'
S'\\u0927\\u0930\\u094d\\u092e\\u0947\\u0928\\u094d\\u0926\\u094d\\u0930 \\u0915\\u0941\\u092e\\u093e\\u0930 \\u0938\\u093f\\u0902\\u0939'
tp878
a(S'100003136862502'
S'Subhash Tiwari'
tp879
a(S'1446320270'
p880
S'Anupam Mishra'
tp881
a(S'100003027207191'
S'Sanjeev Shukla II'
tp882
a(S'100001269443861'
S'Navabharat Press'
tp883
a(S'703105773'
S'Sanjay Gandhi'
tp884
a(S'100000582207293'
S'Suman Pandey'
tp885
a(S'100004833521525'
S'Adbhut Ram Bhaishree'
tp886
a(S'100001492122252'
S'Sushil Sharma'
tp887
a(S'100005212600594'
S'Suresh Tripathi'
tp888
a(S'100000175943487'
S'Kunwar Ravindra'
tp889
a(S'100002468836945'
S'Shafik Khan'
tp890
a(S'100000242609204'
S'Pankaj Tiwari'
tp891
a(S'100000147112200'
S'Keshav Sharma'
tp892
a(S'100002219600516'
S'Karan Khan Tahir I'
tp893
a(S'537662023'
S'Suresh Meghwani'
tp894
a(S'100001862912069'
S"Khunteta's Honey"
tp895
a(S'689167369'
S'Manish Jaiswal'
tp896
a(S'100001647003269'
S'Jitendra Pandey'
tp897
a(S'100000181279931'
S'Anand Rai'
tp898
a(S'100000736041500'
S'Hanan Abdul'
tp899
a(S'100002981341913'
S'Sanjeev Jaiswal Sanjay'
tp900
a(S'100000249217314'
p901
S'Rajendra Yadav'
tp902
a(S'100001514153839'
S'Manoj Mirania'
tp903
a(S'100002250030629'
S'Rizwan Khan'
tp904
a(S'1697010595'
S'Zainul Hasan'
tp905
a(S'100004899481533'
S'Aman Kumar Koshle'
tp906
a(S'100001621431846'
S'Arya Shiv'
tp907
a(S'100000468620955'
S'Nizam Farooqui'
tp908
a(S'100002983346026'
S'\\u0930\\u093e\\u092f\\u092a\\u0941\\u0930 \\u091f\\u0941\\u0921\\u0947 \\u092e\\u093e\\u0938\\u093f\\u0915 \\u092a\\u0924\\u094d\\u0930\\u093f\\u0915\\u093e'
tp909
a(S'100002246679977'
S'Ramesh Kumar Chaubey'
tp910
a(S'100002071283008'
S'Sukhdeo Korety'
tp911
a(S'100001888627922'
S'Sanjay Alung'
tp912
a(S'100003011665143'
S'Yashavant Tiwari'
tp913
a(S'100003049080433'
S'Ajay Choudhary'
tp914
a(S'100003713343537'
S'Neeraj Sinha'
tp915
a(S'100000099173135'
S"Sunil Kumar 'suman'"
tp916
a(S'100000309584033'
S'Suneel Tiwari Suneel Tiwari'
tp917
a(S'100004030171065'
S'Dinesh Singh'
tp918
a(S'100002937126829'
S'Narayana Rao'
tp919
a(S'1107802257'
S'Padma Patil'
tp920
a(S'100001314445601'
S'Sandeep Jha'
tp921
a(S'100000968197650'
S'Reeta Pasapuleti'
tp922
a(S'100001058945401'
S'Hrishikesh Tripathi'
tp923
a(S'100002386618301'
S'Ramesh Vishvahar'
tp924
a(S'100000114686697'
S'Ashish Tiwari'
tp925
a(S'100004063266970'
S'Anil Mishra'
tp926
a(S'100000649899637'
S'Naresh Krishnani'
tp927
a(S'100001681360592'
S'Harish Tiwari'
tp928
a(S'100000989040714'
S'Sankalp Roy'
tp929
a(S'523434538'
p930
S'Joy C. Raphael'
tp931
a(S'100004828692277'
S'Akhil Kapoor'
tp932
a(S'100003583537965'
S'\\u0926\\u0940\\u092a\\u0915 \\u0938\\u093e\\u0939\\u0942'
tp933
a(S'574257600'
S'Chander Kumar Soni CM'
tp934
a(S'100001180075080'
S'\\u0909\\u092e\\u094d\\u092e\\u0947\\u0926 \\u0938\\u093f\\u0902\\u0939'
tp935
a(S'100000623963490'
S'Samanwaya Nanda'
tp936
a(S'100002368601759'
S'Prashant Amathiya'
tp937
a(S'100003152349700'
S'Lachman Dass Kalyan'
tp938
a(S'1728806254'
S'Rakesh Gupta Sanghrashngo'
tp939
a(S'100002495921875'
S'Syed Moin'
tp940
a(S'100000853032346'
S'Ritesh Tiwari'
tp941
a(S'100001680956543'
S'Raja Jain'
tp942
a(S'100001318042486'
S'Tript Kesharwani'
tp943
a(S'100002822875691'
S'Dharmendra Tripathi'
tp944
a(S'100000844308742'
S'Sanjay Dani'
tp945
a(S'100000595615262'
S'Manik Ji'
tp946
a(S'100002632026683'
S'Manoranjini Kotemane'
tp947
a(S'100002297052607'
S'Vikrama Singh'
tp948
a(S'100000796052303'
S'Rajkumar Gwalani'
tp949
a(S'100001938354726'
S'Roshan Ahuja'
tp950
a(S'1001222051'
S'Yogesh Gunwant Vyas'
tp951
a(S'1013888647'
S'Hira Dewangan'
tp952
a(S'100000654484092'
S'OM Sai Ganesh'
tp953
a(S'1493911100'
S'Vijendra Aznabi'
tp954
a(S'100000237406236'
S'Aadesh Thakur'
tp955
a(S'100002319601141'
S'Kiran Sharma'
tp956
a(S'100000479092289'
S'Manish Mishra'
tp957
a(S'100002582774763'
S'Amarpal Singh Broka'
tp958
a(S'100002378509616'
S'Anshuman Singh'
tp959
a(S'100003386563583'
S'Hum Log'
tp960
a(S'100000690854619'
S'Lovely Kumar'
tp961
a(S'100002736214602'
S'Hrishikesh Upadhyay'
tp962
a(S'100003527835889'
S'Shivnath Shukla'
tp963
a(S'100003484011311'
S'Anil Chopra'
tp964
a(S'100000245019982'
S'\\u092a\\u0902\\u0921\\u093f\\u0924 \\u091c\\u0940'
tp965
a(S'1562574480'
S'Balram Agarwal'
tp966
a(S'100001374593782'
S'Gurmeet Kaur Dhanyee'
tp967
a(S'100003134011923'
S'Vikramaditya Singh Judev'
tp968
a(S'100002611420915'
S'Hindustan Hamara'
tp969
a(S'100002118642269'
S'Durgesh Thakur'
tp970
a(S'100002444991897'
S'Jawahar Nagdeo'
tp971
a(S'100000546001142'
S'Bappi Ray'
tp972
a(S'1574412859'
S'Sharad Jaiswal'
tp973
a(S'100003880571305'
S'Gupta Glass'
tp974
a(S'1031990443'
S'\\u0938\\u0924\\u0940\\u0936 \\u0938\\u0915\\u094d\\u0938\\u0947\\u0928\\u093e'
tp975
a(S'100002185081341'
S'Pratyush Sharma'
tp976
a(S'1185641852'
S'Vitthal Bhai Patel'
tp977
a(S'1221286062'
S'Sahil Khan'
tp978
a(S'1326722260'
p979
S'\\u0935\\u093e\\u0923\\u0940 \\u092a\\u094d\\u0930\\u0915\\u093e\\u0936\\u0928'
tp980
a(S'100000864960915'
S'Rajurkar Raj'
tp981
a(S'100003903282834'
S'Bjym Kumhari'
tp982
a(S'100001255998405'
S'Suresh Sahu'
tp983
a(S'100002363201189'
S'Pradeep Singh Thakur'
tp984
a(S'1305265049'
S'Manoj Chhabra'
tp985
a(S'100002088628617'
p986
S'Pramod Bhargav'
tp987
a(S'100002582294963'
S'Deepak Yaduvanshi'
tp988
a(S'100002251806022'
S'Ajay Gaikwad'
tp989
a(S'100000349443592'
p990
S"Nomad's Hermitage"
tp991
a(S'100001695591988'
S'Lalit Sharma'
tp992
a(S'100001891724401'
S'Akbar Ali'
tp993
a(S'100002164411262'
S'Spine Care'
tp994
a(S'100004468685468'
S'Imtiyaz Ahmed'
tp995
a(S'100001829458461'
S'Sangeeta Swarup'
tp996
a(S'100003679838274'
S'Hindustani Bharat'
tp997
a(S'100002199666619'
S'Awadhesh Mishra'
tp998
a(S'832064695'
p999
S'\\u0938\\u0941\\u092f\\u0936 \\u0938\\u0941\\u092a\\u094d\\u0930\\u092d'
tp1000
a(S'100000443861912'
p1001
S'Lalit Sharma'
tp1002
a(S'100002858139199'
S'Sanjay Shekhar'
tp1003
a(S'100004616912179'
S'Chandrashekhar Shukla'
tp1004
a(S'1837317953'
S'Momin Leopold'
tp1005
a(S'100002722472607'
S'\\u0938\\u0902\\u091c\\u092f \\u092f\\u093e\\u0926\\u0935'
tp1006
a(S'1787143768'
S'Om Verma'
tp1007
a(S'100004110783491'
S'Abhishek Mahobe'
tp1008
a(S'1311969884'
p1009
S'Samkaleen Sahitiya Sameelan India'
tp1010
a(S'100002415217155'
S'Nitesh Agrawal'
tp1011
a(S'1527062915'
S'Kumar Sanjay'
tp1012
a(S'100003666177636'
S'Arun Sandey Ji'
tp1013
a(S'100003090937034'
S'Manoj Thakur'
tp1014
a(S'100000711406608'
S'Jc Pravin Tikariha'
tp1015
a(S'836494650'
S'Sandy Gupta'
tp1016
a(S'1189158577'
S'Krishna Kumar Yadav'
tp1017
a(S'100003230422657'
S'Jasvinder Jassu Bhamara Bhamara'
tp1018
a(S'100000540525711'
S'Parag Mishra'
tp1019
a(S'100003749692926'
S'Sukhdeo Korety'
tp1020
a(S'100000664271579'
p1021
S'Ravishankar Shrivastava'
tp1022
a(S'100002388613426'
S'Ram Prakash Saxena'
tp1023
a(S'100000404864077'
S'Sanjida Iqbal Nila'
tp1024
a(S'100002947121398'
S'Mul Bhartiya'
tp1025
a(S'100001079938464'
S'Deen Dayal'
tp1026
a(S'1427419266'
S'ShriShti Upadhyay'
tp1027
a(S'100002161227157'
S'Purushottam Dwivedi'
tp1028
a(S'100001439234736'
S'Rupesh Pathak'
tp1029
a(S'100001642437722'
S'Neeraj Gajendra'
tp1030
a(S'100001429590983'
S'\\u0932\\u0916\\u0928 \\u092e\\u093f\\u0936\\u094d\\u0930'
tp1031
a(S'100002401782067'
S'Dinesh Dewangan'
tp1032
a(S'1178692326'
S'Rajeev Ranjan Prasad'
tp1033
a(S'100006641946743'
S'Bharat Dhruw'
tp1034
a(S'742495064'
S'Rajan Pokhrel'
tp1035
a(S'1743595292'
S'Bashir Ahmed Khan'
tp1036
a(S'100001539646977'
S'Yuva Samvad'
tp1037
a(S'100001177893379'
S'Zareen Siddiqui'
tp1038
a(S'100000310057380'
S'Nikhil Agrawal'
tp1039
a(S'100001228464307'
S'Parmatmanand Pandey'
tp1040
a(S'684780215'
S'Kavita Joshi'
tp1041
a(S'1158574876'
S'Jayprakash Manas'
tp1042
a(S'100001118798573'
S'Viplav Jijnasu'
tp1043
a(S'100002913354864'
S'Nikhil Goyal'
tp1044
a(S'100003917228682'
S'PriorityProfesional Servces'
tp1045
a(S'100003594748154'
S'K Bhaskar Rao'
tp1046
a(S'100003560136740'
S'Rajendra Kumar Pathak'
tp1047
a(S'100004182338242'
S'Abejay Tours'
tp1048
a(S'100003018664237'
S'Proud To Be Raipurian'
tp1049
a(S'100001274972029'
S'Amritlal Joshi'
tp1050
a(S'100004009657428'
S'Harshit Mishra'
tp1051
a(S'100002299881306'
S'Paras Chopda'
tp1052
a(S'1186707207'
S'Reetesh Sahu'
tp1053
a(S'100004461033045'
S'\\u0921\\u0949.\\u0930\\u0942\\u092a\\u091a\\u0928\\u094d\\u0926\\u094d\\u0930 \\u0936\\u093e\\u0938\\u094d\\u0924\\u094d\\u0930\\u0940 \\u092e\\u092f\\u0902\\u0915 \\u092e\\u092f\\u0902\\u0915'
tp1054
a(S'1398739045'
S'Arun Kumar Jha'
tp1055
a(S'100001772682697'
S'Siddhant Sharma'
tp1056
a(S'100001946289173'
S'Chhaya Prakash'
tp1057
a(S'100002893341931'
S'Tinkeshwar Tiwari'
tp1058
a(S'100000506058277'
S'Santosh Kumar Mishra'
tp1059
a(S'100001045258195'
S'R.k. Soni Bharat'
tp1060
a(S'100006507994676'
S'Sohan Dubey'
tp1061
a(S'100000872592264'
S'Jayesh Kavadya'
tp1062
a(S'100002141713943'
S'Rakesh Solomon'
tp1063
a(S'100000943767127'
S'Swarna Sharma Acharya'
tp1064
a(S'100004105514004'
S'Gopal Das'
tp1065
a(S'781699252'
p1066
S'Shreesh Chandra'
tp1067
a(S'100000971042276'
S'\\u0930\\u0935\\u093f \\u092d\\u0942\\u0937\\u0923 \\u092a\\u093e\\u0920\\u0915'
tp1068
a(S'100001653658122'
p1069
S'Gokul Soni'
tp1070
a(S'100000634040172'
S'\\u0905\\u0930\\u0941\\u0923\\u0947\\u0936 \\u0915\\u0941\\u092e\\u093e\\u0930 \\u0936\\u0930\\u094d\\u092e\\u093e'
tp1071
a(S'100003189497480'
S'Ravi Yadav'
tp1072
a(S'100004544405275'
S'Badruddin Qureshi Ex-Minister Bhilai'
tp1073
a(S'1578982188'
S'Prahlad Patel'
tp1074
a(S'100003868803432'
S'Ram Sai'
tp1075
a(S'100003211906104'
S'Laxmi Narayan Sidar'
tp1076
a(S'1236765994'
S'Mukesh Jain'
tp1077
a(S'1124753498'
S'Atul Mishra'
tp1078
a(S'100003988693260'
S'CG Colleges'
tp1079
a(S'100001997746658'
S'Abhisekh Ghore'
tp1080
a(S'100003836370292'
S'Maruti Sharma Sharma'
tp1081
a(S'709391078'
S'Anup Sethi'
tp1082
a(S'100001625847032'
S'Reetu Kalsi'
tp1083
a(S'100002234465076'
S'Atul Parwat'
tp1084
a(S'100001357711057'
S'Netram Lalpuria'
tp1085
a(S'100003895901000'
S'Danish Aaftab Husain'
tp1086
a(S'100002738508878'
S'Hemant Tiwari Bagbahara'
tp1087
a(S'732984556'
p1088
S'Arimardan Kumar Tripathi'
tp1089
a(S'100002802446392'
S'Rafique Khan'
tp1090
a(S'100000859991921'
S'Madhyapradeshies Delhi'
tp1091
a(S'100002486210824'
S'Gopal Tiwari'
tp1092
a(S'100002745106445'
S'Vinod Vishwakarma'
tp1093
a(S'1299354023'
S"Sanjiv Verma 'salil'"
tp1094
a(S'100002010541996'
S'Sharma Bharat'
tp1095
a(S'100004590193962'
S'Amir Meman'
tp1096
a(S'100002646215704'
S'Masum Khan'
tp1097
a(S'100002501601940'
S'Tukaram Verma'
tp1098
a(S'100000680601456'
S'Dinesh Das'
tp1099
a(S'100002311978656'
S'Nazeer Khan'
tp1100
a(S'100002549782865'
S'Sunday Campus'
tp1101
a(S'100001561240409'
S'Himanshu Dwivedi'
tp1102
a(S'1289086129'
S'Rajinder Swaroop'
tp1103
a(S'100000727659887'
S'Anand Beriwal'
tp1104
a(S'100003064763074'
S'Shyamsunder Das'
tp1105
a(S'100000908940205'
S'Shailendra Bhilai'
tp1106
a(S'1782768284'
S'Ishwar Karun'
tp1107
a(S'100000906619371'
S'Dreamstar India'
tp1108
a(S'100003246526885'
S'Jainam Showroom'
tp1109
a(S'100004505553381'
S'Van Satta'
tp1110
a(S'100003484569277'
S'Sanjay Mishra'
tp1111
a(S'504700359'
S'Rajesh Kumar Bhatia'
tp1112
a(S'608151156'
S'Siddharth Jain'
tp1113
a(S'100002270532754'
S'Manish Vora'
tp1114
a(S'100003244556721'
S'Ashish Sahu'
tp1115
a(S'100001267104388'
S'Mahendra Verma'
tp1116
a(S'100004194730962'
S'Jageshwar Deshmukh'
tp1117
a(S'1183171322'
S'Manju Sainath'
tp1118
a(S'100004365272619'
S'Rajnandgaon Zila Yuva Sangathan'
tp1119
a(S'100000582560820'
p1120
S'Abhilasha Singh'
tp1121
a(S'100002352664762'
S'Ramakant Dani'
tp1122
a(S'100003051755600'
S'Sudhanshu Methani'
tp1123
a(S'1300045449'
S'\\u0905\\u0930\\u094d\\u091a\\u0928\\u093e \\u091a\\u093e\\u0935\\u091c\\u0940'
tp1124
a(S'765598897'
p1125
S'Mahfooz Ali'
tp1126
a(S'1774647392'
S'Ramakant Sinha'
tp1127
a(S'1152244234'
S'Rakesh Dube'
tp1128
a(S'100002482679073'
S'Karamjit Singh Bedi'
tp1129
a(S'100003664118674'
S'Indra Chhablani'
tp1130
a(S'100000113938314'
S'Sanjay Pathade Shesh'
tp1131
a(S'100002166264161'
S'Vikram Bhatt'
tp1132
a(S'100002551809271'
S'Madhav Shukla Manoj'
tp1133
a(S'100001977325664'
S'Madhur Golchha'
tp1134
a(S'589664953'
S'Naresh Kadian'
tp1135
a(S'1064353817'
S'Sudipto Chatterjee'
tp1136
a(S'100002372234589'
S'Sharanjeet Singh Tetri'
tp1137
a(S'100003496967758'
S'Budhwar Masik'
tp1138
a(S'100006761590957'
S'Madho Prasad Miri'
tp1139
a(S'100003025570386'
S'Jagdish Upasane'
tp1140
a(S'100003766875445'
S'Parashuram Malage'
tp1141
a(S'100000645122863'
S'Tehseen Zaidi'
tp1142
a(S'100002636606689'
S'Bunty Jumnani'
tp1143
a(S'100002250376367'
S'Sukhbir Singh Singhotra'
tp1144
a(S'602346904'
S'Suman Pokhrel'
tp1145
a(S'100001425446006'
S'\\u0915\\u094c\\u0936\\u0932\\u0947\\u0928\\u094d\\u0926\\u094d\\u0930\\u092e \\u0915\\u0941\\u0915\\u094d\\u0915\\u0942'
tp1146
a(S'100003808573723'
S'Chander Prakash'
tp1147
a(S'100004678752933'
S'Basubandhu Diwan'
tp1148
a(S'100004580556196'
S'Raipuroffline Raipur'
tp1149
a(S'1334948765'
S'Vinod Bhaskar'
tp1150
a(S'1159782022'
S'Dileep Tiwari Bharteey'
tp1151
a(S'100000818484463'
S'Amit Singh Deo'
tp1152
a(S'100003728887022'
p1153
S'Nitish Mishra'
tp1154
a(S'100001638655753'
S'Mahesh Makhija'
tp1155
a(S'100000402056807'
S'Sher Singh'
tp1156
a(S'100002369935792'
S'Ajit Singh Raj'
tp1157
a(S'100002286678564'
S'Ashok Chaturvedi'
tp1158
a(S'100000984590052'
S'Shweta Sharma'
tp1159
a(S'100003236590482'
S'Vijay Hishikar'
tp1160
a(S'100002667650892'
S'Ashish Mishra'
tp1161
a(S'100001191906887'
S'\\u0938\\u094c\\u0930\\u092d \\u0915\\u0947.\\u0938\\u094d\\u0935\\u0924\\u0902\\u0924\\u094d\\u0930'
tp1162
a(S'100002617617718'
S'Hriday Narayan Upadhyay'
tp1163
a(S'100000578856750'
S'Rjendra Vaishnav'
tp1164
a(S'100002576200784'
S'Vaibhav Kumar'
tp1165
a(S'100003822081839'
S'Sandesh Wala'
tp1166
a(S'100005119534836'
S'Navin Kumar Jain'
tp1167
a(S'1092081908'
S'Dinesh Kumar Mali'
tp1168
a(S'100000857736034'
S'Arun Kumar Banchhor'
tp1169
a(S'100000713659877'
S'Sachin Shashvat'
tp1170
a(S'100003485153972'
S'Virendra Kumar Agrawal'
tp1171
a(S'100002382635889'
S'Jayram Verma'
tp1172
a(S'100001480286855'
S'Nirmal Jain Kothari'
tp1173
a(S'1050816113'
S'Rajendra Prasad Upadhyay'
tp1174
a(S'100001666110831'
S'Abhishek Goeal'
tp1175
a(S'100002119452434'
S'Rahul Bhardwaj'
tp1176
a(S'100002325968010'
S'Nagendra Pandey'
tp1177
a(S'100002890298741'
S'Sadique Razza'
tp1178
a(S'100004519093127'
S'Girish Pande'
tp1179
a(S'100001471107657'
S'Anuj Sharma'
tp1180
a(S'100000542575546'
S'Suresh Mahapatra'
tp1181
a(S'100004120182055'
S'Devendra Rege'
tp1182
a(S'100001044424853'
p1183
S'Manoj Patel'
tp1184
a(S'100003116610404'
S'Hariom Rajoria'
tp1185
a(S'100001428572054'
S'Ramesh Sharma'
tp1186
a(S'100001633573432'
S'Rohit Mishra'
tp1187
a(S'100000247463624'
S'Krishan Deo Singh'
tp1188
a(S'100000574071088'
S'Ram Shiv Murti Yadav'
tp1189
a(S'100001659084763'
S'\\u0915\\u0948\\u0932\\u093e\\u0936 \\u091a\\u0928\\u094d\\u0926\\u094d\\u0930 \\u0936\\u0930\\u094d\\u092e\\u093e'
tp1190
a(S'100003307158849'
S'Tapesh Chandra Gupta'
tp1191
a(S'100002949356648'
S'Yeshwant Dhote'
tp1192
a(S'1510039482'
p1193
S'Pratyoush Mishra'
tp1194
a(S'100006467356015'
S'Motilal Sahu'
tp1195
a(S'100000104495825'
S'Pramod Agrawal'
tp1196
a(S'100001747975940'
S'Mitrindia India'
tp1197
a(S'100001393512301'
S'Tapos Kumar Basu'
tp1198
a(S'100000308836773'
S'Pushpendra Singh Chandel'
tp1199
a(S'100000151582433'
S'Kishore Trivedi'
tp1200
a(S'100003162982508'
S'Sartak Verma'
tp1201
a(S'1162941148'
p1202
S'Awesh Tiwari'
tp1203
a(S'100003154701645'
S'Bjpitkorba Chhattisgarh'
tp1204
a(S'100004729148200'
S'\\u0915\\u0935\\u093f \\u0905\\u0936\\u0930\\u092b\\u0940 \\u0932\\u093e\\u0932 \\u0938\\u094b\\u0928\\u0940'
tp1205
a(S'100004389043851'
S'Leela Art N Frames'
tp1206
a(S'100001628381716'
S'Srijan Bilaspur'
tp1207
a(S'100001017493314'
S'Sumer Singh Kekri'
tp1208
a(S'100001366281823'
p1209
S'Manisha Verma'
tp1210
a(S'100002819748261'
S'Rajat Tiwari'
tp1211
a(S'100002295903607'
S'Devendra Gupta'
tp1212
a(S'100001646936792'
S'Ziya Faruqi'
tp1213
a(S'1685205515'
S'Shahnawaz Pradhan'
tp1214
a(S'100005268223320'
S'Shekhar Raipur CG'
tp1215
a(S'100001820672331'
S'Vikas Paliwal'
tp1216
a(S'100000097927722'
S'Hemant Mishra'
tp1217
a(S'100003806584854'
S'Rajiv Chakravarty'
tp1218
a(S'100001312612305'
S'Soni Kamlesh'
tp1219
a(S'100000503441311'
S'Janu Sahu'
tp1220
a(S'100003120477282'
S'Devashish Mishra'
tp1221
a(S'100002217534637'
S'Pramod Agrawal'
tp1222
a(S'100002248885684'
S'Suraj Dubey'
tp1223
a(S'100002066170681'
S'Vijay Kumar Sharma'
tp1224
a(S'100003469460339'
S'Satish Upadhyay'
tp1225
a(S'100000323833122'
S'Ramendra Pratap Srivastava'
tp1226
a(S'814484787'
p1227
S'\\u0935\\u093f\\u092d\\u0941\\u0930\\u093e\\u091c \\u092e\\u093e\\u0917\\u0927'
tp1228
a(S'100004141868716'
p1229
S'Saurabh Tiwari'
tp1230
a(S'100004430675804'
S'Girish Laheja'
tp1231
a(S'1095344264'
p1232
S'Anil Saumitra'
tp1233
a(S'100004631613997'
S'Hindusthan Samachar New Delhi'
tp1234
a(S'100002735710548'
S'Sitare Hind'
tp1235
a(S'100005180500955'
S'Amit Sharma'
tp1236
a(S'100003095975834'
S'Drjaipal Tarun'
tp1237
a(S'100001264243004'
S'Umesh Pathak'
tp1238
a(S'533668633'
p1239
S'Nivir Shivputra'
tp1240
a(S'100002212244715'
S'DrSanjay Shukla'
tp1241
a(S'1380573879'
S'Kavi Kishor Kumar Khorendra'
tp1242
a(S'100002585763713'
S'Prem Shankar'
tp1243
a(S'100001616382093'
S'Jasvir Tyagi'
tp1244
a(S'100001585993335'
S'Ashok Rawat'
tp1245
a(S'100005815894363'
S'Pwa Chhattisgarh India'
tp1246
a(S'100002606107918'
S'Kamal Trivedi'
tp1247
a(S'1033433441'
S'Ashok Chakradhar'
tp1248
a(S'100002527670372'
S'Ramesh Bhagat'
tp1249
a(S'100001745905362'
S'Ram Mishra'
tp1250
a(S'100006826747687'
S'Narayan Yadav'
tp1251
a(S'788993197'
S'Shekhar Sen'
tp1252
a(S'100001343522466'
S'Laxmikant Mahilange'
tp1253
a(S'1774890818'
S'Mohan Tiwari'
tp1254
a(S'1468788237'
S'Partap Sehgal'
tp1255
a(S'100003906825199'
p1256
S'Attahas Magzine'
tp1257
a(S'100000512319882'
S'Bhupendra Shivedi'
tp1258
a(S'100001632729512'
S'Jitendara Singh Thakur'
tp1259
a(S'1317499728'
S'Ashok Kushwaha'
tp1260
a(S'100000832695466'
S'Kumar Atul'
tp1261
a(S'100001773821563'
S'Ranjana Pokhrel'
tp1262
a(S'100002067756966'
S'Deepak Mishra'
tp1263
a(S'100001957613698'
S'Pushpendra Upadhyay'
tp1264
a(S'100000219549454'
S'Raj Dubey'
tp1265
a(S'1473135079'
S'Gulzeb Ahmed'
tp1266
a(S'100002708495923'
S'Gaukaran Banjare'
tp1267
a(S'100002548078600'
S'Sony Knk'
tp1268
a(S'706824726'
S'Amit K Sagar'
tp1269
a(S'100005215751440'
S'Limpid Librocafe'
tp1270
a(S'100004676953142'
S'Vidisha Singh Parihar'
tp1271
a(S'100002617412800'
S'Rohit Roy'
tp1272
a(S'100004090758520'
S'Prakash Kumar Gupta'
tp1273
a(S'100000657339004'
S'Abhay Singh Nirbheek'
tp1274
a(S'100002771497285'
S'Sunil Chincholkar'
tp1275
a(S'100002062969362'
S'Chronicle Kabirdham'
tp1276
a(S'1493340875'
S'Sanjay Nangalia'
tp1277
a(S'100001105369144'
S'Ashutosh Mishra'
tp1278
a(S'1678910009'
S'Ankur Manu Vaishnava'
tp1279
a(S'100001448493395'
S'Abhay Singh'
tp1280
a(S'100001980562624'
S'Prakash Manu'
tp1281
a(S'571528474'
S'Sonitha Singh'
tp1282
a(S'100000335681390'
S'Kishore Tatibandwale'
tp1283
a(S'100004665035394'
S'R.p. Singh'
tp1284
a(S'100003873770407'
S'Tirchi Najar'
tp1285
a(S'1186353705'
S'Ellpee Mahawar'
tp1286
a(S'100003513773916'
S'Shambhu Kumar Jha'
tp1287
a(S'729937720'
S'Mantak Sharma'
tp1288
a(S'100001180845585'
S'Swatantra Awaz'
tp1289
a(S'100001613841354'
p1290
S'Avinash Mishra'
tp1291
a(S'100004319702755'
S'Anshu Singhai'
tp1292
a(S'100000446159295'
S'Sangeeta Verma'
tp1293
a(S'100000553433719'
S'\\u0938\\u0941\\u0927\\u093e \\u0909\\u092a\\u093e\\u0927\\u094d\\u092f\\u093e\\u092f'
tp1294
a(S'100000890612171'
S'\\u0906\\u0932\\u093f\\u092f\\u093e \\u0930\\u093e\\u0935 \\u0905\\u0932\\u0940'
tp1295
a(S'100003666108483'
S'Raipur Aajtak'
tp1296
a(S'100003989667574'
S'Kavi Vivek Beghar'
tp1297
a(S'100003657535420'
S'Roopnarayan Sahu'
tp1298
a(S'100002112270415'
S'Girish Gupta'
tp1299
a(S'100002093718165'
S'Dewendra Dadsena'
tp1300
a(S'1238018441'
S'Ali Hasan Makraindia'
tp1301
a(S'100003012539221'
S'Rana Singh'
tp1302
a(S'100002556308300'
S'Ashish Bhattacharya'
tp1303
a(S'100002297134100'
S'Archana Sharma Nepal'
tp1304
a(S'100005188415412'
S'Kishore Diwase'
tp1305
a(S'1803193856'
p1306
S'Brijesh Verma'
tp1307
a(S'100002059616072'
S'Ranjana Srivastava'
tp1308
a(S'1772850884'
S'Ganga Pd Sharma'
tp1309
a(S'1283521962'
S'Amalendu Upadhyaya'
tp1310
a(S'1498941294'
S'Dipak Mashal'
tp1311
a(S'100002707700416'
S'Dilip Agrawal'
tp1312
a(S'100001795300172'
S'Giridhar Mvs'
tp1313
a(S'100004274700739'
S'Srikhant Pradhan Rajput'
tp1314
a(S'100004431121100'
S'Ramesh Agrawal'
tp1315
a(S'100001553474088'
S'Gajender Mohan'
tp1316
a(S'686637380'
S'Vivek Rajpoot'
tp1317
a(S'100001272571102'
S'Abhishek Kumar'
tp1318
a(S'1214537647'
S'Neelam Madiratta'
tp1319
a(S'100002774166869'
S'Kulbir Singh Chhabdhra'
tp1320
a(S'100002505345720'
S'Prafulla Choudhary'
tp1321
a(S'1286365147'
p1322
S'Khushdeep Sehgal'
tp1323
a(S'1414058507'
p1324
S'Chauthi Duniya'
tp1325
a(S'691721041'
S'Niraj Singh'
tp1326
a(S'100000139460248'
p1327
S'Kamlesh Kumar Diwan'
tp1328
a(S'1085408068'
S'Shashank Sharma'
tp1329
a(S'100000220465278'
S'Dinesh Sharma'
tp1330
a(S'100000808217803'
S'Etwentyfour Bolly'
tp1331
a(S'1409260790'
S'Ravikant Jaiswal'
tp1332
a(S'100004362942444'
S'Friendsclub Malkharoda'
tp1333
a(S'100005176514400'
S'Kalipada Das'
tp1334
a(S'1728354704'
S'Ramsharan Tandon'
tp1335
a(S'1478948569'
S'Sanjay Grover'
tp1336
a(S'1447304149'
S'Kulwant Happy Um'
tp1337
a(S'100003789380890'
S'Om Sai Vikram Adwani'
tp1338
a(S'100002410276004'
S'Sujeet Sharma'
tp1339
a(S'1718605827'
S'Shahnawaz Alam'
tp1340
a(S'100003234043996'
S'Nand Kumar Ojha'
tp1341
a(S'100002056777859'
S'Vinod Pandey'
tp1342
a(S'100000906990050'
S'Singh Keshav Murti'
tp1343
a(S'100002707124556'
S'Manmohan Singh Thakur I'
tp1344
a(S'100004401122475'
S'Narendra Singh Parihar'
tp1345
a(S'100001205394007'
S'Prakash Bajaj'
tp1346
a(S'100000617020361'
S'Ratan Jaiswani'
tp1347
a(S'1102162444'
S'Pramod Tambat'
tp1348
a(S'100002838224687'
S'Prashant Rangari'
tp1349
a(S'100000636204482'
S'Divik Ramesh'
tp1350
a(S'100002914837875'
S'Mangilal Bishnoi Hingoli'
tp1351
a(S'100003760833989'
S'Dayanand Sharma'
tp1352
a(S'1348562222'
S'Riyaz Hashmi'
tp1353
a(S'100002130270724'
S'Prince Gwalani'
tp1354
a(S'100002507081122'
S'Vicky Dharmani'
tp1355
a(S'100001529110435'
S'Kamal Sharma Sadvipra'
tp1356
a(S'100003462806142'
S'Arvind Mishra'
tp1357
a(S'100001522616955'
S'Utpal Bhattacharya'
tp1358
a(S'100000857024465'
S'Payal Malhotra'
tp1359
a(S'1093322055'
S'Komal Pokhrel'
tp1360
a(S'695163908'
S'Rati Saxena'
tp1361
a(S'100000872261793'
S'Kumari Kanchan'
tp1362
a(S'1314344332'
S'Kamal Dubey'
tp1363
a(S'100003205293405'
S'Aditi Communicationraipur'
tp1364
a(S'100001088869371'
S'Ravikant Singh'
tp1365
a(S'100001699288701'
S'Chandrashekhar Sharma'
tp1366
a(S'100000092650408'
S'Jamal Hussain'
tp1367
a(S'100002333899499'
S'Pradeep Kumar Dash'
tp1368
a(S'100001593040688'
S'Preeti Kushwaha'
tp1369
a(S'1282941859'
S'Arun Dubey'
tp1370
a(S'100006440354914'
S'Satyaprakash Jha'
tp1371
a(S'100000011335859'
S'Rajesh Rathi'
tp1372
a(S'100000120142198'
S'Rajesh Choubey'
tp1373
a(S'1573021302'
S'Omkar Mani'
tp1374
a(S'100002369866074'
S'Hindi Chetna'
tp1375
a(S'100001984212969'
S'\\u0938\\u0902\\u091c\\u092f \\u0915\\u0941\\u092e\\u093e\\u0930 \\u092e\\u093f\\u0936\\u094d\\u0930'
tp1376
a(S'100002572937677'
S'Manish Sharma'
tp1377
a(S'1807361748'
S'Ravi K Gurbaxani'
tp1378
a(S'100001261247501'
S'Satyam Upadhyay'
tp1379
a(S'100002359489604'
S'Vikrant Pratap Singh'
tp1380
a(S'100000055736423'
S'Karuna Arts'
tp1381
a(S'100001226861546'
S'Pahal Siksha Daan Mahakalyan'
tp1382
a(S'100002695871773'
S'Devendra Shukla'
tp1383
a(S'100000622618331'
S'Sandeep Akhil'
tp1384
a(S'100003209741596'
S'Pawan Rupauliha'
tp1385
a(S'1012276397'
S'Ram Pratap Shahi'
tp1386
a(S'100003617977673'
S'Jayanti Patel'
tp1387
a(S'100002781576432'
S'Meenakshee Swami'
tp1388
a(S'100000303987018'
S'Mahesh Khelwani'
tp1389
a(S'100002108702314'
S'Laxmi Thakur'
tp1390
a(S'100001803116572'
S'Sangeeta Kumari'
tp1391
a(S'100002407819670'
S'Sonu Yogendra'
tp1392
a(S'1412691907'
S'Kusum Thakur'
tp1393
a(S'1809775413'
S'Chaman Lal Jnu'
tp1394
a(S'100003744616941'
S'Kumar Saroj Mishra'
tp1395
a(S'100001283925801'
S'Aman Koshta'
tp1396
a(S'100002542372719'
S'Pradip Dasgupta'
tp1397
a(S'100002563844194'
S'Bhushan Das Manikpuri'
tp1398
a(S'100004780117241'
S'Yogdan Samaj Sevi Sanstha'
tp1399
a(S'100000210459156'
S'Dhananjay Singh Parihar'
tp1400
a(S'100001720818525'
S'Satyendra Kumar'
tp1401
a(S'100003506910257'
S'Rishabh Chaturvedi'
tp1402
a(S'1462298904'
S'Vyangya Yatra'
tp1403
a(S'1042640303'
S'Vaibhava Nath Sharma'
tp1404
a(S'100001860868522'
S'Vinay Gendre Vinay'
tp1405
a(S'100002151033297'
S'Ayyub Khan'
tp1406
a(S'100003240884834'
S'Rahul Mishra'
tp1407
a(S'100002131712862'
S'Yogendra Thakur'
tp1408
a(S'100000568484425'
S'Dayanand Awasthi'
tp1409
a(S'100001994082000'
S'Ajeet Kumar Sharma'
tp1410
a(S'100002162933108'
S'Aditya Singh Bablu'
tp1411
a(S'100001002880721'
S'Shekhar Amin'
tp1412
a(S'100006936750887'
S'Bjmc Bhanupratappur'
tp1413
a(S'100002547332120'
S'Sharad Chandra Kakkar'
tp1414
a(S'100003749338677'
S'Nishant K. Mishra'
tp1415
a(S'100004045761443'
S'Mobin Farooqui'
tp1416
a(S'100002327245121'
S'Ankit Agrawal'
tp1417
a(S'100004574316404'
S'Mera Bilaspur'
tp1418
a(S'100001418452516'
S'Durgesh Deshmukh'
tp1419
a(S'1695172256'
S'Kanishka Kashyap'
tp1420
a(S'100001462391355'
S'Praveen Kumar Singh'
tp1421
a(S'100002909290881'
S'Surendra Tripathi'
tp1422
a(S'100001402377684'
S'Abhishek Bajpai'
tp1423
a(S'100002515030774'
S'Janjatiya Suraksha Manch'
tp1424
a(S'100002050051190'
S'R.p. Singh'
tp1425
a(S'1423590985'
p1426
S'Ranvijay Singh'
tp1427
a(S'100002636245740'
S'Abhishek Shukla'
tp1428
a(S'100002362141282'
S'Sandip Soni'
tp1429
a(S'100001607912465'
S'Kavita Vikas'
tp1430
a(S'100003356717266'
S'Ashim Banjare'
tp1431
a(S'100002363748237'
S'Deepak Pandey'
tp1432
a(S'100000584089398'
S'Astrologer Ashok Kumar'
tp1433
a(S'100000051411519'
S'Indervesh Yogee'
tp1434
a(S'100000957357712'
S'Dilip Mishra'
tp1435
a(S'100000705295901'
S'Deepak Pandey'
tp1436
a(S'100000463404136'
S'Andy Nicho'
tp1437
a(S'100000805432504'
S'Nepalipost Post'
tp1438
a(S'100003586697762'
S'Alok Patel'
tp1439
a(S'100000039886618'
S'Ramesh Pratap Singh'
tp1440
a(S'739550097'
S'Sanjay Vitthal Bhai Patel'
tp1441
a(S'100000221323475'
S'Rameshwar Prasad'
tp1442
a(S'100005256244687'
S'Kamlesh Vaishnav'
tp1443
a(S'100001141692671'
S'Rahul Bhai Patel'
tp1444
a(S'733759988'
S'Priyadarshini Singh Anand'
tp1445
a(S'100002569583244'
S'P.c. Rath'
tp1446
a(S'100003264040660'
S'Swaraj Karun'
tp1447
a(S'100003178791023'
S'Sohan Dubey'
tp1448
a(S'100003681074967'
S'Mayank Vama'
tp1449
a(S'100000339203860'
S'Avadhesh Kumar Yadav'
tp1450
a(S'100000197469302'
S'Ghulam Murtaza Shareef'
tp1451
a(S'100004655916188'
S'Rajkumar Tandan'
tp1452
a(S'100002506198399'
S'Abir Prakash'
tp1453
a(S'100001213700844'
S'Humtum Raipur'
tp1454
a(S'100002625514408'
S'Nirmal Jain'
tp1455
a(S'100002476807763'
S'Amit Sharma'
tp1456
a(S'100003209391891'
S'Raigarhjannayak Rk'
tp1457
a(S'100003128765686'
S'Kiran Vaishanav'
tp1458
a(S'100001850634869'
S'Sourabh Jumnani'
tp1459
a(S'100000757893115'
S'Er Anadi Pandey'
tp1460
a(S'100001915760243'
S'Anil Shukla'
tp1461
a(S'100000087140983'
S'Rudra Awasthi'
tp1462
a(S'100002597517616'
S'Bharat Prasad'
tp1463
a(S'100001316207124'
S'\\u092e\\u0943\\u0924\\u094d\\u092f\\u0941\\u0902\\u091c\\u092f \\u0936\\u0930\\u094d\\u092e\\u093e'
tp1464
a(S'1121324094'
S'Kalpesh Patel'
tp1465
a(S'100004069774059'
S'Shubham Gaikwad'
tp1466
a(S'100003131764603'
S'Aruna Singh'
tp1467
a(S'100004413399388'
S'Sanu Raza'
tp1468
a(S'100001002436072'
p1469
S'Subhash Rai'
tp1470
a(S'100004204260058'
S'Vaibhav Saluja'
tp1471
a(S'100005269778700'
S'Rajiv Singh'
tp1472
a(S'100003566533489'
S'Jagdish Prashad'
tp1473
a(S'100001460217708'
S'Devendra Mishra'
tp1474
a(S'1654960021'
S'Anil Panicker'
tp1475
a(S'100002260668439'
S'Kaushal Kumar Upadhay'
tp1476
a(S'100003745290030'
S'Lakeshwar Patel'
tp1477
a(S'100001476965950'
S'Shailendrakumar Sharma'
tp1478
a(S'100002904866295'
S'Groow Mee'
tp1479
a(S'100001473117930'
S'Sunil Nayak'
tp1480
a(S'1749236895'
S'\\u0935\\u0902\\u0926\\u0928\\u093e \\u0905\\u0935\\u0938\\u094d\\u0925\\u0940 \\u0926\\u0941\\u092c\\u0947'
tp1481
a(S'100002432633709'
S'Rishabh Singh Thakur'
tp1482
a(S'100000557164620'
p1483
S'Harish Burnwal'
tp1484
a(S'100000170428662'
S'Atul Sharma'
tp1485
a(S'100004478561926'
S'Blinder Kumar'
tp1486
a(S'1585572969'
S'Ram Tyagi'
tp1487
a(S'100000075497042'
S'Pushpendra Solanki'
tp1488
a(S'100002456245806'
S'Anoop Sharma'
tp1489
a(S'100001852569696'
S'Ashwini Kesharwani'
tp1490
a(S'100001221055087'
S'Laxman Jagwani'
tp1491
a(S'100000006687900'
S'Devendra Kumar'
tp1492
a(S'1513502791'
S'Subhashish Jain'
tp1493
a(S'100003085096295'
S'Karunanidhi Yadav'
tp1494
a(S'100003598726035'
S'Real Friend Show'
tp1495
a(S'100000695147455'
S'Shubham Verma'
tp1496
a(S'100003097564810'
S'Tapan Tripathi'
tp1497
a(S'100000016365938'
p1498
S'Rohit Singh'
tp1499
a(S'100001441030190'
S'Mita Das'
tp1500
a(S'100003133841192'
S'Hemant Khunte'
tp1501
a(S'100001577880364'
S'Sharad Chandra Gaur'
tp1502
a(S'100004613204229'
S'Kabir Bhai'
tp1503
a(S'100001666569303'
S'Vidhu Lata'
tp1504
a(S'100000124927788'
S'Drsatyajit Sahu'
tp1505
a(S'100002922390337'
S'SuperList Chhattisgarh'
tp1506
a(S'100001814156365'
S'Ibrahim Bakhsh Azad'
tp1507
a(S'100000801623105'
S'Vikesh Nijhawan'
tp1508
a(S'100005133697692'
S'Kishor Kar'
tp1509
a(S'100003971709548'
S'Abdul Qayyum'
tp1510
a(S'100001344982899'
S'Arun Kaharba'
tp1511
a(S'100001321855207'
S'Amar Ujala Noida'
tp1512
a(S'1001001302'
S'Shashi Kant Dani'
tp1513
a(S'1435412710'
S'Chetan Kranti'
tp1514
a(S'1734574506'
S'Subhash Chandra'
tp1515
a(S'100002934199529'
S'Mahendra Chhabda'
tp1516
a(S'100004801063535'
S'Shesh Dubey'
tp1517
a(S'100003791344338'
S'Harsha Tripathi'
tp1518
a(S'1782699066'
p1519
S'Mangal Senacha'
tp1520
a(S'100000528240489'
S'Barun Kumar Sakhajee'
tp1521
a(S'100003001187344'
S'Shiva Mohanti'
tp1522
a(S'100001189828769'
S'Meenu Chandiwal'
tp1523
a(S'100003494268612'
S'Ujjawal Gaur'
tp1524
a(S'100001467120780'
S'Pramod Bhatt'
tp1525
a(S'100003074222131'
S'Ajay Kumar Soni'
tp1526
a(S'100005305361930'
S'Vaishvik Hindi Sahitya Sansthan'
tp1527
a(S'1700966908'
S'Prakriti Rai'
tp1528
a(S'677416374'
p1529
S'Shabnam Hashmi'
tp1530
a(S'100005303354526'
S'Ramkishan Sharma'
tp1531
a(S'100002602960817'
S'Ashfaque Ali'
tp1532
a(S'100001358286833'
S'Jsb Naidu'
tp1533
a(S'100003264337788'
S'Hilendra Thakur'
tp1534
a(S'100002411958248'
S'Vishwajeet Mittra'
tp1535
a(S'100003528424722'
S'G.s. Thakur'
tp1536
a(S'100002854567248'
S'Vivek Bakshi'
tp1537
a(S'100001074360143'
S'Kamlesh Singh'
tp1538
a(S'100002601878744'
S'Shamsheer Siwani'
tp1539
a(S'100003076330683'
S'Charnamrit Sharma'
tp1540
a(S'100002410957825'
S'Sanjay Batra'
tp1541
a(S'100000322317384'
S'\\u0928\\u0935\\u0940\\u0928 \\u091a\\u0902\\u0926\\u094d\\u0930 \\u0932\\u094b\\u0939\\u0928\\u0940'
tp1542
a(S'100002093542526'
S'Swapna Khan'
tp1543
a(S'1156895008'
S'\\u092a\\u094d\\u0930\\u0947\\u092e \\u091c\\u0928\\u092e\\u0947\\u091c\\u092f'
tp1544
a(S'100004119726062'
S'Right Turn'
tp1545
a(S'100001422479218'
S'Dinesh Dubey'
tp1546
a(S'100002821075265'
S'Sanjeev Singh'
tp1547
a(S'1521136884'
p1548
S'Amit Kalla'
tp1549
a(S'100002427200796'
S'Vivek Sahu'
tp1550
a(S'100002128451405'
S'\\u0921\\u093e\\u0901 \\u0938\\u0941\\u0936\\u0940\\u0932 \\u0917\\u0941\\u0930\\u0941'
tp1551
a(S'1631512843'
S'Sukesh Sahni'
tp1552
a(S'100002699341420'
S'Sagar Gwalani'
tp1553
a(S'1711043330'
S'Ashu Desai'
tp1554
a(S'100003805884823'
S'Deepak Kashyap'
tp1555
a(S'100002129391241'
S'Vikram Jhorar'
tp1556
a(S'590277737'
S'Raadha Krishen Choudharry'
tp1557
a(S'100000122722181'
S'Akhter Ali'
tp1558
a(S'100000480253502'
S'Anirudh Bijwe'
tp1559
a(S'1643526663'
S'\\u092e\\u0940\\u0921\\u093f\\u092f\\u093e \\u0926\\u0930\\u092c\\u093e\\u0930'
tp1560
a(S'100002519834811'
S'Bholaram Sinha'
tp1561
a(S'100001854106289'
S'Vijay Borwanker'
tp1562
a(S'100001065980557'
S'Sunil Singh'
tp1563
a(S'100004056050606'
S'Bhagavat Netam'
tp1564
a(S'100002200927899'
S'Banti Diwan'
tp1565
a(S'100000744423182'
S'Virendra Sarang'
tp1566
a(S'100001367034902'
S'Balram Sahu'
tp1567
a(S'100000320770889'
S'Shravan Shravan'
tp1568
a(S'100001006538935'
S'Krishan Gupta'
tp1569
a(S'100000121564406'
S'Kaushal Kumar Swarnber'
tp1570
a(S'100003945922567'
S'MakeMy Trip Raipur'
tp1571
a(S'100002247735842'
S'Vikas Shukla'
tp1572
a(S'1761776261'
S'Rishikesh Pandey'
tp1573
a(S'100000563013164'
S'Priya Sharan Tripathi'
tp1574
a(S'100004366145279'
S'Ajit Jogi'
tp1575
a(S'100004518218500'
S'\\u091b\\u0924\\u094d\\u0924\\u0940\\u0938\\u0917\\u095d\\u093f\\u092f\\u093e \\u0938\\u092c\\u0932\\u0947 \\u092c\\u095d\\u093f\\u092f\\u093e'
tp1576
a(S'100002285577059'
S'\\u0921\\u093e.\\u0905\\u091c\\u092f \\u0924\\u093f\\u0935\\u093e\\u0930\\u0940'
tp1577
a(S'100002915751569'
S'Selvaraj Selvam'
tp1578
a(S'100001670536780'
S'Laxminarayan Payodhi'
tp1579
a(S'100003686741349'
S'Rony Singh'
tp1580
a(S'100004212910234'
S'Tikendra Thakur'
tp1581
a(S'100002665848311'
S'Sandeep Pauranik'
tp1582
a(S'596302757'
S'\\u0915\\u0935\\u093f \\u0917\\u094c\\u0930\\u0935 \\u0935\\u093e\\u091c\\u092a\\u0947\\u092f\\u0940 \\u0938\\u094d\\u0935\\u092a\\u094d\\u0928\\u093f\\u0932'
tp1583
a(S'1294666823'
S'Syed Shahroz Quamar'
tp1584
a(S'100003264945233'
S'Pathfinder Tours'
tp1585
a(S'100002427330272'
S'Chhattisgarh Congressparty'
tp1586
a(S'100002256937367'
S'\\u0939\\u0902\\u0938\\u0930\\u093e\\u091c \\u0938\\u0941\\u091c\\u094d\\u091e'
tp1587
a(S'100001707079946'
S'Shivkumar Kaushikey'
tp1588
a(S'100004099787375'
S'Simran Sewa Samiti'
tp1589
a(S'100001363215277'
S'Vishnu Thakur'
tp1590
a(S'100002920296028'
S'Thakur Atul Singh'
tp1591
a(S'100002761536192'
S'Satya Rathore'
tp1592
a(S'100001458840553'
S'Umesh Bajpai'
tp1593
a(S'1764169161'
S'Aarohi Du'
tp1594
a(S'100002986377442'
S'Shyam Narayan Srivastava'
tp1595
a(S'100000487273133'
S'Jawahar Choudhary'
tp1596
a(S'100001116343936'
S'Tushar Devendrachaudhry'
tp1597
a(S'100002271810852'
S'Rasbihari Pandey'
tp1598
a(S'1846782122'
S'Deniz Poul'
tp1599
a(S'100001189922663'
S'Godham Mahatirth'
tp1600
a(S'100001934545420'
S'Venus Kesari'
tp1601
a(S'100002853456509'
S'Dheeraj Bawankar'
tp1602
a(S'100000867833471'
S'Khalique Rahman'
tp1603
a(S'100003292842953'
S'Tulsi Janghel'
tp1604
a(S'100005104894848'
S'Smbc Raipur'
tp1605
a(S'564387857'
S'Pankaj Dixit'
tp1606
a(S'100001515469549'
S'Neeraj Pandey'
tp1607
a(S'100001201293190'
S'Arun Kathote'
tp1608
a(S'1254907161'
S'Jay Prakash'
tp1609
a(S'100001571139861'
S'Satyapal Singh Susham'
tp1610
a(S'100001402231906'
S'Sharif Mirza'
tp1611
a(S'100006560565979'
S'Naushad Ahmed Siddiqui'
tp1612
a(S'100001661627912'
S'Hindi Sahitya'
tp1613
a(S'1074619275'
S'Yash Oberoi'
tp1614
a(S'100001641106153'
S'Rajiv Lochan Shrivastava'
tp1615
a(S'100004028965534'
S'Soubhagya Charan Samal Deepak'
tp1616
a(S'100000865687671'
p1617
S'Afroz Alam Sahil'
tp1618
a(S'100001675502178'
S'Awadh Sahu'
tp1619
a(S'100000890330731'
S'Mahendra Pratap Pandey'
tp1620
a(S'100000613935485'
S'Sudeep Tripathi'
tp1621
a(S'100003842570417'
S'Akanksha Dubey'
tp1622
a(S'100003258139988'
S'Kush Kumar'
tp1623
a(S'100000616095388'
S'Arunesh C Dave'
tp1624
a(S'100003701833408'
S'Dayal Santani'
tp1625
a(S'100002987254224'
S'Pradeep Mall'
tp1626
a(S'1349503166'
S'Deepak Govind Naik'
tp1627
a(S'100002478208710'
S'Dinesh Anand Athwani'
tp1628
a(S'100001395080132'
S'Altaf Husain'
tp1629
a(S'100000750391375'
S'Sanjay Singh Rajput'
tp1630
a(S'100007372594131'
S'Swapnil Dwivedi Mishra'
tp1631
a(S'1289057361'
S'Rahul Bhattacharya'
tp1632
a(S'100002278623047'
S'Amar Mishra'
tp1633
a(S'100000370012305'
S'Amar M. Tripathi'
tp1634
a(S'100001555926389'
S'Shailendra Kumar Shukla'
tp1635
a(S'100002413850170'
S'Vijaybhushan Sahu'
tp1636
a(S'100005661301003'
S'Devendra Kar'
tp1637
a(S'100002927637306'
S'Nishant Nirmala Sharma'
tp1638
a(S'100001817671293'
S'Usha Rai'
tp1639
a(S'100002407611282'
S'Gokul Sahu'
tp1640
a(S'100004352414272'
S'Nishank Shuklaa'
tp1641
a(S'100003919878537'
S'Ramprakash Tripathi'
tp1642
a(S'100002691173345'
S'Ravindra Rathore'
tp1643
a(S'100001590657377'
S'Shoaibe Dhebar'
tp1644
a(S'100003746158677'
S'Vijay Agrawal RamsagarPara'
tp1645
a(S'100001301698999'
S'Hnews Raipur'
tp1646
a(S'100003105900495'
S'Rajesh Mantri'
tp1647
a(S'100000211657805'
S'Sudhir Sharma'
tp1648
a(S'100002716851439'
S'Lokesh Garg'
tp1649
a(S'100000162485370'
S'Ashutosh Pandey'
tp1650
a(S'100001796912320'
S'Nishu Narang'
tp1651
a(S'1331702318'
S'Vipin Choudhary'
tp1652
a(S'100001914885436'
S'Devendra Singh Chauhan'
tp1653
a(S'620799522'
S'Kavita Vachaknavee'
tp1654
a(S'1173593102'
p1655
S'\\u0905\\u0928\\u092d\\u0948 \\u0939\\u093f\\u0902\\u0926\\u0940 \\u0924\\u094d\\u0930\\u0948\\u092e\\u093e\\u0938\\u093f\\u0915\\u0940'
tp1656
a(S'100001298390743'
p1657
S'Mahendra Mishra'
tp1658
a(S'100002419457143'
S'Rakesh Yadav'
tp1659
a(S'100001307857637'
p1660
S'Mohd Arshad Khan'
tp1661
a(S'676111481'
S'Pankaj Shukla'
tp1662
a(S'1506829558'
S'Neeraj Agrawal'
tp1663
a(S'100000873286466'
S'Satish Pandey'
tp1664
a(S'100004849688395'
S'Ipta Raipur'
tp1665
a(S'100004132603312'
S'Mohnish Palange'
tp1666
a(S'100002449096763'
S'Vishwas Vyas'
tp1667
a(S'100002495317042'
S'Nitin Pomal'
tp1668
a(S'100000124684229'
S'Sanjeev Bhagwat Prasad Gupta'
tp1669
a(S'100003795752198'
S'Vickky Sharma'
tp1670
a(S'100000911312620'
S'Girish Gupta'
tp1671
a(S'100000929803859'
S'\\u0938\\u0902\\u091c\\u092f \\u092e\\u0939\\u093e\\u092a\\u093e\\u0924\\u094d\\u0930'
tp1672
a(S'1537163644'
S'Sat Pal Khayaal'
tp1673
a(S'100000578067997'
S'Kumar Gaurav'
tp1674
a(S'100000867161243'
S'\\u0915\\u0935\\u093f \\u0936\\u0948\\u0932\\u0947\\u0936 \\u0936\\u0941\\u0915\\u094d\\u0932\\u093e'
tp1675
a(S'1657091725'
p1676
S'Fazal Imam Mallick'
tp1677
a(S'100000638636020'
S'Nikita Sahni'
tp1678
a(S'100001406299069'
S'Rajesh Bissa'
tp1679
a(S'100003199796214'
S'\\u0905\\u0928\\u0941\\u092e\\u094b\\u0926 \\u092b\\u093f\\u0932\\u094d\\u092e\\u0938'
tp1680
a(S'100003586147139'
S'Vinod Panda Dhamejani'
tp1681
a(S'100003082207967'
S'Mitul Manch'
tp1682
a(S'100003086321790'
S'Ashish Goyal'
tp1683
a(S'100001755066439'
S'Jaspal Singh Hora'
tp1684
a(S'100001050665973'
S'Theatrefest Repertwahr'
tp1685
a(S'1359653237'
S'Sudhir Shrivastava'
tp1686
a(S'100003639951517'
S'N V Upadhyay Upadhyay'
tp1687
a(S'100002048165647'
S'Ashok Singhai'
tp1688
a(S'100000010154654'
S'Mangal Senacha'
tp1689
a(S'1823499921'
p1690
S'Mangal Senacha'
tp1691
a(S'1808499738'
S'Mangal Senacha'
tp1692
a(S'100004858803694'
S'Anita Khare'
tp1693
a(S'100003147345392'
S'Kabira Bazzar'
tp1694
a(S'100002483893148'
S'Umakant Pandey'
tp1695
a(S'100006340597670'
S'Dinesh Trivedi'
tp1696
a(S'100001076942137'
S'Ddinesh Kapur'
tp1697
a(S'100002987224425'
S'Vikalp Vimarsh'
tp1698
a(S'100001899111444'
S'Rais Khan Pathan'
tp1699
a(S'100003879474976'
S'Prakash Parakh'
tp1700
a(S'100002398081012'
S'Biju Ambadi'
tp1701
a(S'100000093713434'
S'Pradeep Maheshwari'
tp1702
a(S'100004415800763'
S'Shahid Cool'
tp1703
a(S'100001608962303'
S'Dev Ankur'
tp1704
a(S'100004035186461'
S'Paceeducation Abhinav'
tp1705
a(S'100003264852151'
S'Akhilesh Mishra'
tp1706
a(S'100002216665506'
S'Govind Sharma'
tp1707
a(S'100001904137159'
S'Manmohan Parakh'
tp1708
a(S'100001779773149'
S'Saurabh Salunke'
tp1709
a(S'1607294646'
S'Ved Prakash'
tp1710
a(S'100000821014508'
S'Sunil Kumar Mahapatra'
tp1711
a(S'617246584'
S'Ujjwal Deepak'
tp1712
a(S'100004678147195'
S'Vivek Chib'
tp1713
a(S'100003938989657'
S'Adrsh Wasnik'
tp1714
a(S'100003635066754'
S'Shri Kanha G Maharaj'
tp1715
a(S'100003958863700'
S'Vipin Dubey'
tp1716
a(S'709490021'
p1717
S'Shivnarayan Gour'
tp1718
a(S'100002722028787'
S'Md Zakir Hussain'
tp1719
a(S'100001698316672'
S'Pratap Parakh'
tp1720
a(S'100003125815886'
S'Sunil Agrawal'
tp1721
a(S'100000779967548'
S'Meenal Dudeja'
tp1722
a(S'100000522039444'
S'Neeraj Diwan'
tp1723
a(S'1341382147'
S'Jayasankar Babu'
tp1724
a(S'100000148003259'
S'Ssk Deepak'
tp1725
a(S'647690791'
S'Ashok Chakradhar'
tp1726
a(S'100002920490138'
S'Nishant Nirmala Sharma II'
tp1727
a(S'100001051806804'
S'Shailesh Sharma'
tp1728
a(S'100002507261412'
S'Siddharth Singh'
tp1729
a(S'100003564261995'
S'Manohar Puri'
tp1730
a(S'100001562996460'
S'Baban Prasad Mishra'
tp1731
a(S'100004382052122'
S'Ajay Sidar II'
tp1732
a(S'100000930206882'
S'Rajanikant Shrivastava'
tp1733
a(S'100003668699189'
S'Sourabh Chandrakar'
tp1734
a(S'100002451017342'
S'Cg Shivsena'
tp1735
a(S'1638983373'
S'Sharma Rakesh'
tp1736
a(S'100001366302702'
S'Gopal Ji Rai'
tp1737
a(S'100000483376228'
S'Kamlesh Painkra'
tp1738
a(S'100001711823486'
S'Indrajeet Mukherjee'
tp1739
a(S'100002039653742'
S'Navin Prakash'
tp1740
a(S'1511349066'
S'Ravindra Ahar'
tp1741
a(S'100002759414401'
S'\\u010charming P\\u0159in\\u010de Abhi'
tp1742
a(S'100000674054665'
S'Avinash Vijay Patel'
tp1743
a(S'100002569860254'
S'Iryan Bafna'
tp1744
a(S'100004526890262'
S'Prateek Singh'
tp1745
a(S'100004545934821'
S'Salim Ashrafi Bjp'
tp1746
a(S'100007093574280'
S'Nisar Ali'
tp1747
a(S'100002798912911'
S'Archltect Vivek Kumar'
tp1748
a(S'100003136427496'
S'Vicky Rajput'
tp1749
a(S'100002076525380'
S'Navin Lodha'
tp1750
a(S'100002247032854'
S'Goldy Kumar'
tp1751
a(S'100004072065187'
S'\\u0921\\u0949. \\u0939\\u0940\\u0930\\u093e\\u0932\\u093e\\u0932 \\u092a\\u094d\\u0930\\u091c\\u093e\\u092a\\u0924\\u093f'
tp1752
a(S'100002116514375'
S'Anandsingh Chowhan'
tp1753
a(S'100000576188837'
S'Vijay Vikram'
tp1754
a(S'100000907061525'
S'Taranand Viyogi'
tp1755
a(S'100003323876975'
S'Syed Farooq Ahmed'
tp1756
a(S'100001717239946'
S'Akash Bajaj'
tp1757
a(S'100000174530631'
p1758
S'Jeevesh Prabhakar'
tp1759
a(S'100003599249171'
S'Sukhnandan Singh Nandan'
tp1760
a(S'100003180254288'
S'Dev Mukhrjee'
tp1761
a(S'100003433376400'
S'Subodh Tiwari'
tp1762
a(S'100002447121900'
S'Sanjay Shrivastuva'
tp1763
a(S'612250703'
S'Rajesh Mangal'
tp1764
a(S'100000746990770'
S'Meenakshi Kumari'
tp1765
a(S'1775142107'
S'\\u0938\\u0941\\u0930\\u0947\\u0936 \\u091a\\u094c\\u0927\\u0930\\u0940'
tp1766
a(S'100001731066257'
S'Suneel Manav'
tp1767
a(S'100000533716011'
S'Nand Kishor Khatuwal'
tp1768
a(S'100001062013502'
S'Prabhanshu Singh'
tp1769
a(S'100004668453294'
S'\\u0915\\u0948\\u0932\\u093e\\u0936 \\u091a\\u0928\\u094d\\u0926\\u094d\\u0930 \\u0936\\u0930\\u094d\\u092e\\u093e'
tp1770
a(S'100001936752551'
S'Nandlal Shukla'
tp1771
a(S'100002278099267'
S'Aditya Agrawal'
tp1772
a(S'100000371574813'
S'Siddhartha Neer'
tp1773
a(S'100003720251758'
S'Palu Rajput'
tp1774
a(S'100001555550515'
S'Pradeep Mishra'
tp1775
a(S'100002919236590'
p1776
S'Manjeet Kaur'
tp1777
a(S'100001333272510'
S'\\u0938\\u0942\\u0930\\u091c \\u0930\\u093e\\u0920\\u0940'
tp1778
a(S'100000879521655'
S'Laxman Masturia'
tp1779
a(S'100001343127052'
S'Sanjeev Thakur'
tp1780
a(S'1293498632'
S'Yogendra Krishna'
tp1781
a(S'100005188724061'
S'Santosh Pandey'
tp1782
a(S'684823994'
S'Girish Billore'
tp1783
a(S'100002463510968'
S'Manvendra Singh'
tp1784
a(S'100001652833627'
S'Vikas Agrawal'
tp1785
a(S'100003374809924'
S'Narendra Dewangan'
tp1786
a(S'100002350137703'
S'Amar Tripathi'
tp1787
a(S'100006395469884'
S'Chandra Shekhar Gawai'
tp1788
a(S'1453846160'
S'Anil Analhatu'
tp1789
a(S'100005474610645'
S'Virendra Pandey'
tp1790
a(S'100002356226100'
S'Jagdish Patel'
tp1791
a(S'100005176652118'
S'Mehmood Niaz'
tp1792
a(S'100004334559183'
S'Surana Steel Centre'
tp1793
a(S'100001710813577'
S'Shailesh Mishra'
tp1794
a(S'100003735961965'
S'Newsthirtysix Dot In'
tp1795
a(S'100004245512479'
S'Ganesh Kr Ji'
tp1796
a(S'100002290887820'
S'Pramod Bramhbhatt'
tp1797
a(S'100000271158658'
S'Rakesh Sharad'
tp1798
a(S'1415253645'
S'Ruchir Garg'
tp1799
a(S'100004112952425'
S'Himanshu Shukla'
tp1800
a(S'566064611'
S'\\u0938\\u0942\\u0930\\u091c \\u092a\\u094d\\u0930\\u0915\\u093e\\u0936'
tp1801
a(S'100001762114612'
S'Purushottam Tiwari Pareek'
tp1802
a(S'100004000424115'
S'Anmol Mani'
tp1803
a(S'100002302145873'
S'Neelu Megh'
tp1804
a(S'100002456730587'
S'Saroja Manharan Rathore'
tp1805
a(S'100000682639918'
S'India Ebooks'
tp1806
a(S'100002071969750'
S'Govind Thakre'
tp1807
a(S'100002145828844'
S'Suresh Pandey'
tp1808
a(S'100002964634740'
S'Sanjay Singh Rathore'
tp1809
a(S'100001587394152'
S'Romy Singh'
tp1810
a(S'100003016228822'
S'Surguja Salestax BarAssociation'
tp1811
a(S'100000010934789'
S'Mangal Senacha'
tp1812
a(S'100001380615619'
S'Udaan Coachings'
tp1813
a(S'100005727608475'
S'Ashish Bhattacharya'
tp1814
a(S'1609385950'
S'Dabi Istv\\u00e1n'
tp1815
a(S'100001417240420'
p1816
S'Anurag Dixit'
tp1817
a(S'100000077402077'
S'Renuka Sharma'
tp1818
a(S'100001625229236'
S'Bharatiya Kala Prakashan Delhi'
tp1819
a(S'100003381347716'
S'Indra Raj Keshary'
tp1820
a(S'100003240790124'
S'Aawaaz India'
tp1821
a(S'1744303778'
S'Md Ali Chishty'
tp1822
a(S'100002463591535'
S'Manoj Agrawal'
tp1823
a(S'100003752295447'
S'Baba Jee'
tp1824
a(S'100002127731497'
S'Sandesh Soni'
tp1825
a(S'100001997110498'
S'Jitendrasingh Sodhi'
tp1826
a(S'100004247045158'
S'Gireesh Mishra'
tp1827
a(S'100003074442741'
S'Omsai Goel'
tp1828
a(S'100002650388293'
S'Girish Raj'
tp1829
a(S'100001739634226'
S'Yogesh Kumar Rajwade'
tp1830
a(S'100004248611551'
S'Mohsin Khan'
tp1831
a(S'100001573782994'
S'Deep Kumar'
tp1832
a(S'588279021'
S'Bharti Malhotra'
tp1833
a(S'100000551475460'
S'Yogesh Agrawal'
tp1834
a(S'100003563965575'
S'Rajeev Choubey'
tp1835
a(S'100000684673959'
S'Newsorg Newsnnews'
tp1836
a(S'1078900465'
S'Pankaj Varma'
tp1837
a(S'100004783774728'
S'\\u092e\\u0940\\u0921\\u093f\\u092f\\u093e \\u091a\\u094c\\u092a\\u093e\\u0932'
tp1838
a(S'1183621371'
S'Gangesh Kumar Dwivedi'
tp1839
a(S'100004329212554'
S'Btv Korba'
tp1840
a(S'100001899073442'
S'Jan Rapat'
tp1841
a(S'100005135353819'
S'Sakshar Bharat Dharsiwa'
tp1842
a(S'100002028350460'
S'Dhanush Tiwari'
tp1843
a(S'100000964517044'
S'Dilip Kumar'
tp1844
a(S'100004125450907'
S'Deepak Kumar Gupta'
tp1845
a(S'100000033837776'
S'Yadwendra Mishra'
tp1846
a(S'100002467604414'
S'Rajendra Verma'
tp1847
a(S'100001226688327'
p1848
S'Renu Yadav'
tp1849
a(S'100001970397254'
S'Madhukar Pandey Hindustani'
tp1850
a(S'100002359226672'
S'True Soldiernews'
tp1851
a(S'100000387639866'
S'Pandit Rajan Sharma'
tp1852
a(S'1681808373'
S'Kamal Shukla'
tp1853
a(S'100000480354646'
S'Arpit Anaam'
tp1854
a(S'709489575'
S'\\u0905\\u092e\\u093f \\u0924\\u0947\\u0937'
tp1855
a(S'100000818662143'
S'Anshuman Pathak'
tp1856
a(S'100002485228542'
S'Surendra Vikram'
tp1857
a(S'1535897826'
S'Rahul Singh Rathore'
tp1858
a(S'100001835374678'
S'C.m. Upadhyay'
tp1859
a(S'819692640'
S'Vijayshankar Chaturvedi'
tp1860
a(S'100000741913863'
S'Ajay Kumar'
tp1861
a(S'100003750081913'
S'Ashokthakur Thakur'
tp1862
a(S'780640156'
S"\\u0906\\u0936\\u0940\\u0937 \\u0915\\u0941\\u092e\\u093e\\u0930 '\\u0905\\u0902\\u0936\\u0941'"
tp1863
a(S'100001580072230'
S'Sonu Sharma'
tp1864
a(S'1753855119'
S'Dinesh Tripathi'
tp1865
a(S'100003703475236'
S'Ajay Thakur'
tp1866
a(S'100000922488266'
S'\\u0938\\u0941\\u0936\\u0940\\u0932 \\u092c\\u093e\\u0915\\u0932\\u0940\\u0935\\u093e\\u0932'
tp1867
a(S'100002570443992'
S'\\u0930\\u093e\\u0937\\u094d\\u091f\\u094d\\u0930\\u0940\\u092f\\u091c\\u0928\\u0938\\u094d\\u0935\\u093e\\u092e\\u0940 \\u0939\\u093f\\u0902\\u0926\\u0940 \\u0905\\u0916\\u092c\\u093e\\u0930'
tp1868
a(S'100000312477490'
S'Rajat Dubey'
tp1869
a(S'1522463917'
S'Harihar Jha'
tp1870
a(S'100001826488657'
S'Sukhnandan Banjare'
tp1871
a(S'1125322456'
S'Isht Deo Sankrityaayan'
tp1872
a(S'100003541673639'
S'Genesis Consultancy'
tp1873
a(S'100003055922791'
S'Rajani Rajak'
tp1874
a(S'100004099971593'
S'Lala Shriwas'
tp1875
a(S'100000581754993'
S'Tiwari Keshav'
tp1876
a(S'1634516462'
S'Pankaj Chaturvedi'
tp1877
a(S'100003657748133'
S'\\u092e\\u0928\\u0940\\u0937 \\u0936\\u0930\\u094d\\u092e\\u093e'
tp1878
a(S'100002144034662'
S'Pradeep Sahu'
tp1879
a(S'100001210518016'
S'Tanmay Kumar Dubey'
tp1880
a(S'100003978800053'
S'Nikhil Mishra'
tp1881
a(S'100004487432080'
S'Abhishek Sharma'
tp1882
a(S'100000125405778'
S'Naresh Soni'
tp1883
a(S'100000385246973'
S'Naveen Prakash Trivedi'
tp1884
a(S'100004501564371'
S'Shaikh Aspak'
tp1885
a(S'100004137974338'
S'Sameer Shrivastava'
tp1886
a(S'100000961291470'
S'Vijay Mishra'
tp1887
a(S'100003726223971'
S'Trilok Singh Gill'
tp1888
a(S'100001033867997'
S'Sudhir Okhade'
tp1889
a(S'100004471243038'
S'RK Mande Mande'
tp1890
a(S'100004070931820'
S'Vaibhav Prakashan'
tp1891
a(S'100000242389242'
S'Chhagan Mahawar'
tp1892
a(S'100000894907350'
S'Mona Arora'
tp1893
a(S'100000585837852'
S'Sandeep Dubey'
tp1894
a(S'1402887469'
S'Pushpa Tiwari'
tp1895
a(S'100001197625872'
S'Manish Thakur'
tp1896
a(S'1000202734'
S'Farooq Afridy'
tp1897
a(S'1063291874'
S'\\u0905\\u092d\\u093f\\u0928\\u0935 \\u0936\\u0941\\u0915\\u094d\\u0932'
tp1898
a(S'100003705391208'
S'Vishnu Upadhyay'
tp1899
a(S'100001067810120'
S'Kaushal Tiwari'
tp1900
a(S'100001271530964'
S'Raghvendra Awasthi'
tp1901
a(S'100001660896928'
S'Ravi Nishad'
tp1902
a(S'100004164754432'
S'Kamlesh Bhartiya'
tp1903
a(S'1471406059'
S'Shreesh K. Pathak'
tp1904
a(S'1145238350'
S'Rajendra Kumar Sahu'
tp1905
a(S'1064082103'
S'Ravi Kant'
tp1906
a(S'816134991'
S'\\u0917\\u0940\\u0924\\u093e \\u092a\\u0902\\u0921\\u093f\\u0924'
tp1907
a(S'100003043462931'
S'Yeshwanth Raj Parasmal'
tp1908
a(S'100004062381486'
S'Banwari Lal Agrawal'
tp1909
a(S'100003057768307'
S'Anand Kumar'
tp1910
a(S'100003607361720'
S'Aniket Kumar'
tp1911
a(S'100001570585689'
S'Parag Tailors Pandri'
tp1912
a(S'100000174185707'
S'Mamta Pathak'
tp1913
a(S'100003099999221'
S'Anurodh Sharma'
tp1914
a(S'100005872657611'
S'Jitendra Singh'
tp1915
a(S'1776977801'
S'Anwar Suhail'
tp1916
a(S'100004129170120'
S'Avanish Amitabh'
tp1917
a(S'100004134661188'
S'\\u0938\\u093f\\u0915\\u094d\\u0915\\u093f\\u092e \\u0935\\u093f\\u0936\\u094d\\u0935\\u0935\\u093f\\u0926\\u094d\\u092f\\u093e\\u0932\\u092f \\u0939\\u093f\\u0928\\u094d\\u0926\\u0940 \\u092a\\u094d\\u0930\\u0915\\u094b\\u0937\\u094d\\u0920'
tp1918
a(S'100001763277776'
S'Sunil Sen'
tp1919
a(S'100003972898504'
S'Sanjay Maithil'
tp1920
a(S'1484073286'
S'Madhava Sudha Sharma'
tp1921
a(S'580613666'
p1922
S'Alok Puranik'
tp1923
a(S'100004374785715'
S'Sanju Dwivedi'
tp1924
a(S'1479619881'
S'Ravi Saran'
tp1925
a(S'100000689088847'
S'Jitendra Pandey'
tp1926
a(S'100001109835931'
S'Lion Daljit Arora'
tp1927
a(S'100003835853645'
S'Champeshwar Goswami'
tp1928
a(S'100001287864213'
S'Yellowbhopal Bhopal'
tp1929
a(S'100002539197882'
S'Akhil Pandey'
tp1930
a(S'100002803391539'
S'Balakram Patel'
tp1931
a(S'100002741528248'
S'Anupaam Verma'
tp1932
a(S'100003226999869'
S'Bipul Bhakta'
tp1933
a(S'1135083303'
p1934
S'Shashwat Shekhar'
tp1935
a(S'100002982431906'
S'Changing Chhattisgarh'
tp1936
a(S'100002866540410'
S'Rajesh Jain Saraf'
tp1937
a(S'100002937578163'
S'Karan Singh Sisodiya'
tp1938
a(S'1480152884'
S'Rajesh Singh Sisodia'
tp1939
a(S'1515802781'
S'Amarendra Kumar'
tp1940
a(S'100002429981022'
S'\\u091c\\u0948\\u0928\\u0941\\u0932 \\u095e\\u093f\\u0930\\u0926\\u094b\\u0938\\u0940'
tp1941
a(S'1508911616'
S'Abhishek K. Arjav'
tp1942
a(S'100004106346427'
S'Gajendra Joshi C G'
tp1943
a(S'678065800'
S'Alka Lamba'
tp1944
a(S'100003191287493'
S'Saroj Rathore'
tp1945
a(S'100004131723521'
S'Brajesh Bichpuria'
tp1946
a(S'100002823658594'
S'Yugal Tiwari'
tp1947
a(S'100002381047273'
S'Ashish Jain'
tp1948
a(S'100002393217961'
S'Ansar Qumbri'
tp1949
a(S'100002386284705'
S'Agat Shukla'
tp1950
a(S'100000508698191'
S'Arun Dwivedi'
tp1951
a(S'100000599190472'
S'Thakur Ankit Singh'
tp1952
a(S'100003003832568'
S'Lokesh Yadav'
tp1953
a(S'100002911188621'
S'Janhit Korba'
tp1954
a(S'100001856162680'
S'Dinesh Sharma'
tp1955
a(S'100004060238983'
S'Mukesh Sharma'
tp1956
a(S'1785339822'
p1957
S'Sharad Dixit'
tp1958
a(S'100000594801507'
S'Amit Kumar Yadav'
tp1959
a(S'845585230'
S'Marian Young'
tp1960
a(S'100001443545653'
S'Ashok Chandraker'
tp1961
a(S'100002027086670'
S'Anjay Shukla'
tp1962
a(S'1350813301'
p1963
S'Ajeet Singh'
tp1964
a(S'100003368224649'
S'Bharat Kumar Bharateeya'
tp1965
a(S'100001042623730'
S'Chainsingh Shekhawat'
tp1966
a(S'100001222970514'
S'Nathmal Sharma'
tp1967
a(S'100003215477018'
S'Rajnish Patra'
tp1968
a(S'100003264136230'
S'\\u0930\\u093e\\u092e \\u092a\\u091f\\u0935\\u093e'
tp1969
a(S'1224393182'
S'Shilpa Sudhanshu'
tp1970
a(S'100001918782595'
S'Mani Shankar Verma'
tp1971
a(S'100001525076983'
S'Alok Kumar'
tp1972
a(S'100000268240134'
S'Prakash Sarode'
tp1973
a(S'100002990873926'
S'Arjun Das Vaswani'
tp1974
a(S'750149478'
S'Shahnawaz Siddiqui'
tp1975
a(S'100001498580178'
S'M Farid Sheikh'
tp1976
a(S'100001766978211'
S'Pandit N M Shrimali'
tp1977
a(S'1248210542'
S'DrYogendra Nath Sharma Arun'
tp1978
a(S'100000866709599'
S'Tanya Kapoor'
tp1979
a(S'100003673370644'
S'Vinita Panday'
tp1980
a(S'100000467716381'
S'Tejbhan Tej'
tp1981
a(S'100003282232937'
S'Shakeel Saajid'
tp1982
a(S'100000157378239'
S'Dshyam Kumar'
tp1983
a(S'100002583033046'
S'Ratnakar Alwa'
tp1984
a(S'100003507936004'
S'Omu Deewan'
tp1985
a(S'100000513254855'
S'Surendra Singh Bisht'
tp1986
a(S'100000894066961'
S'Malhotra Vicky'
tp1987
a(S'100002179630427'
S'Firoz Siddiqui'
tp1988
a(S'100002419425587'
S'Pawan Agrawal'
tp1989
a(S'100000447642352'
S'Pawan Vijay'
tp1990
a(S'100002574284629'
S'Kavita Mishra'
tp1991
a(S'100000954304793'
S'Shrinivas Rao'
tp1992
a(S'1405752887'
S'Om Arya'
tp1993
a(S'100000292097448'
S'Shiv Narayan Mundhra'
tp1994
a(S'100004950702078'
S'Nilofar Nilu'
tp1995
a(S'100001035391607'
S'Arun Sharma'
tp1996
a(S'1705702479'
S'Basant Shahjeet'
tp1997
a(S'100002989891512'
S'Prashant Singh'
tp1998
a(S'100000226713088'
p1999
S'Sc Mudgal'
tp2000
a(S'100003086587540'
S'Tinku Banchhor'
tp2001
a(S'100001387459447'
S'Wazeer Ahmad'
tp2002
a(S'100002703716191'
S'Ajay Kumar Khunte'
tp2003
a(S'100003679904468'
S'Vikas Agarwal'
tp2004
a(S'100001380600761'
S'Sanjay Aniya'
tp2005
a(S'100001645149948'
S'Jitu Patwari'
tp2006
a(S'100003312555218'
S'Thakur Sandeep Kumar Singh'
tp2007
a(S'100001777761866'
S'Triloki Raj'
tp2008
a(S'100003936542461'
S'Satya Sahu'
tp2009
a(S'1495658576'
S'Devendra Kumar Devesh'
tp2010
a(S'100001161660033'
S'Pappu Farishta'
tp2011
a(S'100000304443453'
S'Prashant Jaiswal'
tp2012
a(S'100000354706173'
S'Shri Dharam'
tp2013
a(S'100001455620285'
S'Nishant Upadhyay'
tp2014
a(S'100002933884314'
S'DrDurga Sharan Mishra'
tp2015
a(S'100001826426081'
S'Anup Ranjan Pandey'
tp2016
a(S'1430475079'
S'Samzana Aatreya'
tp2017
a(S'1518818250'
S'Manish Kumar Sarvaiya'
tp2018
a(S'100002050069369'
S'Tirupati Rao Patnaik'
tp2019
a(S'1245590944'
S'Rk Gandhi'
tp2020
a(S'100004511284658'
S'Mayank Nagdev'
tp2021
a(S'100000257729094'
S'Sandeep Sonboier'
tp2022
a(S'100005013668104'
S'Mukku Khan'
tp2023
a(S'100003184267241'
S'Ipta Bilaspur CG'
tp2024
a(S'100000899799610'
S'Harish Naval'
tp2025
a(S'100000267126693'
S'Sonam Rawat'
tp2026
a(S'1780716187'
S'Bablu Tiwari'
tp2027
a(S'1193125376'
S'Pankajnayan Pandey'
tp2028
a(S'100000468080796'
S'Anuj Ashwini'
tp2029
a(S'100000852766572'
S'Rakesh Agrawal'
tp2030
a(S'100003940216668'
S'Sunil Shyam'
tp2031
a(S'1487843623'
S'Shankar Chandraker'
tp2032
a(S'100001830275539'
S'Sangeet Choube'
tp2033
a(S'100003095903584'
S'Aniruddha Dubey'
tp2034
a(S'100000556842431'
S'Mugdha Joshi'
tp2035
a(S'100005061032361'
S'Upendra Tripathi'
tp2036
a(S'100003336785690'
S'Sunil Gupta'
tp2037
a(S'100001113541071'
S'Manish Mishra'
tp2038
a(S'100006483787136'
S'Satya Ranjan Gangeley'
tp2039
a(S'747708802'
S'Ashish Khandelwal'
tp2040
a(S'100001434627141'
S'Manoj Saini'
tp2041
a(S'100003578185076'
S'Nirmal Singh'
tp2042
a(S'100001138752936'
S'Kishan Kaljayee'
tp2043
a(S'100002605268062'
S'Chandra Prakash Saxena'
tp2044
a(S'100000643274643'
S'Ritesh Tiwari'
tp2045
a(S'100001647843054'
S'Santosh Arane'
tp2046
a(S'100003646976669'
S'Rauneet Jumnani'
tp2047
a(S'100000793960821'
S'Rakesh Gupta'
tp2048
a(S'100002908882641'
S'Naresh Kr Sharma'
tp2049
a(S'100001678236086'
S'Neelam Sona'
tp2050
a(S'100003388680290'
S'Mera Hindustan'
tp2051
a(S'100006457802126'
S'Jitendra Koshre'
tp2052
a(S'100000299046784'
S'Manoj Trivedi'
tp2053
a(S'100002476992518'
S'Alak Rai'
tp2054
a(S'1360444945'
S'Atul Chaturvedi'
tp2055
a(S'100000103354224'
S'Bharat Yogi Dharm Sena'
tp2056
a(S'100000842898582'
S'Prakash Raj Saraf'
tp2057
a(S'1561069232'
S'Rajeev Bhartiya'
tp2058
a(S'1022571019'
S'Anshuman Jha'
tp2059
a(S'100000770013546'
S'Sanjay Dubey'
tp2060
a(S'100000021225991'
S'Mahendra Sahu'
tp2061
a(S'1356812328'
p2062
S'Sanjay Tiwari'
tp2063
a(S'100002454737017'
S'Rais Khan'
tp2064
a(S'723867067'
S'Munindra Bhargava'
tp2065
a(S'1586085738'
S'\\u0909\\u0932\\u094d\\u091f\\u093e \\u0924\\u0940\\u0930'
tp2066
a(S'100000417184427'
S'Rti Ludhiana Sharma'
tp2067
a(S'1427242922'
S'Kailash Sharma'
tp2068
a(S'100003859336930'
S'Suyash Gram'
tp2069
a(S'1224558474'
S'Hemant Vaishnav'
tp2070
a(S'100002658138882'
S'Mohan Kuldeep'
tp2071
a(S'100002174630903'
S'Devesh Kumar'
tp2072
a(S'528846927'
p2073
S'Udan Tashtari'
tp2074
a(S'1844775451'
S'Tapesh Jain'
tp2075
a(S'100003186372444'
S'Manish Kumar Sony'
tp2076
a(S'100000117833150'
S'Dwivedi Sanjay'
tp2077
a(S'100001064004918'
S'Mahabir Raji'
tp2078
a(S'100000066162602'
S'Ankit Phuljhele'
tp2079
a(S'100004019118390'
S'Suraj Mahant'
tp2080
a(S'100001203287610'
S'Dinesh Mishra'
tp2081
a(S'1533683892'
p2082
S'Anil Pusadkar'
tp2083
a(S'100003034059182'
S'Prince Javed'
tp2084
a(S'1456125594'
p2085
S'Sanjay Narvekar'
tp2086
a(S'100001559180364'
S'Arvind Kashyap'
tp2087
a(S'100001272937467'
S'Avindhya Shankar Tiwari'
tp2088
a(S'100000011581662'
S'Anubhav Sharma'
tp2089
a(S'100002545818389'
S'Shine Holiday'
tp2090
a(S'100001431504012'
S'Shashwat Rastrabodh'
tp2091
a(S'100001694226581'
S'Prince Mittal'
tp2092
a(S'100003804098045'
S'True Bilaspur'
tp2093
a(S'100001837153383'
S'Bharat Bharati Samaj'
tp2094
a(S'100002692778584'
S'Sandeep Sahu'
tp2095
a(S'100004093453503'
S'Vidur Neeti'
tp2096
a(S'740540291'
S'Rakesh Dubey'
tp2097
a(S'708651369'
S'Shashi Abraham'
tp2098
a(S'100000344110511'
S'Mahendra Yadav'
tp2099
a(S'595413917'
S'Amit Kumar'
tp2100
a(S'1591482694'
S'Jovins P Liya Jovins'
tp2101
a(S'1818276247'
S'Sumit Yadav'
tp2102
a(S'100004547859529'
S'Ashok Kumar'
tp2103
a(S'100003308602759'
S'Kautsa Shri'
tp2104
a(S'100002491504067'
S'\\u0921\\u0949. \\u092a\\u094d\\u0930\\u0940\\u0924 \\u0905\\u0930\\u094b\\u095c\\u093e'
tp2105
a(S'100001968888109'
S'Ajay Garg'
tp2106
a(S'1081924801'
S'Ahfaz Rashid'
tp2107
a(S'1828188583'
S'Ankit Sharma'
tp2108
a(S'100002360859400'
S'Alankar Rastogi'
tp2109
a(S'1562465622'
S'Rishabha Deo Sharma'
tp2110
a(S'775272445'
S'Deo Prakash Choudhary'
tp2111
a(S'100003143589169'
S'Parag Kumar Dalal'
tp2112
a(S'100001602494888'
S'HimansHu Sahu'
tp2113
a(S'1471358625'
S'\\u0905\\u0936\\u094b\\u0915 \\u092e\\u093f\\u0936\\u094d\\u0930'
tp2114
a(S'100003123025929'
S'Raj Verma'
tp2115
a(S'100001969046755'
S'Vikash Rajesh Wadhwa'
tp2116
a(S'100000758311249'
S'Rani Vishal'
tp2117
a(S'100005045791428'
S'Iqbal Singh Oberoi'
tp2118
a(S'100002550041735'
S'Narendra Singh Thakur'
tp2119
a(S'100000851020803'
S'Pravakta Hindi Web'
tp2120
a(S'100000773132233'
S'Vivek Pathak'
tp2121
a(S'100000896162153'
S'Jay Rao'
tp2122
a(S'100004659640364'
S'Farooq Afridy'
tp2123
a(S'100004182064464'
S'Akash Kumar Gupta Vicky'
tp2124
a(S'100000948399913'
S'Manas Khatri Mastana'
tp2125
a(S'100004394105331'
S'Amit Jagat'
tp2126
a(S'1739974807'
S'Abhishek Sonu'
tp2127
a(S'1096371447'
S'Manisha Bhalla'
tp2128
a(S'100002535655673'
S'Sanjay Kumar Sahu'
tp2129
a(S'100004286880607'
S'Youngchhattisgarh Raipur'
tp2130
a(S'100002118621372'
S'Pramod Kumar'
tp2131
a(S'100001961354263'
S'Dainik Kushagrata'
tp2132
a(S'100002303929700'
S'Cheytnaditya Alok'
tp2133
a(S'1276190714'
S'Shailendra Pratap Singh'
tp2134
a(S'100002119895325'
S'Pdayal Shrivastava'
tp2135
a(S'100001688739677'
S'Pankaj Sharma'
tp2136
a(S'100004554122538'
S'Rajkumar Gwalani Prince'
tp2137
a(S'100001707036332'
S'Gaurav Tripathi'
tp2138
a(S'1791404083'
S'Sunil Kundetkar'
tp2139
a(S'100000874719686'
S'Shahnawaz Alam'
tp2140
a(S'100002076138176'
S'Paramjit Dutta'
tp2141
a(S'100003314104532'
S'Sanjay Mahanand'
tp2142
a(S'100000765221663'
S'Amit Chauhan'
tp2143
a(S'100002932526823'
S'Ramesh Pratap Singh'
tp2144
a(S'100001304197379'
S'Mita Dasroy'
tp2145
a(S'100003228370533'
S'Yuva Sandesh'
tp2146
a(S'100004685350086'
S'Shree Radha Krishn Mandir'
tp2147
a(S'100001482002998'
S'Devesh Tiwari Amora'
tp2148
a(S'100002354601355'
S'Sunil Kukreja'
tp2149
a(S'100005391846449'
S'Jasbir Singh'
tp2150
a(S'100000053601562'
S'Kalidas Das'
tp2151
a(S'685799052'
S'Manu Prakash Tyagi'
tp2152
a(S'100000933966493'
S'Gajendra Kumar Chandrakar'
tp2153
a(S'100002317642933'
S'Reshankraze Bafna'
tp2154
a(S'100002182522842'
S'Asgar Ali'
tp2155
a(S'100002438125159'
S'Prabhashankar Giri'
tp2156
a(S'100003071810787'
S'Pawan Keswani'
tp2157
a(S'100002440217913'
S'Rohit Pandey'
tp2158
a(S'100002512075276'
S'Rajiv Kumar Agrawal'
tp2159
a(S'100000978327054'
S'Devesh Panda'
tp2160
a(S'100003589612184'
S'\\u0924\\u0915\\u0928\\u0940\\u0915\\u0940 \\u0915\\u0930\\u094d\\u092e\\u091a\\u093e\\u0930\\u0940 \\u0938\\u0902\\u0938\\u094d\\u0925\\u093e'
tp2161
a(S'100004496824246'
S'Santosh Tripathi'
tp2162
a(S'100003707996605'
S'Naya Bharat Nirman'
tp2163
a(S'100001670417914'
S'Debra Roloff'
tp2164
a(S'100002028811847'
S'Kumar Yogesh Gupta'
tp2165
a(S'100002401158174'
S'Nimesh Awasthi'
tp2166
a(S'100001182940175'
S'Pramod Bajpai'
tp2167
a(S'686219342'
S'Jagdeep Singh Dangi'
tp2168
a(S'100001492886880'
S'Rishabh Sharma'
tp2169
a(S'100001591726726'
S'Asha Pandey Ojha Asha'
tp2170
a(S'100000914982932'
S'Md Khan'
tp2171
a(S'1428691120'
S'Rakesh Pandey'
tp2172
a(S'100001804947486'
S'Sanat Bais'
tp2173
a(S'100001513381485'
S'Sunil Kumar Sharma'
tp2174
a(S'1365524474'
S'Rupesh Yadav'
tp2175
a(S'100001713807889'
S'Bhagwant Anmol'
tp2176
a(S'100004418474470'
S'Aajtak Samachar Fast'
tp2177
a(S'100003150572868'
S'Uttam Kumar'
tp2178
a(S'100000646325092'
S'Swarup Bhattacharji'
tp2179
a(S'100002527109082'
S'Dignity Menswear'
tp2180
a(S'100003813673865'
S'Girja Shankar Gautam'
tp2181
a(S'798823117'
S'\\u0938\\u0902\\u091c\\u0940\\u0935 \\u0924\\u093f\\u0935\\u093e\\u0930\\u0940'
tp2182
a(S'1504676722'
S'Mansi Joshi'
tp2183
a(S'100001145536237'
S'Gaukaran Nishad'
tp2184
a(S'100001079571980'
S'Sudhir Saxena'
tp2185
a(S'100001724206658'
S'Ratnesh Kumar Maurya'
tp2186
a(S'100001831376526'
S'Khalid Zahid'
tp2187
a(S'1726570046'
S'Babit Sahu'
tp2188
a(S'100000677227529'
S'Anumod Rajvaidya'
tp2189
a(S'100003353274036'
S'Santosh Mishra'
tp2190
a(S'100002459562421'
S'Sunil Nagarkar'
tp2191
a(S'100003745819995'
S'Sunny Sahu'
tp2192
a(S'100000531180593'
S'Devraj Choudhari'
tp2193
a(S'100003768858204'
S'Nikhil Tiwari Pareek'
tp2194
a(S'100002335752076'
S'Jai Narain Budhwar'
tp2195
a(S'1827199398'
S'Rallapalli Murali'
tp2196
a(S'1845585965'
S'Rishi Kumar'
tp2197
a(S'100001424156009'
S'\\u0930\\u093e\\u091c\\u0947\\u0928\\u094d\\u0926\\u094d\\u0930 \\u0926\\u093e\\u0938'
tp2198
a(S'100001527250451'
S'Sneha SK'
tp2199
a(S'100000513729451'
S'Sushila Puri'
tp2200
a(S'100003207683656'
S'Meet Sarvaiya'
tp2201
a(S'1002292468'
S'Diwas Gaur'
tp2202
a(S'100003320000676'
S'Hemant Upasane'
tp2203
a(S'100003924877979'
S'Shagun Caterers'
tp2204
a(S'100000236420997'
S'Sanjiv Verma Salil'
tp2205
a(S'100004043897353'
S'Deodhar Mahant'
tp2206
a(S'100004665000249'
S'Pintu Tiwari'
tp2207
a(S'100002923197148'
S'Ajay Agrawal'
tp2208
a(S'1841782430'
S'Feroz Khan'
tp2209
a(S'100001716476706'
S'Vinay Hassani'
tp2210
a(S'1383523606'
p2211
S'Apoorva Bajaj'
tp2212
a(S'100002328536892'
S'Hemant Kasyap'
tp2213
a(S'100003357824260'
S'Vimal Vatika'
tp2214
a(S'100000768595850'
S'Nilotpal Kumar Singh'
tp2215
a(S'100000072612206'
S'Ashutosh Dubey'
tp2216
a(S'100006245520106'
S'Raju Yadav'
tp2217
a(S'100001877898209'
S'Rajesh Agrawal'
tp2218
a(S'100004701810726'
S'Arvind Pandey'
tp2219
a(S'100001896356777'
S'Kirti Shrivastava'
tp2220
a(S'100001204003958'
S'Ruchi Gontiya Pant'
tp2221
a(S'100003741617447'
S'Anil Sen'
tp2222
a(S'100002226992088'
S'Rampal Bhardwaj'
tp2223
a(S'100001196791360'
S'Mlm Sunil Chauhan'
tp2224
a(S'100001037626502'
S'Poonam Parinita'
tp2225
a(S'100002665072499'
S'Akash Ahuja'
tp2226
a(S'100000546722409'
p2227
S'Naveen Kumar'
tp2228
a(S'100000692342679'
S'Robi Suares'
tp2229
a(S'100006578676041'
S'Shyam Parashar'
tp2230
a(S'100001344067856'
S'Krishna Kant Chandra'
tp2231
a(S'100002255155130'
S'Sankalp Pravasi'
tp2232
a(S'563753866'
S'DrZakir Ali Rajnish'
tp2233
a(S'100003514547966'
S'Hemant Panigrahi'
tp2234
a(S'100003247572938'
S'Sandeep Kashyap'
tp2235
a(S'100004559463530'
S'Naresh Sahu'
tp2236
a(S'1467829233'
S'Hari Ram Meena'
tp2237
a(S'1837251084'
S'Rajesh Dhingra'
tp2238
a(S'100002497028641'
S'Sanjeev Vohra'
tp2239
a(S'100003044177747'
S'Tukendra Verma'
tp2240
a(S'100002785339372'
S'Subhash Tripathi'
tp2241
a(S'100002283206542'
S'Amit Shrivastava'
tp2242
a(S'100001045879350'
S'Vyomkesh Ashu Trivedi'
tp2243
a(S'100001758471852'
S'Arun Chabda'
tp2244
a(S'100002710872810'
S'Pariwahan Parikrama Bhilai'
tp2245
a(S'100002563655072'
S'\\u0915\\u092e\\u0932\\u0947\\u0936 \\u0915\\u0941\\u092e\\u093e\\u0930 \\u091f\\u093e\\u0923\\u094d\\u0921\\u0947\\u092f'
tp2246
a(S'100001942327769'
S'Idris Gandhi'
tp2247
a(S'100001494828020'
S'Arvind Gupta'
tp2248
a(S'100000399578049'
S'Fanindra Tiwari'
tp2249
a(S'100004101583120'
S'Shyam Kishore'
tp2250
a(S'1134609855'
S'Jitesh Nair'
tp2251
a(S'100001041669056'
S'Amit Tyagi'
tp2252
a(S'1229151104'
p2253
S'Faiz Khan'
tp2254
a(S'100002477727705'
S'Shashank Diwan Diwan'
tp2255
a(S'100000945534650'
S'Universal-poetry Poetry'
tp2256
a(S'100002825289029'
S'Ramesh Gandhi'
tp2257
a(S'100002643006150'
S'Mohan Pawar'
tp2258
a(S'100001973618384'
S'Girish Mukul'
tp2259
a(S'100003806897880'
S'Dau Kumar'
tp2260
a(S'673115922'
S'Shailesh Nitin Trivedi'
tp2261
a(S'100003109651841'
S'Pankaj Kankarwal'
tp2262
a(S'100004728277111'
S'Digambar Sahu'
tp2263
a(S'513405795'
S'Barbara Thyab Ali'
tp2264
a(S'700933729'
p2265
S'Ramesh Suthar'
tp2266
a(S'100001829560168'
S'Singhania Lalit Kumar'
tp2267
a(S'100003989366223'
S'Tapan Banerjee'
tp2268
a(S'100001993001117'
S'Shalu Chaddha'
tp2269
a(S'100000128212290'
S'Suresh Tiwari'
tp2270
a(S'100003915091411'
S'\\u091b\\u0924\\u094d\\u0924\\u0940\\u0938\\u0917\\u095d \\u0938\\u094d\\u0935\\u093e\\u092d\\u093f\\u092e\\u093e\\u0928 \\u092e\\u0902\\u091a'
tp2271
a(S'100002476177499'
S'Ashok Raicha'
tp2272
a(S'100002724680138'
S'Deepti Shyam'
tp2273
a(S'1514632710'
S'Ila Naren'
tp2274
a(S'100002852185751'
S'Royal Castle'
tp2275
a(S'100004768805290'
S'Shanti Ayyer'
tp2276
a(S'100002708392574'
S'Atul Raipur'
tp2277
a(S'100002461830865'
S'Manudev Bhardwaj'
tp2278
a(S'100002448703455'
S'Neha Raichand'
tp2279
a(S'1104228974'
S'Osama Mohiuddin Ahsan'
tp2280
a(S'1836551226'
S'Prem Kundra'
tp2281
a(S'100001031915824'
S'Malini Shreedharan'
tp2282
a(S'100001821758414'
S'Gaurav Sharma'
tp2283
a(S'100001194656127'
S'Lalitya Lalit'
tp2284
a(S'1106377080'
S'Kumud Adhikari'
tp2285
a(S'100002170520902'
S'Dikshant Diwan'
tp2286
a(S'100002014124709'
S'Rakesh Poptani'
tp2287
a(S'100006931712592'
S'Yashwant Yash'
tp2288
a(S'734550006'
p2289
S'Pushkar Pushp'
tp2290
a(S'100004355405921'
S'Harsh Tiwari'
tp2291
a(S'1467002239'
S'Uday Mukadam'
tp2292
a(S'100001743370630'
S'Rakesh Rohit'
tp2293
a(S'100001416998950'
S'Awadhesh Patel'
tp2294
a(S'100000932215298'
S'Kanchan Sharma'
tp2295
a(S'100003844840828'
S'Baikuntha Panigrahi'
tp2296
a(S'100002312666194'
S'Hard Luck'
tp2297
a(S'100002471427659'
S'Sandeep Kuletha'
tp2298
a(S'100002738330109'
S'Arun Kumar Shrivas'
tp2299
a(S'1693107256'
S'Sharad Kokas'
tp2300
a(S'100002394992875'
S'Rajesh Dua'
tp2301
a(S'100003375227796'
S'Ashok Pandey Anhad'
tp2302
a(S'100003173719580'
S'Rajesh Mishra'
tp2303
a(S'100001606903183'
S'Satish Badwaik'
tp2304
a(S'100001957767225'
S'Satnam Singh Panag'
tp2305
a(S'100003597399632'
S'Arun Gaur'
tp2306
a(S'100000251126430'
S'Ravindra Singh Bhatia'
tp2307
a(S'100001580334020'
S'Chiranjeevi Sahu'
tp2308
a(S'100004336772810'
S'Kiran Gadakh Patil'
tp2309
a(S'100003484531928'
S'Shubham Garg'
tp2310
a(S'100002737497560'
S'Samir Pandey'
tp2311
a(S'100004032309684'
S'Shashank Dev'
tp2312
a(S'100000107562888'
S'Ajay Saxena'
tp2313
a(S'100001270153270'
S'Irfan Qureshi'
tp2314
a(S'100000699026802'
S'Anand Priyadarshi'
tp2315
a(S'100001480639270'
S'Amarjeet Singh Chhabra'
tp2316
a(S'100002204641146'
S'Rasik Bihari Awadhiya'
tp2317
a(S'100004272373145'
S'Lekhak Mukesh Sharma'
tp2318
a(S'100002079787361'
S'Pt Chandan Vyas'
tp2319
a(S'100003119022105'
S'Sanjay Maharishi'
tp2320
a(S'100003890902863'
S'Satish Kumar Tripathi'
tp2321
a(S'100002330785475'
S'Rajendra Sen'
tp2322
a(S'1333142229'
S'Rekha Srivastava'
tp2323
a(S'100003724076811'
S'Amit Sharma'
tp2324
a(S'100002401105641'
S'Akhilesh Katiyar'
tp2325
a(S'100002416502906'
S'Deepak Vyas'
tp2326
a(S'1126930439'
S'Mayank Thakur'
tp2327
a(S'100003782691212'
S'IndianLook Raipur'
tp2328
a(S'100001028371040'
S'Vijay Bhattacharya'
tp2329
a(S'100003087397707'
S'Rjesh Mishra'
tp2330
a(S'100005101002352'
S'Jaya Singh'
tp2331
a(S'100000188101787'
S'Mediamorcha E-patrika'
tp2332
a(S'100005865334714'
S'Mohan Bhai Rathod'
tp2333
a(S'100001215372062'
p2334
S'Apni Maati'
tp2335
a(S'100002651151314'
S'\\u0936\\u093f\\u0915\\u094d\\u0937\\u093e \\u0938\\u0943\\u091c\\u0928'
tp2336
a(S'100003207369411'
S'Pathak Kewal Krishan Pathak'
tp2337
a(S'100000235749831'
S'Manohar Shukla'
tp2338
a(S'100001001784236'
S'Abhinav Thakur'
tp2339
a(S'100004616166166'
S'Yashu Bajaj'
tp2340
a(S'100002004301714'
S'Narendra Agrawal'
tp2341
a(S'100002633145990'
S'Sujan Kavi'
tp2342
a(S'100002095320478'
S'Raj Kumar Rakesh'
tp2343
a(S'1015579537'
p2344
S'Mahendra Gaur'
tp2345
a(S'1851886836'
S'Madhan Laal'
tp2346
a(S'100002617227729'
S'Harendra Kumar Sahu'
tp2347
a(S'100002317852334'
S'Praveen Pathak'
tp2348
a(S'100000540805037'
S'Ramesh Sachdeva'
tp2349
a(S'1503583002'
S'Akash Chandrawanshi'
tp2350
a(S'100001523809040'
S'Dharmendra Mandavi'
tp2351
a(S'100000229607229'
S'Ashok Agrawal'
tp2352
a(S'100001163761243'
S'Vivek Rai'
tp2353
a(S'100002676578387'
S'Narendra Kumar Agrawal'
tp2354
a(S'1031314436'
S'Manish Verma'
tp2355
a(S'100002530542272'
S'Onkar Dhangar'
tp2356
a(S'100003497745774'
S'Amit Mishra'
tp2357
a(S'100002106592849'
S'Chhattisgarhkidhadkan Anurag Mishra'
tp2358
a(S'100004091470716'
S'Aakansha Kapoor'
tp2359
a(S'100005165135788'
S'Manoj Agrawal'
tp2360
a(S'100001086558144'
S'Thakurram Yadav'
tp2361
a(S'100000587561042'
S'Ravikant Prasad'
tp2362
a(S'100003179928543'
S'Vikas Chandrakar'
tp2363
a(S'100004574580109'
S'Neel Yadav'
tp2364
a(S'100004407542889'
S'Nationalists Advocates'
tp2365
a(S'100001994502344'
S'Arvind Singh Journalist'
tp2366
a(S'100000299536310'
S'Farooq Afridy Afridy'
tp2367
a(S'100005365214443'
S'Mahesh Sharma'
tp2368
a(S'100001664436152'
S'Krishna Janaswamy'
tp2369
a(S'100001981978388'
S'Satish Shukla'
tp2370
a(S'100000858734127'
S'Devesh Trivedi'
tp2371
a(S'100003065162265'
S'Jaya Singh'
tp2372
a(S'100003668581670'
S'Vikrant Singh'
tp2373
a(S'100000337875980'
S'Gopal Rathi'
tp2374
a(S'100003812823568'
S'Raju Khan'
tp2375
a(S'100002843870731'
S'NewsExpress Chhattisgarh'
tp2376
a(S'100003034175511'
S'Ashok Bajaj'
tp2377
a(S'100000427499116'
S'\\u091c\\u094d\\u092f\\u094b\\u0924\\u093f\\u0937\\u093e\\u091a\\u093e\\u0930\\u094d\\u092f \\u092a\\u0902\\u0921\\u093f\\u0924 \\u0935\\u093f\\u0928\\u094b\\u0926 \\u091a\\u094c\\u092c\\u0947'
tp2378
a(S'100000704679240'
S'Ravindra Nathan Nair'
tp2379
a(S'100002941500250'
S'Amit Sahu'
tp2380
a(S'100002464476372'
S'Ashish Singh Chouhan'
tp2381
a(S'1054391959'
S'Rakesh Pandey'
tp2382
a(S'100002097692171'
S'Sandeep Kataria'
tp2383
a(S'100004487440114'
S'Sanjay Sondhuri'
tp2384
a(S'100000360741558'
S'Rajinder Swaroop'
tp2385
a(S'100002328966051'
S'Amarjeet Singh Sandhu Bunty'
tp2386
a(S'100004190550187'
S'Gandhi Swaraj Manch'
tp2387
asS'id'
p2388
S'100000101178257'
p2389
sS'name'
p2390
S'Girish Pankaj'
p2391
s.