(dp1
S'friends'
p2
(lp3
(S'100008295603423'
S'Michael Reed'
tp4
a(S'100008231165442'
S'Dinesh Chauhan'
tp5
a(S'100007408146272'
S'Sahil Thakur'
tp6
a(S'100003225199766'
S'Alex Borovoy'
tp7
a(S'100001371378648'
S'Adarsh Happy Das'
tp8
a(S'100003211294865'
S'\\u0e2a\\u0e38\\u0e18\\u0e32\\u0e17\\u0e34\\u0e1e\\u0e22\\u0e4c \\u0e18\\u0e23\\u0e23\\u0e21\\u0e2d\\u0e32\\u0e2a\\u0e32'
tp9
a(S'100004193768983'
S'Naina Khurana'
tp10
asS'id'
p11
S'100001371378648'
p12
sS'name'
p13
S'Adarsh Happy Das'
p14
s.