(dp1
S'friends'
p2
(lp3
(S'100006584618204'
S'Rd Suhane'
tp4
a(S'100004984475900'
S'Ujjwal Gupta'
tp5
a(S'100006595964376'
S'Madhur D Dreaming Prince'
tp6
a(S'100005545029732'
S'Vandana Suhane'
tp7
a(S'100006405723751'
S'Aditi Suhane'
tp8
a(S'100004483956906'
S'Madhu Gupta'
tp9
a(S'100004564683668'
S'Alka Suhane'
tp10
a(S'100002490430327'
S'Nidhi Suhane'
tp11
a(S'100002572332634'
S'Vivek Gupta'
tp12
a(S'631404061'
S'Abhay Suhane'
tp13
a(S'100003482280530'
S'Seema Gupta'
tp14
a(S'100003658927768'
S'Satyam Gupta'
tp15
a(S'100002531107492'
S'Deepali Gupta'
tp16
a(S'100004113038469'
S'Abhideep Suhane'
tp17
a(S'100002758300210'
S'Seema Nagaria Suhane'
tp18
a(S'100003350258560'
S'Utkarsh Barsaiyan'
tp19
a(S'100004411415860'
S'Vimal Gupta'
tp20
a(S'100003222253824'
S'Amit Gupta'
tp21
a(S'100005988971272'
S'Rishabh Kushwaha'
tp22
a(S'100000081163856'
S'Ranu Pipersania'
tp23
a(S'100002458584453'
S'Shubham Suhane'
tp24
a(S'100003998300512'
S'Harsh Barsaiyan'
tp25
a(S'100001317427625'
S'Shiksha Sijaria'
tp26
a(S'100001057127464'
S'Shivani Gupta'
tp27
a(S'100000170426182'
S'Shivam Gupta'
tp28
a(S'100005412427780'
S'Pratika Gupta'
tp29
a(S'100006576161490'
S'Madhur Suhane'
tp30
a(S'1838081537'
S'Shrikant Gupta'
tp31
a(S'100004048878220'
S'Aman Gupta'
tp32
a(S'100005548470118'
S'Utkarsh Gupta'
tp33
a(S'100002276167881'
S'Suja Gupta'
tp34
a(S'100000009009870'
S'Pradeep Gupta'
tp35
a(S'100006182222927'
S'Madhur Suhane'
tp36
a(S'100006656351714'
S'Shashi Gupta'
tp37
a(S'100002390721496'
S'Neha Shrikant Gupta'
tp38
a(S'1846622884'
S'Prateek Gupta'
tp39
a(S'100003383663210'
S'Puneet Gupta'
tp40
asS'id'
p41
S'100006332794877'
p42
sS'name'
p43
S'Om Gupta'
p44
s.