(dp1
S'friends'
p2
(lp3
(S'100003315416609'
S'Rao Qamar Suleman'
tp4
a(S'100006684552244'
p5
S'Sarawan Jawan Force'
tp6
a(S'100007668280901'
S'Khuzdar Na Tawar'
tp7
a(S'100002528266927'
S'Mir Anwar Sheikh'
tp8
a(S'100004932968358'
S'Uroosa Ali Khan'
tp9
a(S'100002002482085'
S'Zakria Shahwani'
tp10
a(S'100000024094699'
S'Ejaz Shaikh'
tp11
a(S'100004408231439'
p12
S'Zakar Baloch'
tp13
a(S'100002746662317'
S'Mahem Shekh'
tp14
a(S'100002013631746'
p15
S'Mir Akbar Khan Raisani'
tp16
a(S'100007594560168'
S'Sher E Mujahid'
tp17
a(S'100006827941803'
S'Shaista Faryal'
tp18
a(S'100005796155128'
p19
S'Naimtullah Soomro'
tp20
a(S'100000855893825'
p21
S'Fatima Shah'
tp22
a(S'100001831204184'
S'Parsa Khan'
tp23
a(S'100004214766742'
p24
S'Pakistan Zindabad'
tp25
a(S'100005483732829'
p26
S'Asif Nawaz Pakarmy'
tp27
a(S'100004752992402'
p28
S'Brave Gurg'
tp29
a(S'100005346930220'
p30
S'Rohail MenGal'
tp31
a(S'100006645487341'
p32
S'Haq NA Tawar'
tp33
a(S'100000184140477'
p34
S'Join Pakistan'
tp35
a(S'100005650808426'
S'Palwasha Kasi'
tp36
a(S'100006128111288'
S'Hira Kazmi'
tp37
a(S'100007482125055'
p38
S'\\u067e\\u0627\\u06a9\\u0633\\u062a\\u0627\\u0646 \\u06a9\\u06cc \\u0628\\u06cc\\u0679\\u06cc'
tp39
a(S'100001813880734'
p40
S'Ali Jan'
tp41
a(S'100002664664126'
p42
S"Rai'zaada Riz"
tp43
a(S'100003730505228'
S'Shama Mahmood'
tp44
a(S'100007490072708'
S'Abdul Samad Shahwani'
tp45
a(S'100006585544309'
p46
S'Kuhbaib Ahmed'
tp47
a(S'762204811'
p48
S'Pakistan Hamari Pehchan'
tp49
a(S'100003968713271'
p50
S'Ali Abbas'
tp51
a(S'100004864052200'
S'Meer Dilwash Baloch'
tp52
a(S'100002786562729'
p53
S'Muhammad Ahmad Sarwar'
tp54
a(S'100002399567939'
p55
S'Zakria Zaki M Hassni'
tp56
a(S'100001181217145'
S'Masood Hassan'
tp57
a(S'100001591394971'
p58
S'Maula Krm Kr'
tp59
a(S'100004905312693'
S'Mir Naseeb Qalandrani'
tp60
a(S'100003076773564'
S'Mir Fahad'
tp61
a(S'100006137290233'
S'Liaquat Sabir M Hassni'
tp62
a(S'100006731114192'
S'Zobair M Hassni'
tp63
a(S'100002030643769'
S'Bilal Shoukat'
tp64
a(S'100004904622780'
p65
S'HaQqana Tawaar'
tp66
a(S'100005033174207'
p67
S'Soomiya Aamir'
tp68
a(S'100007271172122'
S'Haq Ana Tawar'
tp69
a(S'100002603387689'
S'Muhammad Waqas Bin Abbas'
tp70
a(S'100003727237517'
p71
S'Khalid Naseer Gurginari'
tp72
a(S'100004210474754'
p73
S'Real Baloch'
tp74
a(S'100007467369769'
S'Nisar Shahwani'
tp75
a(S'100006385771388'
S'Shahzad Ahmed'
tp76
a(S'100003856503362'
p77
S'Komal Khan'
tp78
a(S'100004977184169'
p79
S'Rahie Sohail'
tp80
a(S'100003984558232'
p81
S'Apna Pakistan'
tp82
a(S'100005585772967'
S'Raisani Force'
tp83
a(S'100003496873172'
p84
S'Rao Kaleem Shb'
tp85
asS'id'
p86
S'100002858580179'
p87
sS'name'
p88
S'Shad Shahwani'
p89
s.