(dp1
S'friends'
p2
(lp3
(S'100000636292096'
S'Batul Calcuttawala'
tp4
a(S'1045708677'
p5
S'Madiha Ahmed'
tp6
a(S'1615018224'
p7
S'Mahasweta Bagchi'
tp8
a(S'1348165707'
S'Shrobona Basu'
tp9
a(S'1549763756'
S'Justin Philip'
tp10
a(S'1574251294'
S'Karishma Hafiz'
tp11
a(S'100001418619279'
S'Evlin Juhi Rosario'
tp12
a(S'100001092909124'
S'Fatema Kangroo'
tp13
a(S'1496206811'
S'Michelle Teresa Rodrigues'
tp14
a(S'100001577074306'
S'Sunee Keta Gomez'
tp15
a(S'100000566451550'
p16
S'Alia Radiance Khatoon'
tp17
a(S'627988122'
S'Arwa Master'
tp18
a(S'661097564'
S'Doyson Gomes'
tp19
a(S'100000479787411'
S'Isaac Sarkar'
tp20
a(S'1204367982'
S'Andrew Ryan'
tp21
a(S'100000014863381'
S'Benson Dsouza'
tp22
a(S'829129905'
S'Radhika Rathi'
tp23
a(S'1545729752'
p24
S'Siddhi Dalal'
tp25
a(S'1675315035'
p26
S'Shabnam Mridha'
tp27
a(S'1273168178'
p28
S'Tanaya Saigal'
tp29
a(S'100000039387520'
p30
S'Rusha Saha'
tp31
a(S'1273472572'
S'Doris Hou'
tp32
a(S'747389208'
p33
S'Aruna Gomes'
tp34
a(S'1346526416'
S'Poushali Sengupta'
tp35
a(S'100001350151672'
p36
S'Priya Bhattacharya'
tp37
a(S'714231461'
S'Nadia Gomes'
tp38
a(S'100000321925728'
p39
S'Saheli Biswas'
tp40
a(S'614820460'
p41
S'Jasveen Sahni'
tp42
a(S'100000377829584'
S'Maria Khanam'
tp43
a(S'528845404'
S'Flecka Leong'
tp44
a(S'627532708'
S'Tasneem Suratwala'
tp45
a(S'100000259511284'
S'Colette Dgama'
tp46
a(S'100001523729056'
S'Neha Makkar'
tp47
a(S'100001532923490'
S'Farha Sohail'
tp48
a(S'1533930895'
S'Shivangi Gupta'
tp49
a(S'100000885132410'
S'Diana Rodriques'
tp50
a(S'517648235'
S'Shayne David Hyrapiet'
tp51
a(S'100001006929253'
S'Graeme Guzman'
tp52
a(S'100001299663691'
S'Debottama Richi Mukherjee'
tp53
a(S'100000931763650'
p54
S'Akanksha Biswas'
tp55
a(S'100000309763275'
S'Priya Pillai'
tp56
a(S'100001236246154'
S'Christina Chiu'
tp57
a(S'100000718084471'
S'Dipika Gomes'
tp58
a(S'1847110598'
S'Sylvia Steven Mok'
tp59
a(S'100000922869222'
p60
S'Rittika Barua'
tp61
a(S'865190275'
S'Racheal Claudia Tseng'
tp62
a(S'100000996553420'
S'Tenzinc Palzom'
tp63
a(S'1365725033'
S'Anuradha Kumar'
tp64
a(S'1039756219'
S'Chelsea Bell'
tp65
a(S'1349362040'
p66
S'Marilyn Kwan Kharkongor'
tp67
a(S'100000576458785'
S'Priyanka Burman'
tp68
a(S'1142662378'
S'Classida Fernandes'
tp69
a(S'1288856071'
p70
S'Debasmita Saha'
tp71
a(S'100001159675223'
S'Sandeep Mundra'
tp72
a(S'1485086307'
p73
S'Aj Agnes'
tp74
a(S'100001531883514'
S'Cyndrilla Gomes'
tp75
a(S'100000600140715'
S'Nikita Ritesh Jaiswal'
tp76
a(S'670192795'
p77
S'Cheryl Ku'
tp78
a(S'100001498572678'
p79
S'Mehak Kapoor'
tp80
a(S'772412782'
S'Stephanie Sequeira'
tp81
a(S'100000103076417'
S'CA Loveleen Bhasin Kohli'
tp82
a(S'1209093189'
S'Pinky Liu'
tp83
a(S'100001016136311'
S'Martina Gomes'
tp84
a(S'1556875907'
S'Kunal Shah'
tp85
a(S'1526477931'
S'Bhavna Pandey'
tp86
a(S'1522580867'
S'Chinky Liu'
tp87
a(S'100000983501114'
S'Insha Ahmed'
tp88
a(S'100001169120016'
S'Deborah Sarkar'
tp89
a(S'100000374405353'
S'Carrie Eastwood'
tp90
a(S'1234864250'
S'Brinelle Govindraj'
tp91
a(S'100000523571294'
S'Shreya Bhaduri'
tp92
a(S'854575017'
S'Halton Romuald'
tp93
a(S'578611695'
S'Joel Braganza'
tp94
a(S'1400297928'
S'Ridhima Kumar'
tp95
a(S'100001297683947'
S"Santana D'Silva"
tp96
a(S'1037209385'
S'Zainab Raja'
tp97
a(S'100000108728939'
S'Rahul Sequeira'
tp98
a(S'100000571122179'
S'Naquiya Nadeem'
tp99
a(S'100000709187551'
S'Joyce Drozario'
tp100
a(S'100000113565976'
S'Judaline Torcato'
tp101
a(S'100000123306163'
S'Priyadarshini Chakrabarti Basu'
tp102
a(S'100001274078583'
p103
S'Namrata Thacker'
tp104
a(S'698166946'
p105
S'Raashi Agarwal'
tp106
a(S'1117053250'
S'Samantha Dgama'
tp107
a(S'1475118623'
S'Ambreen Mahmood'
tp108
a(S'792169733'
S'Jacinta Zechariah'
tp109
a(S'100001283377562'
S'Sunny Mullick'
tp110
a(S'1596454770'
S'Paulomi Mitra'
tp111
a(S'539544416'
S'Titash Sen'
tp112
a(S'100000971862531'
S'Anwesha Mukherjee'
tp113
a(S'1457211717'
S'Li Siat Nee'
tp114
a(S'100001650198390'
p115
S'Sabrina Peter'
tp116
a(S'1546706393'
S'Rebecca Mendonza'
tp117
a(S'760549190'
S'Rajpriya Das'
tp118
a(S'100000744905299'
S'Hussaina Ali'
tp119
a(S'1288368494'
S'Payal Baid'
tp120
a(S'1567901884'
S'Zainab Xenny'
tp121
a(S'1629852574'
S'Sar Harnis'
tp122
a(S'100001462294631'
S'Kavita Rao'
tp123
a(S'1389213472'
S'Alifiya Vadnagarwala'
tp124
asS'id'
p125
S'100000306537272'
p126
sS'name'
p127
S'Rachel Sarkar'
p128
s.