(dp1
S'friends'
p2
(lp3
(S'100001226113100'
S'Gunveen Singh'
tp4
a(S'691577369'
S'Nupur Mehra'
tp5
a(S'100000407372976'
S'Anuradha Bindal'
tp6
a(S'100002475937337'
S'Kirti Taneja'
tp7
a(S'100001723070714'
S'Geetu Asija'
tp8
a(S'100000963431746'
S'Priyanka Vashisht'
tp9
a(S'761873108'
S'Stephanie Taylor Marshall'
tp10
a(S'100003292633175'
S'Gaurav Gupta'
tp11
a(S'100008332653244'
S'Urmi Sharma'
tp12
a(S'100000531432499'
S'Priyanka Ashu Chhabra'
tp13
a(S'1833727054'
S'Shweta Mahajan'
tp14
a(S'100002301798370'
S'Shweta Gupta'
tp15
a(S'100002371758325'
S'Seema Mahajan'
tp16
a(S'100000332967312'
S'Pankaj Dua'
tp17
a(S'100001753209798'
S'Shelly Kukrety'
tp18
a(S'100000937021882'
S'Junaid Sidiq'
tp19
a(S'100007234563208'
S'Jasmine Virdi'
tp20
a(S'100000184884842'
S'Preeti Gupta'
tp21
a(S'100000916703909'
S'Harsha Menghani'
tp22
a(S'618721403'
S'Hirdyanshu Varma'
tp23
a(S'100000939102277'
S'Ansh Pal'
tp24
a(S'1384107383'
S'Saloni Vij'
tp25
a(S'1329713151'
S'Tulika Sharma'
tp26
a(S'100000653146761'
S'Kapil Rustagi'
tp27
a(S'1807045333'
S'Supreet Kaur'
tp28
a(S'1238782554'
S'Dinkar Bhalla'
tp29
a(S'100000496738854'
S'Rashmi Sood'
tp30
a(S'1805833646'
S'Jyoti Sharma'
tp31
a(S'1700354284'
S'Nitin Chahar'
tp32
a(S'100001909244298'
S'Raja Shekhar'
tp33
a(S'100001476542994'
S'Anshul Innocent'
tp34
a(S'100002469968151'
S'Harminder Singh'
tp35
a(S'100003290334440'
S'Madhuri Vallepu'
tp36
a(S'100000320904991'
S'Shashank Barapatre'
tp37
a(S'100000151112965'
S'Megha Gogia'
tp38
a(S'100000955091948'
S'Waseem Gul'
tp39
a(S'100001034888313'
S'Shweta Sahil Dandona'
tp40
a(S'100001348766264'
S'Shilpi Bhardwaj'
tp41
a(S'1473997546'
S'Sunil Pandey'
tp42
a(S'100007573562319'
S'Nirmala Gayal'
tp43
a(S'1061531673'
S'Suruchi Tanvi Banga'
tp44
a(S'100000833805666'
S'Rahul Mahajan'
tp45
a(S'100004508825811'
S'Shweta Chauhan'
tp46
a(S'704928655'
S'Anish Ravindran'
tp47
a(S'1791150781'
S'Rajnish Singh Chauhan'
tp48
a(S'585488565'
S'Meenakshi Rajput'
tp49
a(S'100000052041936'
S'Rakhi Chopra'
tp50
a(S'100000124784192'
S'Mehak Sharma'
tp51
a(S'100000119556185'
S'Varun Goel'
tp52
a(S'100003695491177'
S'Meenakshi Malik'
tp53
a(S'100001077695942'
S'Vikas Vicky'
tp54
a(S'100001348251637'
S'Ankur Bhardwaj'
tp55
a(S'100000598444273'
S'Samvedna Shukla'
tp56
a(S'100006920658343'
S'Dev Mahajan'
tp57
a(S'1156795026'
S'Rhituparna Chakraborty Dona'
tp58
a(S'100000172148083'
S'Puneet Chopra'
tp59
a(S'1239946089'
S'Rajul Sood'
tp60
a(S'100003805225393'
S'Aarti Suri'
tp61
a(S'100005110296860'
S'Dilliwale Njoy'
tp62
a(S'1044529263'
S'Sonia Banotra'
tp63
a(S'100000036610658'
S'Kaushal Thakur'
tp64
a(S'1554024357'
S'Jitender Pal Singh'
tp65
a(S'100001649143522'
S'Shivani Singh Pawar'
tp66
a(S'100000042694418'
S'Charu Mahajan'
tp67
a(S'681331384'
S'Neena Mullick Sen'
tp68
a(S'100008065870078'
S'Nishant Gupta'
tp69
a(S'100000212291226'
S'Priyanshu Jauhari'
tp70
a(S'1165609852'
S'Priyanka Kapur Sethi'
tp71
a(S'100002502383550'
S'Saurabh Rajput'
tp72
a(S'100002641170791'
S'Amit Garg'
tp73
a(S'100001494849114'
S'Vinay Kumar'
tp74
a(S'1267431586'
S'Sumit Choudhary'
tp75
a(S'100000532781599'
S'Vijay Sharma'
tp76
a(S'100000801466211'
S'Neelu Mahajan Vij'
tp77
a(S'692182418'
S'Prantik Ghosh'
tp78
a(S'100000432632602'
S'Devesh Sharma'
tp79
a(S'529855232'
S'Das Jui'
tp80
a(S'1484658854'
S'Arvind Chopra'
tp81
asS'id'
p82
S'100003761705704'
p83
sS'name'
p84
S'Mohita Mahajan'
p85
s.