(dp1
S'friends'
p2
(lp3
(S'100003332317570'
S'Sami Awais'
tp4
a(S'100002262745039'
S'Lena Zarin'
tp5
a(S'100005507283763'
S'Bilal Khan'
tp6
a(S'100005387343973'
S'Zakia Mirza'
tp7
a(S'100005165204431'
S'Dokhtarak Watan'
tp8
a(S'100005057863178'
S'Naveed Momand'
tp9
a(S'100005155470739'
S'Saire Oliveros'
tp10
a(S'100005117821240'
S'Dedy AlwaysLove Putrii Slamanya'
tp11
a(S'100005031191786'
S'Taufiq Chiet Aneuk Aceh II'
tp12
a(S'100003793670929'
S'\\u0641\\u0631\\u064a\\u0645\\u0627 \\u0632\\u064a\\u0646\\u062a'
tp13
a(S'100004185133659'
S'Gran Khilji'
tp14
a(S'100004160437211'
S'\\u0628\\u0647\\u0634\\u062a\\u0647 \\u062a\\u0646\\u0647\\u0627'
tp15
a(S'100003727742987'
S'Behsood Qahraman'
tp16
a(S'100002931139563'
S'Ahmad Fawad'
tp17
a(S'100005273862313'
S'Sahil Waziri'
tp18
a(S'100003677450480'
S'Prince Naveed Ul Hassan'
tp19
a(S'100003668041938'
S'Ahmad Farhad Abaseen'
tp20
a(S'100005074389230'
S'Afghan Live Cricket'
tp21
a(S'100003269450603'
S'Hameed Afghan'
tp22
a(S'100002943146151'
S'Anwar Afghani'
tp23
a(S'100001435939067'
S'Wis Tab'
tp24
a(S'100004450421438'
S'Gcc Udara'
tp25
a(S'100005086092812'
S"Ttur Dex'ss Creatyas"
tp26
a(S'100004086198058'
S'Baran Aria'
tp27
a(S'100003163722679'
S'Spogmy Tanha'
tp28
a(S'100002186710861'
S'Mozhda Jamalzada'
tp29
a(S'100004351780069'
S'Selab Shinwari Shinwari'
tp30
a(S'100004746403591'
S'Ahmed Sheer'
tp31
a(S'100002085311776'
S'Mena Mangal'
tp32
a(S'100003153617803'
S'Akbar Haqmal'
tp33
a(S'100004444296340'
S'Waliullah Yaar'
tp34
a(S'100004197248295'
S'\\u0631\\u0627\\u0632 \\u0647\\u0627\\u06cc \\u067e\\u0646\\u0647\\u0627\\u0646'
tp35
a(S'100005121787527'
S'Polad Walizada'
tp36
a(S'100003557372552'
S'Sikander Zahid'
tp37
asS'id'
p38
S'100005057881990'
p39
sS'name'
p40
S'Naseem Sahar'
p41
s.