(dp1
S'friends'
p2
(lp3
(S'100007524763014'
S'SD L Ctg'
tp4
a(S'100005018402865'
S'\\u062a\\u0648\\u062a\\u0647 \\u0627\\u0644\\u0628\\u0631\\u0634\\u0644\\u0648\\u0646\\u064a\\u0647 \\u0627\\u0644\\u0628\\u0631\\u0634\\u0644\\u0648\\u0646\\u064a\\u0647'
tp5
asS'id'
p6
S'100007524763014'
p7
sS'name'
p8
S'SD L Ctg'
p9
s.