(dp1
S'friends'
p2
(lp3
(S'100003806226928'
S'Hameed Wardak'
tp4
a(S'100003201056082'
S'Hakimzay Wardak'
tp5
a(S'100004008862663'
S'Esmat Morady'
tp6
a(S'100000019378253'
p7
S'\\u0633\\u064a\\u062f \\u0646\\u0638\\u064a\\u0645 \\u0633\\u064a\\u062f\\u064a'
tp8
a(S'100008184151588'
S'\\u062a\\u0627\\u0632\\u0647 \\u062e\\u0628\\u0631\\u0648\\u0646\\u0647 \\u0627\\u0648 \\u0645\\u0639\\u0644\\u0648\\u0645\\u0627\\u062a'
tp9
a(S'100002397600990'
S'Rahmatullah Jaheer'
tp10
a(S'100003315206001'
S'Ramin Ghafari'
tp11
a(S'100005596771838'
S'\\u0627\\u0644\\u062d\\u0627\\u062c \\u0639\\u0628\\u062f\\u0627\\u0644\\u062c\\u0628\\u0627\\u0631 \\u0642\\u0647\\u0631\\u0645\\u0627\\u0646'
tp12
a(S'100001409558124'
S'Nasrat Rahimi'
tp13
a(S'100004657476156'
S'Zabihullah Habibi'
tp14
a(S'100004925651116'
S'\\u0635\\u0645\\u064a\\u0645 \\u0648\\u0631\\u062f\\u0643'
tp15
a(S'513374602'
S'\\u0645\\u062d\\u0645\\u062f\\u0627\\u0644\\u0644\\u0647 \\u06a9\\u0645\\u0627\\u0644'
tp16
a(S'100005501766383'
S'Eamal Ahmadi'
tp17
a(S'100003855722905'
S'Abdull Satar Saadat'
tp18
a(S'100004289046038'
S'Maryam Sharify'
tp19
a(S'100004640080258'
p20
S'Noorahman Noor'
tp21
a(S'100007380010180'
S'Brishna Ameel'
tp22
a(S'100001930990664'
S'Agha Jan Ahmadi'
tp23
a(S'100005889510057'
S'Zabi Hallah Waziri'
tp24
a(S'100001739471524'
S'Qaribu Rahman Rahmani'
tp25
a(S'100001813430007'
p26
S'Shahidullah Ghazawi Wardak'
tp27
a(S'100002229381487'
p28
S'Hamid Wardak'
tp29
a(S'100006965257042'
S'Mohammad Nasim Abed'
tp30
a(S'100003520451482'
S'Hezb Shahidzoi'
tp31
a(S'100000990506219'
S'Ahmad Wafa'
tp32
a(S'100002314366810'
S'Yunus Moneeb'
tp33
a(S'100004506486333'
p34
S'Khalid Arian'
tp35
a(S'100001884983486'
p36
S'Fazalhaq Haidari'
tp37
a(S'1349401365'
S'Jelani Zwak'
tp38
a(S'1366681298'
S'Hematullah Aminzay'
tp39
a(S'579997822'
S'Qudratullah Andar Sultani'
tp40
a(S'100002686130529'
p41
S'Fahim Nikzad'
tp42
a(S'100001465998345'
S'Ismatullah Mayar'
tp43
a(S'100000977870532'
S'Noorwalli Khpalwak'
tp44
a(S'100001446504548'
S'Adil Azizi'
tp45
a(S'100000468807323'
p46
S'Jamshed Habibi'
tp47
a(S'100004714291389'
S'Zabih Mahmoo\\u0256i'
tp48
a(S'100000613646461'
S'Ashraf Wahdat'
tp49
a(S'100002109538866'
p50
S'Eng Shakib Wardak'
tp51
a(S'100001151883899'
S'Jebran Fazli'
tp52
a(S'100004449460220'
S'Ahmad Zia Noori'
tp53
a(S'100000538759876'
S'Kalemzai Wardak'
tp54
a(S'100002085311776'
S'Mena Mangal'
tp55
a(S'100003661827836'
S'Rasooly Wardak'
tp56
a(S'100004731938090'
S'Amanullah Allmiwardak'
tp57
a(S'100003622895129'
p58
S'Ehsanullah Qazizada'
tp59
a(S'100004606623811'
S'Attaullah Wardak'
tp60
a(S'100001802173381'
S'Nahida Nazari Tokhy'
tp61
a(S'100004077125540'
S'Esmatullah Habibi'
tp62
a(S'100001042693987'
S'\\u062e\\u0648\\u0634\\u0627\\u0644 \\u062e\\u0644\\u064a\\u0644'
tp63
a(S'100002770186971'
p64
S'Zahor Kamal'
tp65
a(S'100002088923088'
S'Zia Bumia'
tp66
a(S'100005956713339'
S'Abdullah Tawabzay'
tp67
a(S'1339692827'
p68
S'Abdull Mobin Rasuly'
tp69
a(S'100006914854191'
S'\\u0622\\u0631\\u0632\\u0648 \\u0646\\u0648\\u0631\\u064a'
tp70
a(S'100000528494015'
S'Zabihullah Wardak'
tp71
a(S'100002093786195'
S'Hesabullah Nasary'
tp72
a(S'100007940804407'
S'Naveed Hassan'
tp73
a(S'100002103877190'
S'Eng Rishad Popal'
tp74
a(S'100001889955456'
S'Wahidullah Oria Khil'
tp75
a(S'100004925169023'
S'Hamayoon Stana'
tp76
a(S'100001692930550'
S'Hashmat Stanikzai'
tp77
a(S'100000192296531'
S'Hedayatullah Noori'
tp78
a(S'100004139133790'
S'Zia Ahmadi Wardak'
tp79
a(S'100002340996082'
S'Waheed Atif'
tp80
a(S'100003904297958'
p81
S'\\u062e\\u0627\\u0644\\u062f\\u0647 \\u067e\\u0648\\u067e\\u0644\\u0632\\u06cc'
tp82
a(S'783976612'
S'Gul Agha Ahmadi'
tp83
a(S'100004425005521'
p84
S'Ahmadshah Wardak'
tp85
a(S'100000017098007'
S'Zaher Akbari Wardak'
tp86
a(S'100005133633939'
S'Mustfa Muhammadi'
tp87
a(S'100000745006532'
S'Zmaryalai Abasin'
tp88
a(S'100002692402722'
S'Ustad Assadullah Rasooly Wardak'
tp89
a(S'100000459281813'
S'Habib Weqar'
tp90
a(S'100003248427472'
S'He Zbullah Atal'
tp91
a(S'100004875370066'
S'Elham Jamalzai'
tp92
a(S'1277439985'
S'Khatera Asahaqzai'
tp93
a(S'100002083704221'
S'Ezatullah Nasary'
tp94
a(S'100002401622351'
p95
S'Zohoor Fazli'
tp96
a(S'100007318059136'
S'\\u0645\\u0644\\u06cc \\u067e\\u0627\\u0631\\u0644\\u0645\\u0627\\u0646\\u06cc \\u06af\\u0631\\u0648\\u067e \\u0645\\u0644\\u06cc'
tp97
a(S'687778147'
S'NA SA'
tp98
a(S'100000552321470'
S'Omid Arya'
tp99
a(S'100000734121591'
p100
S'\\u0627\\u06cc\\u0645\\u0644 \\u0685\\u0693\\u0648\\u0627\\u0644'
tp101
a(S'100003278344755'
p102
S'Nematullah Mahmoodi'
tp103
a(S'100004212512594'
p104
S'Zia Sabawoon'
tp105
a(S'100008379664850'
S'Shazia Hasan'
tp106
a(S'100005418721234'
S'Nesarahmad Ahmadi'
tp107
a(S'100005825220708'
S'Suliman Dehqan'
tp108
a(S'100003082157395'
p109
S'Fazalkhalid Noori'
tp110
a(S'100003334427949'
S'Mohammad Taib'
tp111
a(S'100001597593355'
S'Sefatullah Nasary Wardak'
tp112
a(S'1825102771'
p113
S'Abasin Barial'
tp114
a(S'100005830870100'
S'Meena Sabira'
tp115
a(S'100000814396212'
S'Mohammad Najibullah'
tp116
a(S'100006695409475'
S'Armay Armay'
tp117
a(S'1131913179'
S'Kabir Haqmal'
tp118
a(S'758154023'
S'Sayed Ihsan Taheri'
tp119
a(S'100004407787831'
S'Hikmatullah Haqmal'
tp120
a(S'1209195011'
S'Matiullah Sahak'
tp121
a(S'1785717944'
S'Omar Wardak'
tp122
a(S'100006387663966'
S'Haseebullah Kalemzai'
tp123
asS'id'
p124
S'100001214166608'
p125
sS'name'
p126
S'Khaled Ahmade'
p127
s.