(dp1
S'name'
p2
S'\\u00c9m\\u00d8ish Aqeel'
p3
sS'current_class'
p4
S'united arab emirates'
p5
sS'home_class'
p6
Vdubai - united arab emirates
p7
sS'home_text'
p8
VDubai, United Arab Emirates\u000aHometown
p9
sS'current_link'
p10
Vhttps://www.facebook.com/l.php?u=https%3A%2F%2Fwww.bing.com%2Fmaps%2Fdefault.aspx%3Fv%3D2%26pc%3DFACEBK%26mid%3D8100%26where1%3D31.549700669186%252C%2B74.343109130859%26name%3DLahore%252C%2BPakistan%26mkt%3Den-IN&h=3AQF2uSAv&s=1
p11
sS'home_link'
p12
Vhttps://www.facebook.com/l.php?u=https%3A%2F%2Fwww.bing.com%2Fmaps%2Fdefault.aspx%3Fv%3D2%26pc%3DFACEBK%26mid%3D8100%26where1%3D25.252200685563%252C%2B55.279083251953%26name%3DDubai%252C%2BUnited%2BArab%2BEmirates%26mkt%3Den-IN&h=FAQGWoVdB&s=1
p13
sS'current_text'
p14
VLahore, Pakistan\u000aCurrent City
p15
sS'friends'
p16
(lp17
(S'100004308127041'
S'Munir Judge'
tp18
a(S'100008192043106'
S'Sameer Khan'
tp19
a(S'100006742843720'
S'Shahid Ali'
tp20
a(S'100003970380596'
S'Haris Khan'
tp21
a(S'100001550443567'
S'\\u00c9m\\u00d8ish Aqeel'
tp22
a(S'100006823662151'
S'Muhammad Javed'
tp23
a(S'100004717595468'
S'Qasim Ali'
tp24
a(S'100005028241326'
S'Arif Ansari'
tp25
a(S'100006037575479'
S'Sonuking Sonu'
tp26
asS'id'
p27
S'100001550443567'
p28
s.