(dp1
S'friends'
p2
(lp3
(S'100000531519027'
S'Savita Nayak Thuwal'
tp4
a(S'100003487106204'
S'Ravi Thapa'
tp5
a(S'100003742911865'
S'Ved Parkash'
tp6
a(S'100002453603311'
S'Madan Jha'
tp7
a(S'100002017683508'
p8
S'Sunil Sharma'
tp9
a(S'100002557007524'
S'Binod Kumar'
tp10
a(S'100003402729483'
S'Maya Prakash Maurya'
tp11
a(S'100001197026971'
S'Ashok Jha'
tp12
a(S'100001594531521'
S'Manoj Aswal'
tp13
a(S'100006332923521'
S'Raj Mishra'
tp14
a(S'100000677462727'
S'Yogesh Verma'
tp15
a(S'100003934362515'
S'Tej Prakash Thapliyal'
tp16
a(S'100001964953651'
S'Sikandar Azam'
tp17
a(S'100001799857084'
S'Rajiv Puri'
tp18
a(S'579739742'
S'Radha Nair'
tp19
a(S'100002760833999'
S'Gautam Kumar'
tp20
a(S'100002784650074'
S'Aarti Rawat'
tp21
a(S'100001263975957'
S'Anita Rawat'
tp22
a(S'100002438997651'
S'Meena Kumari'
tp23
asS'id'
p24
S'100003838094084'
p25
sS'name'
p26
S'Suraj Kumar'
p27
s.