(dp1
S'friends'
p2
(lp3
(S'100005006951624'
S'Sugatha Balachandran'
tp4
a(S'100001511641346'
S'Jagan Sai'
tp5
a(S'100005668055407'
S'Monish Thekkeveettil'
tp6
a(S'100007061349942'
S'Athira Sivadas'
tp7
a(S'100003870090870'
S'Dhanush Mohanan'
tp8
a(S'100001346214884'
S'Anoop Bk'
tp9
a(S'100007008093541'
S'Vigith V Nair'
tp10
a(S'100007141298800'
S'Manikandan V Nair'
tp11
a(S'100005097512279'
S'Ragi Raj'
tp12
a(S'739527704'
S'Nikhil Nair'
tp13
a(S'100007942570084'
S'Anupama Sree'
tp14
a(S'100003854251146'
S'Vijith Vijayan'
tp15
a(S'100004195291777'
S'Mybestu Thayal'
tp16
a(S'579739742'
S'Radha Nair'
tp17
a(S'100003019834621'
S'Bharath Mohan'
tp18
a(S'100004364499510'
S'Vinatha Baiju S'
tp19
a(S'100004090750098'
S'Nisha Rajan'
tp20
a(S'100005482928489'
S'Suhail D Arifin'
tp21
a(S'100002928800157'
S'Nithin Rokz'
tp22
a(S'100003720858156'
S'Navacha Club'
tp23
a(S'100003115611433'
S'Syam Kumar SV'
tp24
a(S'100006039968711'
S'Radhesh Raveendran'
tp25
a(S'100001418644487'
S'Aneesh Sudhakaran'
tp26
a(S'100005196198448'
S'Sheetal Aath'
tp27
a(S'100006525697961'
S'Jalaja Devi'
tp28
a(S'100005587445666'
S'Rajesh Thaliyal'
tp29
a(S'100003759874260'
S'Sindhu Reghu'
tp30
a(S'100005066078240'
S'Anju Uma'
tp31
a(S'100003720069074'
S'Anjana Anju'
tp32
a(S'100002479547798'
S'Vigith Rockstr'
tp33
a(S'100003552416693'
S'Aiswarya Satheesh'
tp34
a(S'100003546464604'
S'Deepthi Mohanachandran'
tp35
a(S'1058333984'
S'Rajesh Ambika Sadasivan Nair'
tp36
a(S'100002656861815'
S'Vichu Nair'
tp37
a(S'100005584629483'
S'Saurav Frkz Tvm'
tp38
a(S'100001211547839'
S'Pradeep Krishnan'
tp39
a(S'100003942781522'
S'Shammas Sammu'
tp40
a(S'1418211561'
S'Rrk Nair'
tp41
a(S'1782141687'
S'Sajith Madhu'
tp42
a(S'1107310627'
S'Viji Vijayakumar'
tp43
a(S'100006978101048'
S'Kuttiyil Nizar'
tp44
a(S'100000104748250'
S'Sreejith Vijayakumar V'
tp45
a(S'1279206037'
S'Chitra V Nair'
tp46
a(S'1713961370'
S'Baiju Damodaran R'
tp47
asS'id'
p48
S'100004012712549'
p49
sS'name'
p50
S'Jalaja Devi T'
p51
s.