(dp1
S'name'
p2
S'Akshay Thomas'
p3
sS'current_class'
p4
S'india'
p5
sS'home_class'
p6
Vkottayam, kerala, india
p7
sS'home_text'
p8
VKottayam\u000aHometown
p9
sS'current_link'
p10
Vhttps://www.facebook.com/l.php?u=https%3A%2F%2Fwww.bing.com%2Fmaps%2Fdefault.aspx%3Fv%3D2%26pc%3DFACEBK%26mid%3D8100%26where1%3D9.5833305526979%252C%2B76.515655517578%26name%3DKottayam%26mkt%3Den-IN&h=gAQETCLIc&s=1
p11
sS'home_link'
p12
Vhttps://www.facebook.com/l.php?u=https%3A%2F%2Fwww.bing.com%2Fmaps%2Fdefault.aspx%3Fv%3D2%26pc%3DFACEBK%26mid%3D8100%26where1%3D9.5833305526979%252C%2B76.515655517578%26name%3DKottayam%26mkt%3Den-IN&h=5AQHpIP7t&s=1
p13
sS'current_text'
p14
VKottayam\u000aCurrent City
p15
sS'friends'
p16
(lp17
(S'100001235872266'
S'Gokul R. Goku'
tp18
a(S'100001201398851'
S'Cyrus Reginald'
tp19
a(S'100006677890004'
S'Sai Sankar'
tp20
a(S'100003625499078'
S'Dias Antony Thakidiyel'
tp21
a(S'100003642186805'
S'Paul Varghese'
tp22
a(S'1147314847'
S'Sankeeth Sunny'
tp23
a(S'100002472332968'
S'Shwetha Prasad'
tp24
a(S'100006027764113'
S'Shinu Varghese'
tp25
a(S'100004095823086'
S'Jerin K Chacko'
tp26
a(S'100001752853791'
S'Kirstie Thomas'
tp27
a(S'100003814244629'
S'Bincy Devassia'
tp28
a(S'100001299651246'
S'Amal Francis'
tp29
a(S'100003393877958'
S'Stephin Jacob Kurian'
tp30
a(S'100000205783670'
S'Jubil Thomas'
tp31
a(S'100001915598228'
S'Kevin Varghese'
tp32
a(S'100000593476433'
S'Nevil Jacob'
tp33
a(S'100004066546556'
S'Vishnu TR'
tp34
a(S'100002607707661'
S'Abhijith Ks'
tp35
a(S'100004217553770'
S'Nimmy Kurian'
tp36
a(S'100001842068374'
S'Anand Philipson'
tp37
a(S'100005539722071'
S'Neha Saju'
tp38
a(S'1514442149'
S'Aayush Baid'
tp39
a(S'100003980565724'
S'Reshma Ann'
tp40
a(S'100004126814541'
S'Andrea Rebecca Jacob'
tp41
a(S'1456143404'
S'Alicia Anna Kuriakose'
tp42
a(S'100006928652230'
S'Soumya Ranjan Das'
tp43
a(S'100002871022871'
S'Bibin Vinod Varughese'
tp44
a(S'100003652973177'
S'Aravind Thampan'
tp45
a(S'100000677257699'
S'Kevin Mathews Kurian'
tp46
a(S'100000602169185'
S"Stephen's Delhi"
tp47
a(S'1163963453'
S'Alen Vadakkenadayil'
tp48
a(S'100002309782733'
S'Benjamyn Mathai'
tp49
a(S'100002949676917'
S'Githu Prasad'
tp50
a(S'100001913286351'
S'Jijo Marangattel George'
tp51
a(S'100000246384525'
S'Abhinav Joshi'
tp52
a(S'100000802120303'
S'Keny M Thomas'
tp53
a(S'100002276975339'
S'Anand R Nair'
tp54
a(S'100007222053630'
S'Karuna George'
tp55
a(S'100007799112406'
S'Harsha Joseph'
tp56
a(S'100004404634722'
S'Gabrielle Jose'
tp57
a(S'100000430646556'
S'Jishin Gibson'
tp58
a(S'100003718879030'
S'Bony Abraham'
tp59
a(S'100001661061589'
S'Jinu Joy'
tp60
a(S'100001462308211'
S'Vivek Varghese'
tp61
a(S'100000756015352'
S'Shruthi Sankar'
tp62
a(S'100007171470614'
S'Mariya Jacob'
tp63
a(S'100001381678512'
S'Joy Arun'
tp64
a(S'100002427338646'
S'Ruckiya Nazar'
tp65
a(S'100003127846353'
S'Georgie Johnson'
tp66
a(S'100000170062516'
S'Idg StStephens'
tp67
a(S'100001520324073'
S'Amal V George Jacob'
tp68
a(S'646900737'
S'Nitin George'
tp69
a(S'1745587305'
S'Sambit Mohanty'
tp70
a(S'100001487919348'
S'Sachin K Thomas'
tp71
a(S'1383362628'
S'Khamrosang Buhril'
tp72
a(S'100000141876339'
S'Joe Joseph'
tp73
a(S'1593084569'
S'Sachu Sanil Chemmalakuzhy'
tp74
a(S'100000593254449'
S'Parichay Mazumdar'
tp75
a(S'100004918681716'
S'Parvathy Pradeep'
tp76
a(S'100005565992544'
S'Susan M Jacob'
tp77
a(S'100002522299526'
S'Chittu C Kuruvilla'
tp78
a(S'1235591968'
S'Edwin Jose'
tp79
a(S'1434566292'
S'Chris John'
tp80
a(S'100004061292497'
S'Anjana Joseph'
tp81
a(S'100004602160180'
S'Harshit Arora'
tp82
a(S'100002171752310'
S'Jikku Soman'
tp83
a(S'100004129420334'
S'Kunal Yadav'
tp84
a(S'100007191703665'
S'Amalu Sabu'
tp85
a(S'100003575086039'
S'Mitty Sussan Babuji'
tp86
a(S'100001220111784'
S'Krupa Dai'
tp87
a(S'615538383'
S'Vatsal Naresh'
tp88
a(S'1348296171'
S'Tanya Sharma'
tp89
a(S'100003978920582'
S'Anzar K B Basheer'
tp90
a(S'100001755093849'
S'Richard Shallam'
tp91
a(S'100005367994401'
S'Silpa SuZen'
tp92
a(S'100005623770540'
S'Mani Paul'
tp93
a(S'100001819283790'
S'Manoj Odalil'
tp94
a(S'100000852706570'
S'Cathrine Jeyaseelan'
tp95
a(S'100001050820377'
S'Naveeth Ashraf'
tp96
a(S'100002315815728'
S'Nivedita Sahni'
tp97
a(S'100002435930569'
S'Aravind M Balakrishnan'
tp98
a(S'100001854344874'
S'Suzanne Santiago'
tp99
a(S'100001901935024'
S'Alan Philip Kalarickal'
tp100
a(S'100002723510498'
S'AbiJith Ani'
tp101
a(S'1645640382'
S'Arjoonn Sharma'
tp102
a(S'100001293244864'
S'Alan Stanley'
tp103
a(S'100001017950659'
S'Joseph Kuncheria'
tp104
a(S'100004070672427'
S'Jun\\u00e1id M\\u00e1ns\\u00d8\\u00f8r'
tp105
a(S'649274774'
S'Tharun Thomas'
tp106
a(S'1270176672'
S'Shwetha Manoj'
tp107
a(S'100008112900429'
S'Sajin Chirappurath'
tp108
a(S'1821678194'
S'Stelin Paul'
tp109
a(S'100002964631222'
S'Beena Aleyamma Vinod'
tp110
a(S'642857354'
S'Saagnik Paul'
tp111
a(S'100004277375800'
S'Alen Punnen'
tp112
a(S'100001193643933'
S'Suvek Joe'
tp113
a(S'100001578191348'
S'Rahul Varghese Roy'
tp114
a(S'100004644993853'
S'Siddarth Ningthoujam'
tp115
a(S'100006559324793'
S'Anuja Jayakumar'
tp116
a(S'100002903826720'
S'Sajin C John'
tp117
a(S'100005577755830'
S'Silpa Thampi'
tp118
a(S'100001345307946'
S'Alisha Maria George'
tp119
a(S'100003794276970'
S'Jayasankar Sasikumar S'
tp120
a(S'100006510964133'
S'Aashish Jindal'
tp121
a(S'100001077347842'
S'Drishya Mathew'
tp122
a(S'100004791462268'
S'Dhiru Yadav'
tp123
a(S'100003843759252'
S'Soumya Sara John'
tp124
a(S'100002093250430'
S'Jishin Gibson'
tp125
a(S'100002261286479'
S'Kevin Oommen'
tp126
a(S'100006245292388'
S'Devasivan Csr'
tp127
a(S'100001256337449'
S'Sunny Antony Francis'
tp128
a(S'1182567070'
S'Jacob Thomas'
tp129
a(S'1057044722'
S'Suraj Chithira'
tp130
a(S'100002072261822'
S'Anita Gemmy'
tp131
a(S'100006201365327'
S'Aashiq M Sadar'
tp132
a(S'647423840'
S'Basil Joseph Paul'
tp133
a(S'100002392252142'
S'Akhil Z Jose'
tp134
a(S'100003689093651'
S'Harman Malhotra'
tp135
a(S'100002691369584'
S'J\\u00e8r\\u00edn Pakalomattam Ambalakadavil'
tp136
a(S'100005836531505'
S'Tathagata Dutta'
tp137
a(S'100004779488316'
S'Jofy Abraham Thomas'
tp138
a(S'1129692244'
S'Pooja Jose'
tp139
a(S'100002594005480'
S'Suchismita Panda'
tp140
a(S'100003767858588'
S'Littysusan Thomas'
tp141
a(S'100002589942155'
S'Murali Krishna'
tp142
a(S'100003038951439'
S'Rohit Kumar'
tp143
a(S'1398108331'
S'Chandraneev Das'
tp144
a(S'100003056550058'
S'Ajin Gigi'
tp145
a(S'100008231710228'
S'Joana Ann Mathews'
tp146
a(S'100001703958525'
S'Gandhi Study Circle'
tp147
a(S'100002657348003'
S'Arjun Raj KB'
tp148
a(S'100006432278045'
S'Billu John'
tp149
a(S'100001951427670'
S'George Savio Tom'
tp150
a(S'100001177879946'
S'Athul Mukund'
tp151
a(S'100003932821511'
S'Anu Augustine'
tp152
a(S'100000271061266'
S'Sherin Mathew'
tp153
a(S'100001867507711'
S'Leah Chrestien'
tp154
a(S'100002218873536'
S'Yamini Agarwal'
tp155
a(S'1216774368'
S'Cerin Philip'
tp156
a(S'748064781'
S'Akshay Gupta'
tp157
a(S'100000638408302'
S'Febi Mathew'
tp158
a(S'100001597715217'
S'Rahul Sj'
tp159
a(S'100005045981981'
S'Akhil Jose'
tp160
a(S'603625357'
S'Palki Bhattacharyya'
tp161
a(S'100001645380260'
S'Jerrin V John'
tp162
a(S'100003214620100'
S'Gifta Simon'
tp163
a(S'100004430014584'
S'Lakshmi Priya Arun'
tp164
a(S'100003732511570'
S'Merin Aksa'
tp165
a(S'100006066730838'
S'Clinta Elizabeth Cherian'
tp166
a(S'100000614588277'
S'Yedu Raj Krishna'
tp167
a(S'100002919918293'
S'Chippy Kuriakose'
tp168
a(S'100006252692387'
S'Dinesh Pinto'
tp169
a(S'1330175129'
S'Adnah Bright'
tp170
a(S'100001850661667'
S'John Jacob'
tp171
a(S'100001095133061'
S'Isaac George Varghese'
tp172
a(S'538369463'
S'Malay Neerav'
tp173
a(S'100002339837437'
S'Christy George'
tp174
a(S'100002427642403'
S'Jyothis Thomas'
tp175
a(S'100000420333272'
S'John Mathew J K'
tp176
a(S'100006303572952'
S'Safarudheen Safar'
tp177
a(S'1151015179'
S'Dileep Philip'
tp178
a(S'1627732975'
S'Susan Abraham'
tp179
a(S'757895401'
S'Benston John'
tp180
a(S'100001314097835'
S'Bristo Benny Puthenpurayil'
tp181
a(S'100002318048588'
S'Debjit Roy'
tp182
a(S'100000010498308'
S'Saif Rashid'
tp183
a(S'100000990330018'
S'Namita Anna Givi'
tp184
a(S'100003864088027'
S'BeNjmin Thomas'
tp185
a(S'100003283603701'
S'Thomas T Abraham'
tp186
a(S'100000001898263'
S'Antony Joseph'
tp187
a(S'100001026896943'
S'Laiju Markose'
tp188
a(S'100001961283283'
S'Gourie Shankar'
tp189
a(S'100001542475056'
S'Rohith Mathirampuzha'
tp190
a(S'100004734486988'
S'Vishak Nair'
tp191
a(S'100007108624464'
S'Sabari Suresh'
tp192
a(S'100000424226829'
S'Presly Mark Mathai'
tp193
a(S'100002600333874'
S'Rahul Nandu'
tp194
a(S'100000717781371'
S'Maria Benoy'
tp195
a(S'100008027495908'
S'Jose Thayil'
tp196
a(S'100006277448156'
S'Joshua Baskaran'
tp197
a(S'100008286214095'
S'Pallavi Sunny Alenchery'
tp198
a(S'1766634831'
S'Bobin Abraham'
tp199
a(S'100003606984622'
S'Abin George Philip Ellalayil'
tp200
a(S'707912069'
S'Ayush Ranjan'
tp201
a(S'100001315060004'
S'Vivek Chauhan'
tp202
a(S'100002424106960'
S'Kev\\u00efn Kur\\u00eean'
tp203
a(S'100004078954159'
S'Arshia Jacob'
tp204
a(S'100002911263329'
S'Sam C Renjith'
tp205
a(S'1132987747'
S'Kartik Sahni'
tp206
a(S'100002295287924'
S'Mathew Jose'
tp207
a(S'100002318912216'
S'Savio Tom George'
tp208
a(S'100001448076732'
S'Akhil Sherry'
tp209
a(S'100002263615152'
S'Roney Jo Varghese'
tp210
a(S'100001999205207'
S'Akhil Zacharia'
tp211
a(S'100001305296630'
S'Thejus Bk'
tp212
a(S'100004350031614'
S'Robin John'
tp213
a(S'100006474371568'
S'Nithin John'
tp214
a(S'1525542949'
S'Tavish Tejas'
tp215
a(S'100000655676648'
S'Deepa Deepak'
tp216
a(S'100005617061588'
S'Lekshmi S Nair'
tp217
a(S'1694179433'
S'Thomas Dominic'
tp218
a(S'100000227056352'
S'Mathew Roy Pottoore'
tp219
a(S'100006428391952'
S'Mitrajyoti Ghosh'
tp220
a(S'100000335861758'
S'Arun Jp'
tp221
a(S'100002364830944'
S'Mahesh Sathyan'
tp222
a(S'100002360452259'
S'Vishnu Vjm'
tp223
a(S'100001873041319'
S'Sadiah Zahoor'
tp224
a(S'100004366412846'
S'Atima Shahi'
tp225
a(S'100002346631724'
S'Sneha Ann Thomas'
tp226
a(S'100000710946556'
S'Mahima M Krishnan'
tp227
a(S'1118941415'
S'Diya Deviah'
tp228
a(S'100000259877471'
S'Athira Sudharsanan'
tp229
a(S'100002716726595'
S'Justin Jose'
tp230
a(S'100005510618812'
S'Ann Sabu'
tp231
a(S'100001725614898'
S'Robin Philiph'
tp232
a(S'100001254259676'
S'Asif Ashraf Vazhemadom'
tp233
a(S'1271338637'
S'Akshita Jain'
tp234
a(S'100000080924686'
S'Alan Thomas Cherian'
tp235
a(S'1718109403'
S'Geo Joseph Nallikuzhy'
tp236
a(S'100000802527565'
S'Kuriakose Mathew'
tp237
a(S'100001740771789'
S'Tahir J Wani'
tp238
a(S'100002047207599'
S'Mariam Joseph'
tp239
a(S'100002009271874'
S'Shivani Pandey'
tp240
a(S'100004107336413'
S'Juhi Prasad'
tp241
a(S'1155828229'
S'Maria Kuruvilla'
tp242
a(S'100002618266627'
S'Ravinder Gulia'
tp243
a(S'1252194474'
S'Neeraja Rajeev'
tp244
a(S'1722259617'
S'Vaishnavi Rathore'
tp245
a(S'563397488'
S'Anoop John Thomas'
tp246
a(S'100002266186180'
S'Aghila Joseph'
tp247
a(S'100000102652717'
S'Debobroto Sensharma'
tp248
a(S'100001171624426'
S'Stephanian Stephania'
tp249
a(S'1013815559'
S'Sunil Issar'
tp250
a(S'100001556707479'
S'Jacob Lukose'
tp251
a(S'100000232552065'
S'Gigin C George'
tp252
a(S'100000900283411'
S'Sajay Jacob'
tp253
a(S'100005851867188'
S'Sumesh Resmi'
tp254
a(S'100008368118292'
S'Rajiv Gerald Pereira'
tp255
a(S'100001026368049'
S'Ajay Govind'
tp256
a(S'100000934338364'
S'Jordan Kinchum Tshering Namchu'
tp257
a(S'788144829'
S'Vijith Jacob'
tp258
a(S'100003539467266'
S'Johaan Tomy Kallany'
tp259
a(S'100006082593771'
S'Aparth Sachan'
tp260
a(S'100002175326299'
S'Sreejith Sreekumar'
tp261
a(S'100005941621153'
S'Aswin Kurian Korah'
tp262
a(S'100000304240417'
S'Reuben Abraham'
tp263
a(S'100003080193581'
S'Jin George'
tp264
a(S'100003396890075'
S'Aby V Ajith'
tp265
a(S'100000393910431'
S'Joel Joshua'
tp266
a(S'100001960725327'
S'Tisha John'
tp267
a(S'100000486936984'
S'Joyal Biju'
tp268
a(S'100002169114263'
S'Saju C John'
tp269
a(S'100004123266755'
S'Anu Babu'
tp270
a(S'100006620401349'
S'Johns Philip'
tp271
a(S'100001837768297'
S'Abhishek Jomy'
tp272
a(S'100005612827250'
S'Anju Varghese'
tp273
a(S'100000618221598'
S'Aditi Jayakumar'
tp274
a(S'1379197740'
S'Leny Elza'
tp275
a(S'1647247143'
S'Nivin Thomas'
tp276
a(S'100003896003116'
S'Gayathri H Nair'
tp277
a(S'100001742936562'
S'Anjana Jain Tom'
tp278
a(S'100003594197743'
S'AraVind \\u00c2jith'
tp279
a(S'1449146414'
S'Pulkit Aggarwal'
tp280
a(S'100001738656825'
S'Aswin Julius Jr.'
tp281
a(S'100002296388129'
S'Navneet Philson'
tp282
a(S'100001112355846'
S'Sachin Saju'
tp283
a(S'100001510825509'
S'Aravind Satheesh'
tp284
a(S'100005883064809'
S'Monica Mariam Mathews'
tp285
a(S'100000909916077'
S'Akin John Thomas'
tp286
a(S'100001813046922'
S'Deen Harris'
tp287
a(S'100007639023308'
S'Muhammed Aslam'
tp288
a(S'100000764640204'
S'Mathew Shelby Kailath'
tp289
a(S'100001607593796'
S'Sharon Thomas'
tp290
a(S'100001131963232'
S'Anet Augustin'
tp291
a(S'100001685078681'
S'Jibi Reji'
tp292
a(S'100003369083798'
S'Balu Vadakkedathu'
tp293
a(S'100002260215655'
S'Abhishek Deshwal'
tp294
a(S'1362807500'
S'Anuroop Sunny'
tp295
a(S'100005540404654'
S'Kaveri Suresh'
tp296
a(S'100002401290216'
S'Akhil Vc'
tp297
a(S'100001171958828'
S'Basit Malik'
tp298
a(S'100000503113856'
S'Edwin Gc'
tp299
a(S'100002257746238'
S'Mathew Sebastian Pathippallil'
tp300
a(S'716673406'
S'Malvika Srivastava'
tp301
a(S'100006383683849'
S'Bibin Abraham'
tp302
a(S'100005090556680'
S'Varun Ajay'
tp303
a(S'100002290537241'
S'Neenu Sebastian'
tp304
a(S'100002604090486'
S'Nikhil Benny'
tp305
a(S'836679900'
S'Namitha Sadanand'
tp306
a(S'100002126220850'
S'Mathews K. Tom'
tp307
a(S'100001276959597'
S'Gokul Kannan'
tp308
a(S'100001145797384'
S'Geevar K Prince'
tp309
a(S'100002611122296'
S'Samuel Thangluai'
tp310
a(S'100002337268359'
S'Tharun Abraham'
tp311
a(S'100002237578641'
S'Alan Mathew George'
tp312
a(S'100001492795812'
S'Akhil Anil'
tp313
a(S'100001492402770'
S'Adhiraj Sharma'
tp314
a(S'100001602372356'
S'Aslam Sher Khan'
tp315
a(S'100006594785596'
S'Vysakh Ks'
tp316
a(S'100002075556789'
S'Vijay Krishna'
tp317
a(S'100002245687470'
S'Aditya Guha'
tp318
a(S'100000774423334'
S'Vaibhav Singh'
tp319
a(S'100000609043373'
S'Ashok Vardhan'
tp320
a(S'100002056353777'
S'Athul P Kurian'
tp321
a(S'100006705396477'
S'Unmukt Chand'
tp322
a(S'100001395671734'
S'Vyshnavi Remesh'
tp323
a(S'100007820893562'
S'Shilpa Thakur'
tp324
a(S'100001385847792'
S'Yadu Krishna'
tp325
a(S'100000550011815'
S'Ruth Mary'
tp326
a(S'1558124023'
S'Susan Mammen'
tp327
a(S'540411177'
S'Raqib Rasheed'
tp328
a(S'100003271792658'
S'Akhil Kumar MA'
tp329
a(S'100002255517436'
S'San J Santhosh'
tp330
a(S'1057709579'
S'Rohit Job Zachariah'
tp331
a(S'100004034423986'
S'Ankur David Barrow'
tp332
a(S'100002978411919'
S'Mohammed Mubashir'
tp333
a(S'100000679358869'
S'Nikit Agarwal'
tp334
a(S'100008079061396'
S'Pratita Singh'
tp335
a(S'100002644961328'
S'Adnan Farooq'
tp336
a(S'100001676763205'
S'Abhay Dev'
tp337
a(S'100003564424201'
S'Merlin Kuriakose'
tp338
a(S'100002054051945'
S'Midhun Krishnan M'
tp339
a(S'100003735500137'
S'Vivek Jiji Varghese'
tp340
a(S'100003672387393'
S'Rohith Rajan'
tp341
a(S'100004743433510'
S'Liya Rachel Thomas'
tp342
a(S'597933121'
S'Abel Thayil'
tp343
a(S'1087784369'
S'Arpit Gabriel'
tp344
a(S'100002186853307'
S'Nikshita Thomas'
tp345
a(S'613407425'
S'Akash Issac Sabu'
tp346
a(S'1002413866'
S'Khare Ojas'
tp347
a(S'702838984'
S'Anok Mohan'
tp348
a(S'100002392090893'
S'Iona Antony'
tp349
a(S'100001262928947'
S'Pulkit Joshi'
tp350
a(S'100001449196439'
S'Rosemary Sebastian'
tp351
a(S'100006729520256'
S'Abhyjith Suresh'
tp352
a(S'100000326193561'
S'FrMarkose John Manju Achen'
tp353
a(S'100003082033192'
S'Ann Sanya'
tp354
a(S'100003064206752'
S'Shakti Singh Arya'
tp355
a(S'100002854246913'
S'Richard Mathew Sunny'
tp356
a(S'100003487489859'
S'Arun B Jacob'
tp357
a(S'100006410076288'
S'Diksha Goyal'
tp358
a(S'100006774969855'
S'Mihira Kallahalla'
tp359
a(S'1813212226'
S'Ashna Susan'
tp360
a(S'100002347892511'
S'Rakhi R Kumar'
tp361
a(S'100001127658746'
S'J\\u00fcst\\u00ef\\u00f1 M\\u00e4th\\u00ebw'
tp362
a(S'100007301130134'
S'Ritsy Elsa'
tp363
a(S'100007879773784'
S'Abin Thomas Abraham'
tp364
a(S'556978970'
S'Jagat Sohail'
tp365
a(S'100006609936754'
S'Jordan Muriel'
tp366
a(S'100007124922936'
S'Joanna Varghese'
tp367
a(S'100001441192455'
S'Siddarth Ningthouja'
tp368
a(S'100001333186608'
S'Radhika Rajeev'
tp369
a(S'100002170591044'
S'Maria Sibi'
tp370
a(S'100001040621014'
S'Abhimanyu Dhanda'
tp371
a(S'100004789775123'
S'Dani Dileep'
tp372
a(S'1036290515'
S'Apurva Talluri'
tp373
a(S'100005879226259'
S'Karunyapriya Mathews'
tp374
a(S'1473726660'
S'Liz Maria Kuriakose'
tp375
a(S'100002196641649'
S'Mathew John'
tp376
a(S'100002935686759'
S'Bhupender Rathee'
tp377
a(S'100003906966229'
S'Jinu Cherian'
tp378
a(S'100002667777508'
S'Arpith Mathew Kuruvilla'
tp379
a(S'1638758033'
S'Shilpa Ann George'
tp380
a(S'100002988880045'
S'Milly Susan Babuji'
tp381
a(S'100001240180656'
S'Geetha Eapen'
tp382
a(S'100000927240270'
S'Lovely Grover'
tp383
a(S'1735735603'
S'Sangbarta Chakraborty'
tp384
a(S'1074234383'
S'Shayeree Chakraborty'
tp385
a(S'100001221524372'
S'Jacob Kuruvila'
tp386
a(S'100003611377688'
S'Austin Luke'
tp387
a(S'100006842013679'
S'Tanya Sharma'
tp388
a(S'100002000013123'
S'Sanjeev Golla'
tp389
a(S'100003101068084'
S'S\\u00e5\\u00ef S\\u00e2\\u00f1k\\u00e4r'
tp390
a(S'1814506762'
S'Nandil Bhatia'
tp391
a(S'829334355'
S'Shreya Sinha'
tp392
a(S'100006138871016'
S'Santhra Anna Shaji'
tp393
a(S'100008305392769'
S'Alan Michael'
tp394
a(S'100000995525587'
S'Deepak Varghese'
tp395
a(S'100000517955631'
S'Alice Paskin'
tp396
a(S'100001498061767'
S'Mevin G Monson'
tp397
a(S'1080670438'
S'Alisha George'
tp398
a(S'100005461440602'
S'Hanna Shaji'
tp399
a(S'100001257335391'
S'Ashwin Mani Philip'
tp400
a(S'100001352833140'
S'William Nedumpurath'
tp401
a(S'100000632789127'
S'Vishnu S Kumar'
tp402
a(S'100001595634239'
S'Zacky Jacob Pallathettu'
tp403
a(S'1760217864'
S'Girish Chander Singh'
tp404
a(S'100001564808666'
S'Maya P Nair'
tp405
a(S'1813746379'
S'Kaipanaduka Thomas Varghese'
tp406
a(S'100002255367830'
S'Julia Elsa Raju'
tp407
a(S'100001360885817'
S'Justin Jose'
tp408
a(S'100001102146024'
S'Greeshma Reji'
tp409
a(S'100003760296579'
S'Rahul Jayaraj'
tp410
a(S'100003301913848'
S'Harsha Alex'
tp411
a(S'100003279288570'
S'Alen Punnen'
tp412
a(S'100003693284527'
S'Theresa John Mangalath'
tp413
a(S'100003678946412'
S'Dhanya Suresh'
tp414
a(S'100006526661557'
S'Nikhil Mathew'
tp415
a(S'100004577581534'
S'Allaine Ren Kuruvilla'
tp416
a(S'100003163157368'
S'Sreekumar Ps'
tp417
a(S'100001186339965'
S'Thomas Kuruvila'
tp418
a(S'1433994034'
S'Siddharth Chakravortty'
tp419
a(S'762622163'
S'Kevin Mathew John'
tp420
a(S'100001501912738'
S'Athulya Susan John'
tp421
a(S'100002184098012'
S'Jyothish Mathew Paul'
tp422
a(S'100000780207553'
S'Haby George'
tp423
a(S'100002767418832'
S'Sandra Alex'
tp424
a(S'100003248115814'
S'Salini Johnson'
tp425
a(S'100000093876452'
S'Farkhanda Zahoor'
tp426
a(S'100001824347094'
S'Christy Perayil'
tp427
a(S'100002257156708'
S'Sachin Joseph Roy'
tp428
a(S'100002630648529'
S'Ambu Ajith'
tp429
a(S'100001499081721'
S'Hari Krishnan'
tp430
a(S'100005815683946'
S'Keziah Jaimon'
tp431
a(S'100003058309397'
S'Alisha Jacob'
tp432
a(S'1491499430'
S'Ak Tho'
tp433
a(S'100004062844441'
S'Megha Maria'
tp434
a(S'1788889071'
S'Anjali Thomas'
tp435
a(S'100003719145220'
S'Merlin Sabu'
tp436
a(S'100002897479728'
S'Shaji Kurian'
tp437
a(S'100001841735383'
S'Jiya Maria Eapen'
tp438
a(S'1692091750'
S'Suvin Varghese Vinu'
tp439
a(S'100003396983390'
S'Akshitha Luhkshmee'
tp440
a(S'100000929086730'
S'Minu Philip'
tp441
a(S'100001851887010'
S'Sharwon Pius'
tp442
a(S'100001433618055'
S'Annette Thomas'
tp443
a(S'1449547944'
S'Anisha Angelina Victor'
tp444
a(S'100003559318566'
S'Alin Mathew'
tp445
a(S'100002525158474'
S'Pradeep Krishnan'
tp446
a(S'100004242247841'
S'Ann Juan'
tp447
a(S'100002284423812'
S'Elsa Jacob Joseph'
tp448
a(S'100001035841883'
S'Aswin Paul'
tp449
a(S'100002508164564'
S'Karuna George'
tp450
a(S'100001534816738'
S'Soumyajit Kar'
tp451
a(S'100002509956848'
S'Rahul George Kuruvilla'
tp452
a(S'1570604856'
S'Vishnu S Kumar'
tp453
a(S'100000519414510'
S'Ani Samuel'
tp454
a(S'100000851343314'
S'Ludhiya Johnson'
tp455
a(S'100000973356055'
S'Christopher Mathew'
tp456
a(S'100003333452477'
S'John Sankarathil'
tp457
a(S'100003792118646'
S'Alan Verghese Ittyeipe'
tp458
a(S'100005633013511'
S'Samira Sarah Abraham'
tp459
a(S'100003734544238'
S'Luckymol Abraham'
tp460
a(S'100000477319000'
S'Munnu Tomy Kallany'
tp461
a(S'100002341342260'
S'Anna George'
tp462
a(S'100001574372221'
S'Vishnu D Raj'
tp463
a(S'100001797914652'
S'Tejaz Joz'
tp464
a(S'100002534448098'
S'Vikas Bhati'
tp465
a(S'100000782710201'
S'Anju Shebha Mathew'
tp466
a(S'100004870389884'
S'Smitha Sreenivasan'
tp467
a(S'1343900444'
S'Avidha Chakrabarti'
tp468
a(S'100001937130911'
S'Alan Francis'
tp469
a(S'100008261373667'
S'Akin John Thomas'
tp470
a(S'100002329720046'
S'Akil Babu'
tp471
a(S'100004941819121'
S'Sofia Andrews'
tp472
a(S'100001351338828'
S'Sam John'
tp473
a(S'100001017024202'
S'Tijo Mathew'
tp474
a(S'100002316993702'
S'Anto Sabu'
tp475
a(S'100000975617376'
S'Cyrus Varughese'
tp476
a(S'100003688098314'
S'Rovina Jose'
tp477
a(S'100001860680262'
S'Anna Philip'
tp478
a(S'1395080201'
S'Liya John'
tp479
a(S'100002020197192'
S'Jiji Varughese Thottupurathu'
tp480
a(S'100004127982894'
S'Jiyash G Philipose'
tp481
a(S'100002391288281'
S'Darshanam Jude Lama'
tp482
a(S'100000420508219'
S'MostWanted Comrade'
tp483
a(S'100001120867282'
S'Abhinav Jha'
tp484
a(S'100004003748341'
S'Rinku Elza Babu'
tp485
a(S'100003957607446'
S'Christy Pius'
tp486
a(S'100003255363750'
S'Ashwin Gibson'
tp487
a(S'100002987819159'
S'Jahnavi Nannapaneni'
tp488
a(S'651481345'
S'Leeza Abraham'
tp489
a(S'1062942034'
S'Kesav Krishnan'
tp490
a(S'100001553719538'
S'Amal Suresh Pallathumaliyil'
tp491
a(S'100002886663879'
S'Preethish Raja'
tp492
a(S'100005889309986'
S'Asha Elizabeth Thomas'
tp493
a(S'100003099852364'
S'Anu Joseph'
tp494
a(S'100000033144331'
S'Sam John Koshy'
tp495
a(S'100001808889574'
S'Sharon Elizabeth George'
tp496
a(S'100001285150578'
S'Rizwan Huzzain'
tp497
a(S'100006602641720'
S'Rebecca Mary Job'
tp498
a(S'100005667124773'
S'Backbencher Bencher'
tp499
a(S'100000929002125'
S'Maitreyee Rudola'
tp500
a(S'100006817267890'
S'Nikhil Pathak'
tp501
a(S'100007919680598'
S'Abhi Mfs'
tp502
a(S'100004848273649'
S'Arif V Ashraf'
tp503
a(S'100000115558855'
S'Manikandan Vijayan'
tp504
a(S'100004238054470'
S'Bijil Georgy Cherian'
tp505
a(S'100003057876468'
S'Ankit Gupta'
tp506
a(S'100001063677102'
S'Sukrit Joshi'
tp507
a(S'100002063390755'
S'Jisha Ann Abraham'
tp508
asS'id'
p509
S'100001886092483'
p510
s.