(dp1
S'friends'
p2
(lp3
(S'100004699874299'
S'Bhupesh Gola'
tp4
a(S'100002364385781'
S'Gaurav Gola'
tp5
a(S'100002228913876'
p6
S'Annu Gautam'
tp7
a(S'100003826654356'
S'Ankit Verma'
tp8
a(S'100000117539258'
S'Bhupesh Gola'
tp9
a(S'1067243012'
S'Jitender Kumar'
tp10
a(S'100000512027250'
S'Saurabh Kumar'
tp11
a(S'100005100486045'
S'Raj Kumar Prajapati'
tp12
a(S'100000620781617'
S'Hemant Kumar'
tp13
a(S'100004312813649'
S'Karuna Tiwari'
tp14
asS'id'
p15
S'100004755368465'
p16
sS'name'
p17
S'Shalini Gola'
p18
s.