(dp1
S'name'
p2
S'Azmat Manzoor'
p3
sS'current_class'
p4
S'pakistan'
p5
sS'home_class'
p6
Vlahore, pakistan
p7
sS'home_text'
p8
VLahore, Pakistan\u000aHometown
p9
sS'current_link'
p10
Vhttps://www.facebook.com/l.php?u=https%3A%2F%2Fwww.bing.com%2Fmaps%2Fdefault.aspx%3Fv%3D2%26pc%3DFACEBK%26mid%3D8100%26where1%3D31.549700669186%252C%2B74.343109130859%26name%3DLahore%252C%2BPakistan%26mkt%3Den-IN&h=xAQHCnE96&s=1
p11
sS'home_link'
p12
Vhttps://www.facebook.com/l.php?u=https%3A%2F%2Fwww.bing.com%2Fmaps%2Fdefault.aspx%3Fv%3D2%26pc%3DFACEBK%26mid%3D8100%26where1%3D31.549700669186%252C%2B74.343109130859%26name%3DLahore%252C%2BPakistan%26mkt%3Den-IN&h=TAQERW_I4&s=1
p13
sS'current_text'
p14
VLahore, Pakistan\u000aCurrent City
p15
sS'friends'
p16
(lp17
(S'100004739770615'
S'Ayesha Malik'
tp18
a(S'100006600124730'
S'Dr\\u0119\\u00e5m G\\u012frl'
tp19
a(S'100001329002688'
S'Azmat Manzoor'
tp20
asS'id'
p21
S'100001329002688'
p22
s.