(dp1
S'friends'
p2
(lp3
(S'100000696643002'
S'Komal Jain'
tp4
a(S'648585870'
p5
S'Atul Jain'
tp6
a(S'534663164'
S'Neha Jain'
tp7
a(S'535001386'
p8
S'Dimple Verma'
tp9
a(S'100006291874336'
S'Anoop Jain'
tp10
a(S'100000531996328'
S'Ashmita Jamwal'
tp11
a(S'100006125801118'
S'Kush Bhatia'
tp12
a(S'100000626092575'
S'Akshita Jain'
tp13
a(S'1254037192'
p14
S'Disha Sethi'
tp15
a(S'100001374510613'
S'Vineet Marwah'
tp16
a(S'100008137022940'
S'Madhu Jain'
tp17
a(S'100001690777552'
S'Neeti Sharma'
tp18
a(S'678341751'
S'Kovid Jolly'
tp19
a(S'100000497277831'
p20
S'Saswati Singh'
tp21
a(S'100003976964609'
S'Mona Juneja Malik'
tp22
a(S'100005262242463'
S'Neha Goel'
tp23
a(S'100001057793743'
p24
S'Priyanka Jolly Ohri'
tp25
a(S'622145710'
S'Rupen Uberoi'
tp26
a(S'551974428'
p27
S'Ankit Jain'
tp28
a(S'100002674258290'
S'Shruti Gupta'
tp29
a(S'1234378313'
p30
S'Neeru Kapoor'
tp31
a(S'735672500'
S'Isha Rallan Jolly'
tp32
a(S'1176712095'
p33
S'Rupali Marwaha'
tp34
a(S'100006636786214'
S'Kavish Jolly'
tp35
a(S'100001232111626'
S'Parul Jain'
tp36
a(S'730032999'
S'Lokesh Budhiraja'
tp37
a(S'1502317965'
p38
S'Chirag Jain'
tp39
a(S'100000109272563'
S'Renu Rai Marwah'
tp40
a(S'100000060525651'
p41
S'Priyansha Mukta Chimnani'
tp42
a(S'644703778'
S'Prabhas Bajaj'
tp43
a(S'665093939'
p44
S'Shipra Jain'
tp45
a(S'100003357668142'
S'Sarika Bhalla'
tp46
a(S'618260202'
p47
S'Ashima Jain'
tp48
a(S'1109391906'
p49
S'Sugandha Mathur Anand'
tp50
a(S'719536314'
S'Pushp Gandha'
tp51
a(S'611663960'
S'Tarun Gupta'
tp52
a(S'707131474'
p53
S'Aditii Khosla'
tp54
a(S'1769641539'
S'Nishtha Gambhir'
tp55
a(S'100001088632777'
p56
S'Mridul Jain'
tp57
a(S'892525164'
p58
S'Aditi Jain'
tp59
a(S'100007452217810'
p60
S'Sudhir Kumar Jain'
tp61
a(S'100001060632121'
p62
S'Ekta Jain Lalit'
tp63
a(S'100000034818304'
S'Urmimala Jain'
tp64
a(S'100001325734814'
p65
S'Rupali Nayar Bhatia'
tp66
a(S'814265556'
p67
S'Surbhi Kapur Talwar'
tp68
a(S'100000607396480'
S'Shivali Nayar Syal'
tp69
a(S'655461887'
p70
S'Deepti Belwal'
tp71
a(S'100000025150467'
p72
S'Garima Singhal Jain'
tp73
a(S'719382212'
p74
S'Monica Mongia'
tp75
a(S'611613089'
S'Shankar Sriram'
tp76
a(S'100006287373133'
S'Shashi Jain'
tp77
a(S'1392936788'
S'Charu Chugh'
tp78
a(S'1320307105'
p79
S'Veena Sobti'
tp80
a(S'100000104404824'
S'Nikhil Jain'
tp81
a(S'589522691'
p82
S'Arpan Jain'
tp83
a(S'608976243'
S'Suparna Kohli'
tp84
a(S'614376967'
S'Ishani Bajaj'
tp85
a(S'612786992'
p86
S'Maina Duggal'
tp87
a(S'719314698'
S'Sudakshina D Ganguly'
tp88
a(S'572523467'
p89
S'Priti Jain'
tp90
a(S'1692596032'
p91
S'Pooja Bindal'
tp92
a(S'612733777'
S'Anurag Gupta'
tp93
a(S'100002547114857'
S'Shipra Bhatia'
tp94
a(S'100000507658845'
p95
S'Raman Gupta'
tp96
a(S'100000938904771'
p97
S'Abhishek Jain'
tp98
a(S'100001216607592'
S'Shweta Sharma'
tp99
a(S'100002089560178'
p100
S'Rakhi Raturi'
tp101
a(S'568126136'
p102
S'Prabal Jain'
tp103
a(S'100006471960506'
S'Shikha Jain'
tp104
a(S'1265825722'
p105
S'Amita Parti Gupta'
tp106
a(S'100001238336149'
S'Niyati Jaiswal'
tp107
a(S'100003675216691'
S'Suravi Dutta Jolly'
tp108
a(S'546910368'
p109
S'Shiva Gosain Malhotra'
tp110
a(S'100008148216867'
S'Shikha Jain'
tp111
a(S'790967328'
p112
S'Sharmishtha Seth'
tp113
a(S'718345790'
S'Neelofer Abbasi'
tp114
a(S'100001466259815'
p115
S'Kanak Jain'
tp116
a(S'100000312580632'
p117
S'Aditi Nayyar'
tp118
a(S'1152427778'
p119
S'Deepika Jain Kedia'
tp120
a(S'723332742'
S'Naman Jolly'
tp121
a(S'820098865'
S'Anuja Jha'
tp122
a(S'100005690345268'
S'Rakesh Soni'
tp123
a(S'692695418'
p124
S'Meenakshi Belwal'
tp125
a(S'575356999'
S'Varun Gambhir'
tp126
a(S'719235668'
p127
S'Dushyant Talwar'
tp128
a(S'702255667'
p129
S'Laakshi Chadha'
tp130
a(S'610803234'
S'Shefali Mattoo'
tp131
a(S'100002870758831'
p132
S'Ruchi Jain'
tp133
asS'id'
p134
S'100005147587725'
p135
sS'name'
p136
S'Shraddha Jolly Jain'
p137
s.