(dp1
S'friends'
p2
(lp3
(S'100008188386511'
S'Atif Ansari'
tp4
a(S'100007387952507'
S'Payal Priya Raj'
tp5
a(S'100007515276560'
S'Shubham Sharma'
tp6
a(S'100006118265017'
S'Manish Pandey'
tp7
a(S'100002444651098'
S'Divya Tekchandani'
tp8
a(S'100007559918063'
S'Arpit Singh'
tp9
asS'id'
p10
S'100002444651098'
p11
sS'name'
p12
S'Divya Tekchandani'
p13
s.