(dp1
S'friends'
p2
(lp3
(S'100001167068627'
S'Yogender Chaudhry'
tp4
a(S'1083616564'
S'Richa Gulati'
tp5
a(S'514720317'
S'Amulya Ganesh'
tp6
a(S'712997581'
S'Simmi Bansal'
tp7
a(S'729902493'
p8
S'Lipi Singh'
tp9
a(S'1050353018'
S'Rachit Harjai'
tp10
a(S'100000523560352'
p11
S'Sumit Garg'
tp12
a(S'1221109134'
S'Arul Gnana Mathuram'
tp13
a(S'100006104560076'
S'Mulchand Nadt Meeting Point'
tp14
a(S'733170299'
p15
S'Reshma Nair Brar'
tp16
a(S'1606032635'
S'L Prabhunanda Singh'
tp17
a(S'716571002'
S'Vamsi Krishna'
tp18
a(S'503043230'
S'Khushvi Gandhi'
tp19
a(S'100000338232567'
S'Anand Kumar'
tp20
a(S'100003604433512'
S'Vidhi Choudhary'
tp21
a(S'1005687463'
S'Bhuvnesh Pratap Singh'
tp22
a(S'100000373943537'
S'Saurabh Jain'
tp23
a(S'1025593295'
S'Ashwini Adivarekar'
tp24
a(S'1029713428'
p25
S'Sandip Garg'
tp26
a(S'1020260421'
p27
S'Shaba Alam'
tp28
a(S'755570696'
p29
S'Vinay Pratap Singh'
tp30
a(S'100004101602103'
S'Charanpreet Singh Gill'
tp31
a(S'100000831322454'
S'Himpreet Kaur'
tp32
a(S'100002159627941'
S'Aditya Saole'
tp33
a(S'100007786560186'
p34
S'Astha Nanda Pathak'
tp35
a(S'763454795'
p36
S'Nishant Mandhotra'
tp37
a(S'100002582136383'
p38
S'Srivijay Venkatesan'
tp39
a(S'1686801162'
S'Gaurav Kapur'
tp40
a(S'1078822822'
S'Karan Chugh'
tp41
a(S'1229264788'
S'Sankar Pandi'
tp42
a(S'100000640429743'
S'Ravish Bhatt'
tp43
a(S'715985452'
S'Samuel Siraj'
tp44
a(S'668118244'
p45
S'Mahita Pamaraju'
tp46
a(S'1692964425'
S'Vivekanand Selvaraj'
tp47
a(S'1691330891'
p48
S'Rahul Singhania Irs'
tp49
a(S'557799472'
S'Nidhi Sharma'
tp50
a(S'742471799'
S'Fouzia Taranum B'
tp51
a(S'827309501'
p52
S'Smriti Tripathi'
tp53
a(S'100001808940581'
S'Dev Santosh Chawla'
tp54
a(S'100000105577467'
p55
S'Jitendra Patel'
tp56
a(S'100000257421104'
S'Rajiv O Wadhera'
tp57
a(S'1195815970'
S'Ankur Dular'
tp58
a(S'1483835848'
S'Shaleen Doc'
tp59
a(S'678566444'
S'Bipin Kr Ahirwar'
tp60
a(S'1046649992'
S'Hari Prasad Rao'
tp61
a(S'741413874'
S'Atul Kumar'
tp62
a(S'1033355283'
S'Aditi Goyal'
tp63
a(S'100000457429861'
p64
S'Aditya Divakar Prabhudesai'
tp65
a(S'220900125'
p66
S'Amrit Agrahari'
tp67
a(S'100000546042430'
S'Navaneet Agrawal'
tp68
a(S'754318869'
p69
S'Sahil Seth'
tp70
a(S'100000837622317'
S'Sumeet Singh'
tp71
a(S'100002214365137'
p72
S'Aadesh Rai'
tp73
a(S'580573236'
p74
S'Saujanya Ranjan'
tp75
a(S'530227622'
p76
S'Subhash Jangala'
tp77
a(S'586416617'
S'Reuben Mathew Jacob'
tp78
a(S'1141991838'
S'Gaurav Monga'
tp79
a(S'100001426272868'
S'Pushpinder Singh'
tp80
a(S'100000103291723'
p81
S'Vishnu Raj'
tp82
a(S'100000269649657'
S'Malika Jindal Monga'
tp83
a(S'100000149480897'
p84
S'Pramod Kumar'
tp85
a(S'807613068'
S'Remya Prabha'
tp86
a(S'574322587'
p87
S'Harjot Singh Sandhu'
tp88
a(S'536525782'
S'Aparajita Rai'
tp89
a(S'100002855012293'
S'Ganesh Shanker Saxena'
tp90
a(S'759970037'
S'Nakul Agrawal'
tp91
a(S'1713440107'
S'Manchak Ipper'
tp92
a(S'100001272842831'
S'Abhishek Gramin'
tp93
a(S'1603560867'
p94
S'Yashpal Kshirsagar'
tp95
a(S'1360455195'
p96
S'Anubrata Das'
tp97
a(S'626611984'
S'Chinmaya Aurangabadkar Marathe'
tp98
a(S'1360740770'
p99
S'Narendra Nath Veluri'
tp100
a(S'596375478'
p101
S'Anam Benish'
tp102
a(S'100002825218655'
S'Praveen Kumar'
tp103
a(S'1373161627'
S'Rohit Maurya'
tp104
a(S'788818187'
S'Aman Chauhan'
tp105
a(S'1152477100'
S'Parampreet Kaur'
tp106
a(S'1329396832'
S'Akshay Kankrecha Jain'
tp107
a(S'1706491058'
S'Jaswinder Kaur'
tp108
a(S'100002813823040'
S'Brajesh K Singh'
tp109
a(S'734608651'
S'Anadee Nath Misshra'
tp110
a(S'100004179937635'
S'Zahid Parvez'
tp111
a(S'1700651764'
S'Richa Lagoo'
tp112
a(S'1552389638'
S'Manish J Ajudiya'
tp113
a(S'618636998'
S'Raghav Gupta'
tp114
a(S'753492143'
S'Garima Sharma'
tp115
a(S'501133520'
S'Tsewang Gyaltson'
tp116
a(S'100001269401304'
S'Nimit Goyal'
tp117
a(S'1256828568'
S'Sanjeev Chahar'
tp118
a(S'1007061647'
S'Harish Kumar'
tp119
a(S'648542075'
p120
S'Swaroop Mannava'
tp121
a(S'646545796'
S'Amit Gupta'
tp122
a(S'524969283'
p123
S'Udaya Shree Bhargav'
tp124
a(S'100003267239359'
S'Shankar Lal Verma'
tp125
a(S'551448651'
p126
S'Divya Mittal'
tp127
a(S'833839398'
S'Rajwinder Singh'
tp128
a(S'753744848'
p129
S'Shruti Jindal'
tp130
a(S'552970231'
p131
S'Piyush Shukla'
tp132
a(S'1736720522'
S'Ashima Sood Kaura'
tp133
asS'id'
p134
S'100000739387034'
p135
sS'name'
p136
S'Sahil Bansal'
p137
s.