(dp1
S'friends'
p2
(lp3
(S'100003540517337'
S'\\u0646\\u0627\\u0632\\u062f\\u0627\\u0646\\u0647 \\u0628\\u062f\\u0631 \\u062c\\u0627\\u0646'
tp4
a(S'100008227278010'
S'Abdulrahim Kakar'
tp5
a(S'100001640251629'
S'Jebraeil Wardak Janan'
tp6
asS'id'
p7
S'100001640251629'
p8
sS'name'
p9
S'Jebraeil Wardak Janan'
p10
s.