(dp1
S'friends'
p2
(lp3
(S'659288928'
S'Saumitr Shankar'
tp4
a(S'724009804'
S'Rachit Kulshreshtha'
tp5
a(S'1209485862'
S'Abhisek Chandra'
tp6
a(S'100001836883203'
S'Kshama Kulkarni'
tp7
a(S'100001157185550'
S'Rachana Srivastava'
tp8
a(S'1022781063'
S'Sachin Kumar'
tp9
a(S'100002308684539'
S'Anil Srivastav'
tp10
a(S'100001043792147'
S'Tushar Mohan'
tp11
a(S'1171805438'
S'Manish Ranjan'
tp12
a(S'100002247903952'
S'Manisha Verma'
tp13
a(S'1347352642'
S'Anand Srivastava'
tp14
a(S'587258178'
S'Shivam Pandey'
tp15
a(S'100002687105827'
S'Rina Srivastav'
tp16
a(S'100002891497206'
S'Prem Prakash Srivastava'
tp17
a(S'100000677007671'
S'Rati Srivastava'
tp18
a(S'100002066507236'
S'Anjali Srivastava'
tp19
a(S'100000668605964'
S'Kritika Srivastava'
tp20
a(S'100002141988368'
S'Jyotsana Kulshreshtha'
tp21
a(S'100001493273371'
S'Manthan Srivastava'
tp22
a(S'100002367424639'
S'Garima Varma'
tp23
a(S'100001707112086'
S'Garima Srivastava'
tp24
a(S'100001232180222'
S'Anisha Ranjit Thomas'
tp25
a(S'1821654024'
S'Shital Darak Mandhana'
tp26
a(S'1573142736'
S'Garima Sharma'
tp27
a(S'100002469020308'
S'Vedika Srivastava'
tp28
a(S'1608107368'
S'Shreya Kumar'
tp29
a(S'1390924028'
S'Misha Singh'
tp30
a(S'100001686202435'
S'Ajit Srivastava'
tp31
a(S'714202053'
S'Shalini Joyous'
tp32
a(S'100001280714500'
S'Ritika Srivastava'
tp33
a(S'100000232315082'
S'Shruti Jain'
tp34
a(S'674929695'
S'Abhishek Srivastava'
tp35
a(S'100001034453208'
S'Roopali Sinha'
tp36
a(S'100001510934288'
S'Jolly Srivastava'
tp37
a(S'100001547512433'
S'Yogita Rane'
tp38
a(S'1349845543'
S'Vishal Srivastava'
tp39
a(S'1211151229'
S'Savita Singh'
tp40
a(S'100001465246835'
S'Animesh Chandra'
tp41
a(S'100002884204775'
S'Rakhi Srivastava'
tp42
a(S'100000874463486'
S'Shweta Raj'
tp43
a(S'1421703919'
S'Vipin Kumar'
tp44
a(S'100001712861468'
S'Ankita Srivastava'
tp45
a(S'100000115437261'
S'Varsha Ranjan'
tp46
a(S'100000058796329'
S'Shikhar Srivastav'
tp47
a(S'100000612973307'
S'Surabhi Mohan'
tp48
a(S'1157756424'
S'Neha Srivastava'
tp49
a(S'100003167957298'
S'Girindra Mohan'
tp50
a(S'100001912599537'
S'Anwesha Basu'
tp51
a(S'100001780047055'
S'Devashish Srivastava'
tp52
a(S'100002660655416'
p53
S'Prakhar Srivastava'
tp54
a(S'100000329112348'
S'Mansi Bipin'
tp55
a(S'100001571674856'
S'Shrestha Shrivastava'
tp56
a(S'100000475833064'
S'Radhicka Srivastav'
tp57
a(S'100002492698545'
S'DrSmita Srivastava'
tp58
a(S'1488832672'
S'Shivendra Pandey'
tp59
a(S'100003010914217'
S'Bhawna Srivastava'
tp60
a(S'1694672565'
S'Vikas Srivastava'
tp61
a(S'100002494336915'
S'Pratima Tewary'
tp62
a(S'100003125028232'
S'Alka Srivastava'
tp63
a(S'1439543115'
S'Saumya Kumar'
tp64
a(S'1832624512'
S'C S Ritu Raj'
tp65
a(S'1114704965'
S'Rohini Archi'
tp66
a(S'100001080198287'
S'Supriya Srivastava'
tp67
a(S'100001727525896'
S'Vinita Lokesh'
tp68
a(S'100000144331595'
S'Somesh Shankar'
tp69
asS'id'
p70
S'100001326010227'
p71
sS'name'
p72
S'Rachana Srivastava'
p73
s.