(dp1
S'friends'
p2
(lp3
(S'100001743679164'
S'Tehreem Rizvi'
tp4
a(S'1266883826'
S'Monisa Kat'
tp5
a(S'1430798671'
S'Naila Naveed'
tp6
a(S'100001032431915'
S'Rameen Fatima'
tp7
a(S'100004243089708'
S'Aisha Butt'
tp8
a(S'100005702070767'
S'Maryam Javeed'
tp9
a(S'100001839557074'
S'Rafia Murtaza'
tp10
a(S'100005304334521'
S'Anum Salman'
tp11
a(S'100000569121446'
S'Kiran Atique'
tp12
a(S'1483293782'
S'Aarinda Noor'
tp13
a(S'615300429'
S'Tarhub Asgher'
tp14
a(S'100001478406761'
S'Fiza Malik'
tp15
a(S'100000109897212'
S'Saeeda Tahir'
tp16
a(S'100001095011231'
S'Mariyam Zubair'
tp17
a(S'616070064'
S'Wajeeha Farrukh'
tp18
a(S'100000513627553'
S'Faiqa Farrukh Bhatti'
tp19
a(S'100003663176327'
S'Ushna Noor'
tp20
a(S'100000743266522'
S'Sumera Bhatti'
tp21
a(S'1513717335'
S'Zoya Khan'
tp22
a(S'100002874418697'
S'Dr-Kanwal Sohail'
tp23
a(S'100003082723721'
S'Miral Bashir'
tp24
a(S'100000519690430'
S'Mahnoor Hassan'
tp25
a(S'1109427342'
S'Marwa Shahid'
tp26
a(S'100000044813660'
S'Mahrukh Khan'
tp27
a(S'848004886'
S'Hubashia Khan'
tp28
a(S'1156398829'
S'Aqsa Naveed'
tp29
a(S'100004692099014'
S'Sana Sherazi'
tp30
a(S'100002885212896'
S'Shahbaz Khan Lashari'
tp31
a(S'100000408707681'
S'Mehru Nadeem'
tp32
a(S'1809999410'
S'Hafsa Jafar'
tp33
a(S'100002671670373'
S'Hafsa Naveed'
tp34
a(S'100000212160441'
S'\\u015eH\\u00ef H\\u00e9r\\u0119'
tp35
a(S'1478351601'
S'Sarah Khizar'
tp36
a(S'100002540772059'
S'Kanza Riaz'
tp37
a(S'1418828443'
S'Uniza Naveed'
tp38
a(S'100002509576603'
S'Arooba Tariq'
tp39
a(S'614945366'
S'Fateeha Farrukh'
tp40
a(S'100000682181471'
S'Arham Sidique'
tp41
a(S'100000411254516'
S'Unaina Ajmal'
tp42
a(S'100001303541384'
S'H\\u00ea\\u00e2\\u0159\\u0165 A\\u0148\\u011fel'
tp43
a(S'100000709180019'
S'Rija Kashif Sheikh'
tp44
asS'id'
p45
S'100001469110064'
p46
sS'name'
p47
S'Maryam Javeed'
p48
s.