(dp1
S'friends'
p2
(lp3
(S'100002096553531'
S'Mayur Kamble'
tp4
a(S'100005575121755'
S'Shivani Miglani'
tp5
a(S'100003646388716'
S'Divya Goyal'
tp6
a(S'100003607527788'
S'Sheena Aashish Kalra'
tp7
a(S'1589990423'
S'Saloni Dagar'
tp8
a(S'1542953968'
S'Aditi Dwivedi'
tp9
a(S'669907652'
S'Akanksha Aggarwal'
tp10
a(S'1588934852'
S'Aakriti Arora'
tp11
a(S'512677369'
S'Monika Puri'
tp12
a(S'100004940829002'
S'Nidhi Pawar'
tp13
a(S'100001518911413'
S'Swati Pal'
tp14
a(S'582093466'
S'Nivedita Kharkongor Chengappa'
tp15
a(S'100003664837958'
S'Jasmeet Bindra'
tp16
a(S'100000539220374'
S'Nishant Singh'
tp17
a(S'100003139582757'
S'Jyoti Dahiya'
tp18
a(S'100003663066869'
S'Vibhuti Sherawat'
tp19
a(S'100001083553436'
S'Subhashini Manoharan'
tp20
a(S'100002408724490'
S'Sonali Malhotra'
tp21
a(S'100004374850949'
S'Hansa Bharodiya'
tp22
a(S'1680605241'
S'Nikita Gautam'
tp23
a(S'100002453718586'
S'Roli Singhal'
tp24
a(S'100003504776993'
S'Jhanak Jain'
tp25
a(S'100002255343917'
S'Alisha Sethi'
tp26
a(S'100001810404624'
S'Isha Bodh'
tp27
a(S'100003895771651'
S'Lehar Batra'
tp28
a(S'1829814210'
S'Nandini Jain'
tp29
a(S'100006440701816'
S'Nehal Kapoor'
tp30
a(S'1150417606'
S'Ankit Kumar'
tp31
a(S'100006765431432'
S'Harleen Kaur'
tp32
a(S'100001060842526'
S'Sandhya Lal Dutt'
tp33
a(S'1583996767'
S'Harshita Kulshrestha'
tp34
a(S'100000496505369'
S'Shreya Khatri'
tp35
a(S'100004839814534'
S'Komal Kansal'
tp36
a(S'100004595920331'
S'Nalin Malhotra'
tp37
a(S'821118983'
S'Pallavi Lakra'
tp38
a(S'100003853386453'
S'Mridul Gera'
tp39
a(S'100001028945739'
S'Ishita Aggarwal'
tp40
a(S'1715774515'
S'Sidharth Yadav'
tp41
a(S'100002119389200'
S'Umesh Suranagi'
tp42
a(S'752684256'
S'Abhishek Bansal'
tp43
a(S'100000533728526'
S'Chirag Bhutani'
tp44
a(S'100005494896456'
S'Anjali Saroha'
tp45
a(S'100000249058137'
S'Varun Gupta'
tp46
a(S'100006405999263'
S'Pradeepti Prabhakar'
tp47
a(S'100002370463527'
S'Aishwarya Sachdeva'
tp48
a(S'903385720'
S'Pragya Ahuja'
tp49
a(S'100000078723663'
S'Kajol Aggarwal'
tp50
a(S'100004191903381'
S'Harshita Choudhary'
tp51
a(S'1260123371'
S'Arunav Garg'
tp52
a(S'100002869779658'
S'Ishita Chugh'
tp53
a(S'100001789375750'
S'Komal Kapoor Arora'
tp54
a(S'100000000909945'
S'Yashwin Thakker'
tp55
a(S'100003437297239'
S'Som Kartikey Pant'
tp56
a(S'671103488'
p57
S'Shruti Sharma'
tp58
a(S'100002714152184'
S'Chandan Oli'
tp59
a(S'100002868324361'
S'Usha Hariharan'
tp60
a(S'1066221679'
S'Khyati Sharma'
tp61
a(S'1359137328'
S'Nehal Arora'
tp62
a(S'100001031921112'
S'Suvigya Gupta'
tp63
a(S'100001113441193'
p64
S'Varun Kalra'
tp65
a(S'100004626841844'
S'Jatin Arora'
tp66
a(S'1067067529'
S'Himanshu Nagpal'
tp67
a(S'843053909'
p68
S'Procheta Chattaraj'
tp69
a(S'100004864477335'
S'Jagriti Singh'
tp70
a(S'100001996999717'
S'Deepanshu Malik'
tp71
a(S'100000441864196'
S'Kakoli Roy'
tp72
a(S'100004456688989'
S'Harsha Gautam'
tp73
a(S'100000939406152'
S'Ruchika Malik'
tp74
a(S'1471466192'
S'Poonam Bhyan'
tp75
a(S'100001273835486'
S'Pallavi Sahoo'
tp76
a(S'100002354317993'
S'Juhi Agrawal'
tp77
a(S'100001037735899'
S'Ayush Sharma'
tp78
a(S'100000556929180'
S'Prarthna Prarthana'
tp79
a(S'100008128723100'
S'Tamanna Ahuja'
tp80
a(S'100007340890050'
S'Jyo Tika'
tp81
a(S'100006743172998'
S'Jigyasa Chopra'
tp82
a(S'1302304699'
S'Ashwita Siri Vanga'
tp83
a(S'100001474184913'
S'Sainyam Kapoor'
tp84
a(S'100002404349192'
S'Priya Kalra'
tp85
a(S'100001775461376'
S'\\u0906\\u0936\\u0941\\u0924\\u094b\\u0937 \\u0915\\u0941\\u092e\\u093e\\u0930'
tp86
a(S'100002124731394'
S'Manoj Gupta'
tp87
a(S'100003980487670'
S'Arunima Gupta'
tp88
a(S'100000693549782'
S'Isha Snehal'
tp89
a(S'100002413718938'
S'Tanya Grover'
tp90
a(S'100003481916005'
S'Viola Lhmc'
tp91
a(S'100004137061922'
S'Pawan Sinhmar'
tp92
a(S'100003954163016'
S'Akanksha Chaudhary'
tp93
a(S'100003928161671'
S'Anu Aggarwal'
tp94
a(S'100000100813394'
S'Ajai Kapoor'
tp95
a(S'100000567402488'
S'Rajiv Bhatia'
tp96
a(S'100001147948238'
S'Namrata Hazarika'
tp97
a(S'1538745559'
S'Ritesh Kalra'
tp98
a(S'100003571627951'
S'Alka Ahuja'
tp99
a(S'736138083'
S'Vanshika Kakkar'
tp100
a(S'100001904039154'
S'Veenus Kalra'
tp101
a(S'100000131199027'
S'Taruna Pahuja'
tp102
a(S'668213021'
S'Tarun Sharma'
tp103
a(S'100003485059166'
S'Dishika Lal'
tp104
a(S'100002549645755'
S'Aakash Tuli'
tp105
a(S'1117617149'
S'Shikhar Gupta'
tp106
asS'id'
p107
S'100001186735486'
p108
sS'name'
p109
S'Kanika Kalra'
p110
s.