(dp1
S'friends'
p2
(lp3
(S'638347868'
S'Zeba Zaidi'
tp4
a(S'100000184723586'
S'Rajat Dhiman'
tp5
a(S'100000460088022'
S'Zoha Naqvi'
tp6
a(S'511516609'
S'Ismat Masood'
tp7
a(S'1537022940'
S'Vaishali Husain'
tp8
a(S'1356134331'
S'Shambhavi Saha'
tp9
a(S'1193354924'
S'Dawar Abbas Naqvi'
tp10
a(S'100001823389699'
S'Dawar Abbas'
tp11
a(S'504171898'
S'Abis Zaidi'
tp12
a(S'100005190152935'
S'Shehpar Abbas'
tp13
a(S'100001908133783'
S'Syeda Abeer Naqvi'
tp14
a(S'1211826498'
S'Samia Naqvi'
tp15
a(S'100001259183028'
S'Mohammad Irfan Naqvi'
tp16
a(S'100001439067579'
S'Yawar Abbas Naqvi'
tp17
a(S'100000987812159'
S'Abbas Ghazi Naqvi'
tp18
a(S'100000147333410'
S'Sadaf Azam'
tp19
a(S'540720261'
S'Zehra Naqvi'
tp20
a(S'1381177088'
S'Sameer Vaze'
tp21
a(S'1078992105'
S'Mohnish Kapoor'
tp22
a(S'100001072085087'
S'Razi Hadi'
tp23
a(S'1313468317'
S'Athar Zaidi'
tp24
a(S'100006136211657'
S'Basil Other Guy Haider'
tp25
a(S'100001769940099'
S'Mehwar Naqvi'
tp26
a(S'100002036322412'
S'Saman Zaidii'
tp27
a(S'578381243'
S'Wali Hyder Zaidi'
tp28
a(S'100000386616104'
S'Fahim Rizvi'
tp29
a(S'1417211050'
S'Ssr Zaidi'
tp30
a(S'796870709'
S'Asad Haider Zaidi'
tp31
a(S'692187593'
S'Khushboo Zehra Naqvi'
tp32
a(S'1121361304'
S'Madeeha Siddiqui'
tp33
a(S'674535465'
S'Rohan Dev'
tp34
a(S'100000894371888'
S'DrShariq Riaz'
tp35
a(S'631226022'
S'Ali Hyder Zaidi'
tp36
a(S'1005879556'
p37
S'Ammar Ahmad'
tp38
a(S'100000432260620'
S'Keewu Husain'
tp39
a(S'1385707289'
S'Fauzia Saeed'
tp40
a(S'100001321414612'
S'Aqeel Hasan Rizvi'
tp41
a(S'1523888664'
S'Gurinder Virdi'
tp42
a(S'100001604358257'
S'Adil Zaidi'
tp43
a(S'560978134'
S'Wasif Raza'
tp44
a(S'100007606594887'
S'Hasan Abbas Naqvi'
tp45
a(S'651431451'
S'Aashti Arif'
tp46
a(S'1033853221'
S'Syed Asif Akhtar Naqvi'
tp47
a(S'838819516'
S'Faraz Haider'
tp48
a(S'1241481613'
p49
S'Reuben Das'
tp50
a(S'1576824273'
S'Reza Rizvi'
tp51
a(S'740101498'
S'Farah Zia'
tp52
a(S'536919751'
S'Aamir Raza Taqvi'
tp53
a(S'100001031956826'
S'Afraaz Rizvi'
tp54
a(S'503763389'
S'Syed Aiman Raza'
tp55
a(S'714085061'
S'Asad Zaidi'
tp56
a(S'605647443'
S'Syed Rashid Husain Rizvi'
tp57
a(S'537904737'
S'Husain Imam'
tp58
a(S'1086682899'
S'Anusha Arif'
tp59
a(S'100000974559376'
S'Altaf Mehdi Naqvi'
tp60
a(S'802448330'
S'Arif Naqvi'
tp61
a(S'100002275907436'
S'Ibney Ali'
tp62
a(S'100004952136487'
S'Juhi Haider'
tp63
a(S'100001024729369'
S'Sayed Aamir'
tp64
a(S'100002481776829'
S'Alina Naqvi'
tp65
a(S'756083048'
S'Nakhat Ara Naqvi'
tp66
a(S'100003697703779'
S'Baqar Abbas Naqvi'
tp67
a(S'625932868'
S'Masood Hasan'
tp68
a(S'1055102032'
S'Zia Haider'
tp69
a(S'100000068548548'
S'Neha Aggarwal'
tp70
a(S'100000734522677'
S'Route Purple'
tp71
a(S'100003091423848'
S'Shuja Abbas'
tp72
a(S'1014510856'
S'Nida Raza Shehri'
tp73
a(S'1483732185'
S'Zeb Raza'
tp74
a(S'1534170810'
S'Zohra Y. Abdi'
tp75
a(S'684385828'
S'Norien Raza'
tp76
a(S'599853307'
S'Fauzia Saeed'
tp77
a(S'100000337534208'
S'Sanya Zaidi'
tp78
a(S'601172912'
S'Parvez Imam'
tp79
a(S'1566352339'
S'Mohsin Abbas'
tp80
a(S'730401078'
S'Zainab Zaidi'
tp81
a(S'741321971'
S'Shajee Siddiqui'
tp82
a(S'708914416'
S'Samar Zia'
tp83
a(S'100002658062177'
S'Sada Raza'
tp84
a(S'582252832'
S'Abdul Sami Khan'
tp85
a(S'100000412845703'
S'Tehreem Ruba Raza'
tp86
a(S'100006224977111'
S'Zuhair Ghazi Naqvi'
tp87
a(S'100000536611659'
S'Zaira Ahmad'
tp88
a(S'1747725742'
S'Yameena Naqvi'
tp89
a(S'100003237589454'
S'Raza Abbas'
tp90
a(S'1077602757'
S'Mojiz Ali Naqvi'
tp91
a(S'1351027386'
S'Leedyn Dean'
tp92
a(S'678067938'
S'Asma Zaidi'
tp93
a(S'1172027929'
p94
S'Mayank Manocha'
tp95
a(S'638711832'
S'Natalia Shibli'
tp96
a(S'643378016'
S'Shwetabh Krishna'
tp97
a(S'768378344'
S'Tabish Shibli'
tp98
a(S'100000941922574'
S'Sabika Zaidi'
tp99
a(S'1114401734'
S'Asim Zaidi'
tp100
a(S'100006062889091'
S'Sadaf Naqvi'
tp101
a(S'100006584653506'
S'Sabiha Zaidi'
tp102
a(S'100002404002411'
S'Ali Zafar'
tp103
a(S'567007792'
S'Sabina Zaidi'
tp104
a(S'1284033947'
S'Syed Raza Haider'
tp105
a(S'804848361'
S'Syed Quasain Ali Naqvi'
tp106
asS'id'
p107
S'100001793752913'
p108
sS'name'
p109
S'Amin Raza Sahil'
p110
s.