(dp1
S'friends'
p2
(lp3
(S'100001852596465'
p4
S'Sanket Tingre'
tp5
a(S'100002420678443'
S'Sagar Shendge'
tp6
a(S'100002340388522'
S'Sandeep Gawas'
tp7
a(S'100005703548305'
S'Savita Pawar'
tp8
a(S'100005042233121'
S'Ganesh Mote'
tp9
a(S'100000762178960'
p10
S'Aalok Shinde'
tp11
a(S'100001940140088'
S'Datta Chavan'
tp12
a(S'100007593854299'
S'Sai Mishra'
tp13
a(S'100002261153324'
S'Uttam Kachare'
tp14
a(S'100000505583265'
S'Somnath Waghmare'
tp15
a(S'100001434765907'
S'Dnyaneshwar Sitaram Molak'
tp16
a(S'100003881222720'
S'Manohar Pawar'
tp17
a(S'100002821154962'
S'Yogesh Dasade'
tp18
a(S'100003557485234'
p19
S'Prakash Birajdar'
tp20
a(S'100006262269695'
S'Pratap Tingre'
tp21
a(S'100002918978676'
S'Akshay Mane'
tp22
a(S'100001396260747'
S'Rohan Malwadkar'
tp23
a(S'100008109488762'
p24
S'Anu Pollard'
tp25
a(S'100006404168027'
S'Dhanraj Pawar'
tp26
a(S'100002377779932'
p27
S'\\u0927\\u0928\\u0902\\u091c\\u092f \\u091c\\u093e\\u0927\\u0935'
tp28
a(S'100002625996503'
S'Swadhin Khatavkar'
tp29
a(S'100001351004911'
S'Ashish Kishor Naidu'
tp30
a(S'100004464424053'
S'Kiran Anasane'
tp31
a(S'100001561552820'
S'Ravindra Pathare'
tp32
a(S'100003541279950'
p33
S'Prakash Pagare'
tp34
a(S'100003955441818'
S'Amol Rangnath Nawale'
tp35
a(S'100006434077098'
S'Sagar Parte'
tp36
a(S'100008060226678'
S'Yogesh Tingre'
tp37
a(S'100003781532717'
S'Kishor Hanchnalkar'
tp38
a(S'100005554123420'
S'Dnyandev Chaudhari'
tp39
a(S'100003152530911'
S'Nitin Pawar'
tp40
a(S'100005042228768'
S'Harish Pandilla'
tp41
a(S'100008133998564'
p42
S'Dattatray Tingre'
tp43
a(S'100003005780033'
S'Rajesh Parmar'
tp44
a(S'100002690963942'
p45
S'Adv Atul Parande'
tp46
a(S'100002959250940'
S'\\u0928\\u0917\\u0930\\u0938\\u0947\\u0935\\u0915 \\u0938\\u0924\\u0940\\u0936\\u092d\\u093e\\u090a \\u092e\\u094d\\u0939\\u0938\\u094d\\u0915\\u0947'
tp47
a(S'100006503721637'
S'Kiran P Salunkhe'
tp48
a(S'100001692112976'
S'Aniket Birajdar Patil'
tp49
a(S'100003298954315'
S'Kailas Pathare'
tp50
a(S'100002076773442'
p51
S'Bhima Mashalkar'
tp52
a(S'100001967035270'
S'Santosh Rokade'
tp53
a(S'100002551869095'
S'Rupesh Tingre'
tp54
a(S'100004336300353'
S'D.j. Ron Pune'
tp55
a(S'100002906539598'
S'\\u0915\\u093f\\u0930\\u0923 \\u0926\\u0924\\u094d\\u0924\\u093e \\u0938\\u093e\\u092c\\u0933\\u0947'
tp56
a(S'100004666324660'
S'Chandu Pawar'
tp57
a(S'100008044861124'
S'Ajay Kanaskar'
tp58
a(S'100003316572771'
S'Uday Salunkhe'
tp59
a(S'100004024802549'
S'Anand Dada'
tp60
a(S'100005307960021'
S'Pravin Kamble Kamble'
tp61
a(S'100002081201698'
p62
S'Navanath Khandve'
tp63
a(S'100002963314341'
p64
S'Nilesh Zanjurne'
tp65
a(S'100007837960648'
p66
S'Somnath K Tingre'
tp67
a(S'100003878223129'
S'Pranav Satav'
tp68
a(S'100005921537951'
S'\\u0936\\u093f\\u0935\\u092d\\u0915\\u094d\\u0924 \\u0905\\u0928\\u093f\\u0932 \\u091a\\u093e\\u0902\\u0926\\u0923\\u0947'
tp69
a(S'100006531969889'
S'Appaso Pawar'
tp70
a(S'100001146009452'
p71
S'PraTik KhaTal'
tp72
a(S'100004444781600'
p73
S'Suyash Tingare'
tp74
a(S'100001962070276'
p75
S'Rekha D Tingre'
tp76
a(S'100007980727276'
S'Amol Galande'
tp77
a(S'100003908629255'
S'Mayur Inamdar'
tp78
a(S'100006239496722'
S'\\u0906\\u092e\\u091a\\u0940 \\u0935\\u093f\\u0936\\u094d\\u0930\\u093e\\u0902\\u0924\\u0935\\u093e\\u0921\\u0940'
tp79
a(S'100003707621699'
S'\\u0916\\u093e\\u0928\\u093e\\u092a\\u0942\\u0930 \\u0924\\u093e\\u0932\\u0942\\u0915\\u093e \\u092e\\u093f\\u0924\\u094d\\u0930-\\u092e\\u0902\\u0921\\u0933'
tp80
a(S'100002038787183'
p81
S'Vishal Tingre'
tp82
a(S'100003506066781'
p83
S'Bhushan Parande'
tp84
a(S'100002181124212'
S'Avinash Sukunde'
tp85
a(S'100002051259379'
S'Dhananjay Jadhav'
tp86
a(S'100006614644598'
S'Sachin Disale'
tp87
a(S'100002623601102'
S'Hrishibaba Tingre'
tp88
a(S'100003684829203'
S'Rakesh Tingre Patil'
tp89
a(S'100005430704269'
S'\\u0906\\u0915\\u093e\\u0936 \\u0939\\u0928\\u0941\\u092e\\u0902\\u0924 \\u0917\\u093e\\u092f\\u0915\\u0935\\u093e\\u0921'
tp90
a(S'100006428072138'
S'Anand Landage'
tp91
a(S'100006365291614'
S'Sagar Parte'
tp92
a(S'100001996718545'
S'Vinod Kayasth'
tp93
a(S'100002750738033'
S'Vinod Parande'
tp94
a(S'100007318902255'
S'Pawar Anil'
tp95
a(S'100003795169562'
S'Yogesh Khese'
tp96
a(S'100004446251661'
S'Gurunath Birajdar'
tp97
a(S'100002258539967'
p98
S'Sachin Tingre'
tp99
a(S'100002679331034'
S'Chetan Temgire'
tp100
a(S'100003097073272'
p101
S'Nitin Tingre'
tp102
a(S'100004162148660'
S'Pradeep Tingre'
tp103
a(S'100003132543335'
p104
S'Mahesh Sagare'
tp105
a(S'100004260695889'
S'Dipak Kondalkar'
tp106
a(S'100005044388924'
S'Niteen Wani'
tp107
a(S'100002629781519'
S'Nilesh Shewale'
tp108
a(S'100004247792988'
p109
S'Siddharth Tarkase'
tp110
a(S'100001503883451'
S'Aniket A Shinde'
tp111
a(S'100000014223843'
S'Jagadish Deshpande'
tp112
a(S'100005451363369'
S'Hanmant Jadhav'
tp113
a(S'100003760216012'
S'\\u0905\\u092e\\u094b\\u0932 \\u092e\\u093e\\u0928\\u0947'
tp114
a(S'100002673088501'
S'Naresh Rathod'
tp115
a(S'100001928894706'
p116
S'Sushil Dete'
tp117
a(S'100007145161993'
S'Geeta Chavan'
tp118
a(S'100004032199647'
S'Mininath Maskar'
tp119
a(S'100004491090611'
S'Gopal Patil'
tp120
a(S'100003200907641'
S'Vishal Pawar'
tp121
a(S'100002658821050'
p122
S'Sachin Dusunge'
tp123
a(S'100002070825703'
p124
S'Vishal Thorat'
tp125
a(S'100002651288085'
S'Shantiraj Kutwal-patil'
tp126
a(S'100005769762462'
S'\\u0936\\u093f\\u0935\\u0930\\u093e\\u091c \\u092a\\u094d\\u0930\\u0924\\u093f\\u0937\\u094d\\u0920\\u093e\\u0923 \\u092b\\u0941\\u0932\\u0947\\u0928\\u0917\\u0930'
tp127
asS'id'
p128
S'100003332300481'
p129
sS'name'
p130
S'Suryakant Pawar'
p131
s.