(dp1
S'friends'
p2
(lp3
(S'100002046483674'
S'Abhishek Teerthankar'
tp4
a(S'100001308468137'
S'Ashish Singh'
tp5
a(S'100003158364311'
S'Amrendra Pandey'
tp6
a(S'100003188475202'
S'MD Faiz Alam'
tp7
a(S'100002859691985'
S'Abhishek Kumar'
tp8
a(S'100004831236849'
S'Mohan Ritu'
tp9
a(S'100001040123063'
S'Vishal Gupta'
tp10
a(S'100004682978817'
S'Shaukat Ali'
tp11
a(S'100002119454060'
S'Ashok Kumar Das'
tp12
a(S'1535676540'
S'Swati Shipra'
tp13
a(S'100006470356771'
S'Mahendra Kumar Basantri Dsp'
tp14
a(S'100001857956924'
S'Avinash Kumar'
tp15
a(S'100001602306316'
S'Akash Raj'
tp16
a(S'100002592947213'
S'Rajiv Jha'
tp17
a(S'100002532512190'
S'Vivekanand Roy'
tp18
a(S'100001308535506'
S'Vijayant Singh'
tp19
a(S'100001159247239'
S'Vishal Sah'
tp20
a(S'100002254009112'
S'Chandan Puri'
tp21
a(S'100000772994810'
S'Sanjeev Kumar'
tp22
a(S'100001983550136'
S'Anil Kumar Das'
tp23
a(S'100005199005420'
S'Neeraj Singh'
tp24
a(S'100002331596876'
S'Arun Kumar Jha'
tp25
a(S'100002610134002'
S'Nityeshwar Rai'
tp26
a(S'100001261584329'
S'Sheela Irani'
tp27
a(S'100002128461166'
p28
S'Sudhir Kumar Sdm'
tp29
a(S'100002503114374'
S'Sanjeet Kumar Prabhat'
tp30
a(S'1735074639'
S'\\u0932\\u094b\\u0915 \\u092a\\u094d\\u0930\\u0915\\u093e\\u0936'
tp31
a(S'100000828216169'
S'Sumit Saurabh Saurabh'
tp32
a(S'100004132180559'
S'S Faizur Rahman'
tp33
a(S'100001308731156'
S'Upendra Kumar Yadav'
tp34
a(S'100004840234950'
S'Anupa Kumari'
tp35
a(S'100003611885933'
S'Sruti Kes'
tp36
a(S'100001237788398'
S'Roop Ranjan Hargave'
tp37
a(S'100002236520293'
S'Narendra Pratap Singh'
tp38
a(S'1699194187'
S'Kumar Indra Prakash'
tp39
a(S'100001052806415'
S'Preeti Sinha'
tp40
a(S'100003260630258'
S'Sanjay Kumar Singh'
tp41
a(S'1315787951'
p42
S'Gaurav Pandey'
tp43
a(S'100000177683275'
S'Rakesh Kumar'
tp44
a(S'100002398212129'
S'Praneeta Patel'
tp45
a(S'100001669854166'
S'Md Sajjad'
tp46
a(S'100002217844033'
S'Sandhya Pandey'
tp47
a(S'100001829396792'
S'Rajkishor Singh'
tp48
a(S'100002821094916'
S'Amritesh Jha Kanhaiya'
tp49
a(S'100002383134073'
S'Gopal Sharan'
tp50
a(S'100001993694693'
S'Arpita Raj'
tp51
a(S'100006395893823'
S'Sukesh Kumar'
tp52
a(S'1801874967'
S'Rakesh Kumar Pandey'
tp53
a(S'100001158295178'
S'Manoj Singh'
tp54
a(S'100005312671916'
S'Anita Pandey'
tp55
a(S'715215032'
S'Bhaskar Ranjan'
tp56
a(S'100002203465544'
S'Sonu Ray'
tp57
a(S'100004927660562'
S'Abhishek Anand'
tp58
a(S'100000027091461'
S'Neha Nupur'
tp59
a(S'1604768428'
S'Vivekanand Singh Rathore'
tp60
a(S'100002073228892'
S'Chandan Kumar'
tp61
a(S'100000532660967'
p62
S'Nishikant Singh'
tp63
a(S'100004364764961'
S'Shivangi Gupta'
tp64
a(S'100003915777000'
S'Kavita Singh'
tp65
a(S'100006246692833'
S'Vishal Anand'
tp66
a(S'831667221'
S'Mayank Mishra'
tp67
a(S'100004311217016'
S'Kumar Amar Singh'
tp68
a(S'100002711693944'
S'Sikandar Sao'
tp69
a(S'100005890267889'
S'Mihir Gupta'
tp70
a(S'100000537969653'
S'Shikha Shilpi'
tp71
a(S'670828764'
S'Akhilesh Kumar'
tp72
a(S'100004075263212'
S'Rajni Das'
tp73
a(S'100003331642514'
S'Nishant Kiran'
tp74
a(S'100002466264268'
S'Ashok Kumar Singh'
tp75
a(S'100000520338554'
S'Nurul Haque'
tp76
a(S'100003795992394'
S'Rajesh Singh Prabhakar'
tp77
a(S'100003030807654'
S'Shahrayar Akhtar'
tp78
a(S'1334317483'
S'Gautam Anand'
tp79
a(S'100001377738943'
S'Bina Kumari'
tp80
a(S'100005782230520'
S'Asit Kumar Singh'
tp81
a(S'100004282567897'
S'Vineet Kumar'
tp82
a(S'100004117299803'
S'Shambhu Prasad Singh'
tp83
a(S'100000949672392'
S'Alok Singh'
tp84
a(S'100001265897705'
p85
S'Kamal Ahmad'
tp86
a(S'100006868140139'
S'Pankaj Bps'
tp87
a(S'100003477030214'
S'Raghvendra Singh'
tp88
a(S'100000165893770'
S'Shashi Bhushan'
tp89
a(S'100002361943130'
p90
S'Rashid Alam'
tp91
a(S'100002468944136'
S'Manoj Tiwari'
tp92
a(S'100005744504174'
S'Puja Sharma'
tp93
a(S'100001722073918'
S'Mukesh Kumar'
tp94
a(S'100000705129247'
S'Amit Sharan'
tp95
a(S'100000451056370'
S'Jai Prakash Singh'
tp96
a(S'100002743962639'
S'Niraj Kumar'
tp97
a(S'100004095710150'
S'Arya Gautam'
tp98
a(S'100004645840353'
S'Asha Bhagat'
tp99
a(S'100002283207130'
p100
S'Krishna Kumar Singh'
tp101
a(S'100002129766553'
S'Pavan Kumar Priya'
tp102
a(S'100002530997889'
S'Shamsh Tabrez'
tp103
a(S'100001964658398'
S'Rajiv Singh'
tp104
a(S'100002454519663'
S'Manoj Ram'
tp105
a(S'100000375172351'
S'Mukesh Kumar'
tp106
a(S'100001534584364'
S'Shishir Mishra'
tp107
a(S'1508462094'
S'Prantosh Kumar Das'
tp108
a(S'100004556682155'
S'Md Sabbir Alam'
tp109
a(S'100000795901892'
S'Anjani Kumar'
tp110
a(S'1079014993'
S'Alok Ranjan'
tp111
a(S'100001130647318'
S'Sushil Kumar Soni'
tp112
a(S'100000385642585'
S'Santosh Kumar'
tp113
a(S'100002563051966'
S'Pawan Kumar Singh Irts'
tp114
a(S'100004244173332'
S'Anand Sharma'
tp115
a(S'100002096121650'
S'Shankar Sharan Omi'
tp116
a(S'1509312872'
S'Lalit Sharma'
tp117
a(S'100006565391396'
S'Rashmi Gupta'
tp118
a(S'100001458046077'
S'Sapan Kumar'
tp119
a(S'100006656856876'
S'Nisheet Priya'
tp120
a(S'100003057894501'
S'Nirmala Gupta'
tp121
a(S'100001738606429'
S'Kumar Amit'
tp122
a(S'1081473732'
S'Mukul Ranjan'
tp123
a(S'100006133867330'
S'Chandan Puri'
tp124
a(S'100003656462593'
S'Annu Singh'
tp125
a(S'100004773606523'
p126
S'Mukesh Singh'
tp127
a(S'100002561253182'
S'Lal Babu'
tp128
a(S'100003996360326'
S'Rakesh Kumar'
tp129
a(S'100002980407000'
S'Surendra Prasad'
tp130
a(S'100003366732653'
S'Rabish Kumar'
tp131
a(S'100002564494348'
S'Tanvir Ahmad'
tp132
a(S'100002280081499'
S'Sunil Kumar'
tp133
a(S'100006482282191'
S'Ranvir Ranjan'
tp134
a(S'100001650444442'
S'Dita Ghatak'
tp135
a(S'100003229166982'
S'Khagesh Jha'
tp136
a(S'100001276877540'
S'Abhinav Dipankar'
tp137
a(S'100002991532146'
S'Manoj Kumar'
tp138
a(S'100002678866317'
S'Rajni Gupta'
tp139
a(S'100001620336062'
S'Pallavi Singh'
tp140
a(S'100002627240764'
S'Naresh Kumar'
tp141
a(S'100002369003717'
S'Snigdha Pradeep'
tp142
a(S'100000623348189'
S'Dushyant Kumar'
tp143
a(S'100000433140141'
S'Rajiv Shambhu'
tp144
a(S'100006455555471'
S'Ajay Prasad'
tp145
a(S'100002193535069'
S'Shalini Pragya'
tp146
a(S'100001998046738'
S'Pritish Kumar'
tp147
a(S'100000023387297'
p148
S'Kumar Nishant'
tp149
a(S'588237156'
S'Aditya Kumar Piyush'
tp150
a(S'100001834021323'
p151
S'Ranvijay Kumar'
tp152
asS'id'
p153
S'100004739021847'
p154
sS'name'
p155
S'Ashish Anand'
p156
s.