(dp1
S'friends'
p2
(lp3
(S'681219437'
S'Chitra Nanjappa'
tp4
a(S'100003020044337'
S'Neelima Kuttappa'
tp5
a(S'100002723779633'
S'Varsha Pradeep'
tp6
a(S'100005229906330'
S'Aishwarya Dechamma'
tp7
a(S'100003842786379'
S'Bop Psychiie Goo'
tp8
a(S'100003172138541'
S'Abhitna Rahul'
tp9
a(S'100004079025485'
S'Keerthi Kar B'
tp10
a(S'100005060016090'
S'Pravesh Bhandary'
tp11
a(S'100004094171117'
S'Raghu Veer'
tp12
a(S'100002390064260'
S'Pranith Ponnamma Akkapanda'
tp13
a(S'100001637348023'
S'Ashwin Ponnanna'
tp14
a(S'100004546483689'
S'Srinivas Yadav'
tp15
a(S'100001501189268'
S'Javed Sait'
tp16
a(S'100001123439155'
S"Nat'Kc Regent'org"
tp17
a(S'100001969465208'
S'Amogh Dv'
tp18
a(S'100003720388288'
S'Bhoomika Shivashankar'
tp19
a(S'100001265278602'
S'Agasthya M Anvekar'
tp20
a(S'100003127090997'
S'Mb Gangam'
tp21
a(S'100003847586464'
S'Spandana Suresh'
tp22
a(S'100002915666367'
S'Harsha R Gowda'
tp23
a(S'1260262410'
S'Vibha Chondamma'
tp24
a(S'100000164461819'
S'Sathvik Rao'
tp25
a(S'100000574308709'
S'Prajwal Cm'
tp26
a(S'100006463888868'
S'Shrunga Muthanna'
tp27
a(S'100002694280433'
S'Gagan Poonacha'
tp28
a(S'1337460254'
S'Mitali Poovayya'
tp29
a(S'100002629693545'
S'Tavleen Belliappa Ballachanda'
tp30
a(S'100004202772253'
S'Bharan Bopanna'
tp31
a(S'100003563810103'
S'Chiraag Shady Shady'
tp32
a(S'100002469516949'
S'L J Loye John'
tp33
a(S'100002101241996'
S'Ragha D Raj'
tp34
a(S'100001196313189'
S'Brijal Mac Brett'
tp35
a(S'100001499390137'
S'Sanjana Venkatesh'
tp36
a(S'100000508702255'
S'Shrena Biddappa'
tp37
a(S'100000313494377'
S'Nikitha Ganapathy'
tp38
a(S'100002386339051'
S'Pandanda Gagan'
tp39
a(S'100002314462173'
S'Krutharth Ajjinanda'
tp40
a(S'100003144571915'
S'Varun Patil'
tp41
a(S'100003511760891'
S'Ks Vivek'
tp42
a(S'100003160360338'
S'Likin Cb'
tp43
a(S'100000143869459'
S'Prayuk Chaisanit'
tp44
a(S'100002848196918'
S'Lipika Prem'
tp45
a(S'100004092576194'
S'Bachinadanda Bopaiah'
tp46
a(S'100001800195957'
S'Mahima Rao'
tp47
a(S'100003767688801'
S'Surya TR'
tp48
a(S'100005659086676'
S'Aiyappa MuckatiraKariappa'
tp49
a(S'100006880713320'
S'Anusha Gowda'
tp50
a(S'100007507241694'
S'Amir Abbas Abedini'
tp51
a(S'722971873'
S'Akash Aiyappa Mukkatira'
tp52
a(S'100005471290750'
S'Sanal Ikanadan'
tp53
a(S'100001092169612'
S'Adwaith Uthappa'
tp54
a(S'100001781112858'
S'Akash Shetty'
tp55
a(S'100001260865707'
S'Likitha KS'
tp56
a(S'100001838664200'
S'Radhika Poovayya'
tp57
a(S'100001721053317'
S'Nayanika Neelamma Pattada'
tp58
a(S'100003071054076'
S'Bhumika Ganapathy'
tp59
a(S'100005429467027'
S'Sitara Subbiah'
tp60
a(S'100003726872375'
S'Manasa Manu'
tp61
a(S'100002753795879'
S'Deepika R Gowda'
tp62
a(S'100001663209578'
S'Muthanna Kanathanda'
tp63
a(S'100002041678363'
S'Neethu Ds'
tp64
a(S'100001692909277'
S'Bhuvana Vasanth'
tp65
a(S'100002192689770'
S'Sitara Devayya'
tp66
a(S'100002621932377'
S'Puja Chengappa Kongettira'
tp67
a(S'100004336892070'
S'Prajwal Prg'
tp68
a(S'100000306151351'
S'Pavan Amarnath'
tp69
a(S'100001065113006'
S'Karan Madeyanda'
tp70
a(S'100001638237363'
S'Cheshma Biddatanda'
tp71
a(S'100002538364643'
S'Ayush Kothari'
tp72
a(S'100000534961543'
S'Amir Abedini'
tp73
a(S'100006694894163'
S'Mansoor Ahmed'
tp74
a(S'100000464948155'
S'Pranam Shady'
tp75
a(S'100003808748102'
S'Ranveer Ashi'
tp76
a(S'100003032741629'
S'Devaiah Ak'
tp77
a(S'702673641'
S'Deepthi Poovayya'
tp78
a(S'100005497506164'
S'Tarini Subbiah'
tp79
a(S'100003063729656'
S'Bariyanda Hamshita'
tp80
a(S'100003506956435'
S'Varshika Chondamma Thelapanda'
tp81
a(S'100002352580642'
S'Ponnolathanda Roshica'
tp82
a(S'100001060031535'
S'Nikhil Kumar'
tp83
a(S'100001954482519'
S'Juvena Ponamma'
tp84
a(S'100001444334781'
S'Vedanth Krishnappa'
tp85
a(S'100000222982821'
S'Ronith Prakash'
tp86
a(S'100002626273127'
S'Virat Bobo'
tp87
a(S'100003037815663'
S'Ashish Dak'
tp88
a(S'100001833370807'
S'Laxith Kariappa'
tp89
a(S'100001722757423'
S'Pranay Sethiya'
tp90
a(S'1753311132'
S'Yogesh Bhavnani'
tp91
a(S'100002635754490'
S'Deevith Ramchandra'
tp92
a(S'100004348028346'
S'Sharath Ravi'
tp93
a(S'100001688184779'
S'Ponjanda Moksh Chittiappa'
tp94
a(S'100003271069749'
S'Naman Choudary'
tp95
a(S'100004608185123'
S'Niru Gopal Gowda'
tp96
a(S'100002472710263'
S'Roshni Ponnamma'
tp97
a(S'100002543445935'
S'Rohan Kaveriappa'
tp98
a(S'100001138659892'
S'Swaroop Aiyappa'
tp99
a(S'100002068139189'
S'Kavery Mohan'
tp100
a(S'100001803778190'
S'Darshan B Venkatesh'
tp101
a(S'100002565332112'
S'Ummer Sham'
tp102
a(S'100001677671398'
S'Afrid Khan Pathan'
tp103
asS'id'
p104
S'100001966909188'
p105
sS'name'
p106
S'Thelapanda Ananya Muthamma'
p107
s.