(dp1
S'friends'
p2
(lp3
(S'100003750747559'
S'Mahi Singhaniya'
tp4
a(S'100001522522101'
S'Manish Mahajan'
tp5
a(S'100003695583620'
p6
S'Suresh Kardam'
tp7
a(S'100001189000545'
p8
S'Shalu Chawla'
tp9
a(S'100002559598467'
S'Rupak Raj'
tp10
a(S'100007700550180'
S'Pushpa Gautam'
tp11
a(S'100003360031835'
S'Deepa Raiswal'
tp12
a(S'100001669285075'
S'Mac Rdx'
tp13
a(S'100002759813301'
S'Jamuna Panchabh'
tp14
a(S'100004313797122'
S'Aryan Chauhan'
tp15
a(S'100003237233512'
p16
S'Rahul Kamiya'
tp17
a(S'100007564981454'
S'Kumar Gaurav'
tp18
a(S'100008319433206'
p19
S'Sanjay Sulania'
tp20
a(S'100001902381128'
p21
S'Vikas Gautam'
tp22
a(S'100005860358576'
S'Kim Salwania'
tp23
a(S'100002146463652'
S'Manjeet Singh'
tp24
a(S'100002360690723'
p25
S'Karan Gautam'
tp26
a(S'100007470520996'
S'Kanchan Sharma'
tp27
a(S'100007753711483'
S'Rahul Kamiya'
tp28
a(S'100002267666882'
p29
S'Aashi Sisodiya'
tp30
a(S'100002218042211'
S'Krishna Kumar'
tp31
a(S'100001472436947'
p32
S'Keshav Sinjali'
tp33
a(S'100001467662129'
S"Seema's Gurgaon Delhi"
tp34
a(S'100002951011480'
S'Pooja Gautam'
tp35
a(S'100004582531593'
p36
S'Pinky Gautam'
tp37
a(S'100004107758829'
S'Dharmendra Chaudhary'
tp38
a(S'100004612177052'
S'Ram Narayan Salwania'
tp39
a(S'100004335578796'
p40
S'Shagun Kardam'
tp41
a(S'100002187346267'
p42
S'Love Sisodiya'
tp43
a(S'100006336312477'
p44
S'Vinod Jayant'
tp45
a(S'100000618180356'
p46
S'Rohit Gautam'
tp47
a(S'100002551810209'
p48
S'Chef Deepak Chaudhary'
tp49
a(S'100001919566927'
S'Govind Prasad Gond'
tp50
a(S'100006630553463'
S'Abhi Gautam'
tp51
a(S'100001759689312'
p52
S'Rohit Kumar Gautam'
tp53
a(S'100000768446133'
p54
S'Dharam Vir Sherra'
tp55
a(S'100003714663356'
S'Sandeep Singh'
tp56
a(S'100001289413523'
S'Zahid Ali'
tp57
a(S'100001526706557'
S'Bobby Thapa'
tp58
a(S'100000702889793'
S'Deepak Mishra'
tp59
a(S'100002271231482'
S'Santosh Parida'
tp60
a(S'100003891588833'
S'Hitesh Sharma'
tp61
a(S'100004251365619'
p62
S'Parvesh Gautam'
tp63
a(S'100003621046644'
S'Dharam Vir Sherra'
tp64
a(S'100002409663545'
S'Madhu Sinha'
tp65
a(S'100002228913876'
p66
S'Annu Gautam'
tp67
a(S'100003143698229'
p68
S'Mukesh Jarwal'
tp69
a(S'100003548800813'
S'Huma Kausar'
tp70
a(S'100008371150827'
S'Neelam Raiswal'
tp71
a(S'100003244429067'
p72
S'Jatin Gautam'
tp73
asS'id'
p74
S'100001898140936'
p75
sS'name'
p76
S'Bhawna Jarwal'
p77
s.