(dp1
S'friends'
p2
(lp3
(S'100002875613082'
S'Pawan Lakhlan'
tp4
a(S'100006269618788'
S'Anilsingh Chaudhary'
tp5
a(S'100007580708199'
S'Anil Sheoran Garwa'
tp6
a(S'100007479001641'
S'Vinod Sheoran'
tp7
a(S'100004555777120'
S'Dinesh Mann'
tp8
a(S'100007256324535'
S'Bhim Singh'
tp9
a(S'100007631377792'
S'Anand Singh'
tp10
a(S'100006367600980'
S'Sombiriya Matu'
tp11
a(S'100003774052757'
S'Anand Kumar'
tp12
a(S'100004635697295'
S'Sandeep Sihag'
tp13
a(S'100002239648130'
S'Surender Yoga'
tp14
a(S'100003050953016'
S'Rajendra Singh'
tp15
a(S'100008049851375'
S'Walishankar Shankar'
tp16
a(S'100008242248101'
S'Suresh Kaliramna'
tp17
a(S'100003376257644'
S'Pawan Pandey'
tp18
a(S'100007411509517'
S'Dharmender Lakhlan'
tp19
a(S'100006777031581'
S'Rajib Chakraborty Rajib'
tp20
a(S'100003044634798'
S'Ankush Anuj'
tp21
a(S'100005985933511'
S'Rachana Pareek'
tp22
a(S'100002831281875'
S'Balwan Singh'
tp23
a(S'100001818672307'
S'Parveen Kumar'
tp24
a(S'100007850042932'
S'Joya Bishnoi Bikaner'
tp25
a(S'100004212645892'
S'Sonika Lakhlan'
tp26
a(S'100008250090259'
S'Shyam Bishnoi'
tp27
a(S'100007190523871'
S'Shashi Raj'
tp28
a(S'100006940207356'
S'Chandana Mistry'
tp29
a(S'100003015956018'
S'Nisha Singh'
tp30
a(S'100005284560089'
S'Rakesh Kaliramana'
tp31
a(S'100006808750158'
S'Pawan Kishor Pawan'
tp32
a(S'100005640544744'
S'Ankur Goswami'
tp33
a(S'100006434480485'
S'Surender Singh Khichi'
tp34
a(S'100007600442176'
S'Virendra Garwa'
tp35
a(S'100007744473951'
S'Dharmendra Kumar'
tp36
a(S'100004020243250'
S'Kaipee Singh'
tp37
a(S'100006544305008'
S'Mangal Chand'
tp38
a(S'100004377843761'
S'Sunita Choudhary'
tp39
a(S'100007901581586'
S'Ashok Kumar'
tp40
a(S'100008076216792'
S'Rakesh Kumar Yadav'
tp41
a(S'100007749602557'
S'Vikesh Chaudhary'
tp42
a(S'100008079910425'
S'Sanjay Saha Sanjay'
tp43
a(S'100006269853445'
S'Sarves Singh'
tp44
a(S'100006221322354'
S'Ashwini Kumar'
tp45
a(S'100006005202481'
S'Abhay Rawat Abhay Rawat'
tp46
a(S'100008307709890'
S'Pankaj Jaat'
tp47
a(S'100005305237489'
S'Renu Kumari Verma'
tp48
a(S'100004301284168'
S'Vikash Dhatarwal'
tp49
a(S'100008298226728'
S'Komal Kumari'
tp50
a(S'100007961700962'
S'Pravesh Rai'
tp51
a(S'100005834863983'
S'Sanjay Lenka'
tp52
a(S'100005013002033'
S'Vikash Sangwan Pardhan Garwa'
tp53
a(S'100008079370461'
S'Devendra Kumar Sharma'
tp54
a(S'100007848786568'
S'Arman Choudhary'
tp55
a(S'100007663150301'
S'Dinakar Deena'
tp56
a(S'100007744145208'
S'Pankaj Kumar'
tp57
a(S'100006166332181'
S'Mukesh Jat Janashpura'
tp58
a(S'100002115743362'
S'Deshwal Satish'
tp59
a(S'100007560819113'
S'Sanju Godara'
tp60
a(S'100005354344630'
S'Pooja Kumari'
tp61
a(S'100007510895807'
S'Anuj Kaliramana Garwa'
tp62
a(S'100008298112822'
S'Sandeep Sheoran'
tp63
a(S'100003247364526'
S'Sonam S Singh'
tp64
a(S'100007944631486'
S'Jaiveer Singh'
tp65
a(S'100007077100811'
S'Sunita Sunita'
tp66
a(S'100003805990541'
S'Saroj Kumar'
tp67
a(S'100008338416703'
S'Rajeshkumar Tiwari'
tp68
a(S'100005715853416'
S'Ajay Kumar Kaliramana'
tp69
a(S'100004785161451'
S'Princess Shrutika'
tp70
a(S'100007650931074'
S'Basram Meena'
tp71
a(S'100006433323634'
S'Rajesh Garwa Inld'
tp72
a(S'100006514623028'
S'Biju Puthumala'
tp73
a(S'100007758432799'
S'Pooja Chodhary Toliyasar'
tp74
a(S'100007221457695'
S'Visha Maheshwari'
tp75
a(S'100005377123043'
S'Krishan Poonia'
tp76
a(S'100002380765257'
S'Dinesh Kumar'
tp77
a(S'100007543543685'
S'Harvinder Garwa'
tp78
a(S'100008054563683'
S'Babita Rani'
tp79
a(S'100003298428737'
S'Lakshya Verma'
tp80
a(S'100004773212811'
S'Jitendra Mishra'
tp81
a(S'100007477413624'
S'Anil Lakhlan'
tp82
a(S'100007748493077'
S'Chandan Krj'
tp83
a(S'100005202796290'
S'Satish Garwa'
tp84
a(S'100007495993571'
S'Shyamendra Singh'
tp85
a(S'100003643434755'
S'Manju Kumar'
tp86
a(S'100005579834294'
S'Krishan Kumar'
tp87
a(S'100007801514130'
S'Kusum Kumari'
tp88
a(S'100007311400435'
S'Ajay Garwa'
tp89
a(S'100008297464674'
S'Inld Garwa'
tp90
a(S'100006301988254'
S'Jaswant Nandal'
tp91
a(S'100003187321249'
S'Parveen Patwan'
tp92
a(S'100008255080779'
S'Anand Singh'
tp93
a(S'100007157411459'
S'Sunita Kumari'
tp94
a(S'100004507174813'
S'Ravinder Garwa'
tp95
a(S'100002593196026'
S'Vinod Kumar'
tp96
a(S'100007814412235'
S'Sonam Kanver Sonam'
tp97
a(S'100007402802583'
S'Saroj Kumar Tiwari'
tp98
a(S'100003495104456'
S'Manisha Pareek'
tp99
a(S'100003115553511'
S'Vijender Sharma Vasist'
tp100
a(S'100007077571237'
S'Sandeep Sheoran'
tp101
a(S'100005403665748'
S'Abhishek Diwedi'
tp102
a(S'100007614910526'
S'Suman Jangra'
tp103
a(S'100003655383337'
S'Subhash Choudary'
tp104
a(S'100007768600097'
S'Sanjay Sangwan'
tp105
a(S'100007208222247'
S'Suman Dhattarwal'
tp106
a(S'100006512163402'
S'Poonam Jangid'
tp107
a(S'100007729690728'
S'Sunita Choudhary Choudhary'
tp108
a(S'100002810161472'
S'Ravi Choudhary'
tp109
a(S'100003216221774'
S'Sunil Chhirang Sunil Chhirang'
tp110
a(S'100008018831273'
S'Sangitha Kumari'
tp111
a(S'100006423991935'
S'Dharma Rebal'
tp112
a(S'100003982472464'
S'Rajesh Balwada'
tp113
a(S'100007711896048'
S'Jaipal Singh'
tp114
a(S'100005838578570'
S'Sunil Chhirang'
tp115
a(S'100007730315814'
S'Krish Rani'
tp116
a(S'100008365500053'
S'\\u0938\\u093e\\u0902\\u0935\\u0930\\u0940 \\u092c\\u093f\\u0936\\u094d\\u0928\\u094b\\u0908'
tp117
a(S'100007868941800'
S'Satyender Singh'
tp118
a(S'100008342710342'
S'\\u0938\\u0941\\u0928\\u093f\\u0932 \\u0915\\u0941\\u092e\\u093e\\u0930 \\u0916\\u094c\\u0921\\u093e\\u0901'
tp119
a(S'100007427315800'
S'Pratap Ranwa'
tp120
a(S'100007667293270'
S'Pooja Kumari'
tp121
a(S'100004649618939'
S'Rahul Mandal'
tp122
a(S'100003321010640'
S'Ramraj Jat'
tp123
a(S'100008166818772'
S'Sia Sharma'
tp124
a(S'100006471926316'
S'Sukender Phogat'
tp125
a(S'100003058407168'
S'M D Jaat Godara'
tp126
a(S'100002606862125'
S'Somveer Singh'
tp127
a(S'100003849327099'
S'Digvijay Sinh Vaghela'
tp128
a(S'100006492233679'
S'Rajib Chakraborty'
tp129
a(S'100006326823631'
S'Kulbir Singh'
tp130
a(S'100007792184041'
S'Jhantu Manna'
tp131
a(S'100003622764277'
S'Bharat Bahadur'
tp132
a(S'100004042605357'
S'Deepak Sangwan'
tp133
a(S'100002531393125'
S'Mamraj Singh Chauhan'
tp134
a(S'100006295360212'
S'Risky Beniwal Rajgarh'
tp135
a(S'100005537418671'
S'Lalchand Wids Anita'
tp136
a(S'100007713395178'
S'Sarita Sharma Sarita'
tp137
a(S'100005512033376'
S'Pardeep Kumar Khichi'
tp138
a(S'100001852479091'
S'Choudhary Rakesh Sheoran'
tp139
a(S'100007376673608'
S'Suresh Jhuriya'
tp140
a(S'100008222144638'
S'Mahima Chaudhary'
tp141
a(S'100007419073138'
S'Prince Sharma Sonu'
tp142
a(S'100002298806735'
S'Rajnish Garg'
tp143
a(S'100007687832309'
S'Ravindra Nath Yadav'
tp144
a(S'100006360730812'
S'Sunita Kumari Sihag'
tp145
a(S'100008101659129'
S'Sanjeev Kumar'
tp146
a(S'100006976143085'
S'Suman Jat Jat'
tp147
a(S'100006463615600'
S'Ashok Kumar'
tp148
a(S'100008211660899'
S'Sunita Godara'
tp149
a(S'100003654402205'
S'Harman Kaur'
tp150
a(S'100004063490560'
S'Raj Patel'
tp151
a(S'100008345169844'
S'Jogender Garwa'
tp152
a(S'100006627930318'
S'Baljeet Singh Khichi'
tp153
a(S'100005066405583'
S'Sunil Sharma'
tp154
a(S'100008153888776'
S'Anilduggineni Anilduggineni'
tp155
a(S'100002674075621'
S'Chetan Choudhary'
tp156
a(S'100008083001854'
S'Vijay Sain'
tp157
a(S'100004060104515'
S'Mannu Kumari Jat'
tp158
a(S'100008302545127'
S'Abhishek Diwedi'
tp159
a(S'100008252972391'
S'Arjun Kumar'
tp160
a(S'100004137760357'
S'Haripal Sangwan Inld'
tp161
a(S'100008214527331'
S'Surender Kataria'
tp162
a(S'100003130415516'
S'\\u0913\\u092e\\u092c\\u0940\\u0930 \\u0917\\u094b\\u092a\\u093e\\u0932\\u0935\\u093e\\u0938\\u093f\\u092f\\u093e\\u0901'
tp163
a(S'100003389527911'
S'Anita Kumari'
tp164
a(S'100003492673231'
S'Choudhary Vijay Sheoran'
tp165
a(S'100005555261268'
S'Monika Verma Gokulpura'
tp166
a(S'100003979241295'
S'Umesh Sheoran'
tp167
a(S'100007325593363'
S'Satya Satya'
tp168
asS'id'
p169
S'100007697256250'
p170
sS'name'
p171
S'Kulbir Singh Garwan'
p172
s.