(dp1
S'friends'
p2
(lp3
(S'100001425048785'
S'Muhammad Asif Ziar'
tp4
a(S'100000088992259'
S'Shahabuddin Shahab'
tp5
a(S'100002007966951'
S'Maahreen Afghan'
tp6
a(S'1473152305'
p7
S'Mustafa Salek'
tp8
a(S'100002046740428'
S'Bilal Ahmed Khan'
tp9
a(S'100000038223680'
S'Zahid Akhter'
tp10
a(S'100002183507376'
S'\\u0632\\u0631\\u063a\\u0648\\u0646\\u0647 \\u062e\\u0627\\u0646\\u0647'
tp11
a(S'100002256155251'
S'Amir Jan Hewadmal'
tp12
a(S'100001048940706'
S'Abdulmalik Stanizai'
tp13
a(S'100001299928960'
S'\\u0631\\u0648\\u0628\\u06d0\\u0646\\u0647 \\u0634\\u06d0\\u0646\\u0648\\u0627\\u0631\\u06d0'
tp14
a(S'584515088'
p15
S'Minanak Totakhil'
tp16
a(S'100000053739166'
p17
S'Syed Jillani Jallan'
tp18
a(S'100001998184399'
S'Atiq Ullah Sirat'
tp19
a(S'782686288'
p20
S'Hanif Hairan'
tp21
a(S'783171154'
p22
S'Asad Danish'
tp23
a(S'100002094202881'
p24
S'\\u063a\\u0631\\u0685\\u0627\\u0646\\u06cd \\u063a\\u0631\\u0627\\u0646\\u06cd'
tp25
a(S'100002059581751'
S'Laila Khan'
tp26
a(S'100002258097536'
S'Sana Staiesh Wazeri'
tp27
a(S'1619126786'
p28
S'Zabihullah Ehsas'
tp29
a(S'100002149553055'
S'Naseebullah Shahab'
tp30
a(S'100003188348130'
S'Zainab Ahmadzai'
tp31
a(S'100002085311776'
p32
S'Mena Mangal'
tp33
a(S'100002764476272'
S'Naeem Serat'
tp34
a(S'100002119782379'
S'Ajnabi Nadan'
tp35
a(S'100002247704638'
S'Saifullah Shahab'
tp36
a(S'100002070460698'
p37
S'Basharmal Khan'
tp38
a(S'100001981198493'
S'Abdul Ghafoor Saqib'
tp39
a(S'100000234188866'
S'Princes Ghazala'
tp40
asS'id'
p41
S'100002366801582'
p42
sS'name'
p43
S'Sultan Zahid'
p44
s.