(dp1
S'current_text'
p2
VGwalior\u000aCurrent City
p3
sS'name'
p4
S'Rajendra Kumar Atre'
p5
sS'current_class'
p6
S'india'
p7
sS'friends'
p8
(lp9
(S'100003870131916'
S'Rajendra Kumar Atre'
tp10
asS'id'
p11
S'100003870131916'
p12
sS'current_link'
p13
Vhttps://www.facebook.com/l.php?u=https%3A%2F%2Fwww.bing.com%2Fmaps%2Fdefault.aspx%3Fv%3D2%26pc%3DFACEBK%26mid%3D8100%26where1%3D26.223599985146%252C%2B78.1787109375%26name%3DGwalior%26mkt%3Den-IN&h=9AQG9hyq8&s=1
p14
s.