(dp1
S'friends'
p2
(lp3
(S'100002150402856'
S'Kamal Singh'
tp4
a(S'100004813531594'
S'Armaan Khan'
tp5
a(S'100002628810017'
p6
S'Linda Liquarius'
tp7
a(S'100005016037197'
S'Yogiender Rexwal'
tp8
asS'id'
p9
g6
sS'name'
p10
S'Linda Liquarius'
p11
s.