(dp1
S'friends'
p2
(lp3
(S'100001737755143'
S'\\u0628\\u0633\\u0645\\u0647 \\u064a\\u0627\\u0633\\u0631'
tp4
a(S'100002272172193'
S'\\u0645\\u062d\\u0645\\u062f \\u0627\\u0628\\u0648 \\u0627\\u0644\\u0639\\u0644\\u0627'
tp5
a(S'100001550348281'
S'\\u0645\\u062f\\u0627\\u0645 \\u062f\\u0627\\u0644\\u064a\\u0627 \\u0643\\u0628\\u0627\\u0631\\u064a\\u0647'
tp6
a(S'100003120259063'
S'\\u0631\\u064a\\u0647\\u0627\\u0645 \\u062e\\u0637\\u0627\\u0628'
tp7
asS'id'
p8
S'100002272172193'
p9
sS'name'
p10
S'\\u0645\\u062d\\u0645\\u062f \\u0627\\u0628\\u0648 \\u0627\\u0644\\u0639\\u0644\\u0627'
p11
s.