(dp1
S'friends'
p2
(lp3
(S'689290827'
S'Ankush Venkatesh'
tp4
a(S'100000467513037'
S'Ssmile Hyatt'
tp5
a(S'100000192729707'
S'Roobal Sharma'
tp6
a(S'1208465205'
S'Zo\\u00eb Dominique Subbiah'
tp7
a(S'1588171873'
S'Parth Malhotra'
tp8
a(S'100000178806359'
S'Nishi Pandey Dhanjal'
tp9
a(S'100000139879911'
S'Lakshya Bhardwaj'
tp10
a(S'1489582023'
p11
S'Siddharth Ajwani'
tp12
a(S'100002117355322'
S'Simran Kataria'
tp13
a(S'578210835'
p14
S'Akanksha Arora'
tp15
a(S'100000311764252'
S'Shradha Diwakar Singh'
tp16
a(S'1524165253'
S'Novy Oberoi'
tp17
a(S'1501413985'
S'Armaan Singh Bhatia'
tp18
a(S'100001150661409'
S'Akshita Chaudhary'
tp19
a(S'593853576'
S'Tanya Gaur'
tp20
a(S'1033052326'
S'Mohit Yadav'
tp21
a(S'1041906946'
S'Natasha Miranda'
tp22
a(S'100001901467985'
S'Hansa Sharma'
tp23
a(S'1317631081'
S'Devina Duggal'
tp24
a(S'100000839065552'
S'Pratyush Mishra'
tp25
a(S'1068410058'
p26
S'Deblina Das'
tp27
a(S'1489587242'
S'Sarthak Choudhary'
tp28
a(S'100001122828158'
S'Anshita Dabral'
tp29
a(S'1343296762'
S'Jasleen Sidak Singh'
tp30
a(S'100002295294587'
S'Kriti Singh'
tp31
a(S'100000308866255'
S'Afnan Qureshi'
tp32
a(S'698562806'
S'Naina Arya'
tp33
a(S'1631597839'
S'Pranab Gambhir'
tp34
a(S'1540182438'
p35
S'Pramathyu Awasthi'
tp36
a(S'1624903428'
S'Varun Singh'
tp37
a(S'100000008038065'
S'Vidit Arora'
tp38
a(S'100000137851713'
S'Abhinav Gupta'
tp39
a(S'1215137230'
S'Niharika Singh'
tp40
a(S'1562337388'
S'Vasundhra Yadav'
tp41
a(S'1047474727'
S'Kunal Sethi'
tp42
a(S'588016863'
p43
S'Srijan Bhatia'
tp44
a(S'1587906678'
p45
S'Yogini Oberoi'
tp46
a(S'766054792'
p47
S'Ateesh Nandi'
tp48
a(S'651512644'
p49
S'Mriganka Chawla'
tp50
a(S'100000632156316'
S'Himaadri Sharma'
tp51
a(S'658793878'
S'Mahima Sharma'
tp52
a(S'1176048136'
S'Pulkit Rana'
tp53
a(S'657120373'
S'Gursakhi Lugani'
tp54
a(S'1544942514'
S'Saumya Saxena'
tp55
a(S'1461576314'
S'Ida Ghatge'
tp56
a(S'100000693352267'
S'Diksha Gemini'
tp57
a(S'1046824055'
S'Prathiksha Shetty'
tp58
a(S'100000916224972'
S'Chandni Oberoi'
tp59
a(S'559488614'
S'Anshika Verma'
tp60
a(S'1822572083'
S'Vineet Taneja'
tp61
a(S'1026086193'
S'Shubham Nanda'
tp62
a(S'1746657744'
S'Ansuya Maira'
tp63
a(S'100002918163682'
S'Palak Ahuja'
tp64
a(S'1748842205'
S'Akul Jagga'
tp65
a(S'1527957640'
S'Abhirup Basu'
tp66
a(S'100000125379035'
S'Pranav Chhokra'
tp67
a(S'1004616961'
S'Mohit Yadav'
tp68
a(S'1221070449'
S'Mudit Pathak'
tp69
a(S'100000434449459'
S'Shivang Sharma'
tp70
a(S'1116845199'
S'Sanchet Pardal Kumar'
tp71
a(S'100000312521156'
S'Kashish Vasudeva'
tp72
a(S'1105514203'
S'Anahitha Sagar'
tp73
a(S'1635851229'
S'Radhika Batra'
tp74
a(S'100000616656912'
S'Paayal Aggarwal'
tp75
a(S'100000267735756'
S'Shivank Goel'
tp76
a(S'1637040033'
S'Rhea Singh'
tp77
a(S'100002284898289'
S'P\\u00ee\\u00fd\\u00f9sh Du\\u0163\\u0165'
tp78
a(S'100000846697510'
S'Siddharth Varma'
tp79
a(S'100000294266863'
S'Diksha Vikas'
tp80
a(S'100001877924420'
S'Sumer Joshua'
tp81
a(S'100002625333083'
S'Karan Krishna'
tp82
a(S'1359761289'
S'Rahul Amlekar'
tp83
a(S'1469179814'
S'Samarth Arora'
tp84
a(S'1151200950'
S'Sana Bhatia'
tp85
a(S'1482030600'
S'Shahrukh Ali'
tp86
a(S'1051006929'
p87
S'Mudita Yadav'
tp88
a(S'1348377589'
S'Arti Varma'
tp89
a(S'693419740'
S'Noorain Nisal'
tp90
a(S'1458107933'
S'Abhishek Narula'
tp91
a(S'100000923464533'
S'Manica Kathuria'
tp92
a(S'1284870992'
S'Kartik Chopra'
tp93
a(S'100000193027880'
S'Nikita Arora'
tp94
a(S'1075150518'
S'Khyati Jain'
tp95
a(S'1160709410'
S'Ronak Batra'
tp96
a(S'1371002008'
S'Himalay Goel'
tp97
a(S'1486024120'
S'Adarsh Kumar'
tp98
a(S'569121704'
S'Shreya Bedi'
tp99
a(S'100002985840441'
S'Vidhi Jaswal'
tp100
a(S'1100470317'
S'Yogeshwar Sharma'
tp101
a(S'1369977533'
S'Sukoon Sharma'
tp102
a(S'100000786002257'
S'Neha Pandey'
tp103
a(S'1302578286'
S'Karan Veer Singh'
tp104
a(S'814429783'
S'Daksh Sharma'
tp105
a(S'1658032265'
S'Nivedita Jha'
tp106
a(S'100000245373948'
S'Dollops Singh'
tp107
a(S'100000547556028'
S'Siddharth Tandon'
tp108
a(S'1216512207'
S'Chirag Gupta'
tp109
a(S'1532891233'
S'Pranav Gupta'
tp110
a(S'1402593347'
S'Sahithi Boinpally'
tp111
a(S'100001213112040'
S'Komal Rana'
tp112
asS'id'
p113
S'100001109797175'
p114
sS'name'
p115
S'Prakhar Sharda'
p116
s.