(dp1
S'friends'
p2
(lp3
(S'100002766630658'
S'\\u0627\\u0633\\u0644\\u0627\\u0645 \\u0632\\u0646\\u062f\\u0647 \\u0628\\u0627\\u062f'
tp4
a(S'100003522856128'
S'\\u0645\\u0628\\u0627\\u0631\\u0632\\u0647 \\u0639\\u0644\\u06cc\\u0647 \\u0628\\u06cc\\u06a9\\u0627\\u0631\\u06cc'
tp5
a(S'100006582336796'
S'\\u0627\\u062a\\u062d\\u0627\\u062f\\u06cc\\u0647 \\u0645\\u06cc\\u0648\\u0647 \\u062e\\u0634\\u06a9 \\u062a\\u062e\\u0627\\u0631'
tp6
a(S'100004918905105'
S'Mohamad Masoomi'
tp7
a(S'100006478913891'
S'\\u0645\\u0648\\u062a\\u0631\\u0641\\u0631\\u0648\\u0634\\u064a \\u0645\\u062d\\u0645\\u062f \\u0622\\u0635\\u064a\\u0641 \\u0648\\u0628\\u0631\\u0627\\u062f\\u0631\\u0627\\u0646'
tp8
a(S'100008145030147'
S'\\u0645\\u0631\\u06cc\\u0645 \\u0645\\u0642\\u062f\\u0633 \\u0628\\u062f\\u062e\\u0634'
tp9
a(S'100000790257698'
S'Ramin Mulzem'
tp10
a(S'100007242964561'
S'\\u0634\\u0631\\u0641 \\u0627\\u0644\\u062f\\u064a\\u0646'
tp11
a(S'100006246609530'
S'\\u6797\\u660e\\u5b97'
tp12
a(S'100003552352362'
S'\\u0645\\u0644\\u0627 \\u0646\\u0648\\u06a9\\u062a\\u06cc\\u0632'
tp13
a(S'100006251673195'
S'\\u0634\\u0627\\u0647\\u0646\\u0634\\u0627\\u0647 \\u0647\\u0646\\u062f\\u0648\\u0643\\u0634'
tp14
asS'id'
p15
S'100000790257698'
p16
sS'name'
p17
S'Ramin Mulzem'
p18
s.