(dp1
S'friends'
p2
(lp3
(S'1490358305'
S'Ghaffar Khan Mandokhail'
tp4
a(S'1521332872'
S'Abhinav Mathur'
tp5
a(S'817018303'
S'Ahmed Shaan Ullah'
tp6
a(S'100000687497393'
S'Pakhtun Development'
tp7
a(S'100000179194393'
S'Munawar Kakar'
tp8
a(S'1021812917'
S'Fateh Shah Arif'
tp9
a(S'1341211288'
S'Barakwal Myakhel'
tp10
a(S'100000332132368'
S'Manaf Khan'
tp11
a(S'1363235034'
S'Rafiullah Mandokhail'
tp12
a(S'686921594'
S'Mustafa Khan'
tp13
a(S'100001479339376'
S'Zahoor Khetran'
tp14
a(S'1325088324'
S'Hasni Sajid'
tp15
a(S'591181105'
S'Zafar Ullah Musakhail'
tp16
a(S'1337973882'
S'Hammad Qayyum'
tp17
a(S'706679899'
S'Shamsi Khan'
tp18
a(S'100000749753379'
S'Eusafi Gondal'
tp19
a(S'100000610159952'
S'Naimat Nazari'
tp20
a(S'100002995371110'
S'Malik Bazai'
tp21
a(S'100000373810801'
S'Sarbaz Pashtoon'
tp22
a(S'688068667'
S'Hasan Shabbir Rana'
tp23
a(S'718600967'
S'Jabbar Khattak'
tp24
a(S'100004835561142'
S'Anwar Jan'
tp25
a(S'100000639863739'
S'Abdul Razaq'
tp26
a(S'597938642'
S'Jibran Shah'
tp27
a(S'100002215880438'
S'Ali Asghar Khan'
tp28
a(S'100002036084779'
S'Akhtar Gul Mandokhel'
tp29
a(S'100000608193187'
S'Zain Khan'
tp30
a(S'100001062097596'
S'Hameed Khan'
tp31
a(S'100000594141753'
S'Mangi Asadullah'
tp32
a(S'761074762'
S'Sakhawat Ali'
tp33
a(S'100000507623824'
S'Kamran Taj'
tp34
a(S'648043230'
S'Inayat Ullah'
tp35
a(S'100000866239842'
S'Asif Junaid'
tp36
a(S'100000605476674'
S'Obaidullah Forotan'
tp37
a(S'100000297328720'
S'Najeeb Oyghor'
tp38
a(S'100000442060661'
S'Mahmood Rashid'
tp39
a(S'100000897373577'
S'Muhammad Ramzan Kakar'
tp40
a(S'100004676491797'
S'Sohail Khattak'
tp41
a(S'1242495216'
S'Kaleemullah Mandokhail'
tp42
a(S'670359680'
S'Mohammad Bilal Khan'
tp43
a(S'1410493257'
S'Samreen Ayoub'
tp44
a(S'1333806930'
S'Naseeb Khan Kakar'
tp45
a(S'100000385225952'
S'Khuda Bakhsh Mirbahar'
tp46
a(S'100000355406575'
S'Basharmal Nasar'
tp47
a(S'100000184488645'
S'Ark Biodiversity'
tp48
a(S'100000258876933'
S'Karim Khan'
tp49
a(S'100000078010378'
S'Abdul Rehman Mandokhail'
tp50
a(S'766298915'
S'Shifa Ul Haq'
tp51
a(S'100000239819273'
S'Kaleem Khan'
tp52
a(S'100003838708501'
S'Ahmed Mengal'
tp53
a(S'100000653645370'
S'Ameenullah Peerzada'
tp54
a(S'100000937776658'
S'Muhammad Salman Arshad'
tp55
a(S'100003285127967'
S'Tahir Khan'
tp56
a(S'1406131114'
S'Kaasai Kaasai'
tp57
a(S'513916368'
S'Amjad Tareen'
tp58
a(S'100004363059979'
S'Aamarah Fateen'
tp59
a(S'100001464134959'
S'Rj Nasim Mandokhel'
tp60
a(S'1660908684'
S'Ghani Rahman'
tp61
a(S'1102777731'
S'Sideequllah Tareen'
tp62
a(S'1159250840'
S'Mushtaq Ahmed Vighio'
tp63
a(S'100000527077741'
S'Aryan Khan'
tp64
a(S'100000472291951'
S'Muhammad Haroon'
tp65
a(S'1336635032'
S'Abdul Moeed'
tp66
a(S'100000337465713'
S'Farhat Majeedani'
tp67
a(S'100002085311776'
S'Mena Mangal'
tp68
a(S'100000555765124'
S'Ijaz Ahmed'
tp69
a(S'100000189322304'
S'Saqib Surani'
tp70
a(S'1842636809'
S'Umar Shah'
tp71
a(S'1077871434'
S'Nadir Nazir'
tp72
a(S'1024404759'
S'Malik Achakzai'
tp73
a(S'100000614555228'
S'Arif Khan'
tp74
a(S'100000202840521'
S'Naseeb Kakar'
tp75
a(S'100000775052598'
S'Abdul Malik Kasi'
tp76
a(S'1682484012'
S'\\u067e\\u069a\\u062a\\u0648\\u0646 \\u0627\\u0641\\u063a\\u0627\\u0646'
tp77
a(S'100002533940804'
S'Saboor Khan'
tp78
a(S'100002216182617'
S'Mir Wais Khan Mandokhail'
tp79
a(S'100000513716244'
S'Meesam Abbas'
tp80
a(S'1671728281'
S'Dr-Rahim Buledi'
tp81
a(S'643463324'
S'Imtiaz Ahmad'
tp82
a(S'1728767915'
S'Muhammad Kashif'
tp83
a(S'592798800'
S'Nazir Ahmed'
tp84
a(S'100000473899082'
S'Yousaf Gul Kakar'
tp85
a(S'100000738995780'
S'Anam Bashir'
tp86
a(S'100000016475859'
S'Aziz Sherani'
tp87
a(S'100001338028993'
S'Ubaid Qureshi'
tp88
a(S'100000003468951'
S'Shahzada Babar'
tp89
a(S'656131786'
S'Shah-kar Khan-Afghan'
tp90
a(S'100001283890829'
S'Najeeb Kakar'
tp91
a(S'100001534168232'
S'Qurbaan Baloch'
tp92
a(S'100001959856109'
S'Talib Hussain Zardari'
tp93
a(S'1577416435'
S'Jawad Khan Jadoon'
tp94
a(S'100002538023102'
S'Drfayaz Solangi'
tp95
a(S'1564505537'
S'M Dawood Khan Wazir'
tp96
a(S'100000610723079'
S'Adil Shah'
tp97
a(S'1849828081'
S'Riaz Ur Rahman'
tp98
a(S'100002185967918'
S'Mehreen Sheikh'
tp99
a(S'1646190959'
S'Hasan Javed'
tp100
a(S'1039299741'
S'Jansher Khan'
tp101
a(S'1447216138'
S'Khushal Kasi'
tp102
asS'id'
p103
S'100002084982579'
p104
sS'name'
p105
S'Aazad Khattak'
p106
s.