(dp1
S'friends'
p2
(lp3
(S'100002783368867'
S'Rishabh Shetty'
tp4
a(S'100000820977756'
S'Saket Kadam'
tp5
a(S'100001852596465'
p6
S'Sanket Tingre'
tp7
a(S'100003152701876'
S'Arbaaz Shaikh'
tp8
a(S'100005580994203'
S'Navnath Pasange'
tp9
a(S'100000556057937'
S'Hiten Mutreja'
tp10
a(S'100002009600978'
S'Akshay Ambre'
tp11
a(S'1444057173'
S'Parag More'
tp12
a(S'100000797191336'
S'Aaquib Rayani'
tp13
a(S'100000166825869'
S'Farsho K Irani'
tp14
a(S'100001794412864'
S'Aditya Tingre Patil'
tp15
a(S'100001486664837'
S'Rajashree Sawant'
tp16
a(S'100000883784601'
S'Vedant Paithankar'
tp17
a(S'1831731790'
S'Roger Saldhana'
tp18
a(S'100006061655791'
S'Rohit Punde'
tp19
a(S'100001945865491'
S'Vaspan Mehernosh Munshi'
tp20
a(S'100001218648719'
S'Aditya More'
tp21
a(S'100000275551858'
S'Pratik Swaminathan'
tp22
a(S'100000603854252'
S'Mihir Rawalekar'
tp23
a(S'100000739323180'
S'Vaspar Bodhanwala'
tp24
a(S'602377056'
S'Mandar Tamhane'
tp25
a(S'1008341960'
S'Aditya Bhatia'
tp26
a(S'100001131520121'
S'Sanket Burse'
tp27
a(S'100000751366329'
S'Omkar Dahiwelkar'
tp28
a(S'100001585010328'
S'Jeevan Nalge'
tp29
a(S'100000205891811'
S'Shahrukh Bhamani'
tp30
a(S'646162690'
S'Nisha Jacob'
tp31
a(S'100000714110774'
S'Tohid Sk'
tp32
a(S'100001864470815'
S'Sandeep Barathe'
tp33
a(S'1432663927'
S'Nishant Mavlingkar'
tp34
a(S'100000709665651'
S'Sahil Kamble'
tp35
a(S'100000378695878'
S'Juned Qureshi'
tp36
a(S'100000298062925'
S'Bhavesh Rachcha'
tp37
a(S'100002890730472'
S'Kaizan Awari'
tp38
a(S'100000602912524'
S'Harshal Patil'
tp39
a(S'100000655366350'
S'Nikhil Kamble'
tp40
a(S'100001156028844'
S'Raj Bhanwadia'
tp41
a(S'100002540112393'
S'Ankur Sancheti'
tp42
a(S'100001061370878'
S'Ashish Shinde'
tp43
a(S'1402594123'
S'Yash Zagade'
tp44
a(S'100006485663819'
S'AVilash Paul'
tp45
a(S'100002505313143'
S'Shubham Kale'
tp46
a(S'100000656988752'
S'Rajat More'
tp47
a(S'1276451742'
S'Aman Kitake'
tp48
a(S'100003302098349'
S'Swapnil Mane'
tp49
a(S'100000257558343'
S'Jayant Nimbalkar'
tp50
a(S'100000459958169'
S'Aniket Bhatewara'
tp51
a(S'1395550404'
S'Junaid Khimjibhai'
tp52
a(S'674717090'
S'Prabuddha Ingle'
tp53
a(S'100002387769852'
S'Faiz Mitha'
tp54
a(S'100000245255570'
S'SoHam ShElar'
tp55
a(S'100000473348197'
S'Omesh Sankpal'
tp56
a(S'100002440841175'
S'Sumeet Pawar'
tp57
a(S'100003855123513'
S'Aniket Kamble'
tp58
a(S'100000658243336'
S'Saifali Bhanwadia'
tp59
a(S'100000282429886'
S'Sandesh Dalvi'
tp60
a(S'100001211745661'
S'Sanket Anbhule'
tp61
a(S'100000513041209'
S'Sohan Choudhary'
tp62
a(S'100002648992713'
S'Somesh Ghodke'
tp63
a(S'100002638425067'
S'Sidhant Bhandare'
tp64
a(S'100001848600920'
S'Vicky Sethiya'
tp65
a(S'100000704006011'
S'Sushrut Narandekar'
tp66
a(S'100000165700529'
S'Prasad Pathak'
tp67
a(S'100000167615739'
S'Jal Irani'
tp68
a(S'1786845587'
S'Naushad Bodhanwala'
tp69
a(S'100004192801335'
S'Luvnish Anandani'
tp70
a(S'100000233270299'
S'Aditya Bapat'
tp71
a(S'100000640503012'
S'Rohit Uttekar'
tp72
a(S'100000947615706'
S'Rusi Karanjia'
tp73
a(S'100000294120656'
S'Uday Kang'
tp74
a(S'100002311144736'
S'Tanmay Tekawade'
tp75
a(S'100000209955655'
S'Pankaj Rode'
tp76
a(S'100000497103393'
S'\\u00c4m\\u00ea\\u00fd K\\u00e3rm\\u00fcd\\u00ee'
tp77
a(S'1847466465'
S'Hormazd Appoo'
tp78
a(S'1317605876'
S'Karim Dinani'
tp79
a(S'100008037219574'
S'Akshay Chavan'
tp80
a(S'100002344305973'
S'Aditya More'
tp81
a(S'100000975805141'
S'Vinayak Bangar'
tp82
a(S'100000308847786'
S'Siddhant Kardile'
tp83
a(S'100001900602897'
S'Rahul Bomble'
tp84
a(S'100000166294898'
S'Anuj Pundalik'
tp85
a(S'1026462972'
S'Advaith Inamke'
tp86
a(S'100000501638448'
S'Shubham Dudhediya'
tp87
a(S'1783206306'
S'Ryan Shaikh'
tp88
a(S'100001208148003'
S'Omkar Jagtap'
tp89
a(S'100000403876774'
S'Aditya Moze'
tp90
a(S'100001071366597'
S'Omkar Chittar'
tp91
a(S'100000666156916'
S'Sharbani Dutta'
tp92
a(S'100001467453254'
S'Edwin Varghese'
tp93
a(S'100003080146557'
S'Kaushal Shetty'
tp94
a(S'100002449121221'
S'Rushikesh Sherekar'
tp95
a(S'100000161277229'
S'Aashay Sahai'
tp96
a(S'100000652078543'
S'Suraj Kadam'
tp97
a(S'100003502780369'
S'Prasad Nayagar'
tp98
a(S'100007363831079'
S'Prasad Nayagar'
tp99
a(S'100000391751905'
S'Yash Naik'
tp100
a(S'100000279540266'
S"Siddhesh 'sid' Bhasale"
tp101
a(S'100004732203528'
S'Asad Sayyed'
tp102
a(S'100001898987061'
S'Akkshay Gaikwad'
tp103
a(S'100000541291949'
S'Shaan Kadam'
tp104
asS'id'
p105
S'100002491410336'
p106
sS'name'
p107
S'Ashish Awati'
p108
s.