(dp1
S'name'
p2
S'Salman Asif'
p3
sS'current_class'
p4
S'pakistan'
p5
sS'home_text'
p6
VBahawalpurwala, Punjab, Pakistan\u000aHometown
p7
sS'current_link'
p8
Vhttps://www.facebook.com/l.php?u=https%3A%2F%2Fwww.bing.com%2Fmaps%2Fdefault.aspx%3Fv%3D2%26pc%3DFACEBK%26mid%3D8100%26where1%3D31.549700669186%252C%2B74.343109130859%26name%3DLahore%252C%2BPakistan%26mkt%3Den-IN&h=YAQEHQ5x2&s=1
p9
sS'home_link'
p10
Vhttps://www.facebook.com/l.php?u=https%3A%2F%2Fwww.bing.com%2Fmaps%2Fdefault.aspx%3Fv%3D2%26pc%3DFACEBK%26mid%3D8100%26where1%3D29.675000853715%252C%2B71.791534423828%26name%3DBahawalpurwala%252C%2BPunjab%252C%2BPakistan%26mkt%3Den-IN&h=QAQFsB5tp&s=1
p11
sS'current_text'
p12
VLahore, Pakistan\u000aCurrent City
p13
sS'friends'
p14
(lp15
(S'100007472389076'
S'Imran Kinza'
tp16
a(S'100007183243800'
S'Ulfat Nazir'
tp17
a(S'100007893720215'
S'Prince Mani'
tp18
a(S'100001383623426'
S'Salman Asif'
tp19
a(S'100007888084536'
S'Muhammad Imtiaz'
tp20
asS'id'
p21
S'100001383623426'
p22
s.