(dp1
S'friends'
p2
(lp3
(S'100003722873180'
S'Abdullah Awan'
tp4
a(S'100003502930810'
p5
S'Riaz Hussain Phulpoto'
tp6
a(S'100005828860519'
p7
S'Pakistan Zindabad'
tp8
a(S'100005447620952'
p9
S'Muhammad Shahzaib Patel'
tp10
a(S'100001833301640'
p11
S'Love Pakistan'
tp12
a(S'1052824961'
S'Sidrah Siddiqui'
tp13
a(S'100005269686192'
p14
S'Allahnoorkhan Pathan'
tp15
a(S'100003759364730'
p16
S'Prince Saim Ali'
tp17
a(S'100002368160330'
p18
S'\\u0645\\u062f\\u062b\\u0631 \\u0622\\u0641\\u0631\\u06cc\\u062f\\u06cc'
tp19
a(S'100004095341780'
S'Sahib Jaan Sargarh'
tp20
a(S'100004680819975'
p21
S'Sher E Pakistan'
tp22
a(S'100002164133412'
p23
S'Fahad Alanazi'
tp24
a(S'100001698460395'
p25
S'Lewanay Khan'
tp26
a(S'100003326046267'
p27
S'Rizwan Methuo'
tp28
a(S'100002044123592'
p29
S'Pak Pakistan'
tp30
a(S'866270432'
S'Muhammad Mujtaba Suhail'
tp31
a(S'100003752268554'
p32
S'MohibeWatan Pakistan'
tp33
a(S'100001818841998'
S'Ahsan Ch Ahsan Ch'
tp34
a(S'100003289263602'
p35
S'Sheikh Sajid Apml'
tp36
a(S'100005383361280'
S'Saawal Balouch'
tp37
a(S'100002378511269'
p38
S'Umar Rajpuit'
tp39
a(S'100003195130012'
p40
S'Shafiq Ahmad'
tp41
a(S'100002664664126'
p42
S"Rai'zaada Riz"
tp43
a(S'100002257859198'
p44
S'Parw\\u00e4z E Jan\\u00f6\\u00f6n'
tp45
a(S'100002507854223'
p46
S'Umer Malik'
tp47
a(S'100000680948959'
p48
S'Yousuf Khan'
tp49
a(S'100002611323081'
p50
S'Abbasi \\u00d1\\u00e4\\u00ecf'
tp51
a(S'100000295753887'
p52
S'Pakistan Zindabad'
tp53
a(S'100005910193588'
p54
S'Furqan Chauhan'
tp55
a(S'100005915983545'
p56
S'Jeay Pakistan'
tp57
a(S'100002094475197'
p58
S'Syeda Seerat Fatima'
tp59
a(S'100006285494176'
p60
S'Ali Mughal'
tp61
a(S'100004033699228'
p62
S'Shehryar Khan Jadoon'
tp63
a(S'1529300602'
p64
S'Patriotic Shah'
tp65
a(S'100000261567512'
p66
S'Fareed Memon'
tp67
a(S'100003755130772'
p68
S'Malik Shehroz'
tp69
a(S'1343315937'
p70
S'Shahid Ghulam'
tp71
a(S'100002168644350'
p72
S'Muhammad Mustafa'
tp73
a(S'100001734873091'
p74
S'AF Pakistan'
tp75
a(S'100006133681328'
p76
S'True Islam'
tp77
a(S'100002610923475'
p78
S'Ali Ejaz'
tp79
a(S'100000903247118'
p80
S'Fakhre Pakistan'
tp81
a(S'100001504255158'
p82
S'Muhammad Sohaib Malkham'
tp83
a(S'100003734749186'
p84
S'Sahil Khan'
tp85
a(S'100000208062147'
p86
S'Time To Capture India'
tp87
a(S'100001425155586'
p88
S'Ch Pervaiz Akbar'
tp89
a(S'100002405885990'
p90
S'Pakistan Love'
tp91
a(S'1226637338'
p92
S'\\u0627\\u0628\\u0648 \\u0634\\u0631\\u062d\\u0628\\u064a\\u0644'
tp93
a(S'100001811169012'
S'Ra Haq'
tp94
a(S'100005358578538'
p95
S'Muhammad Ammar Hassan Leghari'
tp96
a(S'100000991216680'
p97
S'Mag Gishkori'
tp98
a(S'100004746554255'
p99
S'Bol Pakistan Bol'
tp100
a(S'100005055221438'
S'Rana Bilal'
tp101
a(S'100002927333185'
p102
S'Gumnaam Spahi'
tp103
a(S'100004604223985'
p104
S'Usman Khan Yousaf Zai'
tp105
a(S'100002191962077'
p106
S'Jmj Sialkot'
tp107
a(S'100003700508823'
S'Haseeb Raja Captain'
tp108
a(S'100000185346262'
p109
S'Drmubeen Ahmad'
tp110
a(S'100002707297429'
p111
S'Pakistan Zindabad InshaAllah'
tp112
a(S'100001717000482'
p113
S'Real Pakistan'
tp114
a(S'100003589916302'
S'Baqir Raza Tarar'
tp115
a(S'100000923930127'
S'Mani Butt'
tp116
a(S'100003469667829'
p117
S'Muhammad Ayan Khan'
tp118
a(S'100001754675723'
p119
S'Pakistan Zindabad'
tp120
a(S'100002844713148'
p121
S'Bilal Habib'
tp122
a(S'100001362693716'
S'Noman Arzu Noman'
tp123
a(S'100003987204888'
p124
S'Diya Rehman Khan'
tp125
a(S'100003291379255'
p126
S'Pak Sarzameen'
tp127
a(S'100003931025312'
p128
S'Muhammad Sadiq'
tp129
a(S'100001381359197'
p130
S'Faheem Chaudhry'
tp131
a(S'100003620102943'
p132
S'Muhammad Nisar Awan'
tp133
a(S'100000184140477'
p134
S'Join Pakistan'
tp135
a(S'100003086442561'
p136
S'Ghulam Fakhar Ud Din'
tp137
a(S'100002633829814'
S'Abdul Hayee'
tp138
a(S'100002581169271'
p139
S'Ali Hassan'
tp140
a(S'100002792917609'
p141
S'Pakistan Zindabad'
tp142
a(S'100003612323188'
p143
S'Usama Iqbal Gondal'
tp144
a(S'100002133132750'
S'Sahibzada Fazal Akbar'
tp145
a(S'100001669544920'
p146
S'Ashraf Nawaz'
tp147
a(S'100002745018885'
p148
S'Muhammad Ali'
tp149
a(S'100000096907919'
p150
S'Isha Ali'
tp151
a(S'100002416955612'
p152
S'Sajjad Khan'
tp153
a(S'100003298196413'
p154
S'No Fear'
tp155
a(S'100001233328566'
p156
S'Humara Pakistan'
tp157
a(S'100002267682605'
p158
S'Farhan Qureshi'
tp159
a(S'100003343560984'
S'Syed Abdullah'
tp160
a(S'100003166427155'
S'Anar S-Zadeh'
tp161
a(S'100000579922983'
p162
S'Fuaad Alawi'
tp163
a(S'100001700498775'
p164
S'Waheed Abbasi'
tp165
a(S'100005094583933'
p166
S'\\u0645\\u062d\\u0645\\u062f \\u0627\\u062c\\u0645\\u0644'
tp167
a(S'100002621862822'
p168
S'Syed Mudasar Ali Shah'
tp169
a(S'100003356894083'
p170
S'Amaad Khokhar'
tp171
a(S'100000622839761'
p172
S'Mohammad Yasir Iqbal'
tp173
a(S'100002766203430'
p174
S'Princces Melyza'
tp175
a(S'100001927537117'
p176
S'\\u067e\\u0627\\u06a9\\u0633\\u062a\\u0627\\u0646 \\u0632\\u0646\\u062f\\u0647 \\u0628\\u0627\\u062f'
tp177
a(S'100002840343170'
p178
S'Green Hope'
tp179
a(S'100004009855403'
p180
S'Abrar Bhai'
tp181
a(S'100001680062679'
p182
S'\\u063a\\u06cc\\u0648\\u0631 \\u067e\\u0627\\u06a9\\u0633\\u062a\\u0627\\u0646\\u06cc'
tp183
a(S'100003133207153'
p184
S'Mera Pakistan'
tp185
asS'id'
p186
S'100005827330825'
p187
sS'name'
p188
S'Pakistan Zindabad'
p189
s.