(dp1
S'friends'
p2
(lp3
(S'100004039091134'
S'Neelakshee Baruah'
tp4
a(S'100001329216852'
S'Sarfaraz Devereux'
tp5
a(S'100002005500116'
S'Siddharth Boro'
tp6
a(S'100003122898102'
S'Kim Olive Jeong'
tp7
a(S'100002028297599'
S'Shubham Tripathi'
tp8
a(S'100002110530009'
S'Jonathan Boruah'
tp9
a(S'100000889713161'
S'\\u0166\\u0127\\u0119 F\\u0173\\u0146\\u0137\\u00fd \\u0110\\u00f9\\u0111\\u0119'
tp10
a(S'100002920926104'
S'Avi Saikia'
tp11
a(S'100000940514175'
S'Bonnie Nunisa'
tp12
a(S'100002244181664'
S'Sherlock Thengal'
tp13
a(S'100002209615440'
S'Khanikar SMita'
tp14
a(S'100001524984212'
S'Sharada Prasad Mishra'
tp15
a(S'100003559307764'
S"Niv D'loi"
tp16
a(S'100001567543904'
S'Biyanka Bori'
tp17
a(S'100002010641554'
S'Arunabh Choudhury'
tp18
a(S'100003339157644'
S'Riya Kashyap'
tp19
a(S'100004047911072'
S'Karishma Dutta'
tp20
a(S'100003463205766'
S'Priya Singh'
tp21
a(S'1447188360'
S'Sushant Divgikar'
tp22
a(S'100001528004036'
S'Hemanga Marley Leito'
tp23
a(S'100005140686565'
S'Himanshu Borthakur'
tp24
a(S'100004238439640'
S'Ishanee Kamal'
tp25
a(S'100002464742343'
S'Vishakha Das'
tp26
a(S'100003680007260'
S'Chandana Rabha'
tp27
a(S'100000709141279'
S'Sakil Borah'
tp28
a(S'100001098274161'
S'Diksha Khaund'
tp29
a(S'100001907475447'
S'Buddhayan Bhattacharjee'
tp30
a(S'100002612515825'
S'Manjushree Konwar'
tp31
a(S'1049405266'
S'Rytom Routh'
tp32
a(S'100000104466001'
S'Pujashree Sharma'
tp33
a(S'100001308240704'
S'Sohidzi Hasnu'
tp34
a(S'100004396664480'
S'Sapna Suraj Poddar'
tp35
a(S'100000991368185'
S'Kunaljit Deka'
tp36
a(S'100001322385313'
S'Sushmita Sen'
tp37
a(S'100004253344278'
S'DinadoYal Das'
tp38
a(S'100003315159836'
S'Peenaz Ahmed'
tp39
a(S'100002412802961'
S'Bipasha Chetia'
tp40
a(S'100003038812118'
S'Shyashree Saikia'
tp41
a(S'100000765540165'
S'Jan Kishore Gogoi'
tp42
a(S'100001765197822'
S'Himangshu Deori'
tp43
a(S'100002336972220'
S'Ankita Hazarika'
tp44
a(S'100004274495935'
S'Lenin Rajkumar Chirua'
tp45
a(S'100002681474492'
S'Deepjyoti Bora'
tp46
a(S'100002060674236'
S'Kim Sam Jeong'
tp47
a(S'100002634460044'
S'Punk Love Lenin'
tp48
a(S'100003539600406'
S'Rahul Sonowal Saikia'
tp49
a(S'100003174406819'
S'Krite Riyan'
tp50
a(S'100004443247282'
S'Plabi Deori'
tp51
a(S'100003704919195'
S'Subhashree Sarmah'
tp52
a(S'100000901505091'
p53
S'Kaushik Dutta'
tp54
a(S'100002075053895'
S'Chakrapani Parashar'
tp55
a(S'100000241535765'
S'Shah Alam'
tp56
a(S'100002480434043'
S'Alokesh Deka'
tp57
a(S'100002805573499'
S'Dibyojyoti Kalita'
tp58
a(S'100004202470701'
S'Doly Boro'
tp59
a(S'100002828533617'
S'Paponist Aditya Rock'
tp60
a(S'100003502861205'
S'Fired Boy Suzi'
tp61
a(S'100008252190201'
S'Shyamashree Kashyap'
tp62
a(S'100002666668334'
S'Nandan Gautam'
tp63
a(S'100003187267256'
S'Mikky Sharma'
tp64
a(S'100001624116457'
S'Ankit DeDevilish'
tp65
a(S'100002868155632'
S'Shahnawaz Hussain'
tp66
a(S'100001052735522'
S'Pallavi Brahma'
tp67
a(S'100002024254716'
S'Dikshit Kashyap'
tp68
a(S'100001956912278'
S'Sagarika C. Jones'
tp69
a(S'100003020428213'
S'Swati Gupta'
tp70
a(S'100001001623991'
p71
S'Kabyashree Sonowal'
tp72
a(S'100001734252306'
S'Dinesh Sah'
tp73
a(S'100000886322091'
S'Saptarshi R Choudhury'
tp74
a(S'100004028092238'
S'Bharat Bhusan Dutta'
tp75
a(S'100000920683477'
S'Soumik Sarker'
tp76
a(S'100001622725863'
S'Alakesh Barman'
tp77
a(S'1183427065'
S'Rishav Baruah'
tp78
a(S'100001264268113'
S'Kajal Shahaney'
tp79
a(S'100005949571811'
S'Ritom Raj Goswami'
tp80
a(S'100000561791276'
S'Kollol Baruah'
tp81
a(S'100000993364902'
S'Disha Pegu'
tp82
a(S'100002127773944'
S'Sumit Mahanta'
tp83
a(S'100002477013916'
S'Kashyap Arunabh'
tp84
a(S'100003710014308'
S'Nilav Boruah'
tp85
a(S'100002874925568'
S'Maini Bosumotari'
tp86
a(S'100002099347058'
S'Vishal Dev'
tp87
a(S'100007097911068'
S'Nang Barbiprince Boruah'
tp88
a(S'100007058765249'
S'Bidisha Borpatragohain'
tp89
a(S'100003783976142'
S'Sewali Das'
tp90
a(S'100001193496586'
S'Chipi Neitham'
tp91
a(S'100002686108982'
S'Sarvanu Kashyap Choudhury'
tp92
a(S'100001377027604'
S'Tridip Kalita'
tp93
a(S'100000907970567'
S'Ankur Ray'
tp94
a(S'100000979334014'
S'Amchi Watre Momin'
tp95
a(S'100001721922581'
S'Angad Riang Thakuria'
tp96
a(S'100000763688862'
S'Rahi Alex Akond'
tp97
a(S'100003855180477'
S'Chinmoy Ghosh'
tp98
a(S'100001986480163'
S'Deepak Bhilwaria'
tp99
a(S'100002661913737'
S'Swargadeu Animesh Buragohain'
tp100
a(S'1283347367'
S'Nikkita Borah'
tp101
a(S'100005189134587'
S'Sukanya Gogoi'
tp102
a(S'100008170951551'
S'Mistu Choudhury'
tp103
a(S'100003966093547'
S'Bruce SandMan'
tp104
a(S'100001663396534'
S'RuPam HazariKa'
tp105
asS'id'
p106
S'100002500779221'
p107
sS'name'
p108
S'Gayatri Sharma'
p109
s.