(dp1
S'friends'
p2
(lp3
(S'100006350024209'
S'Karllos Jahn'
tp4
a(S'100001062896052'
p5
S'\\u0634\\u067e\\u0648\\u0646\\u06a9\\u06cc \\u067e\\u069a\\u062a\\u0648\\u0646 \\u062a\\u0631\\u0647 \\u062e\\u06cc\\u0644'
tp6
a(S'100005570439574'
S'\\u0632\\u0645\\u0631\\u06cc \\u062a\\u0648\\u0631\\u0647 \\u062e\\u06cc\\u0644'
tp7
a(S'100005329211639'
S'\\ufee3\\ufea4\\ufee4\\ufeaa\\ufea7\\ufef4\\ufede \\ufea7\\ufe8e\\ufee5'
tp8
a(S'100004904491300'
S'\\u0634\\u0627\\u0645\\u064a\\u0631\\u0627\\u0646 \\u0643\\u062a\\u0648\\u0627\\u0632\\u064a'
tp9
a(S'100005164170860'
S'Attaullhaq Safi'
tp10
a(S'100006490583253'
S'\\u0627\\u06cc\\u0648\\u0628 \\u0627\\u062d\\u0645\\u062f\\u0632\\u06cc'
tp11
a(S'100006742594289'
S'\\u0645\\u062d\\u0645\\u062f \\u0627\\u063a\\u0627'
tp12
asS'id'
p13
g5
sS'name'
p14
S'\\u0634\\u067e\\u0648\\u0646\\u06a9\\u06cc \\u067e\\u069a\\u062a\\u0648\\u0646 \\u062a\\u0631\\u0647 \\u062e\\u06cc\\u0644'
p15
s.