(dp1
S'friends'
p2
(lp3
(S'1806014816'
S'Khan Mohammad Shinwaray'
tp4
a(S'100002296783348'
S'\\u0627\\u062d\\u0645\\u062f \\u062c\\u0627\\u0648\\u06cc\\u062f \\u062e\\u067e\\u0644\\u0648\\u0627\\u06a9 \\u06a9\\u0631\\u06cc\\u0645\\u0632\\u06cc'
tp5
a(S'100004785042469'
S'Wahidullah Bawar'
tp6
a(S'100000741503199'
S'Abaseen Yousufzai'
tp7
a(S'100000326864405'
S'M Hamid Haidari'
tp8
a(S'100002578693960'
S'Ahmad Iqbal'
tp9
a(S'100005483944236'
S'Najibullah Danish'
tp10
a(S'100001029091630'
S'Mira Aying'
tp11
a(S'100000980561146'
S'Noor Ahmad Zalmai'
tp12
a(S'100005299931818'
S'Hamaun Latifee'
tp13
a(S'100000035044637'
S'Tariq Sapi'
tp14
a(S'100001835115044'
S'Zalmai Naibkhail'
tp15
a(S'100002476872152'
S'Ahmad Masood Faizi'
tp16
a(S'100002027786713'
S'Hijratullah Afzali'
tp17
a(S'100001323422768'
S'Irhamullah Momand'
tp18
a(S'100001172403458'
S'Sayed Mohammad Faizi'
tp19
a(S'100000039427963'
S'Mohammad Hamid Zormati'
tp20
a(S'100002113657000'
S'Ajmal Kowsar'
tp21
a(S'100002777675726'
S'Khalid Karimzai'
tp22
a(S'100005882832042'
S'Shafiq Hotak'
tp23
a(S'100002922692160'
p24
S'Najibullah Sadee'
tp25
a(S'100001835123255'
S'Mahmood Wardak'
tp26
a(S'100002916680697'
S'Palwashah Jalalzai'
tp27
a(S'100005665654791'
S'Fahim Watanyaar'
tp28
a(S'100002169331237'
S'Ali Jan'
tp29
a(S'100000999356807'
p30
S'Najibullah Zakir'
tp31
a(S'100000357050474'
p32
S'Ansarullah Haneef'
tp33
a(S'100002420770296'
S'Tooryalai Zadran'
tp34
a(S'100001657358099'
S'Mohammad Farooq Zwak'
tp35
a(S'100006886000124'
S'Spozhmay Ghaljay'
tp36
a(S'1809914324'
S'Atagul Himat'
tp37
a(S'100002272580352'
S'Nasrullah Nasrat'
tp38
a(S'100002709027809'
S'\\u0627\\u0646\\u062c\\u064a\\u0646\\u0631\\u0627\\u0646 \\u0647\\u0631\\u0627\\u062a \\u0622\\u064a\\u0646\\u062f\\u0647 \\u0633\\u0627\\u0632\\u0627\\u0646'
tp39
a(S'100001160680825'
S'Eng Kamavi'
tp40
a(S'100001411563408'
S'Sher Khan Oria'
tp41
a(S'100005199185272'
S'Zekrullah Basirzoy'
tp42
a(S'100005775066022'
S'Angela Vaflor'
tp43
a(S'100002368982440'
S'Ayubi Stanikzai'
tp44
a(S'645087337'
S'Farzad Lameh'
tp45
a(S'100000398828167'
S'Mohammad Ali'
tp46
a(S'100008184755429'
S'Sediqullah Habibi'
tp47
a(S'100001691593547'
S'Imran Khan Hamzah'
tp48
a(S'100001270677420'
S'Janagha Azizi'
tp49
a(S'100001870025392'
S'Samandar Salihi'
tp50
a(S'100002085311776'
S'Mena Mangal'
tp51
a(S'100002183804087'
S'Zabihullah Ibrahimi'
tp52
a(S'100002374440720'
S'\\u0627\\u062d\\u0645\\u062f\\u0634\\u0627\\u0647 \\u0642\\u06cc\\u0648\\u0645\\u06cc'
tp53
a(S'100005832757944'
S'\\u062f\\u0645\\u06cc\\u062f\\u0627\\u0646 \\u069a\\u0627\\u0631 \\u0648\\u0644\\u0627\\u06cc\\u062a \\u0681\\u0648\\u0627\\u0646\\u0627\\u0646'
tp54
a(S'100007838731446'
S'Omar Dawoodzai'
tp55
a(S'100000091446700'
S'Shabir Ahmad Kabirzad'
tp56
a(S'100000494454426'
S'Habib Rahman Haziq'
tp57
a(S'100006577594030'
S'Mansoor Amiri'
tp58
a(S'100000657412547'
S'Mohammad Ajmal Stanikzai'
tp59
a(S'100002852584307'
S'\\u0633\\u067e\\u0648\\u0696\\u0645\\u06cd \\u0627\\u0641\\u063a\\u0627\\u0646'
tp60
a(S'100000867768396'
S'Asadullah Afzali'
tp61
a(S'100003139392042'
S'Jan Bilal Tokhia'
tp62
a(S'100002394783571'
S'Ahmad Shah Sayed'
tp63
a(S'100000606985718'
S'Tariq Sabah Mohammadzai'
tp64
a(S'100002530874247'
S'Ehsan Amarkhail'
tp65
a(S'100002217405406'
S'Shafiqullah Sidiqi'
tp66
a(S'100003198210387'
S'Fazal Karim'
tp67
a(S'100002503383882'
S'Ahmad Nasrat Haidary'
tp68
a(S'100000977804549'
S'Khyber Khan'
tp69
a(S'100004662092776'
S'Saduddin Saadat'
tp70
a(S'100002393756840'
S'Masih Shadab'
tp71
a(S'100001251951144'
S'Said Ahmad Woror'
tp72
a(S'100001685966253'
S'Kasim Bullet'
tp73
a(S'100002607455836'
S'Mahmood Ahmadi'
tp74
a(S'100003606800251'
S'Raza Khan Atal'
tp75
a(S'100003991613222'
S'Hayatullah Hayat'
tp76
a(S'100002128660521'
S'Mirwais Himat'
tp77
a(S'100007641584520'
S'Nematullah Saad Atef'
tp78
a(S'100006410105901'
S'Shafiqullah Zahid'
tp79
a(S'100000767714614'
S'Noorullah Ibrahimee'
tp80
a(S'100001311078958'
S'Sohail Khan'
tp81
a(S'100000932292067'
S'Rahim Gul Ahmadzai'
tp82
a(S'100003310444390'
S'M Ehsan Ibrahimkhail'
tp83
a(S'100007352021999'
S'Zabihullah Ibrahimi'
tp84
a(S'100001029320687'
S'\\u062e\\u0644\\u06cc\\u0644 \\u0627\\u0644\\u0644\\u0647 \\u0627\\u06cc\\u0648\\u0628\\u064a'
tp85
a(S'100000885470805'
S'Rahmatullah Rahmani'
tp86
a(S'100000894321848'
S'Nasir Behsoodwal'
tp87
a(S'100000135996086'
S'Naseer Haris'
tp88
a(S'100008126861867'
S'M Fahim Safi'
tp89
a(S'100004699625469'
S'Ayaz Ibrahimkhil'
tp90
a(S'100001792431740'
S'Abdul Majeed Jabarkhil'
tp91
a(S'100001841134271'
S'Aminullah Molakhail'
tp92
a(S'100006909367663'
S'Lalagha Shershah'
tp93
a(S'100007055654171'
S'Jamil Stanikzai'
tp94
a(S'100002269661047'
p95
S'Habibullah Momand'
tp96
a(S'100005273347188'
S'M Khalid Stanikzai'
tp97
a(S'100001928618035'
S'Noor Rahman Sahak'
tp98
a(S'100007416218138'
S'Nasrat Azimi'
tp99
a(S'100001318562840'
S'Habibullah Zalmai'
tp100
a(S'100003095423021'
S'Abdul Basheer Safi'
tp101
a(S'100002414203171'
S'Dawajan Mojahid'
tp102
a(S'100001822961344'
S'Nasrullah Saqib'
tp103
a(S'1179217945'
S'Abdul Fatah Jawad'
tp104
a(S'100006629831840'
S'Ahmad Reshad'
tp105
a(S'100001806246128'
S'Aemal Ibrahimi'
tp106
a(S'100000532087703'
S'Shams Ahadi'
tp107
asS'id'
p108
S'100001623006163'
p109
sS'name'
p110
S'Basir Ibrahimee'
p111
s.