(dp1
S'friends'
p2
(lp3
(S'100001983178098'
p4
S'Divya Sharma'
tp5
a(S'100008085542872'
S'Nani Mukkam'
tp6
a(S'100008168912237'
S'\\u0631\\u0627\\u0645\\u064a\\u0627 \\u0645\\u062d\\u0645\\u062f'
tp7
a(S'100008385810213'
S'Bablu L. Gautam'
tp8
a(S'100006659537664'
S'Saif Khan'
tp9
a(S'100008009471992'
S'Sunil Kumar'
tp10
a(S'100008378168795'
S'\\u062d\\u0643\\u0627\\u0648\\u0649 \\u0632\\u0645\\u0627\\u0646'
tp11
a(S'100006991362836'
S'\\u091a\\u094c\\u0939\\u093e\\u0928 \\u0930\\u093e\\u091c\\u0947\\u0936'
tp12
asS'id'
p13
g4
sS'name'
p14
S'Divya Sharma'
p15
s.