(dp1
S'friends'
p2
(lp3
(S'100001625319479'
S'Zee Shan'
tp4
a(S'100001637348639'
S'Jennifer Dsouza'
tp5
a(S'100001721850991'
S'Mohd Subhan'
tp6
a(S'100005113090518'
S'Sobha Singh'
tp7
a(S'100001408796934'
S'Sneha Sharma'
tp8
a(S'100002308653687'
S'Ud Qureshi'
tp9
a(S'100001654652209'
S'Hashim Qureshi'
tp10
a(S'100002476953482'
S'Bhuvan Mittal'
tp11
a(S'100007265982087'
S'Subhan Qureshi'
tp12
a(S'100003284462373'
p13
S'Suhail Qureshi'
tp14
a(S'100001070246043'
S'Kota Tejaswi'
tp15
a(S'693510642'
S'Faisal Saleem'
tp16
a(S'100003944017799'
S'Mohsin Haseen'
tp17
a(S'100002142556932'
S'Mohd Ahmad Qureshi'
tp18
a(S'100001249623905'
p19
S'Zaid Qureshi'
tp20
a(S'100005817632530'
S'Purnima Sareen'
tp21
a(S'100004660447081'
S'Alisha Shaikh'
tp22
a(S'100002045038074'
S'Pretty Samia'
tp23
a(S'100001258268124'
S'Azhar Khan'
tp24
a(S'100001519918492'
S'Sana Quershi'
tp25
a(S'100000937285604'
S'Shanu Qureshi'
tp26
a(S'100002061703358'
S'Tohid Qureshi'
tp27
a(S'100001062420039'
S'Huzaifa Qureshi'
tp28
a(S'100001738533350'
S'Angel Khan'
tp29
a(S'100003068316409'
S'Harshit Aggarwal'
tp30
a(S'100000527963781'
p31
S'Hammad Ahmad'
tp32
a(S'100001009306937'
p33
S'Hunain Mateen'
tp34
a(S'100000027734813'
S'Tejaswini Shaktawat'
tp35
a(S'100001912052376'
S'Hammas Qureshi'
tp36
a(S'100002526696764'
S'Manav Patel'
tp37
a(S'100001298102792'
S'Humayoun Ahmad'
tp38
a(S'100003831455818'
S'Aly Goni'
tp39
a(S'100002099592100'
S'Tohid Qureshi'
tp40
a(S'100000877055513'
S'Harshita Begwani'
tp41
a(S'100001513595235'
S'Uruj Qureshi'
tp42
a(S'100001287182994'
S'Divya Puri'
tp43
a(S'100000887619758'
S'Mohd Haris'
tp44
a(S'100000674288855'
S'Jay Garodia'
tp45
a(S'100002311613874'
S'Sam Memon'
tp46
a(S'100003879094614'
S'Neha Arora'
tp47
a(S'100001231528261'
S'Yassir Arafat'
tp48
a(S'100000115837405'
p49
S'Tanisha Sinha'
tp50
a(S'100001556231646'
S'Kritika Ahlawat'
tp51
a(S'100004900121354'
S'Divyam Aggarwal'
tp52
a(S'100003223798047'
S'Anisha Khanam'
tp53
a(S'100002393912520'
S'Sid Memon'
tp54
a(S'100001246931593'
p55
S'Aarushi Kapoor'
tp56
a(S'100000809041354'
S'Man-Awe Patel'
tp57
a(S'100002952031887'
S'Abdul Ahad'
tp58
a(S'100001196920303'
S'Ayush Gupta'
tp59
a(S'100000608127868'
S'Shanaz Shiekh'
tp60
a(S'100001077486535'
p61
S'Kanika Taneja'
tp62
a(S'100002363525844'
S'Suchit Vikram Singh'
tp63
a(S'100002925947536'
p64
S'Shivani Malhotra'
tp65
a(S'100001702395240'
p66
S'Shaaz Qureshi'
tp67
a(S'100001208114212'
S'Azhar Qureshi'
tp68
a(S'100000751013051'
S'Saad Rehman'
tp69
a(S'100000506622546'
S'Arjun Tehri'
tp70
a(S'100000902777004'
S'Burhan Qureshi'
tp71
a(S'100004216660089'
S'Puja UdaYan'
tp72
a(S'100001046662786'
S'Hamza Qureshi'
tp73
a(S'100001935799434'
p74
S'Essa Qureshi'
tp75
a(S'100004411358802'
S'Kartik Bajaj'
tp76
a(S'100001056868869'
S'Tanzil Qureshi'
tp77
a(S'100001627029754'
S'Shah Zama Qureshi'
tp78
a(S'100002588777555'
S'Hannan Qureshi'
tp79
a(S'100000915992346'
S'Abhishek Bhandari'
tp80
a(S'100002445626614'
S'Mohd Usman'
tp81
a(S'1348883673'
S'Aditya Singh'
tp82
a(S'100001779278759'
p83
S'Usama Qureshi'
tp84
a(S'100002162096797'
p85
S'\\u00c0l\\u00ed Q\\u00far\\u00eash\\u00ef'
tp86
a(S'100003668689399'
S'Pooja Sahni'
tp87
a(S'100001275377330'
S'Shadab Qureshi'
tp88
a(S'100006356223461'
S'Saad Qureshi'
tp89
a(S'100001040534014'
S'Aliya Nasir'
tp90
a(S'100001202473184'
p91
S'Nabeel Qureshi'
tp92
a(S'100002933847756'
S'Anush Qureshi'
tp93
a(S'100000642125605'
S'Mohit Chandaliya'
tp94
a(S'100005838062453'
S'Rishabh Munjal'
tp95
a(S'100002232131127'
S'Vishesh Kumar'
tp96
a(S'100001186840704'
S'Prerna Peru Sahni'
tp97
a(S'100001621956059'
S'Suhail Qureshi'
tp98
a(S'100001060734795'
S'Mohd Amin'
tp99
a(S'100001424594557'
S'Himanshu Gupta'
tp100
a(S'100001539668224'
p101
S'Dia Tiwari'
tp102
a(S'100005444440082'
S'Avni Sharma'
tp103
a(S'100001523923900'
S'Salman Khan'
tp104
a(S'100000123541043'
p105
S'Sagar Makkar'
tp106
a(S'100004303323330'
S'Divyam Aggarwal'
tp107
a(S'100001311630812'
S'Anmol Kakkar'
tp108
a(S'100002257365817'
S'Anesha Eff'
tp109
a(S'1443001977'
S'Neeti Verma'
tp110
a(S'100001847044406'
S'Shariq Qureshi'
tp111
a(S'100002669929221'
S'Gunjan Kumar'
tp112
a(S'100001425975145'
p113
S'Usama Qureshi'
tp114
a(S'100001017346594'
S'Arisha Qureshi'
tp115
a(S'100002034794039'
S'Ravishing Anjali'
tp116
a(S'100002266711743'
S'Yassir Arafat'
tp117
a(S'1613109514'
p118
S'Sapnaa Kaushik'
tp119
a(S'100001057355834'
S'Asad Qureshi'
tp120
a(S'100000646610212'
S'Salman Qureshi'
tp121
a(S'100001138887096'
S'Payasvani Goyal'
tp122
a(S'100002037706603'
p123
S'Ans AB Q\\u00fb\\u0157\\u00eb\\u015fh\\u00ee'
tp124
a(S'100001971184290'
S'Samad Qureshi'
tp125
a(S'100004326543396'
S'Divyam Aggarwal'
tp126
a(S'100001892179695'
S'Rehan Rafique'
tp127
a(S'554667760'
S'Kevin Massey'
tp128
a(S'100001472762718'
S'Oorja Bisht'
tp129
a(S'100001788086663'
S'Lisha Ali'
tp130
a(S'100001301064573'
S'Rishab Munjal'
tp131
a(S'100002613138100'
S'Nishant Mehndiratta'
tp132
a(S'100001667760943'
S'Anush Qureshi'
tp133
a(S'100000856669734'
S'Aarti Prabhu'
tp134
a(S'100003975046658'
S'Owais Qureshi'
tp135
a(S'1824967142'
S'Maloshree Sanyal'
tp136
a(S'100000615391774'
S'Piyush Mishra'
tp137
a(S'100001257969747'
S'Shariq Qureshi'
tp138
a(S'100001810620836'
p139
S'Ahad Kamil'
tp140
a(S'100002252554004'
S'Jagrit Chhatwal'
tp141
a(S'100001580649877'
p142
S'Aashir Qureshi'
tp143
a(S'100002180933147'
S'Naeem Qureshi'
tp144
a(S'1420496823'
S'Radhika Choco Sehgal'
tp145
a(S'100001074727842'
S'Anu Sharma'
tp146
a(S'100004327452273'
S'Samriddhi Roy'
tp147
a(S'100004594022467'
S'Endrus Maria'
tp148
a(S'100000035633392'
S'Areeb Qureshi'
tp149
a(S'100005142904053'
S'Cricket Prediction'
tp150
a(S'1160587318'
S'Vidisha Arora'
tp151
a(S'100002106873965'
S'Akanksha Anahita'
tp152
a(S'100001561908428'
S'Mohd Nouman'
tp153
a(S'100001929571895'
S'Pushpa Ranee'
tp154
a(S'1675650348'
S'Faisal Hussain'
tp155
a(S'100000487423207'
S'Saurabh Singh Panwar'
tp156
a(S'100002473093720'
S'Ali Qureshi'
tp157
a(S'100000746235059'
S'Tooba ALi'
tp158
a(S'100001153623303'
p159
S'Vatsala Ranganathan'
tp160
a(S'100001900544239'
S'Subhan Saleem'
tp161
a(S'100000425548213'
p162
S'Namrata Singh'
tp163
a(S'100002277122729'
S'Mirza Zuhaib Baig'
tp164
a(S'100000890337108'
S'Srishti Vij'
tp165
a(S'100002034457496'
S'Aamir Zia'
tp166
a(S'100005258550392'
S'Deepika Gusain'
tp167
a(S'100004622435819'
S'Amy Thomas'
tp168
a(S'100001657016555'
S'Ahad Kamil'
tp169
a(S'100004246773526'
S'K\\u00fc\\u00f1\\u00e5l R\\u00f8x'
tp170
a(S'100001204536007'
S'Samia Yaqoob'
tp171
a(S'100000737714259'
S'Renee Dhyani'
tp172
a(S'100000991970597'
S'Sania Qureshi'
tp173
a(S'1224697861'
S'Mohammad Yaser'
tp174
a(S'100001796753125'
S'Riya Seghal'
tp175
a(S'100000592523274'
S'Usama Qureshi'
tp176
a(S'100001053083818'
p177
S'Shaaz Qureshi'
tp178
a(S'100002489105932'
S'Akarsh Sagar'
tp179
a(S'100001545081581'
S'Sam Chawla'
tp180
a(S'100002891445316'
S'MD Asim'
tp181
a(S'100001529235227'
S'Simran Samra'
tp182
a(S'100002284088353'
S'Kets NeEzly'
tp183
a(S'100001675626080'
S'Ravishing Neha'
tp184
a(S'100000580742559'
S'Ateek Khan'
tp185
a(S'100001199401734'
S'Monalisa Kar'
tp186
a(S'100000711528674'
S'Mohd Imran Qureshi'
tp187
a(S'100003052567949'
S'Hamdi Qureshi'
tp188
a(S'100001268881993'
S'Hasan Zaki'
tp189
a(S'100003289861544'
S'Alia Qureshi'
tp190
a(S'1829358932'
S'Rameez Raja'
tp191
a(S'100003278818719'
S'Sami Qureshi'
tp192
a(S'1322853212'
S'Fatima Shahzad'
tp193
a(S'100002817546410'
S'Madhvi Chopra'
tp194
a(S'100001291587606'
p195
S'Tohid Qureshi'
tp196
a(S'100002419582372'
S'Rishabh Khanna'
tp197
a(S'100001219284809'
S'Saad Qureshi'
tp198
a(S'100001738805706'
S'Usman Akram'
tp199
a(S'100001638700451'
S'Fahed Qureshi'
tp200
a(S'100001263705932'
p201
S'Mohd Asad'
tp202
a(S'100000980234107'
S'Shreeya Kundanwar'
tp203
a(S'100002190345556'
S'Sunidhi Sharma'
tp204
a(S'100001208748415'
S'Ar Ham Qur Eshi'
tp205
a(S'100001837918784'
S'Tehseen Qureshi'
tp206
a(S'100003523091199'
S'Kritika Sharma'
tp207
a(S'100001286439887'
S'PaNkaj Bhatt'
tp208
a(S'100002328048468'
S'Shivani Singharia'
tp209
a(S'1104470497'
S'Abuzaid Qureshi'
tp210
a(S'100000430139121'
S'Deepti Toppo'
tp211
a(S'100001358413363'
S'Faizan Hussain'
tp212
a(S'100001285363971'
S'Shazeb Qureshi'
tp213
a(S'100001676461771'
S'Salman Qureshi'
tp214
a(S'100002530775548'
S'Nishant Mehndiratta'
tp215
a(S'100001420205407'
S'Abhishek Lawaria'
tp216
a(S'100001649428312'
S'Somya Gupta'
tp217
a(S'100000955330052'
S'Junaid Mikael'
tp218
a(S'100001444075921'
p219
S'Humam Qureshi'
tp220
a(S'100003551931367'
S'Sumit Anand'
tp221
a(S'100006765251441'
S'Sakshee Verma'
tp222
a(S'100001578625385'
S'Piyush Sareen'
tp223
a(S'1055734138'
S'Arpit Sharma'
tp224
a(S'100001562070733'
S'Yaman Qureshi'
tp225
a(S'100001590865190'
S'Haris Qureshi'
tp226
a(S'634513617'
S'Karan Gupta'
tp227
a(S'100003387304641'
S'Tanveer Qureshi'
tp228
a(S'100003525156461'
S'Meenu Verma'
tp229
a(S'100001334782862'
p230
S'Yasar Arfaat'
tp231
a(S'100007953134603'
S'Mari Durigon'
tp232
a(S'100003503058050'
S'Mohd Faiz'
tp233
a(S'100001360807543'
S'Imran Qureshi'
tp234
a(S'100002231272974'
S'Prerna Sehrawat'
tp235
a(S'100000621067381'
S'Meru Sharma'
tp236
a(S'100001553833193'
S'Daniyal Khan'
tp237
a(S'1799198437'
S'Taru Jain'
tp238
a(S'100000164592653'
S'Mohd Faiq'
tp239
a(S'100000969124341'
S'Nia Momo'
tp240
a(S'100000984528035'
S'Malika Shamim'
tp241
a(S'1524584763'
S'Monis Rashid'
tp242
a(S'100003642253687'
S'Pratiksha Malhotra'
tp243
a(S'100003244086009'
S'Alok Singh'
tp244
a(S'100001559056209'
S'Mohd Hunen'
tp245
a(S'1045130897'
S'Ashima Sardana'
tp246
a(S'100003056174928'
S'Shanaz Qureshi'
tp247
a(S'100002755112399'
S'Muskaan Arora'
tp248
a(S'100001233553623'
S'Ahana Qureshi'
tp249
a(S'100001742061356'
S'Aarish Kalam'
tp250
a(S'100003478811894'
S'Shahzad Qureshi'
tp251
a(S'100002122647119'
S'Afshan Khan'
tp252
a(S'100001671793399'
S'Tahir Qureshi'
tp253
a(S'100001278824433'
S'Aslam Qureshi'
tp254
a(S'100000543665931'
S'Asfar Ali Asfar Ali'
tp255
a(S'1548429079'
S'Samridhi Rana'
tp256
a(S'100000121182012'
S'Akshaya Ramakrishnan'
tp257
a(S'100000693386552'
p258
S'Farheen Qureshi Qureshi'
tp259
a(S'100002204057514'
S'Mohd Uzair Qu'
tp260
a(S'100002193154343'
S'Mousa Qureshi'
tp261
a(S'100004601070905'
S'Anam Khan'
tp262
a(S'100006153848036'
S'Afreen Sheikh'
tp263
a(S'100001286378965'
p264
S'Javed Qureshi'
tp265
a(S'100002955076559'
S'Alastair Cook'
tp266
a(S'100003168879011'
S'Suhail Alam'
tp267
a(S'100002604880814'
S'Rishabh Munjal'
tp268
a(S'1843683759'
S'Chitra Srivastava'
tp269
a(S'100001388656510'
S'Zaara Khan'
tp270
a(S'100002030542816'
S'Albar Qureshi'
tp271
a(S'100003999582090'
S'Md Zuhaib Baig'
tp272
a(S'100000476361214'
S'Shreya Gupta'
tp273
a(S'100001436655975'
S'Mahommad Shaan'
tp274
a(S'100001371445801'
S'Samar Qureshi'
tp275
a(S'100005038801680'
S'Alok Singh'
tp276
a(S'100003103471034'
S'Nomaan Qureshi'
tp277
a(S'100001325925640'
S'Mohd Fihan'
tp278
a(S'100000896116979'
p279
S'Mack Qureshi'
tp280
a(S'100001825698318'
S'Tanya Qureshi'
tp281
a(S'100008386418936'
S'Ankita Verma'
tp282
a(S'100001487409600'
S'Aswad Qureshi'
tp283
a(S'100000379272740'
S'Monica Sahay'
tp284
a(S'100002507935543'
S'Tayyab Qureshi'
tp285
a(S'100006428938298'
S'Saloni Chhabra'
tp286
a(S'100002579072534'
S'Piyush Patel'
tp287
a(S'100001040745635'
S'Udit Uppal'
tp288
a(S'100000729518756'
p289
S'PuJa RoXs'
tp290
a(S'100002438801178'
S'Gohin Oronno'
tp291
a(S'100001307658876'
S'Mohd Usama'
tp292
a(S'100001387938599'
S'Hemant Jain'
tp293
a(S'100001231080583'
S'Mohd Nouman'
tp294
a(S'1838328296'
S'Ritika Pancholi'
tp295
a(S'100001839168009'
S'Afshan Khan'
tp296
a(S'100003882277432'
S'Kritika Sharma'
tp297
a(S'100002539809712'
S'Akarsh Sagar'
tp298
a(S'100003767180566'
S'Starz Anmol Sneh'
tp299
a(S'100003115313286'
S'Riders Qureshi'
tp300
a(S'100000955066229'
S'Sheikh Tayyab Qureshi'
tp301
a(S'100000921357054'
S'Zahid Mohd'
tp302
a(S'1851146041'
S'Nandini Sinha'
tp303
a(S'100000626174686'
S'Ameen Ahmed Qureshi'
tp304
a(S'100001045442068'
S'Tanya Subramanian'
tp305
a(S'100000102989145'
S'Akash Sutradhar'
tp306
a(S'100000027040786'
S'Priya Malik'
tp307
a(S'100002622071397'
S'Amit Singh'
tp308
a(S'100000297292039'
S'Sachin Sharma'
tp309
a(S'100002050018783'
S'Pallavi Arora'
tp310
a(S'100000536561415'
S'Aleena Qureshi'
tp311
a(S'100002510625481'
S'Md Shadab Qureshi'
tp312
a(S'100002382831343'
S'Neha Kalra'
tp313
a(S'100001331345018'
S'Being Muneeb'
tp314
a(S'100000932728043'
S'Saqib Javed'
tp315
a(S'100000187124825'
S'Meghna Rath'
tp316
a(S'100000404975857'
S'Yameen Khan'
tp317
a(S'100001249326397'
p318
S'S\\u00e5\\u00fbd Q\\u00fb\\u0157\\u00eb\\u015fh\\u00ee'
tp319
a(S'100001480269268'
S'Zain Qureshi'
tp320
a(S'100001565350321'
S'Zulf Hussain'
tp321
a(S'100001052269797'
S'Sayonee Grover'
tp322
a(S'100000925098545'
S'Trisha Malakar'
tp323
a(S'100001146430536'
S'Zain Qureshi'
tp324
a(S'100002611055295'
S'Rishabh Munjal'
tp325
a(S'100002378781522'
S'\\u1e94\\u00eaB\\u1eb7 \\u00c5\\u00f1g\\u00eal'
tp326
a(S'100000362308386'
p327
S'Yousuf Qureshi'
tp328
a(S'100000407821066'
S'Samit Hussain'
tp329
a(S'100003305239548'
S'Hammas Kamil'
tp330
a(S'100003658063296'
S'Ali Qureshi'
tp331
a(S'100000462350195'
S'Swaleheen Ali'
tp332
a(S'100002100305373'
S'Uzair Qureshi'
tp333
a(S'100001643812597'
S'Rabiya Qureshi'
tp334
a(S'100006870481134'
S'Samridhi Banerjee'
tp335
a(S'1769905463'
S'Qureshi Faizan'
tp336
a(S'100004313136950'
S'Kunal Kohli'
tp337
a(S'100004137630687'
S'Prateek Bhagat'
tp338
a(S'100001626467815'
S'Bushra Hyera'
tp339
a(S'100002162742804'
S'Suhail Qureshi'
tp340
a(S'100001065101149'
S'Talha Qureshi'
tp341
a(S'100000935260454'
p342
S'Aswad Qureshi'
tp343
a(S'100000647739755'
S'Sanya Javed'
tp344
a(S'100000570223228'
S'Damodar Shastri'
tp345
a(S'100007811227375'
S'Kritika Ahlawat'
tp346
a(S'100002329279590'
S'Adnan Qureshi'
tp347
a(S'100003309146348'
S'Anas Choudhary'
tp348
a(S'100001939969806'
S'Muskan Ahuja'
tp349
a(S'100001709756663'
S'\\u00c5L\\u00ec Q\\u00far\\u00ebsh\\u00ef'
tp350
a(S'100001898922400'
p351
S'Shaar Qureshi'
tp352
a(S'100005346333360'
S'Amaan Qureshi'
tp353
a(S'100000661381541'
S'Aakriti Mohan'
tp354
a(S'100000741687533'
p355
S'Taimur Qureshi'
tp356
a(S'100000228629248'
p357
S'Muzammil Qureshi'
tp358
a(S'100001590099896'
S'M\\u00f5hd F\\u00e0\\u00e2\\u00eez Q\\u00far\\u00e8sh\\u00ed'
tp359
a(S'100002770817301'
S'Athar Qureshi'
tp360
a(S'100001174522202'
S'Czar Saad'
tp361
a(S'100001465437707'
p362
S'Haris Qureshi'
tp363
a(S'100000921446303'
S'Harish Qureshi'
tp364
a(S'100000401611861'
S'Nishant Choudhary'
tp365
a(S'100002185205052'
S'Shan Qureshi'
tp366
a(S'100000479950838'
S'Tashif Hussain'
tp367
a(S'100000572990870'
S'Ali Qureshi'
tp368
a(S'100001335506767'
S'Aliza Qureshi'
tp369
a(S'100001211341061'
S'Anjali Anand'
tp370
a(S'100002527929534'
S'T\\u00e5\\u0178\\u0177\\u00e4\\u00df Q\\u00fa\\u0154\\u0115shi'
tp371
a(S'100001025778226'
S'Yatin Sharma'
tp372
a(S'100000891109453'
p373
S'Usama Qureshi'
tp374
a(S'100001828373119'
S'Daksh Kinger'
tp375
a(S'1318244655'
S'Alsaud Qureshi'
tp376
a(S'100001844803649'
S'Zaeem Ahmed'
tp377
a(S'100003348712240'
p378
S'Mohd Huzaifa'
tp379
a(S'100002237923647'
S'Manav Patel'
tp380
a(S'100000125594286'
S'Aarushi Gupta'
tp381
a(S'100001374977098'
S'Rupa Khurana'
tp382
a(S'100006521682154'
S'Pranjal Vora'
tp383
a(S'100001934934290'
S'Tushar Goyal'
tp384
a(S'100001656505134'
S'Vishesh Anand'
tp385
a(S'100001461016371'
S'Samir Khan'
tp386
a(S'100001262796329'
S'Anuj Arora'
tp387
a(S'100002097108120'
p388
S'Samid Hussain'
tp389
a(S'100000988242200'
S'Mohd Shanu Qureshi'
tp390
a(S'100001657215889'
S'Abhishek Bhardwaj'
tp391
a(S'100001266656769'
S'Arbaaz Khan'
tp392
a(S'100001753139046'
S'Faizan Wahab'
tp393
a(S'100000649385617'
S'Chirag Malik'
tp394
a(S'100004565980645'
S'Rahul Sinha'
tp395
a(S'100002354547887'
S'Paridhi Bhanot'
tp396
a(S'100005188539107'
S'Shivani Shivi'
tp397
a(S'100001516591680'
p398
S'Esa Khan'
tp399
a(S'100000477433223'
S'Adnan Qureshi'
tp400
a(S'100001836649589'
S'Shehzaad Qureshi'
tp401
a(S'100002916093981'
S'Tushar Lodhwal'
tp402
a(S'100006438885322'
S'Somya Sharma'
tp403
a(S'100001278925104'
S'Divya Narain'
tp404
a(S'100003244008753'
S'Sumit Anand'
tp405
a(S'100004369897167'
S'Nandini Singh'
tp406
a(S'100001108801882'
S'Maliha Qureshi'
tp407
a(S'100001557403716'
S'Kabir Syed'
tp408
a(S'100002097477754'
p409
S'Uzzam Qureshi'
tp410
a(S'100001823658435'
S'Ateram Raza'
tp411
a(S'100003264983487'
S'Rahul Singh'
tp412
a(S'100001788146533'
S'Ayush Sharma'
tp413
a(S'100001434885133'
S'Arifa Mansuri'
tp414
a(S'100000933794924'
S'Reem Sayyad'
tp415
a(S'100001257116378'
p416
S'Aisha Aggarwal'
tp417
a(S'100001268866336'
S'Shahrukh Qureshi'
tp418
a(S'100000413530315'
S'Jasneet Kaur'
tp419
a(S'100000820114458'
S'Chirag Singhal'
tp420
a(S'100002530853872'
S'Tushar Goyal'
tp421
a(S'1385815451'
S'Raunaq Singh'
tp422
a(S'100001436164677'
S'Ravee Pawar'
tp423
a(S'100001058719254'
S'Shavez Muhammad'
tp424
a(S'100001958018196'
S'Bharat Suri'
tp425
a(S'100002149948374'
p426
S'Megha Vats'
tp427
a(S'1402041504'
S'Obaid Rahman'
tp428
a(S'100001648041957'
S'Sanu Qureshi'
tp429
a(S'100000504057732'
S'Saumya Pasricha'
tp430
a(S'100004351448245'
S'Aafiya Kaamil'
tp431
a(S'100001835893628'
S'Angel Lubna'
tp432
a(S'100001129510761'
S'Imran Qureshi'
tp433
a(S'100000889125854'
S'Nursyafinah Halipin'
tp434
a(S'100002192793445'
S'M\\u00f5h\\u00e2mm\\u00e3d Sh\\u00e4r\\u00eeb'
tp435
a(S'100001889107041'
S'Mohsin Hasin'
tp436
a(S'100000958836111'
S'Akhil Khandelwal'
tp437
a(S'100000490278478'
p438
S'Shivam Khanna'
tp439
a(S'1824734344'
S'Alice Joseph'
tp440
a(S'100001412607339'
p441
S'Mohd Shadab'
tp442
a(S'100000067371482'
S'Rahul Meena'
tp443
a(S'100001593013066'
S'Khizar Qureshi'
tp444
a(S'100000881360046'
S'Shivam Karki'
tp445
a(S'100002509248483'
S'Nishita Bokolia'
tp446
a(S'100002596052399'
S'Amit Singh'
tp447
a(S'100001709010552'
S'Hadiya Qureshi'
tp448
a(S'100005981704416'
S'Abhishek Bhardwaj'
tp449
a(S'100001981122314'
S'Akhil Gupta'
tp450
a(S'100008029627850'
S'Tamanna Magan'
tp451
a(S'100001767452343'
p452
S'Naumaan Zahid'
tp453
a(S'100003268421997'
S'Mahin Khan'
tp454
a(S'100001303266001'
S'Kanika Kumar'
tp455
a(S'100004869820587'
S'Hasan Qureshi'
tp456
a(S'100002538680235'
S'Adnan Qureshi'
tp457
a(S'100002481288379'
S'Mohd Essa'
tp458
a(S'100006428604814'
S'Mahi Melhotra'
tp459
a(S'100002177523569'
S'Esa Qureshi'
tp460
a(S'100001510959643'
p461
S'Aswad Qureshi'
tp462
a(S'100003260493985'
S'Bl\\u00e5\\u00e7kl\\u00eest\\u00eb\\u00f0 Aar Av'
tp463
a(S'100001310642529'
S'Umair Qureshi'
tp464
a(S'100001747967439'
S'Nabeel Qureshi'
tp465
a(S'100003315291325'
S'Shanivi Gupta'
tp466
a(S'100000317500983'
S'Himanshi Kapoor'
tp467
a(S'100001935491669'
p468
S'Faizan Hussain'
tp469
a(S'100002904425928'
S'Mohd Zaid'
tp470
a(S'100001358971766'
S'Sufiyan Muqeem'
tp471
a(S'100001536702331'
S'Zuhaib Qureshi'
tp472
a(S'100001068716876'
S'Deevanshu Sahni'
tp473
a(S'100000324902314'
p474
S'Hassan Ahmed'
tp475
a(S'100001982194990'
p476
S'Ahad Qureshi'
tp477
a(S'100001754328462'
p478
S'Haris Kalam'
tp479
a(S'100002279759011'
S'Toh Qureshi'
tp480
a(S'100001966892820'
S'Zoha Qureshi'
tp481
a(S'100001370669048'
S'Mary Evans'
tp482
a(S'100004026362514'
S'Ankur Srivastava'
tp483
a(S'100003370980054'
S'Ayesha Qureshi'
tp484
a(S'100001076990482'
S'Kiran Mai'
tp485
a(S'100003617992183'
S'Hritik Urf Nishu Jain'
tp486
a(S'100000951229575'
S'Salman Afzal'
tp487
a(S'100002076817203'
p488
S'Umar Sabir'
tp489
a(S'100001475925209'
S'Alina Qureshi'
tp490
a(S'100000041873974'
S'Mohd Waseem'
tp491
a(S'100001112138410'
S'Ayesha Siddiqui'
tp492
a(S'100001683006510'
S'Mohd Azeem'
tp493
a(S'100001938805114'
S'Kulpreet Kaur'
tp494
a(S'100004537004345'
S'Sushant Rocker'
tp495
a(S'100006542953560'
S'Kashish Oberoi'
tp496
a(S'100001667661470'
p497
S'Mohd Inam'
tp498
a(S'100003358536794'
p499
S'Simran Gupta'
tp500
a(S'100001437801519'
S'Adil Qureshi'
tp501
a(S'100001574725161'
S'Pari Sharma'
tp502
a(S'100003530415512'
S'Faizan Qureshi'
tp503
a(S'100000618598954'
S'Adnan Haseen'
tp504
a(S'100006485890202'
S'Rdx Sam Smarty'
tp505
a(S'100001378550778'
S'Pooja Sethi'
tp506
a(S'100002568094721'
S'Kartik Bajaj'
tp507
a(S'100001353031819'
S'Abdullah Ahmad'
tp508
a(S'100001975721204'
S'Muhammad Haaris'
tp509
a(S'100001509685332'
S'Umar Aqil'
tp510
a(S'1433929691'
p511
S'Bhavya Kumar'
tp512
a(S'100002737198888'
p513
S'Anushka Singh'
tp514
a(S'100001507225449'
S'Azam Qureshi'
tp515
a(S'100000113366001'
S'Shahrukh Rahman'
tp516
a(S'100000503998686'
S'Tees Maar Khan'
tp517
a(S'100001650641234'
S'Samiya Khan'
tp518
a(S'100001022428135'
S'Chand Mohammad'
tp519
a(S'100003986263790'
S'Sushant Suresh'
tp520
a(S'100002031666644'
S'Ansab Qureshi'
tp521
a(S'100002002825726'
S'Saba Siddique Qureshi'
tp522
a(S'100002207547300'
S'Mohd Zuheb'
tp523
a(S'100000594975409'
S'Tariq Yusuf'
tp524
a(S'100002395333386'
S'Janvi Gupta'
tp525
a(S'100000129411298'
S'Sohail Qureshi'
tp526
a(S'100003778968471'
S'Tisha Jain'
tp527
a(S'1143261018'
S'Faisal Qureshi'
tp528
a(S'100001467137456'
S'Arsh ShEarif'
tp529
a(S'100002693081981'
S'Ashwani Roxx'
tp530
a(S'1799539748'
p531
S'Mraina Raina'
tp532
a(S'100002261664218'
S'Amaan Qureshi'
tp533
a(S'100001007263822'
S'Mhd Mateen'
tp534
a(S'100001221137200'
S'Vinod Longani'
tp535
a(S'639038390'
S'Rahul Bajaj'
tp536
a(S'100001600056861'
S'Star Sneh Mishra'
tp537
a(S'100001451123465'
S'Mohd Mehran'
tp538
a(S'100002280270639'
S'Niharika Sharma'
tp539
a(S'100001103810086'
p540
S'Avinash Kaur'
tp541
a(S'100002399266426'
S'Suzan Stark'
tp542
a(S'100003005913533'
S'Disha Dadlani'
tp543
a(S'100003019552730'
S'Danish Bazmi'
tp544
a(S'100000427506683'
S'Swati Chauhan'
tp545
a(S'100001640238148'
p546
S'Ifrah Khan'
tp547
a(S'100001119842027'
S'Mohd Muzammil'
tp548
a(S'100002403887893'
S'Divya Negi'
tp549
a(S'100002552297941'
S'Naman Galhotra'
tp550
a(S'100007305097946'
S'Zuhaib \\u00dfaig'
tp551
a(S'100002427288051'
S'Simran Singh'
tp552
a(S'100003308487286'
S'Faizan Malik'
tp553
a(S'100003081513756'
S'Miley Anderson'
tp554
a(S'100002467990402'
S'Suchit Vikram Singh'
tp555
a(S'100005119000491'
S'Sahil Malhotra'
tp556
a(S'100001142800197'
S'Ameen Sadiq'
tp557
a(S'1820637098'
S'Muneeb Rehman'
tp558
a(S'100002231388139'
S'Deepak Gupta'
tp559
a(S'100001418964172'
S'Nimmi Ahuja'
tp560
a(S'100002484853473'
S'Hassan Qureshi'
tp561
a(S'100001746031249'
S'Gatika Arora'
tp562
a(S'100000815662008'
S'MD SO Hail'
tp563
a(S'100001172338458'
S'Ayush Sharma'
tp564
a(S'100003165840813'
S'Anubhav Ahuja'
tp565
a(S'100001488609474'
S'Shazaan K\\u0126\\u00e4\\u014b'
tp566
a(S'100001414167401'
S'Mohd Fahed Qureshi'
tp567
a(S'100002551381120'
S'Yash Gupta'
tp568
a(S'1428799582'
S'Piyush Sinha'
tp569
a(S'100003111396383'
S'Vijith Chandran Nair'
tp570
a(S'100000976478308'
S'Salman Qureshi'
tp571
a(S'100003302615974'
S'Soumya Kasotia'
tp572
a(S'100001090844258'
S'Rose Desusa'
tp573
a(S'100003569405401'
S'Kushant Sagar'
tp574
a(S'100004669364133'
S'Lakshay Srivastava'
tp575
a(S'100001660087792'
S'Mohd Izhan'
tp576
a(S'100002647820391'
S'Akarsh Sagar'
tp577
a(S'100002184887523'
S'Talha Qureshi'
tp578
a(S'100000854377673'
S'Aishwarya Jethliya'
tp579
a(S'100001498434737'
S'Anas Qureshi'
tp580
a(S'100001463558235'
S'Salman Zafar'
tp581
a(S'100004157312520'
S'Yash Gupta'
tp582
a(S'100000326658536'
S'Umair Qureshi'
tp583
a(S'100001711873061'
S'Burhan Qureshi'
tp584
a(S'100004319048497'
S'Mohd Faiz'
tp585
a(S'100001264421118'
p586
S'Zain Qureshi'
tp587
a(S'100001841254791'
S'Moiz Qureshi'
tp588
a(S'100001979349430'
S'Mohsin Sheikh'
tp589
a(S'100000944716283'
S'Saquib Qureshi'
tp590
a(S'100000995728560'
S'Naumaan Qureshi'
tp591
a(S'1701786700'
S'Omar Qureshi'
tp592
a(S'100001995082848'
S'Zeba Angel'
tp593
a(S'100001736653601'
S'Sufi Chaudhary'
tp594
a(S'100001832186681'
S'Manav Patel'
tp595
a(S'100002605673336'
S'Anjana Chico'
tp596
a(S'100001284579995'
p597
S'Saumya Kaur'
tp598
a(S'100002331369475'
S'Mukul Mathpal'
tp599
a(S'100002516722850'
S'Sarfaraz Qureshi'
tp600
a(S'100001216775446'
p601
S'Mohammad Hannan'
tp602
a(S'100001058978170'
S'Ruman Qureshi'
tp603
a(S'100003399230896'
S'Tjps Cool'
tp604
a(S'100001129016527'
S'Kirti Navoria'
tp605
a(S'100004066246633'
S'Hritik Jain'
tp606
a(S'100001678956661'
p607
S'Mohammad Kais'
tp608
a(S'1739427652'
S'Shivam Verma'
tp609
a(S'100000949126706'
S'Neha Malhotra'
tp610
a(S'100001169785940'
S'Vishw Deep'
tp611
a(S'1499921547'
S'Ahmad Shahzad'
tp612
a(S'100001746738343'
p613
S'Bilal Qureshi'
tp614
a(S'1580611711'
S'Kanishk Lal'
tp615
a(S'100001369176154'
S'Sahil Kh'
tp616
a(S'100002409166828'
S'Stunter Boyzz'
tp617
asS'id'
p618
S'100001235642243'
p619
sS'name'
p620
S'Suhail Qureshi'
p621
s.