(dp1
S'friends'
p2
(lp3
(S'100002902685066'
S'Fahad Raza'
tp4
a(S'100002384936810'
S'Piffer Force'
tp5
a(S'100007580435634'
S'Muhammad Asif'
tp6
a(S'100005123435028'
S'Hadeeqa Kanwal'
tp7
a(S'100002957704455'
S'\\u30e0\\u30cf\\u30f3\\u30de\\u30c9 \\u30b7\\u30e3\\u30ad\\u30fc\\u30eb'
tp8
a(S'100002262207252'
S'Shani'
tp9
a(S'100003784174215'
S'Mohammad Aamir'
tp10
a(S'100003723430573'
p11
S'Aashiq E Rasool'
tp12
a(S'100000358939919'
S'Nomi Raja'
tp13
a(S'100000356347047'
S'Adnan Hussain Chishti'
tp14
a(S'100003611126592'
p15
S'Sher Khan'
tp16
a(S'100000665862800'
S'Muhammad Furqan'
tp17
a(S'100001566791962'
S'Kibri Ladla'
tp18
a(S'100002630694724'
S'Ebba Fatima'
tp19
a(S'100000825186123'
S'GH Jamali'
tp20
a(S'100002359990669'
S'ZuBair ZaiBi'
tp21
a(S'100000588682406'
p22
S'D\\u00e8w Dr\\u00f6p'
tp23
a(S'100003147793086'
S'S\\u00e9\\u00f1t\\u00efb\\u00f6y Ishraque Kausar'
tp24
a(S'100000304126243'
S'Harry Khokhar'
tp25
a(S'100000928644019'
S'Fahim Ahmad Saqib'
tp26
a(S'100002213193765'
p27
S'Waseem Hussain'
tp28
a(S'100003226488505'
p29
S'Gul E Pakistan'
tp30
a(S'100004738118613'
p31
S'Ahmed Bakhsh'
tp32
a(S'100006674340828'
S'UmeNiya Khan'
tp33
a(S'1502534204'
S'Azhar Majeed'
tp34
a(S'100000268708840'
S'Zonash Omer'
tp35
a(S'100003833183085'
p36
S'Sehrish Alam'
tp37
a(S'100005799254016'
S'Baseer Ahmad'
tp38
a(S'100004424043806'
S'Amir Shahzad'
tp39
a(S'100001943367059'
S'Shaheer Qayyum'
tp40
a(S'100002750434369'
S'Positive Thinkers'
tp41
a(S'100000682081600'
S'Syed Naqeebullah Azhar Alhussaini'
tp42
a(S'100001712796471'
S'Junaid Hyder'
tp43
a(S'100000973720211'
p44
S'May Jur'
tp45
a(S'100002211307793'
S'Babar Jadoon'
tp46
a(S'100003282101261'
S'Junaid Jaidi'
tp47
a(S'100001624212675'
S'Umair Latif'
tp48
a(S'702718085'
S'Syed Muhammad Affan'
tp49
a(S'100006750452978'
S'Gullab Jan Marzak'
tp50
a(S'100002801553859'
S'Imran Khokhar'
tp51
a(S'100003755130772'
p52
S'Malik Shehroz'
tp53
a(S'100005422026748'
p54
S'Abdul Manaf'
tp55
a(S'100001011970735'
S'Memon Azhar'
tp56
a(S'100002010887301'
S'Sheikh Sahab'
tp57
a(S'100006813210844'
S'Afshi Mahnor'
tp58
a(S'100002668016470'
S'Umair Sohail'
tp59
a(S'100004378992732'
S'Gum Sum Sum'
tp60
a(S'100006483109960'
S'Haji Afzaal'
tp61
a(S'100007107335096'
S'Maryam Gul'
tp62
a(S'100003499477128'
S'Ghuman Ghuman'
tp63
a(S'100004661977608'
S'Sunny Butt'
tp64
a(S'100000119235641'
S'Nadeem Raza'
tp65
a(S'100001674769376'
S'Sardar Anjum Iqbal'
tp66
a(S'100001064769063'
S'Muhammad Salman Maqsoodi'
tp67
a(S'100004962733211'
S'Muhsin Raza'
tp68
a(S'100002445491219'
S'Nouman Muzaffar'
tp69
a(S'100005146327710'
S'Chaudhry Luqman'
tp70
a(S'732150501'
S'Syed Kazim Abbas Kazmi'
tp71
a(S'100003232078514'
p72
S'Jehanzeb Gondal'
tp73
a(S'636617856'
S'Rubina Rashied Raza'
tp74
a(S'100003187840767'
p75
S'Ahmad Nadeem'
tp76
a(S'100001889672084'
p77
S'Naeem Khan'
tp78
a(S'100003995922423'
S'Maryam Saba'
tp79
a(S'100002419780096'
S'Malik Abrar'
tp80
a(S'100003291740552'
S'Mahi Noor'
tp81
a(S'1268423102'
S'Abu Abdullah'
tp82
a(S'1146685402'
S'Shariq Ahmed Siddiqui'
tp83
a(S'100002473006923'
S'Sidra Hayat Pti'
tp84
a(S'100003028309440'
S'Muhammad Owais Sajjad Qadri'
tp85
a(S'100006098763827'
S'Tiya Ali'
tp86
a(S'100004855664272'
S'Khamosh Mohabbat'
tp87
a(S'1730448300'
S'Liaqat Ali Sheikh'
tp88
a(S'100001599494999'
S'Syed Qamar'
tp89
a(S'100006041823587'
S'Ume Habiba'
tp90
a(S'100005967189229'
p91
S'Mohammad Inam Khan'
tp92
asS'id'
p93
S'100003356894083'
p94
sS'name'
p95
S'Amaad Khokhar'
p96
s.