(dp1
S'friends'
p2
(lp3
(S'100001374492383'
S'Akash Deep Slahu'
tp4
a(S'100002025431025'
S'Deepak Makkar'
tp5
a(S'100001828615565'
S'Gaurav Sharma'
tp6
a(S'100008013244811'
S'Harish Babu'
tp7
a(S'100002421305985'
S'Jitendra Singh'
tp8
a(S'100004056473122'
S'Radhe Shyam Tada'
tp9
a(S'100005035713906'
S'Pawan Rawat'
tp10
a(S'100000651124122'
S'Sumit Khatri'
tp11
a(S'100000673858829'
S'Piyush Bhardwaj'
tp12
a(S'100002500487950'
S'Sahil Jindal'
tp13
a(S'100002734940207'
S'Punit Nehra'
tp14
a(S'100002844375231'
S'Kuldeep Godara'
tp15
a(S'100002459833193'
S'Md Ishan'
tp16
a(S'100002857879590'
S'Raj Aryan Arya'
tp17
a(S'100002365482000'
S'Sandeep Bhatiwal'
tp18
a(S'100002973645496'
S'Sudhir Beniwal'
tp19
a(S'100002515052704'
S'Kamal Kishor Jora'
tp20
a(S'100001974262268'
S'Amandeep Singh Ramana'
tp21
a(S'100002349391301'
S'Happy Dhunna'
tp22
a(S'100001388907794'
S'Sandeep Kalwaniya'
tp23
a(S'100002451506408'
S'Atitude Killerzz'
tp24
a(S'100002747885757'
S'Ram Niwas Dudi'
tp25
a(S'100001217632125'
S'Rajaram Bishnoi'
tp26
a(S'100007977092085'
S'Parvinder Singh'
tp27
a(S'100001022579066'
S'P\\u00e4rD\\u00eb\\u00ebp Y\\u00f8g\\u00ef'
tp28
a(S'100002634030181'
S'Suraj Kumar'
tp29
a(S'100002735405180'
S'Ravi Teharpuria'
tp30
a(S'100002199521549'
S'Leeladhar Sharma'
tp31
a(S'100002457067279'
S'Samreen Khan'
tp32
a(S'100002164992528'
S'Mohit Jindal'
tp33
a(S'100002578873769'
S'Vikas Bishnoi'
tp34
a(S'100002043755263'
S'Sidharath Giri'
tp35
a(S'100000916767149'
S'Jitender Singh Bhati'
tp36
a(S'100003033774509'
S'Amit Verma'
tp37
a(S'100001938093103'
S'Naresh Godara'
tp38
a(S'100002476976071'
S'Sahdev Chhimpa'
tp39
a(S'100001478152683'
S'Choudhary Maneesh Saharan'
tp40
a(S'100002903422834'
S'Md Rizwan Khan'
tp41
a(S'100000998353893'
S'Rahul Bhobhia'
tp42
a(S'100001372975758'
S'Vinod Kumar'
tp43
a(S'100002234372870'
S'Deepanshu Gilhotra'
tp44
a(S'100002908212735'
S'Rahul Sharma'
tp45
a(S'100005284538987'
S'Shivnandini Bhatiwal'
tp46
a(S'100002908018819'
S'Rohan Nama'
tp47
a(S'100006711878781'
S'Brijmohan Gour'
tp48
a(S'100000505005870'
S'Vikram Singh Rattan'
tp49
a(S'100002097471531'
S'Nitin Kumar'
tp50
a(S'100002905628462'
S'Jaydev Sharma'
tp51
a(S'100002704954328'
S'Dharmveer Aulakh'
tp52
a(S'100003330710008'
S'Ajay Choudhary'
tp53
a(S'100001464424581'
S'Mohit Kandhari'
tp54
a(S'100002324638252'
S'Asif Sadaf'
tp55
a(S'1759760497'
S'Harinder Jakhar'
tp56
a(S'100001236111021'
S'Vikram Chhimpa'
tp57
a(S'100001414555372'
S'Arun Rokana'
tp58
a(S'100000711169714'
S'Harkaran Singh Kang'
tp59
a(S'100002225212954'
S'Jagmeet Singh'
tp60
a(S'100002174830746'
S'Rohan Duggal'
tp61
a(S'100002220960426'
S'Harry Jhorar'
tp62
a(S'100001832932602'
S'Niyaz RD'
tp63
a(S'100004790442006'
S'Maninder Singh'
tp64
a(S'100002938884746'
S'Manish Chander Beniwal'
tp65
a(S'100002648691449'
S'Sani Ansari'
tp66
a(S'100001810515045'
S'Dinesh Faujdar'
tp67
a(S'100002353001832'
S'Mangi Godara'
tp68
a(S'100006544485917'
S'Shimpi Godara'
tp69
a(S'100002773789881'
S'Diljeet Saini'
tp70
a(S'100002429733626'
S'Ajay Singh'
tp71
a(S'100003962930844'
S'Bansi Dhamu'
tp72
a(S'100002873631091'
S'Praveen Godara'
tp73
a(S'100002010774840'
S'Sunil Choudhary'
tp74
a(S'100002266953246'
S'Aayush Moond'
tp75
a(S'100002473562116'
S'Dipu Likes'
tp76
a(S'100002985064425'
S'Rahul Gaur'
tp77
a(S'100003813465878'
S'Manender Manda'
tp78
a(S'100002825546695'
S'Naval Sharma'
tp79
a(S'100002524461243'
S'Ranveer Naruka'
tp80
a(S'100002921074373'
S'Baldev Tarar'
tp81
a(S'100003398964148'
S'Helo\\u00edsa Vieira'
tp82
a(S'100002703408747'
S'Manda Bhala Ram'
tp83
a(S'100007712200058'
S'Arpita Shagun'
tp84
a(S'100002139351072'
S'Dalip Mandhania'
tp85
a(S'100001656133664'
S'Rajaram Choyal'
tp86
a(S'100002859123383'
S'Ajay Sharma'
tp87
a(S'100002288823864'
S'Vicky Narula'
tp88
a(S'100000765623092'
S'Hazel Sonon Igat'
tp89
a(S'100002375222521'
S'Yogesh Bishnoi'
tp90
a(S'100002108782834'
S'Naveen Dhaka'
tp91
a(S'100001763713325'
S'Kishan Saini'
tp92
a(S'100002328285764'
S'Loveneet Brar'
tp93
a(S'100005777678917'
S'Tushar Arora'
tp94
a(S'100002172976843'
S'Pinto Prasad'
tp95
a(S'100001934253355'
S'Pawan Dhingra'
tp96
a(S'100002442871532'
S'P\\u00e2w\\u00e0\\u00f1 \\u00df\\u00e2dl\\u00e3\\u00d1\\u00ee'
tp97
a(S'100003498100295'
S'Amar Goswami'
tp98
a(S'100002556822679'
S'Lokesh Manchanda'
tp99
a(S'100002915895455'
S'Sanjay Pandit'
tp100
a(S'100005132649127'
S'Vinay Rinwa'
tp101
a(S'100002905984700'
S'Jeet Suthar'
tp102
a(S'100002418494843'
S'\\u0930\\u0942\\u092a\\u0947\\u0902\\u0926\\u094d\\u0930 \\u0915\\u0941\\u092e\\u093e\\u0930 \\u0905\\u0930\\u094b\\u0921\\u093c\\u093e'
tp103
asS'id'
p104
S'100007765566406'
p105
sS'name'
p106
S'Dinesh Bahtiwall'
p107
s.