(dp1
S'friends'
p2
(lp3
(S'1559357022'
S'Tiueti Asi'
tp4
a(S'1537544468'
S'Prachet Sharma'
tp5
a(S'601300726'
S'Devika Lal'
tp6
a(S'1364239024'
S'Neeraj Rawat'
tp7
a(S'1430875768'
S'Roshni Seth'
tp8
a(S'1169473146'
S'Harjott Singh Chadha'
tp9
a(S'1025489875'
S'Anmol Sethi'
tp10
a(S'689617755'
p11
S'Mariyam Hasan'
tp12
a(S'531245127'
S'Nyssa Arora'
tp13
a(S'1474861613'
S'Laura Byrne Soliman'
tp14
a(S'1395169307'
S'Rahul Rana'
tp15
a(S'1462411222'
S'Lakshay Kalra'
tp16
a(S'643137822'
S'Chandrika Surana'
tp17
a(S'1045994045'
S'Arshiya Bhalla'
tp18
a(S'1151915690'
S'Sahil Bhardwaj'
tp19
a(S'1549475396'
S'Pritha Mohanta'
tp20
a(S'1314865917'
S'Retika Sharma'
tp21
a(S'1041122316'
p22
S'Pallavi Arora'
tp23
a(S'1141766821'
S'Robin Makkar'
tp24
a(S'1025349177'
S'Divya Bhatia'
tp25
a(S'1513280425'
S'Kiara Katherina'
tp26
a(S'1109515769'
S'Bharat Bhalla'
tp27
a(S'627189043'
S'Kavita Ajwani Madan'
tp28
a(S'731873261'
S'Akshay Bhardwaj'
tp29
a(S'1537427066'
S'Chetan Shivgond'
tp30
a(S'649012690'
S'Mehr Singh'
tp31
a(S'674678019'
S'Shubham Yadav'
tp32
a(S'1177925877'
S'Asia Marie'
tp33
a(S'1143436780'
S'Maria Tuhakaraina'
tp34
a(S'1195302232'
S'Shrey Jain'
tp35
a(S'643398423'
S'Kartika Ragtah'
tp36
a(S'1161584984'
S'Dhruv Ramsay'
tp37
a(S'586881171'
S'Deepika Bhagwani'
tp38
a(S'1307851211'
S'Pranav Malhan'
tp39
a(S'1134858784'
S'Olivia Jacobs'
tp40
a(S'672123610'
S'Rahul Aneja'
tp41
a(S'1006734233'
S'Nadine Jenness Gutierrez'
tp42
a(S'1033443774'
S'Satyajeet Dutta'
tp43
a(S'530336927'
S'Ashish Dhanani'
tp44
a(S'1348676168'
S'Anshul Bachani'
tp45
a(S'1517497326'
S'Kanika Kishore'
tp46
a(S'1289132651'
S'Tej Thapa'
tp47
a(S'1256469200'
S'Avanti Banerrji'
tp48
a(S'732718266'
S'Mayank Sabharwal'
tp49
a(S'1301568089'
S'Harsh Manocha'
tp50
a(S'1548615760'
S'Aman Arora'
tp51
a(S'1208847498'
S'Ishaan Gaba'
tp52
a(S'1103566236'
S'Priyanka Madnani'
tp53
a(S'1476530310'
S'Isha Precious Konjor'
tp54
a(S'1557369936'
S'Hardik Arora'
tp55
a(S'1239949945'
S'Anchit Rehani'
tp56
a(S'100000270230064'
S'Aaru Shee'
tp57
a(S'640816295'
S'Adhirath Ssharma'
tp58
a(S'734267549'
S'Parika Nagpal'
tp59
a(S'1151799394'
S'Aashley Bachani'
tp60
a(S'1533234610'
S'Ridhima Bhatia'
tp61
a(S'1105147222'
S'Shiv Khattar'
tp62
a(S'1068543933'
S'Sonali Gupta'
tp63
a(S'1548598118'
S'Sanchit Chichra'
tp64
a(S'1461708067'
S'Rahul Johri'
tp65
a(S'1535389569'
S'Sanandika Pratap'
tp66
a(S'744767631'
S'Umang Sonker'
tp67
a(S'1573757730'
S'Kajal Gupta'
tp68
a(S'1254630442'
S'Himani Gauri'
tp69
a(S'1511643391'
S'Aishwarya Chopra'
tp70
a(S'1021206911'
S'Trishaan Bhatia'
tp71
a(S'1250629796'
S'Salim Yousuf'
tp72
a(S'564170536'
S'Natasha Thwaite'
tp73
a(S'1217455850'
S'Ashima Arora'
tp74
a(S'545757971'
S'Krupa Popat'
tp75
a(S'1440336051'
S'Parinita Aggarwal'
tp76
a(S'723568857'
S'Jonty Nilesh'
tp77
a(S'1017513812'
S'Akhil Sahajwani'
tp78
a(S'1161566382'
S'Akshay Sachdeva'
tp79
a(S'1349796902'
S'Harshita Mittal'
tp80
a(S'1239349831'
S'Ashutosh Mishra'
tp81
a(S'564616326'
S'Abhishek Srivastava'
tp82
a(S'523456832'
S'Devang Dand'
tp83
a(S'527802675'
S'Aman Sharma'
tp84
a(S'645797897'
S'Akshit Mehta'
tp85
a(S'1361857087'
S'Ashwin Selvan'
tp86
a(S'1214373516'
S'Nicole Taimauga Mavaega'
tp87
a(S'542688719'
S'Lokesh Mishra'
tp88
a(S'1003788692'
p89
S'Anika Relan'
tp90
a(S'1185863196'
S'Bhuvan S\\u00e9th'
tp91
a(S'592793475'
S'Lakshay Sethi'
tp92
a(S'777992449'
S'Arsh Arora'
tp93
a(S'1034890431'
S'Nalin Dubey'
tp94
a(S'1362968429'
S'Asmitha Rai'
tp95
a(S'1058103770'
S'Akriti Biswas'
tp96
a(S'1384040365'
S'Sahil Joshi'
tp97
a(S'1083039926'
S'Paula Martinez'
tp98
a(S'890655500'
S'Sanya Ralhan'
tp99
a(S'537685868'
S'Rohan Patil'
tp100
a(S'100002559781126'
S'Yen Bhagat'
tp101
a(S'1420917712'
S'Sanidhya Sharma'
tp102
a(S'710001476'
S'Ruchil Sandeep'
tp103
a(S'1167296317'
S'Amitoj Singh'
tp104
a(S'1069263798'
S'Dhruv Chadha'
tp105
a(S'652823517'
S'Srishti Ranjan'
tp106
asS'id'
p107
S'100001042474476'
p108
sS'name'
p109
S'Suchi Bharadwaj'
p110
s.