(dp1
S'friends'
p2
(lp3
(S'100001952910828'
S'DeepansHu Sin Gh'
tp4
a(S'100006487759565'
S'Honey Pal'
tp5
a(S'100000475994459'
S'Kanwar Singh Alagh'
tp6
a(S'100006677710289'
S'Vivek Yadav'
tp7
a(S'1105300599'
S'Jaisika Singh'
tp8
a(S'1005617559'
S'Anand Karatbars'
tp9
a(S'1373110364'
S'Madhav Sabarwal'
tp10
a(S'100003043216707'
S'Ravi Goel'
tp11
a(S'1112417373'
S'Hitesh R. Khanna'
tp12
a(S'100002646482127'
S'Lakshya Rastogi'
tp13
a(S'100002080323248'
S'Aakash Singh'
tp14
a(S'100001205334166'
S'Kanishqa Gautam'
tp15
a(S'1772296203'
S'Harshit Singh'
tp16
a(S'100008378829435'
S'Manish Ashodhiya'
tp17
a(S'100003093159210'
S'Himalaya Sharma'
tp18
a(S'100003070432081'
S'Anupam Mishra'
tp19
a(S'100002404885101'
S'Madhujot Madan'
tp20
a(S'100002682184545'
S'Kunal Mehta'
tp21
a(S'100002556578713'
S'Nishant Panwar'
tp22
a(S'1670294981'
S'Sandeep Sharma'
tp23
a(S'100000264528850'
S'Himanshu Solanki'
tp24
a(S'100002537162246'
S'Komal Sharma'
tp25
a(S'100005170231540'
S'Jatin Kashyap'
tp26
a(S'100005420858809'
S'Manish Murarka'
tp27
a(S'100003043695347'
S'Kavita Bhandari'
tp28
a(S'100002803462429'
S'Ganesh Raj'
tp29
a(S'100001019921983'
S'Ashwani Dubey'
tp30
a(S'100004513685368'
S'Rahul Panchal'
tp31
a(S'100003868596402'
S'Satya Prakash Mishra'
tp32
a(S'100002819708513'
S'Sandeep Dhiman'
tp33
a(S'100004069630394'
S'Happy Sharma'
tp34
a(S'100004613702248'
S'Shilpa Sharma'
tp35
a(S'100002516984528'
S'Rahul Mudgal'
tp36
a(S'100001072970643'
S'Heftige Madhav Kumar'
tp37
a(S'100001805188686'
S'Nitin Singh'
tp38
a(S'100002917690730'
S'Varoon Verma'
tp39
a(S'1439822186'
S'Nagendra Kumar Verma'
tp40
a(S'100001374466752'
S'Ayush Ydv'
tp41
a(S'100006040034205'
S'Neeraj Kumar'
tp42
a(S'100002680086908'
S'Manish Sharma'
tp43
a(S'100006528458882'
S'Kshitij Rahi'
tp44
a(S'100003532603928'
S'Ishwar Pandey'
tp45
a(S'100001075958674'
S'Anshul Gupta'
tp46
a(S'100002173765340'
S'Tarun Sharma'
tp47
a(S'100003105247556'
S'Jaya Ratna'
tp48
a(S'100000727687687'
S'Jasleen Kaur'
tp49
a(S'100000636748763'
S'Rahul Saini'
tp50
a(S'100001108398468'
S'JaskiRat Marwaha'
tp51
a(S'100003199492079'
S'Dharmender Yadav'
tp52
a(S'100001973988189'
S'Abhinav Tripathi'
tp53
a(S'100005687403449'
S'Manish Kumar'
tp54
a(S'100001820995554'
S'Lakshay Burman'
tp55
a(S'100001480274781'
S'Nivesh Vashishtha'
tp56
a(S'100003847713119'
S'Deepak Kumar Jha'
tp57
a(S'100002362323779'
S'Udit Singh Patwal'
tp58
a(S'100000400238883'
S'Vishal Chandra'
tp59
a(S'1426431475'
S'Harsh Vardhan'
tp60
a(S'1815858485'
S'Jitesh Jhirwal'
tp61
a(S'100002405884855'
S'Neet Handa'
tp62
a(S'1431253271'
S'Amit Thakur'
tp63
a(S'100001307526914'
S'Rohit Sharma'
tp64
a(S'1027917394'
S'Karan Narula'
tp65
a(S'100003741475879'
S'Prakhar Kumar Choubey'
tp66
a(S'100000106656079'
S'Nikhil Yadav'
tp67
a(S'100001496251563'
S'Aakash Panwar'
tp68
a(S'100000204964815'
S'Kritika Relan'
tp69
a(S'100001349096853'
S'Sahil Kanojia'
tp70
a(S'100003736210443'
S'Himanshu Koli'
tp71
a(S'1213208590'
S'Akash Rana'
tp72
a(S'100003103552238'
S'Nischay Sharma'
tp73
a(S'100003095411989'
S'Govind Ashodhiya'
tp74
a(S'556110289'
S'Siddhartha Sharma'
tp75
a(S'100006092315820'
S'\\u0905\\u092d\\u093f\\u0937\\u0947\\u0915 \\u0938\\u0947\\u092e\\u0935\\u093e\\u0932'
tp76
a(S'100000053585620'
S'Jatin Sharma'
tp77
a(S'100003005359440'
S'Himanshu Khanna'
tp78
a(S'100002851046577'
S'Madhav Gupta'
tp79
a(S'1299887656'
S'Jashan Gupta'
tp80
a(S'100003984854445'
S'Sidharth Sharma'
tp81
a(S'100005324702636'
S'Prem Chand'
tp82
a(S'100001811469167'
S'Akshay Kumar'
tp83
a(S'1427632672'
S'Harsh Nagar'
tp84
a(S'100003006683257'
S'Sharad Sharma'
tp85
a(S'100001083530133'
S'Rahul Tomar'
tp86
a(S'100003873207607'
S'Bhisham Jangra'
tp87
a(S'100004026172827'
S'Ashu Verma'
tp88
a(S'100001618293197'
S'Manisha Kumari'
tp89
a(S'100003704568529'
S'Ajitesh Yadav'
tp90
a(S'100002770862983'
S'Deepak Ashodhiya'
tp91
a(S'100003137022076'
S'Abhishek Kaushik'
tp92
a(S'100003894434429'
S'Nitish Kumar'
tp93
a(S'100003290420968'
S'Rahul Rohilla'
tp94
a(S'100001864424858'
S'Lovish Khatri'
tp95
a(S'100004482907166'
S'Praneet Bhati'
tp96
a(S'100006497557891'
S'Harleen Kaur Malhotra'
tp97
a(S'100001076010386'
S'Kumar Shivam'
tp98
a(S'100005805791479'
S'Jagtesh Singh'
tp99
a(S'1007538078'
S'Pooja Amit Thakur'
tp100
a(S'100001564697410'
S'Jasmer Gurinder Singh Sandhu'
tp101
a(S'100004228691509'
S'Yogesh Rawat'
tp102
a(S'100000631254555'
S'Mohd Rumman'
tp103
asS'id'
p104
S'100002014644163'
p105
sS'name'
p106
S'Hemant Rana'
p107
s.