(dp1
S'name'
p2
S'Nilmani Neil'
p3
sS'current_class'
p4
S'india'
p5
sS'current_link'
p6
Vhttps://www.facebook.com/l.php?u=https%3A%2F%2Fwww.bing.com%2Fmaps%2Fdefault.aspx%3Fv%3D2%26pc%3DFACEBK%26mid%3D8100%26where1%3D18.520300342657%252C%2B73.855590820312%26name%3DPune%252C%2BMaharashtra%26mkt%3Den-IN&h=HAQHkLeOx&s=1
p7
sS'current_text'
p8
VPune, Maharashtra\u000aCurrent City
p9
sS'friends'
p10
(lp11
(S'100000756910275'
S'Praveer Kumar Agrawal'
tp12
a(S'585436479'
S'Ratnadeep Joshi'
tp13
a(S'1140014148'
S'S Sharan Kedia'
tp14
a(S'1015698151'
S'Dhruv K Pant'
tp15
a(S'1301135338'
S'Sunil Gupta'
tp16
a(S'734171422'
S'Ashish Das'
tp17
a(S'100000130396787'
S'RK Misra'
tp18
a(S'1687009057'
S'Arun Singh'
tp19
a(S'1218636064'
S'Ashish Baheti'
tp20
a(S'100001364078208'
S'Navin Chandra Sharda'
tp21
a(S'100000055052127'
S'Sunil Kumar Singh'
tp22
a(S'816969061'
S'Anshu Prakash'
tp23
a(S'1188385372'
S'Sanjay Kumar'
tp24
a(S'100001302271648'
S'Abhay Sharma'
tp25
a(S'100000684042406'
S'Jitendra Kumar Jain'
tp26
a(S'1803770237'
S'Rajesh Prasad'
tp27
a(S'100000193264857'
S'Pankaj Kumar'
tp28
a(S'538477979'
S'Mohd Saleem'
tp29
a(S'1280419425'
S'Atul Dikshit'
tp30
a(S'1141339003'
S'Anil Gupta'
tp31
a(S'100000020148556'
S'Neeraj Jain'
tp32
a(S'712213170'
S'Rajiv Verma'
tp33
a(S'100003275025609'
S'Awadhesh Kumar Jha'
tp34
a(S'701106967'
S'Chitro Neogy'
tp35
a(S'100000185698344'
S'Sunil Bhasker'
tp36
a(S'100001117447969'
S'Brijesh Singh'
tp37
a(S'601656133'
S'Nikesh Chandra'
tp38
a(S'618414434'
S'Alok Sharan'
tp39
a(S'624294246'
S'Naresh Lalwani'
tp40
a(S'100000249484818'
S'Hari Prakash Tripathi'
tp41
a(S'100003396459430'
S'Asad Mustafa Rizvi'
tp42
a(S'547207837'
S'Hans Raj Sharma'
tp43
a(S'1576582642'
S'Giresh Kumar Singh'
tp44
a(S'1045075346'
S'Vigyan Singhal'
tp45
a(S'1033098215'
S'Alok Ojha'
tp46
a(S'1230146511'
S'Suresh Sapra'
tp47
a(S'707410897'
S'Ajoy Bhatia'
tp48
a(S'714499111'
S'Niraj Prasad'
tp49
a(S'1056798173'
S'Vivek Mudgil'
tp50
a(S'756623778'
S'Anjani Sinha'
tp51
a(S'1186150323'
S'Rohit Verma'
tp52
a(S'624026413'
S'Surajit Basu'
tp53
a(S'100000199088279'
S'Pravin Kumar'
tp54
a(S'686728231'
S'Sanjay Subhash'
tp55
a(S'575079211'
S'Pradeep Bhargava'
tp56
a(S'1604331131'
S'Gp Singh'
tp57
a(S'100000006002148'
S'Anand Swaroop'
tp58
a(S'100001577454370'
S'Atul Nigam'
tp59
a(S'100000487505725'
S'Girish Kumar'
tp60
a(S'1069758057'
S'Manoj K Srivastava'
tp61
a(S'1094673018'
S'Chanchal Kumar'
tp62
a(S'100000632623117'
S'Arun Dharmik'
tp63
a(S'1525624131'
S'Vikas Raj'
tp64
a(S'1039668284'
S'Vansidhar Murthy Anupindi'
tp65
a(S'1338655407'
S'Ankush Gupta'
tp66
a(S'100002643485773'
S'Kumar Tuhin'
tp67
a(S'100001389205577'
S'Rashid Parvez Kausar'
tp68
a(S'822314568'
S'Sanjay Malhotra'
tp69
a(S'1527343304'
S'Abhai Kumar Srivastav'
tp70
a(S'1708231454'
S'Vijay Kumar Sahu'
tp71
a(S'100000909406562'
S'Sandeep Kumar'
tp72
a(S'1070851640'
S'Ajit Mishra'
tp73
a(S'100000666690911'
S'Krishna Kannojia'
tp74
a(S'1051128328'
S'Atul Kumar Agrawal'
tp75
a(S'100000258226949'
S'Naresh Chandra Karmali'
tp76
a(S'1249305711'
S'Pinaki Das'
tp77
a(S'802474635'
S'Sudhir Jha'
tp78
a(S'100000258450030'
S'Rahul Awasthi'
tp79
a(S'100001249132013'
S'Sandip Pradhan'
tp80
a(S'1809363821'
S'Ravindra Kumar Goel'
tp81
a(S'1602309738'
S'Vijay Panjiar'
tp82
a(S'100002503471707'
S'Krishna Chandra Jha'
tp83
a(S'781137925'
S'Dipen Sheth'
tp84
a(S'100001608166757'
S'Jayant Jha'
tp85
a(S'1434665272'
S'Amitabh Thakur'
tp86
a(S'1320358060'
S'Raghvendra Kumar Jha'
tp87
a(S'100001682896980'
S'Fulendra Kumar Choudhary'
tp88
a(S'1174929848'
S'Rajendra Kumar'
tp89
a(S'1473799658'
S'Harpreet Kwatra'
tp90
asS'id'
p91
S'100000558251493'
p92
s.