(dp1
S'friends'
p2
(lp3
(S'100002365641803'
p4
S'RaviKant Pandit'
tp5
a(S'100001433146847'
p6
S'Rajat Sahani'
tp7
a(S'100001768644771'
S'Satish Shah'
tp8
a(S'100000000814145'
S'Nitin Raghubir Panwar'
tp9
a(S'100000086439357'
S'Arun Chaudhary'
tp10
a(S'100000698368450'
S'Ankit Bhardwaj'
tp11
a(S'100004356600770'
S'Vikash Gaur'
tp12
a(S'100002798794835'
p13
S'Mahender Singh Rajput'
tp14
a(S'100002416912627'
S'Ankit Chaubey'
tp15
a(S'100002400968681'
p16
S'Vikas Kumar Yadav'
tp17
a(S'100001734932950'
S'Suraj Kumar'
tp18
a(S'100002546629613'
S'Shubham Singh'
tp19
a(S'100001915887638'
S'Ajay Kumar'
tp20
a(S'100002231472624'
S'Raja Bhardwaj'
tp21
a(S'100000539958930'
S'Veera Vishnu'
tp22
a(S'100001291354796'
S'Rahul Chatterjee'
tp23
a(S'100002699491582'
S'Vikas Yadav'
tp24
a(S'100001774985688'
S'Sushant Sam Kumar'
tp25
a(S'100002244666095'
p26
S'Sandeep Yadav'
tp27
a(S'100002700966464'
S'Ritesh Prasad'
tp28
a(S'100001793322662'
p29
S'Rishabh D Roxtar'
tp30
a(S'100003862557941'
S'Niraj Yadav'
tp31
a(S'100003196113571'
S'\\u00c0ksh\\u00e2y Tiw\\u00e3ri'
tp32
a(S'100000949181859'
S'Shiva Ram'
tp33
a(S'100005348767140'
S'Ankit Yadav'
tp34
a(S'100001274709497'
S'Gaurav Lokhande'
tp35
a(S'100000348630661'
S'Jayant Sarkar'
tp36
a(S'100002099985345'
S'Rahul Kumar'
tp37
a(S'100000519777369'
p38
S'Shubham Sisodia'
tp39
a(S'100002631541579'
p40
S'Cadet Gayatri Sharma'
tp41
a(S'100000894821879'
p42
S'Sarita Singh'
tp43
a(S'100002275817943'
p44
S'Harsh Singh'
tp45
a(S'100002088064936'
S'Ankush Prasad'
tp46
a(S'100000420063649'
S'Rajat Dubey'
tp47
a(S'100001696444791'
S'Sid Singh'
tp48
a(S'100002829716366'
S'Jibin Chacko'
tp49
a(S'100001738689185'
S'Ashutosh Rathore'
tp50
a(S'1397138579'
S'Archit Gupta'
tp51
a(S'100002269372732'
S'Vivek Arya'
tp52
a(S'100002152044490'
S'Shivam Singh'
tp53
a(S'100001435448090'
S'Rakesh Samal'
tp54
a(S'100002036343533'
p55
S'Tushar Tyagi'
tp56
a(S'100002764901494'
p57
S'Arunima Singh'
tp58
a(S'100002284556166'
p59
S'Sunita Saini'
tp60
a(S'100001422012246'
S'Sandeep Dokuparthi'
tp61
a(S'1327495014'
S'Ratnesh Sharma'
tp62
a(S'100002328391984'
S'Prawan Pandey'
tp63
a(S'100000896198564'
S'Ashu Rathore'
tp64
a(S'100002219367962'
p65
S'Pritam Kumar Sahu'
tp66
a(S'100002266239274'
S'Nishant Kumar'
tp67
a(S'100000440134804'
S'Ravinder Singh'
tp68
a(S'100000477460799'
S'Som Bhartiya Dash'
tp69
a(S'100002226846394'
S'Abhishek Kumar'
tp70
a(S'100003484647379'
S'Seelja Yadav'
tp71
a(S'100000914288774'
S'Praveen Rai'
tp72
a(S'100002152341415'
p73
S'Abhishek Purohit'
tp74
a(S'1660572338'
S'Swaraj Kumar'
tp75
a(S'100000527384737'
S'Priyanka Sharma'
tp76
a(S'100002247658813'
S'Abhishek Pani'
tp77
a(S'100002384679973'
S'Vijesh Vijaya Raj'
tp78
a(S'100001224556089'
S'Isha Tyagi'
tp79
a(S'100003756075436'
S'Sagar Gupta'
tp80
a(S'100002396415833'
S'Abhishek Sanjeev'
tp81
a(S'100001636771408'
S'Jeet Yadav'
tp82
a(S'100001993890504'
S'Mohit Yadav'
tp83
a(S'100001568578767'
p84
S'Nehal Singh'
tp85
a(S'100002055200404'
S'Pritam Sahu'
tp86
a(S'100002064285175'
S'Ram Prakash'
tp87
a(S'100002009271874'
p88
S'Shivani Pandey'
tp89
a(S'100000914771361'
p90
S'Sahil Singh'
tp91
a(S'100001932663797'
S'Ankit Deshwal'
tp92
a(S'100002245641834'
S'Hunter Semwal'
tp93
a(S'100001341518356'
S'Sudhir Aryanz'
tp94
a(S'100002231199425'
p95
S'Pankaj Gujar'
tp96
a(S'100002763889846'
S'Surabhi Rai'
tp97
a(S'100000808926981'
p98
S'Binay Kumar Yadav'
tp99
a(S'100002220667661'
S'Jeshwant Rao'
tp100
a(S'100002324591919'
p101
S'Anna Don'
tp102
a(S'100002913021238'
p103
S'Sumit Pratap Singh'
tp104
a(S'100002295199326'
p105
S'Vinayak Yadav'
tp106
a(S'100001565786496'
S'Rahul Kushwaha'
tp107
a(S'100006467355477'
S'Ashu Yadav'
tp108
a(S'100002284034734'
p109
S'Sifan Mahapatra'
tp110
a(S'100002309839409'
p111
S'Pritam Kumar'
tp112
a(S'100001549433131'
p113
S'Vivek Yadav'
tp114
a(S'100005707775965'
S'Mahender Singh Rajput'
tp115
a(S'100002442264984'
S'Sumit Kumar'
tp116
a(S'100002204111207'
S'Sitesh Chauhan'
tp117
a(S'100000060718376'
p118
S'Vijay Kumar Saini'
tp119
a(S'100002122581479'
p120
S'Pratik Chaubey'
tp121
a(S'100002671404795'
S'Sangeeta Kataria'
tp122
a(S'100000124681735'
p123
S'Vikas Rana'
tp124
a(S'100001144321782'
S'Akash Nayak'
tp125
a(S'1549982478'
S'Shiva Pratap Singh'
tp126
a(S'100000863257135'
S'Sayan Das'
tp127
a(S'100002055699489'
p128
S'Rishabh Gupta'
tp129
a(S'100001113975420'
S'Chandrakant Sharma'
tp130
a(S'100000888435328'
S'Santosh Singh Rathore'
tp131
a(S'100005598007075'
S'Ankush Kumar'
tp132
a(S'100005503683958'
S'Abhishek Pani'
tp133
asS'id'
p134
S'100000904029146'
p135
sS'name'
p136
S'Naveen Rai'
p137
s.