(dp1
S'friends'
p2
(lp3
(S'100003869084027'
S'Arti Roy'
tp4
a(S'100004687989680'
S'Shubham Chaubey'
tp5
a(S'100004860969146'
S'Ritu LoveIndia'
tp6
a(S'100001098669222'
S'Birendra Choudhary'
tp7
a(S'100002507487568'
S'Balvikas Prakashan'
tp8
a(S'100004468328530'
S'Surender Saadhak'
tp9
a(S'100006786666228'
S'Dinesh Tripathi Deewana'
tp10
a(S'100003782200548'
S'Tilak Abhijeet'
tp11
a(S'100000706162014'
S'Rahees Singh'
tp12
a(S'100001683188145'
S'Abha Dubey'
tp13
a(S'100005344481891'
S'Swami Dushyant'
tp14
a(S'100003368721440'
S'Manish Sukhwal'
tp15
a(S'100003931135347'
S'Sanjay Sharma'
tp16
a(S'100000523511079'
S'Viren N Tiwari'
tp17
a(S'1199259765'
S'Nishant Choudhary'
tp18
a(S'100000660946531'
S'\\u0936\\u0948\\u0932\\u0947\\u0928\\u094d\\u0926\\u094d\\u0930 \\u0936\\u0948\\u0932\\u0947\\u0928\\u094d\\u0926\\u094d\\u0930'
tp19
a(S'100000595044875'
S'\\u092e\\u0928\\u094b\\u091c \\u092a\\u093e\\u0902\\u0921\\u0947\\u092f'
tp20
a(S'1190462787'
S'Rajendrasinh Chauhan'
tp21
a(S'100001751783023'
S'\\u0921\\u0949.\\u0927\\u0928\\u091e\\u094d\\u091c\\u092f \\u0938\\u093f\\u0902\\u0939'
tp22
a(S'1149782013'
S'\\u092a\\u094d\\u0930\\u0926\\u0940\\u092a \\u0915\\u0941\\u092e\\u093e\\u0930 \\u0938\\u093e\\u0939\\u0928\\u0940'
tp23
a(S'1334621884'
p24
S'Rupsona Gramin'
tp25
a(S'550121408'
S'Parimal Maya Sudhakar'
tp26
a(S'100005145126133'
S'Pawan Singh'
tp27
a(S'100002392391372'
S'Praveen Pandey'
tp28
a(S'100002276278078'
S'Naresh Katyayan'
tp29
a(S'1683446580'
S'Saurabh Misra'
tp30
a(S'100000463928173'
S'Rajeev Ranjan Tiwari'
tp31
a(S'687555908'
S'Satyendra Tripathi'
tp32
a(S'1108009436'
S'Sunil Thapliyal'
tp33
a(S'100005327886043'
S'Pranawkumar Sharan'
tp34
a(S'100004172920743'
S'Luxmi Na Gupta'
tp35
a(S'100004391283411'
S'Khushi Anandi'
tp36
a(S'100003568314449'
S'Anchor Neha Sharma'
tp37
a(S'100004916347268'
S'Premchandra Yadav'
tp38
a(S'100006507341168'
S'Vijendra Kriti Oar'
tp39
a(S'100005376696599'
S'Ajit Priyadarshi'
tp40
a(S'100000416843042'
S'Dweep Chand Singh'
tp41
a(S'100000863799886'
S'\\u0938\\u0924\\u094d\\u092f\\u0926\\u0947\\u0935 \\u0917\\u094b\\u092e\\u093f\\u092f\\u093e'
tp42
a(S'100000925653914'
S'Shireen Sherry'
tp43
a(S'100007341821890'
S'Deepanshu Raj'
tp44
a(S'100003988761890'
S'Sanjay Sahay'
tp45
a(S'100001690222621'
S'Vijayanti Sahji'
tp46
a(S'100001280658093'
S'Vijay Malik'
tp47
a(S'100002730676138'
S'Yogesh Yadav'
tp48
a(S'100001090468217'
S'Santosh Kumar Yadav'
tp49
a(S'1797952181'
S'Bhagwat Saraf'
tp50
a(S'100001814052124'
S'Chidanand Shukla'
tp51
a(S'100004664770068'
S'Arun Kumar'
tp52
a(S'100003392761512'
S'Lokendra Bhartiya'
tp53
a(S'100001147963203'
S'Abhaytosh Kumar Giri'
tp54
a(S'100000846837952'
S'Prasad Ratneshwar'
tp55
a(S'100000802790207'
S'Arjun Singh'
tp56
a(S'100001319481156'
S'Deep Sharma'
tp57
a(S'100000790244670'
S'Biman Roy'
tp58
a(S'100001282963977'
S'Samvedna Duggal'
tp59
a(S'100002204853878'
S'Sumati Atul Goswami'
tp60
a(S'100001479734008'
S'Laxmanprasad Ladiwala'
tp61
a(S'100003690347673'
S'Kaushal Sharma'
tp62
a(S'100000057736856'
S'Rajesh Shrivastava'
tp63
a(S'100000623792904'
S'Rajeev Kumar Jha'
tp64
a(S'100005058846040'
S'Subhash Sharma'
tp65
a(S'100001830241143'
S'Kajal Tank'
tp66
a(S'100006185760366'
S'Kavi Kaushal Kaushalendra'
tp67
a(S'100000527747509'
S'Dinesh Kumar Gupta'
tp68
a(S'1747281093'
S'Sanjeev Singh'
tp69
a(S'1622975396'
S'Juthika Banerjee'
tp70
a(S'100000268191337'
S'Kedar Nath'
tp71
a(S'100003484863677'
S'\\u091a\\u0915\\u094d\\u0930\\u092a\\u093e\\u0923\\u093f \\u0924\\u094d\\u0930\\u093f\\u092a\\u093e\\u0920\\u0940'
tp72
a(S'100001158722965'
S'Rajeev Kumar'
tp73
a(S'100005687893071'
S'Km Anjali'
tp74
a(S'100000215084708'
S'Kamlesh Bhargava'
tp75
a(S'100000514228707'
S'Sangeeta Saxena'
tp76
a(S'1418142657'
S'Chandra Shekhar Pandey'
tp77
a(S'100001998223696'
S'Dhruv Gupt'
tp78
a(S'100002501541851'
S'Debyani Bharti'
tp79
a(S'100000830827058'
S'Pravesh Srivastava'
tp80
a(S'100002024974882'
S'Arogya Darpan'
tp81
a(S'100001770000739'
S'Suleman Modi Modi'
tp82
a(S'100000302185423'
S'Rashmi Mundra Maheshwari'
tp83
a(S'100002928151546'
S'Sunil Sagar'
tp84
a(S'100003652293911'
S'Siddheshwar Siddhu'
tp85
a(S'100003043603465'
S'Mudit Kumar Jain'
tp86
a(S'100002768922254'
S'Chainal India'
tp87
a(S'100000107377246'
S'Drkamal Hetawal'
tp88
a(S'100004514081756'
S'Dinesh Singh'
tp89
a(S'100000437619984'
S'Gunjan Kumar Jha'
tp90
a(S'100000035067606'
S'Arun Lal'
tp91
a(S'100001341332903'
S'DrAnita Thakker'
tp92
a(S'100002236221910'
S'Balendu Mishra'
tp93
a(S'1233556169'
S'Md Zahid Hussain'
tp94
a(S'1370503691'
S'Sudarshan Swamy'
tp95
a(S'100003122546363'
S'\\u0930\\u093e\\u092e\\u0947\\u0936\\u094d\\u0935\\u0930 \\u0924\\u093f\\u0935\\u093e\\u0930\\u0940'
tp96
a(S'731757151'
S'RJ Simran Kohli'
tp97
a(S'100001268177798'
S'Raj Thakur'
tp98
a(S'100001906812341'
S'Digamber Digamber'
tp99
a(S'1766485575'
S'Amit Anand'
tp100
a(S'100004306021279'
S'Yashindra Bhardwaj'
tp101
a(S'100000910412203'
S'Sandeep Mishra'
tp102
a(S'683059505'
S'\\u0936\\u094d\\u0930\\u0935\\u0923 \\u0915\\u0941\\u092e\\u093e\\u0930 \\u0909\\u0930\\u094d\\u092e\\u0932\\u093f\\u092f\\u093e'
tp103
a(S'615150327'
S'Chandravadan Mehta'
tp104
a(S'100000767688967'
S'Rakesh Kumar'
tp105
a(S'100000837281737'
S'Gaurav Singh Chauhan'
tp106
a(S'100004120231942'
S'Rashmi Barthwal'
tp107
a(S'100005326383262'
S'Manjulata Pandey'
tp108
a(S'1114808969'
p109
S'Kaushal Puneet'
tp110
a(S'100001458774996'
S'Ajeet Mishra'
tp111
a(S'724353563'
S'Sayeed Ayub'
tp112
a(S'100005055992906'
S'Jharkhand Grahwa'
tp113
a(S'100001690128346'
S'Suman Keshari'
tp114
a(S'100003764905133'
S'Shazmeen Parvez'
tp115
a(S'100004028847818'
S'Vineet Kaashyap'
tp116
a(S'100006415563846'
S'Ashutosh Kumar'
tp117
a(S'100001790319074'
S'Vichar Manch'
tp118
a(S'100002933830115'
S'\\u0906\\u091a\\u093e\\u0930\\u094d\\u092f \\u0909\\u092e\\u093e\\u0936\\u0902\\u0915\\u0930 \\u0938\\u093f\\u0902\\u0939 \\u092a\\u0930\\u092e\\u093e\\u0930'
tp119
a(S'100000646107749'
S'DrArvind Tyagi'
tp120
a(S'100001937767149'
S'Ajay Chandra'
tp121
a(S'100004085124960'
S'Binny Journalist'
tp122
a(S'100000450563136'
S'Raj Sagar'
tp123
a(S'100002740388832'
S'Kishor Sharma'
tp124
a(S'100000587852219'
S'\\u0905\\u091c\\u092f \\u0938\\u0930\\u094d\\u0935\\u0939\\u093e\\u0930\\u093e \\u0938\\u092e\\u093e\\u091c\\u0935\\u093e\\u0926 \\u091c\\u093f\\u0902\\u0926\\u093e\\u092c\\u093e\\u0926'
tp125
a(S'100000952332093'
S'Ranjana Shahi'
tp126
a(S'100000956105949'
S'Rajendra Pardesi'
tp127
a(S'100001288077270'
S'Rakesh Singh'
tp128
a(S'100003239220134'
S'Harbhajan Singh Deol'
tp129
a(S'100001107814528'
S'Ashok Tiwari'
tp130
a(S'100006600761956'
S'Shubham Bhardwaj'
tp131
a(S'100001192288406'
S'Drkarmanand Arya'
tp132
a(S'100003513790968'
S'Sandeep Yadav'
tp133
a(S'100004424289341'
S'B.d. Sharma'
tp134
a(S'100004616881190'
S'Dharm Raj Sikhwal'
tp135
a(S'100000838082309'
S'\\u0924\\u0932\\u093e\\u0936 \\u091c\\u093e\\u0930\\u0940 \\u0939\\u0948'
tp136
a(S'100004784981607'
S'Rishi Goyal'
tp137
a(S'100004015713707'
S'Ajay Tiwari'
tp138
a(S'100004547949628'
S"\\u0939\\u093f\\u092e\\u093e\\u0902\\u0936\\u0941 \\u0924\\u093f\\u0935\\u093e\\u0930\\u0940'\\u0906\\u0924\\u094d\\u092e\\u0940\\u092f'"
tp139
a(S'100004531143220'
S'Sitaram Sharma Chetan'
tp140
a(S'100000731286704'
p141
S'Sneha Chauhan'
tp142
a(S'1043582589'
S'Sandeep Verma'
tp143
a(S'100002925551268'
S'Mamta Tripathi'
tp144
a(S'1700887146'
p145
S'Chandan Kumar'
tp146
a(S'100004011109325'
S'Ashutosh Ranjan'
tp147
a(S'100001153180293'
S'\\u0935\\u093f\\u0935\\u0947\\u0915 \\u0924\\u093f\\u0935\\u093e\\u0930\\u0940'
tp148
a(S'100000808800134'
S'Gopal Krishna Pandey'
tp149
a(S'100002042064327'
S'Anant Singh'
tp150
a(S'100000585278434'
S'Rashmi Singh'
tp151
a(S'100000977500238'
S'Ravindra Kumar'
tp152
a(S'100003199100194'
S'\\u0938\\u0928\\u094d\\u0926\\u0940\\u092a \\u092e\\u093f\\u0936\\u094d\\u0930 \\u092a\\u0924\\u094d\\u0930\\u0915\\u093e\\u0930'
tp153
a(S'100001602362383'
S'Sanjay Joshi Sajag'
tp154
a(S'100001798931424'
S'Jagdish Kinjalk'
tp155
a(S'1651894721'
S'Rajkumar Bhati'
tp156
a(S'618541109'
S'Mukaysh Chundra Ratori'
tp157
a(S'100008185540301'
S'Sona Mishra'
tp158
a(S'100000834257209'
S'Madan Mohan Saxena'
tp159
a(S'100003019198420'
S'Prakash Sharma'
tp160
a(S'1425286142'
S'Vaibhav Kant Adarsh'
tp161
a(S'100001570678056'
S'Tanu Thadani'
tp162
a(S'1149151768'
S'DrNishant Yadav'
tp163
a(S'100005515921713'
S'Nishant Kashyap'
tp164
a(S'826370908'
S'Arshad Ahmed'
tp165
a(S'100002230006007'
S'Alka Sinha'
tp166
a(S'100003751038966'
S'Vandna Shroti'
tp167
a(S'100004453330714'
S'Ravishekhar Bhardwaj'
tp168
a(S'100004366056310'
S'Parijaat Mukherji'
tp169
a(S'100002336610752'
S'DrAshok Kumar Mishra'
tp170
a(S'100003112998842'
S'Anurag KUmar'
tp171
a(S'100002900185370'
S'Arun Mishra'
tp172
a(S'100000179006171'
S'Rajesh Kummar Sinha'
tp173
a(S'100004411172176'
S'Anita Malviya'
tp174
a(S'100001550464054'
S"\\u0932\\u0935 \\u0915\\u0941\\u092e\\u093e\\u0930 '\\u092a\\u094d\\u0930\\u0923\\u092f'"
tp175
a(S'100002677312004'
S'Rohit Jha'
tp176
a(S'100008052546159'
S'Suman Kumar'
tp177
a(S'100001515803511'
S'Anupam Parihar'
tp178
a(S'100003286153830'
p179
S'Hasya Kavi Ghanshyam Agrawal'
tp180
a(S'100002227359439'
S'Shambhu Manhar'
tp181
a(S'100001732730827'
S'Santosh Cool'
tp182
a(S'100002571789937'
S'\\u0915\\u0932\\u094d\\u092a\\u0928\\u093e \\u0930\\u093e\\u092e\\u093e\\u0928\\u0940'
tp183
a(S'100004695824592'
S'Dhingra Sushil'
tp184
a(S'1179093859'
S'Shreeniwas Tyagi'
tp185
a(S'100007163708815'
S'Manish Kumar Rathod'
tp186
a(S'100003728887022'
p187
S'Nitish Mishra'
tp188
a(S'100002313996809'
S'Vijay Surywanshi'
tp189
a(S'100000163512155'
S'Mottu Mott'
tp190
a(S'100004455548153'
S'Akshay Kumar'
tp191
a(S'100006863860885'
S'Ashok Azami'
tp192
a(S'100001951863160'
S'Urmila Urmi'
tp193
a(S'100001090027150'
S'Ravi Rawat'
tp194
a(S'100000352212031'
S'Nisha Kothari'
tp195
a(S'100000436933670'
S'Abhishek Parashar'
tp196
a(S'100003733196125'
S'Urooj Alam Siddiqui'
tp197
a(S'100000816566096'
S'Neelabh Ashk'
tp198
a(S'100000980824515'
p199
S'Kewal Ram'
tp200
a(S'100006668711115'
S'C.n. Chalu Ramnagar'
tp201
a(S'100002617133316'
S'Kavi Varun Singh Charan'
tp202
a(S'100004135085449'
S'Chitranjan Singh'
tp203
a(S'100002395738546'
S'Raunaque Afroz'
tp204
a(S'100000016542553'
S'DrJaya Shrivastava'
tp205
a(S'100001116030862'
p206
S'Rahul Verma'
tp207
a(S'100003863006149'
S'Harnam Singh Verma'
tp208
a(S'100003910376049'
S'Abhay Tiwari'
tp209
a(S'100004551690037'
S'Aashu Kavi Bheru Sunar'
tp210
a(S'100000027841316'
S'Bhairu Narayan Mathur'
tp211
a(S'100004968667363'
S'Nirupama Mishra'
tp212
a(S'1270070503'
S'Satya Narayan'
tp213
a(S'100006998046585'
S'Sant Lal'
tp214
a(S'100001284571550'
S'Rahul Sinha'
tp215
a(S'100002896811291'
S'\\u0905\\u0902\\u091c\\u0932\\u093f \\u0938\\u093f\\u0902\\u0939'
tp216
a(S'801629075'
S'Pawan Tiwari'
tp217
a(S'100001541155417'
S'\\u0938\\u091a\\u093f\\u0928 \\u0936\\u094d\\u0930\\u0940\\u0935\\u093e\\u0938\\u094d\\u0924\\u0935'
tp218
a(S'100004758881834'
S'Kavi Anil Mishra Tejasva'
tp219
a(S'100005249403684'
S"\\u0909\\u092a\\u0947\\u0928\\u094d\\u0926\\u094d\\u0930 \\u0938\\u093f\\u0902\\u0939 '\\u0938\\u0941\\u092e\\u0928'"
tp220
a(S'100004995695311'
S'Kavi Himalay Nigam'
tp221
a(S'100001214333562'
S'Sony Kishor Singh'
tp222
a(S'100000896607520'
S'Ajeet Kumar'
tp223
a(S'1317195326'
p224
S'Khurshid Anwar'
tp225
a(S'100003227515158'
S'Vk Keshri'
tp226
a(S'100004843572027'
S'Ram Kishan'
tp227
a(S'100002068504923'
S'Love Commandos'
tp228
a(S'100001619168075'
S'Ekeshwar Hatwal Artist'
tp229
a(S'100000687595328'
S'Hareram Sameep'
tp230
a(S'1641142847'
S'Satyendra Narayan Singh'
tp231
a(S'100000420882212'
S'Bharti Shandilya'
tp232
a(S'100004478374757'
S'Sushil Kumar'
tp233
a(S'100003593270816'
S'Bharti Bhardwaj'
tp234
a(S'100000599952829'
S'Shailja Pathak'
tp235
a(S'100000104878964'
S'Anil Mishra'
tp236
a(S'1654374756'
S'Anil Kumar Yadav'
tp237
a(S'100000168655860'
S'Mittal Suresh'
tp238
a(S'100002651778475'
S'Kunwar Pratap Sisodia'
tp239
a(S'1704055458'
S'Vikram Singh'
tp240
a(S'100005082308215'
S'Girjashankar Shukla'
tp241
a(S'100002464148339'
S'Manjari Saha'
tp242
a(S'100000175266937'
S'Leena Anand'
tp243
a(S'100003141981901'
S'Deepika Dwivedi'
tp244
a(S'534988846'
p245
S'Shail Agrawal'
tp246
a(S'100002988976770'
S'Sanjeev Chokotiya'
tp247
a(S'100002566992738'
S'Balbir Singh Khichdi'
tp248
a(S'100004631563090'
S'Vinod Kr Mishra'
tp249
a(S'688725775'
S'Abhishek Shankar'
tp250
a(S'100000264290360'
S'Prabhat Sinha'
tp251
a(S'100001801323786'
S'Krishna Agarwal'
tp252
a(S'100002192466481'
S'Suman Upadhyay'
tp253
a(S'100004976737499'
p254
S'Satish Anand'
tp255
a(S'100003109368687'
S'Vipin Batra'
tp256
a(S'100002367248608'
S"\\u0905\\u0928\\u0928\\u094d\\u0924 \\u0906\\u0932\\u094b\\u0915 '\\u0905\\u0928\\u0928\\u094d\\u0924'"
tp257
a(S'100005465491109'
S'Dayanand Jayswal'
tp258
a(S'100002385594375'
S'Gopal Pandit'
tp259
a(S'100000617641775'
S'Kamna Tak'
tp260
a(S'100000302716893'
S'Upendra Prasad'
tp261
a(S'100004449695433'
S'Surendra Saran'
tp262
a(S'100001302660644'
p263
S'Sumant Bhattacharya'
tp264
a(S'100001533287793'
S'Manav Shivi Mehta'
tp265
a(S'100005153791859'
S'Anil Bajpai'
tp266
a(S'1453417816'
S'Dev Niranjan'
tp267
a(S'100004847193154'
S'Kumar Manuj'
tp268
a(S'100008281031193'
S'Adarsh Tiwari'
tp269
a(S'100000507510985'
p270
S'KP Saxena Dusre'
tp271
a(S'100003307876782'
S'Ayodhya Shodh Sansthan'
tp272
a(S'710824020'
S'Anil Singh'
tp273
a(S'100000488071711'
S'Tabassum Jahan'
tp274
a(S'100003828176300'
S'Rupesh Kumar'
tp275
a(S'100001501611587'
S'Ranjeet Prabhakar'
tp276
a(S'100001918458878'
S'Kamlesh Bhatt Kamal'
tp277
a(S'100001613877896'
S'Lekhraj Ojha'
tp278
a(S'100001166629654'
p279
S'Rafiq Qadri'
tp280
a(S'100001448511669'
S'Sushil Chaudhary'
tp281
a(S'100000126888122'
S'Neela Prasad'
tp282
a(S'1145601337'
S'Sanjeev Kumar Jha'
tp283
a(S'524607376'
S'Niraj Singh'
tp284
a(S'100002425108791'
S'\\u0938\\u093e\\u0930\\u093f\\u0915\\u093e \\u0938\\u093f\\u0902\\u0939'
tp285
a(S'657656506'
S'Pushpraj Shrivastava'
tp286
a(S'100003284890206'
S'Swami Dushyant'
tp287
a(S'100001025082403'
p288
S'\\u092a\\u094d\\u0930\\u0940\\u0924\\u093f \\u0938\\u0941\\u0930\\u093e\\u0928\\u093e'
tp289
a(S'1783621405'
p290
S'Mahesh Rathi'
tp291
a(S'100002720804128'
S'Kamla Kumar'
tp292
a(S'100004438716801'
S'Vivek Pandey'
tp293
a(S'100002630346351'
S'Shashi Kant Pathak'
tp294
a(S'100004352611845'
S'Ram Jaitley'
tp295
a(S'100001366522399'
S'Mohammed Tarique'
tp296
a(S'100005922730990'
S'Koyal Chaudhary'
tp297
a(S'100004729177810'
S'Vidyanand Vikal'
tp298
a(S'100003612919117'
S'Rupendra Singh'
tp299
a(S'100004096284734'
S'\\u0938\\u0941\\u0930\\u0947\\u0936 \\u0915\\u0941\\u092e\\u093e\\u0930'
tp300
a(S'100003159123408'
S'Divya Sharma'
tp301
a(S'100005336679459'
S'Vijay Kochar'
tp302
a(S'100002545834648'
S'Shashank Dwivedi'
tp303
a(S'100001838790749'
S'Purushottam Kumar'
tp304
a(S'100000983724462'
S'Piyush Tiwari'
tp305
a(S'1146400046'
S'Himanshu Puri'
tp306
a(S'100004587913690'
S'Hindi Kavita'
tp307
a(S'100003061874727'
S'Pavan Kumar Garg'
tp308
a(S'100001845683866'
S'\\u0928\\u0924\\u093e\\u0936\\u093e \\u0938\\u093f\\u0902\\u0939'
tp309
a(S'1250816376'
S'Mohan Kumar'
tp310
a(S'100001734444790'
S'Kumar Manoj'
tp311
a(S'100000112284385'
S'Kavi Sumit'
tp312
a(S'100000800334675'
S'Raju Singh Royal Enfield'
tp313
a(S'100001887972031'
S'Ajay Anand'
tp314
a(S'100001937438267'
S'Shekhar Arya'
tp315
a(S'100003160971745'
S'Rajesh Rastogi'
tp316
a(S'100003854883026'
S'Krishnendra Nath Chakradhar'
tp317
a(S'100001787537775'
p318
S'\\u092a\\u0941\\u0937\\u094d\\u092a\\u0947\\u0928\\u094d\\u0926\\u094d\\u0930 \\u092b\\u093e\\u0932\\u094d\\u0917\\u0941\\u0928'
tp319
a(S'100001320956408'
S'Manoranjan Kumar Tiwari'
tp320
a(S'100001197516063'
S'Bhavesh Sharma'
tp321
a(S'100005529912008'
S'Vaidehi Jha'
tp322
a(S'100003716717113'
S'Kavi Mahendra Mihonvi'
tp323
a(S'1665611659'
p324
S'Mahima Mittal'
tp325
a(S'100007940019005'
S'Biresh S Bittu Raj'
tp326
a(S'100003340553767'
S'Ompal Sharma'
tp327
a(S'100004391596298'
S'Madhukar Bharti'
tp328
a(S'100003623557322'
S'Fakhrealam Alam'
tp329
a(S'100000602210346'
S'Ravindra K Das'
tp330
a(S'100004448169159'
S'Mukesh Wahane'
tp331
a(S'100000777415897'
S'\\u0921\\u0949.\\u0905\\u0930\\u0941\\u0923\\u093e \\u0915\\u092a\\u0942\\u0930'
tp332
a(S'100001218884499'
S'Tejwani Girdhar'
tp333
a(S'100002607033643'
S'Suryaprakash Trivedi'
tp334
a(S'100000101463228'
S'Madhu Sudan Muskara'
tp335
a(S'1451952745'
S'Nalin Chauhan'
tp336
a(S'1061730179'
S'Rajesh Asthana Anant'
tp337
a(S'100005320089445'
S'Amit Banerjee'
tp338
a(S'1242506326'
S'Nemish Hemant'
tp339
a(S'100003334824289'
S'\\u0921\\u0949 \\u0915\\u093f\\u0902\\u0936\\u0941\\u0915 \\u0915\\u093e\\u0902\\u0915\\u0930\\u093f\\u092f\\u093e\\u0901'
tp340
a(S'100002093877614'
S'Manhar Chowhan'
tp341
a(S'100005265606735'
S'Kaushal Tiwari'
tp342
a(S'100001473511484'
S'Bhanu Joshi'
tp343
a(S'585865842'
p344
S'DrPraveen Tiwari'
tp345
a(S'100000967256444'
S'Anuradha Kumar'
tp346
a(S'100002498172071'
S'\\u0906\\u0915\\u093e\\u0901\\u0915\\u094d\\u0937\\u093e \\u0938\\u0947\\u0920'
tp347
a(S'100004245332640'
S'Piyush Singh Rajpoot'
tp348
a(S'100002133741181'
S'Deepak Shukla'
tp349
a(S'100002436122941'
S'Pinky Chetani'
tp350
a(S'100004205743443'
S'Nitu Singh'
tp351
a(S'1669501029'
S'Amrita Thakur'
tp352
a(S'100000567991778'
S'Urmila Madhav'
tp353
a(S'100002251584951'
S'Manu Rana'
tp354
a(S'100002252498452'
S'Kavi Vaibhav Agarwal'
tp355
a(S'100003597218193'
S'Gopesh Vajpayee'
tp356
a(S'100004269010503'
S'Kedar Prasad'
tp357
a(S'100003807436793'
S'Nishi Kant'
tp358
a(S'100003348005612'
S'Anoop Raj Pandey'
tp359
a(S'100001100638538'
S'Yugal Kishor Dubey'
tp360
a(S'100002964909700'
S'Bimlesh Duttadubey'
tp361
a(S'100002241034050'
S'Priyanka Pandey'
tp362
a(S'100000954674330'
S'Modi Bhupesh'
tp363
a(S'1593315656'
S'Ved Mathur'
tp364
a(S'1064227034'
S'Lal Bahadur Singh'
tp365
a(S'100000759931254'
S'Virender Bhatia'
tp366
a(S'100001602319787'
S'Meenakshi Sukumaran'
tp367
a(S'100006151267920'
S'Manish Kr'
tp368
a(S'100003052357215'
S'Shailendra Kumar Chaturvedi'
tp369
a(S'100002204021060'
S'Jitendra Visariya'
tp370
a(S'100002932074375'
S'Preetam Kumar'
tp371
a(S'100002412788507'
S'Rangesh Bhardwaj'
tp372
a(S'1808374272'
p373
S'Sarvesh Asthana'
tp374
a(S'100000609342201'
S'Ashok Jamnani'
tp375
a(S'100001326429808'
S'Shalini Shrivastava'
tp376
a(S'100001466516855'
S'Sushil Kumar Singh'
tp377
a(S'1572306030'
S'Deepak Kumar Sharma'
tp378
a(S'1059065106'
S'Alok Ranjan'
tp379
a(S'100003118745130'
S'Pradeep Singh'
tp380
a(S'100003327645068'
S'Krishna Kant Madhur'
tp381
a(S'1361632700'
S'Mansi Manish'
tp382
a(S'100002943199558'
S'Somesh Thakur'
tp383
a(S'100003813986871'
S'Kuldeep Kumar Mishra'
tp384
a(S'100005379031890'
S'Kamal Sadana Kabeer'
tp385
a(S'100000571661565'
S'Akhilesh Upadhyaya'
tp386
a(S'100002258715000'
S'Rohit G Rusia'
tp387
a(S'100002484718248'
S'Ajay Singh'
tp388
a(S'100001158471400'
S'Anil Garg'
tp389
a(S'100005237197736'
S'Mahendar Jain Kekri'
tp390
a(S'100003269962638'
S'Gori Sharma'
tp391
a(S'100003214985129'
S'\\u0905\\u0930\\u0941\\u0923 \\u0924\\u094d\\u0930\\u093f\\u0935\\u0947\\u0926\\u0940 \\u0905\\u0928\\u0941\\u092a\\u092e'
tp392
a(S'100003145549839'
p393
S'Rekha Vinod Jain'
tp394
a(S'100002282413866'
S'Chanchal Bhu'
tp395
a(S'100002132802659'
S'Arvind Gour Ambar'
tp396
a(S'100000176634247'
S'Munna Kumar Agrawal'
tp397
a(S'100000579240457'
S'Pandey Purushottam'
tp398
a(S'100005237560317'
p399
S'Madhu Chaturvedi'
tp400
a(S'100000823257348'
S'Nitin Bhargava'
tp401
a(S'100000641156281'
S'Waseem Khan'
tp402
a(S'100003871961544'
S'Mitali Jha'
tp403
a(S'100004438654835'
S'Racheal Crawford'
tp404
a(S'100004428973793'
S'Chintu Dada'
tp405
a(S'100002768718992'
S'Masoom Ghaziabadi'
tp406
a(S'100002492908437'
S'Anupama Bajpai'
tp407
a(S'100005541454117'
S'Rajesh Tiwari'
tp408
a(S'100002620738744'
S'Ranjana Singh'
tp409
a(S'100000111517194'
S'Ashutosh Singh'
tp410
a(S'100002184159528'
S'Kavi Anil Anjana'
tp411
a(S'100005186080559'
S'\\u0921\\u0949. \\u0930\\u0942\\u092a\\u091a\\u0928\\u094d\\u0926\\u094d\\u0930 \\u0936\\u093e\\u0938\\u094d\\u0924\\u094d\\u0930\\u0940 \\u092e\\u092f\\u0902\\u0915'
tp412
a(S'100004516003378'
S'Pushpendra Kashyap'
tp413
a(S'100000244865623'
S'Satya Garg'
tp414
a(S'1086772021'
S'Vivek Ranjan Shrivastava'
tp415
a(S'100001500189411'
S'Sanjay Kumar Singh'
tp416
a(S'100002695230668'
S'\\u0920\\u093e. \\u0939\\u093f\\u0924\\u0947\\u0936 \\u0938\\u093f\\u0902\\u0939'
tp417
a(S'100002830747689'
S'Subodh Sharma'
tp418
a(S'100002323578582'
S'Satish Singh'
tp419
a(S'625135916'
S'Girish N Pande'
tp420
a(S'100001650916396'
S'Pankaj Trivedi'
tp421
a(S'100002813734960'
S'Sanjay Kumar Garg'
tp422
a(S'100005108793765'
S'Dimple Mishra'
tp423
a(S'100002502181180'
S'Arvind Kumar'
tp424
a(S'1464880858'
S'Rinita Mazumdar'
tp425
a(S'1009202750'
S'Satya Chandan'
tp426
a(S'100001164661697'
S'Kamlesh Kumar Singh'
tp427
a(S'100002838179002'
S'Anupama Pandit Jyotishacharya'
tp428
a(S'1751764444'
p429
S'Subhash Chander'
tp430
a(S'100003373128207'
S'Kavi C M Atal'
tp431
a(S'100004298073171'
S'Rani Queen'
tp432
a(S'100002664702855'
S'Diplomatic Deepak Singh'
tp433
a(S'100004690149027'
S'\\u092e\\u0939\\u0947\\u0936 \\u091a\\u0928\\u094d\\u0926\\u094d\\u0930 \\u0924\\u094d\\u0930\\u093f\\u092a\\u093e\\u0920\\u0940'
tp434
a(S'100001986976827'
S'Rahul Dev'
tp435
a(S'100004963624198'
S'Ashok Awasthi'
tp436
a(S'100005475638971'
S'\\u0906\\u0926\\u093f\\u0924\\u094d\\u092f \\u0938\\u0920\\u0935\\u093e\\u0930\\u093f\\u092f\\u093e \\u0938\\u0920'
tp437
a(S'100000949683977'
S'Vishaal Charchchit'
tp438
a(S'100003776072608'
S'Raghvendra Singh'
tp439
a(S'100003589201256'
S'Dwivedi Ajay Kumar'
tp440
a(S'100003016357641'
S'Vibhuti Dwivedi Vivek Lodh'
tp441
a(S'100001190071134'
p442
S'Gokul Dalit'
tp443
a(S'100003096409728'
S'Pankaj Pandey'
tp444
a(S'100004662669656'
S'Pandit Ankit Pathak'
tp445
a(S'100003861664883'
S'Abhishek Pathak'
tp446
a(S'100003788674261'
S'Suman Parwati'
tp447
a(S'100001455070294'
S'Richa Pandit'
tp448
a(S'100003684798229'
S'Rashi Modi'
tp449
a(S'100003314781821'
S'Prabhakar Mishra'
tp450
a(S'100001708748010'
S'Saumya Sharma'
tp451
a(S'100001136159165'
S'Rajeev Kumar'
tp452
a(S'100001542917467'
S'Prakash Bishnoi'
tp453
a(S'100003239384914'
S'Suneeta Saxena'
tp454
a(S'100004085681622'
S'Vikash Kumar'
tp455
a(S'100006893581113'
S'Vandana Agrawal'
tp456
a(S'100004189092950'
S'Pankaj Thakur'
tp457
a(S'100004441036397'
S'Madhav Shanker Pathak'
tp458
a(S'100001517948404'
S'Shri Prakash Shukla'
tp459
a(S'100001462673094'
S'Harish Sharma'
tp460
a(S'1744942436'
S'\\u0905\\u0902\\u0936\\u0941 \\u092e\\u093e\\u0932\\u093e'
tp461
a(S'100004113193993'
S'Shrddha Pandey'
tp462
a(S'100001460944514'
S'Amitosh Pandit'
tp463
a(S'100001359862731'
S'Rakesh Sharma'
tp464
a(S'100000260938192'
S'Amrita Bera'
tp465
a(S'100003244587342'
S'Kavi Vinay Vinamra'
tp466
a(S'100000191439648'
S'\\u092a\\u094d\\u0930\\u0936\\u093e\\u0902\\u0924 \\u0938\\u093f\\u0902\\u0939'
tp467
a(S'1691274993'
S'Sagar Pandey'
tp468
a(S'100003063755785'
S'Seema Singh'
tp469
a(S'100004036788074'
p470
S'ProfAmitabh Pandey'
tp471
a(S'100001781251394'
S'Sanjiv Gangwar'
tp472
a(S'100000180645830'
p473
S'Shiv Kumar Rai'
tp474
a(S'100007508591113'
S'Gathantar Hindi Traymasik'
tp475
a(S'100002460139480'
S'Ashu Gautam'
tp476
a(S'1726861585'
S'Manjit Singh'
tp477
a(S'100004595377681'
S'Mohammad Arif'
tp478
a(S'100000855402701'
S'Neeloo Patni NeelPari'
tp479
a(S'100000883737938'
S'Roli Misra'
tp480
a(S'100001809830301'
S'Rajesh Bhardwaj'
tp481
a(S'100002507691145'
S'Deepak Mittal'
tp482
a(S'100003491462354'
S'Falak Singh'
tp483
a(S'100004013954775'
S'Satyapal Yadav'
tp484
a(S'100001240675020'
S'Ashok Tiwari'
tp485
a(S'1799624116'
S'Vikash Chanchal'
tp486
a(S'100002350540876'
S'\\u0935\\u0938\\u0941\\u0928\\u094d\\u0927\\u0930\\u093e \\u092a\\u093e\\u0923\\u094d\\u0921\\u0947\\u092f'
tp487
a(S'100002223694070'
S'Sunil Bhardwaj'
tp488
a(S'100000113586916'
p489
S'Ashish Tripathi'
tp490
a(S'100002640856285'
S'\\u0939\\u093e\\u0936\\u092e\\u092c\\u0947\\u0917 \\u092e\\u093f\\u0930\\u094d\\u095b\\u093e'
tp491
a(S'100005321472041'
S'Akhil Bhartiya Sahityalok'
tp492
a(S'100001212838905'
S'Anil Singh Kushwah'
tp493
a(S'100001472328042'
S'Seema Gupta'
tp494
a(S'100003972876485'
S'Krishna Kant Agnihotri'
tp495
a(S'100003390662097'
S'\\u0935\\u093f\\u092d\\u093e\\u0902\\u0936\\u0941 \\u0915\\u0941\\u092e\\u093e\\u0930'
tp496
a(S'100002999992198'
S'Surendra Yadav'
tp497
a(S'100001046167729'
S'Haasy Kavi Sharad Jaiswal'
tp498
a(S'100000994872959'
S'\\u0917\\u093f\\u0930\\u093f\\u0930\\u093e\\u091c \\u092d\\u0902\\u0921\\u093e\\u0930\\u0940'
tp499
a(S'100003041452697'
S'\\u0905\\u0935\\u0936\\u0947\\u0937 \\u0915\\u0941\\u092e\\u093e\\u0930 \\u0935\\u093f\\u092e\\u0932'
tp500
a(S'100005361852720'
S'Kavi Sushil Bhole'
tp501
a(S'100006456637981'
p502
S'Poonam Garg'
tp503
a(S'100001638481282'
S'Vinod Vithall'
tp504
a(S'1338008700'
S'Brijesh Dwivedi'
tp505
a(S'100004109133727'
S'Nagendra Mishra'
tp506
a(S'100002987716841'
S'Anamika Singh'
tp507
a(S'100002362788579'
S'Neera Areen Jain'
tp508
a(S'100001526248156'
S'Abhishek Pandey'
tp509
a(S'100004940323495'
S'Vikas Asati'
tp510
a(S'100000017545515'
S'Shikha Mehra'
tp511
a(S'100000925614689'
S'\\u0905\\u0935\\u0928\\u0940\\u0936 \\u0938\\u093f\\u0902\\u0939 \\u091a\\u094c\\u0939\\u093e\\u0928'
tp512
a(S'1499072446'
S'Nayyar Azad'
tp513
a(S'100000735596119'
S'Thakur Satish'
tp514
a(S'100003348269108'
S'Ashutosh Mishra'
tp515
a(S'100003742537281'
S'\\u0926\\u0947\\u0935\\u0947\\u0936 \\u0915\\u0941\\u092e\\u093e\\u0930 \\u091a\\u094c\\u092c\\u0947'
tp516
a(S'100001562203196'
S'Vijay S Tiwary'
tp517
a(S'100003878760181'
S'Sonam Awasthi'
tp518
a(S'100001260471065'
S'Kalyani Singh'
tp519
a(S'100003280070965'
S'Ajit Sharma'
tp520
a(S'100003183495337'
S'Mayank Breja'
tp521
a(S'100000638463151'
S'Sumit Tiwari'
tp522
a(S'100000867296249'
S'\\u0921\\u0949. \\u092e\\u0928\\u091c\\u0940\\u0924 \\u0938\\u093f\\u0902\\u0939'
tp523
a(S'100000628620658'
S'Sita Diya'
tp524
a(S'1200091993'
S'Mahendra Prasad Kushwaha'
tp525
a(S'100003793275281'
p526
S'Manju Gupta'
tp527
a(S'542449547'
S'Lokesh Nadeesh'
tp528
a(S'100004742504013'
S'Hemant Kumar'
tp529
a(S'100002354090003'
S'Rajkumar Sharma'
tp530
a(S'100005117915850'
S'Mukesh Kumar Singh'
tp531
a(S'100002621644587'
S'Anil Maheshwari'
tp532
a(S'100002995827539'
S'Ajay Kumar Jha'
tp533
a(S'100000200643254'
S'DrAshutosh Bajpai'
tp534
a(S'100002260825264'
S'Shashi Bhushan Singh'
tp535
a(S'100003178358623'
S'DrSohan Lal Swami'
tp536
a(S'100001523228277'
S'Satish Gaur'
tp537
a(S'100005088759929'
S'DrMili Singh'
tp538
a(S'100001238501524'
S'Deo Rajendra'
tp539
a(S'100004072065187'
S'\\u0921\\u0949. \\u0939\\u0940\\u0930\\u093e\\u0932\\u093e\\u0932 \\u092a\\u094d\\u0930\\u091c\\u093e\\u092a\\u0924\\u093f'
tp540
a(S'100000193232811'
S'Shrimant Jainendra'
tp541
a(S'1615246179'
S'Sanjay Shepherd'
tp542
a(S'100005868007069'
S'Shandilya Nivedita'
tp543
a(S'1542597580'
S'Vivek Mishra'
tp544
a(S'100006636310170'
S'Prashantkumar Pandey'
tp545
a(S'100004374408194'
S'Shafi Ahmad Khan'
tp546
a(S'100002581860787'
S'Sharman Jee'
tp547
a(S'100002573654238'
S'Kavi Atul Jain Surana'
tp548
a(S'100001255533432'
S'Mohan Thanvi'
tp549
a(S'100001549850210'
S'Santosh Singh'
tp550
a(S'100001387220379'
S'Mohan Singh'
tp551
a(S'100004075733906'
S'Vijay Shankar Mishra'
tp552
a(S'1058447041'
S'Rajendra Kumar'
tp553
a(S'100000845918458'
S'Ravi Thakur Shuryvansh'
tp554
a(S'100005842201111'
S'Nidhi Pande'
tp555
a(S'100001408859021'
S'Ratnakar Pathak'
tp556
a(S'100000449154689'
S'Anusua Dutta'
tp557
a(S'100000861013982'
S'Hrishikesh Sulabh'
tp558
a(S'1456524502'
S'Md Rahmatullah'
tp559
a(S'100005590660520'
S'Comrade Raj'
tp560
a(S'100003629994956'
S'Sunita Singh Sisodia'
tp561
a(S'100000780744732'
S'Rajiv Prasun'
tp562
a(S'100000730313227'
S'Rohit Kumar Meet'
tp563
a(S'100000858563967'
S'Krishan Bir Chaudhary'
tp564
a(S'100002469950321'
S'Subhash Kumar'
tp565
a(S'100000470089048'
S'\\u0905\\u092e\\u093f\\u0924 \\u0906\\u0928\\u0902\\u0926'
tp566
a(S'100005637489921'
S'Avinash Tiwari'
tp567
a(S'100001652411537'
S'Anoop Pandey'
tp568
a(S'100002077839764'
S'Arya Yogesh'
tp569
a(S'1342182188'
S'Mohd Kamran'
tp570
a(S'100004225241965'
S'Ashok Kashyap Kavi'
tp571
a(S'100000031398267'
S'Sunita Sharma'
tp572
a(S'100002356690282'
S'Ajay Yadav'
tp573
a(S'557539116'
S'\\u091c\\u092f \\u092c\\u0930\\u0923\\u0935\\u093e\\u0932'
tp574
a(S'100001560970408'
S'\\u092a\\u094d\\u0930\\u092b\\u0941\\u0932\\u094d\\u0932 \\u0915\\u094b\\u0932\\u0916\\u094d\\u092f\\u093e\\u0928'
tp575
a(S'100003710621813'
S'Rohit Sharma'
tp576
a(S'100006068161570'
S'E-news India'
tp577
a(S'100004075442970'
S'Dayashankar Sharma'
tp578
a(S'100001135067914'
S'Divya Shukla'
tp579
a(S'100000783109384'
S'Navsancharsamachar Samachar'
tp580
a(S'100002368653598'
S'Madan Mohan Ahuja'
tp581
a(S'100003337563624'
S'Ashish Kr Anshu'
tp582
a(S'1084037439'
S'Sunit Kumar'
tp583
a(S'100001524596626'
S'Arun Sheetansh'
tp584
a(S'1477775328'
S'Manoj Singh'
tp585
a(S'100002475237345'
S'Udai Bhan Mishra'
tp586
a(S'100003523910181'
S'Anila Anu'
tp587
a(S'100002714031578'
S'Nisha Thakur'
tp588
a(S'100003461715166'
S'Amirnath Sharma'
tp589
a(S'1380193131'
S'Rajni Chhabra'
tp590
a(S'100004165897784'
S'Raj Heeramun'
tp591
a(S'100003757729327'
S'Shikhar Chand Jain'
tp592
a(S'100003684972557'
S'Goel RajendraPrasad'
tp593
a(S'100002254724911'
S'Pratik Sankpal'
tp594
a(S'100002909069280'
S'Rupesh Saxena'
tp595
a(S'1677065215'
S'Mukesh Kumar'
tp596
a(S'100004917185154'
S'\\u0930\\u091c\\u0928\\u0940\\u0936 \\u0936\\u0930\\u094d\\u092e\\u093e \\u092e\\u093e\\u0930\\u094d\\u0924\\u0923\\u094d\\u0921'
tp597
a(S'550829877'
S'Laxman Singh Dev'
tp598
a(S'100006637686359'
S'Aarti Bajpai'
tp599
a(S'100000075632681'
S'Shefali Pande'
tp600
a(S'100001380364588'
S'Mahesh Muchhal'
tp601
a(S'100007747236627'
S'Dhiraj Kumar'
tp602
a(S'100004523382566'
S'Manisha Sharma Shikhar'
tp603
a(S'100003147080225'
S'Om Prakash Bhardwaj Puttu'
tp604
a(S'100001620970178'
S'Amit Sahni'
tp605
a(S'100004088211206'
S'\\u0905\\u092e\\u094d\\u092c\\u0941\\u091c \\u0915\\u0941\\u092e\\u093e\\u0930 \\u092e\\u093f\\u0936\\u094d\\u0930'
tp606
a(S'100001655093282'
S'Nirmal Darshan'
tp607
a(S'1803613648'
S'Manish Shrivastava'
tp608
a(S'100002805868870'
S'Uma Jhunjhunwala'
tp609
a(S'100000776736830'
S'\\u092e\\u0939\\u0947\\u0902\\u0926\\u094d\\u0930 \\u0935\\u0930\\u094d\\u092e\\u093e'
tp610
a(S'100000623789248'
S'DrAnil Upadhyay'
tp611
a(S'100001214497244'
S'Ashutosh Kumar Singh'
tp612
a(S'100000081607606'
S'Ravendra Shukla'
tp613
a(S'100003715063089'
S'Brijesh Tiwari'
tp614
a(S'1253739511'
S'Vijay Kishore Manav'
tp615
a(S'100003040707563'
S'Vivek Goyal'
tp616
a(S'100000540781756'
S'Sanjay Munjal'
tp617
a(S'720006123'
S'Chandra Mauli Pandey'
tp618
a(S'100000689656316'
S'Vijay Shukla Baadal'
tp619
a(S'100002309584870'
S'Rashmii Singh'
tp620
a(S'100005519742543'
S'Neete Thakur'
tp621
a(S'100005178244649'
S'Niharika Neelkamal Arora'
tp622
a(S'100001409115902'
S'Arun Sinha'
tp623
a(S'100003846427990'
S'Ahmad Israr'
tp624
a(S'100005274669735'
S'Ved Mishra'
tp625
a(S'100001540027320'
S'Ramagya Shashidhar'
tp626
a(S'100003709096024'
S'Shodh Prakalp'
tp627
a(S'100004322408377'
S'Anupma Singh'
tp628
a(S'100001800310089'
p629
S'Roopali Sinha'
tp630
a(S'100007726893450'
S'Hina Rashid'
tp631
a(S'100001241344087'
S'Mahendra Prajapati'
tp632
a(S'100000792693616'
S'Yogesh Sharma'
tp633
a(S'100003297603939'
S'\\u0936\\u094d\\u0930\\u0940\\u0935\\u093e\\u0938\\u094d\\u0924\\u0935 \\u0938\\u0930\\u093f\\u0924\\u093e'
tp634
a(S'100002568373975'
S'Chakravarti Vijay Nawad'
tp635
a(S'100001780797446'
S'Arun Tiwari'
tp636
a(S'100004246927023'
S'Abha Dwivedi'
tp637
a(S'1525568950'
S'Kavi Hardik Pandya'
tp638
a(S'100002554782734'
S'Pardumn Tiwari'
tp639
a(S'1773784702'
S'Saran Ghai'
tp640
a(S'100003756260079'
S'Vipin Sharma'
tp641
a(S'100002375674225'
p642
S'Kavi Deepak Pareek'
tp643
a(S'100003323413142'
S'Raina Kasliwal'
tp644
a(S'100004426864436'
S'Kewal Kumar'
tp645
a(S'100004798983844'
S'Sarita Srivastava'
tp646
a(S'100001109276458'
S'Ravi Shankar'
tp647
a(S'100000329529336'
S'Manish Kumar Mishra'
tp648
a(S'1682559341'
S'Raj Verma'
tp649
a(S'100004379835487'
S'Ayush Yadav'
tp650
a(S'100004654597846'
S'Aditi Jha'
tp651
a(S'100005556638738'
S'Punam Sankhyan'
tp652
a(S'100007112858956'
S'Manish Kumar Raj'
tp653
a(S'100004317788323'
S'Agrawal Sagar'
tp654
a(S'100000707333907'
S'Manish Kumar Thakur'
tp655
a(S'100000006598738'
S'Pawan Kumar Journalist'
tp656
a(S'100004183844253'
S'Siniwali Sharma'
tp657
a(S'100001815237603'
S'Raushan Bhardwaj'
tp658
a(S'100000543377539'
S'Satyendra Bharill'
tp659
a(S'100004824721535'
S'Nidhi Verma'
tp660
a(S'1521554385'
S'Rakesh Singh'
tp661
a(S'100003307582887'
S'Saroj Kohli Gulati'
tp662
a(S'100004454200487'
S'Anil Rastogi'
tp663
a(S'100005544752398'
S'Arpita Goyal'
tp664
a(S'100001733606898'
S'Kumar Gaurav'
tp665
a(S'1667523066'
S'\\u0921\\u0949.\\u0930\\u093e\\u091c\\u0947\\u0928\\u094d\\u0926\\u094d\\u0930 \\u0928\\u093e\\u0925 \\u0924\\u094d\\u0930\\u093f\\u092a\\u093e\\u0920\\u0940'
tp666
a(S'100002353054524'
S'DrAshish Vashisht'
tp667
a(S'100004090275664'
S'Dilip Singh'
tp668
a(S'100005123800082'
S'Virender Sharma'
tp669
a(S'100003942216744'
S'Nirbhay Kulkarni'
tp670
a(S'100004329364757'
S'Komal Pandey'
tp671
a(S'1106632510'
p672
S'Anil Verma'
tp673
a(S'100000891373762'
S'Mahendra Pratap Singh'
tp674
a(S'100000192238337'
S'Anil Kumar'
tp675
a(S'100001094491944'
S'Ashok Khatana'
tp676
a(S'100001382131650'
S'Arun Kumar'
tp677
a(S'100003652088008'
S'Sudhir Kewaliya'
tp678
a(S'100005082272098'
S'Kanti Shukla'
tp679
a(S'100002277646815'
S'Neha Jose'
tp680
a(S'1279401034'
S'Rohit Sharma'
tp681
a(S'100003176285131'
S'Praveen Dixit'
tp682
a(S'100004172738766'
S'Kavi P. K. Azad'
tp683
a(S'100004576241806'
S'Neha Karna'
tp684
a(S'100004338580309'
S'Shalu Awasthi'
tp685
a(S'100006635051869'
S'Triyugi Narayan Shrivastav'
tp686
a(S'100005285972117'
S'Sita Shukla'
tp687
a(S'100003702371817'
S'Yogendra Yadav'
tp688
a(S'100000510177286'
S'\\u0905\\u0928\\u0941 \\u092a\\u094d\\u0930\\u093f\\u092f\\u093e'
tp689
a(S'100001499480740'
S'Swadesh Bharati'
tp690
a(S'100003145995600'
S'\\u0930\\u0942\\u092a\\u093e \\u0930\\u093e\\u0927\\u0947 \\u0938\\u0947\\u0920\\u0940'
tp691
a(S'706065013'
S'Anup Sharma'
tp692
a(S'1682885391'
S'Pankaj Chaudhary'
tp693
a(S'100002150375055'
S'Buddhi Lal Pal'
tp694
a(S'100003303680736'
S'Manoj Sharma'
tp695
a(S'100004051999905'
S'Himanshuji Sahuliyar'
tp696
a(S'100001212414288'
S'Sufi Raina'
tp697
a(S'100000287247486'
S'Athar Imam Khan'
tp698
a(S'100001077720290'
S'Rama Kant Pandey'
tp699
a(S'1454792125'
S'Trilok Chander'
tp700
a(S'100002964232951'
S'Anamika More'
tp701
a(S'100003607087992'
S'Madhusudan Choubey'
tp702
a(S'100000663331534'
S'\\u0905\\u0930\\u0941\\u0923\\u093e \\u0938\\u0915\\u094d\\u0938\\u0947\\u0928\\u093e'
tp703
a(S'100002582774763'
S'Amarpal Singh Broka'
tp704
a(S'100001503486696'
S'Pankaj Saxena'
tp705
a(S'100000989404258'
S'Swati Tiwari'
tp706
a(S'100003730755771'
S'Ramanuj Kumar'
tp707
a(S'100002810916634'
S'Omee Bhargava'
tp708
a(S'100000828872634'
S'Sunil Chandak'
tp709
a(S'100000623380448'
S'Ashok Shukla'
tp710
a(S'100004332702300'
S'Jai Radhekrishn'
tp711
a(S'100003302981349'
S'Mukesh Kumar'
tp712
a(S'100004186864944'
S'Shekhar Sawant'
tp713
a(S'100003659158408'
S'Om Neerav'
tp714
a(S'100000100971518'
S'Jinia Biswas'
tp715
a(S'100002842389367'
S'Yo Yo Sagar'
tp716
a(S'100002297495413'
S'Swati Sinha'
tp717
a(S'100002524325073'
p718
S'\\u0915\\u0902\\u091a\\u0928 \\u092a\\u093e\\u0920\\u0915'
tp719
a(S'100000048975467'
S'Thakur Rajesh Singh Parmar'
tp720
a(S'100002213093502'
S'Priya Shukla'
tp721
a(S'100001587423627'
S'\\u092a\\u0941\\u0937\\u094d\\u092a\\u0935\\u093e\\u091f\\u093f\\u0915\\u093e \\u0939\\u093f\\u0902\\u0926\\u0940 \\u092e\\u093e\\u0938\\u093f\\u0915 \\u092a\\u0924\\u094d\\u0930\\u093f\\u0915\\u093e'
tp722
a(S'100005290266353'
S'Om Prakash Ojha'
tp723
a(S'100000864960915'
S'Rajurkar Raj'
tp724
a(S'100003785885072'
S'\\u091f\\u094d\\u0930\\u0942 \\u092e\\u0940\\u0921\\u093f\\u092f\\u093e'
tp725
a(S'100005550756083'
S'\\u0915\\u0935\\u093f \\u0905\\u091c\\u092f \\u0917\\u0941\\u092a\\u094d\\u0924'
tp726
a(S'100004175502212'
S'Rajeshwar Gupta'
tp727
a(S'1176273270'
S'Rajni Gupt'
tp728
a(S'100003996529956'
S'Madhu Gupta'
tp729
a(S'100003866520260'
S'Ashok Mishra'
tp730
a(S'100000022097765'
S'Sunil Kumar Barnwal'
tp731
a(S'1527062915'
S'Kumar Sanjay'
tp732
a(S'100000009215408'
S'Prakash Govind'
tp733
a(S'100003055711120'
S'Ramesh Tiwari'
tp734
a(S'1282872569'
S'\\u0921\\u0949. \\u0905\\u0935\\u093f\\u0928\\u093e\\u0936 \\u0938\\u093f\\u0902\\u0939'
tp735
a(S'100004825594572'
S'Sunil Sharma'
tp736
a(S'100001391941173'
S'Balbir Singh Gusain'
tp737
a(S'100001072434226'
S'Amit Chauhan'
tp738
a(S'100002630848738'
S'Ashok Jaiswal'
tp739
a(S'100003754644242'
S'Ashutosh Gupta'
tp740
a(S'100004915231769'
S'\\u0927\\u0940\\u0930\\u091c \\u0936\\u094d\\u0930\\u0940\\u0935\\u093e\\u0938\\u094d\\u0924\\u0935'
tp741
a(S'1395113269'
S'Suman Pathak'
tp742
a(S'100003547916741'
S'Ajeet Singh'
tp743
a(S'100002415945928'
S'Joyshree Roy'
tp744
a(S'100008296036639'
S'Supriya Mishra'
tp745
a(S'100002412439502'
S'Kaushal Tyagi'
tp746
a(S'100004120537116'
S'Manish Sharma'
tp747
a(S'1702493944'
S'Devendra Tiwari'
tp748
a(S'100003854180913'
S'Priyanka Singh'
tp749
a(S'100002850407270'
S'Ram Singh'
tp750
a(S'100003378396106'
S'Vijaytanha Prerna'
tp751
a(S'100004986968790'
S'Diane Ortton'
tp752
a(S'100004380305705'
S'Mukesh Marwal'
tp753
a(S'100002193511416'
S'Naresh Tank'
tp754
a(S'1294025444'
S'Vimala Sakkarwal'
tp755
a(S'100001351909825'
S'Yasmeen Kausar'
tp756
a(S'100000076991482'
S'Sanjeev Sameer'
tp757
a(S'100002417882515'
S'Singh J Poswal'
tp758
a(S'1033638328'
S'Rajni Bhandari'
tp759
a(S'100002205555981'
S'Giriraj Kishore'
tp760
a(S'100000236801207'
S'Usha Taneja'
tp761
a(S'100001363637211'
S'Maneesh Shah'
tp762
a(S'100002807478773'
S'Manav Subhash'
tp763
a(S'100005106098771'
S'Shailesh Singh Baghel'
tp764
a(S'100000571304670'
S'Anil Tiwari'
tp765
a(S'100002290652701'
S'Umesh Dhall'
tp766
a(S'100000967816402'
S'Surendra Kumar Shukla Bhramar'
tp767
a(S'100004054413722'
S'Dheeraj Gupta'
tp768
a(S'100001366526885'
S'Kavita Krishnapallavi'
tp769
a(S'1344586259'
S'\\u09b8\\u09c1\\u09b2\\u09cb\\u099a\\u09a8\\u09be \\u09ad\\u09be\\u09b0\\u09cd\\u09ae\\u09be'
tp770
a(S'100001177687936'
S'Sampa Barua'
tp771
a(S'100002825688594'
S'Ajay Singh Sisodiya'
tp772
a(S'1178692326'
S'Rajeev Ranjan Prasad'
tp773
a(S'100004821030790'
S'Bhajanlal Kalwa'
tp774
a(S'100001454353225'
p775
S'Pankaj Priyadarshi'
tp776
a(S'100001358920411'
S'Kailash Manhar'
tp777
a(S'100004081602906'
S'Sunita Kumari'
tp778
a(S'100000724595434'
S'Sudha Rawat'
tp779
a(S'100003670328511'
S'Shiv Shankar'
tp780
a(S'100002600086963'
S'Raziv Raaz'
tp781
a(S'100000724728627'
S'Kavi JP Bhatia'
tp782
a(S'100003663969630'
S'Pramod Pathak'
tp783
a(S'100006725259136'
S'Kavita Kiran Patel'
tp784
a(S'100005078704823'
S'Kvn Tiwari'
tp785
a(S'100000971042276'
p786
S'\\u0930\\u0935\\u093f \\u092d\\u0942\\u0937\\u0923 \\u092a\\u093e\\u0920\\u0915'
tp787
a(S'100000509607533'
S'DrSweet Angel'
tp788
a(S'100000278728112'
S'DrNand Lal Bharati'
tp789
a(S'100001281085004'
S'Vivek Gautam'
tp790
a(S'100004215124377'
S'Anamika Dubey'
tp791
a(S'100001291895666'
S'Shiv Kumar Singh'
tp792
a(S'100003318601112'
S'Usha Yadav Usha'
tp793
a(S'100004337144597'
S'Yatendra Jain'
tp794
a(S'100000599979375'
S'Ramkunwar Sharma Sharma'
tp795
a(S'100004076334820'
p796
S'Kaveri Chatterji'
tp797
a(S'100000689385320'
S'Irshad Rahi'
tp798
a(S'100000714970347'
S'Rohini Aggarwal'
tp799
a(S'100005525980949'
S'Muskan Singh'
tp800
a(S'1383842267'
S'Vishal Shukla'
tp801
a(S'100003466440329'
S'Ashish Tiwari'
tp802
a(S'100002852485356'
S'Priyanka Singh'
tp803
a(S'100004062822717'
S'Manish Jain'
tp804
a(S'100008361614230'
S'Radhika Kanwar Rajveer'
tp805
a(S'1818172644'
S'Raj Bahadur'
tp806
a(S'100004886141526'
S'Kishor Soni Kaushal'
tp807
a(S'100000162485370'
S'Ashutosh Pandey'
tp808
a(S'1611124892'
S'Sanjay Sethi'
tp809
a(S'100004936565742'
S'DrPramod Pandey'
tp810
a(S'100001254638913'
S'Pratibha Singh'
tp811
a(S'1163764868'
S'Vineet Kumar'
tp812
a(S'100003325202221'
S'Kavi Madan Mohan Sharma'
tp813
a(S'100000245348041'
S'Shashank Bharadwaj'
tp814
a(S'100000987047172'
S'Syed Mesam'
tp815
a(S'100001949700590'
S'Ranjeet Kumar Dwivedi'
tp816
a(S'574648485'
S'Manju Singh'
tp817
a(S'100003761821610'
S'Avinay Srivastava'
tp818
a(S'100001530317619'
S'Amit Soni'
tp819
a(S'100002833728023'
S'Shweta Sharma'
tp820
a(S'1692094484'
S'Vineeta Yashswi'
tp821
a(S'606427243'
S'Sharad Sharma'
tp822
a(S'100002326103034'
S'Sunil Kumar Ahirwar'
tp823
a(S'100002723218186'
S'Gursharan Singh Virdi'
tp824
a(S'100000452963171'
S'Shekhar Singh'
tp825
a(S'100001482919092'
S'Sudha Om Dhingra'
tp826
a(S'100001844469703'
S'Deepak Jaiswal'
tp827
a(S'100003002946236'
S'Sambid Kumar Dash'
tp828
a(S'100004895048898'
S'Biresh Singh'
tp829
a(S'100004639358517'
S'Ramesh Ranjan Mishra'
tp830
a(S'100001643919457'
S'Arvind Kumar Sahu'
tp831
a(S'100002324256207'
S'Dixit Dankauri'
tp832
a(S'100003323673985'
S'Kedar Gelal'
tp833
a(S'100002771582339'
S'Bharat Singh'
tp834
a(S'100001283822430'
S'Sanjay Kumar'
tp835
a(S'765598897'
p836
S'Mahfooz Ali'
tp837
a(S'100000921572037'
S'Kapil Mudia'
tp838
a(S'100005135853824'
S'Ajay Kr Singh'
tp839
a(S'100000277547114'
p840
S'Anshuman Tiwari'
tp841
a(S'100003403141445'
S'Amod Shastri'
tp842
a(S'100004087757627'
S'Riya Sood'
tp843
a(S'1123902505'
S'Rajan Raj'
tp844
a(S'100004716247512'
S'\\u0938\\u0941\\u092d\\u093e\\u0937 \\u0930\\u0949\\u092f'
tp845
a(S'100004363634125'
S'Ram K. Bhardwaj'
tp846
a(S'100002288342570'
S'Santosh Kumar Raushan'
tp847
a(S'100001219732819'
S'Amim Jafri'
tp848
a(S'100000339959047'
S'Ramji Tiwari'
tp849
a(S'539734565'
S'Amar Verma'
tp850
a(S'100000765257652'
S'Mirtunjay Pushpendra'
tp851
a(S'100002400019616'
S'Pankaj Mishra'
tp852
a(S'100001914587990'
S'Ram Gopal Bhartiya'
tp853
a(S'100001191906887'
S'\\u0938\\u094c\\u0930\\u092d \\u0915\\u0947.\\u0938\\u094d\\u0935\\u0924\\u0902\\u0924\\u094d\\u0930'
tp854
a(S'100000526110537'
S'Lekhak Viplav Kumar Jain'
tp855
a(S'100000987233010'
S'Minakshi Pant'
tp856
a(S'100002361365836'
S'Surabhi Saloni'
tp857
a(S'100001143037817'
S'Sharma Ramakant'
tp858
a(S'100001596061289'
S'Ramakant Mishra'
tp859
a(S'100000713659877'
S'Sachin Shashvat'
tp860
a(S'100005359413320'
S'Dev Bharti Geetkar'
tp861
a(S'100004592408062'
S'Supriy Tripathi'
tp862
a(S'100004037268478'
S'Kavi Azad Vatan Verma'
tp863
a(S'1022297604'
S'Prathak Batohi'
tp864
a(S'100003670651969'
S'Mukesh Bhartiya'
tp865
a(S'100003155562826'
S'Rajeev Sharma'
tp866
a(S'100001592681668'
S'Neha Sharma'
tp867
a(S'100002507975842'
S'Ashok Kumar Sharma'
tp868
a(S'100004519093127'
S'Girish Pande'
tp869
a(S'100002678908574'
S'Sudha Kumari'
tp870
a(S'100000837608365'
S'Pankaj Agrawal'
tp871
a(S'100000165301228'
S'Pankhuri KiranPrakash'
tp872
a(S'100001784967531'
S'Mukesh Shrivastava'
tp873
a(S'100001655880446'
S'\\u0930\\u0924\\u0940\\u0928\\u093e\\u0925 \\u092f\\u094b\\u0917\\u0947\\u0936\\u094d\\u0935\\u0930'
tp874
a(S'100000570543562'
S'HS Kukreja'
tp875
a(S'100005547791290'
S'Kavi Nirdosh Kumar Premi'
tp876
a(S'100002704846745'
S'Supratim Banerjee'
tp877
a(S'100001571991518'
S'Pawan Kumar Jain'
tp878
a(S'100001499533039'
S'Harnot SR Harnot'
tp879
a(S'1174696549'
S'Jeetu Ved'
tp880
a(S'100002038852981'
p881
S'Abhiranjan Kumar'
tp882
a(S'100003876694192'
S'Shivna Prakashan'
tp883
a(S'100002079748696'
S'Prabhash Mishra'
tp884
a(S'100001034899999'
p885
S'Kheya Chakraborti'
tp886
a(S'804024828'
S'Ranjeet Chauhan'
tp887
a(S'705621767'
p888
S'Pawan Tripathi'
tp889
a(S'569449839'
p890
S'Ravindra Ranjan'
tp891
a(S'100002594525685'
S'Sunil Raj'
tp892
a(S'1026962963'
S'Govind Mathur'
tp893
a(S'100002654558223'
S'Rajni Vyas'
tp894
a(S'100002201656725'
S'Kavi Pankaj Dadhich'
tp895
a(S'100002088193393'
S'Naresh Bansal'
tp896
a(S'100005150383338'
S'\\u0938\\u0935\\u093f\\u0924\\u093e \\u092e\\u0928\\u094b\\u091c \\u0936\\u0930\\u094d\\u092e\\u093e'
tp897
a(S'100004055244260'
S'Umesh Katara'
tp898
a(S'100003730965425'
S'Karan Puri'
tp899
a(S'100001357941351'
S'Kejriwal Sunil'
tp900
a(S'100004563931712'
S'Shashank Bhardawaj'
tp901
a(S'100004923873134'
S'Vijay Raj'
tp902
a(S'100002690384337'
S'Dushyant Vijayvargiya'
tp903
a(S'100001585993335'
S'Ashok Rawat'
tp904
a(S'100000051657780'
S'Ritesh Gadhvi'
tp905
a(S'100000815080637'
S'Rajiv Arora'
tp906
a(S'100004615326144'
S'Neelu Neelakshi'
tp907
a(S'100001332486397'
S'Prabhakar Mishra'
tp908
a(S'100007465146878'
S'Cpiml Bihar'
tp909
a(S'100000610076360'
S'Bharat Chablani'
tp910
a(S'100002510218460'
S'Prem Prakash'
tp911
a(S'100003906825199'
p912
S'Attahas Magzine'
tp913
a(S'100006544321074'
S'Manju Agnihotri'
tp914
a(S'100003241000676'
S'Shashi Shekhar Singh'
tp915
a(S'100000832695466'
S'Kumar Atul'
tp916
a(S'100005434988375'
S'Arjun Singh'
tp917
a(S'100000986364221'
S'Indira Poonawala'
tp918
a(S'1639197421'
S'Gyan Prakash'
tp919
a(S'100002192707859'
S'Shahid Bharti'
tp920
a(S'100005340185874'
S'Narendra Mourya'
tp921
a(S'100001736209306'
S'Sushil Siddharth'
tp922
a(S'100003330088878'
S'Preeti Kamble Barkha'
tp923
a(S'100005164380762'
S'Mazkoor Alam'
tp924
a(S'100003223122884'
S'Neeraj Bhardwaj'
tp925
a(S'100001937645696'
S'Rajendra Pandit'
tp926
a(S'100003269405425'
S'Ashish Mishra'
tp927
a(S'100001827616274'
S'Niraj Tyagi'
tp928
a(S'100002409112241'
S'Bheem Singh Yadav'
tp929
a(S'100005217098221'
S'Meenakshi Trivedi'
tp930
a(S'100001516615344'
S'Vivekanand Tripathi'
tp931
a(S'100004081274389'
S'Yogendra Verma'
tp932
a(S'100000194449473'
S'Rajni Pallavi'
tp933
a(S'1090712074'
S'Sajan Murarka'
tp934
a(S'100005634183491'
S'Satya Prakash'
tp935
a(S'1746420910'
S'Dilip Gupta'
tp936
a(S'100003051920009'
S'DrPushplata Adhiwaqta'
tp937
a(S'735954917'
S'Ashok Pawar'
tp938
a(S'100002344732986'
S'Neelam Neelu'
tp939
a(S'1380573879'
S'Kavi Kishor Kumar Khorendra'
tp940
a(S'100003596246161'
S'Kitabghar Prakashan'
tp941
a(S'100003129041160'
S'Manch Sahitya'
tp942
a(S'100003927218622'
S'Amit Sharma'
tp943
a(S'100003507442512'
S'Ashish Singh'
tp944
a(S'100004827702928'
S'Santosh Chauhan'
tp945
a(S'100002017017538'
S'Rajesh Kumar'
tp946
a(S'100006500931831'
S'Divya Vasudev'
tp947
a(S'100000425860539'
S'Bhupi Sood'
tp948
a(S'100002241591784'
S'Priya Roy'
tp949
a(S'100003258477958'
S'Rajesh Nirban'
tp950
a(S'1238018441'
S'Ali Hasan Makraindia'
tp951
a(S'100005259973535'
S'Skumar Opine'
tp952
a(S'100004222984644'
S'Sandeep Kumar'
tp953
a(S'100000131628964'
S'Punit Kumar'
tp954
a(S'686637380'
S'Vivek Rajpoot'
tp955
a(S'100000172598547'
S'\\u0921\\u0949. \\u0938\\u0930\\u094b\\u091c \\u0917\\u0941\\u092a\\u094d\\u0924\\u093e'
tp956
a(S'100003492862366'
S'Vinay Agarwal'
tp957
a(S'1573506244'
S'Dolly Kaur'
tp958
a(S'100005406668353'
S'Drap Dhoundiyal'
tp959
a(S'1214537647'
S'Neelam Madiratta'
tp960
a(S'100001122896847'
S'Tahira Hasan'
tp961
a(S'100001673414942'
S'Vinita Surana'
tp962
a(S'100002954654322'
S'Sudhir Singh Baghel'
tp963
a(S'100002941062973'
S'Manjeet Singh Avtar'
tp964
a(S'100002795506831'
S'Shiv Shambhu Sharma'
tp965
a(S'100001273324890'
S'Akhil Jain'
tp966
a(S'100004734013887'
S'Sulastri Pasaribu'
tp967
a(S'100002449656045'
S'Awanindra Kumar Pandey'
tp968
a(S'100004571054189'
S'Dayanand Pathak'
tp969
a(S'100001040701751'
S'\\u0924\\u0930\\u0941\\u0923 \\u0915\\u0941\\u092e\\u093e\\u0930'
tp970
a(S'1443458386'
S'Sandeep Singh Suri'
tp971
a(S'100006364264756'
S'Farruq Abbas Sagar'
tp972
a(S'100004249720320'
S'Seema Saxena'
tp973
a(S'100002429820248'
S'Shameem Hayat'
tp974
a(S'100002733380091'
S'Alok Pandey'
tp975
a(S'100003489077048'
S'Ashwani Paul'
tp976
a(S'100000923760921'
S'Rakesh Arya'
tp977
a(S'100002608442347'
S'Sushil Dhingra'
tp978
a(S'100003477287276'
S'\\u0938\\u0902\\u091c\\u0928\\u093e \\u0924\\u093f\\u0935\\u093e\\u0930\\u0940'
tp979
a(S'687048205'
S'Mukul Singh'
tp980
a(S'100004660872200'
S'Seema Tiwari'
tp981
a(S'1102162444'
S'Pramod Tambat'
tp982
a(S'100000636204482'
S'Divik Ramesh'
tp983
a(S'100004339533668'
S'Akhil Bhartiya Patrakar Sangh'
tp984
a(S'100006093938806'
S'\\u0938\\u0941\\u092e\\u093f\\u0924\\u093e \\u0924\\u094d\\u0930\\u093f\\u0935\\u0947\\u0926\\u0940 \\u0938\\u092b\\u093c\\u0940\\u0928\\u093e'
tp985
a(S'100004104006182'
S'Swati Srivastava'
tp986
a(S'586467189'
S'Sia Kumar'
tp987
a(S'100001717196268'
S"\\u0936\\u093e\\u092f\\u0930 \\u0905\\u0902\\u0915\\u093f\\u0924 \\u0917\\u0941\\u092a\\u094d\\u0924\\u093e '\\u0905\\u0938\\u0940\\u0930'"
tp988
a(S'100004056917638'
S'Mahima Jain'
tp989
a(S'1705218142'
p990
S'Kirtivardhan Agarwal'
tp991
a(S'100004323250390'
S'\\u0938\\u093e\\u0939\\u093f\\u0924\\u094d\\u092f \\u0938\\u0947\\u0935\\u093e \\u0938\\u092e\\u093f\\u0924\\u093f'
tp992
a(S'100004851288314'
S'Gajendra Singh'
tp993
a(S'100003697554720'
S'Bhavesh Bhardwaj'
tp994
a(S'778378360'
S'\\u0935\\u093f\\u0915\\u094d\\u0930\\u092e \\u0938\\u093f\\u0902\\u0939'
tp995
a(S'1501670137'
S'Shesh Nath Vernwal'
tp996
a(S'100002281628574'
S'Aarti Tiwari'
tp997
a(S'100001914364400'
S'Rajhans Raju'
tp998
a(S'100003122470659'
S'Sujit Singh'
tp999
a(S'703601387'
S'Mohanish Mishra'
tp1000
a(S'100001049474019'
S'Bachcha Tiwari'
tp1001
a(S'100001109307740'
S'Harsha Shah'
tp1002
a(S'100000153488897'
S'Sunil Vyas'
tp1003
a(S'100001529963729'
S'Chetan Pandey'
tp1004
a(S'100000277164975'
S'Sanjay Kumar Farwaha'
tp1005
a(S'100002876839386'
S'Chanchala Pathak'
tp1006
a(S'100000320355094'
S'Shobha Tripathi'
tp1007
a(S'100004141380101'
S'Krishna Singh'
tp1008
a(S'100006799412981'
S'Pia Kaushik'
tp1009
a(S'100001623213892'
S'Sandeep Mishra'
tp1010
a(S'100003700870377'
S'Abhishek Shandilya'
tp1011
a(S'100003916830246'
S'Amit Mishra'
tp1012
a(S'100001939357032'
S'Manish Seth'
tp1013
a(S'100002269968198'
S'Rajat Tripathi'
tp1014
a(S'100001351532942'
p1015
S'Rajesh Sharma'
tp1016
a(S'100000893925856'
S'Jagjeet Singh'
tp1017
a(S'1188116999'
S'Dilnawaz Pasha'
tp1018
a(S'100003322130398'
S'Anup K. Pradhan'
tp1019
a(S'1571205931'
S'Vaidehi Sachin'
tp1020
a(S'100001436593763'
S'Dashrath Singh'
tp1021
a(S'1649078698'
S'Suman Saraswat'
tp1022
a(S'100005285557915'
S'Aditya Sharma'
tp1023
a(S'100003812599500'
S'Chandan Singh Raj'
tp1024
a(S'100005416622575'
S'Akash Kumar Roushan'
tp1025
a(S'100000819323063'
S'Arvind Srivastava'
tp1026
a(S'100001636253705'
S'Pramod Singh'
tp1027
a(S'100000315282781'
S'Mansa Anand Dasghara'
tp1028
a(S'100006816761214'
S'Neha Kumari Singh'
tp1029
a(S'100003971030559'
S'\\u092a\\u093f\\u0901\\u0915\\u0940 \\u0930\\u093e\\u091c\\u0940\\u0935 \\u091d\\u093e'
tp1030
a(S'100003141594349'
S'Mishraa Mohiinee'
tp1031
a(S'1320069489'
S'Gurinder Gill'
tp1032
a(S'100003731544133'
S'Parveen Kumar'
tp1033
a(S'100001709776321'
S'Kumar Priyank'
tp1034
a(S'100001410628778'
S'Priya Roy'
tp1035
a(S'100002217867228'
S'Karan Tripathi'
tp1036
a(S'1042640303'
p1037
S'Vaibhava Nath Sharma'
tp1038
a(S'100005455320076'
S'Mithilesh Pandey Mithi'
tp1039
a(S'100002063617782'
S'Shikha Trivedi'
tp1040
a(S'100003816934780'
S'Sunil Parit'
tp1041
a(S'100005088001695'
S'Kajal Deshmukh Raje'
tp1042
a(S'100004577343554'
S'Lokesh Vats Chetan'
tp1043
a(S'100004587690642'
S'Nilam Srivastava'
tp1044
a(S'100001554353408'
S'\\u0921\\u0949 \\u0928\\u0940\\u0939\\u093e\\u0930\\u093f\\u0915\\u093e \\u0930\\u0936\\u094d\\u092e\\u093f'
tp1045
a(S'100004892740087'
S'Bunty Sharma'
tp1046
a(S'100002100775375'
S'Ravindra Kumar'
tp1047
a(S'100005527265533'
S'Kanhaiya Jha'
tp1048
a(S'1190913699'
S'Ashok Bhatia'
tp1049
a(S'100007070231002'
S'\\u0938\\u093e\\u0939\\u093f\\u0924\\u094d\\u092f \\u092d\\u0902\\u0921\\u093e\\u0930 \\u0907\\u0932\\u093e\\u0939\\u093e\\u092c\\u093e\\u0926'
tp1050
a(S'100001372862950'
S'Manish Raj'
tp1051
a(S'100000211693034'
S'Rajendra Joshi'
tp1052
a(S'100002313904111'
S'\\u090b\\u0937\\u093f \\u0905\\u0917\\u094d\\u0930\\u0935\\u093e\\u0932'
tp1053
a(S'100004123830153'
S'Uma Kant Sharma'
tp1054
a(S'100001379075868'
S'R.s. Shrivastava'
tp1055
a(S'100006062707676'
S'Anil Kumar Sharma'
tp1056
a(S'100005199011767'
S'Vijay Gurdaspuri'
tp1057
a(S'100002972500331'
S'Saima Parveen'
tp1058
a(S'100001734235955'
S'DrBhuvnesh Singhal'
tp1059
a(S'100002140180663'
S'Poonam Kaussar'
tp1060
a(S'100008353443911'
S'Malti Jha'
tp1061
a(S'100000621621973'
S'Sanatan Dharm'
tp1062
a(S'100005392238014'
p1063
S'\\u0936\\u094d\\u0935\\u0947\\u0924\\u093e \\u092e\\u0927\\u0941\\u0930'
tp1064
a(S'1541727014'
S'Aarti Sharma'
tp1065
a(S'100002327714613'
S'Arvind Mishra'
tp1066
a(S'100003922222410'
S'Anand Swaroop Agnihotri'
tp1067
a(S'100003100446253'
S'Nidhi Chaudhari'
tp1068
a(S'100001049675644'
S'Awanish Tripathi'
tp1069
a(S'100002918652458'
S'Alok Tiwari'
tp1070
a(S'100004242035946'
S'Brajesh Kumar'
tp1071
a(S'100001653363856'
S'Rajkumar Lakhmani'
tp1072
a(S'100007477560669'
S'Gazal A Ahsaas'
tp1073
a(S'832110067'
S'Sanjay Jha'
tp1074
a(S'100004964643179'
S'Ajay Gautam'
tp1075
a(S'100003700757426'
S'\\u0930\\u0935\\u093f \\u0938\\u094b\\u0928\\u0940'
tp1076
a(S'100003214031132'
S'Nilakshi Singh'
tp1077
a(S'100003093848131'
S'Sabiha Ansari'
tp1078
a(S'100004878398975'
S'Brahmdeo Bandhu'
tp1079
a(S'100004996537516'
S'\\u092a\\u094d\\u0930\\u0923\\u0935\\u0947\\u0928\\u094d\\u0926\\u094d\\u0930 \\u0938\\u093f\\u0902\\u0939 \\u091a\\u094c\\u0927\\u0930\\u0940'
tp1080
a(S'100001553537810'
S'Saroj Mishra'
tp1081
a(S'100001122436928'
S'Ashutosh Mishra'
tp1082
a(S'1141281931'
S'Suryakumar Pandey'
tp1083
a(S'100000799174525'
S'Mukesh Kumar Verma'
tp1084
a(S'100000804465114'
S'\\u0915\\u0902\\u0921\\u0935\\u093e\\u0932 \\u092e\\u094b\\u0939\\u0928 \\u092e\\u0926\\u0928'
tp1085
a(S'100001323211875'
S'RJ Surbhi Jain'
tp1086
a(S'100002180616088'
S'Neelam Kamalvanshi'
tp1087
a(S'100001100355128'
S'Charan Khetsingh'
tp1088
a(S'100003994053126'
S'Gyansingh Bansal'
tp1089
a(S'100001515500867'
S'\\u092e\\u093f\\u0924\\u094d\\u0930 \\u0917\\u0941\\u0928\\u0947\\u0936\\u094d\\u0935\\u0930 \\u0930\\u093e\\u0935'
tp1090
a(S'100002197154314'
S'Shiv Shankar Mishra'
tp1091
a(S'100005296600703'
S'Kundan Singh'
tp1092
a(S'100003501431513'
S'Rudra Narayan Pandey'
tp1093
a(S'100000813086450'
S'\\u0928\\u0935\\u0928\\u0940\\u0924 \\u0938\\u093f\\u0901\\u0939'
tp1094
a(S'100002633597148'
S'Matia Poonam'
tp1095
a(S'100001235759202'
S'Pankaj Kumar Singh'
tp1096
a(S'100001165371124'
S'Nivedita Mishra Jha'
tp1097
a(S'100001476965950'
S'Shailendrakumar Sharma'
tp1098
a(S'1467223089'
S'ShAlu Singh'
tp1099
a(S'100002624626528'
S'Brijendra Bir Singh'
tp1100
a(S'100001958604184'
S'Sanjeev Gupta'
tp1101
a(S'100003849273025'
S'Shambhu Dayal Vajpayee'
tp1102
a(S'100002706622520'
S'Kamal Jeet Sagar'
tp1103
a(S'100005067301563'
S'\\u0905\\u0936\\u094b\\u0915 \\u0915\\u0941\\u092e\\u093e\\u0930 \\u0906\\u0930\\u094d\\u092f'
tp1104
a(S'100001790295637'
S'Anil Chaubey'
tp1105
a(S'100003642470998'
S'Kumar Balram Agrawal'
tp1106
a(S'100002167474453'
S'DrPoonam Gujrani'
tp1107
a(S'100002075143124'
S'Sekhu Nain'
tp1108
a(S'100003530602871'
S'Bipin Sharma'
tp1109
a(S'100005013071794'
S'Sneha Mishra'
tp1110
a(S'100003536179326'
S'\\u092e\\u0927\\u0941 \\u0936\\u094d\\u0930\\u0926\\u094d\\u0927\\u093e'
tp1111
a(S'100000847353309'
S'Mukesh Tiwari'
tp1112
a(S'100005373791873'
S'Krishna Srivastav'
tp1113
a(S'100005973308644'
p1114
S'\\u0915\\u0930\\u0941\\u0923\\u093e\\u0935\\u0924\\u0940 \\u0938\\u093e\\u0939\\u093f\\u0924\\u094d\\u092f \\u0927\\u093e\\u0930\\u093e'
tp1115
a(S'100001013619165'
S'Sumit Sawrav'
tp1116
a(S'100005271127467'
S'Drashti Prakashan'
tp1117
a(S'100001380753397'
S'\\u0905\\u0936\\u094b\\u0915 \\u092a\\u093e\\u0902\\u0921\\u0947\\u092f \\u092e\\u094b\\u0926\\u0940\\u092b\\u093e\\u092f\\u0930'
tp1118
a(S'100003091118776'
S'Pradeep Daisy Maheshwari'
tp1119
a(S'100002666092120'
S'Annapurna Bajpai'
tp1120
a(S'100004329854420'
S'Sangeeta Sharma'
tp1121
a(S'694378116'
S'Om Prakash Tiwari'
tp1122
a(S'100001171430552'
S'Dilip Tetarbe'
tp1123
a(S'100005091511971'
S'Manoj Kumar Sharma'
tp1124
a(S'100002181340798'
S'Sandeep Goyal'
tp1125
a(S'100003614678661'
S'Vandana Aren'
tp1126
a(S'100002521930257'
S'\\u092d\\u0930\\u0924 \\u0936\\u0930\\u094d\\u092e\\u093e'
tp1127
a(S'100002500511100'
S'Satyapal Prabhakar'
tp1128
a(S'100002321837400'
S'Sudhir Kumar Jha'
tp1129
a(S'100002495710145'
S'Happy Singh'
tp1130
a(S'100003794814549'
S'Rajesh Kumar Dubey'
tp1131
a(S'1441399973'
S'\\u0928\\u0935\\u092e\\u0940\\u0924'
tp1132
a(S'100004215662393'
S'Rajesh Prabhakar'
tp1133
a(S'1734574506'
S'Subhash Chandra'
tp1134
a(S'1002154865'
p1135
S'Priyanka Sinha Jha'
tp1136
a(S'100004801087998'
S'Shefali Choubey'
tp1137
a(S'100000162504261'
S'Nirbhay Pandey'
tp1138
a(S'1678381201'
S'\\u0905\\u0928\\u0942\\u092a \\u0936\\u094d\\u0930\\u0940\\u0928\\u093e\\u0930\\u093e\\u092f\\u0923'
tp1139
a(S'100003367007947'
S'DrBrahm Anand Brahm'
tp1140
a(S'100000817695075'
S'\\u0935\\u093f\\u0935\\u0947\\u0915 \\u0905\\u0902\\u091c\\u0928 \\u0936\\u094d\\u0930\\u0940\\u0935\\u093e\\u0938\\u094d\\u0924\\u0935'
tp1141
a(S'1508044091'
S'Umesh Singh'
tp1142
a(S'100004212902869'
S'Menka Yadav'
tp1143
a(S'100003892728620'
S'Prashant Mishra'
tp1144
a(S'791854913'
S'Ghanshyam Dass'
tp1145
a(S'100000104861581'
S'Vijay Shrivastava'
tp1146
a(S'100001457404233'
S'Manoj Sharma'
tp1147
a(S'100004083137307'
S'Sushma Verma'
tp1148
a(S'100002530408594'
S'Rahul Mittal'
tp1149
a(S'100002122974694'
S'Shashi Dhangar'
tp1150
a(S'100001367454183'
S'Vikas Srivastava'
tp1151
a(S'100000129831002'
S'Preeti Khare'
tp1152
a(S'100005498084405'
S'Prem Lata'
tp1153
a(S'100001261179387'
S'Mukesh Kumar'
tp1154
a(S'674366490'
S'Rizvi Amir Abbas Syed'
tp1155
a(S'100004660504334'
S'Sushil Bataar'
tp1156
a(S'100003102306225'
S'SB Saroya'
tp1157
a(S'100003924126491'
S'Vinay Narendra Sharma'
tp1158
a(S'100000170944642'
S'Santosh Mangal'
tp1159
a(S'1156895008'
S'\\u092a\\u094d\\u0930\\u0947\\u092e \\u091c\\u0928\\u092e\\u0947\\u091c\\u092f'
tp1160
a(S'100003233373657'
S'Tripurari Kumar Singh'
tp1161
a(S'100000859346328'
S'Anshu Parihar'
tp1162
a(S'100006831548294'
S'Shubham Bhardwaj'
tp1163
a(S'100001625919020'
S'Anurag Awasthi'
tp1164
a(S'1214176099'
S'Shankar Suman'
tp1165
a(S'100004443610833'
S'Agni Shekhar'
tp1166
a(S'100000911803512'
S'Girijesh Vyas'
tp1167
a(S'100003859235683'
S'Naresh Chandra Panda'
tp1168
a(S'100005275356734'
S'Kranti Kumar'
tp1169
a(S'100001327644315'
S'Alka Mishra'
tp1170
a(S'100001372687046'
S'Sanjeev Chandan'
tp1171
a(S'100004285682676'
S'\\u0915\\u0941\\u092e\\u0915\\u0941\\u092e \\u0936\\u0930\\u094d\\u092e\\u093e'
tp1172
a(S'100000744423182'
S'Virendra Sarang'
tp1173
a(S'100002887194036'
S'Shivshankar Vikrant'
tp1174
a(S'100000934754814'
S'Ashish K. Mishra'
tp1175
a(S'100004362281177'
p1176
S'Manjari Dubey'
tp1177
a(S'100003063781413'
S'Kavi Ram Singh Raghav'
tp1178
a(S'100003138048609'
S'Sawan Singh Mandloi'
tp1179
a(S'100003844834350'
S'\\u0905\\u0902\\u0936\\u0941 \\u0930\\u0924\\u094d\\u0928\\u0947\\u0936 \\u0924\\u094d\\u0930\\u093f\\u092a\\u093e\\u0920\\u0940'
tp1180
a(S'100005499249893'
S'Nilesh Kumar'
tp1181
a(S'100001500285992'
S'Nilesh Shevgaonkar'
tp1182
a(S'100007102325845'
S'Ajeet Kumar'
tp1183
a(S'100002041953022'
S'\\u0921\\u0949. \\u0938\\u0941\\u0928\\u0940\\u0924\\u093e'
tp1184
a(S'100002663071172'
S'Raman Saini'
tp1185
a(S'100000908737198'
S'Vinaya Kumar Saxena'
tp1186
a(S'1821823312'
S'Kumar Bhawesh'
tp1187
a(S'100004728990287'
S'Minita Agrawal'
tp1188
a(S'100000208194668'
S'Abhishek Mishra'
tp1189
a(S'100004047519388'
S'Ramakant Nigam'
tp1190
a(S'100005316516454'
S'Pankudi Gupta'
tp1191
a(S'100004539391045'
S'Shivam Gupta'
tp1192
a(S'100000611882022'
S'DrArti Sahai'
tp1193
a(S'100002264275248'
S'Seema Sharma'
tp1194
a(S'754612191'
S'Tarun Bhatnagar'
tp1195
a(S'100003602131908'
S'Subhas Rajput'
tp1196
a(S'100000465641950'
S'Pramod Dhital'
tp1197
a(S'100003960360160'
S'Pintu Mishra'
tp1198
a(S'100001517180293'
S'Chandra Bhushan Singh Singh'
tp1199
a(S'100001643438706'
S'Nita Pandey'
tp1200
a(S'100003647784571'
S'Sarita Sharma'
tp1201
a(S'100003766277991'
S'Ashok Hindustani'
tp1202
a(S'100000716926181'
S'Rajendra Dev'
tp1203
a(S'100004420478767'
S'Menka Kumari'
tp1204
a(S'100005980147844'
S'Suresh Albela'
tp1205
a(S'100000714378528'
S'Amresh Mishra'
tp1206
a(S'100003406521733'
S'\\u0915\\u0941\\u0932\\u0926\\u0940\\u092a \\u0915\\u0941\\u092e\\u093e\\u0930 \\u092e\\u093f\\u0936\\u094d\\u0930'
tp1207
a(S'100001385640786'
S'Anant Mohan Kaushik'
tp1208
a(S'100002951407100'
p1209
S'Roshni Gupta'
tp1210
a(S'100001565832361'
S'\\u0928\\u093f\\u092d\\u093e \\u091a\\u094c\\u0927\\u0930\\u0940'
tp1211
a(S'100004404731737'
S'Kavitri Lalita Dixit Deep'
tp1212
a(S'100000556973540'
S'Yogendra Pathak'
tp1213
a(S'100002615578523'
S'Indu Puri Goswami'
tp1214
a(S'100002180873476'
S'Dimple Singh Chaudhary'
tp1215
a(S'100004350282975'
S'Aashish Kumar'
tp1216
a(S'100003685519204'
S'Poonam Poonam'
tp1217
a(S'100001138010990'
S'Lakshmi Sharma'
tp1218
a(S'100002509475157'
S'Nancy Singh'
tp1219
a(S'100003993473479'
S'Karishma Thapar'
tp1220
a(S'100003120708118'
S'Ankit Gupta Ank'
tp1221
a(S'100005281964553'
S'\\u0930\\u093e\\u092e \\u0915\\u0943\\u092a\\u093e\\u0932 \\u0938\\u093e\\u092e\\u093e\\u091c\\u093f\\u0915 \\u0938\\u0902\\u0938\\u094d\\u0925\\u093e\\u0928'
tp1222
a(S'100003367539582'
S'Surendra Kulshrestha'
tp1223
a(S'100001432170875'
S'\\u0938\\u094b\\u0928\\u093f\\u092f\\u093e \\u0917\\u094c\\u0921\\u093c'
tp1224
a(S'100000310143791'
S'Ravindra Tripathy'
tp1225
a(S'1570186868'
p1226
S'Sanjay Kumar'
tp1227
a(S'100001970056453'
S'\\u0905\\u0902\\u091c\\u0942 \\u0936\\u0930\\u094d\\u092e\\u093e'
tp1228
a(S'100000502099791'
S'Priyanka Tripathi'
tp1229
a(S'1450423303'
S'Shwetank Ratnamber'
tp1230
a(S'100004941999123'
S'Ulka Gagan Gupta'
tp1231
a(S'1288875386'
S'Ranjit Verma'
tp1232
a(S'100001481130782'
S'Kishor Agrawal'
tp1233
a(S'100005101410499'
S'Shiv Shankar Shukla'
tp1234
a(S'100003184527792'
S'Udbhav Mishra'
tp1235
a(S'100003006442457'
S'Kulina Kumari'
tp1236
a(S'100004394857483'
S'Virender Singh'
tp1237
a(S'100005185184623'
S'\\u0921\\u093e. \\u091c\\u092f \\u0936\\u0902\\u0915\\u0930 \\u0936\\u0941\\u0915\\u094d\\u0932'
tp1238
a(S'620799522'
S'Kavita Vachaknavee'
tp1239
a(S'100002018084619'
S'Manmohan Sharma'
tp1240
a(S'100002853821609'
S'Rajeev Dadhich'
tp1241
a(S'100004077571007'
S'Binu Bhatnagar'
tp1242
a(S'100005476807254'
S'Actress Vaishnavi'
tp1243
a(S'100001420893229'
S"\\u0915\\u0935\\u093f \\u0930\\u093e\\u0915\\u0947\\u0936 '\\u0917\\u0917\\u0928'"
tp1244
a(S'100000405232840'
S'Sanjiv Batra'
tp1245
a(S'100000666868258'
S'Rama Sharma'
tp1246
a(S'100003323558862'
S'Sanjay Kumar Avinash'
tp1247
a(S'100002547508986'
S'Kavi Suresh Rajpurohit Sannata'
tp1248
a(S'100000546926107'
S'Sakhi Singh'
tp1249
a(S'100000144060607'
S'Manish Pandey'
tp1250
a(S'1026880329'
S'Vandana Grover'
tp1251
a(S'100002083001910'
S'Rajat Ag'
tp1252
a(S'100002494629061'
S'Nishant Gupta Ankur'
tp1253
a(S'100003068451189'
S'Ajay Gupta'
tp1254
a(S'100005030324295'
S'Achal Awasthi'
tp1255
a(S'100004274344617'
S'Sanjana Kapoor'
tp1256
a(S'1659877315'
S'Preethi Kashyap'
tp1257
a(S'100001644593923'
S'Yugal Kishor Sahu'
tp1258
a(S'100005421633604'
S'Ajay Prakash'
tp1259
a(S'100001337125507'
S'\\u0905\\u0936\\u094b\\u0915 \\u0936\\u0930\\u094d\\u092e\\u093e'
tp1260
a(S'100002937919698'
S'Piyush Shukla'
tp1261
a(S'1843635386'
S'Kamlesh Keshote'
tp1262
a(S'100002798911554'
S'Sangita Chawla'
tp1263
a(S'100000406235628'
S'\\u0938\\u0941\\u0936\\u0940\\u0932 \\u092a\\u093e\\u0920\\u0915'
tp1264
a(S'100001894125623'
S'\\u092e\\u0939\\u0947\\u0936 \\u0938\\u093f\\u0902\\u0939'
tp1265
a(S'100002198097369'
S'Prakash Singh'
tp1266
a(S'100003733852904'
p1267
S'Dinesh Aggarwal'
tp1268
a(S'100003031931399'
S'Shipra Singh'
tp1269
a(S'100005207434368'
S'Ganpat Bhansali'
tp1270
a(S'100000584114968'
S'Arun Maheshwari'
tp1271
a(S'100004565978355'
S'Shyam Snehi'
tp1272
a(S'100004602583274'
S'\\u0938\\u0941\\u0930\\u0947\\u0936 \\u0915\\u0941\\u092e\\u093e\\u0930'
tp1273
a(S'100001576350693'
S'Ashok Sharma'
tp1274
a(S'100004941931356'
S'Ashish Choudhary'
tp1275
a(S'100004074781107'
S'Sanjay Kaushik'
tp1276
a(S'100003356874553'
S'Satish Pednekar'
tp1277
a(S'100003082187113'
S'Navneet Hindi Digest'
tp1278
a(S'100002997012129'
S'Sk Mukhtar Ahmad'
tp1279
a(S'100004735809321'
S'Gouri Dhakar'
tp1280
a(S'100003025885419'
S'Manjoor Ahamad'
tp1281
a(S'1798690985'
S'Praveen Pandey'
tp1282
a(S'100002830740803'
S'Aman Kumar Tyagi'
tp1283
a(S'100001577340491'
S'\\u0921\\u0949. \\u0906\\u0932\\u094b\\u0915 \\u092e\\u093f\\u0936\\u094d\\u0930'
tp1284
a(S'100000461979785'
S'Rahul A Upadhyay'
tp1285
a(S'1475653752'
S'Saurabh Tripathi'
tp1286
a(S'100003035747656'
S'Vijay Pushpam Pathak'
tp1287
a(S'100005299510482'
S'Pravin Gupta'
tp1288
a(S'100000168416387'
S'Alok Shrivastava'
tp1289
a(S'100003233874819'
S'Ashok Rawat'
tp1290
a(S'100005156313652'
S'Vijay Kumar Singh'
tp1291
a(S'100002496095953'
S'Shambhoo Sharan Gupta'
tp1292
a(S'100002498381240'
S'Vijay Kumar'
tp1293
a(S'100000283684833'
S'Aharnish Sagar'
tp1294
a(S'100006568230035'
S'Nayan Raj'
tp1295
a(S'100000151968079'
S'Bhartendu Mishra'
tp1296
a(S'100004040328752'
S'Smriti Sahgal'
tp1297
a(S'100003155106833'
S'Alok Kumar'
tp1298
a(S'100002248581274'
S'Rajender Sharma'
tp1299
a(S'100002742992175'
S'Rajani Kulkarni'
tp1300
a(S'100005475133528'
S'Kavi Rashid Nirmohi'
tp1301
a(S'100003262753907'
S'Priya Arora'
tp1302
a(S'547528548'
S'Kapil Sethi'
tp1303
a(S'100000814557102'
S'Manas Ranjan Mahapatra'
tp1304
a(S'1353474681'
S'Umesh Chandra'
tp1305
a(S'1113955352'
S'Manish Shukla'
tp1306
a(S'100005169303293'
S'Rekha Joshi'
tp1307
a(S'100004365601595'
p1308
S'Oviyan Oviyan'
tp1309
a(S'100005745396870'
S'Vandana Mishra'
tp1310
a(S'100004609987299'
S'Divya Rani Tripathy'
tp1311
a(S'100001069495880'
S'Rashmi'
p1312
tp1313
a(S'100004240416793'
S'Kumari Loveli Sukla'
tp1314
a(S'100003544151633'
S'Sauraj Singh'
tp1315
a(S'100003133246376'
S'Praveen Singh'
tp1316
a(S'100005493037357'
S'Manisha Singh'
tp1317
a(S'100003258572527'
S'Sabras Mursani Jaat Kavi'
tp1318
a(S'1835509357'
S'Somesh Chandra Kakar'
tp1319
a(S'100001071198209'
S'Burman Sanjeev'
tp1320
a(S'100002351000294'
S'Ajay Agyat'
tp1321
a(S'1174935237'
S'Samir Parimal'
tp1322
a(S'100000471053143'
S'Sandeep Sharma'
tp1323
a(S'100005401171808'
S'Neeta Raj'
tp1324
a(S'100003976459597'
S'Sadakanchha Hindi Journal'
tp1325
a(S'100000001728389'
S'Ratan Raj'
tp1326
a(S'100000584566579'
S'Arun Sathi'
tp1327
a(S'100003317747178'
S'Shalini Khanna'
tp1328
a(S'100002110785073'
S'Bhola Nath Tyagi'
tp1329
a(S'100003006323133'
p1330
S'Ashwanikumar Mishra'
tp1331
a(S'612250703'
S'Rajesh Mangal'
tp1332
a(S'100000102704525'
p1333
S'Dayanand Pandey'
tp1334
a(S'1218636064'
S'Ashish Baheti'
tp1335
a(S'1775142107'
S'\\u0938\\u0941\\u0930\\u0947\\u0936 \\u091a\\u094c\\u0927\\u0930\\u0940'
tp1336
a(S'100003755376748'
S'Santosh Dhanshette'
tp1337
a(S'568846806'
p1338
S'Nadeem Akhtar'
tp1339
a(S'100002567100345'
S'Rambandhu Tiwari'
tp1340
a(S'100001114721350'
S'Sheela Dongre'
tp1341
a(S'658188587'
S'Pawan Dixit'
tp1342
a(S'100001542699398'
S'Shardul Rathod'
tp1343
a(S'100004092452275'
S'\\u0935\\u093f\\u0928\\u092f \\u0917\\u0941\\u092a\\u094d\\u0924\\u093e'
tp1344
a(S'1088842232'
S'Devmani Pandey'
tp1345
a(S'100001605999128'
S'\\u090b\\u0924\\u0941\\u092a\\u0930\\u094d\\u0923 \\u0926\\u0935\\u0947'
tp1346
a(S'601455000'
S'Dr.Prabaharan Indo'
tp1347
a(S'1319499342'
S'Rajesh Kumari'
tp1348
a(S'100004629240934'
S'Bikash Roy'
tp1349
a(S'1102337177'
S'\\u0928\\u093f\\u0930\\u094d\\u092e\\u0932 \\u0917\\u0941\\u092a\\u094d\\u0924'
tp1350
a(S'100004225986196'
S'Chandni Pandey'
tp1351
a(S'100005384653040'
S'Vishnu Gupt'
tp1352
a(S'100001684755272'
S'Priyanka Singh'
tp1353
a(S'100000472238657'
S'Devendra N Tiwari'
tp1354
a(S'100003866900689'
S'Manoj Jaiswal'
tp1355
a(S'100000427802971'
S"\\u0915\\u0935\\u093f \\u0915\\u093f\\u0936\\u094b\\u0930 \\u092a\\u093e\\u0930\\u0940\\u0915 '\\u0915\\u093f\\u0936\\u094b\\u0930'"
tp1356
a(S'1675846037'
S'Amit Kumar Tripathi'
tp1357
a(S'100001383399941'
S'Worldcitizencommune Visvaikya'
tp1358
a(S'100001786288095'
S'\\u0938\\u0902\\u091c\\u0940\\u0924 \\u0915\\u0941\\u092e\\u093e\\u0930'
tp1359
a(S'100004487683019'
S'Manoj Gehlot Dewas'
tp1360
a(S'566064611'
S'\\u0938\\u0942\\u0930\\u091c \\u092a\\u094d\\u0930\\u0915\\u093e\\u0936'
tp1361
a(S'100002498307574'
S'Bharat Sharma'
tp1362
a(S'1332075834'
S'Raj Kamal'
tp1363
a(S'579506468'
p1364
S'Manoj Kumar Jha'
tp1365
a(S'100003127325938'
S'Gaurav Pandey'
tp1366
a(S'100002122923680'
S'Mitali Masoom'
tp1367
a(S'100003894682025'
S'Raghubir Jha'
tp1368
a(S'100000487077288'
S'Ashutosh Mishra'
tp1369
a(S'100004735305143'
S'Das Jitendar'
tp1370
a(S'100002708504002'
p1371
S'Vivek Gupta'
tp1372
a(S'100005473601921'
S'Ravi Ranjan Pandey'
tp1373
a(S'100006286750657'
S'Abhimanyu Sinha'
tp1374
a(S'100001391946504'
S'Avinash Bharti'
tp1375
a(S'100002036082071'
S'Kuldeep Singh Rajput'
tp1376
a(S'100003550971564'
S'Drsurendra Sharma'
tp1377
a(S'100004865046566'
S'Rakhi Singh'
tp1378
a(S'100001731066257'
S'Suneel Manav'
tp1379
a(S'100000509881752'
S'Tripathi Surya Kumar'
tp1380
a(S'1281258266'
S'Kashyap Kishor Mishra'
tp1381
a(S'100002837330603'
S'Shubam Bishnoi'
tp1382
a(S'100004956721959'
S'Happy Singh'
tp1383
a(S'691008523'
S'Navyavesh Navrahi'
tp1384
a(S'100002302145873'
S'Neelu Megh'
tp1385
a(S'100004520134993'
S'Anju Saxena'
tp1386
a(S'1750255629'
S'\\u091c\\u092f \\u092a\\u094d\\u0930\\u0915\\u093e\\u0936 \\u092a\\u093e\\u0920\\u0915'
tp1387
a(S'1185501546'
S'Prabhat Ranjan Deen'
tp1388
a(S'100003688386708'
S'\\u0930\\u0924\\u0928 \\u092a\\u094d\\u0930\\u0915\\u093e\\u0936'
tp1389
a(S'1776652247'
S'Rajiv Kumar Bakshi'
tp1390
a(S'100005234076034'
S'Jayprakash Choudhary'
tp1391
a(S'1793117611'
S'Hemlata Mahishwar'
tp1392
a(S'100004711710693'
S'Rakesh Soni'
tp1393
a(S'100000480354646'
S'Arpit Anaam'
tp1394
a(S'100002452440406'
S'Anand Raj'
tp1395
a(S'709489575'
S'\\u0905\\u092e\\u093f \\u0924\\u0947\\u0937'
tp1396
a(S'100003092393719'
S'Surendra Barwar'
tp1397
a(S'1803091362'
S'Ritesh Verma'
tp1398
a(S'100002047446634'
S'Manish Vaidya'
tp1399
a(S'100004952653536'
S'Al Paliwal'
tp1400
a(S'100002385350230'
S'Rajendra Prasad Gupta'
tp1401
a(S'780489651'
S'Rajeev Tyagi'
tp1402
a(S'1569819999'
S'Sandeep Gupta'
tp1403
a(S'100000581754993'
S'Tiwari Keshav'
tp1404
a(S'100000841187234'
S'SheshDhar Tiwari'
tp1405
a(S'100004670340634'
S'\\u0915\\u0935\\u093f \\u0938\\u094c\\u0930\\u092d \\u091c\\u0948\\u0928 \\u092d\\u092f\\u0902\\u0915\\u0930'
tp1406
a(S'100001731103478'
S'Vasundhara Purvi'
tp1407
a(S'100002621506165'
S'Ajay Chauhan'
tp1408
a(S'100002927470298'
S'Seemaant Sohal'
tp1409
a(S'100001708893279'
S'Manoj Vats'
tp1410
a(S'100005045260147'
S'Aakash Maheshpuri'
tp1411
a(S'100002262393977'
S'Suman Kumar Singh'
tp1412
a(S'100001495767568'
S'Kavi Dinesh Bharti'
tp1413
a(S'100002443664497'
S'Jahnavi Suman'
tp1414
a(S'100000593718628'
S'Shashi Bhushan Jha'
tp1415
a(S'543188665'
S'Sunita Shanoo'
tp1416
a(S'100004267651461'
S'Nadia Karia'
tp1417
a(S'100002105560499'
S'Himani Jolly'
tp1418
a(S'100002930844375'
S'Hamar Parampara'
tp1419
a(S'100004851750589'
S'Ranjit Upadhyay'
tp1420
a(S'100002682964140'
S'Neha Sharma'
tp1421
a(S'100008191863954'
S'Seema Srivastava'
tp1422
a(S'100001297742573'
S'Adv Sushil Dubey'
tp1423
a(S'100002790187598'
S'Kavi Aniruddh Awasthi'
tp1424
a(S'100004993740871'
S'Himanshu Gupta'
tp1425
a(S'100002931826804'
S'Jitendra Raghuvanshi'
tp1426
a(S'100000605209213'
S'Pallav Bora'
tp1427
a(S'100001419410117'
S'Sanjay Sharma'
tp1428
a(S'530983347'
S'Arpit Jain'
tp1429
a(S'1337051153'
S'Chirag Jain'
tp1430
a(S'100001248776326'
S'Rohit Rakesh'
tp1431
a(S'1783306507'
S'PK Arya'
tp1432
a(S'100004587601172'
S'Nitesh Sonu Mishra'
tp1433
a(S'100001292971907'
S'Rahul Anand'
tp1434
a(S'100000828808763'
S'Ashok Chaudhary'
tp1435
a(S'100004980784090'
S'Deepika Verma'
tp1436
a(S'100001247586420'
S'Vinod Kumar Mishra'
tp1437
a(S'100002078772643'
S'Bibhash Kumar Mishra'
tp1438
a(S'100008203959431'
S'Aaliya Tripathi'
tp1439
a(S'100006284142863'
S'Sanjay Tripathi'
tp1440
a(S'100001066884416'
S'Rajeev Ranjan'
tp1441
a(S'100004072833049'
S'Manish Dakhle'
tp1442
a(S'100000559784037'
S'\\u0935\\u0947\\u0926 \\u092a\\u094d\\u0930\\u0915\\u093e\\u0936'
tp1443
a(S'100004021756670'
S'Arun Shukla'
tp1444
a(S'100000042739542'
S'Pawan Karan'
tp1445
a(S'100003095899777'
S'Samod Singh Charora'
tp1446
a(S'100002888565640'
S'Hari Om Learner'
tp1447
a(S'100001681632350'
S'Ashok Juneja'
tp1448
a(S'100007859863743'
S'Madhu Gohil'
tp1449
a(S'684443645'
S'Aflatoon Afloo'
tp1450
a(S'100001586748191'
S'Prabhat Roy Kalyan'
tp1451
a(S'1296234676'
S'Alok Kumar'
tp1452
a(S'100001545529083'
S'Ankush Vajpai'
tp1453
a(S'100000918300509'
S'Bhardwaj Rajesh'
tp1454
a(S'100003994217187'
S'Kalpender Singh Shekhawat'
tp1455
a(S'1482322647'
S'R.s. Shrivastava Shrivastava'
tp1456
a(S'100002939143104'
S'Amit Kumar Poddar'
tp1457
a(S'100000491817735'
S'Tusk Bond'
tp1458
a(S'100001213030604'
S'Gyandeep Agnihotri'
tp1459
a(S'100000953959980'
S'Virag Jain'
tp1460
a(S'100003939986879'
S'Jai Hind'
tp1461
a(S'1601871768'
S'Rama Shanker'
tp1462
a(S'100001533911329'
S'Manish Pathak'
tp1463
a(S'100001725732108'
S'Manmohan Sharma'
tp1464
a(S'100003288609656'
S'Asha Gupta'
tp1465
a(S'100002685526591'
S'Gaurav Narayan Bharti'
tp1466
a(S'1063291874'
S'\\u0905\\u092d\\u093f\\u0928\\u0935 \\u0936\\u0941\\u0915\\u094d\\u0932'
tp1467
a(S'100001850934897'
S'Vikash Chhapolika'
tp1468
a(S'100005468739841'
S'Ajay Kumar'
tp1469
a(S'100003211322793'
S'Jagat Sharma'
tp1470
a(S'100000578273258'
S'Yaduvansh Pranaya'
tp1471
a(S'100002729944312'
S'Rajender Sharma'
tp1472
a(S'100003877956536'
S'Kavi Anil Shukla Amal'
tp1473
a(S'100001059571074'
S'Rajesh Mishra'
tp1474
a(S'1754394815'
S'\\u0938\\u0928\\u094d\\u0924 \\u0938\\u092e\\u0940\\u0930'
tp1475
a(S'100001062687776'
S'Devendra Parashar'
tp1476
a(S'100000018273745'
S'Rajesh Kumar Kanth'
tp1477
a(S'100003014906636'
S'Tejinder Gagan'
tp1478
a(S'100004405568647'
S'Swami Hans Dev'
tp1479
a(S'100005220698381'
S'Ashutosh Bajpai'
tp1480
a(S'653432911'
S'Katyayn Ravindra'
tp1481
a(S'100005195140771'
S'Adarsh Dwivedi'
tp1482
a(S'100001130457122'
S'Baidya Nath Jha'
tp1483
a(S'100001432987941'
S'Kavi Rajeev Bhadauria'
tp1484
a(S'100001525076983'
S'Alok Kumar'
tp1485
a(S'1236438328'
S'Ashtosh Upadhyay'
tp1486
a(S'100005026831695'
S'Rajmani Pal'
tp1487
a(S'100004559983199'
S'Ajay Prakash Srivastava'
tp1488
a(S'100002758818767'
S'Sujata Choudhary'
tp1489
a(S'100001647448585'
S'Binay Kumar Upadhyay'
tp1490
a(S'100005160425648'
S'Pankaj Sharma'
tp1491
a(S'100003912987200'
S'Durga Mehrotra'
tp1492
a(S'100003892049115'
S'Anuradha Prakashan'
tp1493
a(S'100005424452964'
S'Archanakumari Archanakrishna'
tp1494
a(S'100000467716381'
S'Tejbhan Tej'
tp1495
a(S'100002003907459'
p1496
S'Gopal Narayan Singh'
tp1497
a(S'100005228622243'
S'Acharya Prakashan'
tp1498
a(S'1525310767'
S'Gaurav Raj Gupta'
tp1499
a(S'100004326910462'
S'\\u092e\\u0939\\u0947\\u0936 \\u0913\\u091d\\u093e'
tp1500
a(S'100002025436243'
S'Rohit Mishra'
tp1501
a(S'100001201188639'
S'Manish Tiwari'
tp1502
a(S'1584939877'
S'Susham Bedi'
tp1503
a(S'100002629369178'
S'Ajit Tiwary'
tp1504
a(S'100004323221201'
S'Jayesh Shah'
tp1505
a(S'1331576945'
S'Pawan Jaiswal'
tp1506
a(S'100002265607763'
S'Amaldar Neehar'
tp1507
a(S'100001599476764'
S'Pragya Vikas'
tp1508
a(S'100002020696238'
S'Bhumika Dwivedi'
tp1509
a(S'100001270670558'
S'Sarita Das'
tp1510
a(S'100003545993194'
S'Shakeel Ahamad'
tp1511
a(S'100002455746281'
S'Rajnikant Shukla'
tp1512
a(S'100002290883969'
S'Pankaj Pratap Singh'
tp1513
a(S'100000974021723'
p1514
S'Sunayana Singh'
tp1515
a(S'100003767768301'
S'Renu Roy'
tp1516
a(S'606055402'
S'Akanksha Chaudhary'
tp1517
a(S'100001578383921'
S'Sharad Tayal'
tp1518
a(S'100005872535920'
S'Shashi Jain'
tp1519
a(S'100000178429074'
S'Richa Pandey'
tp1520
a(S'100000691066709'
S'Renu Siroya'
tp1521
a(S'100004083733126'
S'Nanda Raj Singer'
tp1522
a(S'1093972438'
S'Vijay Prabhakar Nagarkar'
tp1523
a(S'100001083588858'
S'Nikhil Bhusan'
tp1524
a(S'100003596435269'
S'Narendra M Chaturvedi'
tp1525
a(S'100002933884314'
S'DrDurga Sharan Mishra'
tp1526
a(S'100005447680506'
S'\\u091c.\\u0932. \\u0930\\u093e\\u0920\\u094c\\u0930 \\u092a\\u094d\\u0930\\u092d\\u093e\\u0915\\u0930'
tp1527
a(S'100002767758682'
S'Lalit Surjan'
tp1528
a(S'100002997088636'
S'Om Prakash Singh'
tp1529
a(S'100003926302400'
S'Kavi Prakash Gurjar'
tp1530
a(S'100004877742719'
S'\\u0938\\u094b\\u0928\\u092e \\u092a\\u093e\\u091f\\u0928\\u0940'
tp1531
a(S'100002963007045'
S'Rajendra Yadav'
tp1532
a(S'100001436368068'
S'Harendra Thakur'
tp1533
a(S'100005305834442'
S'Sunil Franacis'
tp1534
a(S'100002939119120'
S'Kajal Joshi'
tp1535
a(S'100002398008605'
S'Ailesh Awasthi'
tp1536
a(S'100006465665042'
S'Soniya Mishra'
tp1537
a(S'1850757970'
S'Rajesh Raj'
tp1538
a(S'100005123892689'
S'S.n. Shah'
tp1539
a(S'100002097160231'
S'Ghazalkar Sagar Anand'
tp1540
a(S'100004115462710'
S'Hum Hindustani'
tp1541
a(S'100001078876906'
S'Kumar Ajay'
tp1542
a(S'100002079858423'
S'Sainny Ashesh'
tp1543
a(S'100001295887837'
S'Kavi Denis Tiwari'
tp1544
a(S'100000570721717'
S'Anil Arora'
tp1545
a(S'100005348523189'
S'Seema Seema'
tp1546
a(S'100005486701931'
S'Nibha Kumari'
tp1547
a(S'100001176511287'
S'Vivek Kumar Tiwari'
tp1548
a(S'100002908882641'
S'Naresh Kr Sharma'
tp1549
a(S'100003718480335'
S'\\u0921\\u0949.\\u092e\\u0941\\u0915\\u0947\\u0936 \\u0915\\u0941\\u092e\\u093e\\u0930'
tp1550
a(S'1830157117'
S'Chanda Jain'
tp1551
a(S'100002594946142'
S'Priti Jain'
tp1552
a(S'100007318143366'
S'Sanjit Singh'
tp1553
a(S'100005160815382'
S'Ashok Sahni'
tp1554
a(S'100002714672224'
S'Alpana Kanpurthird'
tp1555
a(S'100000795553147'
S'Om Prakash Nautiyal'
tp1556
a(S'100002463973212'
S'\\u0905\\u0928\\u0942\\u092a \\u0928\\u093e\\u0930\\u093e\\u092f\\u0923 \\u0938\\u093f\\u0902\\u0939'
tp1557
a(S'100002517878437'
S'Rashmi Abhaya'
tp1558
a(S'1417662154'
S'Malay Aggarwal'
tp1559
a(S'100004748880008'
S'Ajay Kumar Priyadarshi'
tp1560
a(S'100002610630610'
S'Ajamil Vyas'
tp1561
a(S'100001796062340'
S'Krishna Kant'
tp1562
a(S'100000133017596'
p1563
S'Pradeep Jilwane'
tp1564
a(S'100001579772997'
S'\\u0930\\u093e\\u091c\\u0947\\u0902\\u0926\\u094d\\u0930 \\u0905\\u0935\\u0938\\u094d\\u0925\\u0940'
tp1565
a(S'1578987992'
S'Lokesh Singh'
tp1566
a(S'100004278366984'
S'Avinash Kumar Sharma'
tp1567
a(S'100002367312479'
S'Deepak Kumar Sinha'
tp1568
a(S'100005032776883'
S'Rupal Jain Devadiya'
tp1569
a(S'100004796836130'
S'Manjeet Singh'
tp1570
a(S'1686681018'
S'\\u092e\\u093f\\u0915\\u093f\\u0928 \\u092e\\u092f\\u0902\\u0915'
tp1571
a(S'100001509354401'
S'\\u0905\\u0924\\u0941\\u0932 \\u092e\\u094b\\u0939\\u0928 \\u0938\\u093f\\u0902\\u0939'
tp1572
a(S'100000595919027'
S'Drvijay Sharma'
tp1573
a(S'100003808462244'
S'DrSarojini Tanhaa'
tp1574
a(S'100004995936225'
S'New Bhurani'
tp1575
a(S'100000316344865'
S'Balbir Singh Parmar'
tp1576
a(S'100005515353600'
S'\\u091c\\u093c\\u093e\\u0930\\u093e \\u0916\\u093e\\u0928'
tp1577
a(S'100005456083372'
S'Dhanraj Singh Begsar'
tp1578
a(S'1625959426'
S'\\u0938\\u0902\\u0927\\u094d\\u092f\\u093e \\u0938\\u093f\\u0902\\u0939'
tp1579
a(S'100003008455606'
S'Drchetan Chouhan'
tp1580
a(S'527788860'
S'Sunit Sinha'
tp1581
a(S'100001357111073'
S'Mrityunjay Prabhakar'
tp1582
a(S'100005264101746'
S'Shashi Kant Suman'
tp1583
a(S'100004646162197'
p1584
S'Agnivanshi Seema'
tp1585
a(S'100002339702294'
S'Prashant Mishra'
tp1586
a(S'100001234309515'
S'\\u0915\\u0935\\u093f \\u0930\\u093e\\u091c\\u0940\\u0935 \\u0915\\u0941\\u092e\\u093e\\u0930 \\u0936\\u094d\\u0930\\u0940\\u0935\\u093e\\u0938\\u094d\\u0924\\u0935'
tp1587
a(S'100002501543013'
S'Rajnikant Pathak'
tp1588
a(S'100001914095388'
S'\\u0921\\u0949. \\u0930\\u093e\\u0939\\u0941\\u0932 \\u092e\\u093f\\u0936\\u094d\\u0930'
tp1589
a(S'595413917'
S'Amit Kumar'
tp1590
a(S'100005076511489'
S'Loren Friyahyloren'
tp1591
a(S'100007225929678'
S'Birendar Raturi'
tp1592
a(S'100004916682730'
S'Antara Karvade'
tp1593
a(S'1238018442'
S'Vivek Mishra'
tp1594
a(S'100002360859400'
S'Alankar Rastogi'
tp1595
a(S'100004248930900'
S'\\u0917\\u093e\\u0902\\u0918\\u0940\\u0936\\u094d\\u0935\\u0930 \\u092e\\u093e\\u0938\\u093f\\u0915'
tp1596
a(S'100004492843200'
S'Sayed Jafar Raza Zaidi'
tp1597
a(S'100003581060877'
S'Santosh Kumar'
tp1598
a(S'100004114805503'
S'Shakeel Ahmad'
tp1599
a(S'100000627881920'
S'Mithilesh Dhar Dubey'
tp1600
a(S'100005140837532'
p1601
S'Radha Shrotriya'
tp1602
a(S'100000777300242'
S'Himanshu Agarwal'
tp1603
a(S'100002856683405'
S'Tikendra Shad'
tp1604
a(S'100001916186715'
S'Hukam Chand Bhaskar'
tp1605
a(S'100003597654998'
p1606
S'Ruby Srivastava'
tp1607
a(S'100001978825420'
S'Satyapal Satyam'
tp1608
a(S'100001579137717'
S'\\u0905\\u092e\\u093f\\u0924 \\u0930\\u093e\\u091c\\u0935\\u0902\\u0924'
tp1609
a(S'1437559628'
S'Pradeep A. Singh'
tp1610
a(S'100002252094947'
S'Dp Sharma'
tp1611
a(S'100004828995322'
S'Tanvi Gautam'
tp1612
a(S'707090986'
S'Ashish Khetan'
tp1613
a(S'100000504926030'
p1614
S'Kavita Singh'
tp1615
a(S'100001593051717'
S'\\u0905\\u0932\\u0915\\u093e \\u0917\\u0941\\u092a\\u094d\\u0924\\u093e'
tp1616
a(S'100002415090524'
S'Kailashnarayan Sharma'
tp1617
a(S'100006381189141'
p1618
S'Suvesh Yadav'
tp1619
a(S'100003154529021'
S'Munna Pathak'
tp1620
a(S'100003927991686'
S'Ajay Kumar Rishi'
tp1621
a(S'1202927115'
S'Joginder Solanki'
tp1622
a(S'1030554861'
S'Ved Prakash Gupta'
tp1623
a(S'100003752663614'
S'Raj Gautam'
tp1624
a(S'100004785600393'
S'Bijay Mohanty'
tp1625
a(S'100002353771213'
S'DrDeepak Vijayvargiya'
tp1626
a(S'100005138713467'
S'Urvashi Dixit'
tp1627
a(S'100000539068525'
S'Laxman Sonu'
tp1628
a(S'100001673735722'
S'Yogesh Mishra'
tp1629
a(S'100005228374572'
S'Ajai Yadav'
tp1630
a(S'100003314034507'
S'Kailash Shaadaab'
tp1631
a(S'100002418536788'
S'Govind Gajab Yaduvanshi Kavi'
tp1632
a(S'100001382853224'
p1633
S'Raghuveer Singh'
tp1634
a(S'100004021725626'
S'Thakur Rabindra Kumar'
tp1635
a(S'100001761126023'
S'Sunil Datt Mishra'
tp1636
a(S'100004978530813'
S'Udaynarayan Singh Nirjhar'
tp1637
a(S'1237596277'
S'Alok Nigam'
tp1638
a(S'100002488185657'
S'Naveen Jaishwal'
tp1639
a(S'1745717864'
S'Prithwipal Rawat'
tp1640
a(S'100002623056227'
S'Lokendra Tripathi'
tp1641
a(S'100002888142601'
S'Kavi Sidharth Dewal'
tp1642
a(S'100003207663661'
S'Devendra Joshi'
tp1643
a(S'1784077047'
S'Sanjeev Ahluwalia'
tp1644
a(S'100004231502202'
S'Bhagwan Makrand'
tp1645
a(S'100006298535980'
S'Mahendra Deo'
tp1646
a(S'100000797037122'
S'Mallika Bhattacharya'
tp1647
a(S'100002121552065'
S'Amit Singh'
tp1648
a(S'100001157195485'
S'Ghanshyam Sharma'
tp1649
a(S'1588147169'
S'Vijay Jain'
tp1650
a(S'100003609943078'
S'Ajay Mishra'
tp1651
a(S'100004874316802'
S'Suman Uttam Singh'
tp1652
a(S'100000380503437'
S'Sunil Sharma'
tp1653
a(S'100003333157259'
S'Yogendra Prasad'
tp1654
a(S'1335278387'
S'Ramji Rai'
tp1655
a(S'100004675268192'
S'Sumitra Pareek'
tp1656
a(S'100004171722356'
S'Bindu Bikash Ojha'
tp1657
a(S'100003860908249'
S'Sanya Zaheer Sani'
tp1658
a(S'100002017998502'
S'Daya Ram Daya'
tp1659
a(S'100000094151435'
p1660
S'Pramod Meena'
tp1661
a(S'1758297171'
S'Krishna Kumar Sharma'
tp1662
a(S'100001407664117'
S'Namita Kumari'
tp1663
a(S'100000035285944'
S'Manish Sri'
tp1664
a(S'100000835281857'
S'\\u0935\\u093f\\u092a\\u093f\\u0928 \\u0938\\u093f\\u0902\\u0939 \\u092a\\u091f\\u0947\\u0932'
tp1665
a(S'100005336590358'
S'Bhaskar Sukla'
tp1666
a(S'100004027097500'
S'Anulata Raj Nair'
tp1667
a(S'100007178114357'
S'Rani Dubey'
tp1668
a(S'100005268602440'
S'Acharya Siddharth'
tp1669
a(S'1779504518'
S'Santosh Pratap Singh'
tp1670
a(S'100001966227531'
S'Niraj Maurya'
tp1671
a(S'100001521473539'
S'Nandan Jha'
tp1672
a(S'100004126502092'
S'Rakesh Singh'
tp1673
a(S'100003245787404'
S'Suneeta Saraf'
tp1674
a(S'100002622321890'
S'Ruchi Bhalla'
tp1675
a(S'100004240592775'
S'Drkksinha Dentist'
tp1676
a(S'100001593045428'
S'Rajesh Mishra'
tp1677
a(S'100001127225304'
S'\\u0921\\u0949 \\u0906\\u0936\\u0941\\u0924\\u094b\\u0937 \\u0935\\u093e\\u091c\\u092a\\u0947\\u092f\\u0940'
tp1678
a(S'100003538759768'
S'Shekhar Raj'
tp1679
a(S'1346972212'
S"Kumar Swasti Priye 'Warsi'"
tp1680
a(S'100004628229904'
S'Shikha Singh'
tp1681
a(S'100003104936904'
S'Alok Shukla'
tp1682
a(S'100003819921718'
S'Shivkumar Suman'
tp1683
a(S'100004046283282'
S'Indu Bhushan Singh'
tp1684
a(S'100001540782841'
p1685
S'Shyamji Sahay'
tp1686
a(S'1320332775'
S'Jitendra Singh'
tp1687
a(S'100001579788693'
S'Gaurav Srivastava Dadda'
tp1688
a(S'100004725300857'
S'Prince Sinha'
tp1689
a(S'100004371513803'
S'Arun Kumar Tiwari'
tp1690
a(S'100002726890468'
S'Banaj Kumar'
tp1691
a(S'100005382271217'
S'Alok Kumar'
tp1692
a(S'100004670765250'
S'Literaturein India'
tp1693
a(S'100001361693336'
S'Aditya Navodit'
tp1694
a(S'100004458870283'
S'Arun Singh'
tp1695
a(S'100004428760972'
S'Roji Jaiswar'
tp1696
a(S'100005018589157'
S'Poonam Mishra'
tp1697
a(S'100004485369780'
S'\\u0930\\u093e\\u092e \\u0936\\u093f\\u0930\\u094b\\u092e\\u0923\\u093f \\u092a\\u093e\\u0920\\u0915'
tp1698
a(S'100000229209700'
S'Savita Agarwal'
tp1699
a(S'642985390'
S'Sharad Rai'
tp1700
a(S'100000206803157'
S'Laxmi Narayan'
tp1701
a(S'100000357895797'
S'Vipin Dixit'
tp1702
a(S'100004324329763'
S'Maitreyi Pushpa'
tp1703
a(S'100003989531724'
S'MD Sazad Alam'
tp1704
a(S'1559771735'
S'Deepak Hemrajani'
tp1705
a(S'1260923213'
S'Tk Dwivedi'
tp1706
a(S'100003638954519'
S'Kothari Dinesh'
tp1707
a(S'100000155211102'
S'Prabha Suman'
tp1708
a(S'100002912648502'
S'Dinesh Rawat'
tp1709
a(S'100002659521949'
S'Lakshmi Kant Tripathi'
tp1710
a(S'100005916330509'
S'Anju Sharma'
tp1711
a(S'100003226622667'
S'Sunil Kumar Pandey'
tp1712
a(S'100004374193478'
S'Pandit Ankit Pathak'
tp1713
a(S'100003623725982'
S'Bhawna Bahri'
tp1714
a(S'100000289114869'
S'Sushil Kumar'
tp1715
a(S'100001190153327'
S'Shyam Vashishtha'
tp1716
a(S'100002269340389'
S'Samarpan Trivedi'
tp1717
a(S'100006042280586'
S'DrSony Pandey'
tp1718
a(S'100001735272640'
S'Sandip Vashist'
tp1719
a(S'100001539342643'
S'Pranaw Kumar'
tp1720
a(S'100000579968701'
S'Kapil Mahajan'
tp1721
a(S'100001321369717'
p1722
S'Anuj Shukla'
tp1723
a(S'100002213105381'
S'Vishal Verma'
tp1724
a(S'100000785835133'
p1725
S'Vivek Tripathi'
tp1726
a(S'621588365'
S'Katyaayanee Chaturvedi'
tp1727
a(S'100001461217709'
S'Chander Shekhar'
tp1728
a(S'100003176901335'
S'\\u092a\\u093f\\u092f\\u0941\\u0937 \\u091c\\u094b\\u0936\\u0940'
tp1729
a(S'1201237956'
S'\\u0906\\u0936\\u0941\\u0924\\u094b\\u0937 \\u0936\\u0941\\u0915\\u094d\\u0932\\u093e'
tp1730
a(S'100005039801983'
S'Satyakashi Chunar'
tp1731
a(S'100008047508249'
S'Sachin Kumar Kushwaha'
tp1732
a(S'1225438304'
S'Shambhu Shikhar'
tp1733
a(S'100003316293202'
S'Subodh Sulabh'
tp1734
a(S'100006057877962'
S'Dhananjay Tiwari'
tp1735
a(S'100006566615976'
S'Shivraj Vashishtha'
tp1736
a(S'100000116038696'
S'Padma Sharma'
tp1737
a(S'100005406344194'
S'Vijay Kumar'
tp1738
a(S'1769196813'
S'Madhava Bajpai'
tp1739
a(S'100005199879559'
S'Lokesh Dewan'
tp1740
a(S'100005253814391'
S'Indra Deo Prasad'
tp1741
a(S'1733479828'
S'Hemant Kumar Dubey'
tp1742
a(S'100002238458904'
S'Avdhesh Nigam'
tp1743
a(S'100001158052726'
S'Hindu Sapeksh Manch'
tp1744
a(S'100004165723751'
S'Drishtikon Bulletin'
tp1745
a(S'100002311227384'
S'Riya Sharma'
tp1746
a(S'100001732096195'
S'Narendra Kaushik'
tp1747
a(S'100003824560687'
p1748
S'Birsa Hansda'
tp1749
a(S'100003957587025'
S'Wings Forneed'
tp1750
a(S'100004882004543'
p1751
S'Sanjay Tripathi'
tp1752
a(S'100004531332066'
S'Shivangi Awasthi'
tp1753
a(S'100004769190477'
S'Adriana Miller'
tp1754
a(S'100001279442333'
S'Ashok Moti'
tp1755
a(S'100001933319235'
S'\\u0915\\u0935\\u093f \\u0905\\u091c\\u0940\\u0924 \\u0915\\u0941\\u092e\\u093e\\u0930 \\u0924\\u0932\\u0935\\u093e\\u0930'
tp1756
a(S'100004134035083'
S'Rupak Kr Singh'
tp1757
a(S'1244757412'
S'Varunesh Vijay'
tp1758
a(S'100002633145990'
S'Sujan Kavi'
tp1759
a(S'100002095320478'
S'Raj Kumar Rakesh'
tp1760
a(S'100000996009855'
S'Raj Dubeuy'
tp1761
a(S'100001496590881'
S'Anil Kumar Mcj'
tp1762
a(S'100001813491398'
S'Rajnikant Gupta Hind'
tp1763
a(S'100002414418598'
S'Anurag Pathak'
tp1764
a(S'100000508281072'
S'Akash Tiwari'
tp1765
a(S'100004452150247'
S'Rekha Singh'
tp1766
a(S'100000531206335'
S'Dipanshu Sharma'
tp1767
a(S'100003713295033'
S'Anshu Kumar'
tp1768
a(S'1495178659'
S'Anita Misra'
tp1769
a(S'100003610765752'
S'Adnan Sami'
tp1770
a(S'1232653093'
S'Rahul Singh'
tp1771
a(S'100006660099872'
S'Bhuwan Ghugtyal'
tp1772
a(S'100004332612431'
S'Alka Sharma'
tp1773
a(S'100003506965837'
S'Santosh Gupta'
tp1774
a(S'100000008972674'
S'Akhilesh Krishna Mohan'
tp1775
a(S'100003048576986'
S'Prahaladrai Teli'
tp1776
a(S'100000478405296'
S'Sangita Vedia'
tp1777
a(S'100000417008858'
S'Rupesh Singh'
tp1778
a(S'554334642'
S'Pankaj Parashar'
tp1779
a(S'100002508780299'
S'Keerti Mathur'
tp1780
a(S'100000010818344'
S'Gautam Lenin'
tp1781
a(S'100005118400697'
S'Anirudh Sinha'
tp1782
a(S'100003894611331'
p1783
S'Poonam Tripathi'
tp1784
a(S'100002530914038'
S'Aryan Raj'
tp1785
a(S'100001720457279'
S'Anil Kumar'
tp1786
a(S'100001616201229'
S'Niranjan Kumar'
tp1787
a(S'100003230596779'
S'Lata Swaranjali'
tp1788
a(S'100003597688230'
S'Rama Arya'
tp1789
a(S'100002575831153'
S'Sandeep Verma'
tp1790
a(S'100002284289103'
S'Kumar Manish'
tp1791
a(S'1014554014'
p1792
S'Sanjay Swadesh'
tp1793
a(S'100000842773177'
S'Suresh Gandhi'
tp1794
a(S'100000337875980'
S'Gopal Rathi'
tp1795
a(S'100004863128658'
p1796
S'Hindi Prachar'
tp1797
a(S'100005375495881'
S'Anupam Saxena'
tp1798
a(S'100002551548365'
S'Praveen Awashti'
tp1799
a(S'100001920240666'
S'Ashok Charan'
tp1800
a(S'1542702217'
S'Prem Bhardwaj'
tp1801
a(S'563192481'
S'Murari Lal Thanvi'
tp1802
a(S'100001981978388'
S'Satish Shukla'
tp1803
a(S'100005388488055'
S'Amit Kumar'
tp1804
a(S'100004983900491'
S'Swati Dhama'
tp1805
a(S'100001746626232'
S'Satendra Shukla'
tp1806
a(S'100002003867453'
S'Suresh Mishra'
tp1807
a(S'100000462649725'
S'Anil Kumar Singh'
tp1808
a(S'100000449156963'
S'Meditation Guru Archna Didi'
tp1809
a(S'100005887334519'
S'Poonam Don'
tp1810
a(S'100001542513254'
S'Vikas Mahajan'
tp1811
a(S'100005257410511'
S'Vicky Baba'
tp1812
asS'id'
p1813
S'100005324704338'
p1814
sS'name'
p1815
S'\\u0938\\u0941\\u0936\\u0940\\u0932 \\u0915\\u0941\\u092e\\u093e\\u0930 \\u0938\\u093f\\u0902\\u0939'
p1816
s.