(dp1
S'friends'
p2
(lp3
(S'100002171439627'
S'Tanya Verma'
tp4
a(S'100001144393528'
S'Shivam Sharma'
tp5
a(S'100000079426641'
S'Yatin Wadhwa'
tp6
a(S'100001526807472'
S'Harsh Choudhary'
tp7
a(S'100000266275489'
S'Kripansh Banga'
tp8
a(S'100004304943302'
S'Piyush Ahuja'
tp9
a(S'100002370761908'
S'Shubhi Gangwar'
tp10
a(S'100002472772851'
S'Vishu Mast Munda'
tp11
a(S'100001224198679'
S'Apurva Negi'
tp12
a(S'100002357218912'
S'Surbhi Mittal'
tp13
a(S'100003518711743'
S'Mamta Mudgil'
tp14
a(S'100000379043687'
S'Yash Malik'
tp15
a(S'100005334487589'
S'Arunima S Nair'
tp16
a(S'100002581388688'
S'Tarun Rai Tara'
tp17
a(S'100001043497879'
S'Vishal Kumar'
tp18
a(S'100001729320718'
S'Mukesh Saini'
tp19
a(S'100001554004422'
S'Mayank Rai'
tp20
a(S'100001111955941'
S'Hemant Jangra'
tp21
a(S'100004048756801'
S'Gaurav Dalal'
tp22
a(S'100000160027642'
S'Chahat Mahajan'
tp23
a(S'100000903685018'
S'Geetanjali Ahlawat'
tp24
a(S'100001169335632'
S'Shivam Gupta'
tp25
a(S'100002408117065'
S'Sruthy M Nair'
tp26
a(S'1320257370'
S'Paras Mehandiratta'
tp27
a(S'100001978755421'
S'Pradeep Khichi'
tp28
a(S'100001401125622'
S'Asit Sahu'
tp29
a(S'100002432812968'
S'Divakar Vinit'
tp30
a(S'100002427527487'
S'Prashant Thakral'
tp31
a(S'100000128505328'
S'Ritesh Mehandiratta'
tp32
a(S'100000090825996'
S'Shubha Anand'
tp33
a(S'1283653343'
S'Siddhant Garg'
tp34
a(S'1603782369'
S'Gaurika Gupta'
tp35
a(S'100002427208012'
S'Pranjal Kwatra'
tp36
a(S'100001643485257'
S'Sandeep Lamba'
tp37
a(S'100000529011580'
S'Ankita Singh'
tp38
a(S'100001197713601'
S'Shubham Goel'
tp39
a(S'100001410637548'
S'Himanshi Dhayal'
tp40
a(S'100002454027762'
S'Shubham Siddhant Singh'
tp41
a(S'100002355619520'
p42
S'Sunny Parmar'
tp43
a(S'606270154'
S'Rohit Nihal'
tp44
a(S'1590958353'
S'Avesh Gaur'
tp45
a(S'1487239377'
S'Yogender Singh'
tp46
a(S'100003140402833'
S'Niki Ta'
tp47
a(S'724338617'
S'Chinoy Bajaj'
tp48
a(S'100002657198017'
S'Himanshu Jawa'
tp49
a(S'100003893839332'
S'Sonal Verma'
tp50
a(S'100002469949534'
S'Lokesh Kaushik'
tp51
a(S'100002049094847'
S'L\\u00fav Karakoti'
tp52
a(S'100002436703344'
S'Gaurab Dip Saha'
tp53
a(S'100001422078668'
S'Tushar Garg'
tp54
a(S'100002555854215'
S'Abhishek Bhatia'
tp55
a(S'100000227359065'
S'Shilpa Chugh'
tp56
a(S'100001441324197'
S'Deepak Gupta'
tp57
a(S'100002831188066'
S'Aastha Jangra'
tp58
a(S'100000299820038'
S'Pranav Gureja'
tp59
a(S'100002891778145'
S'Chitra Singhal'
tp60
a(S'100002954824312'
S'Nishi Moda'
tp61
a(S'100002490739271'
S'Deepak Singh'
tp62
a(S'100002399540015'
S'Rahul Yadav'
tp63
a(S'1290415321'
S'Abhishek Azad'
tp64
a(S'100000375524059'
S'Rashmi Mehandiratta'
tp65
a(S'100004028148356'
S'Aditi Singla'
tp66
a(S'100001182610502'
p67
S'Yogesh Panghal'
tp68
a(S'100002588942560'
S'Geetika Jain'
tp69
a(S'100002147463368'
S'Shivam Gandhi'
tp70
a(S'100002639032568'
S'Surender Verma'
tp71
a(S'100002380083583'
S'Anoop Baloda'
tp72
a(S'100001593594427'
S'Vipin Basia'
tp73
a(S'100002486749104'
S'Suraj Bhan Kharbas'
tp74
a(S'100002042263803'
S'Pushpa Sangwan'
tp75
a(S'100000798965406'
S'Kuldeep Bansal'
tp76
a(S'100001018402643'
S'Aman Soni'
tp77
a(S'100002339636288'
S'Faraz Ghazi'
tp78
a(S'100000434726602'
S'Abhishek Chauhan'
tp79
a(S'100002683429155'
S'Anju Bhadu'
tp80
a(S'100002234627016'
S'Deepti Gill'
tp81
a(S'100002400250244'
S'Sanjay Bhoria'
tp82
a(S'100002809412923'
S'Alice Singh'
tp83
a(S'100002725726440'
S'Geetika Singla'
tp84
a(S'100001598162229'
S'Romel Bhattacharjee'
tp85
a(S'100002763716228'
S'Neha Mittal'
tp86
a(S'100002802492152'
S'Aashna Shukla'
tp87
a(S'100001506961441'
S'Utkarsh Kumar'
tp88
a(S'100006614463400'
S'Athira Raju'
tp89
a(S'100004097046837'
S'Badal Badshah'
tp90
a(S'100001784660896'
S'Navdeep Redhal'
tp91
a(S'100001948943065'
S'Hitesh Goyal'
tp92
a(S'100000190892918'
S'Vibhu Sharma'
tp93
a(S'100004291179975'
S'Shailja Bamniya'
tp94
a(S'100002502597181'
S'Ajay Sherawat'
tp95
a(S'100000500333773'
S'Devender Yadav'
tp96
a(S'100001346502541'
S'Shobhit Saxena'
tp97
a(S'100002116268488'
S'Rochak Bansal'
tp98
a(S'100001448090583'
S'Divya Kashyap'
tp99
a(S'100001720238594'
S'Ansh Arora Insa'
tp100
a(S'100000054280486'
S'Dhruv Panwar'
tp101
a(S'100002109775550'
S'Akshit Aggarwal'
tp102
a(S'100002431691239'
S'Akanksha Verma'
tp103
a(S'100004096893707'
S'Sonali Chhilar'
tp104
a(S'100003265504021'
S'Sudha Sharma'
tp105
asS'id'
p106
S'100000644239434'
p107
sS'name'
p108
S'Akash Mehandiratta'
p109
s.