(dp1
S'current_text'
p2
VNew Delhi, India\u000aCurrent City
p3
sS'name'
p4
S'Harman Singh'
p5
sS'current_class'
p6
S'india'
p7
sS'friends'
p8
(lp9
sS'id'
p10
S'1010125131'
p11
sS'current_link'
p12
Vhttps://www.facebook.com/l.php?u=https%3A%2F%2Fwww.bing.com%2Fmaps%2Fdefault.aspx%3Fv%3D2%26pc%3DFACEBK%26mid%3D8100%26where1%3D28.613900916609%252C%2B77.207794189453%26name%3DNew%2BDelhi%252C%2BIndia%26mkt%3Den-IN&h=SAQHWfQhG&s=1
p13
s.