(dp1
S'name'
p2
S'Sandip Garg'
p3
sS'current_class'
p4
S'india'
p5
sS'home_class'
p6
Vkasganj, uttar pradesh 207123, india
p7
sS'home_text'
p8
VKasganj\u000aHometown
p9
sS'current_link'
p10
Vhttps://www.facebook.com/l.php?u=https%3A%2F%2Fwww.bing.com%2Fmaps%2Fdefault.aspx%3Fv%3D2%26pc%3DFACEBK%26mid%3D8100%26where1%3D28.613900916609%252C%2B77.207794189453%26name%3DNew%2BDelhi%252C%2BIndia%26mkt%3Den-IN&h=dAQFb7sXA&s=1
p11
sS'home_link'
p12
Vhttps://www.facebook.com/l.php?u=https%3A%2F%2Fwww.bing.com%2Fmaps%2Fdefault.aspx%3Fv%3D2%26pc%3DFACEBK%26mid%3D8100%26where1%3D27.816700812485%252C%2B78.649749755859%26name%3DKasganj%26mkt%3Den-IN&h=vAQHkhsIO&s=1
p13
sS'current_text'
p14
VNew Delhi, India\u000aCurrent City
p15
sS'friends'
p16
(lp17
(S'100007544587062'
S'Pradeep Kumar'
tp18
a(S'100003158201429'
S'Nagendra Singh'
tp19
a(S'100008220465344'
S'Lalit Jain'
tp20
a(S'100002437070307'
S'Ritu Gupta'
tp21
a(S'100006597039354'
S'Rakesh Kumar Singh'
tp22
a(S'1029713428'
p23
S'Sandip Garg'
tp24
a(S'100005156233409'
S'Arvind Meena'
tp25
a(S'100006782052144'
S'Sumit Mishra'
tp26
a(S'100008183916227'
S'Venkata Swamy Sura'
tp27
asS'id'
p28
g23
s.