(dp1
S'friends'
p2
(lp3
(S'100001899321613'
S'Ashiq Ali'
tp4
a(S'100000834665981'
S'Mayank Vikram Singh'
tp5
a(S'100001651880106'
S'Dennish Jose'
tp6
a(S'714102934'
S'Aniket Pant'
tp7
a(S'510110191'
S'Rahul Sharma'
tp8
a(S'100004900421606'
S'Saurabh Kumar'
tp9
a(S'737952345'
S'Akshay Sawan'
tp10
a(S'100001232813501'
S'Hemant Singh Yadav'
tp11
a(S'1701718312'
S'Rahul Sethi'
tp12
a(S'1630681323'
S'Bhuwan Chauhan'
tp13
a(S'100004049990647'
S'Pranjal Rastogi'
tp14
a(S'100001045100125'
S'Jay Prakash'
tp15
a(S'100003193329522'
S'Kajal Rana'
tp16
a(S'100001417559221'
S'Karry Karan'
tp17
a(S'100001696057872'
S'Adeeb Ur Rahman'
tp18
a(S'573442588'
S'Murali Nair'
tp19
a(S'1608637442'
S'Abhishek Ajith'
tp20
a(S'100001257143568'
S'Mahiraj Singh Dhami'
tp21
a(S'100002941960219'
S'Abraham Rather'
tp22
a(S'100001172455236'
S'Vinay Singh'
tp23
a(S'100000098794898'
S'Rounaq Kanodia'
tp24
a(S'1106566824'
S'Syed Fahid'
tp25
a(S'100000009945966'
S'Moin Ejaz'
tp26
a(S'1726759897'
S'Akshay Yadav'
tp27
a(S'1674261293'
S'Soren Raj Goyal'
tp28
a(S'100000329187845'
S'Abhishek Singh'
tp29
a(S'1367257644'
S'Jeel Desai'
tp30
a(S'1796719704'
S'Apoorva Somani'
tp31
a(S'100001431651061'
S'\\u00c3sh\\u00edsh Gaikwad'
tp32
a(S'100002023666271'
S'Abhishek Bhadauria'
tp33
a(S'1334409805'
S'Kartikeya Vats'
tp34
a(S'100000123408472'
S'Dbz Singh'
tp35
a(S'100000511579686'
S'Vaidant Vyas'
tp36
a(S'100000772771655'
S'Arpit Agarwal'
tp37
a(S'1449401037'
S'Saurabh Mathur'
tp38
a(S'100002631392932'
S'Moomin Khan'
tp39
a(S'100001853572299'
S'Rahul Kushwaha'
tp40
a(S'1441891395'
S'Kritika Yadav'
tp41
a(S'100003236440411'
S'Rishabh Vishwakarama'
tp42
a(S'1022134954'
S'Harshit Singh'
tp43
a(S'100000173451140'
S'Zorawar Aulakh'
tp44
a(S'1666057552'
S'Ashish Thakran'
tp45
a(S'1487367791'
S'Utsav Singh Bhandari'
tp46
a(S'1466674001'
S'Priyank Jain'
tp47
a(S'100001663819175'
S'Karanbir Singh'
tp48
a(S'100001588950510'
S'Ruthvik Reddy'
tp49
a(S'100002543814352'
S'Shashank Shasha'
tp50
a(S'689606283'
S'Akshat Pant'
tp51
a(S'1302817702'
S'Vivek Dhar'
tp52
a(S'782397497'
S'Jo Anne'
tp53
a(S'779262929'
S'Pushkar Prehar'
tp54
a(S'1431524209'
S'Aayush Agarwal'
tp55
a(S'100000405923678'
S'Santosh Anand'
tp56
a(S'1451472806'
S'Agrim Singhal'
tp57
a(S'628415627'
S'Rakshit Singh'
tp58
a(S'643655576'
S'Jagatjeet Singh'
tp59
a(S'100000123387701'
S'Girish Srinivasan'
tp60
a(S'100001241116851'
S'Lakshmi Pandey'
tp61
a(S'100004019117135'
S'Subam Bharati'
tp62
a(S'100002834118315'
S'Dayawan Tomar'
tp63
a(S'1469808729'
S'Shobhit Nayyar'
tp64
a(S'1661407120'
S'Parth Yadav'
tp65
a(S'100001885518985'
S'Arunpreet Singh'
tp66
a(S'100001583130269'
S'Gurjeet Singh'
tp67
a(S'100002072494864'
S'Akshat Agarwala'
tp68
a(S'100000924234815'
S'Prateek Ram'
tp69
a(S'1065592990'
S'Rahul Wahi'
tp70
a(S'100000588643726'
S'Faiz Qureshi'
tp71
a(S'100000458331421'
S'Rupesh Bidkar'
tp72
a(S'515362034'
S'Harsh Patel'
tp73
a(S'1022420644'
S'Anshul Bindal'
tp74
a(S'100001892965802'
S'Rishi Karma'
tp75
a(S'1086325035'
S'Naman Mathur'
tp76
a(S'100001636577371'
S'Pravin Choudhary'
tp77
a(S'100002554903186'
S'Chandra Prakash Shekhawat'
tp78
a(S'100001816964282'
S'Subhash Shukla'
tp79
a(S'100001675089246'
S'ANshul Sharma'
tp80
a(S'100002259778574'
S'Gaurav Sharma'
tp81
a(S'1543734197'
S'Tushar Sharma'
tp82
a(S'100000268244950'
S'Kushagra Makhija'
tp83
a(S'100002542566578'
S'Tushar Sharma'
tp84
a(S'1460983418'
S'Rahul Bora'
tp85
a(S'1771119816'
S'Yayati Dinesh'
tp86
a(S'651318533'
S'Yawar Mir'
tp87
a(S'100000216780808'
S'Rishabh Prakash'
tp88
a(S'1068878428'
S'Udit Baliga'
tp89
a(S'1653214191'
S'Manpreet Singh Bali'
tp90
a(S'100002979378478'
S'Karan Thakur'
tp91
a(S'100001085520068'
S'Aniruddha Varshney'
tp92
a(S'1501250693'
S'Madhur Malhotra'
tp93
a(S'1639418882'
S'Lalit Ahuja'
tp94
a(S'1315147435'
S'Raghav Raina'
tp95
a(S'100002690172730'
S'Puranjay Jain'
tp96
a(S'1126418731'
S'Rohan Nayyar'
tp97
a(S'100000301257717'
S'Ishu Lamba'
tp98
a(S'100000035555536'
S'Hemant Yadav'
tp99
a(S'100004865110078'
S'Varun Angooral'
tp100
a(S'100000502428455'
S'Dushyant Mahajan'
tp101
a(S'100000039469759'
S'Tarunav Mathur'
tp102
a(S'100002291400763'
S'Anuj Angooral'
tp103
a(S'100001187169086'
S'Anshuman Shekhar Tiwari'
tp104
a(S'100000951946470'
S'Lakshay Chaudhary'
tp105
a(S'1704619804'
S'Raunaq Khanna'
tp106
a(S'1518335578'
S'Saumya Saumi Pankaj'
tp107
a(S'100001422368321'
S'Ishan Garg'
tp108
a(S'1156789090'
S'Siddharth Gupta'
tp109
a(S'100002358500917'
S'Arpit Dadu'
tp110
a(S'100000316391523'
S'Anirban Dutta'
tp111
a(S'533352117'
S'Deep Zabakh'
tp112
a(S'1380337402'
S'Pushyami Rao'
tp113
a(S'100003124155089'
S'Yogendra S. Bhadouria'
tp114
a(S'100001589592090'
S'Kartik Arora'
tp115
a(S'100000945004451'
S'Tannaz Sidhu'
tp116
a(S'1561457939'
S'Murshid Alam'
tp117
a(S'100001768917633'
S'Atul Agarwal'
tp118
a(S'100001478376701'
S'Tas Nia'
tp119
a(S'100007721410151'
S'Chinmay'
tp120
a(S'1424534033'
S'Pratyush Agarwal'
tp121
a(S'671582201'
S'Avinash Mathur'
tp122
a(S'779142428'
S'Nitish Sharma'
tp123
a(S'694251846'
S'Hermann Kaur'
tp124
a(S'100000001575770'
S'NI T IN'
tp125
a(S'100003202108157'
S'Mir Baazil'
tp126
a(S'538251958'
S'Rohan Shukla'
tp127
a(S'100002408932151'
S'Raghvendra Bhadoria'
tp128
a(S'100001233801828'
S'Yash Agarwal'
tp129
a(S'100000262455857'
S'Nishit Vashi'
tp130
a(S'1065649151'
S'Priyansh Dhaka'
tp131
a(S'586182393'
S'Hiren Patel'
tp132
a(S'100003367848831'
S'Shivangi Singh'
tp133
a(S'100004100357630'
S'Akshay Koul'
tp134
a(S'100003195658144'
S'Gurasis Bangaa'
tp135
a(S'1105816968'
S'Rijul Raut'
tp136
a(S'1574855305'
S'Arshdeep Singh'
tp137
a(S'100000893097216'
S'Abraham Kattil'
tp138
a(S'1122953374'
S'Shivam Rana'
tp139
a(S'100001063003735'
S'Anuj Gupta'
tp140
a(S'100001479004161'
S'Udit Handa'
tp141
a(S'1461458624'
S'Shiven Luthra'
tp142
a(S'1001316862'
S'Karanvir Singh'
tp143
a(S'100000023197777'
S'Shantam Sharma'
tp144
a(S'1023358705'
S'Dhruv Verma'
tp145
a(S'560547964'
S'Rafey Ahmad'
tp146
a(S'1771582643'
S'Chirag Gambhir'
tp147
a(S'100001965679984'
S'Suditya Rai'
tp148
a(S'1476362194'
S'Akshita Singh'
tp149
a(S'100001420779337'
S'Pranav Narain'
tp150
a(S'100000953540768'
S'Ashutosh Bhardwaj'
tp151
a(S'100000963370483'
S'Imran Inayathullah'
tp152
a(S'100002223716626'
S'Utkarsh Anand'
tp153
a(S'100001122472014'
S'Shivam Singh'
tp154
a(S'566214774'
S'Gokul Nayar'
tp155
a(S'100001090628795'
S'Om Shridhar'
tp156
a(S'825016444'
S'Kashish Jajodia'
tp157
a(S'748692697'
S'Mohan Aiyer'
tp158
a(S'100002247580770'
S'Rishabh Kumar'
tp159
a(S'782718337'
S'Vinscent Blak'
tp160
a(S'1032282046'
S'Abhishek Sharma'
tp161
a(S'100002426604191'
S'Sanjay Yadav'
tp162
a(S'1244230964'
S'Shivam Roy'
tp163
a(S'1580043892'
S'Nikhil Malik'
tp164
a(S'1331374848'
S'Saarthak Vadhera'
tp165
a(S'100001930318109'
S'Sanjay Bhadouria'
tp166
a(S'1181133202'
S'Avnit Sharma'
tp167
a(S'100000322207536'
S'Shikhar Golash'
tp168
a(S'100001156666477'
S'Pulkit Verma'
tp169
a(S'626711152'
S'Anuj Kumar Yadav'
tp170
a(S'100000319942153'
S'Yogesh Lather'
tp171
a(S'1049123564'
S'Samrath Singh'
tp172
a(S'100000255827235'
S'Avijit Jain'
tp173
a(S'1261033539'
S'Aakriti Warikoo'
tp174
a(S'100000575386272'
S'Pranay Billie Sharma'
tp175
a(S'100000989244855'
S'Nikhil Lohia'
tp176
a(S'679243464'
S'Dhruv Narad'
tp177
a(S'1337349769'
S'Abhinav Tripathi'
tp178
a(S'1050281960'
S'Tanveer Oberoi'
tp179
a(S'1058206833'
S'Avnish Rana'
tp180
a(S'100000500421057'
S'Himanshu Sharma'
tp181
a(S'100000900782901'
S'Dinesh Paulraj'
tp182
a(S'100001005736548'
S'SUdeep GIri'
tp183
a(S'100003682516251'
S'Lalit Yadav'
tp184
a(S'100002043010288'
S'Shrinidhi Mirji'
tp185
a(S'1722759916'
S'Shubham Verma'
tp186
a(S'1705884779'
S'Anshul Agrawal'
tp187
a(S'100004861900099'
S'Harpreet Singh'
tp188
a(S'1531536477'
S'Anand Krishna'
tp189
a(S'100000305100990'
S'Anshul Tyagi'
tp190
a(S'100000981898948'
S'Sanjeev Singh'
tp191
a(S'1645640382'
S'Arjoonn Sharma'
tp192
a(S'100001246570824'
S'Rohit Soni'
tp193
a(S'581616430'
S'Ainesh Ahluwalia'
tp194
a(S'1070017126'
S'Eeshan Tripathi'
tp195
a(S'714510612'
S'Siddhant Sharma'
tp196
a(S'1044401408'
S'Mihir Nagpal'
tp197
a(S'100001655335466'
S'Kunal Jha'
tp198
a(S'523677595'
S'Alankrit Sharma'
tp199
a(S'1348601630'
S'Umesh Malik'
tp200
a(S'1170802933'
S'Rahul Anand'
tp201
a(S'1207376664'
S'Manik Singhal'
tp202
a(S'100000993816419'
S'Rishabh Sharma'
tp203
a(S'1031840810'
S'Sourabh Madan'
tp204
a(S'100001444270538'
S'Aman Mehta'
tp205
a(S'100001821781423'
S'Rangeet Mj'
tp206
a(S'100000736427590'
S'Moksh Amorph Sharma'
tp207
a(S'100000105927338'
S'Shaurya Mishra'
tp208
a(S'764954055'
S'Samir Bharadwaj'
tp209
a(S'547571325'
S'Saurabh Joshi'
tp210
a(S'1329366139'
S'Akash Gupta'
tp211
a(S'1152595266'
S'Abhinav Tripathi'
tp212
a(S'100002213945048'
S'Himanshu Stinson Duggal'
tp213
a(S'100001565952809'
S'Devaang Mehrotra'
tp214
a(S'1376119985'
S'Gemin Patel'
tp215
a(S'100002134892887'
S'Sultan Mec'
tp216
a(S'100005586600143'
S'Sankardev Barman'
tp217
a(S'100000318612148'
S'Ketan Malik'
tp218
a(S'738201763'
S'Rohan Bhutani'
tp219
a(S'1609612556'
S'Nipun Glenfiddich Dawar'
tp220
a(S'100001971457489'
S'Gurdeep Saini'
tp221
a(S'100002671940115'
S'Sameer Singh'
tp222
a(S'100002261081982'
S'Sunny Singh'
tp223
a(S'516690936'
S'Ujjawal Singh Bhandari'
tp224
a(S'1293715510'
S'Rishabh Sharma'
tp225
a(S'1139589204'
S'Pratyush Kr'
tp226
a(S'100000396751288'
S'Yash Singh'
tp227
a(S'1298016472'
S'Mec Meilleur'
tp228
a(S'1504064409'
S'Siddarth Broly Mehra'
tp229
a(S'702348052'
S'Dhruv Pande'
tp230
a(S'1088523598'
S'Avirudh Dahiya'
tp231
a(S'1012807554'
S'Shubham Rai'
tp232
a(S'100002357547256'
S'Ravi Sinha'
tp233
a(S'100000975996484'
S'Arnav Ailawadi'
tp234
a(S'1008008527'
S'Gaurav Sharma'
tp235
a(S'667571448'
S'Arun Kumar'
tp236
a(S'1805603870'
S'Tanmay Sharma'
tp237
a(S'1639244778'
S'Adarsh Ar'
tp238
a(S'100001843558780'
S'Lk Sharma'
tp239
a(S'1331930530'
S'Satyam Roy'
tp240
a(S'1618599662'
S'Arun Tayal'
tp241
a(S'100002393379804'
S'Pulram Sharma'
tp242
a(S'100001721561231'
S'VInay Singh'
tp243
a(S'100000513493549'
S'Fahid Khan'
tp244
a(S'1152982703'
S'Keshav Inani'
tp245
a(S'1313795856'
S'Dushyant Kanal'
tp246
a(S'1325015887'
S'Siddharth Mishra'
tp247
a(S'100002283763475'
S'Love Tomar'
tp248
a(S'100001920549439'
S'Rampal Tomar'
tp249
a(S'1629554966'
S'Mohit Maruwada'
tp250
a(S'1380999051'
S'Aaroh Shukla'
tp251
a(S'1301325349'
S'Prateek Mall'
tp252
a(S'100006152652607'
S'Rrohan Gupta'
tp253
a(S'100000160501305'
S'Kunal Sehgal'
tp254
a(S'100003164000241'
S'Piyali Singh Sikarwar'
tp255
a(S'100001193816364'
S'Arjun Dahiya'
tp256
a(S'100002340730675'
S'Akshay Bhat'
tp257
a(S'100000771857887'
S'Sumit Singh'
tp258
a(S'1051006929'
S'Mudita Yadav'
tp259
a(S'100001977420505'
S'Pulkit Sharma'
tp260
a(S'1785103107'
S'Pranjal Kathuria'
tp261
a(S'781854121'
S'Amitoj Bhandari'
tp262
a(S'1468207983'
S'Vidhi Arora'
tp263
a(S'100001549244298'
S'Amit Kumar'
tp264
a(S'1162681990'
S'Bhavya Bhatia'
tp265
a(S'1589751394'
S'Yashwanth Reddie'
tp266
a(S'1492163139'
S'Varun Sharawat'
tp267
a(S'1059407092'
S'Bharat Katyayan'
tp268
a(S'1798102238'
S'Sidharth Soni'
tp269
a(S'100002834665150'
S'\\u00d1\\u00e4vj\\u00f8t S\\u00ef\\u00f1gh T\\u00fcll\\u00e4'
tp270
a(S'100002266601035'
S'Sai Chandhu'
tp271
a(S'100000429037982'
S'Joy Mandhotra'
tp272
a(S'780906097'
S'Kaustav Mohanty'
tp273
a(S'100003063888998'
S'Shobhit Dubey'
tp274
a(S'1053642765'
S'Lakshay Mehta'
tp275
a(S'1421235849'
S'Matisha Sharma'
tp276
a(S'523691924'
S'Akshath Sharma'
tp277
a(S'600776645'
S'Varun Narula'
tp278
a(S'100002382139424'
S'Jetendra Joshi'
tp279
a(S'528022614'
S'Siddharth Marya'
tp280
a(S'1491125726'
S'Gagan Sehgal'
tp281
a(S'100001646507043'
S'Nitesh Sharma'
tp282
a(S'100000261568500'
S'Patricks Comedian'
tp283
a(S'100002013390106'
S'Pro Sharma'
tp284
a(S'100002288675029'
S'Shiven Luthra'
tp285
a(S'100002734905976'
S'Karan Rajput'
tp286
a(S'100000677646040'
S'Sachin Chand'
tp287
a(S'1075121869'
S'Nirmit Maniar'
tp288
a(S'1039402331'
S'Anoop Madamsetty'
tp289
a(S'555694883'
S'Rishaal Rajan'
tp290
a(S'100000947818793'
S'Amol Goel'
tp291
a(S'100006114341971'
S'Lohit Kumar'
tp292
a(S'100001605726514'
S'Tejas Monga'
tp293
a(S'100000576272631'
S'Anuj Arora'
tp294
a(S'1219133639'
S'Nimish Abrol'
tp295
a(S'100002305286162'
S'Birender Chahar'
tp296
a(S'1692746048'
S'Shubham Malhotra'
tp297
a(S'100002914488406'
S'Suleman Khan'
tp298
a(S'100001654091432'
S'Romit Singh'
tp299
a(S'1100167826'
S'Rahul Bhola'
tp300
a(S'1620472628'
S'Harnoor Sahni'
tp301
a(S'100000562650625'
S'Ankith Kumar'
tp302
a(S'100000072993655'
S'Hanan Mir'
tp303
a(S'1105069442'
S'Sayan Sidha Das'
tp304
a(S'773958184'
S'Swasti Kumar'
tp305
a(S'1059946139'
S'Shreyas Vaidya'
tp306
a(S'1058724125'
S'Chirantan Ghanekar'
tp307
a(S'663697073'
S'Yash Vig'
tp308
a(S'1404433483'
S'Udit Pratap Singh'
tp309
a(S'1228423052'
S'Kashish Gajrawala'
tp310
a(S'100002283395075'
S'Harpreet Singh'
tp311
a(S'1051624885'
S'Deepankar Dimri'
tp312
a(S'100002168755782'
S'Pushpen Kumar Shukla'
tp313
a(S'742265313'
S'Akhil Rao'
tp314
a(S'1783266188'
S'Atif Khan'
tp315
a(S'100005506560574'
S'Arif ALi'
tp316
a(S'739726965'
S'Vishrut Kumar'
tp317
a(S'1814835907'
S'Akshay Bhat'
tp318
a(S'100001484216030'
S'Sparsh Pankaj'
tp319
a(S'1539604035'
S'Rishi Banerjee'
tp320
a(S'1171934658'
S'Advay Wazza Parasnis'
tp321
a(S'528437181'
S'Agrim Singh'
tp322
a(S'100000186830882'
S'Ann Jisna'
tp323
a(S'687070543'
S'Karanbir Singh'
tp324
a(S'695042793'
S'Apoorv Vatzz'
tp325
asS'id'
p326
S'1031662520'
p327
sS'name'
p328
S'ROhan Sharma'
p329
s.