(dp1
S'name'
p2
S'Faizan Zakir'
p3
sS'current_class'
p4
S'pakistan'
p5
sS'home_class'
p6
Vlahore, pakistan
p7
sS'home_text'
p8
VLahore, Pakistan\u000aHometown
p9
sS'current_link'
p10
Vhttps://www.facebook.com/l.php?u=https%3A%2F%2Fwww.bing.com%2Fmaps%2Fdefault.aspx%3Fv%3D2%26pc%3DFACEBK%26mid%3D8100%26where1%3D31.549700669186%252C%2B74.343109130859%26name%3DLahore%252C%2BPakistan%26mkt%3Den-IN&h=9AQG9hyq8&s=1
p11
sS'home_link'
p12
Vhttps://www.facebook.com/l.php?u=https%3A%2F%2Fwww.bing.com%2Fmaps%2Fdefault.aspx%3Fv%3D2%26pc%3DFACEBK%26mid%3D8100%26where1%3D31.549700669186%252C%2B74.343109130859%26name%3DLahore%252C%2BPakistan%26mkt%3Den-IN&h=6AQHWjr0r&s=1
p13
sS'current_text'
p14
VLahore, Pakistan\u000aCurrent City
p15
sS'friends'
p16
(lp17
(S'1485418623'
S'Muhammad Amjad Saqib'
tp18
a(S'1492216982'
S'Abdul Haseeb Shaikh'
tp19
a(S'552510626'
S'Taimur Zuberi'
tp20
a(S'507792705'
S'Bilal Asad'
tp21
a(S'588312160'
S'Danish Abbas'
tp22
a(S'748843296'
S'Ahmed Saleem'
tp23
a(S'501988999'
S'Salik Nadeem'
tp24
a(S'513100850'
S'Syed Saad Shah'
tp25
a(S'663818111'
S'Osman Bajwa'
tp26
a(S'1222898717'
S'Asad Habib'
tp27
a(S'541835117'
S'Wajeeh Ali'
tp28
a(S'533040161'
S'Faizan Toor'
tp29
a(S'551431372'
S'Ali Pasha'
tp30
a(S'100003661648313'
S'Ussama Ahmed Khan'
tp31
a(S'588271012'
S'Nur Umar'
tp32
a(S'666900102'
S'Asad Khalid'
tp33
a(S'628951723'
S'Waqas Rasheed'
tp34
a(S'769125601'
S'Ali El Dawlatly'
tp35
a(S'595105425'
S'Mohammad Salman Asif'
tp36
a(S'553515531'
S'Rayyan Zakir Shaikh'
tp37
a(S'531070391'
S'Mustafa Javed Bajwa'
tp38
a(S'691983930'
S'Yaser Masood Qureshi'
tp39
a(S'100000084235111'
S'Minahil Baloch'
tp40
a(S'623484121'
S'Rafeel Wasif'
tp41
a(S'684720461'
S'Aahmed Naim Ismail'
tp42
a(S'868340432'
S'Salik Nazim'
tp43
a(S'1334447834'
S'Hamza Gohar'
tp44
a(S'782275286'
S'Baseem Shaikh'
tp45
a(S'1016831239'
S'Syed Mohsin Bukhari'
tp46
a(S'549751489'
S'Junaid Malik'
tp47
a(S'702605235'
S'Ala-Addin Nabulsi'
tp48
a(S'1523144614'
S'Umer Naeem'
tp49
a(S'554950709'
S'Wahaj Ahmed'
tp50
a(S'557271065'
S'Hussain Nadim'
tp51
a(S'683325334'
S'Bandar Saeed'
tp52
a(S'501137750'
S'Nawaf A'
tp53
a(S'722800593'
S'Zain Hassan Awan'
tp54
a(S'100000132474030'
S'Yumna Shoaib'
tp55
a(S'727843736'
S'Komal Zaman'
tp56
a(S'1611890167'
S'Salman Ali'
tp57
a(S'886270120'
S'Tahir Hasan'
tp58
a(S'516960579'
S'Que ReddFoxx Sills'
tp59
a(S'1375393600'
S'Saad Maqsood'
tp60
a(S'580010542'
S'Bazil Ahmad Chaudhry'
tp61
a(S'619390064'
S'Ahmed Raza Qayyum'
tp62
a(S'100000093866372'
S'Bakhtawer Awan'
tp63
a(S'513979388'
S'Saad Arshad'
tp64
a(S'100000164540710'
S'Fahad Ul Mulk'
tp65
a(S'100000756021490'
S'Fahad Anwar'
tp66
a(S'522255213'
S'Ovi J'
tp67
a(S'100000141692241'
S'Haris Iqbal'
tp68
a(S'534032318'
S'Ozair Naeem'
tp69
a(S'701669769'
S'Uzair Tariq'
tp70
a(S'1621115012'
S'Ali Ahsan'
tp71
a(S'100001550135461'
S'Umer Ehsan'
tp72
a(S'694016930'
S'Aneeq Zia'
tp73
a(S'1043499275'
S'Nabeel Akhtar'
tp74
a(S'625007501'
S'Ahmad Bilal Aslam'
tp75
a(S'548258923'
S'Amr Salah Eltahan'
tp76
a(S'695147692'
S'Ahmad Mababaya'
tp77
a(S'617020645'
S'Nasser Fayez'
tp78
a(S'681570229'
S'Javed Haider'
tp79
a(S'750775510'
S'Sadruddin Junejo'
tp80
a(S'556840040'
S'Talhah Rehan'
tp81
a(S'1432999036'
S'Muhammad Khurram Shahzad'
tp82
a(S'535670044'
S'Zarian Khan'
tp83
a(S'674035076'
S'Azeem Shaikh'
tp84
a(S'535810227'
S'Ayan Ghayas'
tp85
a(S'583587656'
S'Nadia Ashraf'
tp86
a(S'514525751'
S'Zahra Khan'
tp87
a(S'1564182982'
S'Syed Waqar Alam'
tp88
a(S'515768541'
S'Murtaza Masood Qureshi'
tp89
a(S'566407951'
S'Amber Reavley'
tp90
a(S'1556536673'
S'Asif Iqbal'
tp91
a(S'671455716'
S'Obaid Ullah'
tp92
a(S'553002861'
S'M Hissan Zafar'
tp93
a(S'692794409'
S'Saud Hamza Munir'
tp94
a(S'617837350'
S'Umair Mesiya'
tp95
a(S'100002161277229'
S'Belal Azeem'
tp96
a(S'778811348'
S'Kashif Ahmed'
tp97
a(S'100000280374837'
S'Saba Sarim'
tp98
a(S'531972258'
S'Ali Akhlaq Mughal'
tp99
a(S'1586475137'
S'Kashif Shaikh'
tp100
a(S'1041955805'
S'Omair K Tareen'
tp101
a(S'851650601'
S'Nomee Noaman Zakir'
tp102
a(S'647418649'
S'Aymen Abdullah'
tp103
a(S'726939549'
S'Khawaja Hassan Munir'
tp104
a(S'1247976222'
S'Hamza Ghaffar'
tp105
a(S'834540400'
S'Hussam Masood'
tp106
a(S'578920170'
S'Sheharyar Ali'
tp107
a(S'711451164'
S'Bilal Ahmed'
tp108
a(S'100000984933820'
S'Aimun Varind'
tp109
a(S'555376162'
S'Nabeel Ahsan'
tp110
a(S'100000476443864'
S'Muhammad Imran Chaudhry'
tp111
a(S'565220235'
S'Daniyal Arif'
tp112
a(S'593756487'
S'Nadia Shaikh-Naeem'
tp113
a(S'688847957'
S'Zain Khan'
tp114
a(S'524331087'
S'Feisal H. Naqvi'
tp115
a(S'521800021'
S'Saman Zia'
tp116
a(S'514882120'
S'Mohammed Harris Ajmal'
tp117
a(S'721203039'
S'Bela Khan'
tp118
a(S'100004314247777'
S'Attiya Javed'
tp119
a(S'672276119'
S'Nadia Iona Hasan'
tp120
a(S'100003613916102'
S'Ayesha Saleem'
tp121
a(S'1268520786'
S'Christopher King'
tp122
a(S'100001839557074'
S'Rafia Murtaza'
tp123
a(S'100002420943987'
S'Zoraiz Khurshied'
tp124
a(S'100000432962005'
S'Usama Abid'
tp125
a(S'728407329'
S'Chaudhary Aniq Ali'
tp126
a(S'689270390'
S'Danish Doordarshan Ali'
tp127
a(S'515930698'
S'Safa Mahmood'
tp128
a(S'1021607889'
S'Azhar Farooqui'
tp129
a(S'542261694'
S'Rafi Ullah'
tp130
a(S'539095579'
S'Rayed Saeed Chaudhry'
tp131
a(S'521715579'
S'Iymun Bashir'
tp132
a(S'528630023'
S'Nabila Tahsin'
tp133
a(S'1430768986'
S'Faiz Ul Wahab'
tp134
a(S'819445056'
S'Bilal Shariff'
tp135
a(S'635085065'
S'Badr Alahdal'
tp136
a(S'610482533'
S'Saad Ashraf'
tp137
a(S'676530015'
S'Sarosh Hasan'
tp138
a(S'741105537'
S'Umar Burney'
tp139
a(S'517651649'
S'Abdu Mohamed'
tp140
a(S'1266658742'
S'Anum Hamzah Salim'
tp141
a(S'1051070475'
S'Arsalan Anwar'
tp142
a(S'100001187137073'
S'Komal Fatima Faridi'
tp143
a(S'673592032'
S'Roshaan Ahsan'
tp144
a(S'536430713'
S'Ahmad Minhas'
tp145
a(S'570275439'
S'Muhsin A. Sehgal'
tp146
a(S'541735380'
S'Amena Akram Hayat'
tp147
a(S'1104429077'
S'Ahmad Zia'
tp148
a(S'640045128'
S'Mahd Tauseef'
tp149
a(S'551645240'
S'Shahrukh Tauqir'
tp150
a(S'100001273451999'
S'Ali Arshad'
tp151
a(S'567400676'
S'Abdul Wasay Baloch'
tp152
a(S'554235234'
S'Hassaan Sattar'
tp153
a(S'100000032316455'
S'Asad Lodhi'
tp154
a(S'1808777560'
S'Shifa Amina Noor'
tp155
a(S'100000437541202'
S'Sarmad Syed'
tp156
a(S'556460398'
S'Awais Shahid'
tp157
a(S'502355403'
S'Nida Kaif'
tp158
a(S'1158829889'
S'Nausherwan Ali'
tp159
a(S'100003783681946'
S'Munir Malik'
tp160
a(S'535165386'
S'Abdul Rahman Badawy'
tp161
a(S'609355711'
S'Arooj Nabeel'
tp162
a(S'1090099025'
S'Waqas Ahmad'
tp163
a(S'1430356288'
S'Hassan Jamil'
tp164
a(S'1426100501'
S'Shamail Adnan Khan'
tp165
a(S'517549541'
S'Abdullah Kutaiba Al-Mitwalli'
tp166
a(S'1411703786'
S'Hanaya Tanzeel'
tp167
a(S'685216988'
S'Ali Uzair'
tp168
a(S'621695847'
S'Zain Hanif'
tp169
a(S'505452420'
S'Hussam Mehio'
tp170
a(S'100000887176932'
S'Mubashir Latif'
tp171
a(S'1611174079'
S'Hatim Rashid'
tp172
a(S'100000936521955'
S'Aziz Khan'
tp173
a(S'678456581'
S'Zayad Bin Tariq Malik'
tp174
a(S'563931785'
S'Anique Akhtar'
tp175
a(S'1366331342'
S'Zeeshan Gondal'
tp176
a(S'552165796'
S'Hira Bilal'
tp177
a(S'100003646803036'
S'Muhammad Fareed Amin'
tp178
a(S'100000735762540'
S'Adil Chattha'
tp179
a(S'1344871449'
S'Rehan Hasan'
tp180
a(S'757190556'
S'Fahad Chughtai'
tp181
a(S'100000164517155'
S'Hassan Ali'
tp182
a(S'584375393'
S'Amyn Virani'
tp183
a(S'617870227'
S'Owais Ahmed Mohyal'
tp184
a(S'1066224569'
S'Ovais Usman'
tp185
a(S'535445706'
S'Mohamed Gamal'
tp186
a(S'518140878'
S'Wahaj Mansoor AS Wajee'
tp187
a(S'100000157466360'
S'Mohsin Ali Sheikh'
tp188
a(S'518009593'
S'Monte Ibrahim'
tp189
a(S'100001018898046'
S'Mohammad Zakir'
tp190
a(S'629900209'
S'Taha Fahim Pasha'
tp191
a(S'632240339'
S'Umer Baloch'
tp192
a(S'1210530231'
S'Abdullah Shaikh'
tp193
a(S'100000214560907'
S'Osama Munir'
tp194
a(S'1353181788'
S'Rubbia Shahbaz'
tp195
a(S'100000135960845'
S'Amna Naeem'
tp196
a(S'1478670173'
S'Muneeb Akhter'
tp197
a(S'644700406'
S'Ali Haider Rizvi'
tp198
a(S'1358948084'
S'Ovais Siddiqui'
tp199
a(S'205459'
S'Jazib Zahir'
tp200
a(S'588976498'
S'Muhammad Nauman Manzoor'
tp201
a(S'637475379'
S'Ashas Zubair'
tp202
a(S'546709887'
S'Kazim Raza'
tp203
a(S'611937628'
S'Saad Alamgir'
tp204
a(S'517003162'
S'Mustafa Syed'
tp205
a(S'100000214088418'
S'Ahmad Salman Zafar'
tp206
a(S'100001394266897'
S'AD Babar'
tp207
a(S'642510675'
S'Ahmed Rafiq'
tp208
a(S'563187542'
S'Zaibinda Mubashar'
tp209
a(S'1528660271'
S'Taimur Rizvi'
tp210
a(S'666934913'
S'Zulekha Ahmed'
tp211
a(S'1019958443'
S'Saad A. Khan'
tp212
a(S'572657912'
S'Tarek Abdou Geddawi'
tp213
a(S'100000078718759'
S'Zeeshan Arshad'
tp214
a(S'595773938'
S'Osama Saeed'
tp215
a(S'854235472'
S'Laila Rajani'
tp216
a(S'517022629'
S'Mehak Najam'
tp217
a(S'1804029625'
S'Junaid Alam'
tp218
a(S'536830462'
S'Faisal Ahsan'
tp219
a(S'646061728'
S'Bilal Ahmed'
tp220
a(S'511270832'
S'Rehan Arif'
tp221
a(S'1676898790'
S'Omair Sarwar'
tp222
a(S'580580069'
S'Mudassir Nawaz'
tp223
a(S'1189855251'
S'Aroosa Ijaz'
tp224
a(S'715435356'
S'Kamal Ahmed Jumani'
tp225
a(S'593126752'
S'Saqib Tanveer'
tp226
a(S'1241762805'
S'Syed Hussain Shah'
tp227
a(S'1069871205'
S'Akhtar Nawaz'
tp228
a(S'717056562'
S'Basil Manko'
tp229
a(S'100000155175635'
S'Seemab Hassan'
tp230
a(S'100001839431366'
S'Saad Shaukat'
tp231
a(S'556050005'
S'Sultan Mirza'
tp232
a(S'686562728'
S'Mohammad Hasan'
tp233
a(S'523386145'
S'Humais Ahmad'
tp234
a(S'592825083'
S'Baber Chowdhrey'
tp235
a(S'1018620916'
S'Habib Tariq'
tp236
a(S'702476471'
S'Othman Tahir'
tp237
a(S'675079746'
S'Adiya Qadir'
tp238
a(S'625927875'
S'Moeez Ashraf'
tp239
a(S'521985386'
S'Hussam Uddin'
tp240
a(S'639877550'
S'Uzair Khan'
tp241
a(S'100001383623426'
S'Salman Asif'
tp242
a(S'1765011545'
S'Shah Zaman'
tp243
a(S'609546957'
S'Haider Shah'
tp244
a(S'706645350'
S'Muneeb Zulfiqar'
tp245
a(S'717480020'
S'Waleed Jehandad'
tp246
a(S'659728155'
S'Muqeet Khakwani'
tp247
a(S'1606527740'
S'Farhan Shafique'
tp248
a(S'667260110'
S'Hamza Saqib'
tp249
a(S'1277124694'
S'Syed Taha'
tp250
a(S'763189912'
S'Waqar Chaudhry'
tp251
a(S'507791943'
S'Asim Fayaz'
tp252
a(S'542263960'
S'Danish Rizwan'
tp253
a(S'764970470'
S'Wisam Khurram'
tp254
a(S'1042565672'
S'Raza Inam'
tp255
a(S'1129176559'
S'Mustafa Masood'
tp256
a(S'814085371'
S'Ahmed A Chaudhry'
tp257
a(S'749695695'
S'Usama Javed Mirza'
tp258
a(S'100001655772360'
S'Shehzad Gul'
tp259
a(S'100000186931219'
S'Awais Zahoor'
tp260
a(S'754713567'
S'Emad Hayee'
tp261
a(S'508236119'
S'Shayan Zia'
tp262
a(S'100000106425618'
S'Muhammad Adnan'
tp263
a(S'100003964716498'
S'Ahmed Naveed'
tp264
a(S'1186311380'
S'Haseeb Zahid'
tp265
a(S'657921352'
S'Bheesham Lal'
tp266
a(S'686560309'
S'Sherif Ayman'
tp267
a(S'1145343085'
S'Ali Raza'
tp268
a(S'697745513'
S'Abdul Basit Siddiqui'
tp269
a(S'556250576'
S'Usama Saeed Chaudhry'
tp270
a(S'560201079'
S'Naveed Rehman'
tp271
a(S'100000223502557'
S'Khawaja Talha'
tp272
a(S'1343747638'
S'Amal Javed Dar'
tp273
a(S'100000093868517'
S'Abdul Haseeb Manj'
tp274
a(S'100000360658348'
S'Muaz Mallick'
tp275
a(S'551396208'
S'Amash Malik'
tp276
a(S'614889379'
S'Abdul Rehman Shabbir'
tp277
a(S'1281859948'
S'Aakif Sultan'
tp278
a(S'100000218561703'
S'Muhammad Salar'
tp279
a(S'618146211'
S'Umair Samee'
tp280
a(S'1359518014'
S'Adnan AbdulRazzak Chaudhary'
tp281
a(S'1208617642'
S'Aqeel Javed'
tp282
a(S'100000199148226'
S'Zahra Rashid'
tp283
a(S'578325648'
S'Hassan Abbasi'
tp284
a(S'612527354'
S'Tayyaba Mohsin'
tp285
a(S'100004087335814'
S'Uzair Kalu'
tp286
a(S'100000168554425'
S'Usman Haider'
tp287
a(S'656112503'
S'Mobin Abrar'
tp288
a(S'1551814463'
S'Arqum Jan'
tp289
a(S'652360413'
S'Khawaja Sajjad Saeed'
tp290
a(S'811160018'
S'Musaddiq Nawaz'
tp291
a(S'678775919'
S'Hamza Khan'
tp292
a(S'860870233'
S'Shoaib Ibrahim'
tp293
a(S'633591004'
S'Zain Rehman'
tp294
a(S'100003214075041'
S'Omar Hotd'
tp295
a(S'1532770648'
S'Ahmed Javed'
tp296
a(S'100001255598899'
S'Aleem Nasir'
tp297
a(S'654845654'
S'Sughra Shah Bukhari'
tp298
a(S'725771690'
S'Amjad Hussain'
tp299
a(S'566591001'
S'Furqan Afzal'
tp300
a(S'1453963400'
S'Muhammad Hassaan'
tp301
a(S'539765581'
S'MaNi DaDuDe'
tp302
a(S'535454726'
S'Marwah Maqbool'
tp303
a(S'632413473'
S'Safdar Khan'
tp304
a(S'100000178466548'
S'Mahboob Mohsin'
tp305
a(S'591361272'
S'Samad Khan'
tp306
a(S'100000212462260'
S'Imee Aly'
tp307
a(S'100000475440196'
S'Umer Ashraf'
tp308
a(S'581207824'
S'AbdulRahman Geddawi'
tp309
a(S'589110599'
S'Hafsa Durrani'
tp310
a(S'100002663814535'
S'Hajra Sheikh'
tp311
a(S'615312501'
S'Zeeshan Shahid'
tp312
a(S'779720051'
S'Muneeb Farrukh'
tp313
a(S'618775709'
S'Rayyan Aamer'
tp314
a(S'677696713'
S'Zohaib Chaudhry'
tp315
a(S'658430816'
S'Zohaib Hassan'
tp316
a(S'689645637'
S'Dania Nadeem Khawaja'
tp317
a(S'645125211'
S'Omair Siddiqui'
tp318
a(S'1809391548'
S'Dilawar Khan'
tp319
a(S'507155709'
S'Usman Zakir'
tp320
a(S'901075455'
S'Rasib Ali Bhanji'
tp321
a(S'522345555'
S'Hatim Shah'
tp322
a(S'1769451565'
S'Aamir Khan'
tp323
a(S'513689261'
S'Umair Jaliawala'
tp324
a(S'1838863417'
S'Noman Karim'
tp325
a(S'737996336'
S'Shahab Khalid'
tp326
a(S'634590667'
S'Talha Waheed'
tp327
a(S'679082111'
S'Rana Faisal Hayat'
tp328
a(S'710850477'
S'Roha Khan'
tp329
a(S'823595513'
S'Mulassum Younus'
tp330
a(S'100000239006038'
S'Sumbal Rizwan'
tp331
a(S'100000194756558'
S'Abdul Sami'
tp332
a(S'1057420703'
S'Adnan Ahmed'
tp333
a(S'1052059955'
S'Zara Majeed'
tp334
a(S'550351135'
S'Husnain Ramay'
tp335
a(S'1338619312'
S'Waqas Sikandari'
tp336
a(S'1252372500'
S'Munaf Arshad Qazi'
tp337
a(S'548496539'
S'Rameez Ragheb'
tp338
a(S'100000128413242'
S'Waleed Khan'
tp339
a(S'1099792619'
S'Bilal Jaffery'
tp340
a(S'673244090'
S'Ansar Shah'
tp341
a(S'629695233'
S'Hasan Shoaib'
tp342
a(S'516648563'
S'Yazan Bakri'
tp343
a(S'561001043'
S'Ahmed Lodhi'
tp344
a(S'584865051'
S'Mohammad Ahmad'
tp345
a(S'584947421'
S'Ahmad Jabbar'
tp346
a(S'1445157757'
S'Anum Asif'
tp347
a(S'1337875109'
S'Qasim Zafar'
tp348
a(S'614913720'
S'Hammad Malik'
tp349
a(S'1016647542'
S'Imran Ghazali'
tp350
a(S'801994931'
S'Nawaz Bajwa'
tp351
a(S'896900087'
S'Umair Liaqat'
tp352
a(S'1832528374'
S'Waqas Malik'
tp353
a(S'100001408324446'
S'Qasim Shamim'
tp354
a(S'100000448232885'
S'Mohammad Mehdi'
tp355
a(S'617282024'
S'Tooba Fatima Husain'
tp356
a(S'100001629456343'
S'Usman Farooq'
tp357
a(S'535456542'
S'Hashim Kaleem'
tp358
a(S'100000161059784'
S'Aman Kumar'
tp359
a(S'559550362'
S'Hamza Malik'
tp360
a(S'100001476174982'
S'Ayyan Javed'
tp361
a(S'544103067'
S'Sharoon Ahmad'
tp362
a(S'824260651'
S'Saifullah Waqar'
tp363
a(S'543390087'
S'Salman Farooq'
tp364
a(S'100002128295615'
S'Hina Khurram'
tp365
a(S'801160326'
S'Sobaan Ahmed Raja'
tp366
a(S'100000339121117'
S'Zeeshan Ahmad'
tp367
a(S'100000956024718'
S'Zara Ashfaq'
tp368
a(S'575185709'
S'Habiba Malik'
tp369
a(S'572475890'
S'Asif Wazir Ali'
tp370
a(S'706340634'
S'Anam Zahid'
tp371
a(S'515519766'
S'Taimoor Ali Ahmad'
tp372
a(S'100000646085685'
S'Asad Ur Rehman'
tp373
a(S'572710060'
S'Safaa Ali Eid'
tp374
a(S'100001189462485'
S'Jaffar Masood'
tp375
a(S'510732063'
S'Sarim Khan'
tp376
a(S'581670500'
S'Hassan Niazi'
tp377
a(S'820950541'
S'QAdeer Uddin Ahmed'
tp378
a(S'1457048496'
S'Mansoor Nawaz'
tp379
a(S'613106179'
S'Awais Irfan'
tp380
a(S'100000200124443'
S'Saqib Mushtaq'
tp381
a(S'100001963148723'
S'Arslan Akram Sandhu'
tp382
a(S'574545506'
S'Shari Birch'
tp383
a(S'551359777'
S'Ashhar Naeem'
tp384
a(S'614971695'
S'M.Izharulhaq Bajwa'
tp385
a(S'100004006388663'
S'Usama Sami'
tp386
a(S'554202788'
S'Muhammad Umair Mustafa'
tp387
a(S'629590542'
S'Hamza Hassan'
tp388
a(S'1616053164'
S'Asim Raza'
tp389
a(S'598572513'
S'Ahmed Mansi'
tp390
a(S'100000847335446'
S'Muhammad Muddasar Sharif'
tp391
a(S'520903462'
S'Ali Haider'
tp392
a(S'545267232'
S'Jayyeda Taimoor'
tp393
a(S'543501421'
S'Uzair Mahmood'
tp394
a(S'644785603'
S'Farrukh Kazi'
tp395
a(S'509211106'
S'Zaeem Khan'
tp396
a(S'100000334249045'
S'Tanzeel Ur Rehman'
tp397
a(S'1456175791'
S'Ghawash Ali'
tp398
a(S'592816672'
S'Imran Ahmad Khan'
tp399
a(S'633600366'
S'Khawaja Fahd'
tp400
a(S'512306115'
S'Muhammad Hamza Sarosh'
tp401
a(S'1465604168'
S'Hashim Rashid'
tp402
a(S'1442517547'
S'Syed Hurr'
tp403
a(S'879840226'
S'Jawwad Ahmad'
tp404
a(S'550740607'
S'Zaheen Fatima Pakistan'
tp405
a(S'523310382'
S'Nadir Ali Khan'
tp406
a(S'100000127489940'
S'Saleh Mirza'
tp407
a(S'716101211'
S'Maliha Nabil'
tp408
a(S'512784371'
S'Mohammed Shoaib'
tp409
a(S'609536507'
S'Haris Usmani'
tp410
a(S'532143993'
S'Jotesh Lohia'
tp411
a(S'1635827890'
S'Ya\\u015far Qamar'
tp412
a(S'100000103210368'
S'Fahad Mehsood'
tp413
a(S'100002126447118'
S'Jurist Yassar H Waqar'
tp414
a(S'100000022087713'
S'Muhammad Umer'
tp415
a(S'1240343721'
S'Atiq Ali Babar'
tp416
a(S'100000591050401'
S'Waseem Saif'
tp417
a(S'100001045301345'
S'Murad Rasheed'
tp418
a(S'559673245'
S'Bilal Syed'
tp419
a(S'525285456'
S'Heer Ayoub Shaikh'
tp420
a(S'565631509'
S'Awais Khan'
tp421
a(S'1431920947'
S'Zubair Ahsan'
tp422
a(S'535890283'
S'Abbas Taqi'
tp423
a(S'100000753866671'
S'Shafqat Shaikh'
tp424
a(S'1181236226'
S'Asad Khan'
tp425
a(S'100001183896538'
S'Awais Javed'
tp426
a(S'609601076'
S'Wasif Mahmood'
tp427
a(S'702130217'
S'Noman Bahadur'
tp428
a(S'691881721'
S'Shahrukhh Khan'
tp429
a(S'500491476'
S'Umair Ahmed Khan'
tp430
a(S'100000623640136'
S'Ahmad Abdul Rauf'
tp431
a(S'560385439'
S'Azhar Zaheer'
tp432
a(S'535007020'
S'Bilal Majeed'
tp433
a(S'510912837'
S'Mohammed Abdul Malik Farooqi'
tp434
a(S'100000170686167'
S'Midhat Maqsood'
tp435
a(S'1437855698'
S'Abdul Sami Shaikh'
tp436
a(S'100000572408021'
S'Muhammad Arham'
tp437
a(S'813515415'
S'Akif Zubair'
tp438
a(S'558357044'
S'Hamza Khalid'
tp439
a(S'536035233'
S'Zara Salman'
tp440
a(S'100003856029281'
S'Ehsan Elahi'
tp441
a(S'100000106360150'
S'Qaisar Raza'
tp442
a(S'509067873'
S'Abuzar Mir'
tp443
a(S'574971076'
S'Fahad Ftr'
tp444
a(S'777861802'
S'Bilal Ahmed'
tp445
a(S'750185550'
S'Shayan Ali'
tp446
a(S'625458246'
S'Batool Naqvi'
tp447
a(S'675615429'
S'Osama Ali Siddiqui'
tp448
a(S'1819880952'
S'Taha Gilani'
tp449
a(S'1229196417'
S'Hira Ghaffar'
tp450
a(S'556360013'
S'Suliaman Shahid'
tp451
a(S'740195071'
S'Haris Salman'
tp452
a(S'607279142'
S'Usama Arshad Warraich'
tp453
a(S'100001073705251'
S'Khurram Ayaz'
tp454
a(S'546700163'
S'Maha Rehman'
tp455
a(S'505474038'
S'Danish Ali Latif'
tp456
a(S'1535948628'
S'Daniyal Naiyer'
tp457
a(S'100000016816408'
S'Mubeen Ahsan'
tp458
a(S'529486594'
S'Khurram Rasheed'
tp459
a(S'100000486203473'
S'Mughira Omer'
tp460
a(S'573197046'
S'Khawaja Muhammad Asad Attari'
tp461
a(S'100000155124285'
S'Nauman Yousaf'
tp462
a(S'768888590'
S'Abdul Qayyum'
tp463
a(S'1059583042'
S'Zara Humayun'
tp464
a(S'515326539'
S'Hassan Ahmad'
tp465
a(S'100002677005545'
S'Anum Malhi'
tp466
a(S'829678703'
S'Suhail Abbas Karim'
tp467
a(S'644096000'
S'Rai Ghulam Mustafa'
tp468
a(S'100000182528391'
S'Asim Dogar'
tp469
a(S'743510506'
S'Arslan Dogar'
tp470
a(S'100000120892957'
S'Malik Awais Khan'
tp471
a(S'716928551'
S'Adeel Ibrahim'
tp472
a(S'611840116'
S'Omair Ahmed Mohyal'
tp473
a(S'521932956'
S'Fahd Mukaddam'
tp474
a(S'614119632'
S'Asad Zahid'
tp475
a(S'512222464'
S'Ismail Khan Sadozai'
tp476
a(S'100002950013532'
S'Fahad Iqbal'
tp477
a(S'518328007'
S'Kiran Nazish'
tp478
a(S'1056243454'
S'Osama Safeer'
tp479
a(S'611005301'
S'Hassan Shahzad'
tp480
a(S'1243804647'
S'Farhan Anwaar'
tp481
a(S'720730671'
S'Taimur Rahman'
tp482
a(S'1718908901'
S'Ali Jalil'
tp483
a(S'672965733'
S'Neha Khalid'
tp484
a(S'790010455'
S'Zahra Khan'
tp485
a(S'709648122'
S'Motahar Paracha'
tp486
a(S'522050155'
S'Adil Ali'
tp487
a(S'1225678465'
S'Usman Sheikh'
tp488
a(S'517935699'
S'Omar Elmasry'
tp489
a(S'549612911'
S'Arsalan Ahmed Khan'
tp490
a(S'548231640'
S'Aneel Kumar'
tp491
a(S'646750710'
S'Khalid B. K. Al-Faisal'
tp492
a(S'824963770'
S'Hammad Ezad'
tp493
a(S'1591639817'
S'Muniba Fahim Adil'
tp494
a(S'673087628'
S'Taimour Abdullah'
tp495
a(S'100000967610500'
S'Ehsan Elahi'
tp496
a(S'100000144162578'
S'Rameesha Nayab'
tp497
a(S'100000105801811'
S'Jawaria Khan'
tp498
a(S'100000172844458'
S'Abdullah Hussain'
tp499
a(S'100000563710675'
S'Rohail Kasi'
tp500
a(S'784723454'
S'Sheheryaar Chaudhry'
tp501
a(S'681860540'
S'TK QasQas'
tp502
a(S'501925283'
S'Mustafa Nemat Ali'
tp503
a(S'741360178'
S'Mughees Jamal'
tp504
a(S'633601059'
S'Durre Jehan'
tp505
a(S'1450374689'
S'Abdul Mannan Chattha'
tp506
a(S'509532202'
S'Saad R. Rathore'
tp507
a(S'1338793694'
S'Rao Jahanzaib Saeed'
tp508
a(S'515410265'
S'Goher Raza'
tp509
a(S'100002829533991'
S'Muhammad Salman Ahmed'
tp510
a(S'686240463'
S'Zain Bakir'
tp511
a(S'561154368'
S'Danish Usmani'
tp512
a(S'100000824393480'
S'Zain Afaq'
tp513
a(S'730397230'
S'Najam Qureshi'
tp514
a(S'1062029842'
S'Sarmad Amer'
tp515
a(S'650050230'
S'Mohammad Ramiz Khan'
tp516
a(S'690640084'
S'Anum Dhalwani'
tp517
a(S'647156806'
S'Mohammad Amanullah Haneef'
tp518
a(S'763100462'
S'Ali Sher Khan'
tp519
a(S'647039001'
S'Adam Aziz'
tp520
a(S'846425264'
S'Arsalan Iqbal'
tp521
a(S'1434277483'
S'Talal Ahmed'
tp522
a(S'100001778414316'
S'Shahzaib Wazir Aly'
tp523
a(S'100000128416917'
S'Arslan Yousaf'
tp524
a(S'1176399437'
S'Talal Ali Jan'
tp525
a(S'602010302'
S'Affan Ahmed'
tp526
a(S'1466141661'
S'Junaid Saeed'
tp527
a(S'1033733331'
S'Bilal Patel'
tp528
a(S'530865584'
S'Hussain Niazi'
tp529
a(S'1061780256'
S'Waleed Agha'
tp530
a(S'612563884'
S'Sarah Fatima'
tp531
a(S'100001771761535'
S'Junaid Khushnood'
tp532
a(S'100000579626213'
S'Anas Qureshi'
tp533
a(S'790330547'
S'Syed Ali Hussain'
tp534
a(S'609957101'
S'Inam Ulhaq'
tp535
a(S'100001443995145'
S'Rabia Nabeel'
tp536
a(S'100000480725538'
S'Rafay Ahmad'
tp537
a(S'782200433'
S'Faizan Qureshi'
tp538
a(S'100002127455452'
S'Muhammad Nowkhaiz'
tp539
a(S'100000535410274'
S'Muhammad Faizan Khan'
tp540
a(S'582246016'
S'Umair Abdul Rauf'
tp541
a(S'1318642550'
S'Muhammad Abubakr'
tp542
a(S'1450956651'
S'Abudi Muji'
tp543
a(S'557087208'
S'Usman Sheikh'
tp544
a(S'581425441'
S'Abdul Munam Shaikh'
tp545
a(S'1151761292'
S'Abdus Samad'
tp546
a(S'506958136'
S'Bilal Syed Ahmad'
tp547
a(S'561249365'
S'Ahsan Hassan'
tp548
a(S'1138638255'
S'Wajih Haider'
tp549
a(S'100001728481242'
S'Ali Bajwa'
tp550
a(S'654792925'
S'Ahmed Amin'
tp551
a(S'1513212782'
S'Jahanzaib Jamshed'
tp552
a(S'660437692'
S'Aamna Nazir'
tp553
a(S'100005180412033'
S'Ali Shehper'
tp554
a(S'502026481'
S'Uzma Hussain Hyat'
tp555
a(S'1566760667'
S'Sibtay Hasan Hyder'
tp556
a(S'100000198903036'
S'Ghazanfar Ali Khan'
tp557
a(S'1844230506'
S'Muhammad Usaid Awan'
tp558
a(S'540365265'
S'Mohammad Mustafa Mirza'
tp559
a(S'100001175269528'
S'Shahzad Ali'
tp560
a(S'509171902'
S'Momena Sohail'
tp561
a(S'513503993'
S'Abdur Rehman Amjad'
tp562
a(S'556415373'
S'Mohammad Moiz Shaikh'
tp563
a(S'590860345'
S'Kanza Azeemi'
tp564
a(S'1649409426'
S'Farhan Azhar'
tp565
a(S'100005028274350'
S'Hina Bandealy'
tp566
a(S'100000857149086'
S'Mehmood Ashraf Sagar'
tp567
a(S'1175832053'
S'Muhammad Arslan Yaseen'
tp568
a(S'502035097'
S'Umair Babar Chishti'
tp569
a(S'1527124611'
S'Talha Chishti'
tp570
a(S'670721839'
S'Ali Haider'
tp571
a(S'616595533'
S'Hina Sheikh'
tp572
a(S'283901045'
S'Faaiz Khan'
tp573
a(S'100000163396000'
S'Huma Batool'
tp574
a(S'843505593'
S'Hasan Rana'
tp575
a(S'777513783'
S'Shady Elewa'
tp576
a(S'1007524204'
S'Waqar Butt'
tp577
a(S'740710522'
S'Zil Ur Rahman'
tp578
a(S'522590456'
S'Ahmad Ebiedat'
tp579
a(S'100000566923150'
S'Ali Masood'
tp580
a(S'510568240'
S'Mehreen Seher Hai'
tp581
a(S'569531565'
S'Sana Illahe'
tp582
a(S'760882852'
S'Salma Chaudhry'
tp583
a(S'541970671'
S'Zara Khurram'
tp584
a(S'100000594230471'
S'Naeem Saif'
tp585
a(S'1426279937'
S'Mohammad Ali Shaikh'
tp586
a(S'100000065718136'
S'Kamran Ali'
tp587
a(S'1807678187'
S'Bilal Khan Rx'
tp588
a(S'641025303'
S'Umar Arain'
tp589
a(S'563645037'
S'Rubeet Talib Chaudhry'
tp590
a(S'774485724'
S'Ali Jan'
tp591
a(S'505434690'
S'Ibraheem Naeem'
tp592
a(S'588885161'
S'Aurangzeb Maqsood'
tp593
a(S'1011640685'
S'Muhammad Waleed'
tp594
a(S'707226921'
S'Talha Asif Patel'
tp595
a(S'662676463'
S'Nouman Shahid'
tp596
a(S'579515960'
S'Nashit Iqbal Naviwala'
tp597
a(S'100000253524335'
S'Wahaj Rahim'
tp598
a(S'697656880'
S'Talha Ahmed'
tp599
a(S'1304422591'
S'Imran Saeed'
tp600
a(S'690090693'
S'ACarlos Dimitriadis'
tp601
a(S'100004035342845'
S'Azfar Junaid'
tp602
a(S'571675057'
S'Marwa Ali Eid'
tp603
a(S'1525057766'
S'Haris Muzaffar'
tp604
a(S'100007212630484'
S'Nuzhat Zakir'
tp605
a(S'100000006556091'
S'Alamdar Hussain'
tp606
a(S'1429301886'
S'Akif Farhan'
tp607
a(S'551905120'
S'Malik Mubeen'
tp608
a(S'530226756'
S'Faroq Hydr'
tp609
a(S'100000262432941'
S'Zulfiqar Ali'
tp610
a(S'1696171505'
S'Mashaal Khalid'
tp611
a(S'1373264834'
S'Shazin Javed'
tp612
a(S'725751719'
S'Asfand Saleem'
tp613
a(S'100000152425971'
S'Fazal Karim'
tp614
a(S'1068769633'
S'Saad Kidwai'
tp615
a(S'1304034993'
S'Fahad Khattak'
tp616
a(S'1010212730'
S'Muhammad Zain Awan'
tp617
a(S'684216556'
S'Muhammad Shoaib Hassan'
tp618
a(S'715600505'
S'Mehrooz Ahmed'
tp619
a(S'100000496912409'
S'Zain Ul Abideen'
tp620
a(S'535930273'
S'Ahmed E. Youssef'
tp621
a(S'652525536'
S'Jawwad Mehmood'
tp622
a(S'1361407066'
S'Haider Klair'
tp623
a(S'100000191403472'
S'Arsh Kataria'
tp624
a(S'100002617569657'
S'Ameer Hyder'
tp625
a(S'687185358'
S'Salman Tahir'
tp626
a(S'664565390'
S'Taimur Akhtar'
tp627
a(S'511299242'
S'Husam Ali'
tp628
a(S'811505181'
S'Ali Saqib Husain'
tp629
a(S'100000282478807'
S'Asad Ali Aslam'
tp630
a(S'1480536731'
S'Sohaib Akhter'
tp631
a(S'100000165914384'
S'Asif Bahadur'
tp632
a(S'582127219'
S'Hasnain Lakhani'
tp633
a(S'591205443'
S'Affan Baig'
tp634
a(S'831210421'
S'Arif Jabbar'
tp635
a(S'100001615059935'
S'Muhammad Talha'
tp636
a(S'595552272'
S'Ahmad Nazir'
tp637
a(S'501496409'
S'Asher Qazi'
tp638
a(S'1316304791'
S'Shahzad Mehboob'
tp639
a(S'1468394967'
S'Annie Nadeem'
tp640
a(S'613817064'
S'Saad Bin Rehan'
tp641
a(S'100001177274972'
S'Ahsan Ahmad'
tp642
a(S'880775649'
S'Sultan Mehmood'
tp643
a(S'565780650'
S'Mohammed Mazin Khan'
tp644
a(S'591676414'
S'Hadi Awad'
tp645
a(S'100000097410151'
S'Mishaz Khawaja'
tp646
a(S'1588403016'
S'GurBux Kirshan Lohana'
tp647
a(S'1768552352'
S'Talha Owais'
tp648
a(S'652081446'
S'Daniyal Khan'
tp649
a(S'1523466867'
S'Umar Farooq Hundal'
tp650
a(S'509552372'
S'Saba Awais'
tp651
a(S'552195590'
S'Waqas Ahmed'
tp652
a(S'654486593'
S'Hasan Murad'
tp653
a(S'525015183'
S'Aneeq Ahmed Cheema'
tp654
a(S'682611168'
S'Tanzeel Azam'
tp655
a(S'100000056447299'
S'Aamna Wasim'
tp656
a(S'688567611'
S'Shaheer Tariq'
tp657
a(S'100001237907076'
S'Hidayatullah Jamote'
tp658
a(S'732942720'
S'Mah Afroze'
tp659
a(S'1186496388'
S'Hasan Arshad'
tp660
a(S'801485483'
S'Raheel Lalani'
tp661
a(S'1662865217'
S'Trevor Hall'
tp662
a(S'516914045'
S'Khalid Al Sadhan'
tp663
a(S'512336831'
S'Zain Sajjad'
tp664
a(S'603525093'
S'Sameer Afzal Farooqi'
tp665
a(S'580656189'
S'Nabeel Shahzad'
tp666
a(S'1219816776'
S'Aatir Sohail'
tp667
a(S'601745356'
S'Maratib Ali Shad'
tp668
a(S'862070650'
S'Osama Khan'
tp669
a(S'512049892'
S'Sameed Lodhi'
tp670
a(S'1030817404'
S'Yasir Qureshi'
tp671
a(S'100000170424654'
S'Awais Akbar Choudhary'
tp672
a(S'572295256'
S'Rizwan Umer'
tp673
a(S'1447190805'
S'Shoaib Gilani'
tp674
a(S'100000021458569'
S'Ruwaifa Rufy'
tp675
a(S'634702334'
S'Saad Shaukat'
tp676
a(S'514352258'
S'Aleena Hameed'
tp677
a(S'100003965868908'
S'Zulfiqar Ahmad Cheema'
tp678
a(S'599950142'
S'Hashim Bin Shahbaz'
tp679
a(S'630155197'
S'Maliha Khan'
tp680
a(S'72612498'
S'Amena Khan'
tp681
a(S'618493478'
S'Sheikh Haider Ali'
tp682
a(S'745900537'
S'Fahad Masud Lone'
tp683
a(S'514356783'
S'Talha Saeed'
tp684
a(S'1200055038'
S'Aziz Khiyami'
tp685
a(S'659976480'
S'Ehsan Choudhry'
tp686
a(S'100000532315283'
S'Adil Shakir'
tp687
a(S'1277578432'
S'Kaleem Ahmad'
tp688
a(S'100000378961153'
S'Saqib Rehman'
tp689
a(S'812310566'
S'Touseef Janjua'
tp690
a(S'1171620345'
S'Naveed Hada'
tp691
a(S'1720672760'
S'Anzak Aleem'
tp692
a(S'723810009'
S'Nadeem Chawhan'
tp693
a(S'1686281084'
S'Romana Sohail'
tp694
a(S'854644398'
S'Ahmed Khaled'
tp695
a(S'548985429'
S'Abdul Majid Farooqi'
tp696
a(S'100000941124757'
S'Yahya Bambal'
tp697
a(S'500247161'
S'Hassan Sheikh'
tp698
a(S'728800386'
S'Omer Sher Khan'
tp699
a(S'100000187171666'
S'Haseeb Tariq'
tp700
a(S'1490047803'
S'Nabeel Sandhu'
tp701
a(S'709286010'
S'Rao Hashim'
tp702
a(S'100000167155723'
S'Farhan Shuja'
tp703
a(S'740847636'
S'Sheikh Muddasar Qamer'
tp704
a(S'666558900'
S'Noor Ud Din Allahwala'
tp705
a(S'751946084'
S'Zubda Mubashar'
tp706
a(S'806055132'
S'Abdul Basit'
tp707
a(S'1387358640'
S'Nabeel Abdur Rehman'
tp708
a(S'563622424'
S'Eissa Haroon'
tp709
a(S'672579628'
S'Amina Tariq'
tp710
a(S'793470455'
S'Nosherwan Shaikh'
tp711
a(S'1146946849'
S'Abdullah Masoud'
tp712
a(S'689935014'
S'Daniyal Khan'
tp713
a(S'100000502115560'
S'Bilal Butt'
tp714
a(S'506389955'
S'Abdulmohsen Bakhsh'
tp715
a(S'652830341'
S'Adnan Asmi'
tp716
a(S'1047311038'
S'Qasim Mirza'
tp717
a(S'734094761'
S'Fazlur Rahman'
tp718
a(S'814220486'
S'Faaiz Rasheed'
tp719
a(S'1148627794'
S'Umair Ashfaq'
tp720
a(S'522665679'
S'Jackson Leon'
tp721
a(S'100007663964139'
S'Hadia Ydf'
tp722
a(S'587365139'
S'Hasan Masood'
tp723
a(S'100001011944276'
S'Nasir Javed'
tp724
a(S'742394873'
S'Asad Ghafoor'
tp725
asS'id'
p726
S'1040147176'
p727
s.