(dp1
S'friends'
p2
(lp3
(S'100000853908969'
S'Ishan Gulati'
tp4
a(S'100001598499632'
S'Prerna Taneja'
tp5
a(S'1760274583'
S'Meher Prasher'
tp6
a(S'564489365'
S'Jayesh Joshi'
tp7
a(S'1618504157'
S'Niharika Godara'
tp8
a(S'100003950626628'
S'Shweta Dadwal'
tp9
a(S'100000330673141'
S'Haley Lane'
tp10
a(S'1319842602'
S'Sahiba Baweja'
tp11
a(S'691691186'
S'Samraat Sharma'
tp12
a(S'1666057552'
S'Ashish Thakran'
tp13
a(S'1429193728'
S'Vaishali Agarwal'
tp14
a(S'1098123594'
S'Mrunal Donde'
tp15
a(S'100001083414791'
S'Shreya Chaturvedi'
tp16
a(S'1422903862'
S'Kavya Kalra'
tp17
a(S'532742043'
S'Anumita Bhattacharyya'
tp18
a(S'1041122316'
S'Pallavi Arora'
tp19
a(S'12315316'
S'Charlie Schwartz'
tp20
a(S'1631597839'
S'Pranab Gambhir'
tp21
a(S'100000315952659'
S'Aviral Pandey'
tp22
a(S'100001562877610'
S'Shayon Chakravarthi'
tp23
a(S'1084002132'
S'Sahil Verma'
tp24
a(S'100005151815060'
S'Priyanshu Jain'
tp25
a(S'100000484998437'
S'Chris Mathai'
tp26
a(S'100000660994462'
S'Arnav Dev'
tp27
a(S'100003073094860'
S'Priyansh Aggarwal'
tp28
a(S'1580043892'
S'Nikhil Malik'
tp29
a(S'100002214827137'
S'Neeru Bharti'
tp30
a(S'100001742522637'
S'Cary Lin'
tp31
a(S'100003618054309'
S'Aaryaman Bahadur'
tp32
a(S'100004891662610'
S'Kiara Kapoor'
tp33
a(S'1133641626'
S'Anooj \\u0905\\u0928\\u0941\\u091c Mehta'
tp34
a(S'1804290790'
S'Yagini Aggarwal'
tp35
a(S'100002344896791'
S'Keerthana Lochana'
tp36
a(S'651698876'
S'Sanjay Gadhalay'
tp37
a(S'1079566434'
S'Soumya Gupta'
tp38
a(S'100000611947719'
S'Navdeep Singh'
tp39
a(S'797793829'
S'Arushi Kapoor'
tp40
a(S'100001971304283'
S'Rabani Kapoor'
tp41
a(S'100006225846853'
S'Taru Tekriwal'
tp42
a(S'1794953789'
S'Kelsey Stephanie'
tp43
a(S'100004145166803'
S'Kartika Badola'
tp44
a(S'100001410941899'
S'Nhi Tran'
tp45
a(S'100000963394457'
S'Tushar Kalra'
tp46
a(S'1018636600'
S'Pranay Billie Sharma'
tp47
a(S'1474830591'
S'Ananya Nanda'
tp48
a(S'100003854763242'
S'Aarzo Rao'
tp49
a(S'1221156455'
S'Varun Anand'
tp50
a(S'100000001819428'
S'Dakshta Jain'
tp51
a(S'100006119083442'
S'Dnyanesh Kulkarni'
tp52
a(S'100000074817754'
S'Chhavi Joshi'
tp53
a(S'1719476289'
S'Kevin Banker'
tp54
a(S'100000517861052'
S'Swati Chauhan'
tp55
a(S'100003766103509'
S'Saumya Chhabra'
tp56
a(S'100000202014847'
S'Kislay Kumar'
tp57
a(S'100007123685395'
S'Ava Snider'
tp58
a(S'1207780999'
S'Lohit Parmar'
tp59
a(S'1838585619'
S'Japgun Banga'
tp60
a(S'100000010583744'
S'Somayajula Praneeta'
tp61
a(S'1629554966'
S'Mohit Maruwada'
tp62
a(S'1448798355'
S'Eshaan Sud'
tp63
a(S'100001595792763'
S'Zach Kenney'
tp64
a(S'100000016278245'
S'Neeti Kothari'
tp65
a(S'1408354429'
S'Aditi Agarwal'
tp66
a(S'100000581607295'
S'Mahi Rana'
tp67
a(S'100002365971331'
S'Sehej Dassan'
tp68
a(S'100000152396490'
S'Pranshu Singh Yadav'
tp69
a(S'100002374926640'
S'Dushyant Kumar Dushu'
tp70
a(S'1575387342'
S'Ayush Magow'
tp71
a(S'100001983027506'
S'Shivam Yadav'
tp72
a(S'1145592636'
S'Pranav Masa'
tp73
a(S'1342282710'
S'Akhilesh Sudhakar'
tp74
a(S'100000461320708'
S'Chance Feliciano'
tp75
a(S'1381516681'
S'Mitch Webb'
tp76
a(S'100004687120306'
S'Pragya Gupta'
tp77
a(S'1778711583'
S'Bani Singh'
tp78
a(S'528022614'
S'Siddharth Marya'
tp79
a(S'100000549770470'
S'Vinayak Prasad'
tp80
a(S'100000614531743'
S'Mrudula Josyula'
tp81
a(S'1226396601'
S'Pranav Jain'
tp82
a(S'100002006861228'
S'Abhishek Negi'
tp83
a(S'100000114665368'
S'Allie Ryan'
tp84
a(S'1466996173'
S'Tushar Ummat'
tp85
a(S'1050281960'
S'Tanveer Oberoi'
tp86
a(S'1573844545'
S'Huibin Weng'
tp87
a(S'1380423683'
S'Susan Gillespie'
tp88
a(S'100007524402106'
S'Derek Thompson'
tp89
a(S'100002493985335'
S'Shivam Kapoor'
tp90
a(S'696663420'
S'Pranshu Saxena'
tp91
a(S'100003736491737'
S'Sujeet Kumar Meena'
tp92
a(S'1678266844'
S'Dron Mahendran'
tp93
a(S'722502951'
S'Waran DV'
tp94
a(S'1105069442'
S'Sayan Sidha Das'
tp95
a(S'100003704270576'
S'Megha Roy'
tp96
a(S'100001288210371'
S'Shruti Malik'
tp97
a(S'100005119000209'
S'Saumya Dubey'
tp98
a(S'779432234'
S'Sagnik Ghosh'
tp99
a(S'1653915577'
S'Varun Nagarajan'
tp100
a(S'100000777612465'
S'Jasmine Kaur'
tp101
a(S'100001134085805'
S'Nishant Yadav'
tp102
a(S'100003370384724'
S'Ryusuke Sunaga'
tp103
a(S'1700091899'
S'Harit Pathak'
tp104
a(S'1284272825'
S'Saloni Gupta'
tp105
a(S'100001247710575'
S'Shashank Pandita'
tp106
a(S'583542517'
S'Sid Thatham'
tp107
a(S'100001762909949'
S'Sahjot Singh'
tp108
a(S'1157430327'
S'Renu Bhardwaj'
tp109
a(S'100000045897814'
S'Neha Dinesh'
tp110
a(S'1360318172'
S'Karan Singh'
tp111
a(S'1348333804'
S'Satvik Kumar'
tp112
a(S'100006289022759'
S'Aditya Gaur'
tp113
a(S'100000141653106'
S'Punika Mangla'
tp114
a(S'100000883276715'
S'Avni Gupta'
tp115
a(S'1298191161'
S'Anh Le'
tp116
a(S'1610553248'
S'Aakash Agarwal'
tp117
a(S'702276142'
S'Ritika Gajwani'
tp118
a(S'1339893858'
S'Aakarsha Sivaramakrishnan'
tp119
a(S'1435388932'
S'Arush Ujawal'
tp120
a(S'100006773229228'
S'Randeel Senevirathne'
tp121
a(S'100000894369346'
S'Ravali Venu'
tp122
a(S'100001695903374'
S'Dishant Arora'
tp123
a(S'100006481401905'
S'Ying  Huang'
tp124
a(S'100003794345927'
S'Kavya Makkar'
tp125
a(S'628649102'
S'Arman Chadha'
tp126
a(S'100001324920093'
S'Akshayaa Venkatakrishnan'
tp127
a(S'1569575747'
S'Rishabh R Kumar'
tp128
a(S'100001091277442'
S'Ishani Banerjee'
tp129
a(S'1510555847'
S'Rohan Kumar Yadav'
tp130
a(S'1680923793'
S'Khwab Chawla'
tp131
a(S'1323450236'
S'\\u0905\\u092d\\u093f\\u0937\\u0947\\u0915 \\u092e\\u0932\\u093f\\u0915'
tp132
a(S'100004469523642'
S'Nitiksha Sharma'
tp133
a(S'1433508511'
S'Carlota Crzt'
tp134
a(S'1276726388'
S'Suukrit Vir Gaddi'
tp135
a(S'100000553688003'
S'Pranav Sharma'
tp136
a(S'1180123922'
S'Devin Hemachandra'
tp137
a(S'1219133639'
S'Nimish Abrol'
tp138
a(S'100001432850732'
S'Rashi Jain'
tp139
a(S'1216765450'
S'Nicket Uttarwar'
tp140
a(S'100001995132080'
S'Gauri Venugopal'
tp141
a(S'1050017549'
S'Adesh Pugalia'
tp142
a(S'100005929148251'
S'Rachel Fernandes'
tp143
a(S'100006470419732'
S'Jiyuan Liu'
tp144
a(S'100000483763319'
S'Varsha Bansal'
tp145
a(S'1435325349'
S'Karthik Ganesh'
tp146
a(S'1147869983'
S'Anahita Mistry'
tp147
a(S'100000258786925'
S'Rajat Razdan'
tp148
a(S'1344200409'
S'Tanvi Varshney'
tp149
a(S'100007176635211'
S'Dinuka Perera'
tp150
a(S'100001573436229'
S'Esha Singh'
tp151
a(S'100004107843177'
S'Harsh Vardhan'
tp152
a(S'100003155293135'
S'Pashy Kaur'
tp153
a(S'100002910363056'
S'Madoka Morita'
tp154
a(S'100000479974472'
S'Harshit Jacob Marley'
tp155
a(S'1025143763'
S'Abhinav Yadav'
tp156
a(S'1480172177'
S'Akshita Dhaka'
tp157
a(S'1354073232'
S'Sohil Sharma'
tp158
a(S'100003646412506'
S'Mohit Thakran'
tp159
a(S'100002056969983'
S'Shaurya Saxena'
tp160
a(S'100000574656934'
S'Tamana Suda'
tp161
a(S'100003883755568'
S'Vishakha Kookie'
tp162
a(S'100005383447296'
S'Han Deng'
tp163
a(S'1817741032'
S'Manya Kalia'
tp164
a(S'100003966985063'
S'\\u30ed\\u30f3\\u30b0\\u30de\\u30a4\\u30e4\\u30fc \\u30b3\\u30ea\\u30fc'
tp165
a(S'1040208577'
S'John Cavanaugh'
tp166
a(S'1485117921'
S'Daksh Sharma'
tp167
a(S'100002645096021'
S'Sara Singh'
tp168
a(S'1819680547'
S'Adam Fluffy Zust'
tp169
a(S'100000673055060'
S'Mridul Arora'
tp170
a(S'100007752517114'
S'Mengran Zhang'
tp171
a(S'100001160825299'
S'Indu Vaijayanthi'
tp172
a(S'1010704195'
S'Jinhee Na'
tp173
a(S'100003995715462'
S'Jyoti Lohia'
tp174
a(S'100001593331530'
S'Shreya Subramanian'
tp175
a(S'100000178989977'
S'Chad McClain'
tp176
a(S'675708520'
S'Armaan Kazmi'
tp177
a(S'100002813017064'
S'Nikita Sharma'
tp178
a(S'1287837848'
S'Anushka Jain'
tp179
a(S'643358213'
S'Pranav Vishnu'
tp180
a(S'1674772992'
S'Aditya Ani Menon'
tp181
a(S'1773773613'
S'Udaydeep Jindal'
tp182
a(S'1387284143'
S'Katherine Orth'
tp183
a(S'100003666490896'
S'Surabhi Mitra'
tp184
a(S'1119014350'
S'Vishesh Khanna'
tp185
a(S'100000135939134'
S'Pique Bala Subramaniam'
tp186
a(S'587737818'
S'Aakash Gogia'
tp187
a(S'1263877842'
S'DEvina Manek'
tp188
a(S'100000550191493'
S'Shifa Iqbal'
tp189
a(S'1094715907'
S'Yasharth Menon'
tp190
a(S'100000467634666'
S'Faisal Iqbal'
tp191
a(S'100000052041936'
S'Rakhi Chopra'
tp192
a(S'725149713'
S'Eunsol Byun'
tp193
a(S'100001624584572'
S'Abhishek Sharma'
tp194
a(S'100001252156133'
S'Hardik Arinana'
tp195
a(S'100002525644868'
S'Ruchi Sharma'
tp196
a(S'100000674641185'
S'Aditya Mudgal'
tp197
a(S'100000825704818'
S'Prathmesh Vaidya'
tp198
a(S'1209661496'
S'Shubham Senger'
tp199
a(S'100000921551589'
S'Dimple Dhawan'
tp200
a(S'1460361873'
S'Piyush Mago'
tp201
a(S'100000161814298'
S'Emily Heine'
tp202
a(S'1563997220'
S'Anahita Jhunja'
tp203
a(S'100004030800469'
S'Kajal Singh'
tp204
a(S'1630681323'
S'Bhuwan Chauhan'
tp205
a(S'100000156387025'
S'Harshit Vetukuri'
tp206
a(S'1355663869'
S'Aditya Sethia'
tp207
a(S'100000044575279'
S'Amol Agarwal'
tp208
a(S'1264051105'
S'Shivya Sachdeva'
tp209
a(S'1604485383'
S'Prakriti Malhotra'
tp210
a(S'1629579276'
S'Uday Manucha'
tp211
a(S'100001412086491'
S'Rhema Rohilla'
tp212
a(S'1470755306'
S'Nabaneet Ganguli'
tp213
a(S'100004199888394'
S'Krushnali Ravi'
tp214
a(S'100000636337728'
S'Keshar Smith'
tp215
a(S'100004627061710'
S'Raavee Nangia'
tp216
a(S'523339881'
S'Prachi Chaudhary'
tp217
a(S'518051754'
S'Aziza Banerjee'
tp218
a(S'1423134120'
S'Bhavana Ravinder'
tp219
a(S'1767367494'
S'Sonali Yadav'
tp220
a(S'100001237170088'
S'Devika RoyChowdhury'
tp221
a(S'100002376903986'
S'Pranay Sachindra'
tp222
a(S'100000402390588'
S'Stacie HyunSun Park'
tp223
a(S'100000567424610'
S'Aastha Jain'
tp224
a(S'1553407125'
S'Luqman Illiyas'
tp225
a(S'1265140146'
S'Tanya Kundu'
tp226
a(S'1810033102'
S'Ajay Kundu'
tp227
a(S'100000775697983'
S'Yatin Chawla'
tp228
a(S'100000436448231'
S'Jitender Yadav'
tp229
a(S'100002218250020'
S'Avisha Sati'
tp230
a(S'1347682631'
S'Varun Malkani'
tp231
a(S'100001724322292'
S'Pranav Goel'
tp232
a(S'740900551'
S'Suryansh Dhingra'
tp233
a(S'100003447807504'
S'Yutaka  Oyamada'
tp234
a(S'100005462201976'
S'Kadambari Kira Issar'
tp235
a(S'1234241982'
S'Aratrika Banerjee'
tp236
a(S'567010536'
S'Saumya Chawla'
tp237
a(S'100000682972368'
S'Vishwas Uckoo'
tp238
a(S'100000325438420'
S'Aarushi Dhingra'
tp239
a(S'100001653125431'
S'Lakshay Ssj'
tp240
a(S'1535479330'
S'Yugaastha Saxena'
tp241
a(S'1843159986'
S'Ishita Soni'
tp242
a(S'100006548046871'
S'Feng Zhu'
tp243
a(S'100003843113566'
S'Riya Alagh'
tp244
a(S'100003312683919'
S'Aarti Singh'
tp245
a(S'1724303128'
S'Aditai Puri'
tp246
a(S'1750763058'
S'Sahil Yadav'
tp247
a(S'100000069663640'
S'Hargun Kohli'
tp248
a(S'100001045513783'
S'Vanshika Singh'
tp249
a(S'100001193812634'
S'Nhattan Do'
tp250
a(S'1523445862'
S'Pranav Ratra'
tp251
a(S'100000281381639'
S'Megda Bharadwaj'
tp252
a(S'100002194828443'
S'Shruti Sinha'
tp253
a(S'100003135385172'
S'Akash Rana'
tp254
a(S'1174016603'
S'Caitlyn Cambisaca'
tp255
a(S'100002257569876'
S'Shriya Bhatt'
tp256
a(S'100000633571679'
S'Neha Turakhia'
tp257
a(S'611782946'
S'Rhea Kumar'
tp258
a(S'1308765318'
S'Vaishnavi Yadav'
tp259
a(S'1059474613'
S'Yashima Puri'
tp260
a(S'1036820193'
S'Patricia Chu'
tp261
a(S'100000413662702'
S'Raman Gahlawat'
tp262
a(S'100001535505774'
S'Nitin Pathak'
tp263
a(S'1168004229'
S'Manya Choudhary'
tp264
a(S'1533827821'
S'Raghav Dua'
tp265
a(S'1428219491'
S'Phani Kiran Challa'
tp266
a(S'1454795178'
S'Prajwal Negapattam'
tp267
a(S'1259733219'
S'Asim Athar'
tp268
a(S'100000513014866'
S'Maria Diersing'
tp269
a(S'100001299730776'
S'Sai De Grate Pradhyumna'
tp270
a(S'100000742205553'
S'Shachi Singh'
tp271
a(S'100004947464005'
S'Bhartii Oberoii'
tp272
a(S'1805603870'
S'Tanmay Sharma'
tp273
a(S'1610304891'
S'Pooja Luthra'
tp274
a(S'100000356125482'
S'Ishaani Varma'
tp275
a(S'100004179463642'
S'Rhea Tyagi'
tp276
a(S'100001423694470'
S'Tiffany Choi'
tp277
a(S'1473612749'
S'Eun Jung'
tp278
a(S'100000891750191'
S'Shivam Dhawan'
tp279
a(S'100000009664376'
S'Shantanu Lakhotia'
tp280
a(S'100001383638188'
S'Shubham Gupta'
tp281
a(S'100000172844988'
S'Yatharth Verma'
tp282
a(S'100002123707714'
S'Prince Saroha'
tp283
a(S'1505245974'
S'Oishee Bhattacharyya'
tp284
a(S'100001798516486'
S'Jing Ying Lin'
tp285
a(S'100000508421442'
S'Aditi Kamra'
tp286
a(S'1716193961'
S'Harmeet Dhiman'
tp287
a(S'100005729736191'
S'Kanika Mangal'
tp288
a(S'100002763290146'
S'Yadav Rinki'
tp289
a(S'1825105086'
S'Somya Khurana'
tp290
a(S'100005351078609'
S'\\u738b\\u5029'
tp291
a(S'100003806002569'
S'Shinji Uchida'
tp292
a(S'1352345692'
S'Gazal Juneja'
tp293
a(S'100000273562739'
S'Palak Daga'
tp294
a(S'1649511408'
S'Dipit George'
tp295
a(S'1621062423'
S'\\u6a0a\\u5b9d\\u4e50'
tp296
a(S'100001471840995'
S'Ananya Chakraborty'
tp297
a(S'1467901885'
S'Yuvraj Singh Tyagi'
tp298
a(S'1406029000'
S'Hemant Gulia'
tp299
a(S'1274105084'
S'Anurag Gogineni'
tp300
a(S'1003039004'
S'Akhand Pratap'
tp301
a(S'1593215535'
S'Tushar Rana'
tp302
a(S'1420321077'
S'Aditya Agarwal'
tp303
a(S'100003254380720'
S'Prekshi Gulia'
tp304
a(S'100002531452170'
S'Divya Tara'
tp305
a(S'709109855'
S'Rishav Bhattacharyya'
tp306
a(S'100000283158595'
S'Suryaa Bhatia'
tp307
a(S'100003347250710'
S'Aanisa Rauf'
tp308
a(S'1708612276'
S'Pranav Goel'
tp309
a(S'100000027585222'
S'Malaika Nangia'
tp310
a(S'100003007993640'
S'Aliya Garg'
tp311
a(S'100001000929296'
S'Aditai Puri'
tp312
a(S'1365763581'
S'Hamsa Raina'
tp313
a(S'100001957077069'
S'Rittik Sharma'
tp314
a(S'100000886290069'
S'Vivek Janghu'
tp315
a(S'1504914433'
S'Nikita Ahuja'
tp316
a(S'100000542109185'
S'Akshaay Krishnan'
tp317
a(S'100007720114302'
S'Shefali Lohia'
tp318
a(S'100006463728282'
S'Ziyuan Li'
tp319
a(S'1300834118'
S'Kathy Constantin'
tp320
a(S'1410517233'
S'Vinit Kumbharkar'
tp321
a(S'627684184'
S'Nik Partin'
tp322
a(S'1842830273'
S'Hiep Duong'
tp323
a(S'100000023197777'
S'Shantam Sharma'
tp324
a(S'1819821354'
S'Kshitiz Mor'
tp325
a(S'1631643047'
S'Bhawya Baana'
tp326
a(S'1364737294'
S'Lauren Burt'
tp327
a(S'1734579726'
S'Deepanshu Juneja'
tp328
a(S'1196217728'
S'Morgan Eberle'
tp329
a(S'100000320564138'
S'Divyaanshu Jain'
tp330
a(S'1686255319'
S'Rinav Sachdev'
tp331
a(S'100005412427780'
S'Pratika Gupta'
tp332
a(S'100001043272779'
S'Samiran Mukherjee'
tp333
a(S'100000214640807'
S'Nishant Benjari'
tp334
a(S'100000430532709'
S'Anisha Hans'
tp335
a(S'100005850930088'
S'Tuhina Dogra'
tp336
a(S'1418512607'
S'Rohit Tiwari'
tp337
a(S'533163953'
S'Aditya Jha'
tp338
a(S'100000206071710'
S'Sattam Thakur'
tp339
a(S'1536731203'
S'Divanshi Gupta'
tp340
a(S'905250112'
S'Chiti Chopra'
tp341
a(S'703921629'
S'Shubham Mathur'
tp342
a(S'100003764723075'
S'Esha Sarkar'
tp343
a(S'100001085303337'
S'Arham Tauhid'
tp344
a(S'100001242687508'
S'Bhavna Yadav'
tp345
a(S'100002490606777'
S'Ronaldo Gillespie'
tp346
a(S'1285614109'
S'Tanya Nair'
tp347
a(S'100001247987733'
S'Aditya Mahalwal'
tp348
a(S'1375412778'
S'Chatura Samarasinghe'
tp349
a(S'737379455'
S'Cleo Chen'
tp350
a(S'100000536237086'
S'Arun Poswal'
tp351
a(S'100006610474818'
S'Huikun Xiong'
tp352
a(S'100000747866720'
S'Janhavi Puranik'
tp353
a(S'100001903587478'
S'Stuti Sharma'
tp354
a(S'1492163014'
S'KiRti ShaRma'
tp355
a(S'100002060870426'
S'Anshul Yadav'
tp356
a(S'1508704294'
S'Divya Shukla'
tp357
a(S'1123544742'
S'Anna Kler'
tp358
a(S'100002150031293'
S'Palak Bhatia'
tp359
a(S'100000093563338'
S'Priyamvada Saraf'
tp360
a(S'100001257517098'
S'Angad Walia'
tp361
a(S'1846622884'
S'Prateek Gupta'
tp362
a(S'1414004437'
S'Omung Lalchandani'
tp363
a(S'100000353164509'
S'Daren Kummer'
tp364
a(S'100000928546394'
S'Raghu Reddy'
tp365
a(S'100001623512330'
S'Edison Joseph'
tp366
a(S'100002297751118'
S'Karishma Singh'
tp367
a(S'100001131003562'
S'Parth Bagati'
tp368
a(S'1382456700'
S'Ria Sharma'
tp369
a(S'100000350718530'
S'Aditi Gupta'
tp370
a(S'100001207382072'
S'Akshay Chawla'
tp371
a(S'1629725452'
S'James LeBron'
tp372
a(S'1049987675'
S'Anirudh Kumar'
tp373
a(S'1402860888'
S'Prateek Gvr'
tp374
a(S'1538906680'
S'Srishti Saxena'
tp375
a(S'1365931656'
S'Kshitij Kasturia'
tp376
a(S'1428100130'
S'Sayesha Gupta'
tp377
a(S'1431082255'
S'Jessica Walia'
tp378
a(S'100002859206546'
S'Lavikaa Sharma'
tp379
a(S'100000824776423'
S'Tarushii Maggu'
tp380
a(S'100002048053572'
S'Adithya Sankaran'
tp381
a(S'1094823612'
S'Tejas Deshpande'
tp382
a(S'100003653499646'
S'Tanya Talwar'
tp383
a(S'509822471'
S'Anahita Dawar'
tp384
a(S'100000560185880'
S'Srishti Soni'
tp385
a(S'745060564'
S'Meaghan Renee'
tp386
a(S'100000903831255'
S'Pooja Patel'
tp387
a(S'1086220142'
S'Aakash Vats'
tp388
a(S'100001164352508'
S'Shantanu Chaudhary'
tp389
a(S'658762640'
S'Dhruv Shivdas'
tp390
a(S'100006968620183'
S'Palak Daga'
tp391
a(S'100000803851312'
S'Jaspreet Bajwa'
tp392
a(S'1024982996'
S'Molly Cohen'
tp393
a(S'100003322228554'
S'Jishu Basak'
tp394
a(S'100001062224912'
S'Aakash Choudhary'
tp395
a(S'620919582'
S'Ruchit Mohan'
tp396
a(S'768833547'
S'Maheka De Silva'
tp397
a(S'100000316443612'
S'Tushar Behl'
tp398
a(S'511624386'
S'Vyom Sati'
tp399
a(S'1505384693'
S'Arunima Bhattacharya'
tp400
a(S'814265556'
S'Surbhi Kapur Talwar'
tp401
a(S'1148696503'
S'Abhinav Dhiman'
tp402
a(S'100000975996484'
S'Arnav Ailawadi'
tp403
a(S'100000709153496'
S'Erika Agrawal'
tp404
a(S'1786065623'
S'Ashish Mishra'
tp405
a(S'1042945244'
S'Akshay Verma'
tp406
a(S'1797897715'
S'Yuvraj Francis'
tp407
a(S'100000241520541'
S'LaQueena Mitchell'
tp408
a(S'728123482'
S'Tejas Dharankar'
tp409
a(S'1700193348'
S'Angad Khanna'
tp410
a(S'100000498142271'
S'Shubham Gupta'
tp411
a(S'1382181552'
S'Ha Dinh'
tp412
a(S'100006452728220'
S'Zongwen Peng'
tp413
a(S'100002822599541'
S'Akshara Bhattacharya'
tp414
a(S'100001022465422'
S'Divyakshi Satija'
tp415
a(S'1238368418'
S'Mehnaz Khan'
tp416
a(S'1621759556'
S'Ishan Piplani'
tp417
a(S'1062845375'
S'Angad Singh'
tp418
a(S'100003590184584'
S'Valentine Briere'
tp419
a(S'1704105497'
S'Vishakha Gupta'
tp420
a(S'1471346718'
S'Lakshay Verma'
tp421
a(S'1189089775'
S'Sneha Ramesh'
tp422
a(S'100001059493651'
S'Shuvoneel Chakraborty'
tp423
a(S'1089667003'
S'Jojo Azevedo'
tp424
a(S'100000071908783'
S'Vedant Bansal'
tp425
a(S'1360350798'
S'Sanjana Jain'
tp426
a(S'612785549'
S'Kirthana Singh'
tp427
a(S'1342921275'
S'Shreyas Varshney'
tp428
a(S'1161434719'
S'Sarthak Kataria'
tp429
a(S'100006553534704'
S'Melissa Guo'
tp430
a(S'540203555'
S'Daycia D Harley'
tp431
a(S'100003969024725'
S'Raymone Hu'
tp432
a(S'100001236991080'
S'Preeti Yadav'
tp433
a(S'100000024403508'
S'Yaduraj Singh Chauhan'
tp434
a(S'100006568176610'
S'Junwei Liu'
tp435
a(S'100003070691106'
S'Gaurav Gujjar'
tp436
a(S'100001503260763'
S'Dhruv Rawat'
tp437
a(S'100002409745031'
S'Anushka Gupta'
tp438
a(S'1738766429'
S'Vineet Dixit'
tp439
a(S'1389348019'
S'Pallavi Kumar'
tp440
a(S'1147717913'
S'Neha Kumari'
tp441
a(S'100006256238169'
S'Sarthak Haandizz Bansal'
tp442
a(S'100001091510587'
S'Harshita Reddy'
tp443
a(S'100000814342585'
S'Arshi Singh'
tp444
a(S'555694883'
S'Rishaal Rajan'
tp445
a(S'1215106139'
S'JAs Kanwar Singh'
tp446
a(S'1482811071'
S'Manav Malhotra'
tp447
a(S'100002535725082'
S'Deepak Gulati'
tp448
a(S'100000477604349'
S'Divij Papneja'
tp449
a(S'100001098537592'
S'Vibhor Vats'
tp450
a(S'1516782733'
S'Anjali Khavnekar'
tp451
a(S'1350413799'
S'Shriyansh Saini'
tp452
a(S'1555961681'
S'Anirudh Kulkarni'
tp453
a(S'100000910701180'
S'Rishab Nema'
tp454
a(S'100002723240155'
S'Neha Bhandari'
tp455
a(S'100000519521681'
S'Sanskriti Raghav'
tp456
a(S'100003575806059'
S'Olivia Yun Hong'
tp457
a(S'1177327973'
S'Ayushi Dixit'
tp458
a(S'100000387305465'
S'ManDy Lohia'
tp459
a(S'1699918360'
S'Roozan Aggarwal'
tp460
a(S'100003987188066'
S'Anjali Singh'
tp461
a(S'1215910665'
S'Samridhi Aggarwal'
tp462
a(S'610626907'
S'Soven Trehan'
tp463
a(S'617757154'
S'Micheal Kattoura'
tp464
a(S'1496441718'
S'Karan Sud'
tp465
a(S'100000138142718'
S'Sunny Jaiswal'
tp466
a(S'100000575975134'
S'Aryan Saini'
tp467
a(S'100001554353303'
S'Jatin Rao'
tp468
a(S'100000724928863'
S'Rakshita Bhayana'
tp469
a(S'1830875695'
S'Ketan Goel'
tp470
a(S'100000190511701'
S'Hoa Dinh'
tp471
a(S'100001887973328'
S'Bella Hyunjung Park'
tp472
a(S'100001640702166'
S'Sandeep Choudhary'
tp473
a(S'100001646872700'
S'Siddharth Gupta'
tp474
a(S'100005183974420'
S'Shruti Sinha'
tp475
a(S'100001039000790'
S'Charvi Kataria'
tp476
a(S'1573178281'
S'Divya J Choksi'
tp477
a(S'1150747394'
S'Nupur More'
tp478
a(S'100002324310145'
S'Sriya Chandavarapu'
tp479
a(S'1575186048'
S'Pragya Gupta'
tp480
a(S'100001479362249'
S'Aditya Pratap'
tp481
a(S'100002324794754'
S'Ishant Mutreja'
tp482
a(S'100006047851154'
S'Shikhar Murty'
tp483
a(S'100001260566958'
S'Sang A Cho'
tp484
a(S'100001217281405'
S'Shreya Kumar'
tp485
a(S'1444554290'
S'Phyucin Lazulum'
tp486
a(S'607453856'
S'Mansi Jain'
tp487
a(S'100000294635593'
S'Lakshay Sharma'
tp488
a(S'1004981606'
S'Takeshi Buchi'
tp489
a(S'100002667763856'
S'Xi Ru'
tp490
a(S'1645957329'
S'Aakash Thakran'
tp491
a(S'1072714718'
S'Saba Amiri'
tp492
a(S'1488542477'
S'Parul Jennifer'
tp493
a(S'100002557318737'
S'Mayank Dahiya'
tp494
a(S'100002305207054'
S'Shimali Mishra'
tp495
a(S'100003798103412'
S'Priyanshi Jain'
tp496
a(S'100000725364394'
S'Prashant Yadav'
tp497
a(S'1659287081'
S'Devki Nehra'
tp498
a(S'100002700668375'
S'Aashian Ahluwalia'
tp499
a(S'100000141786760'
S'Chamy Wijethunga'
tp500
a(S'1703218374'
S'Shreya Sinha'
tp501
a(S'1497431478'
S'Zeynep Damgac\\u0131o\\u011flu'
tp502
a(S'1574313392'
S'Jade Ellen Beardsley'
tp503
a(S'100000185866601'
S'Subrat Mondal'
tp504
a(S'100000020053591'
S'Prachi Sachdev'
tp505
a(S'100000637173998'
S'Dhruv Chauhan'
tp506
a(S'802735761'
S'Yashansh Chowdhary'
tp507
a(S'100001271848012'
S'Taaneya Kumar'
tp508
a(S'1279906404'
S'Fahd Haroon'
tp509
a(S'1099707689'
S'Achal Mallaya'
tp510
a(S'100002505363977'
S'Sagar Agarwal'
tp511
a(S'100000111274604'
S'Kartik Gulati'
tp512
a(S'100004660238628'
S'Abhishek Srivastava'
tp513
a(S'1822418225'
S'Sarthak Garg'
tp514
a(S'710235274'
S'Abhilasha Bali'
tp515
a(S'100005527022968'
S'Anjali Rao'
tp516
a(S'1224661475'
S'Mikasha Sinha'
tp517
a(S'100000159438916'
S'Hai Dong'
tp518
a(S'1380806174'
S'Mayank Agarwal'
tp519
a(S'1790983118'
S'Siddharth Ojha'
tp520
a(S'100003648754766'
S'Karthik Ganesh'
tp521
a(S'1228051576'
S'Tushita Dogra'
tp522
a(S'100006144301243'
S'Laura Schroeder'
tp523
a(S'100000527702182'
S'Ayush Kundra'
tp524
a(S'100001755056894'
S'Vishu Pargain'
tp525
a(S'1351894375'
S'Surag Nair'
tp526
a(S'100000537613194'
S'Medhavi Sharma'
tp527
a(S'100001336038365'
S'Ajay Hooda'
tp528
a(S'100001891290054'
S'Ramya Krishna'
tp529
a(S'100003735494810'
S'Ethan Gao'
tp530
a(S'100007084844195'
S'Daksh Shokeen'
tp531
a(S'1063582875'
S'Ayushi Singh'
tp532
a(S'1051006929'
S'Mudita Yadav'
tp533
a(S'100000141096198'
S'Sanjoli Sirohi'
tp534
a(S'100001789432294'
S'Ashish Solanki'
tp535
a(S'580350063'
S'Aashian Bieber Stark'
tp536
a(S'753233069'
S'Abhyudaya Upadhyay'
tp537
a(S'100000930504860'
S'Angelica Mcguire'
tp538
a(S'1409840453'
S'Varun Sadaphal'
tp539
a(S'100002162682982'
S'Saqib Butt'
tp540
a(S'100001550090944'
S'Kendra Poston'
tp541
a(S'100000854351220'
S'Makda Aseffa'
tp542
a(S'100001773618457'
S'Shubham Chauhan'
tp543
a(S'1645640382'
S'Arjoonn Sharma'
tp544
a(S'100001080503910'
S'Hung Cao'
tp545
a(S'829064725'
S'Aayush Dhingra'
tp546
a(S'1014420643'
S'Vidushi Garg'
tp547
a(S'1808469064'
S'Prabhat Garg'
tp548
a(S'1108360711'
S'Nitin Bhuraria'
tp549
a(S'685051257'
S'Anirudh Suhag'
tp550
a(S'1584114224'
S'Anant Singhal'
tp551
a(S'100002473560876'
S'Gurpreet Singh'
tp552
a(S'100000578381413'
S'Vanshdeep Khanna'
tp553
a(S'100000905454022'
S'Ujjwal Garg'
tp554
a(S'100000015772088'
S'Sana Khan'
tp555
a(S'1347757706'
S'Chaitanya Dhingra'
tp556
a(S'100001475895629'
S'Saagar Nayyar'
tp557
a(S'523514048'
S'Samridh Kapoor'
tp558
a(S'100002259738576'
S'Pallavi Kumar'
tp559
a(S'100001713154682'
S'Samridh Kapoor'
tp560
a(S'1595181624'
S'Sydney Grace'
tp561
a(S'1279351031'
S'Dhruv Panwar'
tp562
a(S'100002151251876'
S'Sushmita Walve'
tp563
a(S'100000070027632'
S'Thinh Nguyen'
tp564
a(S'100000568320495'
S'Mayank Bandha'
tp565
a(S'100002342304757'
S'Paras Sharma'
tp566
a(S'1254197513'
S'Ashish Gupta'
tp567
a(S'1579209472'
S'Nikita Gite'
tp568
a(S'1117111586'
S'Varsha Menon'
tp569
a(S'800833490'
S'ManIsha Musale Gadhalay'
tp570
a(S'1117944738'
S'Sidharth Arora'
tp571
a(S'100001911134606'
S'Partheepan Shiyamsunthar'
tp572
a(S'100000181865114'
S'Rishabh Thakur'
tp573
a(S'1044401408'
S'Mihir Nagpal'
tp574
a(S'100006720963050'
S'Ha N. Dinh'
tp575
a(S'563504491'
S'Harsh Malhotra'
tp576
a(S'100002408908235'
S'Meghla Bhanwala'
tp577
a(S'100006513911621'
S'\\u9648\\u6167\\u7433'
tp578
a(S'1162681990'
S'Bhavya Bhatia'
tp579
a(S'533148969'
S'Rohit Yadav'
tp580
a(S'100000344072675'
S'Divya Mor'
tp581
a(S'1280719139'
S'Vyom Bhatia'
tp582
a(S'100003334582463'
S'Iuliia Fedoreeva'
tp583
a(S'100000004244825'
S'Anshuman Saraogi'
tp584
a(S'581616430'
S'Ainesh Ahluwalia'
tp585
a(S'1041773670'
S'Sohrab Gill'
tp586
a(S'1240939751'
S'Akhil Tolani'
tp587
a(S'100000055926366'
S'Sascha Dovenbarger'
tp588
a(S'1743166042'
S'Aishwarya Borgohain'
tp589
a(S'100001269691061'
S'Prachi Bapna'
tp590
a(S'100006559959402'
S'Wendy Cai'
tp591
a(S'1683465051'
S'Vidit Soni'
tp592
a(S'1549608467'
S'Raghav Taneja'
tp593
a(S'100000065124182'
S'Sagar Prajapat'
tp594
a(S'100000894500503'
S'Shweta Nema'
tp595
a(S'100001189710268'
S'Rubal Ahuja'
tp596
a(S'100000111980183'
S'Ankit Kalra'
tp597
a(S'100001171771193'
S'Ankita Kalra'
tp598
a(S'1552056063'
S'Raj Kapadia'
tp599
a(S'100000502428455'
S'Dushyant Mahajan'
tp600
a(S'1429881500'
S'Radhika Bhargava'
tp601
a(S'100001559634080'
S'Aakash Mehra'
tp602
a(S'100000029379176'
S'Rupali Bahl'
tp603
a(S'100002296370988'
S'Akanksha Jeph'
tp604
a(S'1847733956'
S'Harsheen Khandpur'
tp605
a(S'1111729524'
S'Tanisha Suri'
tp606
a(S'100001556509359'
S'Hoa Dinh'
tp607
a(S'1776949789'
S'Duyen Nguyen'
tp608
a(S'1491125726'
S'Gagan Sehgal'
tp609
a(S'714088009'
S'Shiffali Razdan'
tp610
a(S'100000534199999'
S'Tanveer Opal'
tp611
a(S'1007366933'
S'Neeraj Elango'
tp612
a(S'1248040677'
S'Arushi Garg'
tp613
a(S'100001223133118'
S'Prasanan Rp'
tp614
a(S'100001629906306'
S'Rhythem Bhambri'
tp615
a(S'1566575245'
S'Matt Dawson'
tp616
a(S'1569671728'
S'Akhil Sharma'
tp617
a(S'1511150949'
S'Krishna Vinod'
tp618
a(S'100000556613190'
S'Tushar Kapahi'
tp619
a(S'100000188640364'
S'Maansi Sharma'
tp620
a(S'100000369224148'
S'Yashwathi Chandak'
tp621
a(S'100000285990197'
S'Rohit Chhoker'
tp622
a(S'1407964406'
S'Sanjana Sharan'
tp623
a(S'100002234461478'
S'JJ Byeongjun Kim'
tp624
a(S'100003937726742'
S'Sana Yadav'
tp625
a(S'100007577823229'
S'Nupur More'
tp626
a(S'527704588'
S'Buse Ayd\\u00f6re'
tp627
a(S'100002943574071'
S'Uday Mukhija'
tp628
a(S'100004041595596'
S'Yiying Qiu'
tp629
a(S'100000590379579'
S'Kartikay Dangi'
tp630
a(S'698990009'
S'Paul Wesselmann'
tp631
a(S'1251866053'
S'Sahil Sharma'
tp632
a(S'1305664574'
S'Vaibhav Gupta'
tp633
a(S'100001298158607'
S'Roseline Pandian'
tp634
a(S'100007014283717'
S'Priyanshi Jain'
tp635
a(S'1460245783'
S'Jatin MahaJan'
tp636
a(S'1325241568'
S'Aishwarya Joshi'
tp637
a(S'1571529431'
S'Divya Chauhan'
tp638
a(S'100000403891352'
S'Garima Ladwal'
tp639
a(S'1468207983'
S'Vidhi Arora'
tp640
a(S'100000140482145'
S'Fernanda Crescente'
tp641
a(S'100003371949813'
S'Keita Tsuda'
tp642
a(S'1725911860'
S'Anush Chandra Mohan'
tp643
a(S'100000463842434'
S'Sakshi Srivastava'
tp644
a(S'100001430065226'
S'Ashwita Saxena'
tp645
a(S'100003062083417'
S'Linda Yue Zhang'
tp646
a(S'1270765741'
S'Aashi Agarwal'
tp647
a(S'1186098585'
S'Ashray Bhasin'
tp648
a(S'100002144569770'
S'Shreya Sahoo'
tp649
a(S'1203962138'
S'Vanya Pasricha'
tp650
a(S'100000264234090'
S'Sam Sams'
tp651
a(S'1361764306'
S'Ankita Nangia'
tp652
a(S'100000813840298'
S'Manvi Chadha'
tp653
a(S'100000323545815'
S'Saksham Tuli'
tp654
a(S'100002620309992'
S'Kartikey Mehrotra'
tp655
a(S'100000023787606'
S'Sonal Sahni'
tp656
a(S'1539993056'
S'Mahek Bhambri'
tp657
a(S'1732279307'
S'Pranjal Sharma'
tp658
a(S'100000738602906'
S'Rakshak Jain'
tp659
a(S'100001275361376'
S'Harsh Saini'
tp660
a(S'100000951946470'
S'Lakshay Chaudhary'
tp661
a(S'1754248020'
S'Akshat Sharma'
tp662
a(S'100001085089505'
S'Pallavi Singh'
tp663
a(S'100005701422627'
S'Shreya Malhotra'
tp664
a(S'1704619804'
S'Raunaq Khanna'
tp665
a(S'1373889308'
S'Ashish Verma'
tp666
a(S'100001901538255'
S'Mahika Yadav'
tp667
a(S'1131121542'
S'Kunaal Gadhalay'
tp668
asS'id'
p669
S'1041927103'
p670
sS'name'
p671
S'Tarushi Ravindra'
p672
s.