(dp1
S'friends'
p2
(lp3
(S'100000549312374'
S'Ishu Gagnani'
tp4
a(S'306290'
S'Engin Yenidunya'
tp5
a(S'100000322148944'
S'Sahana Goswami'
tp6
a(S'662831106'
S'Maryanne Mathias'
tp7
a(S'10109597'
S'Andy Roodveldt'
tp8
a(S'199713996'
S'Viren Sawhney'
tp9
a(S'1147916213'
S'Nanik Daswani'
tp10
a(S'100003015145075'
S'Charlie Yao'
tp11
a(S'503194668'
S'Philip Lowe'
tp12
a(S'100002976571326'
S'Bette Sawyer'
tp13
a(S'726235108'
S'Aparna Kurian'
tp14
a(S'784059610'
S'Sheuli Mitra'
tp15
a(S'100000267611528'
S'Christopher Albuquerque'
tp16
a(S'219387'
S'Bijoy Goswami'
tp17
a(S'1053560860'
S'Priya Mathias'
tp18
a(S'853930412'
S'Venky Veeraraghavan'
tp19
a(S'100001524202599'
S'Marinel Semilla Manrique'
tp20
a(S'680513875'
S'Natasha Mathias'
tp21
a(S'640865374'
S'Sarala Carlson'
tp22
a(S'100002002425426'
S'Kent Ewing'
tp23
a(S'674145811'
S'Meher Singh'
tp24
a(S'820483647'
S'Meeka Sawhney Pinto'
tp25
a(S'1846376634'
S'Shukla Haldar'
tp26
a(S'563840959'
S'Sam Minocher'
tp27
a(S'100000106427027'
S'Shirley Saldanha'
tp28
a(S'1065799056'
S'Chitra Sanyal'
tp29
a(S'1058475900'
S'Anup Kumar Dubey'
tp30
a(S'832460133'
S'Gaurav Trikha'
tp31
a(S'100004515459873'
S'Amulya Mohan'
tp32
a(S'501962429'
S'Pranav Karol'
tp33
a(S'592997488'
S'Ranjan Goswami'
tp34
a(S'20620566'
S'Aaron Fogel'
tp35
a(S'1676973651'
S'Nadir Minocher'
tp36
a(S'743288950'
S'Nandan Nayampally'
tp37
a(S'100001396085781'
S'Sunila Noronha Albuquerque'
tp38
a(S'750585081'
S'Simran Wahan'
tp39
a(S'521552725'
S'Smita Narayan'
tp40
a(S'1133754369'
S'Denise Kimberg'
tp41
a(S'1019416740'
S'Tribhuwan Anand'
tp42
a(S'526484982'
S'Gautam Lakra'
tp43
a(S'541807460'
S'Nikhita Trikha'
tp44
a(S'100000498333140'
S'Jacqueline Colaco'
tp45
a(S'597694327'
S'Lillian Davis Roodveldt'
tp46
a(S'661482748'
S'Kirsten St Croix Billhardt'
tp47
a(S'1401990518'
S'Amardeep Singh'
tp48
a(S'1013815559'
S'Sunil Issar'
tp49
a(S'1645013667'
S'Evelyn Hennig Chaveriat'
tp50
a(S'1103385524'
S'Rajender Pal Singh'
tp51
a(S'823457087'
S'Barbara Borsetto'
tp52
a(S'710510088'
S'Tim Gregg'
tp53
a(S'602270525'
S'David Elsworth'
tp54
a(S'709046094'
S'Praveen Jose'
tp55
a(S'100000671967433'
S'Anurag Prasad'
tp56
a(S'518699868'
S'Claire Ann Rego'
tp57
a(S'736126219'
S'Diane Elliott'
tp58
a(S'535786244'
S'Dino Albuquerque'
tp59
a(S'755880272'
S'Gaurav Dani'
tp60
a(S'575567014'
S'Lauran Bethell'
tp61
a(S'687578402'
S'Peter Dratz'
tp62
a(S'798094033'
S'Preet K S Bedi'
tp63
a(S'653137787'
S'Viji Jayaraman'
tp64
a(S'521843016'
S'Ingegerd Minocher-Lindberg'
tp65
a(S'796690547'
S'Pavitra Chalam'
tp66
a(S'532107705'
S'Manas Mohan'
tp67
a(S'710115652'
S'Aditya Arya'
tp68
a(S'1490883738'
S'Chris Hindley'
tp69
a(S'746127106'
S'David Mathias'
tp70
a(S'100001236784637'
S'Ronny Bindra'
tp71
a(S'126173'
S'Shoumitro Goswami'
tp72
a(S'678116451'
S'Prasanto K Roy'
tp73
a(S'1240327108'
S'Amitabha Pande'
tp74
a(S'556446506'
S'Doug Baker'
tp75
a(S'1201177083'
S'Vinod Vyasulu'
tp76
a(S'675212133'
S'Randhir Singh'
tp77
a(S'1114130313'
S'Megha Phadke Apte'
tp78
a(S'591786950'
S'Jack Jigg'
tp79
a(S'1547013666'
S'Vasanthi Nazareth'
tp80
a(S'100000511426167'
S'Rudolf Juan-Miguel Rietscher'
tp81
a(S'663817749'
S'Leela Goswami'
tp82
asS'id'
p83
S'1046799668'
p84
sS'name'
p85
S'Jayant Goswami'
p86
s.