(dp1
S'home_link'
p2
Vhttps://www.facebook.com/l.php?u=https%3A%2F%2Fwww.bing.com%2Fmaps%2Fdefault.aspx%3Fv%3D2%26pc%3DFACEBK%26mid%3D8100%26where1%3D28.469999907198%252C%2B77.029266357422%26name%3DGurgaon%252C%2BHaryana%26mkt%3Den-IN&h=2AQFf-Unt&s=1
p3
sS'name'
p4
S'Mudita Yadav'
p5
sS'current_class'
p6
S'india'
p7
sS'home_text'
p8
VGurgaon, Haryana\u000aHometown
p9
sS'home_class'
p10
Vgurgaon, haryana, india
p11
sS'friends'
p12
(lp13
(S'1407372088'
S'Shounak Joshi'
tp14
a(S'100000581607295'
S'Mahi Rana'
tp15
a(S'100000148278328'
S'Akshay Saraogi'
tp16
a(S'100002409745031'
S'Anushka Gupta'
tp17
a(S'100000514309835'
S'Stuti Gupta'
tp18
a(S'100000715629976'
S'Shubham Wadhera'
tp19
a(S'1772169097'
S'Rishi Singh Chauhan'
tp20
a(S'100001294131689'
S'Ashish Singh Yadav'
tp21
a(S'100001013693832'
S'Trushal Dhiwar'
tp22
a(S'100000454196448'
S'Saagar Bhatia'
tp23
a(S'1734579726'
S'Deepanshu Juneja'
tp24
a(S'1635851229'
S'Radhika Batra'
tp25
a(S'100002194983016'
S'Nigel Desouza'
tp26
a(S'100000281919705'
S'Rohan Bajaj'
tp27
a(S'100001065752720'
S'Shefali Lohia'
tp28
a(S'100000040007330'
S'Swastik Chadha'
tp29
a(S'100001269691061'
S'Prachi Bapna'
tp30
a(S'1342921275'
S'Shreyas Varshney'
tp31
a(S'504751825'
S'Rahul Malla'
tp32
a(S'100001273657196'
S'Kiran Kumar'
tp33
a(S'538635761'
S'Sam Gonsalves'
tp34
a(S'100001911470780'
S'Kangan Jain'
tp35
a(S'532198702'
S'Raunaq Sharma'
tp36
a(S'100000840021242'
S'Kartik Sharma'
tp37
a(S'1448798355'
S'Eshaan Sud'
tp38
a(S'581616430'
S'Ainesh Ahluwalia'
tp39
a(S'100000846697510'
S'Siddharth Varma'
tp40
a(S'100000134050049'
S'Anoop Tanwar'
tp41
a(S'100001957077069'
S'Rittik Sharma'
tp42
a(S'100001082394595'
S'Monisha Dang'
tp43
a(S'100000549770470'
S'Vinayak Prasad'
tp44
a(S'100002395969175'
S'\\u00c5ttr\\u00e3\\u00e7t\\u00efv\\u00ea \\u00c3\\u00f0\\u00eet\\u00fd\\u00e5'
tp45
a(S'525030614'
S'Aayush Khare'
tp46
a(S'1122953374'
S'Shivam Rana'
tp47
a(S'839162479'
S'Pawan Juneja'
tp48
a(S'1496937717'
S'Sahil Yadav'
tp49
a(S'1249013571'
S'Amber Grover'
tp50
a(S'1501667290'
S'Kunal Kapoor'
tp51
a(S'100000313715567'
S'Ira Gulia'
tp52
a(S'100002083741890'
S'Shrey Singh'
tp53
a(S'1359761289'
S'Rahul Amlekar'
tp54
a(S'1650339648'
S'Dhruv Shrivastava'
tp55
a(S'100003155293135'
S'Pashy Kaur'
tp56
a(S'100000350718530'
S'Aditi Gupta'
tp57
a(S'633972704'
S'Srishti Yadav'
tp58
a(S'1158848073'
S'Roger Gurung'
tp59
a(S'100002960838216'
S'Kaushiki Dwivedy'
tp60
a(S'100000824138258'
S'Agria Joshi'
tp61
a(S'100004667401523'
S'Merin Toppo'
tp62
a(S'100000708444399'
S'Yash Vardhan'
tp63
a(S'1001678553'
S'Aastha Sarin'
tp64
a(S'100004254310981'
S'Deepika Singh'
tp65
a(S'1215731501'
S'Ishan Agarwal'
tp66
a(S'100001188367136'
S'Kartik Tanwar'
tp67
a(S'100000439800818'
S'Sukrit Bhamai'
tp68
a(S'100000004244825'
S'Anshuman Saraogi'
tp69
a(S'100001898074289'
S'Shivank Badyal'
tp70
a(S'100000015772088'
S'Sana Khan'
tp71
a(S'100001615327628'
S'Shivam Kaul'
tp72
a(S'1170561193'
S'Aishwarya Sathe'
tp73
a(S'100000247707756'
S'Karanveer Singh'
tp74
a(S'1183369190'
S'Rahul Kumar'
tp75
a(S'1310890811'
S'Shruti Jain'
tp76
a(S'1228423052'
S'Kashish Gajrawala'
tp77
a(S'100006480366918'
S'Chidakash Sinha'
tp78
a(S'100000055796189'
S'Sahil Gupta'
tp79
a(S'100001958370422'
S'Aniket Thakran'
tp80
a(S'100002408908235'
S'Meghla Bhanwala'
tp81
a(S'100003346386103'
S'Shampa Mani'
tp82
a(S'100002472848740'
S'Laasya Bavisetti'
tp83
a(S'1540039734'
S'Serah Oberoi'
tp84
a(S'905250112'
S'Chiti Chopra'
tp85
a(S'1160587318'
S'Vidisha Arora'
tp86
a(S'100001546765760'
S'Shefali Lohia'
tp87
a(S'100001559634080'
S'Aakash Mehra'
tp88
a(S'649639218'
S'Meera Shenoy'
tp89
a(S'100002750948476'
S'Tanya S Hiwal'
tp90
a(S'1317631081'
S'Devina Duggal'
tp91
a(S'1024876180'
S'Shalom Sonawane'
tp92
a(S'1167696444'
S'Kushagra Sachdeva'
tp93
a(S'100001577018751'
S'Pallavi Joshi'
tp94
a(S'100000575386272'
S'Pranay Billie Sharma'
tp95
a(S'100002145289345'
S'Paras Rehnawat'
tp96
a(S'1321011725'
S'Akshay Varma'
tp97
a(S'100002288675029'
S'Shiven Luthra'
tp98
a(S'100003798103412'
S'Priyanshi Jain'
tp99
a(S'100001085031125'
S'Meghna Deopa'
tp100
a(S'100002316835526'
S'Richa Pasricha'
tp101
a(S'100000883276715'
S'Avni Gupta'
tp102
a(S'100003751125436'
S'Aman Vishwakarma'
tp103
a(S'1786032123'
S'Vishal Makhani'
tp104
a(S'754741222'
S'Arya Vijayan'
tp105
a(S'1724303128'
S'Aditai Puri'
tp106
a(S'822632828'
S'Akshi Kohli'
tp107
a(S'100000351480655'
S'Shishank Jaswal'
tp108
a(S'1848358358'
S'Sangeet Khurana'
tp109
a(S'1237828232'
S'Garima Pandey'
tp110
a(S'100001101793983'
S'Akshat Singh'
tp111
a(S'100000416687852'
S'Aniket Bhattacharya'
tp112
a(S'100004179463642'
S'Rhea Tyagi'
tp113
a(S'1522366874'
S'Hitesh Yaduvanshi'
tp114
a(S'1485434874'
S'Kartik Hoshangabade'
tp115
a(S'100000975996484'
S'Arnav Ailawadi'
tp116
a(S'100000786002257'
S'Neha Pandey'
tp117
a(S'780973987'
S'Madhuvanthi Senthilkumar'
tp118
a(S'100000502428455'
S'Dushyant Mahajan'
tp119
a(S'764954055'
S'Samir Bharadwaj'
tp120
a(S'1738766429'
S'Vineet Dixit'
tp121
a(S'100000403891352'
S'Garima Ladwal'
tp122
a(S'1461458624'
S'Shiven Luthra'
tp123
a(S'1753070500'
S'Animesh Katiyar'
tp124
a(S'724859011'
S'Alisha Vij'
tp125
a(S'100001588907857'
S'Ashu Bhardwaj'
tp126
a(S'1645640382'
S'Arjoonn Sharma'
tp127
a(S'613674006'
S'Harshit Jain'
tp128
a(S'100007720114302'
S'Shefali Lohia'
tp129
a(S'100000887960652'
S'Yashika Nijhawan'
tp130
a(S'1575387342'
S'Ayush Magow'
tp131
a(S'1425394200'
S'Advaiet Chadha'
tp132
a(S'100002813017064'
S'Nikita Sharma'
tp133
a(S'532742043'
S'Anumita Bhattacharyya'
tp134
a(S'100003071979916'
S'Monica Vaidya'
tp135
a(S'100005709300398'
S'Bebo Kapoor'
tp136
a(S'1266100963'
S'Utkarsh Jain'
tp137
a(S'100000281381639'
S'Megda Bharadwaj'
tp138
a(S'1195436728'
S'Uday Reacher'
tp139
a(S'100000189084963'
S'Simran Nayyar'
tp140
a(S'100001093195119'
S'Shubhi Davis'
tp141
a(S'1281633839'
S'Nikita Chawla'
tp142
a(S'1388066413'
S'Abhinav Agarwal'
tp143
a(S'1488276282'
S'Prajakta Sonkusare'
tp144
a(S'1799710386'
S"Francis D'souza"
tp145
a(S'1360318172'
S'Karan Singh'
tp146
a(S'100000115952284'
S'Lashita Dhingra'
tp147
a(S'100001348288650'
S'Abhishek Kamboj Einstein'
tp148
a(S'100002564818722'
S'Kunal Yadav'
tp149
a(S'100000285990197'
S'Rohit Chhoker'
tp150
a(S'1406029000'
S'Hemant Gulia'
tp151
a(S'1504064409'
S'Siddarth Broly Mehra'
tp152
a(S'1060877924'
S'Ishan Yadav'
tp153
a(S'1536731203'
S'Divanshi Gupta'
tp154
a(S'100001046925289'
S'Himasri Swargam'
tp155
a(S'1491125726'
S'Gagan Sehgal'
tp156
a(S'100000111831161'
S'Rashi Jain'
tp157
a(S'1203762299'
S'Shlok Dayal'
tp158
a(S'1617574310'
S'Dhruv Athi'
tp159
a(S'100000500421057'
S'Himanshu Sharma'
tp160
a(S'100000181865114'
S'Rishabh Thakur'
tp161
a(S'100004950938516'
S'Shrey Bali'
tp162
a(S'100000239648703'
S'Nikhil Dahiya'
tp163
a(S'656475621'
S'Smrithi Senthilkumar'
tp164
a(S'1161196945'
S'Yash Aggarwal'
tp165
a(S'100000897066843'
S'Sahil Singh Mitharwal'
tp166
a(S'1400926323'
S'Tarush Saksena'
tp167
a(S'100000550191493'
S'Shifa Iqbal'
tp168
a(S'1058206833'
S'Avnish Rana'
tp169
a(S'100000129864169'
S'Arnav Batra'
tp170
a(S'1254197513'
S'Ashish Gupta'
tp171
a(S'100000670165547'
S'Adishesh Singh'
tp172
a(S'1467901885'
S'Yuvraj Singh Tyagi'
tp173
a(S'1496441718'
S'Karan Sud'
tp174
a(S'100001336038365'
S'Ajay Hooda'
tp175
a(S'1428100130'
S'Sayesha Gupta'
tp176
a(S'1266126446'
S'Diya Deep'
tp177
a(S'100000140589995'
S'Sohail Iqbal'
tp178
a(S'100001109277318'
S'Shalom Samuel'
tp179
a(S'100001317293996'
S'Sakshi Dagar'
tp180
a(S'100001159132228'
S'Vasavi Naidu'
tp181
a(S'100000141096198'
S'Sanjoli Sirohi'
tp182
a(S'779432234'
S'Sagnik Ghosh'
tp183
a(S'100003007993640'
S'Aliya Garg'
tp184
a(S'1407964406'
S'Sanjana Sharan'
tp185
a(S'1546149826'
S'Tirtham Ray'
tp186
a(S'100001901770329'
S'Aarushi Kohli'
tp187
a(S'1827189679'
S'Shaurya Saxena'
tp188
a(S'1259812673'
S'Nirmala Ann Joseph'
tp189
a(S'1403651260'
S'Stefan Nelson Philips'
tp190
a(S'100000005179386'
S'Vinnie Sinistra'
tp191
a(S'100000444880089'
S'Ravi Pillai'
tp192
a(S'100003745491313'
S'Swathi Swargam'
tp193
a(S'100000745754089'
S'Manu Shekhawat'
tp194
a(S'1107349174'
S'Mayank Mahla'
tp195
a(S'1348333804'
S'Satvik Kumar'
tp196
a(S'100003924907549'
S'Rashmin Kesarker'
tp197
a(S'1273193824'
S'Archit Dhawan'
tp198
a(S'1683465051'
S'Vidit Soni'
tp199
a(S'1510436193'
S'Salil Kathuria'
tp200
a(S'1748598220'
S'Archit Rathi'
tp201
a(S'100002491123451'
S'Pranav Kakkar'
tp202
a(S'1044747185'
S'Devika Johar'
tp203
a(S'693590778'
S'Harshini Mathur'
tp204
a(S'1503525599'
S'Tushar Aggarwal'
tp205
a(S'1001692720'
S'Prafull Gupta'
tp206
a(S'650274444'
S'Hrishikesh Vader Mulabagula'
tp207
a(S'100001059493651'
S'Shuvoneel Chakraborty'
tp208
a(S'1456548322'
S'Sagar Konvict'
tp209
a(S'550771106'
S'Shubhankar Mathur'
tp210
a(S'1430018649'
S'Arjun Sharma'
tp211
a(S'100000065971803'
S'Prekshi Gulia'
tp212
a(S'100000272276191'
S'Mohit Tyagi'
tp213
a(S'1203801971'
S'Pragya Gupta'
tp214
a(S'100001717615333'
S'Gautam Yadav'
tp215
a(S'100002634821400'
S'Vidushi Kaul'
tp216
a(S'100000023787606'
S'Sonal Sahni'
tp217
a(S'100001309092825'
S'Sayali Nazarekar'
tp218
a(S'100000229762138'
S'Ayush Mahajan'
tp219
a(S'1616297308'
S'Sumit Arya'
tp220
a(S'100001807432068'
S'Shreya Ak'
tp221
a(S'1240371214'
S'Dhruv Lacshar'
tp222
a(S'1485117921'
S'Daksh Sharma'
tp223
a(S'703357812'
S'Ritu Sharma'
tp224
a(S'1088523598'
S'Avirudh Dahiya'
tp225
a(S'100001731127871'
S'Yogesh Saini'
tp226
a(S'100000289550596'
S'Pranav Bisht'
tp227
a(S'580350063'
S'Aashian Bieber Stark'
tp228
a(S'1029171052'
S'Karan Jhunja'
tp229
a(S'100000323545815'
S'Saksham Tuli'
tp230
a(S'1773773613'
S'Udaydeep Jindal'
tp231
a(S'1117944738'
S'Sidharth Arora'
tp232
a(S'1808469064'
S'Prabhat Garg'
tp233
a(S'100001372402532'
S'Konark Sikka'
tp234
a(S'1018510753'
S'Pulkit Sharma'
tp235
a(S'100000114484540'
S'Shubhanshu Rai'
tp236
a(S'1574041515'
S'Shivang Shukla'
tp237
a(S'1573689227'
S'Meghal Karki'
tp238
a(S'677329082'
S'Gaurav Singh'
tp239
a(S'100000012508397'
S'Ratik Dubey'
tp240
a(S'1041122316'
S'Pallavi Arora'
tp241
a(S'100000024403508'
S'Yaduraj Singh Chauhan'
tp242
a(S'1743166042'
S'Aishwarya Borgohain'
tp243
a(S'100000789510848'
S'Rohit Jain'
tp244
a(S'100001008816202'
S'Shirali Agarwal'
tp245
a(S'1505384693'
S'Arunima Bhattacharya'
tp246
a(S'1303034653'
S'Monty Bisla'
tp247
a(S'100003178759461'
S'Sonali Thakur'
tp248
a(S'100001575452245'
S'R\\u00eeshabh Yadav'
tp249
a(S'100001061423863'
S'Divya Shrivastava'
tp250
a(S'100000530439205'
S'Srishti Bajaj'
tp251
a(S'100001964735892'
S'Adil Kohli'
tp252
a(S'100005635297905'
S'Ankita Gaur'
tp253
a(S'100000734402989'
S'Mayank Choudhary'
tp254
a(S'100000537613194'
S'Medhavi Sharma'
tp255
a(S'100001767462608'
S'Yash Dabas'
tp256
a(S'100001030108354'
S'Aman Gupta'
tp257
a(S'100001022465422'
S'Divyakshi Satija'
tp258
a(S'100001554353303'
S'Jatin Rao'
tp259
a(S'100000317640535'
S'Aditya Jha'
tp260
a(S'100002555218279'
S'Raghav Mehra'
tp261
a(S'1204581834'
S'Ayushmaan Malik'
tp262
a(S'849435453'
S'Arham Jamal'
tp263
a(S'1354864021'
S'Aishwarya Sivaramakrishnan'
tp264
a(S'1503025215'
S'Stephen Aaron Raphael'
tp265
a(S'1454385233'
S'Abhishek Tilgulkar'
tp266
a(S'1822418225'
S'Sarthak Garg'
tp267
a(S'598714195'
S'Rahul Madan'
tp268
a(S'761110362'
S'Dishhank Basu'
tp269
a(S'1492163014'
S'KiRti ShaRma'
tp270
a(S'1538331406'
S'Varun Singh Ahluwalia'
tp271
a(S'100001190437976'
S'Mohan Nerkar'
tp272
a(S'578549680'
S"Aishwarya 'sona' Pathak"
tp273
a(S'651876176'
S'Trishul Navalakha'
tp274
a(S'100000027585222'
S'Malaika Nangia'
tp275
a(S'1087120385'
S'Rohan Sadana'
tp276
a(S'1380806174'
S'Mayank Agarwal'
tp277
a(S'1441891395'
S'Kritika Yadav'
tp278
a(S'100004660238628'
S'Abhishek Srivastava'
tp279
a(S'703921629'
S'Shubham Mathur'
tp280
a(S'100000322207536'
S'Shikhar Golash'
tp281
a(S'533163953'
S'Aditya Jha'
tp282
a(S'100000943776892'
S'Harshil Sinha'
tp283
a(S'100002557430449'
S'Aakarsh Arora'
tp284
a(S'100004382700183'
S'Bhavana Singh'
tp285
a(S'1113037676'
S'Jafty Elza'
tp286
a(S'100005361548819'
S'Newdps Confess'
tp287
a(S'1517143487'
S'Monika Agarwal'
tp288
a(S'1558998158'
S'Isha Choudhary'
tp289
a(S'1442765838'
S'Anuja Sawant'
tp290
a(S'1278523745'
S'Akanksha Samyal'
tp291
a(S'1091845843'
S'Rajat Yadav'
tp292
a(S'100000824776423'
S'Tarushii Maggu'
tp293
a(S'1037542495'
S'Anvii Gupta'
tp294
a(S'100001376538117'
S'Vishal Sharma'
tp295
a(S'610626907'
S'Soven Trehan'
tp296
a(S'100001646872700'
S'Siddharth Gupta'
tp297
a(S'100002269901019'
S'Minnie Kaur'
tp298
a(S'1143786921'
S'Utsav Ud Bhardwaj'
tp299
a(S'100006289022759'
S'Aditya Gaur'
tp300
a(S'100001109797175'
S'Prakhar Sharda'
tp301
a(S'1484106403'
S'Dhrthi Nanda'
tp302
a(S'620919582'
S'Ruchit Mohan'
tp303
a(S'100002023165117'
S'Puru Garg'
tp304
a(S'100000449546748'
S'Lakshay Bedi'
tp305
a(S'1451876415'
S'Dinesh Singh Nayal'
tp306
a(S'100000262704392'
S'Aishwarya Joshi'
tp307
a(S'100002505721141'
S'Dasmeshjot Mangat'
tp308
a(S'100000770385289'
S'Aishwarya Nair'
tp309
a(S'577077929'
S'Anthony Edwards'
tp310
a(S'100000185028860'
S'Radhika Chandak'
tp311
a(S'693820008'
S'Siddharth Shyamsundar'
tp312
a(S'100001560844329'
S'Disha Dahiya'
tp313
a(S'1271538264'
S'Shobhit Singh Kohli'
tp314
a(S'100001239837677'
S'Vishal Agnihotri'
tp315
a(S'100000376861518'
S'Siddharth Jain'
tp316
a(S'100000212988541'
S'Shubham Mehta'
tp317
a(S'100007734400441'
S'Taarinie Rai Kochhar'
tp318
a(S'100000750577494'
S'Moti Mehra'
tp319
a(S'100000190122882'
S'Jai Sachdev'
tp320
a(S'1445214126'
S'Rashmi Khanna'
tp321
a(S'701156530'
S'Rekha Yadav'
tp322
a(S'801907297'
S'Nishant Matta'
tp323
a(S'714510612'
S'Siddhant Sharma'
tp324
a(S'1526506725'
S'Sanchit Nigam'
tp325
a(S'1447302993'
S'Aishwarya Jayan'
tp326
a(S'100001086865191'
S'Manisha Sadani'
tp327
a(S'1809926912'
S'Harsh Sharma'
tp328
a(S'1714257004'
S'Suryansh Tiwari'
tp329
a(S'1838585619'
S'Japgun Banga'
tp330
a(S'100001565952809'
S'Devaang Mehrotra'
tp331
a(S'100006201608315'
S'Trupti Mahajan'
tp332
a(S'100001191428775'
S'Nikita Bansal'
tp333
a(S'100002436534011'
S'Abhilasha Guha'
tp334
a(S'100001002450830'
S'Damini Singh'
tp335
a(S'1566214861'
S'Ankita Mondal'
tp336
a(S'100000989244855'
S'Nikhil Lohia'
tp337
a(S'1317540345'
S'Harshit Saxena'
tp338
a(S'1246468188'
S'Ishita Bajaj'
tp339
a(S'100000425089640'
S'Poonam Das'
tp340
a(S'100001668601736'
S'Rahul Gandhi'
tp341
a(S'1532705308'
S'Pranshu Dixit'
tp342
a(S'1841777497'
S'Nikunj Verma'
tp343
a(S'100004145166803'
S'Kartika Badola'
tp344
a(S'1249982927'
S'Saikruth Rao'
tp345
a(S'1805603870'
S'Tanmay Sharma'
tp346
a(S'660591053'
S'Bhavik Shah'
tp347
a(S'100005729736191'
S'Kanika Mangal'
tp348
a(S'100001686462198'
S'Saarthak Ghosh'
tp349
a(S'1310852232'
S'Pragyaa Prasad'
tp350
a(S'100004058806197'
S'Faraz \\u014a\\u0131zam'
tp351
a(S'100001629906306'
S'Rhythem Bhambri'
tp352
a(S'100000951946470'
S'Lakshay Chaudhary'
tp353
a(S'100000527702182'
S'Ayush Kundra'
tp354
a(S'1150747394'
S'Nupur More'
tp355
a(S'100003686802456'
S'Ankita Gupta'
tp356
a(S'100001232813501'
S'Hemant Singh Yadav'
tp357
a(S'1511600491'
S'Abhishek Rajput'
tp358
a(S'100001218552788'
S'Aman Chaudhary'
tp359
a(S'100001062224912'
S'Aakash Choudhary'
tp360
a(S'100004947464005'
S'Bhartii Oberoii'
tp361
a(S'100001876207026'
S'Nikita Malhotra'
tp362
a(S'100001962256814'
S'Sheetal Dave'
tp363
a(S'100004284514842'
S'Navpreet Singh Gill'
tp364
a(S'100001499195684'
S'Ankit Sharma'
tp365
a(S'100002095782490'
S'Rahul Dawar'
tp366
a(S'679337085'
S'Viren Patel'
tp367
a(S'1228051576'
S'Tushita Dogra'
tp368
a(S'1797897715'
S'Yuvraj Francis'
tp369
a(S'100001082265287'
S'Sahil Mahajan'
tp370
a(S'100000391232523'
S'Vipin Rai'
tp371
a(S'1264051105'
S'Shivya Sachdeva'
tp372
a(S'1531302239'
S'Siddharth Mani'
tp373
a(S'1001316862'
S'Karanvir Singh'
tp374
a(S'1299480606'
S'Rohit Bhola'
tp375
a(S'100001694404780'
S'Rakshit Midha'
tp376
a(S'100001995132080'
S'Gauri Venugopal'
tp377
a(S'1268580796'
S'Aahna Kapoor'
tp378
a(S'100000582613559'
S'Franz L Pti Jzu'
tp379
a(S'523514048'
S'Samridh Kapoor'
tp380
a(S'100000367320594'
S'Aman Kharb'
tp381
a(S'100003655070777'
S'Tanvi Papneja'
tp382
a(S'100003222098248'
S'Tanya Nagi'
tp383
a(S'100001185305191'
S'Akhil Sharma'
tp384
a(S'100000138142718'
S'Sunny Jaiswal'
tp385
a(S'100000606885042'
S'Shagun Mangla'
tp386
a(S'1539317983'
S'Ratul Ghosh'
tp387
a(S'1616047255'
S'Nav Mehta'
tp388
a(S'100001289919110'
S'Bhakti Singh Thakur'
tp389
a(S'1489587242'
S'Sarthak Choudhary'
tp390
a(S'1229525577'
S'Ria Borde'
tp391
a(S'1741227454'
S'Shikhar Gupta'
tp392
a(S'100000221483130'
S'Diksha Trivedi'
tp393
a(S'100001204568614'
S'Anshika Srivastava'
tp394
a(S'100002531452170'
S'Divya Tara'
tp395
a(S'1824967142'
S'Maloshree Sanyal'
tp396
a(S'100000305100990'
S'Anshul Tyagi'
tp397
a(S'100001563046384'
S'Yudi R Suri'
tp398
a(S'100004738242782'
S'Kunal Almadi'
tp399
a(S'100000872716426'
S'Ankit Ahuja'
tp400
a(S'1446492632'
S'Udit Chhabra'
tp401
a(S'100000622530376'
S'Jaspreet Singh'
tp402
a(S'1163525030'
S'Priyanka Nagarajan'
tp403
a(S'100000813840298'
S'Manvi Chadha'
tp404
a(S'1255427099'
S'Alabhya Anand'
tp405
a(S'100001679521978'
S'Riya Koul'
tp406
a(S'1180509128'
S'Kartik Bhargava'
tp407
a(S'1621759556'
S'Ishan Piplani'
tp408
a(S'100002324794754'
S'Ishant Mutreja'
tp409
a(S'1704619804'
S'Raunaq Khanna'
tp410
a(S'1508704294'
S'Divya Shukla'
tp411
a(S'1392953589'
S'Shivangee Sharma'
tp412
a(S'100001438331719'
S'Yuvraaj Singhania'
tp413
a(S'100001759067115'
S'Palak Ahuja'
tp414
a(S'1692746048'
S'Shubham Malhotra'
tp415
a(S'1152762359'
S'Anvit Rai'
tp416
a(S'100002429968217'
S'Kartikay Cobain'
tp417
a(S'100000567424610'
S'Aastha Jain'
tp418
a(S'639683015'
S'Shivam Jha'
tp419
a(S'1555961681'
S'Anirudh Kulkarni'
tp420
a(S'100003642253687'
S'Pratiksha Malhotra'
tp421
a(S'100001234893185'
S'Saakshi Gusain'
tp422
a(S'100002918163682'
S'Palak Ahuja'
tp423
a(S'555694883'
S'Rishaal Rajan'
tp424
a(S'100000265008592'
S'Aditya Pratap'
tp425
a(S'100000892472279'
S'Akash Ash Raghav'
tp426
a(S'560330087'
S'Ismail Patel'
tp427
a(S'100001901538255'
S'Mahika Yadav'
tp428
a(S'1161434719'
S'Sarthak Kataria'
tp429
a(S'1373889308'
S'Ashish Verma'
tp430
a(S'546664257'
S'Dhruv Chadha'
tp431
a(S'100001004407752'
S'Khunnal Bir Singh Palta'
tp432
a(S'1575186048'
S'Pragya Gupta'
tp433
a(S'1139589204'
S'Pratyush Kr'
tp434
a(S'100000530209039'
S'Manas Bhatnagar'
tp435
a(S'508661423'
S'Dhruv Bhalla'
tp436
a(S'1219133639'
S'Nimish Abrol'
tp437
a(S'100001479004161'
S'Udit Handa'
tp438
a(S'100001520755374'
S'AnmOl GujrAl'
tp439
a(S'1436217279'
S'Brijendra Pratap Singh'
tp440
a(S'1629725452'
S'James LeBron'
tp441
a(S'100000320962105'
S'Ishan Dhar'
tp442
a(S'100001662064136'
S'Jatin Chopra'
tp443
a(S'100001666503073'
S'Aditi Malhotra'
tp444
a(S'1307451698'
S'Abhilasha Guha'
tp445
a(S'100000708925409'
S'Aishwarya Nair'
tp446
a(S'100004469523642'
S'Nitiksha Sharma'
tp447
a(S'1695974299'
S'Chirag Dahiya'
tp448
a(S'100001922678041'
S'Aarti Kashyap Singh'
tp449
a(S'100000003305724'
S'Karina Dogra'
tp450
a(S'100000673055060'
S'Mridul Arora'
tp451
a(S'1442556050'
S'Shinjini Lama'
tp452
a(S'1208829841'
S'Shashank Shekhar'
tp453
a(S'100003823444618'
S'Mansi Patel'
tp454
a(S'1209121484'
S'Aditya Gupta'
tp455
a(S'1335644298'
S'Harkesh Sharma'
tp456
a(S'721493758'
S'Mrinal Aggarwal'
tp457
a(S'100006256238169'
S'Sarthak Haandizz Bansal'
tp458
a(S'100000878001428'
S'Aditya Jain'
tp459
a(S'1263739356'
S'Priya Kharbanda'
tp460
a(S'676576411'
S'Sumit Punia'
tp461
a(S'1119672790'
S'Akanksha Dutta'
tp462
a(S'100002547296782'
S'Shanaya Scott'
tp463
a(S'1175036093'
S'Anmol Chawla'
tp464
a(S'1105069442'
S'Sayan Sidha Das'
tp465
a(S'1235388146'
S'Narun Kakkar'
tp466
a(S'617502677'
S'Aakash Malhotra'
tp467
a(S'1549608467'
S'Raghav Taneja'
tp468
a(S'1059407092'
S'Bharat Katyayan'
tp469
a(S'1189089775'
S'Sneha Ramesh'
tp470
a(S'511624386'
S'Vyom Sati'
tp471
a(S'100001867627721'
S'Neha Bhagat'
tp472
a(S'100005701422627'
S'Shreya Malhotra'
tp473
a(S'585352441'
S'Gaurav Bhagat'
tp474
a(S'1005464293'
S'\\u00d0jay Rmg'
tp475
a(S'724923796'
S'Shivali Gupta'
tp476
a(S'100000648484281'
S'Anuj Pinyani'
tp477
a(S'1843159986'
S'Ishita Soni'
tp478
a(S'100001005648847'
S'Neha Chandra'
tp479
a(S'100000939849555'
S'Yatin Singh Godara'
tp480
a(S'100000519390621'
S'Irikaa Pilania'
tp481
a(S'1599039604'
S'Prachi Singh'
tp482
a(S'100001761852481'
S'Vishal Mehra'
tp483
a(S'596507937'
S'Mahesh Kantheti'
tp484
a(S'1451798324'
S'Mudit Mehrishi'
tp485
a(S'100001236991080'
S'Preeti Yadav'
tp486
a(S'100001868190659'
S'Somya Rai'
tp487
a(S'100001257517098'
S'Angad Walia'
tp488
a(S'618856221'
S'Hussain Lokhandwala'
tp489
a(S'100001020658321'
S'Aniket Kohli'
tp490
a(S'100000676947551'
S'Rohan Singh'
tp491
a(S'1206755939'
S'Ratul Roshan'
tp492
a(S'100002723240155'
S'Neha Bhandari'
tp493
a(S'100007684476441'
S'Divya Rathnam'
tp494
a(S'100000002224483'
S'Abhiyant Singh'
tp495
a(S'1029344896'
S'Sanchit Tyagi'
tp496
a(S'100000141008571'
S'Nisha Negi'
tp497
a(S'1066046001'
S'Chhaya Yadav'
tp498
a(S'100002983164402'
S'Pooja Yadav'
tp499
a(S'1653474942'
S'Disha Dahiya'
tp500
a(S'100001578157180'
S'Mavish Abas'
tp501
a(S'514534447'
S'Karan Bal'
tp502
a(S'523339881'
S'Prachi Chaudhary'
tp503
a(S'1126531215'
S'Sana Jain'
tp504
a(S'100002277118949'
S'Sreedharan Nair'
tp505
a(S'100000508740983'
S'Aryam Joshi'
tp506
a(S'1240939751'
S'Akhil Tolani'
tp507
a(S'100003958474654'
S'Siddharth Shankar'
tp508
a(S'100000572406467'
S'Saumya Dubey'
tp509
a(S'1563997220'
S'Anahita Jhunja'
tp510
a(S'100000484998437'
S'Chris Mathai'
tp511
a(S'1485200646'
S'Mohit Rana'
tp512
a(S'1212522149'
S'Mayank Manchanda'
tp513
a(S'1686255319'
S'Rinav Sachdev'
tp514
a(S'100003937857696'
S'Tanya Bhatia'
tp515
a(S'1054330794'
S'Siddharth Taneja'
tp516
a(S'100000800312116'
S'Mansi Gupta'
tp517
a(S'100001754996675'
S'Fatima Bahraini'
tp518
a(S'100000598147212'
S'Simran Nandwani'
tp519
a(S'100000044575279'
S'Amol Agarwal'
tp520
a(S'1492163139'
S'Varun Sharawat'
tp521
a(S'100005119000209'
S'Saumya Dubey'
tp522
a(S'1348406983'
S'Nitish Rajput'
tp523
a(S'100000074817754'
S'Chhavi Joshi'
tp524
a(S'527482457'
S'David Art Wales'
tp525
a(S'1062513775'
S'Bharti Bahmani'
tp526
a(S'100002367477468'
S'Devesh Maheshwari'
tp527
a(S'1018636600'
S'Pranay Billie Sharma'
tp528
a(S'100002376839000'
S'Bhavya Armaan Bhardwaj'
tp529
a(S'608687598'
S'Nilesh Singh Rawat'
tp530
a(S'100000001410447'
S'Paranjay Gulati'
tp531
a(S'100001064497674'
S'Amit Gupta'
tp532
a(S'100000214646443'
S'Kritika Khanna'
tp533
a(S'533148969'
S'Rohit Yadav'
tp534
a(S'100000429393026'
S'Aditi Jain'
tp535
a(S'660212152'
S'Shubhadeep Roy'
tp536
a(S'100000023197777'
S'Shantam Sharma'
tp537
a(S'100001661773041'
S'Riya Gupta'
tp538
a(S'1033052326'
S'Mohit Yadav'
tp539
a(S'1116845199'
S'Sanchet Pardal Kumar'
tp540
a(S'1339893858'
S'Aakarsha Sivaramakrishnan'
tp541
a(S'1819821354'
S'Kshitiz Mor'
tp542
a(S'100002889009514'
S'Tanvi Yadav'
tp543
a(S'698240765'
S'Shantanu Srivstava'
tp544
a(S'100000960373860'
S'Spriha Singh'
tp545
a(S'100003794345927'
S'Kavya Makkar'
tp546
a(S'100001621025546'
S'Akhil Sharma'
tp547
a(S'100001522123274'
S'Maxi Huber'
tp548
a(S'100001613656449'
S'Ayashka Yadav'
tp549
a(S'1843672897'
S'Bharat Yadav'
tp550
a(S'100001004840387'
S'Nishant Agrawal'
tp551
a(S'100000691151070'
S'Aakriti Batra'
tp552
a(S'1329366139'
S'Akash Gupta'
tp553
a(S'1720980350'
S'Manish Sharma'
tp554
a(S'100001591737555'
S'Annu Yadav'
tp555
a(S'1476362194'
S'Akshita Singh'
tp556
a(S'100003242076495'
S'Ek Aur'
tp557
a(S'100004158248213'
S'Kajal Chouhan'
tp558
a(S'100000674641185'
S'Aditya Mudgal'
tp559
a(S'100001055598551'
S'Ansh Gulia'
tp560
a(S'100001739242378'
S'Anshika Goel'
tp561
a(S'605096329'
S'Rohit Yadav'
tp562
a(S'100002455800604'
S'Sherrin Ahuja'
tp563
a(S'518254936'
S'Chandradeep Shaktawat'
tp564
a(S'1610163682'
S'Kritika Saxena'
tp565
a(S'1079919372'
S'Vaibhav Bhola'
tp566
a(S'1209661496'
S'Shubham Senger'
tp567
a(S'1389348019'
S'Pallavi Kumar'
tp568
a(S'528022614'
S'Siddharth Marya'
tp569
a(S'100004208978137'
S'Apeksha Sharma'
tp570
a(S'100001200920581'
S'Shanky Mutreja'
tp571
a(S'100003603710763'
S'Suryanshu Kumar'
tp572
a(S'1412558119'
S'Saivani Bobba'
tp573
a(S'100002845976573'
S'Riya Singh'
tp574
a(S'100001738873962'
S'Hira Khan'
tp575
a(S'1580043892'
S'Nikhil Malik'
tp576
a(S'100001020833282'
S'Sabeeha Singh'
tp577
a(S'1061569305'
S'Siddhant Ralhan'
tp578
a(S'1630681323'
S'Bhuwan Chauhan'
tp579
a(S'691691186'
S'Samraat Sharma'
tp580
a(S'100000983616509'
S'Priya Sharma'
tp581
a(S'100000275401990'
S'Anish Surana'
tp582
a(S'100001377499181'
S'Pankhuri Sharma'
tp583
a(S'1344200409'
S'Tanvi Varshney'
tp584
a(S'1514414601'
S'Arwal Dhar'
tp585
a(S'100000687026468'
S'Rahul Bhatnagar'
tp586
a(S'697297291'
S'Radhika Nair'
tp587
a(S'100002374926640'
S'Dushyant Kumar Dushu'
tp588
a(S'1812284228'
S'Parth Sehgal'
tp589
a(S'100002303504407'
S'Koyel Roy'
tp590
a(S'1531507526'
S'Ruchi Choudhary'
tp591
a(S'612785549'
S'Kirthana Singh'
tp592
a(S'100000579845395'
S'Rishika Kumar'
tp593
a(S'1758594290'
S'Bhavya Bhatia'
tp594
a(S'100002822599541'
S'Akshara Bhattacharya'
tp595
a(S'1487464003'
S'Abhishek Joshi'
tp596
a(S'100003854763242'
S'Aarzo Rao'
tp597
a(S'100000736427590'
S'Moksh Amorph Sharma'
tp598
a(S'1273744629'
S'Himanshu Rajawat'
tp599
a(S'100004427701975'
S'Yadvender Yadav'
tp600
a(S'1459010933'
S'Paarth Kanwar'
tp601
a(S'100004030800469'
S'Kajal Singh'
tp602
a(S'1405800466'
S'Bhanu Jindal'
tp603
a(S'100003995715462'
S'Jyoti Lohia'
tp604
a(S'1645957329'
S'Aakash Thakran'
tp605
a(S'100000164396443'
S'Upasna Singhania'
tp606
a(S'100002010174503'
S'Tuhin Reva Kapoor'
tp607
a(S'100001074253603'
S'Pearly Jerry'
tp608
a(S'1407716922'
S'Arko Dey'
tp609
a(S'100002700668375'
S'Aashian Ahluwalia'
tp610
a(S'753107691'
S'Yatharth Vashisht'
tp611
a(S'100003947259553'
S'Yashvi Dhal'
tp612
a(S'1618599662'
S'Arun Tayal'
tp613
a(S'1224661475'
S'Mikasha Sinha'
tp614
a(S'1700193348'
S'Angad Khanna'
tp615
a(S'1147717913'
S'Neha Kumari'
tp616
a(S'100002813810285'
S'Aishwary Keswani'
tp617
a(S'100001650303536'
S'Prateek Lalwani'
tp618
a(S'100000052041936'
S'Rakhi Chopra'
tp619
a(S'100000026314320'
S'Chetanya Kandhari'
tp620
a(S'1604485383'
S'Prakriti Malhotra'
tp621
a(S'1323450236'
S'\\u0905\\u092d\\u093f\\u0937\\u0947\\u0915 \\u092e\\u0932\\u093f\\u0915'
tp622
a(S'100001367929791'
S'Pritee Kamthe'
tp623
a(S'100003866934734'
S'Arpita Nair'
tp624
a(S'100003843113566'
S'Riya Alagh'
tp625
a(S'100002689879986'
S'Nishi Malhotra'
tp626
a(S'1041927103'
S'Tarushi Ravindra'
tp627
a(S'100001519980560'
S'Somya Vohra'
tp628
a(S'1804290790'
S'Yagini Aggarwal'
tp629
a(S'620887802'
S'Yash Choubey'
tp630
a(S'100001479362249'
S'Aditya Pratap'
tp631
a(S'100001877924420'
S'Sumer Joshua'
tp632
a(S'100003536046976'
S'Manu Singh'
tp633
a(S'100003142502014'
S'Swati Chaurasia'
tp634
a(S'1305885898'
S'Vivek Chaudhuri'
tp635
a(S'100002076660376'
S'Shubham Shrivastava'
tp636
a(S'1063582875'
S'Ayushi Singh'
tp637
a(S'1771582643'
S'Chirag Gambhir'
tp638
a(S'1658026731'
S'Gagan Bhardwaj'
tp639
a(S'1019200521'
S'Aneesh Sharma'
tp640
a(S'1430978581'
S'Nishtha Yadav'
tp641
a(S'100001106215192'
S'Aman Srivastava'
tp642
a(S'807332645'
S'Rahul Yadav'
tp643
a(S'100002253090089'
S'Anoushka Datta'
tp644
a(S'100002342304757'
S'Paras Sharma'
tp645
a(S'1044401408'
S'Mihir Nagpal'
tp646
a(S'1086326174'
S'Abdullah Mahmood'
tp647
a(S'1144656086'
S'Ankita Gaur'
tp648
a(S'1476817791'
S'Aditya Sahu'
tp649
a(S'100002056969983'
S'Shaurya Saxena'
tp650
a(S'100000207642996'
S'Saransh Dhar'
tp651
a(S'1094715907'
S'Yasharth Menon'
tp652
a(S'100004627061710'
S'Raavee Nangia'
tp653
a(S'1451472806'
S'Agrim Singhal'
tp654
a(S'100000069663640'
S'Hargun Kohli'
tp655
a(S'100000188952177'
S'Rishabh Kr'
tp656
a(S'100002107930823'
S'Nausheen Akhtar'
tp657
a(S'1466996173'
S'Tushar Ummat'
tp658
a(S'100000638646925'
S'Pawan Tirthani'
tp659
a(S'606903382'
S'Akshaya Pattanayak'
tp660
a(S'1265140146'
S'Tanya Kundu'
tp661
a(S'1629554966'
S'Mohit Maruwada'
tp662
a(S'645514299'
S'Anirudh Singh'
tp663
a(S'1464961297'
S'Chiraag Khurana'
tp664
a(S'100000192006558'
S'Aditya Duggal'
tp665
a(S'100002259674900'
S'Simran Oberoi'
tp666
a(S'100005231892516'
S'Srishti Srivastava'
tp667
a(S'100001038657642'
S'Shruti Dubey'
tp668
a(S'1365931656'
S'Kshitij Kasturia'
tp669
a(S'1704951378'
S'Rishi Sangwan'
tp670
a(S'1041773670'
S'Sohrab Gill'
tp671
a(S'1468207983'
S'Vidhi Arora'
tp672
a(S'1222658597'
S'Vivaan Misra'
tp673
a(S'738201763'
S'Rohan Bhutani'
tp674
a(S'659746213'
S'Shravan Naik'
tp675
a(S'100000906574714'
S'Abhishek Malhotra'
tp676
a(S'1219581211'
S'Nikita Singh Verma'
tp677
a(S'564489365'
S'Jayesh Joshi'
tp678
a(S'100000949053908'
S'Prabhu Kapur'
tp679
a(S'1814032856'
S'Devendra Kumar'
tp680
a(S'100001267156293'
S'Pranav Raj'
tp681
a(S'100001605726514'
S'Tejas Monga'
tp682
a(S'100001240770006'
S'Sachin Arora'
tp683
a(S'1411347458'
S'Piyusha Singh'
tp684
a(S'1520145871'
S'Subhani Chugh'
tp685
a(S'1179682849'
S'Mehul Arora'
tp686
a(S'1172601219'
S'Amol Datta'
tp687
a(S'100000097802980'
S'Vivek Shrestha'
tp688
a(S'693731652'
S'Harshman Singh'
tp689
a(S'548962699'
S'Rupal Bhagat'
tp690
a(S'662141558'
S'Dev Saini'
tp691
a(S'100000376688485'
S'Kshitiz Dwivedy'
tp692
a(S'1815505247'
S'Anan Batra'
tp693
a(S'1346074034'
S'Yadav Rishabh'
tp694
a(S'1812044224'
S'Chahat Gupta'
tp695
a(S'1183876711'
S'Aditya Sanghi'
tp696
a(S'100002275957055'
S'Sushant Garg'
tp697
a(S'100001209556436'
S'D\\u00e9v\\u00e3\\u0161h\\u00ed\\u0161h Jh\\u00e5v\\u00e8r\\u00ef'
tp698
a(S'100000012447825'
S'Harshul Garg'
tp699
a(S'1321353692'
S'Gorkey Patwal'
tp700
a(S'100001850752697'
S'Dinesh Cool'
tp701
a(S'100000945004451'
S'Tannaz Sidhu'
tp702
a(S'1790983118'
S'Siddharth Ojha'
tp703
a(S'602245471'
S'Kartikay Dutt'
tp704
a(S'1650567730'
S'Suryaveer Sambyal'
tp705
a(S'1569294641'
S'Geethu Mattam'
tp706
a(S'100000981898948'
S'Sanjeev Singh'
tp707
a(S'1050281960'
S'Tanveer Oberoi'
tp708
a(S'100000394009083'
S'Anadi Singh'
tp709
a(S'100002977206165'
S'Amrinder Singh'
tp710
a(S'100001589592090'
S'Kartik Arora'
tp711
a(S'1518398797'
S'Shubham Sharma'
tp712
a(S'639116463'
S'Ken Ahuja'
tp713
a(S'1361764306'
S'Ankita Nangia'
tp714
a(S'1370686764'
S'Shishir Kumar'
tp715
a(S'100004283798257'
S'Aanchal Sharma'
tp716
a(S'100000054699243'
S'Rishabh Sureka'
tp717
a(S'100002525644868'
S'Ruchi Sharma'
tp718
a(S'100001811736714'
S'Kumar Shrey'
tp719
a(S'1059474613'
S'Yashima Puri'
tp720
a(S'1610304891'
S'Pooja Luthra'
tp721
a(S'1254685286'
S'Ayush Jalan'
tp722
a(S'1429622370'
S'Advait Jayant'
tp723
a(S'1207122131'
S'Chirag Deipakk'
tp724
a(S'1678266844'
S'Dron Mahendran'
tp725
a(S'1789453738'
S'Sankalp Gupta'
tp726
a(S'100000167137534'
S'Ashish Deshmukh'
tp727
a(S'1423365814'
S'Arushi Garg'
tp728
a(S'1349474197'
S'Akash Panickar'
tp729
a(S'1352345692'
S'Gazal Juneja'
tp730
a(S'536204277'
S'Ashish Choudhary'
tp731
a(S'100000477411054'
S'Madhav Chaudhary'
tp732
a(S'1382456700'
S'Ria Sharma'
tp733
a(S'1238368418'
S'Mehnaz Khan'
tp734
a(S'1316054490'
S'Sparsh Gupta'
tp735
a(S'100003075438362'
S'Ayanshu Kashyap'
tp736
a(S'1051956556'
S'Arjun Ahluwalia'
tp737
a(S'100002592272213'
S'Ishika Gupta'
tp738
a(S'100001314511666'
S'Shreyansh Mishra'
tp739
a(S'100001063003735'
S'Anuj Gupta'
tp740
a(S'1644260123'
S'Arunika Sangwan'
tp741
a(S'100000273029228'
S'Ekta Bijarnia'
tp742
a(S'100000943742259'
S'Darsh Singhai'
tp743
a(S'708843659'
S'Udit Jain'
tp744
a(S'100003085197023'
S'Momo Khan'
tp745
a(S'100002212869584'
S'Namam Krishna'
tp746
a(S'100001411396469'
S'Aryan Khatri'
tp747
a(S'1272016175'
S'Raghvendra Singh'
tp748
a(S'1397074406'
S'Aanchal Pinjani'
tp749
a(S'100001039000790'
S'Charvi Kataria'
tp750
a(S'1058522955'
S'Kashish Yadav'
tp751
a(S'1374060550'
S'Ajay Bijarnia'
tp752
a(S'644882649'
S'Nikita Anila Varman'
tp753
a(S'1031662520'
S'ROhan Sharma'
tp754
a(S'100000477604349'
S'Divij Papneja'
tp755
a(S'100000681667829'
S'Varun Yadav'
tp756
a(S'100001105175888'
S'Bhavya Khanna'
tp757
a(S'100000386063190'
S'Akrisht Sharma'
tp758
a(S'100002024157745'
S'Meghna Jain'
tp759
a(S'1436388641'
S'Yuvraj Kanwar'
tp760
a(S'618182444'
S'Manpreet Singh Dhillon'
tp761
a(S'100000660994462'
S'Arnav Dev'
tp762
a(S'1441238787'
S'Arjun Bains'
tp763
a(S'100000500965100'
S'Cristanio Ronaldo'
tp764
a(S'1796719704'
S'Apoorva Somani'
tp765
a(S'100000097928154'
S'Himanshu Kandpal'
tp766
a(S'1178725449'
S'Yashita Sharma'
tp767
a(S'665846362'
S'Taha Mohd'
tp768
a(S'722322369'
S'Ankush Kaul'
tp769
a(S'100000283158595'
S'Suryaa Bhatia'
tp770
a(S'1470476828'
S'Shreyasi Pathak'
tp771
a(S'100001461693416'
S'Ranjini Bhaduri'
tp772
a(S'1038529740'
S'Udyan Arora'
tp773
a(S'1015436743'
S'Aneesh Aryan Adlakha'
tp774
a(S'1365763581'
S'Hamsa Raina'
tp775
a(S'1308765318'
S'Vaishnavi Yadav'
tp776
a(S'611435584'
S'Mohammedi Saif'
tp777
a(S'100001294737788'
S'Ayan Rizvi'
tp778
a(S'100003666490896'
S'Surabhi Mitra'
tp779
a(S'100000220800443'
S'Mukund Vatsa'
tp780
a(S'533352117'
S'Deep Zabakh'
tp781
a(S'1054000151'
S'Sonali Shankar'
tp782
a(S'695042793'
S'Apoorv Vatzz'
tp783
a(S'100000356125482'
S'Ishaani Varma'
tp784
a(S'1535479330'
S'Yugaastha Saxena'
tp785
a(S'1065592990'
S'Rahul Wahi'
tp786
a(S'100001046045384'
S'Deepali Goyal'
tp787
a(S'1519058955'
S'Bharat Bajaj'
tp788
a(S'1227795446'
S'Astha Badoni'
tp789
a(S'100000683246808'
S'Arjun Vij'
tp790
a(S'100000152396490'
S'Pranshu Singh Yadav'
tp791
a(S'1425285688'
S'Ramona Arora'
tp792
a(S'100000403286117'
S'Ishan Nema'
tp793
a(S'684433267'
S'Shagun Rathee'
tp794
a(S'100001766239699'
S'Shalu Gulia'
tp795
a(S'799788850'
S'Rishab Mittal'
tp796
a(S'1460245783'
S'Jatin MahaJan'
tp797
a(S'100000174466039'
S'Rishabh Kumar'
tp798
a(S'100001000929296'
S'Aditai Puri'
tp799
asS'id'
p800
S'1051006929'
p801
s.