(dp1
S'friends'
p2
(lp3
(S'1588347671'
S'Vivek Prakash'
tp4
a(S'100001708824460'
S'Mahaling Mahendrakumar'
tp5
a(S'1325319960'
S'Brahma Prakash Gaur'
tp6
a(S'1136147044'
S'Anand Kishore'
tp7
a(S'100002282413866'
S'Chanchal Bhu'
tp8
a(S'618177720'
S'Sanjay Kumar'
tp9
a(S'100004430381633'
S'Shahi Sameer'
tp10
a(S'1539792196'
S'Swati Chaturvedi'
tp11
a(S'100005624472251'
S'Preeta Harit'
tp12
a(S'724163872'
S'Sanjiv Singh'
tp13
a(S'740282151'
S'Kishor Mankar'
tp14
a(S'100001238804568'
S'Medisetti Tirumala Kumar'
tp15
a(S'100000612704450'
S'Eunice Chawngthu'
tp16
a(S'624138380'
S'Manoj Kureel'
tp17
a(S'100003656583685'
S'Pramod Shukla'
tp18
a(S'1361925689'
S'Meenakshi J Goswami'
tp19
a(S'100001963035825'
S'Gm Doss'
tp20
a(S'100003867079745'
S'Narottam Mishra'
tp21
a(S'780843935'
S'Ashish Abrol'
tp22
a(S'1325190196'
S'Rajeev P Singh'
tp23
a(S'1768792900'
S'Daya Sagar'
tp24
a(S'1505420813'
S'Sanjay Kumar'
tp25
a(S'1004011442'
S'Shivani Singh'
tp26
a(S'100000107608498'
S'Shambhunath Shukla'
tp27
a(S'1367111666'
S'Sadhna Shanker'
tp28
a(S'555812484'
S'Sanjay Bahadur'
tp29
a(S'1577889574'
S'Ajay Pandey'
tp30
a(S'100001397974468'
S'David Z. Chawngthu'
tp31
a(S'100000405043117'
S'Kamal Yadav'
tp32
a(S'821843851'
S'Nirupama Kotru'
tp33
a(S'567708456'
S'Shishir Srivastava'
tp34
a(S'734608651'
S'Anadee Nath Misshra'
tp35
a(S'517619013'
S'Madhup Mohta'
tp36
a(S'100001167826804'
S'Kanhiya Lal'
tp37
a(S'1497690573'
S'Sanjeev Sharma'
tp38
a(S'588691978'
S'Monika Dhami'
tp39
a(S'100006313929082'
S'Sudhir Chandra'
tp40
a(S'100002290867179'
S'Omprakash Rahi'
tp41
a(S'1268415419'
S'Sangeeta Singh'
tp42
a(S'1712439096'
S'Uttam Kumar Bansal'
tp43
a(S'1120137502'
S'Satish Kumar'
tp44
a(S'100002221931926'
S'Sunita Singh'
tp45
a(S'652924929'
S'Shashi Bhushan Shukla'
tp46
a(S'100004714080612'
S'Arjun Singh'
tp47
a(S'100002020612984'
S'Chandraprakash Saroj'
tp48
a(S'1804978259'
S'Narender Gautam'
tp49
a(S'789468621'
S'Arun S Bhatnagar'
tp50
a(S'1222959180'
S'Suresh Yadav'
tp51
a(S'673830812'
S'Chetan W. Bhende'
tp52
a(S'663196732'
S'Vimalendu Verma'
tp53
a(S'637183578'
S'Suneeta Nanda'
tp54
a(S'100000704382452'
S'Ranjeeta Sandeep'
tp55
a(S'589436460'
S'Rajinder Singh Bhalla'
tp56
a(S'740988464'
S'Vivek Raj Singh Kukrele'
tp57
a(S'100000611075409'
S'Feroz Khan'
tp58
a(S'1358205707'
S'Uma Venkatesan'
tp59
a(S'1126100480'
S'Simrann Bhularr'
tp60
a(S'1546454033'
S'Virender Khanna'
tp61
a(S'1064440639'
S'Anupama Anand'
tp62
a(S'1037131183'
S'Vijay Kumar'
tp63
a(S'100002205555981'
S'Giriraj Kishore'
tp64
a(S'687991299'
S'Anurag Srivastava'
tp65
a(S'1219492170'
S'Chandra Shekhar'
tp66
a(S'1283578648'
S'Shalini Bhargava Kaushal'
tp67
a(S'688072801'
S'Sameer Sharma'
tp68
a(S'1768257123'
S'Rashmita Jha'
tp69
a(S'612704316'
S'Abhinav Gupta'
tp70
a(S'100002672940718'
S'Neeraj Khera'
tp71
a(S'100000536774168'
S'Malini Awasthi'
tp72
a(S'678921450'
S'Mini Verma'
tp73
a(S'1115496790'
S'Amrita Ranjan'
tp74
a(S'100000236243314'
S'Ashwani Saxena'
tp75
a(S'100001963308660'
S'Alok Lahoti'
tp76
a(S'1496400927'
S'Shyam Benupani'
tp77
a(S'100001216597401'
S'Nasir Ali'
tp78
a(S'1052958592'
S'Adarsh Modi'
tp79
a(S'100000188213028'
S'Rina Sonowal'
tp80
a(S'100002588226238'
S'Ishtiyaque Ahmed'
tp81
a(S'100000280374252'
S'Anand Upadhyay'
tp82
a(S'100002779621951'
S'DrDipak Ripote'
tp83
asS'id'
p84
S'1052821370'
p85
sS'name'
p86
S'Ajay Kumar'
p87
s.