(dp1
S'friends'
p2
(lp3
(S'100002901293591'
S'Ahmad Jee'
tp4
a(S'1053742932'
S'Dilawar Khan'
tp5
a(S'100004433774425'
S'Faizan Sheraz'
tp6
asS'id'
p7
S'1053742932'
p8
sS'name'
p9
S'Dilawar Khan'
p10
s.