(dp1
S'name'
p2
S'Amitrajeet Mukherjee'
p3
sS'current_class'
p4
S'india'
p5
sS'home_class'
p6
Vhometown, street number 104, sub-central business district(action area 1), action area i, rajarhat newtown, kolkata, west bengal 700156, india
p7
sS'home_text'
p8
VCalcutta, India\u000aHometown
p9
sS'current_link'
p10
Vhttps://www.facebook.com/l.php?u=https%3A%2F%2Fwww.bing.com%2Fmaps%2Fdefault.aspx%3Fv%3D2%26pc%3DFACEBK%26mid%3D8100%26where1%3D28.613900916609%252C%2B77.207794189453%26name%3DNew%2BDelhi%252C%2BIndia%26mkt%3Den-IN&h=9AQG9hyq8&s=1
p11
sS'home_link'
p12
Vhttps://www.facebook.com/l.php?u=https%3A%2F%2Fwww.bing.com%2Fmaps%2Fdefault.aspx%3Fv%3D2%26pc%3DFACEBK%26mid%3D8100%26where1%3D22.569700842892%252C%2B88.368530273438%26name%3DCalcutta%252C%2BIndia%26mkt%3Den-IN&h=UAQGiDwqb&s=1
p13
sS'current_text'
p14
VNew Delhi, India\u000aCurrent City
p15
sS'friends'
p16
(lp17
(S'100002346818673'
S'RAchna Dodia'
tp18
a(S'100000429518087'
S'Ashita Birawat'
tp19
a(S'1525542949'
S'Tavish Tejas'
tp20
a(S'1078196188'
S'Shehzad Shaikh'
tp21
a(S'100000951274566'
S'Suveer Punjabi'
tp22
a(S'100000540954707'
S'Rounak Bose'
tp23
a(S'100000880221074'
S'Aiman Hashmi'
tp24
a(S'100002398004394'
S'Smit Shah'
tp25
a(S'100000609043373'
S'Ashok Vardhan'
tp26
a(S'1115209012'
S'Sneha Khaund'
tp27
a(S'100002318048588'
S'Debjit Roy'
tp28
a(S'100001021251393'
S'Dhrumin Khatri'
tp29
a(S'1162558290'
S'Anushka Rishi'
tp30
a(S'100000547443477'
S'Pranay Gianchandani'
tp31
a(S'753781186'
S'Ut-sav Chitroda'
tp32
a(S'1479030248'
S'Krushmi Gandhi'
tp33
a(S'100000302594617'
S'Satyendra Badhe'
tp34
a(S'596146831'
S'Karen Grace Soans'
tp35
a(S'100001824347094'
S'Christy Perayil'
tp36
a(S'100002290508627'
S'Deiviga Murugan'
tp37
a(S'702363100'
S'Madhura Banerjee'
tp38
a(S'100000119760938'
S'Sanah Sheikh'
tp39
a(S'100003057876468'
S'Ankit Gupta'
tp40
a(S'779557067'
S'Aniketh Nambiar'
tp41
a(S'1406714698'
S'Kunal Shah'
tp42
a(S'1195802472'
S'Jharna Chinoy'
tp43
a(S'100000977829585'
S'Dhanraj Karel'
tp44
a(S'100004993664381'
S'Naresh Kumar'
tp45
a(S'732336459'
S'Dhruv Gopinath'
tp46
a(S'1283851765'
S'Aarti Kuber'
tp47
a(S'1283068259'
S'Jerrin George'
tp48
a(S'1449529423'
S'Mariam Cherian'
tp49
a(S'1122183097'
S'Yash Makhija'
tp50
a(S'1686957194'
S'Simran Pokar'
tp51
a(S'100002260745396'
S'Shardul Donde'
tp52
a(S'1269973635'
S'Shubham Vidyarthi'
tp53
a(S'100000562127737'
S'Bhavin Shah'
tp54
a(S'668523365'
S'Ashley Np'
tp55
a(S'1724651507'
S'Pingala Chakravarty'
tp56
a(S'1324490035'
S'Alazhar Rangwala'
tp57
a(S'1165328138'
S'Bianca Menezes'
tp58
a(S'100000637920880'
S'Wani Adnan'
tp59
a(S'1119541306'
S'Archana Nair'
tp60
a(S'1298951796'
S'Kshitiz Jaggi'
tp61
a(S'100000710286747'
S'Pratik Rajput'
tp62
a(S'1067409573'
S'Abhishek Chugh'
tp63
a(S'100000239588259'
S'Jairaj Chandhok'
tp64
a(S'1491499430'
S'Ak Tho'
tp65
a(S'1794726139'
S'Shivira Mukerji'
tp66
a(S'633694607'
S'Samyukta Rathna Venkatraman'
tp67
a(S'100003810683351'
S'Mehvish Rather'
tp68
a(S'1083757394'
S'Nadeem Afroz'
tp69
a(S'1275570153'
S'Aman Charles Luke'
tp70
a(S'100002862914939'
S'Muhammed Seena Sulthan'
tp71
a(S'1433994034'
S'Siddharth Chakravortty'
tp72
a(S'100002220801829'
S'Karan Singh'
tp73
a(S'100000170062516'
S'Idg StStephens'
tp74
a(S'100000188242595'
S'Sukiran Dey'
tp75
a(S'100000825754693'
S'Miraan Shaikh'
tp76
a(S'100006774969855'
S'Mihira Kallahalla'
tp77
a(S'100000390302124'
S'Neha Shah'
tp78
a(S'100001534816738'
S'Soumyajit Kar'
tp79
a(S'100000010159653'
S'Sujoy Ghosh'
tp80
a(S'100000541495129'
S'Animesh Madhav'
tp81
a(S'1820994232'
S'Raj Shah'
tp82
a(S'1593084569'
S'Sachu Sanil Chemmalakuzhy'
tp83
a(S'100000115333389'
S'Harsha Jugat'
tp84
a(S'100000380297567'
S'Kashif Ahmed'
tp85
a(S'1516565189'
S'Ahana Mallick'
tp86
a(S'1609593629'
S'Jai Punjabi'
tp87
a(S'553663713'
S'Rahul Roy'
tp88
a(S'836679900'
S'Namitha Sadanand'
tp89
a(S'100002660655416'
S'Prakhar Srivastava'
tp90
a(S'100000400382479'
S'Gamanjit Sethi'
tp91
a(S'100000633649402'
S'George Joseph'
tp92
a(S'1751782310'
S'Suhayl Dholkawala'
tp93
a(S'1179458004'
S'Shreya Raina'
tp94
a(S'100002932770180'
S'Kaustav Chakraborty'
tp95
a(S'100002594005480'
S'Suchismita Panda'
tp96
a(S'100000119131843'
S'Kush Upadhyay'
tp97
a(S'549683591'
S'Ronak Khurana'
tp98
a(S'100000835726216'
S'Antara Vaidyanathan'
tp99
a(S'1195644502'
S'Simran Dhairyawan'
tp100
a(S'649274774'
S'Tharun Thomas'
tp101
a(S'100001205169608'
S'Vidit Shah'
tp102
a(S'100004447146054'
S'Thayee Krishna'
tp103
a(S'100000317905830'
S'Nidhi Shah'
tp104
a(S'100000157480578'
S'Namit Bandi'
tp105
a(S'531721238'
S'Sumedha Chakravarthy'
tp106
a(S'100001701530163'
S'Ritika Singh'
tp107
a(S'1407110452'
S'Suman Deb'
tp108
a(S'100003712498606'
S'Dinesh Kakran'
tp109
a(S'100000045652066'
S'Sonali Verma'
tp110
a(S'100000438408220'
S'Anas Shaikh'
tp111
a(S'100007726265194'
S"Stephen's StudentsCollective"
tp112
a(S'100000530755650'
S'Sudipto Baroi'
tp113
a(S'1092411393'
S'Archit Jagtap'
tp114
a(S'1708271775'
S'Deepesh Ghosh'
tp115
a(S'100000821204880'
S'Renish Geevarghese Abraham'
tp116
a(S'100001760382432'
S'Kedar Kelkar'
tp117
a(S'1382662134'
S'Garreth Pereira'
tp118
a(S'100001868957766'
S'Monica Thomas'
tp119
a(S'1155805131'
S'Deba Jagannath'
tp120
a(S'753547416'
S'Himaki Kumari'
tp121
a(S'1551867717'
S'Rahul Bajaj'
tp122
a(S'1000683989'
S'Mehk Chakraborty'
tp123
a(S'1486300215'
S'Simran Dokania'
tp124
a(S'748064781'
S'Akshay Gupta'
tp125
a(S'100004677901380'
S'Heer Joisher'
tp126
a(S'100000955126078'
S'Leonne Castellas'
tp127
a(S'100002259220959'
S'Shreya Chandra'
tp128
a(S'100006705941915'
S'Alveena Tariq'
tp129
a(S'1654410633'
S'Rohan Mehta'
tp130
a(S'1707971776'
S'Azir Khan'
tp131
a(S'729563595'
S'Karishma Sethi'
tp132
a(S'1081308218'
S'Neil Prabhudesai'
tp133
a(S'695355615'
S'Rajat Maheshwari'
tp134
a(S'1370619035'
S'Uroovaak Taze Vora'
tp135
a(S'1062942034'
S'Kesav Krishnan'
tp136
a(S'1635733487'
S'Siddharth Babani'
tp137
a(S'1398108331'
S'Chandraneev Das'
tp138
a(S'546193431'
S'Vidhi Shah'
tp139
a(S'100000542827768'
S'Arsalaan Dhunna'
tp140
a(S'100001120867282'
S'Abhinav Jha'
tp141
a(S'100000102652717'
S'Debobroto Sensharma'
tp142
a(S'100001830495790'
S'Rachita Dash'
tp143
a(S'100001213338986'
S'Halak Shah'
tp144
a(S'1002425121'
S'Bhaumik Shah'
tp145
a(S'1654061172'
S'Pranav Pai'
tp146
a(S'1248144914'
S'Ayan Das Sarma'
tp147
a(S'100001455882711'
S'Ashwin Kanan'
tp148
a(S'1021426180'
S'Aamir Rangwalla'
tp149
a(S'100000784300353'
S'Abhishek Yadav'
tp150
a(S'100001059912619'
S'Raja Pandit'
tp151
a(S'100001936274353'
S'Juhi Verma'
tp152
a(S'100000246384525'
S'Abhinav Joshi'
tp153
a(S'1610981993'
S'Sagar Wadhwa'
tp154
a(S'1135038140'
S'Trisha Jan'
tp155
a(S'1049578719'
S'Kahkasha Sarguroh'
tp156
a(S'100002305270065'
S'Manisha Singh'
tp157
a(S'1676772394'
S'Jordan Arjun Soans'
tp158
a(S'1254549471'
S'Souradeep Das'
tp159
a(S'1336206461'
S'Yash Rupani'
tp160
a(S'100000572821134'
S'Parth Loliyania'
tp161
a(S'738355560'
S'Jinu Kochar'
tp162
a(S'1489549461'
S'Aman Ali'
tp163
a(S'1530261149'
S'Vedant Modi'
tp164
a(S'757003812'
S'Karan Rijhwani'
tp165
a(S'1145261849'
S'Henry Gomes'
tp166
a(S'1572344873'
S'Arjun Dev'
tp167
a(S'100006728972416'
S'Apoorva Dimri'
tp168
a(S'1409160633'
S'Ahana Roy Chowdhury'
tp169
a(S'100006428391952'
S'Mitrajyoti Ghosh'
tp170
a(S'1584135912'
S'Ritesh Bhalla'
tp171
a(S'100002575588096'
S'Jaideep Pandey'
tp172
a(S'100001323811985'
S'Ojas Rahate'
tp173
a(S'100002534448098'
S'Vikas Bhati'
tp174
a(S'1017753708'
S'Pratik Walinjkar'
tp175
a(S'100002391288281'
S'Darshanam Jude Lama'
tp176
a(S'100000101628559'
S'Aman Chandiramani'
tp177
a(S'707912069'
S'Ayush Ranjan'
tp178
a(S'744979670'
S'Prithvi Singh'
tp179
a(S'1412176362'
S'Saniya Gupta'
tp180
a(S'1489032986'
S'Kunal Chhabria'
tp181
a(S'100006403172065'
S'Ajay Kumar'
tp182
a(S'100002218873536'
S'Yamini Agarwal'
tp183
a(S'100002364306917'
S'Ashlin James'
tp184
a(S'1283747657'
S'Chris Damien Dsouza'
tp185
a(S'100001403158707'
S'Daisy Mowke'
tp186
a(S'100002711176272'
S'Sandeep Marella'
tp187
a(S'550507443'
S'Ayesha Sheth'
tp188
a(S'100002930470718'
S'Tauheed Haqqani'
tp189
a(S'100001365403199'
S'Afsar Jalaluddin'
tp190
a(S'100000093876452'
S'Farkhanda Zahoor'
tp191
a(S'1647833154'
S'Siddhi Kulkarni'
tp192
a(S'100001332245560'
S'Ifra Jan'
tp193
a(S'1231531483'
S'John Biju'
tp194
a(S'100001013875216'
S'Utsav Bhatnagar'
tp195
a(S'1672196479'
S'Tanaiy Tewari'
tp196
a(S'683990355'
S'Iraj Kumar'
tp197
a(S'1541046848'
S'Khushboo Mulani'
tp198
a(S'100004107336413'
S'Juhi Prasad'
tp199
a(S'558576443'
S'Mohammed Zeeshan'
tp200
a(S'1790164271'
S'Syed Faizan Bukhari'
tp201
a(S'1745587305'
S'Sambit Mohanty'
tp202
a(S'100002260215655'
S'Abhishek Deshwal'
tp203
a(S'1258459401'
S'Rishabh Shetty'
tp204
a(S'716673406'
S'Malvika Srivastava'
tp205
a(S'100000405680350'
S'Leila Gautham'
tp206
a(S'100000045124845'
S'Abhijeet A Kalokhe'
tp207
a(S'1328145572'
S'Anurag Banerjee'
tp208
a(S'100000662080552'
S'Dimple Talreja'
tp209
a(S'100003063529667'
S'Gopal Shah'
tp210
a(S'100000599921047'
S'Akhil Amin'
tp211
a(S'665655196'
S'Neha George'
tp212
a(S'100002568023704'
S'Saima Feroz'
tp213
a(S'100000623036104'
S'Ayush Singh'
tp214
a(S'100000934338364'
S'Jordan Kinchum Tshering Namchu'
tp215
a(S'596382089'
S'Apoorv Avram'
tp216
a(S'100002212755082'
S'Rushik Parajia'
tp217
a(S'100001867507711'
S'Leah Chrestien'
tp218
a(S'1241531719'
S'Neal Gosalia'
tp219
a(S'1405621722'
S'Vedangi Pathak'
tp220
a(S'100002442782792'
S'Ira Khan'
tp221
a(S'100002016480123'
S'Hunar Dhingreja'
tp222
a(S'100000432111628'
S'Karan Manghnani'
tp223
a(S'100004791462268'
S'Dhiru Yadav'
tp224
a(S'100000585782702'
S'Henna Thakkur'
tp225
a(S'100003777148412'
S'Athira George'
tp226
a(S'1581939705'
S'Howard Waserman'
tp227
a(S'1466341106'
S'Rahul Sharma'
tp228
a(S'1443341392'
S'Satyacharan Gupta'
tp229
a(S'100006289052020'
S'Ankit Sheokand'
tp230
a(S'100000246618729'
S'Adnan Khan'
tp231
a(S'621304082'
S'Ruchi Chaudhury'
tp232
a(S'100005910943610'
S'Megha Reddy'
tp233
a(S'100000593254449'
S'Parichay Mazumdar'
tp234
a(S'100000964298959'
S'Shreya Subramaniam'
tp235
a(S'100001757449985'
S'Nabeela Rizvi'
tp236
a(S'100006007064025'
S'Jeremy Samuel'
tp237
a(S'100003284507688'
S'Sukrita Deb'
tp238
a(S'100003014227330'
S'Wasim Ali'
tp239
a(S'1343705687'
S'Ahana Das'
tp240
a(S'100001033865395'
S'Saloni Agarwal'
tp241
a(S'1301290438'
S'Lokesh Sambhwani'
tp242
a(S'1119741245'
S'Niket Naidu'
tp243
a(S'1487946579'
S'Zaki Hasan'
tp244
a(S'1552794741'
S'Akhil Thomas'
tp245
a(S'527659039'
S'Joseph Jacob'
tp246
a(S'100000744500685'
S'Rabin Jacob'
tp247
a(S'100003809212291'
S'Madhumita Sarkar'
tp248
a(S'1348504075'
S'Benoy Stephen'
tp249
a(S'100001277934095'
S'Pratik Subhedar'
tp250
a(S'589405706'
S'Seehan Parihar'
tp251
a(S'100000774423334'
S'Vaibhav Singh'
tp252
a(S'100006436637887'
S'Shri Ram'
tp253
a(S'567941458'
S'Rhea Lopez'
tp254
a(S'100000024406568'
S'Akash Suri'
tp255
a(S'1498843352'
S'Kritika Lakhani'
tp256
a(S'1809210907'
S'Syed Jaasirah Syedain'
tp257
a(S'1401395181'
S'Nikita Dinger'
tp258
a(S'100004321441223'
S'Viresh Pratap'
tp259
a(S'1310584801'
S'Tanisha Jain'
tp260
a(S'100006510964133'
S'Aashish Jindal'
tp261
a(S'100001274210958'
S'Arijit Ghosh'
tp262
a(S'100002171601292'
S'Venkatesh Mani'
tp263
a(S'1319488390'
S'Rohan Talwar'
tp264
a(S'100003693284527'
S'Theresa John Mangalath'
tp265
a(S'1645640382'
S'Arjoonn Sharma'
tp266
a(S'1101380653'
S'Divyam Batra'
tp267
a(S'100001854344874'
S'Suzanne Santiago'
tp268
a(S'1343146654'
S'Kunal Kulkarni'
tp269
a(S'1474311755'
S'Varun Tulasi'
tp270
a(S'100002286788656'
S'Harsh Dugar'
tp271
a(S'100000995080984'
S'Abhirup Dutta'
tp272
a(S'626615327'
S'Arjun Meghe'
tp273
a(S'100003057000111'
S'Sharanya Sengupta'
tp274
a(S'618766798'
S'Aarti Anand'
tp275
a(S'100001063677102'
S'Sukrit Joshi'
tp276
a(S'702262270'
S'Danesh Contractor'
tp277
a(S'100000541599083'
S'Rawel Dmello'
tp278
a(S'838508500'
S'Sainani Aakash'
tp279
a(S'100000602468554'
S'Edwin Joseph'
tp280
a(S'603625357'
S'Palki Bhattacharyya'
tp281
a(S'1256543184'
S'Ankit Parasrampuria'
tp282
a(S'100001428010349'
S'Nanakey Kalra'
tp283
a(S'624144694'
S'Supurna Dasgupta'
tp284
a(S'100002184608321'
S'Sai Abishek Bhaskar'
tp285
a(S'100000018647701'
S'Himanshu Shekhar'
tp286
a(S'1015305532'
S'Binil Mathew'
tp287
a(S'100000012537704'
S'Krishna Parmar'
tp288
a(S'100000173378568'
S'Galen Pereira'
tp289
a(S'1312665546'
S'Yohan Nelson'
tp290
a(S'1013815559'
S'Sunil Issar'
tp291
a(S'1768280069'
S'Varun Maniar'
tp292
a(S'100004350031614'
S'Robin John'
tp293
a(S'1627732975'
S'Susan Abraham'
tp294
a(S'100001554048569'
S'Aarathi Raghuraman'
tp295
a(S'511220635'
S'Anagha Vasudevan'
tp296
a(S'661885249'
S'Atreyi Bhattacharya'
tp297
a(S'100000574193001'
S'Mohit Jain'
tp298
a(S'100000115816977'
S'Krish Solanki'
tp299
a(S'644479615'
S'Chirag Wadhwani'
tp300
a(S'100004602160180'
S'Harshit Arora'
tp301
a(S'100003038951439'
S'Rohit Kumar'
tp302
a(S'1678153702'
S'Jainee Shroff'
tp303
a(S'1710704405'
S'Akhil Binny Philip'
tp304
a(S'1628505629'
S'Namrata Mansukhani'
tp305
a(S'700342668'
S'Shashank Baliga'
tp306
a(S'1320439978'
S'Muhurt Thakur'
tp307
a(S'1366437841'
S'Saurabh Deshpande'
tp308
a(S'1554142942'
S'Shivani Murthy'
tp309
a(S'100000037643074'
S'Arnav Behera'
tp310
a(S'100001045355600'
S'Zohra Salih'
tp311
a(S'1544749856'
S'Shazad Irani'
tp312
a(S'689204524'
S'Namita Chaturvedi'
tp313
a(S'1120158389'
S'Divya Verma'
tp314
a(S'100000076947298'
S'Indrajit Roy'
tp315
a(S'100000170744280'
S'Shreyans Saruparia'
tp316
a(S'1181116465'
S'Prakruti Shah'
tp317
a(S'660646402'
S'Ankitha Acharya'
tp318
a(S'1739287088'
S'Abhiroop Ghosh'
tp319
a(S'1163114612'
S'Avinash Mathews'
tp320
a(S'1640575413'
S'Shainaz Sanket Devle'
tp321
a(S'100001591041121'
S'Prerna G Manian'
tp322
a(S'100000334102621'
S'Manasa Motamarry'
tp323
a(S'1369200704'
S'Aashima Jain'
tp324
a(S'100000167257896'
S'Aniruddha Talukdar'
tp325
a(S'100000519587260'
S'Piyush Khattar'
tp326
a(S'100000559452966'
S'Murtaza Ezzy'
tp327
a(S'100000601214455'
S'Tony Alex'
tp328
a(S'1219971745'
S'Aishwariya Sur'
tp329
a(S'755909961'
S'Fatema Dholkawala'
tp330
a(S'100000353358314'
S'Gina James'
tp331
a(S'100003162425463'
S'Shraddha Das'
tp332
a(S'1575534821'
S'Siddhant Hemnani'
tp333
a(S'100000931599193'
S'Aryan Mehtani'
tp334
a(S'1321244392'
S'Aranya Sahay'
tp335
a(S'100002607939262'
S'Apoorva Pandey'
tp336
a(S'100000619869164'
S'Anirban Ghosh'
tp337
a(S'643935118'
S'Rachael Francis'
tp338
a(S'1038135602'
S'Shreyashi Roy'
tp339
a(S'100000919014715'
S'Mihir Doshi'
tp340
a(S'100002224073966'
S'Kanishk Nahata'
tp341
a(S'100001641529746'
S'Abhi Ghosh'
tp342
a(S'596132732'
S'Charu Gupta'
tp343
a(S'1057979764'
S'Shruti Hathiramani'
tp344
a(S'602857813'
S'Rachel Issac'
tp345
a(S'100004464846253'
S'Bhupinder Singh Satpola'
tp346
a(S'1394626099'
S'Crystal Varshney'
tp347
a(S'1582154278'
S'Krish Rochlani'
tp348
a(S'1453193879'
S'Yash K Desai'
tp349
a(S'1771413412'
S'Mitali Bapat'
tp350
a(S'100003941929312'
S'Rosemary Thomas'
tp351
a(S'694180269'
S'Soumya Bahuguna'
tp352
a(S'100003848610237'
S'Sanchit Katiyar'
tp353
a(S'1131051394'
S'Jagravi Rao'
tp354
a(S'100003625499078'
S'Dias Antony Thakidiyel'
tp355
a(S'100002527440425'
S'Deepak Chauhan'
tp356
a(S'100000160928132'
S'Archita Mishra'
tp357
a(S'100001900650876'
S'Vishal Premani'
tp358
a(S'1540871363'
S'Rhea Colaco'
tp359
a(S'556978970'
S'Jagat Sohail'
tp360
a(S'1682873408'
S'Arnav Kapoor'
tp361
a(S'1074234383'
S'Shayeree Chakraborty'
tp362
a(S'100000450281573'
S'Leo Chacko'
tp363
a(S'1119361296'
S'Dev Valladares'
tp364
a(S'100000253818957'
S'Sunetraa Das'
tp365
a(S'100000011899222'
S'Aranyak Bhattacharya'
tp366
a(S'1259659172'
S'Naman Malik'
tp367
a(S'100002292668802'
S'Divya Wadhwani'
tp368
a(S'1062439600'
S'Abhisek Ghosh'
tp369
a(S'1083649262'
S'Viraj Chitroda'
tp370
a(S'1342476379'
S'Anooj Kinagi'
tp371
a(S'1524217471'
S'Sanjay Kodnani'
tp372
a(S'100000565617619'
S'Ameya Shejale'
tp373
a(S'1632404325'
S'Shannon Sequeira'
tp374
a(S'100006480866059'
S'Achyudanand Jha'
tp375
a(S'1796220171'
S'Sagnik Dutta'
tp376
a(S'100002271940945'
S'Snehanshu Sadangi'
tp377
a(S'1704108955'
S'Rashika Gupta'
tp378
a(S'772410036'
S'Reuben Jacob'
tp379
a(S'1383517848'
S'Ankita Das'
tp380
a(S'100000167101914'
S'Yash Mandlik'
tp381
a(S'659527901'
S'John Koshy'
tp382
a(S'591672152'
S'Anmol Somanchi'
tp383
a(S'1285541407'
S'Irfan Rahman'
tp384
a(S'640396374'
S'Pulin Singh'
tp385
a(S'1801430121'
S'Merin J Komban'
tp386
a(S'100000384625815'
S'Soham Mukherjee'
tp387
a(S'701481612'
S'Priya Fernandes'
tp388
a(S'100002020104286'
S'Aakriti Batra'
tp389
a(S'100000595882910'
S'Indraneel Bhattacharjee'
tp390
a(S'620065181'
S'Saumya Sethia'
tp391
a(S'100002268336187'
S'Mrunal Kokate'
tp392
a(S'1201299484'
S'Sudhir Pratap Singh Charan'
tp393
a(S'1538616467'
S'Pranav Gala'
tp394
a(S'100002248721159'
S'Alifiya Tinwala'
tp395
a(S'1180917661'
S'Aadiraj Chadha'
tp396
a(S'100004138633651'
S'Simrah Mehmood'
tp397
a(S'100002886663879'
S'Preethish Raja'
tp398
a(S'100001351338828'
S'Sam John'
tp399
a(S'1028568108'
S'Harsh Mehta'
tp400
a(S'1538773279'
S'Sujay Jadhav'
tp401
a(S'100001262928947'
S'Pulkit Joshi'
tp402
a(S'1562242557'
S'Sahil Vijan'
tp403
a(S'100004552329354'
S'Ayushi Kathayat'
tp404
a(S'1539560893'
S'Mubashshir Usmani'
tp405
a(S'711202263'
S'Tanya Mary Duckworth'
tp406
a(S'100000353798735'
S'Alisha Jagtap'
tp407
a(S'100002492256571'
S'Sania Agarwal'
tp408
a(S'1006717583'
S'Monika Pareek'
tp409
a(S'100006082593771'
S'Aparth Sachan'
tp410
a(S'1331502818'
S'Adit Salian'
tp411
a(S'100002420098784'
S'Ruchira Banerjee'
tp412
a(S'100002344397244'
S'Rahil Arora'
tp413
a(S'1227291690'
S'Tejas Cfc'
tp414
a(S'100000423993371'
S'Om Gothe'
tp415
a(S'1059110378'
S'Nidhaanjit Jain'
tp416
a(S'100002389026942'
S'Mathew Joseph'
tp417
a(S'1486661697'
S'Parth Kotak'
tp418
a(S'100006954248241'
S'Shahnawaz Afaque'
tp419
a(S'1231022848'
S'Tanishq Katke'
tp420
a(S'100002238169550'
S'Shelly Shaurya'
tp421
a(S'100000409437680'
S'Harsh Pokharna'
tp422
a(S'597933121'
S'Abel Thayil'
tp423
a(S'843632349'
S'Dhwanit Dave'
tp424
a(S'829888376'
S'Mizan Hemani'
tp425
a(S'1383362628'
S'Khamrosang Buhril'
tp426
a(S'646776540'
S'Aarav Khanna'
tp427
a(S'543832536'
S'Varun Gupta'
tp428
a(S'1103001687'
S'Ajit Deshpande'
tp429
a(S'100000402382664'
S'Raunak Jotwani'
tp430
a(S'1308962572'
S'Nainika Nihalaney'
tp431
a(S'100002270774011'
S'Kritika Lakhani'
tp432
a(S'100001269253545'
S'Shanaya Bose'
tp433
a(S'1514442149'
S'Aayush Baid'
tp434
a(S'100000449218224'
S'Essa Shaikh'
tp435
a(S'1607816508'
S'Chirag Sachanandani'
tp436
a(S'100002805072260'
S'Rangan Ghosh'
tp437
a(S'792034469'
S'Daivik Shetty'
tp438
a(S'718975252'
S'Tarunn Bhende'
tp439
a(S'100000796911882'
S'Pankti Shah'
tp440
a(S'100001496123410'
S'Varun Shukla'
tp441
a(S'1346502187'
S'Aishwarya Jamkhedkar'
tp442
a(S'558208332'
S'Vandan Churiwal'
tp443
a(S'510245314'
S'Pranay Bhargava'
tp444
a(S'1381305559'
S'Karan Shetty'
tp445
a(S'1447307312'
S'Rajith Unnikrishnan'
tp446
a(S'100002618266627'
S'Ravinder Gulia'
tp447
a(S'100000071180406'
S'Kshitij Shetty'
tp448
a(S'1132987747'
S'Kartik Sahni'
tp449
a(S'100000418173292'
S'Anwesha Basu Mallik'
tp450
a(S'1083090607'
S'Sharan Rohira'
tp451
a(S'1554276818'
S'Parthiv Parikh'
tp452
a(S'100002696102305'
S'Michelle Cherian'
tp453
a(S'531345488'
S'Awais Gazyani'
tp454
a(S'100006548860820'
S'Riddhima Yadav'
tp455
a(S'1729254855'
S'Anshu Hurkat'
tp456
a(S'828785121'
S'Harsh Bhambhani'
tp457
a(S'100000981909049'
S'Nupur Koli'
tp458
a(S'1348296171'
S'Tanya Sharma'
tp459
a(S'100005279914022'
S'Ankur Dhama'
tp460
a(S'1425242336'
S'Omkar Kulkarni'
tp461
a(S'521189130'
S'Jheel Goradia'
tp462
a(S'100002817309540'
S'Akash Daga'
tp463
a(S'100000288928082'
S'Karan Bhatia'
tp464
a(S'100000093000036'
S'PS Lina Anal Poumai'
tp465
a(S'1213572468'
S'Samyobrata Mukherjee'
tp466
a(S'1304028886'
S'Aakash Sahai'
tp467
a(S'1703305737'
S'Sooraj Saksena'
tp468
a(S'618789622'
S'Tarini Unnikrishnan'
tp469
a(S'100002978981823'
S'Harsh Tiwari'
tp470
a(S'100008223514461'
S'Ren\\u00e9 Sharanya Verma'
tp471
a(S'1518826188'
S'Nandan Parekh'
tp472
a(S'100002439950400'
S'Avantika Paul'
tp473
a(S'100001035841883'
S'Aswin Paul'
tp474
a(S'1043278457'
S'Sidhant Kamra'
tp475
a(S'619954577'
S'Dishant Lodha'
tp476
a(S'100001004293748'
S'Jayneel Doshi'
tp477
a(S'100002008038666'
S'Parvathy Parameswaran'
tp478
a(S'1501012558'
S'Palden Bhutia'
tp479
a(S'1436881120'
S'Ipshita Bijlani'
tp480
a(S'1653789801'
S'Abhra Sinha'
tp481
a(S'1773296751'
S'Alok Menime Sharma'
tp482
a(S'1537316591'
S'Vandana Kabra'
tp483
a(S'1610967330'
S'Shreya Srivastava'
tp484
a(S'1417572421'
S'Tanvi Jain'
tp485
a(S'100000879180706'
S'Megan Thomas'
tp486
a(S'100001873041319'
S'Sadiah Zahoor'
tp487
a(S'100002068461202'
S'Abin Joy'
tp488
a(S'573178639'
S'Agni Sen'
tp489
a(S'1020808304'
S'Sabah Shaikh'
tp490
a(S'1094481510'
S'Yashraj Kushwaha'
tp491
a(S'1027856097'
S'Shasti Jain'
tp492
a(S'1486631876'
S'Kedar Sawant'
tp493
a(S'1330175129'
S'Adnah Bright'
tp494
a(S'100004267690279'
S'Aastha Kumar'
tp495
a(S'1372866461'
S'Aalia Rebekah Khan'
tp496
a(S'100002187554072'
S'Namira Feroz'
tp497
a(S'1065499836'
S'Rini Choudhury'
tp498
a(S'100003969363432'
S'Burhan Delhiwala'
tp499
a(S'1566009698'
S'Namrata Ghosh'
tp500
a(S'100000934188551'
S'Varunesh Chandra'
tp501
a(S'1051962037'
S'Sarah Vahhoihniang'
tp502
a(S'1063424186'
S'Disha Desai'
tp503
a(S'1415292530'
S'Nessica Birwadkar'
tp504
a(S'1249144802'
S'Abhishek Nair'
tp505
a(S'100000955489648'
S'Jeny Yaldo'
tp506
a(S'1299066125'
S'Shrest Bhargava'
tp507
a(S'100000255430239'
S'Abraham Jose'
tp508
a(S'100004129420334'
S'Kunal Yadav'
tp509
a(S'100001336967577'
S'Debayan Saha'
tp510
a(S'100000877258057'
S'Harshit David'
tp511
a(S'1188328228'
S'Irfan Jhaveri'
tp512
a(S'100002285472301'
S'Varunkrishnan Ravi'
tp513
a(S'100000146597283'
S'Aayan Singhania'
tp514
a(S'615538383'
S'Vatsal Naresh'
tp515
a(S'100000126347005'
S'Kaushik Banerjee'
tp516
a(S'1614264361'
S'Bhaumik Bheda'
tp517
a(S'571519371'
S'Kenil Shah'
tp518
a(S'1318582477'
S'Amey Sealteam Mallapur'
tp519
a(S'653600498'
S'Bhamini Lakshminarayan'
tp520
a(S'1177255200'
S'Prateek Paul'
tp521
a(S'100005100304836'
S'Anmol Virmani'
tp522
a(S'100003163586889'
S'Areesa Peerzada'
tp523
a(S'689070503'
S'Rohil Bandekar'
tp524
a(S'1356366511'
S'Aarohi Sood'
tp525
a(S'1294324657'
S'Anwesh Patnaik'
tp526
a(S'1240955811'
S'Anushka- Kondapalli'
tp527
a(S'100006842013679'
S'Tanya Sharma'
tp528
a(S'1552752123'
S'Manan Suvarnkar'
tp529
a(S'1255028484'
S'Rohini Raja'
tp530
a(S'100002611122296'
S'Samuel Thangluai'
tp531
a(S'100002704122248'
S'Akshay G\\u00e1m\\u00e8Fr\\u00e8\\u00e1k Panwar'
tp532
a(S'623122713'
S'Cyrus Rai Ezdani'
tp533
a(S'1183634049'
S'Riddhima Sharma'
tp534
a(S'100001004032607'
S'Soham Banerjee'
tp535
a(S'100001109544275'
S'Yudhajeet Sinha'
tp536
a(S'562978989'
S'Yash Deshpande'
tp537
a(S'100001268764881'
S'Sompriya Banerjee'
tp538
asS'id'
p539
S'1063787150'
p540
s.