(dp1
S'friends'
p2
(lp3
(S'503610431'
S'Sandeep Shakya'
tp4
a(S'1572220981'
S'Sumukh Dishkyau Lohani'
tp5
a(S'1238761695'
S'Abhishek Nepal'
tp6
a(S'100000995901192'
S'Sunaina Sherchan'
tp7
a(S'1146843152'
S'Sahitya Thaman'
tp8
a(S'503459239'
S'Shristy Shakya'
tp9
a(S'100002917924172'
S'Prarthana Karmacharya'
tp10
a(S'100000283584687'
S'Ishan Bista'
tp11
a(S'100002630140103'
S'Allen Bailochan Tuladhar'
tp12
a(S'1133067823'
S'Sajan Ratna Shakya'
tp13
a(S'601290621'
S'Abhishek Shrestha'
tp14
a(S'505704662'
S'Gunjan Shakya'
tp15
a(S'100000208360903'
S'Prashant Lal Shrestha'
tp16
a(S'100004048604683'
S'Pranisha Sharma'
tp17
a(S'100001089782583'
S'Arshiya Shrestha'
tp18
a(S'675231769'
S'Supriya Sakya'
tp19
a(S'841593259'
S'Bipaswi Man Shakya'
tp20
a(S'1074699188'
S'Ajan Shrestha'
tp21
a(S'1224527408'
S'Pr\\u00eb Sh\\u0101nk'
tp22
a(S'1829002996'
S'Pratistha Rijal'
tp23
a(S'100000230545696'
S'Komal Kunwar'
tp24
a(S'100002075959496'
S'Shivi Thakur'
tp25
a(S'710063899'
S'Evleen Shakya'
tp26
a(S'100007397921512'
S'Avantika RJ Kc'
tp27
a(S'100003065905393'
S'Rajshree Upadhyay'
tp28
a(S'100003722359182'
S'Parisha Rajbhandari'
tp29
a(S'641580110'
S'Nikita Shakya'
tp30
a(S'1078323306'
S'Mohein Ranjitkar'
tp31
a(S'1632978494'
S'Hiroto Matsuda'
tp32
a(S'100000381691694'
S'Siddant Kazi Basnet'
tp33
a(S'595518084'
S'Shakya Cezan'
tp34
a(S'1798745210'
S'Subasis Gadtaula'
tp35
a(S'100001466833041'
S'Mohit Lal Shrestha'
tp36
a(S'100001440271038'
S'Bardaan Sigdel'
tp37
a(S'100000049972599'
S'Anushka Malla'
tp38
a(S'550320406'
S'Parikrama Rai'
tp39
a(S'100001538950417'
S'Shakya Raunak'
tp40
a(S'1842649434'
S'Adhish Dhakhwa'
tp41
a(S'530492429'
S'Sangeeta Sthapit Tuladhar'
tp42
a(S'100001207656722'
S'Anjana Shakya'
tp43
a(S'100000095170334'
S'Ayasma Tuladhar'
tp44
a(S'637441060'
S'Mahesh Shakya'
tp45
a(S'587303651'
S'Chandan Shakya'
tp46
a(S'1787509823'
S'Lumanti Manandhar'
tp47
a(S'1375065483'
S'Pramudita Shree Prasai'
tp48
a(S'100000620468744'
S'Megha Shrestha'
tp49
a(S'623850289'
S'Shovana Shakya'
tp50
a(S'1448122307'
S'Sulay Ranjit'
tp51
a(S'565817188'
S'Palpasa Bajracharya'
tp52
a(S'100003084268658'
S'Nishchal Shrestha'
tp53
a(S'1619234533'
S'Namsen Sabina'
tp54
a(S'1545515572'
S'Junesoo Shin'
tp55
a(S'637428428'
S'Suhasha Malla'
tp56
a(S'720955650'
S'Kin Pradhan'
tp57
a(S'1544517645'
S'Ishan Ghimire'
tp58
a(S'1017673381'
S'Udeep Ratna Shakya'
tp59
a(S'676002667'
S'Supriya Shakya'
tp60
a(S'1563219387'
S'Aashna Ngorgima Lama'
tp61
a(S'100000276734657'
S'Durre Farid'
tp62
a(S'1007935472'
S'Pranaab Philip Kc'
tp63
a(S'100000062306408'
S'Utsah Pandey'
tp64
a(S'548344709'
p65
S'Raghav Dahuja'
tp66
a(S'626851502'
S'Anushka Joshi'
tp67
a(S'100000624096536'
S'Rabi Dangol'
tp68
a(S'777512747'
S'Shalinda Halp\\u00e9'
tp69
a(S'100000185956584'
S'Rashmi Shakya'
tp70
a(S'704388418'
S'Tanisha Rayamajhi'
tp71
a(S'85700366'
S'Prajwol Shakya'
tp72
a(S'712907671'
S'Binaya Amatya'
tp73
a(S'100000117798568'
S'Smaran Thapa'
tp74
a(S'1092166503'
S'Victor Shrestha'
tp75
a(S'1177374700'
S'Sarin Shakya'
tp76
a(S'571800201'
S'Ojesh Reena'
tp77
a(S'1374716578'
S'Abha Lal'
tp78
a(S'100008381851647'
S'Reetez Bhatta'
tp79
a(S'100003211446719'
S'Shivangi Malla'
tp80
a(S'100006297398811'
S'Nirantar Yakthumba'
tp81
a(S'100000114767988'
S'Shashwat Aryal'
tp82
a(S'100001018217961'
S'Soumya Shrestha'
tp83
a(S'565287215'
S'Siddhartha Man Shakya'
tp84
a(S'1389027352'
S'Sarwajaya Bahadur Prasai'
tp85
a(S'1614654665'
S'Roheet Bhattarai'
tp86
a(S'1846848290'
S'Pragesha Ghimire'
tp87
a(S'100000469849417'
S'Palistha Shrestha'
tp88
a(S'100004516531412'
S'Kunga Shrestha'
tp89
a(S'1585390455'
S'Shagun Agrawal'
tp90
a(S'100000119869533'
S'Aashaya Upadhyay'
tp91
a(S'646136216'
S'Alok Thapa'
tp92
a(S'1364333137'
S'Prapti Sharma'
tp93
a(S'621675025'
S'Upasana Karmacharya'
tp94
a(S'1416134900'
S'Ayush Suwal'
tp95
a(S'1159460502'
S'Dilasha Manandhar'
tp96
a(S'1666505114'
S'Eveeta Shakya'
tp97
a(S'100001157113777'
S'Avidan Ghale'
tp98
a(S'1309635338'
S'Arnav Upadhyay'
tp99
a(S'1309569860'
S'Gerrard Chira-you Lekhak'
tp100
a(S'100002141284441'
S'Noor Shakya'
tp101
a(S'100000475307238'
S'Aayush Chitrakar'
tp102
a(S'1313087263'
S'Swati Pant'
tp103
a(S'543965578'
S'Dipesh Tuladhar'
tp104
asS'id'
p105
S'1099988389'
p106
sS'name'
p107
S'Dipankar Shakya'
p108
s.