(dp1
S'friends'
p2
(lp3
(S'624830593'
S'Gayatri de Souza'
tp4
a(S'100000093781840'
S'Susheel Sunil'
tp5
a(S'100003038321446'
S'Sani Yadav'
tp6
a(S'1067409573'
S'Abhishek Chugh'
tp7
a(S'100000050921608'
S'Shubham Ruhela'
tp8
a(S'1122713508'
S'Vikram Anita Deshpande'
tp9
a(S'100001297145121'
S'Anuj Taraiya'
tp10
a(S'1028946064'
S'Shyam Gopi'
tp11
a(S'651698763'
S'Pakhi Sen'
tp12
a(S'1037686899'
S'Manasvini Rajan'
tp13
a(S'719899095'
S'Rishi Sood'
tp14
a(S'1067429800'
S'Kush Tekriwal'
tp15
a(S'557010250'
S'Dibendu Bose'
tp16
a(S'561611495'
S'Kartik Pradeep'
tp17
a(S'530956689'
S'Mala Krishna Murthy'
tp18
a(S'591836084'
S'Prabodh Pai Kasturi'
tp19
a(S'100001988937930'
S'Chandrima Attri'
tp20
a(S'581852490'
S'Niharika Krishna'
tp21
a(S'640068848'
S'Kevin Ilango'
tp22
a(S'1837492658'
S'Mukund Marodia'
tp23
a(S'1810126798'
S'Ashweeja Bharath Gowda'
tp24
a(S'756988803'
S'Inayat Woohoo Ramdas'
tp25
a(S'1522451281'
S'Rongon Choudhury'
tp26
a(S'1357223014'
S'Shruti Nambiar'
tp27
a(S'685218052'
S'Asmi Sharma'
tp28
a(S'100006484982593'
S'Ananya Mishra'
tp29
a(S'100000215352809'
S'NIket Shah'
tp30
a(S'517438878'
S'Ravitej Yadalam'
tp31
a(S'624859677'
S'Sheetal Shah'
tp32
a(S'561855243'
S'Mihira Appnender'
tp33
a(S'614353242'
S'Mrinalini Luthra'
tp34
a(S'608783560'
S'Amar Pandey'
tp35
a(S'732816747'
S'Pradyut Bansal'
tp36
a(S'512734082'
S'Krutika Pathi'
tp37
a(S'619205976'
S'Raoul Thimothy'
tp38
a(S'1121001576'
S'Aditya Shankar'
tp39
a(S'512679175'
S'Siddharth Vishwanath'
tp40
a(S'100005691663009'
S'Ssc Afterhours'
tp41
a(S'100004078954159'
S'Arshia Jacob'
tp42
a(S'540586651'
S'Harsha Vardhan Dasarathy'
tp43
a(S'603052065'
S'Kabir David'
tp44
a(S'1565259414'
S'Sanjana Ij'
tp45
a(S'1274430722'
S'Nidhi Muthane'
tp46
a(S'619797478'
S'Varun Kaul'
tp47
a(S'528156362'
S'Gautam Vishwanath'
tp48
a(S'1468219205'
S'Nilofer Suleman'
tp49
a(S'100003248689271'
S'Rushil Patel'
tp50
a(S'653051548'
S'Riddhi Shah'
tp51
a(S'1098411550'
S'Tejas Bhagoliwal'
tp52
a(S'697271591'
S'Prathiksha Panduranga'
tp53
a(S'100002245253531'
S'Trisha Reddy'
tp54
a(S'731911655'
S'Rithvik Dhananjay'
tp55
a(S'1083757394'
S'Nadeem Afroz'
tp56
a(S'617368676'
S'Shreshth Sipani'
tp57
a(S'100004323007501'
S'Mitran Kwatra'
tp58
a(S'620347991'
S'Poorvi Bhat'
tp59
a(S'1222692526'
S'Joyeeta Ghose'
tp60
a(S'1696890441'
S'Nathanael Barna'
tp61
a(S'518046895'
S'Marukh Budhraja'
tp62
a(S'1253013788'
S'Anirudh Chandrashekar'
tp63
a(S'693475577'
S'Ciara Greenwood'
tp64
a(S'591825224'
S'Srikant Mohan'
tp65
a(S'566778114'
S'Devangana Tikku'
tp66
a(S'1140470969'
S'Gopinath Pai'
tp67
a(S'701120238'
S'Ishani Ghose'
tp68
a(S'100002701150592'
S'Saloni Patel'
tp69
a(S'1276050706'
S'Manjusha Muthiah'
tp70
a(S'530361998'
S'Rhea Desouza'
tp71
a(S'100001328340772'
S'Devashish Sharma'
tp72
a(S'1294218641'
S'Devika Nadkarni'
tp73
a(S'676716928'
S'Atia Sen'
tp74
a(S'714636082'
S'Rahul Kuruvilla Mathew'
tp75
a(S'718781187'
S'Ishaan Pujari'
tp76
a(S'1809436685'
S'Amrita Vellat'
tp77
a(S'649274774'
S'Tharun Thomas'
tp78
a(S'100004642381149'
S'Akash Kespota'
tp79
a(S'1215914690'
S'Ragini Jha'
tp80
a(S'585830384'
S'Ananth Bevinahally'
tp81
a(S'561051002'
S'Tiara Nayan'
tp82
a(S'1790164271'
S'Syed Faizan Bukhari'
tp83
a(S'1449465344'
S'Siddhant M Golechhaa'
tp84
a(S'707912069'
S'Ayush Ranjan'
tp85
a(S'567710044'
S'Rhea Mathews'
tp86
a(S'511220635'
S'Anagha Vasudevan'
tp87
a(S'1241481613'
S'Reuben Das'
tp88
a(S'689613659'
S'Aneesh Vidyashankar'
tp89
a(S'1221873584'
S'Kushala Vora'
tp90
a(S'656261525'
S'Shankar Csr'
tp91
a(S'1443461411'
S'Advait Vaishampayan'
tp92
a(S'100002313999221'
S'Hari A Sunil'
tp93
a(S'1486058086'
S'Hans Sidharth'
tp94
a(S'561191889'
S'Naomi Kundu'
tp95
a(S'100000452659530'
S'Subodh Pareek'
tp96
a(S'100002227047277'
S'Megha Vj'
tp97
a(S'1111013150'
S'Rajoth Ramesh'
tp98
a(S'1454481522'
S'Neomi Maliniak'
tp99
a(S'737023721'
S'Niriksha Reddy'
tp100
a(S'1150762084'
S'Aashna Rao'
tp101
a(S'1645640382'
S'Arjoonn Sharma'
tp102
a(S'1074205611'
S'Annabel Mathew'
tp103
a(S'1328145572'
S'Anurag Banerjee'
tp104
a(S'618467124'
S'Sunny George'
tp105
a(S'100001063677102'
S'Sukrit Joshi'
tp106
a(S'100003959722031'
S'Ashvatth Verma'
tp107
a(S'550507443'
S'Ayesha Sheth'
tp108
a(S'639009705'
S'Ishan Gupta'
tp109
a(S'750594096'
S'Varsha Hebbar'
tp110
a(S'100008214766613'
S'Kavya Hebbar'
tp111
a(S'581802982'
S'Vibhu Khanna'
tp112
a(S'1144933992'
S'Lisha Shastri'
tp113
a(S'603625357'
S'Palki Bhattacharyya'
tp114
a(S'100000614172033'
S'Sanjana Anand'
tp115
a(S'685992100'
S'Raghu Kesavan'
tp116
a(S'100003676413108'
S'Adithya Ravi'
tp117
a(S'563496946'
S'Gayathri Devadasan'
tp118
a(S'1614562068'
S'Dushyanth Suresh'
tp119
a(S'100004578095258'
S'Rishiraj Ramaswamy'
tp120
a(S'1294324657'
S'Anwesh Patnaik'
tp121
a(S'591107553'
S'Miriam Zorini Karthak'
tp122
a(S'1540626788'
S'Sarayu Poornima'
tp123
a(S'625507571'
S'Ria Kapoor'
tp124
a(S'1038135602'
S'Shreyashi Roy'
tp125
a(S'100000234938701'
S'Aditya Bhasin'
tp126
a(S'523937129'
S'Joe Cyril'
tp127
a(S'100001166812771'
S'Malaika Dhar-James'
tp128
a(S'1369512232'
S'Eeshat Tiwary'
tp129
a(S'1013815559'
S'Sunil Issar'
tp130
a(S'517079900'
S'Roopali Lakhotia'
tp131
a(S'100000061741154'
S'Soutik Banerjee'
tp132
a(S'100000102652717'
S'Debobroto Sensharma'
tp133
a(S'1127225084'
S'Camilla Ann Lyndem'
tp134
a(S'1663339224'
S'Kishan Menon'
tp135
a(S'693024222'
S'Ashaya Mahabaleshwara'
tp136
a(S'635093001'
S'Tanya Sood'
tp137
a(S'100002640823344'
S'Deepak Kumar'
tp138
a(S'100000934338364'
S'Jordan Kinchum Tshering Namchu'
tp139
a(S'1041028455'
S'Angad Singh'
tp140
a(S'784083602'
S'Renuka Shenoy'
tp141
a(S'100005441199833'
S"Stephen's Polls"
tp142
a(S'100000069098863'
S'Cyril Thomas'
tp143
a(S'1078405492'
S'Deepesh Sangtani'
tp144
a(S'1532906429'
S'Amshuman Dasarathy'
tp145
a(S'570597164'
S'Meenakshi Menon'
tp146
a(S'1635257655'
S'Rahul Bhatia'
tp147
a(S'651952787'
S'Utkarsh Kumar'
tp148
a(S'1843722964'
S'Anjini Bist'
tp149
a(S'1336187731'
S'Navaneeth Sriram'
tp150
a(S'1561384918'
S'Vivek Ashok Kumar'
tp151
a(S'1345073808'
S'Archish Jayaprabhu'
tp152
a(S'794632366'
S'Ahalya Acharya'
tp153
a(S'549903123'
S'Arpit Joshua Herbert'
tp154
a(S'100000331914544'
S'Neha Bhansali'
tp155
a(S'855190370'
S'Vishaka George'
tp156
a(S'836679900'
S'Namitha Sadanand'
tp157
a(S'508513909'
S'Arnav Vishwasrao'
tp158
a(S'1229190820'
S'Karan Acharya'
tp159
a(S'505366607'
S'Devika Cushalappa'
tp160
a(S'1199823728'
S'KKarun Gopal'
tp161
a(S'100001171624426'
S'Stephanian Stephania'
tp162
a(S'1348358448'
S'Ekta Kapoor'
tp163
a(S'513104122'
S'Aditya Chandra'
tp164
a(S'512573136'
S'Dhriti Shetty'
tp165
a(S'100000001898263'
S'Antony Joseph'
tp166
a(S'545048072'
S'Prabhat Chatterjee'
tp167
a(S'1471617580'
S'Dhruv Bhinde'
tp168
a(S'100001351338828'
S'Sam John'
tp169
a(S'1213572468'
S'Samyobrata Mukherjee'
tp170
a(S'772453610'
S'Sanya Jain'
tp171
a(S'695715039'
S'Nirvan Athreya'
tp172
a(S'1703305737'
S'Sooraj Saksena'
tp173
a(S'1183899319'
S'Krishna Arcot'
tp174
a(S'1246133523'
S'Rutusha Nagaraj'
tp175
a(S'100000037643074'
S'Arnav Behera'
tp176
a(S'1823704327'
S'Karan Sethi'
tp177
a(S'545924101'
S'Vivek Kamath'
tp178
a(S'100002662416732'
S'Achuta Shanbhag'
tp179
a(S'100003876044957'
S'Mallika Kumar'
tp180
a(S'100002512615211'
S'Parth Ghorpade'
tp181
a(S'512296893'
S'Lavanya Murugesh'
tp182
a(S'1493586261'
S'Sampurna Khasnabis'
tp183
a(S'1453873039'
S'Arjun Kini'
tp184
a(S'624144694'
S'Supurna Dasgupta'
tp185
a(S'100000405680350'
S'Leila Gautham'
tp186
a(S'1256543184'
S'Ankit Parasrampuria'
tp187
a(S'100000602468554'
S'Edwin Joseph'
tp188
a(S'726686105'
S'Indraneel Banerjee'
tp189
a(S'100004098501634'
S'Eeshani Gupta'
tp190
a(S'1398108331'
S'Chandraneev Das'
tp191
a(S'100000249914005'
S'Meghana Shah'
tp192
a(S'100000152545489'
S'Rohan Dayanidhi'
tp193
a(S'100000250276863'
S'Kanu Guiliano Gangahar'
tp194
a(S'525819598'
S'Shreshta Venkataramanan'
tp195
a(S'654981919'
S'Ira Anjali Anwar'
tp196
a(S'1127148946'
S'Mahira Budhraja'
tp197
a(S'100001403158707'
S'Daisy Mowke'
tp198
a(S'684465562'
S'Pritika Fernandes'
tp199
a(S'100002011738495'
S'Vignesh Prasad'
tp200
a(S'1532970761'
S'Meghana Shenai'
tp201
a(S'695925533'
S'Tanima The-firefly'
tp202
a(S'763913134'
S'Shubhangam Tekriwal'
tp203
a(S'1173127220'
S'Meghana Ramakrishnan'
tp204
a(S'1021341296'
S'Advik Iyer Guha'
tp205
a(S'1704945350'
S'Archana V Chari'
tp206
a(S'695380502'
S'Arundhathi Krishnan'
tp207
a(S'696179322'
S'Saagarika Shenoy'
tp208
a(S'714330103'
S"Joe Seph'"
tp209
a(S'100001873041319'
S'Sadiah Zahoor'
tp210
a(S'678842590'
S'Shreya Tandon'
tp211
a(S'100004879355005'
S'Wodehouse Ssc'
tp212
a(S'633740289'
S'Namrata Anirudh'
tp213
a(S'695355615'
S'Rajat Maheshwari'
tp214
a(S'869900724'
S'Nikita Noronha'
tp215
a(S'512885119'
S'Shantanu Verma'
tp216
a(S'848384811'
S'Mihika Row'
tp217
a(S'700366310'
S'Harshit Maloo'
tp218
a(S'1022814043'
S'Gayas Eapen'
tp219
a(S'100003712483482'
S'Aditi Gourishankar'
tp220
a(S'1088627103'
S'Siddarth Kamath'
tp221
a(S'1148079329'
S'Agape Mary Mammen'
tp222
a(S'100003185795554'
S'Anish Sood'
tp223
a(S'100000442200465'
S'Suraj Rao'
tp224
a(S'1684307916'
S'Yash Raaj'
tp225
a(S'548344709'
S'Raghav Dahuja'
tp226
a(S'1493812154'
S'Amogh Jagadish'
tp227
a(S'1321244392'
S'Aranya Sahay'
tp228
a(S'1465372832'
S'Kabir Upmanyu'
tp229
a(S'1191293191'
S'Kavitha Kannan'
tp230
a(S'698758371'
S'Ishwarya Venkatesh'
tp231
a(S'1288158325'
S'Yashas Hegde'
tp232
a(S'1586686357'
S'Akshetha Ashok'
tp233
a(S'838760452'
S'Shivani Kabra'
tp234
a(S'652510019'
S'Siddharth Shastri'
tp235
a(S'558231754'
S'Pradhyumna Ramesh'
tp236
a(S'1061349208'
S'Vedika Hegde'
tp237
a(S'655656183'
S'Ismat Imaan'
tp238
a(S'1032316972'
S'Aaron Saldanha'
tp239
a(S'1446280102'
S'Anvay Nayak'
tp240
a(S'100000321032144'
S'Rohan Nayar'
tp241
a(S'694180269'
S'Soumya Bahuguna'
tp242
a(S'100002337054353'
S'Zohan Mistry'
tp243
a(S'1544782356'
S'Lakshmipriya Swami'
tp244
a(S'765153534'
S'Anjum Mariam'
tp245
a(S'753872284'
S'Abhik Palit'
tp246
a(S'587327237'
S'Prateek Jalan'
tp247
a(S'1111798080'
S'Reecha Kulkarni'
tp248
a(S'625531502'
S'Preet Dalal'
tp249
a(S'100000541650921'
S'Ishan Gaur'
tp250
a(S'1270345040'
S'Anamika Gopi'
tp251
a(S'1264708135'
S'Saiket Talukdar'
tp252
a(S'753645060'
S'Bharat Ahuja'
tp253
a(S'1410235528'
S'Amu Roy'
tp254
a(S'665655196'
S'Neha George'
tp255
a(S'1155828229'
S'Maria Kuruvilla'
tp256
a(S'618060979'
S'Abhishek Rana'
tp257
a(S'100001227847693'
S'Sachi Raval'
tp258
a(S'1018857597'
S'Rajat Philip'
tp259
a(S'722670476'
S'Shashank Sridhar'
tp260
a(S'527659039'
S'Joseph Jacob'
tp261
a(S'507078529'
S'Aman Saxena'
tp262
a(S'100006774969855'
S'Mihira Kallahalla'
tp263
a(S'1437657536'
S'Sujay Shah'
tp264
a(S'100000000900797'
S'Abir Misra'
tp265
a(S'100001059912619'
S'Raja Pandit'
tp266
a(S'100000929086730'
S'Minu Philip'
tp267
a(S'100001242238362'
S'Shivam Dixit'
tp268
a(S'100003775470137'
S'Gaurish Kant Shukla'
tp269
a(S'100001095133061'
S'Isaac George Varghese'
tp270
a(S'711202263'
S'Tanya Mary Duckworth'
tp271
a(S'688343685'
S'Prathum Saraf'
tp272
a(S'100000393119251'
S'Iman Sengupta'
tp273
a(S'1000639272'
S'Shreem Kohli'
tp274
a(S'597730530'
S'Karuna Misra'
tp275
a(S'1515524589'
S'Nihal Mahadevan'
tp276
a(S'1396444415'
S'Kirtan Shastri'
tp277
a(S'548036355'
S'Samay Jhingon'
tp278
a(S'1090240408'
S'Lauren Robinson'
tp279
a(S'100000106600174'
S'Lawrence Simte'
tp280
a(S'709713600'
S'Zeeshan Sayeed'
tp281
a(S'512697226'
S'Shruti Shah'
tp282
a(S'100006470232837'
S'Aradhana Mathews'
tp283
asS'id'
p284
S'1103001687'
p285
sS'name'
p286
S'Ajit Deshpande'
p287
s.