(dp1
S'friends'
p2
(lp3
(S'1104103151'
S'Amarendu Srivastva'
tp4
a(S'100006580892552'
S'Lucky Singh'
tp5
a(S'100004549331614'
S'Vanshika Ghosh'
tp6
a(S'100004005054135'
S'Aliya Khan'
tp7
asS'id'
p8
S'1104103151'
p9
sS'name'
p10
S'Amarendu Srivastva'
p11
s.