(dp1
S'friends'
p2
(lp3
(S'100006640569234'
S'Baseer Masud'
tp4
a(S'100004399022317'
S'Zobeir Afg'
tp5
a(S'100000662166328'
S'Ikram Khan'
tp6
a(S'100002028998461'
S'Sher Prince'
tp7
a(S'100008092381522'
S'Shama Ashna Singer'
tp8
a(S'100007338040438'
S'Khalid Amin'
tp9
a(S'100002848138959'
S'Abdul Majid Halimi'
tp10
a(S'1792853647'
S'Shujaa Hamid'
tp11
a(S'100004463850553'
S'Sumeera Naz'
tp12
a(S'100007113007164'
S'Atiq Adil Armani'
tp13
a(S'100004653163535'
S'Mazhar Khan'
tp14
a(S'100005561766672'
S'Habibullah Bakhtani'
tp15
a(S'100000887907242'
S'Hazrat Gul'
tp16
a(S'100002101434971'
S'Kachkol Khan'
tp17
a(S'100006750640360'
S'Actress Sumbal Khan'
tp18
a(S'100004209609599'
S'Shahid AhMad'
tp19
a(S'100003287016876'
S'Sajjad Khalil'
tp20
a(S'100004768805742'
S'Muneer Bacha'
tp21
a(S'100001324620466'
S'Bacha SarShar Kabul Jan'
tp22
a(S'100005519108460'
S'Asad Khan'
tp23
a(S'100004539307335'
S'Nisar Khan Talash Talash'
tp24
a(S'100006634236516'
S'Ahmad Shah'
tp25
a(S'100002707301923'
S'Haji Abdul Hameed'
tp26
a(S'100003666719000'
S'Prince Talash'
tp27
a(S'100003532973742'
S'Ahmad Sahil'
tp28
a(S'1377279095'
S'MediaMasters Production'
tp29
a(S'100003973138605'
S'Bilal Ferdusi'
tp30
a(S'100001580691588'
S'Heart Mjsweet'
tp31
a(S'100000841614224'
S'Lemar Aihani'
tp32
a(S'100004823914381'
S'Shazia Chuhdry'
tp33
a(S'100005175883680'
S'Nadeem Jani'
tp34
a(S'100001326925641'
S'BK Ferdusi'
tp35
a(S'100004852055544'
S'Ahmad Nawaz'
tp36
a(S'100006332886498'
S'Ghufran Fredusi'
tp37
a(S'100002165068600'
S'Abdul Momin Haqyar'
tp38
a(S'100001832844094'
S'Kamil Khan'
tp39
a(S'100003580570168'
S'Amjed Khan'
tp40
a(S'100006188610024'
S'Inam Khan'
tp41
a(S'100006675938010'
S'Precious Collins'
tp42
a(S'100001187828451'
S'Ahad Zeb'
tp43
a(S'100003982186200'
S'Basir Jabarkhel'
tp44
a(S'100000740532202'
S'Sajid Shujaa'
tp45
a(S'100007457525865'
S'Karishma Shehzadi'
tp46
a(S'100003189306797'
S'Khan King'
tp47
a(S'100007508943040'
S'Asif Love'
tp48
a(S'100005495980955'
S'Spogmay Khan'
tp49
a(S'100002770853248'
S'Baseer Ahmadzai'
tp50
a(S'100001003773578'
S'Haroon Shah Jee'
tp51
a(S'100002110455473'
S'Naveed Anjum Khan'
tp52
a(S'100005073581140'
S'Omid Omid'
tp53
a(S'100006411243600'
S'Baseer Tanha'
tp54
a(S'1423447046'
S'Syed Mazhar'
tp55
a(S'100006588133947'
S'Ismail Ahmadi'
tp56
a(S'100002085311776'
p57
S'Mena Mangal'
tp58
a(S'100002886554072'
S'Noor Wafa'
tp59
a(S'100003873339611'
S'Khan Ferdusi'
tp60
a(S'100002647376627'
S'Faisal Afridi'
tp61
a(S'100003221318353'
S'Sinta Bauwel'
tp62
a(S'100000931164974'
S'Waheed Achakzai'
tp63
a(S'100000670196239'
S'Naqib Aarmal'
tp64
a(S'100001783881355'
S'\\u00d1\\u0101s\\u00edr Kh\\u00e3\\u00f1'
tp65
a(S'100001802793641'
S'Shah Sawar'
tp66
a(S'100002150318194'
S'Shoaib Khan'
tp67
a(S'100006834723235'
S'Mubariz Ksal'
tp68
a(S'100006532601400'
S'Tariq Jamal'
tp69
a(S'100004473600934'
S'Faheem Saleem Parichkhail'
tp70
a(S'100001170247192'
S'Abdul Ghafar Nizami'
tp71
a(S'100001404961793'
S'Nangz Delgado'
tp72
a(S'100005840347540'
S'Salman Ahmad'
tp73
a(S'100005266659190'
S'Abdulwahab Sarwan'
tp74
a(S'100006571901882'
S'Baseer Don Khan Masud'
tp75
a(S'100002617841156'
S'\\u00c3bd\\u00f9l M\\u00e2j\\u00edd'
tp76
a(S'100005643485245'
S'Sheraz Khalil'
tp77
a(S'100005028720286'
S'Edris Rahmani'
tp78
a(S'100003316408675'
S'Bashir Chitrali'
tp79
a(S'100008369040316'
S'Ilyas Khan'
tp80
a(S'100002122639304'
S'Pili Diaz'
tp81
a(S'100003215105374'
S'AwaIs KhAn KhuMaar'
tp82
a(S'100003105511982'
S'Ayam Jan'
tp83
a(S'100006258461713'
S'Sinthya Corea'
tp84
asS'id'
p85
S'1104502982'
p86
sS'name'
p87
S'Sahib Khan'
p88
s.