(dp1
S'name'
p2
S'Avinash Mishra'
p3
sS'current_class'
p4
S'india'
p5
sS'home_class'
p6
Valwar, rajasthan, india
p7
sS'home_text'
p8
VAlwar City, Rajasthan, India\u000aHometown
p9
sS'current_link'
p10
Vhttps://www.facebook.com/l.php?u=https%3A%2F%2Fwww.bing.com%2Fmaps%2Fdefault.aspx%3Fv%3D2%26pc%3DFACEBK%26mid%3D8100%26where1%3D26.520000504099%252C%2B88.729705810547%26name%3DJalpaiguri%26mkt%3Den-IN&h=MAQFBoRrd&s=1
p11
sS'home_link'
p12
Vhttps://www.facebook.com/l.php?u=https%3A%2F%2Fwww.bing.com%2Fmaps%2Fdefault.aspx%3Fv%3D2%26pc%3DFACEBK%26mid%3D8100%26where1%3D27.566700031067%252C%2B76.599426269531%26name%3DAlwar%2BCity%252C%2BRajasthan%252C%2BIndia%26mkt%3Den-IN&h=eAQG6t3jS&s=1
p13
sS'current_text'
p14
VJalpaiguri\u000aCurrent City
p15
sS'friends'
p16
(lp17
sS'id'
p18
S'1114457433'
p19
s.