(dp1
S'friends'
p2
(lp3
(S'100002532543568'
S'Atul Nagar'
tp4
a(S'100001441695089'
S'Santosh Shinde'
tp5
a(S'100000842437658'
S'Mistry Madhusudan'
tp6
a(S'100000706162014'
S'Rahees Singh'
tp7
a(S'100002602802118'
S'Pravin Patil'
tp8
a(S'100002276793562'
S'Yenita AF'
tp9
a(S'100001315878530'
S'Ard Gudur'
tp10
a(S'100001545551138'
S'Neela Patel'
tp11
a(S'1136161677'
S'Satendra Singh Dhaka'
tp12
a(S'1160474539'
S'Amitabh Mishra'
tp13
a(S'999954746'
S'Ram Parashar'
tp14
a(S'1598615474'
S'Mahila Vikas Ashram'
tp15
a(S'100000417596143'
S'Rakesh Goswami'
tp16
a(S'100000708592500'
S'Kumar Narendra Singh'
tp17
a(S'1512038029'
S'Ras Bihari'
tp18
a(S'100000649215755'
S'Anuradha Nagar'
tp19
a(S'1136572422'
S'Haridas Chattopadhyay'
tp20
a(S'604795806'
S'Salil Misra'
tp21
a(S'100000502868693'
S'Bakhshish Elahi'
tp22
a(S'100000880343412'
S'Hemant Pandey'
tp23
a(S'594219453'
S'H R Pursotam Raj'
tp24
a(S'100004467363156'
S'Rajnikant Patel Mla Asarwa'
tp25
a(S'100003167002108'
S'Deepak Sharma'
tp26
a(S'752878880'
S'Tanushree Gangopadhyay'
tp27
a(S'100000587628553'
S'Roosa Sibarani'
tp28
a(S'100002031023947'
S'Ilyas Azmi'
tp29
a(S'100001930528599'
S'Madhu Sisodia'
tp30
a(S'1056039426'
S'Ranjanesh Sahai'
tp31
a(S'100000326996073'
S'Nivedita Acharya'
tp32
a(S'100000111594975'
S'Kranti Prakash'
tp33
a(S'670472597'
S'Nasir Iqbal'
tp34
a(S'100000096917365'
S'Veena Dwivedi'
tp35
a(S'100001296575117'
S'Urmilesh Urmil'
tp36
a(S'560237472'
S'Chandrashekhar Tibrewal'
tp37
a(S'100002138564131'
S'J.k. Ahir Yadav'
tp38
a(S'100000942346300'
S'Praxis India'
tp39
a(S'100003093432622'
S'Sanjay Nagpal'
tp40
a(S'100002175148751'
S'Tc Sharma'
tp41
a(S'100002521266868'
S'Jayant Vastu'
tp42
a(S'100001764760014'
S'Ravi Srivastava'
tp43
a(S'100002417586484'
S'Gautam Pritam'
tp44
a(S'100002894207027'
S'Sneha Pandey'
tp45
a(S'1544912666'
S'Anurag Misra'
tp46
a(S'100000257018421'
S'Avinash Sakhare'
tp47
a(S'100002615366483'
S'Dharmendra Kumar'
tp48
a(S'1237162322'
S'Shruti Nagvanshi'
tp49
a(S'100003046286836'
S'Rakesh Mishra Pravasi'
tp50
a(S'1269339260'
p51
S'Swapna Patronis'
tp52
a(S'100001573460154'
S'Sanjay Gaikwad'
tp53
a(S'1331702318'
S'Vipin Choudhary'
tp54
a(S'100000312453536'
S'Maimoona Jaffary Jaffary'
tp55
a(S'1259926704'
S'Bharti Sharma'
tp56
a(S'100003200401588'
S'Lok Hitkari Ngo'
tp57
a(S'716554158'
S'Deepanita Biswas'
tp58
a(S'100002052921043'
S'Surendra Kumar'
tp59
a(S'100001625711277'
S'Chandraveer Singh'
tp60
a(S'100003832775474'
S'Lokvani Kharajpur'
tp61
a(S'100000487370950'
S'Brahmastra Amlesh Pandey'
tp62
a(S'1556342439'
S'Ashish Ghosh'
tp63
a(S'100001530551917'
S'Isha Mehan'
tp64
a(S'1631538349'
S'Nagma Pandya Thakor'
tp65
a(S'100002624648074'
S'Dinesh Chandra Mughalsarai'
tp66
a(S'100002819397998'
S'Kumkum Bhattacharyya'
tp67
a(S'100001217464463'
S'Vimal Tripathi'
tp68
a(S'100001641522498'
S'Vikas Salve'
tp69
a(S'100002063031656'
S'Ranjan Hazarika'
tp70
a(S'737226356'
S'Vishalakshi Pidaparthi'
tp71
a(S'100001880070649'
S'Mann Chopra'
tp72
a(S'100001751901206'
S'Anju Mishra'
tp73
a(S'1549172436'
S'Steven Marchand'
tp74
a(S'100002665794594'
S'Saroj Swain'
tp75
a(S'100002483218132'
S'Ehd Pakistan'
tp76
a(S'1630051605'
S'Anshu Kumar'
tp77
a(S'100006331951701'
S'Bittu Parashar'
tp78
a(S'100004091416302'
S'Amit Sengupta'
tp79
a(S'100008193241273'
S'Sri Ram Bhakt Samaj'
tp80
a(S'100001126836024'
S'\\u0938\\u094b\\u0928\\u093f\\u0915\\u093e \\u0915\\u094d\\u0930\\u093e\\u0902\\u0924\\u093f\\u0935\\u0940\\u0930'
tp81
a(S'1130292399'
S'Nalini Ranjan Mohanty'
tp82
a(S'100002334770012'
S'Camp Swagati'
tp83
a(S'898235164'
S'Gaurav Sharma'
tp84
a(S'100001858804736'
S'Tdh-Germany Southeast Asia'
tp85
a(S'100002141640297'
S'Yusuf Meherally Centre'
tp86
a(S'1508719192'
S'MP KC Tyagi'
tp87
a(S'100002314360861'
S'Atal Sharma'
tp88
a(S'100002256355149'
S'Om Prakash Yadav'
tp89
a(S'100000777066793'
S'Jasvir Singh'
tp90
a(S'100001311243361'
S'Manoj Singh Rajput'
tp91
a(S'100000734821447'
S'Ramesh Murdeshwar'
tp92
a(S'100000034686396'
S'\\u0930\\u091c\\u0928\\u0940 \\u0924\\u094d\\u092f\\u093e\\u0917\\u0940'
tp93
a(S'100000609599126'
S'La Pyae'
tp94
a(S'100003916163178'
S'Sharad Foundatio N'
tp95
a(S'100000720824567'
S'Gopal Pathak'
tp96
a(S'100003873906940'
S'Nirmana Ngo'
tp97
a(S'100003351768937'
S'Udit Raj Ex Irs'
tp98
a(S'1531222666'
S'Subhash Lomte'
tp99
a(S'100002773532782'
S'\\u0938\\u0928\\u0940 \\u0936\\u0930\\u094d\\u092e\\u093e \\u0913\\u092e\\u094d'
tp100
a(S'100000646107749'
S'DrArvind Tyagi'
tp101
a(S'100002125183731'
S'Anand Kumar'
tp102
a(S'556528439'
S'Maria Svanstr\\u00f6m'
tp103
a(S'100002513386191'
S'Arun Rao Paruvelly'
tp104
a(S'100005661783231'
S'Rakesh Newaskar'
tp105
a(S'100003558925473'
S'Acharya Roopchandraji'
tp106
a(S'100002645800986'
S'Mahesh Khedkar'
tp107
a(S'100003337774936'
S'Kesar Riverkeeper'
tp108
a(S'100000263458653'
S'Rajesh Kumar'
tp109
a(S'565268709'
S'Lalit Batra'
tp110
a(S'100002039523753'
S'Rachana Sharma'
tp111
a(S'100000965013396'
S'Nilanjana Das'
tp112
a(S'1512305330'
S'Dilip Kumar'
tp113
a(S'100003223377182'
S'Smriti Pandey'
tp114
a(S'1480875350'
S'Veer Aditya'
tp115
a(S'100002145394683'
S'Ritu Dixit'
tp116
a(S'612494651'
S'Juha Rekola'
tp117
a(S'100002595450502'
S'Suvarna Kharade'
tp118
a(S'1240997147'
S'Nutan Tsunami Thakur'
tp119
a(S'100001319271593'
S'Sampat Mandave'
tp120
a(S'100002292326796'
S'Devendra Bahuguna'
tp121
a(S'1384082184'
S'Geeta Shree'
tp122
a(S'100004531143220'
S'Sitaram Sharma Chetan'
tp123
a(S'678712635'
S'Govindaswamy Hariramamurthi'
tp124
a(S'1186760781'
S'Kesharsingh Bist'
tp125
a(S'100001475951358'
S'Bhuwan Pathak'
tp126
a(S'100003843284655'
S'Rajesh Rajora'
tp127
a(S'1685284055'
S'Bhushan Bhai Mhetre'
tp128
a(S'651037855'
S'Farooq Tariq'
tp129
a(S'100001507650399'
S'Arul Doss Borntowin'
tp130
a(S'100002171506617'
S'Jessica Thomas'
tp131
a(S'100004415734542'
p132
S'Rupali Singh'
tp133
a(S'100003019198420'
S'Prakash Sharma'
tp134
a(S'1425286142'
S'Vaibhav Kant Adarsh'
tp135
a(S'556276561'
S'Ashita Mittal'
tp136
a(S'100000083790090'
S'Prem Sundriyal'
tp137
a(S'100003964651383'
S'Babli Suman'
tp138
a(S'746834398'
S'Arya Bhushan Bhardwaj'
tp139
a(S'723094971'
S'Sulekha Ali'
tp140
a(S'100000188418718'
S'Nikhil RK'
tp141
a(S'100006043983350'
S'Yuvraj Sutar'
tp142
a(S'1660284533'
S'Viplav Rahi'
tp143
a(S'100001331846330'
S'Faith Anayo'
tp144
a(S'100001739836502'
S'Pankaj Kumar'
tp145
a(S'100003905006519'
S'Kumari Suhana'
tp146
a(S'695822006'
S'Jayaraj Chinnasamy'
tp147
a(S'100000743761628'
S'Anil Chamadia'
tp148
a(S'100004102134838'
S'Vishal Sharma'
tp149
a(S'100000037535267'
S'DrAparna Bhardwaj'
tp150
a(S'711520087'
S'Stalin K. Padma'
tp151
a(S'689881462'
S'Uddhab Pyakurel'
tp152
a(S'100001519166358'
S'Bhawna Sharma'
tp153
a(S'100001206675801'
S'Raghu Thakur'
tp154
a(S'100002582393378'
S'Dr-Lopamudra Mitra'
tp155
a(S'100003966729173'
S'Narender Rawat'
tp156
a(S'1058419644'
S'Santosh Kumar'
tp157
a(S'1331259033'
S'Suchita Kumari'
tp158
a(S'100002658111798'
S'Uday Durshetkar'
tp159
a(S'100000816566096'
S'Neelabh Ashk'
tp160
a(S'100005156313652'
S'Vijay Kumar Singh'
tp161
a(S'100008022672066'
S'Hemant Hemant'
tp162
a(S'100000656278972'
S'Mahipal Sarswat'
tp163
a(S'100000044680455'
S'Dips Dips'
tp164
a(S'100001970087771'
S'Kailash Mina'
tp165
a(S'100002646636081'
S'Archna Upadhyay'
tp166
a(S'100002537684390'
S'Gufran Wali'
tp167
a(S'100004065693095'
S'Bindu Bhushan Dubey'
tp168
a(S'1711820552'
S'Samarpan Jharkhand'
tp169
a(S'100000438056591'
S'S T Nalini Raj'
tp170
a(S'100002304253134'
S'Ranjana Jaiswal'
tp171
a(S'100003448898328'
S'DrLata Kumar'
tp172
a(S'100000807702436'
S'Samagra Sikhsan Vikash Sansthan'
tp173
a(S'100000604752971'
S'Siddharth Kalhans'
tp174
a(S'100001974563427'
S'Kriti Brahma'
tp175
a(S'100003854675419'
S'Bhaskara Jha'
tp176
a(S'100001186568735'
S'Vimeesha Bijoy'
tp177
a(S'100000178166603'
S'Niraj Kumar'
tp178
a(S'100000755571749'
S'Chandanathil Pappachan Geevan'
tp179
a(S'100006484257200'
S'Rakesh Rafiq'
tp180
a(S'100006766364375'
S'Neelchandra Ahir'
tp181
a(S'1665124704'
S'Sarang Upadhyay'
tp182
a(S'100000084778527'
S'Swapna Sharma'
tp183
a(S'1025165123'
S'Shivnath Jha'
tp184
a(S'100001284571550'
S'Rahul Sinha'
tp185
a(S'1336144953'
S'George Jacob'
tp186
a(S'100002607033643'
S'Suryaprakash Trivedi'
tp187
a(S'1736215447'
S'Himmat Seth'
tp188
a(S'100001228184342'
S'Deepak Malviya'
tp189
a(S'1201250275'
S'Vidya Narayan'
tp190
a(S'100001738131566'
S'Anshu Niwakar'
tp191
a(S'100001462252568'
S'Johar Sahiya'
tp192
a(S'100003024775236'
S'Rani Sharma'
tp193
a(S'100000126888122'
S'Neela Prasad'
tp194
a(S'100002921558545'
S"'\\u0932\\u093f\\u0932\\u0940 \\u0915\\u0930\\u094d\\u092e\\u0915\\u093e\\u0930'"
tp195
a(S'100000757278023'
S'Payal Bhatnagar'
tp196
a(S'100001984953895'
S'Amiya Prasad Moharana'
tp197
a(S'100002981576431'
S'Sanjeev Sane'
tp198
a(S'100000302716893'
S'Upendra Prasad'
tp199
a(S'740471180'
S'Lalita Pandey'
tp200
a(S'100001863418920'
S'Aswath Reddy'
tp201
a(S'100000485084804'
S'Madhura Godbole'
tp202
a(S'100000345100461'
S'Tilak Balagangadhara'
tp203
a(S'100000231953308'
S'Prabal Pratap Shahi'
tp204
a(S'100001241115618'
S'Umang Agarwal Kanpur'
tp205
a(S'1055434402'
S'Abhishek Srivastava'
tp206
a(S'100001143079301'
S'Kiran Shaheen'
tp207
a(S'100000858242960'
S'K.d. Surie'
tp208
a(S'1105054305'
S'Vinayak Srivastava'
tp209
a(S'100007667049424'
S'Swaraj Khabar'
tp210
a(S'100004280133020'
S'Meghalaya Rashtrabhasha Prachar Samity'
tp211
a(S'100002710553313'
S'Vikram Singh'
tp212
a(S'100001627401783'
S"Children's Rights India"
tp213
a(S'100003762853034'
S'Arvind Mohan'
tp214
a(S'100000538089005'
S'Deepak Singh'
tp215
a(S'1511672474'
S'Sugatha Suneethi'
tp216
a(S'1297287159'
S'Ark Delhi'
tp217
a(S'100000506414687'
S'Prabhat Kumar Roy'
tp218
a(S'100001761337608'
S"\\u0930\\u0918\\u0941\\u0928\\u0928\\u094d\\u0926\\u0928 \\u092d\\u0948\\u092f\\u093e '\\u0905\\u0915\\u094d\\u0937\\u0930'"
tp219
a(S'100000404401818'
S'Upendraprasad Singh'
tp220
a(S'1561045317'
S'Neeraj Kumar'
tp221
a(S'1300802324'
S'Chitrangi Sharma'
tp222
a(S'100002671499023'
S'Gandhian Varthamanam'
tp223
a(S'1804707306'
S'Subhashini Kisku'
tp224
a(S'100001503718584'
S'Devender Kumar Sharma Arun'
tp225
a(S'100002678491191'
S'Ajay Kumar'
tp226
a(S'1110935609'
S'Khalid Mahmood'
tp227
a(S'100001602447264'
S'Disha India Archive'
tp228
a(S'815827191'
S'Houry Shaghoyan'
tp229
a(S'100002455255738'
S'Inder Ahuja'
tp230
a(S'100001918875741'
S'Nil Kumar'
tp231
a(S'100002175773091'
S'Anushk Sharma'
tp232
a(S'560705246'
S'Chris Hartmann'
tp233
a(S'100000425525479'
S'Venigalla Krishna Mohan'
tp234
a(S'100005653590941'
S'Ram Sharan'
tp235
a(S'100000710671721'
S'Rajni Kant Mudgal'
tp236
a(S'100002624782137'
S'Deosharan Bhagat'
tp237
a(S'100002754840647'
S'Sadhana Pandya'
tp238
a(S'100001116517510'
S'Priyadarshi Priyam'
tp239
a(S'100002498337550'
S'Mukesh Sharma'
tp240
a(S'100000589313179'
S'Manmohan Singh'
tp241
a(S'100000753886338'
S'Birendra Kumar Mahto'
tp242
a(S'526633848'
S'Pooja Mehrotra'
tp243
a(S'1382335040'
S'Adarsh Bajpai'
tp244
a(S'1005984511'
S'Ghughuti Basuti'
tp245
a(S'100003012466572'
S'Prakash Srivastava'
tp246
a(S'100001696522043'
S'Shyam Yenge'
tp247
a(S'1834700744'
S'Saurabh Tiwari'
tp248
a(S'100005153138470'
S'Ravi Veer Dubey'
tp249
a(S'100003200733502'
S'Arti Dixit'
tp250
a(S'100002054037536'
S'Jitender Kumar'
tp251
a(S'808707102'
S'Thomas Winnie'
tp252
a(S'725104778'
S'Dolly Verma'
tp253
a(S'1059189700'
S'Kumar Narendra Singh'
tp254
a(S'100000163194010'
S'Sumir Karmakar'
tp255
a(S'737168349'
S'Babu Lal Sharma'
tp256
a(S'100002769337668'
S'Giridhari Goswami'
tp257
a(S'100001823920411'
S'R Vikkram Singh'
tp258
a(S'1403761165'
S'Om Prakash Mishra'
tp259
a(S'1828878756'
S'Padmashri Vaidya'
tp260
a(S'1058394178'
S'Snehal Bhingare Kulkarni'
tp261
a(S'100004745043497'
S'Csds Delhi'
tp262
a(S'100002617625082'
S'Madhu Aggrawal'
tp263
a(S'100004361233394'
S'Baba Nagnath Yogeshwar Pithadeshwar'
tp264
a(S'1322571485'
S'Tushar Sharma Toshu'
tp265
a(S'100000040937895'
S'Kirsi Chavda'
tp266
a(S'1263587889'
S'Deepak Sdeepak'
tp267
a(S'100002047393939'
S'Arunakar Pandey'
tp268
a(S'100001855713062'
S'Dorothy Vanila'
tp269
a(S'1006440646'
S'Outi Hakkarainen'
tp270
a(S'100002641097789'
S'Swapnil Kumar'
tp271
a(S'100000146033986'
S'Manoj Prasad'
tp272
a(S'618025682'
S'Rajat Nayyar'
tp273
a(S'100000183870303'
S'Sudha Reddy'
tp274
a(S'1400917540'
S'Rameshwar Singh'
tp275
a(S'100004488702727'
S'Arvind Kumar Tyagi'
tp276
a(S'100000599952829'
S'Shailja Pathak'
tp277
a(S'100008246734205'
S'Saeed Sajid Awan'
tp278
a(S'100001426674874'
S'Tim Kuhn'
tp279
a(S'1351839007'
S'Parineeta Sharma'
tp280
a(S'100001272250480'
S'Jnu Bhojpuri Manch'
tp281
a(S'100000043806448'
S'Sheba Rakesh'
tp282
a(S'100006129154851'
S'Shilpa Jain'
tp283
a(S'605540471'
S'Ketan Rao'
tp284
a(S'100000336877116'
S'Deepak KM Pujari'
tp285
a(S'100003196091735'
S'Ayesha Mohungooa'
tp286
a(S'1316255090'
S'Prabhat Basant'
tp287
a(S'100006578461281'
S'\\u0917\\u093f\\u0930\\u093f\\u0930\\u093e\\u091c \\u0938\\u093f\\u0902\\u0939'
tp288
a(S'100000789567451'
S'Suresh Nautiyal'
tp289
a(S'1850853468'
S'Meenu Bansal'
tp290
a(S'100001202449823'
S'Savita Kumari'
tp291
a(S'746586879'
S'\\u092a\\u094d\\u0930\\u0936\\u093e\\u0928\\u094d\\u0924 \\u091d\\u093e'
tp292
a(S'100002754065930'
S'Rajendra Sharma'
tp293
a(S'1671347799'
S'Charudatta Pendse'
tp294
a(S'1287285882'
S'Putul Kumari'
tp295
a(S'100005275382499'
S'Madan Mohan'
tp296
a(S'100001175668322'
S'Rajat Rajabhau Avasak'
tp297
a(S'100001581413734'
S'Jyoti Singh Sisodia'
tp298
a(S'100001079717706'
S'Vani India'
tp299
a(S'100001304046453'
S'Vallikkattil Ramdas'
tp300
a(S'100001266353456'
S'Sajjan Kumar'
tp301
a(S'531283728'
S'Sonia Wazed'
tp302
a(S'100000441281850'
S'Leeza Khushuboo'
tp303
a(S'1497740061'
S'Angappan Arumugam'
tp304
a(S'743847885'
S'Gopi Krishna'
tp305
a(S'1660145964'
S'Ashok Mehta'
tp306
a(S'100003644562504'
S'Vijay Bhatt'
tp307
a(S'100003781070068'
S'Parshuram Thakur Brahmvadi'
tp308
a(S'100001103613753'
S'Swapnil Ratnaparkhi'
tp309
a(S'693163466'
S'Ravi Prakash'
tp310
a(S'524806999'
S'Indra Vikram Singh'
tp311
a(S'628979923'
S'Nilina Mitra'
tp312
a(S'100000396394776'
S'Rakesh Kumar'
tp313
a(S'100002414182141'
S'Sonwm Brahma'
tp314
a(S'1472532127'
S'Karmveer Pal'
tp315
a(S'1522924919'
S'Bhavna Ramrakhiani'
tp316
a(S'1850296221'
S'Sarika Shinde'
tp317
a(S'100003788886001'
S'Manoj Manviya Sanjuman'
tp318
a(S'100001356666627'
S'Raghvendra Mishra'
tp319
a(S'100006792125764'
S'Husain Dalwai'
tp320
a(S'100002511301684'
S'Arpan Ngo'
tp321
a(S'100001539831163'
S'Devendra Singh'
tp322
a(S'100002031371304'
S'Vijaylaxmi Sahji'
tp323
a(S'100002113017725'
S'Satish Kumar'
tp324
a(S'100001787536394'
S'Arvind Anjum'
tp325
a(S'1018615235'
S'Kusum Lata'
tp326
a(S'100001175386236'
S'Uma Devi M Pavuluri'
tp327
a(S'100002344969728'
S'Shree Krishanpriya'
tp328
a(S'100002282413866'
S'Chanchal Bhu'
tp329
a(S'100001216203681'
S'Saket Singh'
tp330
a(S'778457487'
S'Rajesh Kaushik'
tp331
a(S'100000394309247'
S'Prabhat Jha'
tp332
a(S'1296367008'
S'Himani Purohit'
tp333
a(S'100000367759987'
S'Kiran Nishu'
tp334
a(S'100000714563908'
S'\\u0930\\u093e\\u0915\\u0947\\u0936 \\u0915\\u0941\\u092e\\u093e\\u0930 \\u0938\\u093f\\u0902\\u0939'
tp335
a(S'1130557512'
S'Mohit Pandey'
tp336
a(S'100007333565170'
S'Vikram Parashar'
tp337
a(S'100001235963886'
S'Alok Dubey'
tp338
a(S'100000501963671'
S'Neeraj Sinha'
tp339
a(S'100001332109895'
S'Rawat Bhagat Singh'
tp340
a(S'100002399255022'
S'\\u0935\\u093f\\u0928\\u092f \\u0926\\u094d\\u0935\\u093f\\u0935\\u0947\\u0926\\u0940'
tp341
a(S'100001278193109'
S'Arushi Sharma'
tp342
a(S'100004074554168'
S'Shashi Poornima Amarakoon'
tp343
a(S'100002941232757'
S'Praveen Sharma'
tp344
a(S'100000126014344'
S'Bhola Sharma'
tp345
a(S'573621396'
S'Geetika Sharan'
tp346
a(S'563301619'
S'Sharmistha Choudhury'
tp347
a(S'1747039081'
S'Suresh Rao'
tp348
a(S'1443589661'
S'Shipra Sharma'
tp349
a(S'100002503702688'
S'Deepak Ranjeet'
tp350
a(S'100003517774800'
S'Rajiv Shukla'
tp351
a(S'100000111517194'
S'Ashutosh Singh'
tp352
a(S'100002948403556'
S'Sunil Astik'
tp353
a(S'1094484856'
S'Grama Swarajya Samithi Vizag'
tp354
a(S'100002035546710'
S'Manohar More'
tp355
a(S'100002991140052'
S'Bob Leo'
tp356
a(S'100002058420329'
S'Sadhvi Poornamba'
tp357
a(S'100002754127751'
S'Anil Vishvkarma'
tp358
a(S'100002536913863'
S'G.k. Sahani'
tp359
a(S'100000136694268'
S'Kameshwar Kamati'
tp360
a(S'583223426'
S'Shree Prakash'
tp361
a(S'645055406'
S'Anurag Chaturvedi'
tp362
a(S'100001330614308'
S'Sagar Kumar'
tp363
a(S'1559416012'
S'Biswendu Nanda'
tp364
a(S'1729884856'
S'Shashi Kant Pandey'
tp365
a(S'1007765909'
S'Vijay Burgula'
tp366
a(S'100000463542428'
S'Kr Aman'
tp367
a(S'514364611'
S'Shivangi Chavda'
tp368
a(S'100000095991419'
S'Kiran Shaheen'
tp369
a(S'100000743581086'
S'\\u0935\\u093f\\u092e\\u0932\\u0947\\u0936 \\u092e\\u093f\\u0936\\u094d\\u0930'
tp370
a(S'534959215'
S'Sanjay Pandey Satya'
tp371
a(S'100005744554746'
S'Cysv Jnu'
tp372
a(S'100000616001364'
S'Devendra Sharma'
tp373
a(S'100002491504067'
S'\\u0921\\u0949. \\u092a\\u094d\\u0930\\u0940\\u0924 \\u0905\\u0930\\u094b\\u095c\\u093e'
tp374
a(S'100001790008176'
S'Lalit Singh'
tp375
a(S'100002331618119'
S'Kumar Kalanand Mani'
tp376
a(S'100003269405425'
S'Ashish Mishra'
tp377
a(S'652003815'
S'Kutty Biyyathil Mohyuddin'
tp378
a(S'616192258'
S'Jolly Rohatagi'
tp379
a(S'100002123819039'
S'Watchdog Ngo'
tp380
a(S'100002130725246'
S'Ambrish Kumar'
tp381
a(S'100001036077128'
S'Rathore Deepa'
tp382
a(S'100000344074543'
S'Arjun Kokate'
tp383
a(S'100004534599661'
S'Prem Verma'
tp384
a(S'631388631'
S'Sanjay Kumar'
tp385
a(S'100002674950087'
S'Pradeep Kumar Singh'
tp386
a(S'100002497636609'
S'Awantika Sen'
tp387
a(S'1233422190'
S'Yogendra Vinayak'
tp388
a(S'1789254222'
S'Sulekha Pande'
tp389
a(S'100003086310256'
S'Pukhraj Jakhar'
tp390
a(S'100003359280100'
S'Madan Mohan'
tp391
a(S'1060705874'
S'Needs Raja'
tp392
a(S'100001866655849'
S'Saraswati Kohli'
tp393
a(S'100005766280763'
S'Chitra Sankar Sevalayam'
tp394
a(S'100004163946636'
S'\\u092e\\u091f\\u093e \\u0914\\u0930\\u0902\\u0917\\u093e\\u092c\\u093e\\u0926'
tp395
a(S'549483872'
S'Udongo Land'
tp396
a(S'695908552'
S'Niti Kartik Ayer'
tp397
a(S'100002889620614'
S'Madhu Mansoori'
tp398
a(S'100004022321372'
p399
S'Meghna Angel'
tp400
a(S'100000008100016'
S'Jay Prakash Jalauni'
tp401
a(S'100004411685919'
S'Gau Mata'
tp402
a(S'100001613524581'
S'Ulka Mahajan'
tp403
a(S'100001279747159'
S'Shephali Bhardwaj Singh'
tp404
a(S'100003369931207'
S'Jagannatha Dham Puri Debasmita'
tp405
a(S'100000335520729'
S'Devendra Budakoti'
tp406
a(S'100002888919451'
S'Aman Mishra Rss'
tp407
a(S'100000016328393'
S'Neelchandra Ahir'
tp408
a(S'100000035345142'
S'Ashok Kumar Choudhary'
tp409
a(S'100001912963871'
S'P\\u00e4ivi Ahonen'
tp410
a(S'550504393'
S'Shahid Ghazali'
tp411
a(S'1497394363'
S'Rakesh Ghadi'
tp412
a(S'743293425'
S'Muniza Khan'
tp413
a(S'100003025642551'
S'Suhas Kote'
tp414
a(S'100006284282598'
S'Zoya Ali'
tp415
a(S'1399543382'
S'Rajeev Kannattumodi'
tp416
a(S'100001117655752'
S'Madhukar Ranchi'
tp417
a(S'100002122230205'
S'Sujata Suman'
tp418
a(S'100001455546998'
S'Prachi Mishra'
tp419
a(S'100001168232041'
S'Manoj Kumar'
tp420
a(S'100007855443649'
S'Samajwadijanparishad Kerala'
tp421
a(S'100000770791403'
S'Kynkyny Art'
tp422
a(S'100001801319093'
S'Teetu Sharma'
tp423
a(S'100002390201870'
S'Shachindra Shekhar Shakunt'
tp424
a(S'1392111690'
S'Sanjeev Sane'
tp425
a(S'100003314124618'
S'Ysc Orissa'
tp426
a(S'739473932'
S'Arbind Sahay'
tp427
a(S'100001976706480'
S'Shrikant Laxmishankar'
tp428
a(S'676562758'
S'Shujauddin Qureshi'
tp429
a(S'100000725611614'
S'Joy Mathew'
tp430
a(S'652753201'
S'Shalu Mehrotra'
tp431
a(S'1534211509'
S'Sampat Mandave'
tp432
a(S'100006958650442'
S'Prerana Kendra'
tp433
a(S'1613274396'
S'Sujata Bhatnagar'
tp434
a(S'1465797765'
S'Imtiyaz Mansuri'
tp435
a(S'612389777'
S'Habibullah Ansari'
tp436
a(S'1035268448'
S'Arvind Anjum'
tp437
a(S'636709286'
S'Eva Fuhrer'
tp438
a(S'100002319119216'
S'Pooja Sri'
tp439
a(S'1081345903'
S'Saroj Patel'
tp440
a(S'100000140149582'
S'Nway Nway Tun'
tp441
a(S'100002646022166'
S'Manibhushan Sharma'
tp442
a(S'100003188976763'
S'Janmadhyam Jharkhand'
tp443
a(S'100002056134462'
S'Devinder Sharma'
tp444
a(S'100000947891680'
S'Aasha Ramesh'
tp445
a(S'100000691656737'
S'Rajendra Bahalkar'
tp446
a(S'100002145587884'
S'Raval Parth'
tp447
a(S'100001212691244'
S'Natraj Chinnappan'
tp448
a(S'1523078353'
S'Ulka Savla'
tp449
a(S'100004334735839'
S'Krishan Gopal Maharaj Ji'
tp450
a(S'100000510404450'
S'Raghumadambath Nandanan'
tp451
a(S'1275517435'
S'Jyoti Saxena'
tp452
a(S'1670007196'
S'Jai Madan'
tp453
a(S'100002734173936'
S'Gulab Chandra'
tp454
a(S'1432913867'
S'\\u0935\\u093f\\u0936\\u093e\\u0932 \\u0924\\u093f\\u0935\\u093e\\u0930\\u0940'
tp455
a(S'100000686944263'
S'Anil Kumar'
tp456
a(S'100000717144859'
S'Gaurav Sinha'
tp457
a(S'1667995065'
S'Ashok Upadhyay'
tp458
a(S'100001593101491'
S'Geeta Nair'
tp459
a(S'1397392443'
S'Kaushal Kishore'
tp460
a(S'1444980576'
S'Savita Shinde'
tp461
a(S'100000066018405'
S'Vinod Bishnoi'
tp462
a(S'100001756103502'
S'Jawahar Nagori'
tp463
a(S'100003937477326'
S'Ankit Sharma'
tp464
a(S'601981650'
S'Sheela Singh'
tp465
a(S'100002533468281'
S'Sk Basheer'
tp466
a(S'100001639216783'
S'Arun Tripathi'
tp467
a(S'100000127942319'
S'Vikas Singh Khari'
tp468
a(S'100002533389600'
S'Kusum Hooda'
tp469
a(S'100000471283345'
S'Shraddha Bhargav'
tp470
a(S'1273669083'
S'Mohini Priya Devi Dasi'
tp471
a(S'100000644491539'
S'Dp Singh'
tp472
a(S'699361435'
S'Basant Kumar'
tp473
a(S'1233302173'
S'Swaraaj Chauhan'
tp474
a(S'1158967711'
S'Ashok Rajan'
tp475
a(S'100001222505418'
S'Suraj Sharma'
tp476
a(S'729283522'
S'Himanshu Thakkar'
tp477
a(S'100000489624922'
S'Ni Ni Aye'
tp478
a(S'788293891'
S'Sirpa Rovaniemi'
tp479
a(S'617907157'
S'Anuj Tiwari'
tp480
a(S'100002140226742'
S'Alok Sahay'
tp481
a(S'100001021373100'
S'Edvin Gardia'
tp482
a(S'567711966'
S'Sushant Jha'
tp483
a(S'1517447719'
S'Aradhana Mukti'
tp484
a(S'100007457161893'
S'Swadeshi Raj'
tp485
a(S'1524013863'
S'Vaibhav Mishra'
tp486
a(S'100000968586894'
S'Mahadev Vidrohi'
tp487
a(S'100000672761996'
S'Virendra Sakha'
tp488
a(S'100002915115010'
p489
S'Obaid Mohd'
tp490
a(S'100002079252145'
S'Indu Jain'
tp491
a(S'1077095735'
S'Vepa Rao'
tp492
a(S'645321456'
S'Saral Yadav'
tp493
a(S'1593706386'
S'Lissy Retna'
tp494
a(S'100003948910734'
S'Somnath Rudrapuri'
tp495
a(S'745088682'
S'Mithilesh Kabeer'
tp496
a(S'100001214497244'
S'Ashutosh Kumar Singh'
tp497
a(S'100002159448315'
S'Deependra Avinash'
tp498
a(S'1509912026'
S'Vaishali Javkar'
tp499
a(S'1037696059'
S'Madhu Maddy'
tp500
a(S'1253739511'
S'Vijay Kishore Manav'
tp501
a(S'1511764972'
S'Kunal Baikunth Singh'
tp502
a(S'100006982353885'
S'Manisha Sharma'
tp503
a(S'1474501372'
S'\\u0930\\u0935\\u093f \\u0915\\u094b\\u0939\\u093e\\u0921\\u093c'
tp504
a(S'100002592677529'
S'John Gnamaprakasam'
tp505
a(S'100003485288424'
S'Pawan Kumar Singh'
tp506
a(S'100000015153295'
S'Pushpa Sharma'
tp507
a(S'1702648579'
S'Agariya Heetrakshak Sangh'
tp508
a(S'1635548579'
S'Vandana Misra'
tp509
a(S'100007262101828'
S'Rajan Gupta'
tp510
a(S'100001169648769'
p511
S'Joginder Singh'
tp512
a(S'100002459786427'
S'Kabira Singh'
tp513
a(S'100001406604857'
S'\\u0909\\u0924\\u094d\\u0924\\u092e\\u0930\\u093e\\u0935 \\u0915\\u094d\\u0937\\u0940\\u0930\\u0938\\u093e\\u0917\\u0930'
tp514
a(S'100000451645369'
S'Ashok Singh'
tp515
a(S'100001633501174'
S'Arun Kumar Arun'
tp516
a(S'614867161'
S'Muhammad Danish Siddiqui'
tp517
a(S'100001366302702'
S'Gopal Ji Rai'
tp518
a(S'1413537012'
S'Anil Sinha'
tp519
a(S'100004011678866'
S'Ramakant Lal'
tp520
a(S'100002507435943'
S'DrHemlata Sharma'
tp521
a(S'100007485006739'
S'Rane Thakur'
tp522
a(S'100002590535571'
S'Nikhil Wagle'
tp523
a(S'100002592314103'
S'Gopal Krishna Shukla'
tp524
a(S'591967266'
S'Sharma Manjari'
tp525
a(S'1189028883'
S'Wajda Tabassum'
tp526
a(S'100000005040740'
S'Nitish Kumar Sinha'
tp527
a(S'100000450983018'
S'DrParvathy Rajeev'
tp528
a(S'100002116476729'
S'Nalini Ranjan'
tp529
a(S'100003700422475'
S'Keshav Krantikari'
tp530
a(S'100001734835351'
S'George Viswanathan'
tp531
a(S'1782780244'
S'Rafiqul Islam Sujon'
tp532
a(S'100002616750638'
S'Kumar Dilip'
tp533
a(S'100000792134871'
S'Sharafat Ali'
tp534
a(S'1067332549'
S'Dr-Mayur Joshi'
tp535
a(S'100000768133345'
S'Sindhu Jha'
tp536
a(S'100001340148119'
S'Thin Thin Aung'
tp537
a(S'100000878447151'
S'Sima Upadhyaya'
tp538
a(S'1841361889'
S'Dilip Waghmare'
tp539
a(S'100001428181087'
S'\\u092a\\u0902\\u0915\\u091c \\u0915\\u0941\\u092e\\u093e\\u0930 \\u092a\\u093e\\u0923\\u094d\\u0921\\u0947\\u092f'
tp540
a(S'100002203296467'
S'Rajendra Ravi'
tp541
a(S'572148156'
S'Rutuja Durne'
tp542
a(S'100003395040236'
S'Sarmishtha Madhusudan'
tp543
a(S'100000806493329'
S'Jyotsna Vijayendra'
tp544
a(S'100002593727937'
S'Gurgaon Ki Awaaz'
tp545
a(S'100000931888802'
S'Alok Kumar'
tp546
a(S'522178338'
S'Gautam Desai'
tp547
a(S'100008065301990'
S'Chaya Ratan'
tp548
a(S'100001046453569'
S'Sangeeta Pandey'
tp549
a(S'100005673793557'
S'Oshdhalaya Pathmeda'
tp550
a(S'100006679295878'
S'Ravi Kumar'
tp551
a(S'100005633949031'
S'Sand Artist Hari Krishna'
tp552
a(S'100005816766885'
S'Digvijay Kumar'
tp553
a(S'100000416624120'
S'Renu Sinha'
tp554
a(S'1728806254'
S'Rakesh Gupta Sanghrashngo'
tp555
a(S'1279401034'
S'Rohit Sharma'
tp556
a(S'1344161205'
S'Samarendra Das'
tp557
a(S'1662345540'
S'Raju Narzary'
tp558
a(S'100001356615707'
S'Susmita Mukherjee'
tp559
a(S'100003004363819'
S'Rajesh Kumar Sharma'
tp560
a(S'100005442636864'
S'Kapil Kaul'
tp561
a(S'1701350233'
S'Indramani Sahu'
tp562
a(S'100000499011343'
S'Manish Chopra'
tp563
a(S'100000197933269'
S'Shyam Shrestha'
tp564
a(S'100003757480803'
S'Sharma Vedic Astro'
tp565
a(S'1280859119'
S'Paulomee Mistry'
tp566
a(S'100002267292156'
S'Intercultural Resources'
tp567
a(S'1201137387'
S'Perneet Singh'
tp568
a(S'100001506735603'
S'Aakash Koralwala'
tp569
a(S'100000700990026'
S'Joshy Jacob'
tp570
a(S'100000072895111'
S'Asshok Upadhyay'
tp571
a(S'100002360322340'
S'Rabindra Nath Choubey'
tp572
a(S'100005939772552'
S'Innervoiceof Bharath Ivb'
tp573
a(S'1447202529'
S'Rajaneesh Shukla'
tp574
a(S'100000903485052'
S'Salam Pukhtunkhwa'
tp575
a(S'100002801162769'
S'Ashwini Satav-Doke'
tp576
a(S'100004071593970'
S'Bhagwan Prashuram'
tp577
a(S'100003134451203'
S'Chengal Reddy'
tp578
a(S'1743957391'
S'Mittal Patel'
tp579
a(S'100000582634582'
S'Deepak Sharma'
tp580
a(S'1208692704'
S'Ishwar Desai'
tp581
a(S'100002121583749'
S'Sushama Jadhav'
tp582
a(S'100002632550056'
S'Hrishi Kant Mamgain'
tp583
a(S'100001806460543'
S'Tara Ali Rajput'
tp584
a(S'100004643290405'
S'Vishwa Brahmin'
tp585
a(S'100001882480633'
S'Firoz Ahmad'
tp586
a(S'100002347994352'
S'Reena Sahu'
tp587
a(S'100000644714252'
S'Viswanathan Orupakil'
tp588
a(S'100000230634527'
S'\\u0921\\u0949 \\u091c\\u094d\\u092f\\u094b\\u0924\\u093f \\u0936\\u0930\\u094d\\u092e\\u093e'
tp589
a(S'100002263326302'
S'Haroon Rasheed'
tp590
a(S'100001511745538'
S'Aarti Sharma'
tp591
a(S'100003395109275'
S'Sath Wick Rock'
tp592
a(S'100003335051997'
S'Swami Harihar'
tp593
a(S'100000418620142'
S'Neerja Arora'
tp594
a(S'100004187232519'
S'Sushil Mohapatra'
tp595
a(S'100001286206252'
S'Arvind Tripathi'
tp596
a(S'694834144'
S'Manjushree Abhinav'
tp597
a(S'100002205555981'
S'Giriraj Kishore'
tp598
a(S'753342926'
S'Sanjay Mangala Gopal'
tp599
a(S'100002237255105'
S'Inayat Kashif'
tp600
a(S'100002520002974'
S'Dilip C Mandal'
tp601
a(S'1776323895'
S'Vikalpfoumdation Gaya'
tp602
a(S'684780215'
S'Kavita Joshi'
tp603
a(S'100000094364647'
S'Arumugam Gurusamy'
tp604
a(S'100002106041669'
S'Ram Mohan'
tp605
a(S'100000509607533'
S'DrSweet Angel'
tp606
a(S'100002647707019'
S'Bhagyashree Borawake'
tp607
a(S'1514370910'
S'Sadhana Dadhich'
tp608
a(S'680266791'
S'Archis Mohan'
tp609
a(S'1756585053'
S'Prabal Maitra'
tp610
a(S'100003837491641'
S'\\u0924\\u094d\\u0930\\u093f\\u0932\\u094b\\u091a\\u0928 \\u0936\\u093e\\u0938\\u094d\\u0924\\u094d\\u0930\\u0940'
tp611
a(S'100008190601369'
S'Aflatoon Aflatoon'
tp612
a(S'643083437'
S'Mukul Sharma'
tp613
a(S'100003328251968'
S'Trilochan Shastri Rakesh'
tp614
a(S'566353728'
S'Madhu Talwalkar'
tp615
a(S'1835543853'
S'Kumar Vishnupad Manu'
tp616
a(S'1500731036'
S'Jyothi Swamy'
tp617
a(S'640337426'
S'Arvind Kumar Singh'
tp618
a(S'100000534007722'
S'Tiken Wahengbam'
tp619
a(S'1272903697'
S'DrSoniyaa P Bhaagiyaa'
tp620
a(S'100000307546135'
S'Sandeep Mishra'
tp621
a(S'100002833341788'
S'Anil Tripathi'
tp622
a(S'100000241898335'
S'Kamalesh Sah'
tp623
a(S'100006732463290'
S'Subodh Kant Sahay'
tp624
a(S'100000356700707'
S'Guddi Ymyb'
tp625
a(S'751540757'
S'Unsuril Imani'
tp626
a(S'100002197227194'
S'Mukti Nath Upadhyaya'
tp627
a(S'100001682043532'
S'Ranjana Agnihotri'
tp628
a(S'100002065378176'
S'Kusuma Patel'
tp629
a(S'100001961876576'
S'Umashankar Upadhyay'
tp630
a(S'100003847740796'
S'Brajbhushan Prasad'
tp631
a(S'100002436107897'
S'Delhi Vikas Manch'
tp632
a(S'1316992203'
S'Juliana Lohar'
tp633
a(S'100001879994111'
S'Gulab Jha'
tp634
a(S'1495807592'
S'Manorma Singh'
tp635
a(S'1602813343'
S'Karthik Navayan Battula'
tp636
a(S'100001254150286'
S'Aruna Singh'
tp637
a(S'764459045'
S'Vijaya Chauhan'
tp638
a(S'100001271711079'
S'Yashwant K Ranjan'
tp639
a(S'100002758820958'
S'Kumar Triwedi Naveen'
tp640
a(S'100002661502434'
S'Krishna Kumar'
tp641
a(S'1329655032'
S'Jayant Kumar'
tp642
a(S'100007123450845'
S'Iftekhar Hussain'
tp643
a(S'100003501036977'
S'Sanjiv Kumar'
tp644
a(S'100001896935649'
S'Sanjay Kumar Singh'
tp645
a(S'100003600886956'
S'Matribhumi Fmcss'
tp646
a(S'1532916631'
S'Aditya Singh Tomar'
tp647
a(S'100002916176104'
S'Koibhookhanasoye Abhiyan'
tp648
a(S'100001684825091'
S'Chattisgarh Mukti Morcha'
tp649
a(S'100000671535816'
S'Dp Tripathi'
tp650
a(S'100004539763149'
S'Rani Sofiya'
tp651
a(S'100000245348041'
S'Shashank Bharadwaj'
tp652
a(S'1365908277'
S'Anjali Sethi'
tp653
a(S'100001858180973'
S'Ram Pratap'
tp654
a(S'100001987395253'
S'Pushpa Devdhar'
tp655
a(S'100000112184154'
S'Om Verma'
tp656
a(S'100002742375106'
S'Bharat Reddy M'
tp657
a(S'100000769000281'
S'Manjari Shukla'
tp658
a(S'100002929748500'
S'Shivanand Tivary'
tp659
a(S'100003048556090'
S'Habib Akhtar'
tp660
a(S'100004698480021'
S'Kota Ramulu Yadav'
tp661
a(S'100002605077075'
S'Bipendra Kumar'
tp662
a(S'100000646074180'
S'Monica Sinnur'
tp663
a(S'100001529901764'
S'Lohit Saral'
tp664
a(S'100002516242833'
S'Sajal Srivastava'
tp665
a(S'100004027056561'
S'Anjali Upadhyay Bhagwat Prawakta'
tp666
a(S'100000644234243'
S'Tarun Bharat Sangh'
tp667
a(S'100002917166939'
S'Ganga Samachar'
tp668
a(S'1045327483'
S'Anant Mital'
tp669
a(S'643880880'
S'Saroj Thapa'
tp670
a(S'1435460700'
S'Natwar Thakkar'
tp671
a(S'1368586020'
S'Shail Jha'
tp672
a(S'789717577'
S'Binoy Shanker Prasad'
tp673
a(S'100002150201582'
S'Surekha Dalvi'
tp674
a(S'563677337'
S'Neichu Dz'
tp675
a(S'100003155562826'
S'Rajeev Sharma'
tp676
a(S'100000593882574'
S'Govind Badone'
tp677
a(S'100002264275248'
p678
S'Seema Sharma'
tp679
a(S'100000692183744'
S'Bhagwanji Pathak'
tp680
a(S'100001460713556'
S'Sharad Singh'
tp681
a(S'655620474'
S'Arvind Gaur'
tp682
a(S'100003567935045'
S'Raghupati Singh'
tp683
a(S'100000531672888'
S'Raghavendra Das'
tp684
a(S'100002267794339'
S'Anil Singh'
tp685
a(S'1755537038'
S'Khushal Singh Rawat'
tp686
a(S'100002660989171'
S'Madhusudan Sundriyal Aap'
tp687
a(S'100001600796679'
S'Ashwini Tyagi'
tp688
a(S'1847727025'
S'Bibhu Kalyan Mohanty'
tp689
a(S'100002993057332'
S'Annu Tripathi'
tp690
a(S'1034831783'
S'Annu Anand'
tp691
a(S'100004411300448'
S'Sulabh Ganga'
tp692
a(S'1812010169'
S'Amar Mishra Lucknow'
tp693
a(S'100000447695030'
S'Shekhar Sonalkar'
tp694
a(S'100000132054911'
S'Anurag Hardikar'
tp695
a(S'1282057166'
S'Ramesh Chand Sharma'
tp696
a(S'100001305586340'
S'Indiana Zones'
tp697
a(S'1178696535'
S'Feroze Mithiborwala'
tp698
a(S'100002038725603'
S'Sanjay Sajjan Singh'
tp699
a(S'100006520322958'
S'Rudra Pratap Singh'
tp700
a(S'100001828377380'
S'Amit Tripathi'
tp701
a(S'100003086427699'
S'Prashant Ramchandra Sawant'
tp702
a(S'100002887013891'
S'Vinod Wagh'
tp703
a(S'100000193724831'
S'Ambuj Upadhyay'
tp704
a(S'100002272320600'
S'Sp Pandey'
tp705
a(S'100000511585894'
S'Sri Eni Purnamawati'
tp706
a(S'723307190'
S'Punit Juneja'
tp707
a(S'100003025666985'
S'Reji Parappallil'
tp708
a(S'100002462282768'
S'Shrikant Mhatre'
tp709
a(S'100002187078478'
S'Shri Mahant Ashok Giri'
tp710
a(S'100002945070122'
S'Indrayani Patil'
tp711
a(S'100000985663574'
S'Mohua Chakraborty'
tp712
a(S'1783382725'
S'Rama Nath Chaudhary'
tp713
a(S'100000658842890'
S'Pradeep Kumar Mittal'
tp714
a(S'750552462'
S'Disha Banerjee'
tp715
a(S'100002149012989'
S'Siddharth Kumar'
tp716
a(S'1474996835'
S'Manoj Prasad'
tp717
a(S'100004615326144'
S'Neelu Neelakshi'
tp718
a(S'100000774646692'
S'Ajay Jangid'
tp719
a(S'1721454671'
S'Guru Anandini'
tp720
a(S'100003382510721'
S'Bhimlal Sahu'
tp721
a(S'100003123713976'
S'Poonam Srivastava'
tp722
a(S'585032754'
S'Satish Jha'
tp723
a(S'100006289957223'
S'Gyanendra Pandey'
tp724
a(S'1589294129'
S'Vijay Kedia'
tp725
a(S'100005340185874'
S'Narendra Mourya'
tp726
a(S'1492274943'
S'\\u0917\\u0902\\u0917\\u093e \\u0938\\u0939\\u093e\\u092f \\u092e\\u0940\\u0923\\u093e'
tp727
a(S'595249640'
S'Ajay Veer Singh Jain'
tp728
a(S'100003648356570'
S'Bihar Nirmann'
tp729
a(S'100000975211619'
S'Shakeel Ahmad'
tp730
a(S'100003301806295'
S'Gopal Krishna Shukla'
tp731
a(S'100001516615344'
S'Vivekanand Tripathi'
tp732
a(S'100003650210552'
S'Khudai Khidmatgar'
tp733
a(S'100001373247939'
S'SUmana Patra'
tp734
a(S'1154511261'
S'Radha Verma'
tp735
a(S'100000471260942'
S'Vilas Kirote'
tp736
a(S'100000182832958'
S'Rajneesh Bahuguna'
tp737
a(S'100002835513311'
S'Kamlesh Mhetre'
tp738
a(S'1791663519'
S'Mass Kutch Gujarat'
tp739
a(S'1621789468'
S'Vijay Shukla'
tp740
a(S'100002312540314'
S'Urvashi Menon'
tp741
a(S'100002506291623'
S'Bharat Bhushan Jha Nandu'
tp742
a(S'1452631569'
S'Sarita Negi Panwar'
tp743
a(S'100000013981547'
S'Sapna Bhardwaj'
tp744
a(S'100001200060056'
S'Devendra Shrivastava'
tp745
a(S'1158993888'
S'Neeta Pandya'
tp746
a(S'1057614941'
S'Harishankar Shahi'
tp747
a(S'100001539646977'
S'Yuva Samvad'
tp748
a(S'673578778'
S'Raman Nanda'
tp749
a(S'100002501883858'
S'DrAnamika Yadav'
tp750
a(S'1350854982'
S'Shobha Supekar'
tp751
a(S'1788633590'
S'Dhvanit Pandya'
tp752
a(S'1666686411'
S'Goutam Maiti'
tp753
a(S'100000041669429'
S'Rupal Raval'
tp754
a(S'100002710910653'
S'\\u0909\\u0924\\u094d\\u0924\\u093f\\u0937\\u094d\\u0920\\u0924 \\u0909\\u0924\\u094d\\u0924\\u093f\\u0937\\u094d\\u0920\\u0924'
tp755
a(S'100000104024347'
S'Onkar Mittal'
tp756
a(S'100003889448596'
S'Drsuprabhat Bhardwaj'
tp757
a(S'100007953337972'
S'Rout Partha Rajat'
tp758
a(S'100002257705078'
S'Rajbala Bharti Nagar'
tp759
a(S'100002081308092'
S'Hs Prabhakar'
tp760
a(S'100002870340012'
S'\\u091c\\u092f \\u092e\\u093e\\u0901 \\u092d\\u093e\\u0930\\u0924\\u0940'
tp761
a(S'1077313875'
S'DrRita Savla'
tp762
a(S'100003375703800'
S'Jitendra Kumar'
tp763
a(S'100003553653716'
S'\\u0928\\u0926\\u0940 \\u092a\\u0941\\u0924\\u094d\\u0930 \\u0930\\u092e\\u0947\\u0936'
tp764
a(S'1762703710'
S'Prabhat Kumar'
tp765
a(S'100002861884726'
S'Usha Bhargav'
tp766
a(S'100001275541991'
S'Deepa Rathore'
tp767
a(S'100003803976014'
S'Muni JI'
tp768
a(S'639248517'
S'Sukanya Pushkarna'
tp769
a(S'100001529110435'
S'Kamal Sharma Sadvipra'
tp770
a(S'1200142862'
S'Sunila Singh'
tp771
a(S'100002375212282'
S'Rudransh Nagar'
tp772
a(S'100000569587337'
S'Vinay Soni'
tp773
a(S'1216651198'
S'Rizwan Qaiser'
tp774
a(S'1641684776'
S'Saneesh Sunny'
tp775
a(S'1336269043'
S'Rimjhim Pandey'
tp776
a(S'581603432'
S'Raghu Tewari'
tp777
a(S'831974940'
S'Dhruva Narayan'
tp778
a(S'1027347586'
S'Asha Mishra'
tp779
a(S'100002431578073'
S'Ramakant Ramavtar Gupta'
tp780
a(S'100005957974735'
S'Daksha Mehta'
tp781
a(S'100001476477144'
S'Jaya Sharma'
tp782
a(S'100000685930159'
p783
S'Richa Mishra'
tp784
a(S'100002430311261'
S'Vinay Kant Mishra'
tp785
a(S'100002264660525'
S'Gourav Sharma'
tp786
a(S'1080392398'
S'Shyamnarayan Pandey'
tp787
a(S'100001141085418'
S'Jnualumni Connect'
tp788
a(S'100000199525721'
S'Rajendra Singh'
tp789
a(S'100004585061726'
S'Baba Shivnath'
tp790
a(S'1793942702'
S'Rameshwar Mishra Pankaj'
tp791
a(S'100003337436305'
S'Sadhvi Richa'
tp792
a(S'100001148403810'
S'Urte Tegtmeyer'
tp793
a(S'100003047587926'
S'Sharma Arvind'
tp794
a(S'699996464'
S'Renu Gupta'
tp795
a(S'751520207'
S'Nita Ramcharan'
tp796
a(S'100005814252508'
S'Ishwar Chandra'
tp797
a(S'100000147944156'
S'Sunil Piwal'
tp798
a(S'616536382'
S'Rakesh Sharma'
tp799
a(S'100002357215667'
S'Veena Pandey'
tp800
a(S'100001775011359'
S'Natural Friend'
tp801
a(S'1768462159'
S'Ashok Shrimali'
tp802
a(S'100002636461178'
S'Christa D\\u00fcrr'
tp803
a(S'644833180'
S'Anjali Deshpande'
tp804
a(S'1809775413'
S'Chaman Lal Jnu'
tp805
a(S'578626800'
S'Neet Pannu'
tp806
a(S'100003287229476'
S'Viswambharan Nanu'
tp807
a(S'100001720818525'
S'Satyendra Kumar'
tp808
a(S'704768768'
S'DrMuhammad Mukhtar Alam'
tp809
a(S'100000783827371'
S'Udit Prakash'
tp810
a(S'1033421546'
S'Hemant Joshi'
tp811
a(S'652439765'
S'Unita Sachidanand'
tp812
a(S'1570675771'
S'Sudhir Wani'
tp813
a(S'100000387476829'
S'Ashis Goel'
tp814
a(S'100000790393304'
S'Ravinder Goel'
tp815
a(S'100000284094201'
S'Pravind Praveen'
tp816
a(S'100002206717305'
S'Arman Sjp'
tp817
a(S'100004734067250'
S'Ganga Bachao Abhiyan Save-ganga'
tp818
a(S'1010940553'
S'Anurag Pratap'
tp819
a(S'1679603624'
S'Dayamani Barla'
tp820
a(S'669143676'
S'Ruchira Gupta'
tp821
a(S'1064468155'
S'Anjuly Gupta'
tp822
a(S'100000618844213'
S'Khadim Hussain'
tp823
a(S'100001645703118'
S'Selvaraj Kothandapani'
tp824
a(S'100005688874501'
S'Pecuc Odisha'
tp825
a(S'100000556727551'
S'Pratibha Kushwaha'
tp826
a(S'100001896683989'
S'Amar Kanwar'
tp827
a(S'100003126012594'
S'Samar Pal Singh'
tp828
a(S'100001603128471'
S'Bhup Singh Gaur'
tp829
a(S'1364024124'
S'\\u0921\\u0949. \\u0938\\u0941\\u092e\\u0940\\u0924\\u093e'
tp830
a(S'100005440500266'
S'Vedavedanta Mission'
tp831
a(S'1530853791'
S'Navneeta Dash'
tp832
a(S'649380467'
S'Kalpana Rijal'
tp833
a(S'100002963970259'
S'Lovedeep Khatri'
tp834
a(S'675251875'
S'Munaza Hashmi'
tp835
a(S'100002901955056'
S'Shri Dhar Dubey'
tp836
a(S'100002474660745'
S'Beena Uniyal'
tp837
a(S'100002381668052'
S'Madhurm Bhashini'
tp838
a(S'1584284326'
S'Neeta Sharma'
tp839
a(S'100002551337075'
S'Arvind Sharma'
tp840
a(S'100003378227846'
S'Anil Kumar Singh'
tp841
a(S'1072912091'
S'Bharat Gyan Vigyan Samiti'
tp842
a(S'100000356416123'
S'Swami Agnivesh'
tp843
a(S'100002289539283'
S'Nishant Tiwari'
tp844
a(S'100003064036186'
S'\\u091c\\u093f\\u092f\\u093e \\u0936\\u0930\\u094d\\u092e\\u093e \\u0935\\u093f\\u0926\\u094d\\u0930\\u094b\\u0939\\u0940'
tp845
a(S'664867616'
S'Prashanthi Goel'
tp846
a(S'1057917593'
S'Kb Jinan'
tp847
a(S'1504591747'
S'Abhijeet Nirmal'
tp848
a(S'100002282833943'
S'Rawat Bhagat Singh'
tp849
a(S'100003687808795'
S'Nimmi Kukreti'
tp850
a(S'100001226011139'
S'Sitaram Singh'
tp851
a(S'1034704417'
S'Neeraj Labh'
tp852
a(S'100002620113105'
S'Bharat Swabhiman Delhi'
tp853
a(S'100000259452777'
S'Brahmin Sabha'
tp854
a(S'100003496500263'
S'\\u0905\\u0930\\u0941\\u0923\\u093e \\u0936\\u0930\\u094d\\u092e\\u093e'
tp855
a(S'100002814506849'
S'Shivraj Suryawanshi'
tp856
a(S'769078817'
S'Rishabh Priyadarshi'
tp857
a(S'1304186225'
S'Sarvesh Saru'
tp858
a(S'1271810985'
S'Sudhirendar Sharma'
tp859
a(S'100004211383517'
S'Roshan Chauhan'
tp860
a(S'100003024236234'
S'Vaidehi Sharma'
tp861
a(S'100004094767109'
S'Prakash Louis'
tp862
a(S'100001158248780'
S'Praveen Shukla'
tp863
a(S'100003070390023'
S'Prashant K Jha'
tp864
a(S'100002515800529'
S'Soma Gangopadhyay'
tp865
a(S'100002159594419'
S'Sunil Jadhav'
tp866
a(S'561863249'
S'Jatin Desai'
tp867
a(S'791854913'
S'Ghanshyam Dass'
tp868
a(S'100002286765070'
S'Shahla Khan'
tp869
a(S'100001203954391'
S'Lalit Bhardwaj'
tp870
a(S'559292639'
S'Jyotsna Roy'
tp871
a(S'100000635004154'
S'Rangarajan Asoori Lakshmi Narasimhan'
tp872
a(S'1367948973'
S'Daya Ram'
tp873
a(S'715035968'
S'Rajesh Jatana'
tp874
a(S'100002743849602'
S'Raghuvir Chauhan'
tp875
a(S'100001147698637'
S'Priya Sivadas'
tp876
a(S'100002131182367'
S'Upasana Behar'
tp877
a(S'100000747145508'
S'Meenu Bhatnagar'
tp878
a(S'100001450210085'
S'Chandrika Radhakrishnan'
tp879
a(S'688916653'
S'Swati Mohapatra'
tp880
a(S'100007202022592'
S'Pt Shri Krishna Shastri'
tp881
a(S'100004623332498'
S'Sasidhar Loksatta Volunteer'
tp882
a(S'100001385181766'
S'Uma Devi'
tp883
a(S'100003167861768'
S'Dharmendra Rai'
tp884
a(S'1279461201'
S'Rajesh Upadhyay'
tp885
a(S'100000904035479'
S'Rajeshwari Swamy'
tp886
a(S'100002360694103'
S'Bharatiya Janta Partykashmir'
tp887
a(S'1472710526'
S'Neeta Sane'
tp888
a(S'100005093503060'
S'\\u0936\\u0930\\u093e\\u092c \\u0939\\u091f\\u093e\\u0913 \\u0938\\u092e\\u093e\\u091c \\u092c\\u091a\\u093e\\u0913'
tp889
a(S'1381779090'
S'Madhukar Panday'
tp890
a(S'100003565200535'
S'Amrita Bhargav'
tp891
a(S'100001191181273'
S'Shri Krishna Sharma'
tp892
a(S'100000119592965'
S'Satya Prakash'
tp893
a(S'1576362526'
S'Shitanshu Sharma'
tp894
a(S'100002124842185'
S'Varsha Chaudhary'
tp895
a(S'100001766768416'
S'Insa India'
tp896
a(S'100004092430276'
S'Bhavnaresort Patdi'
tp897
a(S'100002873180444'
S'Lasanthi Geethani Kakgoda Arachchi'
tp898
a(S'100002910902313'
S'Sharad Yadav'
tp899
a(S'1287530058'
S'Vimal Kumar'
tp900
a(S'100000472182724'
S'Yogini Khanolkar'
tp901
a(S'100002857082927'
S'Shankracharya Swami Madhavashram Ji'
tp902
a(S'100002984389058'
S'Sanjoy Moulik'
tp903
a(S'1460113823'
S'Sanjay Jothe'
tp904
a(S'100002041953022'
S'\\u0921\\u0949. \\u0938\\u0941\\u0928\\u0940\\u0924\\u093e'
tp905
a(S'100001799251153'
S'Santosh Thakur'
tp906
a(S'100000740598324'
S'Anil Choudhary'
tp907
a(S'100000966738401'
S'Ram Nivas Meena'
tp908
a(S'100001370988439'
S'Surendra Kumar'
tp909
a(S'100002127981513'
S'Mahadev Heggann'
tp910
a(S'543412408'
S'Sanjay Chouhan'
tp911
a(S'100001789756831'
S'Jharana Sansthan'
tp912
a(S'100001728996160'
S'Babulal Ljk'
tp913
a(S'100002256684672'
S'Gaya Nagar'
tp914
a(S'100003543457050'
S'Swarnim Kiran Jha'
tp915
a(S'724208700'
S'Karamat Ali'
tp916
a(S'100001367785527'
S'Tiwari Raghav'
tp917
a(S'100001074025847'
S'Monalisa Banerjee'
tp918
a(S'100003358125756'
S'Arvind Sharma'
tp919
a(S'1403474133'
S'Bbppf Bharat Chapter'
tp920
a(S'100003323268675'
S'Ncc Usw'
tp921
a(S'100000354183612'
S'Mohammad Zubair'
tp922
a(S'100000370012305'
S'Amar M. Tripathi'
tp923
a(S'100000119703013'
S'Sagar Rabari'
tp924
a(S'100001581696352'
S'Sanjib Kumar Borkakoti'
tp925
a(S'100002978930472'
S'Amol Gurve'
tp926
a(S'100000597942561'
S'Sunil Nagar'
tp927
a(S'100001970056453'
S'\\u0905\\u0902\\u091c\\u0942 \\u0936\\u0930\\u094d\\u092e\\u093e'
tp928
a(S'100000583885503'
S'Satguru Jayaprakashendra Saraswathy Mahaswamiji'
tp929
a(S'1299024642'
S'Bhupen Singh'
tp930
a(S'100001917588211'
S'Aakash Shanu'
tp931
a(S'1522972013'
S'Jayakumar Arockiasamy'
tp932
a(S'1257986382'
S'Lastman India'
tp933
a(S'100000751973504'
S'KN Murthy'
tp934
a(S'100003220323688'
S'Ankit Mishra'
tp935
a(S'100002857404511'
S'Rakesh Srivastava'
tp936
a(S'100004695607515'
S'\\u0938\\u093e\\u0927\\u094d\\u0935\\u0940 \\u0938\\u093f\\u0901\\u0918\\u093e\\u0928\\u093f\\u092f\\u093e'
tp937
a(S'1364527237'
S'Vasumitra Bhardwaj'
tp938
a(S'1705917133'
S'Jahnavi Devi Santhana Krishnan'
tp939
a(S'100001859065064'
S'Yuri Orlav'
tp940
a(S'842132765'
S'Dinkar Jha'
tp941
a(S'100001091537858'
S'Ahmad Taufan Damanik'
tp942
a(S'100000162130222'
S'Rajiv Singh'
tp943
a(S'556987337'
S'Mukesh Bahuguna'
tp944
a(S'674298945'
S'Jyotsna Waghmare'
tp945
a(S'100001417507986'
S'Avinash Chandra Jha'
tp946
a(S'100006057517313'
S'Chamb\\u00e9ry Lucknow'
tp947
a(S'100000898765468'
S'Pema Norbu Thongchi'
tp948
a(S'100005035595202'
S'Drarvindkumar Tyagi'
tp949
a(S'100002159317525'
S'Prashant Dandekar'
tp950
a(S'567932996'
S'Tove Selin'
tp951
a(S'568740234'
S'Roma T. Sharma'
tp952
a(S'100001774412611'
S'Datta Dhage'
tp953
a(S'100002857069785'
S'\\u0930\\u093e\\u0915\\u0947\\u0936 \\u0905\\u0935\\u0938\\u094d\\u0925\\u0940'
tp954
a(S'100004997981969'
S'Joy Chakravorty'
tp955
a(S'630334987'
S'Ravindr Vikram Singh'
tp956
a(S'100000747671377'
S'Arun Siwani'
tp957
a(S'100000898028742'
S'Arul Raj'
tp958
a(S'100003478319052'
S'ShivaKumar VK'
tp959
a(S'100001976128772'
S'\\u091c\\u094d\\u092f\\u094b\\u0924\\u093f\\u0937\\u093e\\u091a\\u093e\\u0930\\u094d\\u092f \\u0921\\u0949.\\u0928\\u0935\\u0940\\u0928 \\u0936\\u0930\\u094d\\u092e\\u093e'
tp960
a(S'100000624076050'
S'Veena Shukla Mishra'
tp961
a(S'1171140735'
S'Rafi Madar'
tp962
a(S'100001373568692'
S'Gisela Asha Bhagwandin'
tp963
a(S'100004188221306'
S'Chetan Patil'
tp964
a(S'100002628750933'
S'Khushi Lakshmi'
tp965
a(S'100002246726156'
S'Riya Raina'
tp966
a(S'100007258000832'
S'Shubhendu Ghosh'
tp967
a(S'671537782'
S'TB Dinesh'
tp968
a(S'100001763851947'
S'Deivanesan Selvakumar'
tp969
a(S'100001799730672'
S'Magp Gujarat'
tp970
a(S'603426794'
S'\\u00c5m\\u00e6ndeep Midh\\u00e4'
tp971
a(S'100002962686441'
S'Sanjeev Antodaya'
tp972
a(S'1117603445'
S'Nalini Kant'
tp973
a(S'1073034209'
S'Deepak Suchde'
tp974
a(S'100000714408640'
S'Rajni Kant Mudgal'
tp975
a(S'542612668'
S'Ila Varma'
tp976
a(S'100000135150702'
S'Kamaluddin Khan Afridi'
tp977
a(S'1824465059'
S'Vishwanath Azad'
tp978
a(S'100002829062030'
S'Dipali Apte'
tp979
a(S'1742664123'
S'Natty Inas Lopes'
tp980
a(S'100003195012848'
S'Raman Chaudhary'
tp981
a(S'100002371802446'
S'Pitamber Manoj'
tp982
a(S'100000771504718'
S'Krishna Shekhar'
tp983
a(S'100001366032658'
S'Rajendra Prasad Barthwal'
tp984
a(S'100001253787389'
S'Badal Badal'
tp985
a(S'100000558981438'
S'Sudhanshu Kumar'
tp986
a(S'1723663835'
S'Vop Indonesia'
tp987
a(S'100002631793299'
S'Papichand Shrishrimal'
tp988
a(S'1335669361'
S'Anand Joshi'
tp989
a(S'783888967'
S'Mira K\\u00e4k\\u00f6nen'
tp990
a(S'100000172579236'
S'LN Techs'
tp991
a(S'1429074843'
S'Bimal Patel'
tp992
a(S'100001086528566'
S'Shashi Pandey Mishra'
tp993
a(S'100000952482499'
S'Sukhdev Patel'
tp994
a(S'100000083600391'
S'Vishwas Tiwari'
tp995
a(S'100002545358506'
S'Archanaa Raz'
tp996
a(S'100001888142603'
S'Anand Samaj Trust'
tp997
a(S'1450201324'
S'Jagajit Singh'
tp998
a(S'100000752110001'
S'Bhavesh Nandan Jha'
tp999
a(S'1842185723'
S'Shyam Bahadur Namra'
tp1000
a(S'100003129605600'
S'Sathyan Sathya'
tp1001
a(S'100003133895530'
S'Nachiketa Journalist'
tp1002
a(S'100003093463627'
S'Amarnath Chandaliya'
tp1003
a(S'1593406201'
S'Pradeep Saurabh'
tp1004
a(S'100002639022607'
S'Rupa Sharma'
tp1005
a(S'1558047822'
S'Selvi Roy'
tp1006
a(S'100003208867481'
S'Ankit Singh Abvp'
tp1007
a(S'100000166322051'
S'Prakash Hindustani'
tp1008
a(S'100002164278397'
S'StopTrafficking In'
tp1009
a(S'100000981598600'
S'Uday Batwal'
tp1010
a(S'100006550121601'
S'Hamare Mahapurus'
tp1011
a(S'100007068254006'
S'Mita Sarkar'
tp1012
a(S'100001762879831'
S'Ganesh Ghotgalkar'
tp1013
a(S'100003593664534'
S'Sandesh Jopat Vyas'
tp1014
a(S'1133056994'
S'Subrato Mitra'
tp1015
a(S'100001844495646'
S'Rupal Desai'
tp1016
a(S'732464545'
S'GL Sampoorna'
tp1017
a(S'100004832863413'
S'Akanchasingh Singh'
tp1018
a(S'100003609370534'
S'Krishna Ngo'
tp1019
a(S'100002199007613'
S'Asim Sen'
tp1020
a(S'100002936726235'
S'\\u0ca8\\u0cc0\\u0cb0\\u0c9c\\u0ccd \\u0cad\\u0c9c\\u0cc6\\u0ca3\\u0ccd\\u0ca3\\u0cb5\\u0cb0\\u0ccd'
tp1021
a(S'100003200840497'
S'Bert Cacayan'
tp1022
a(S'100001684755272'
S'Priyanka Singh'
tp1023
a(S'100002982219332'
S'Kapil Dwarka'
tp1024
a(S'518826704'
S'Murali Kumar'
tp1025
a(S'633630032'
S'Anand Patwardhan'
tp1026
a(S'100003960356973'
S'Amlesh Shukla'
tp1027
a(S'100000862484018'
S'Apni Hindi'
tp1028
a(S'100005989090476'
S'Pradeep Raj'
tp1029
a(S'100000810571330'
S'Ajai Khare'
tp1030
a(S'738760732'
S'Harsh Jaitli'
tp1031
a(S'1040419769'
S'Pankti Jog'
tp1032
a(S'712227360'
S'Vagish K Jha'
tp1033
a(S'100005048794693'
S'Virbhan Khambhala'
tp1034
a(S'100003854412001'
S'Harit Swaraj'
tp1035
a(S'1823600990'
S'Balendushekhar Mangalmurty'
tp1036
a(S'100001115900979'
S'Samaj Shekhar'
tp1037
a(S'100001390770139'
S'Tahir Khattak'
tp1038
a(S'708897729'
S'K Krishna Reddy'
tp1039
a(S'100003258983546'
S'Preeti Shrivastava'
tp1040
a(S'745392299'
S'Neena Kapoor'
tp1041
a(S'100000615776176'
S'Ram Dubey'
tp1042
a(S'100002288844253'
S'Amar Nath Thakur'
tp1043
a(S'100001950136443'
S'Kapindra Tiwari'
tp1044
a(S'534083951'
S'Digambar Narzary'
tp1045
a(S'100002873873086'
S'Rema Sundar'
tp1046
a(S'700930464'
S'Ganesh Devy'
tp1047
a(S'1540871255'
S'George Chirappurathu'
tp1048
a(S'100000765428171'
S'Ranish Jain'
tp1049
a(S'626714035'
S'Sonya Surabhi Gupta'
tp1050
a(S'100001885586053'
S'Sahay Vina'
tp1051
a(S'100001130976261'
S'Ranu Chopra'
tp1052
a(S'100002258358337'
S'Hassan Hassas'
tp1053
a(S'100003609708219'
S'Pf R India'
tp1054
a(S'1066451743'
S'Saswati Swetlena'
tp1055
a(S'100000791736068'
S'Lovely Kumari'
tp1056
a(S'819692640'
S'Vijayshankar Chaturvedi'
tp1057
a(S'1471421033'
S'Prabodh Raj Chandol'
tp1058
a(S'100000542004531'
S'Vinod Agnihotri'
tp1059
a(S'100001627151422'
S'DrSweta Singh'
tp1060
a(S'1725506721'
S'Salaja Madhavan Manjunath'
tp1061
a(S'100000851992103'
S'Rajni Kant Mudgal'
tp1062
a(S'100001980587677'
S'Anna Durai'
tp1063
a(S'100006591126401'
S'Prabhakar Kumar'
tp1064
a(S'100001493669174'
S'Banwari Lal Gaur'
tp1065
a(S'100001757000850'
S'Tularam Athya'
tp1066
a(S'100000849039690'
S'Anvar Rajan'
tp1067
a(S'100000232609967'
S'Mukul Sinha'
tp1068
a(S'100005833810411'
S'Vipul Pandya'
tp1069
a(S'1154889680'
S'Prakash Chandra'
tp1070
a(S'100001538514717'
S'Ritu Raj'
tp1071
a(S'100002818502877'
S'Sanjay Gaikwad'
tp1072
a(S'100000078896186'
S'Right ToFood Campaign'
tp1073
a(S'1079241236'
S'Shama Afroz'
tp1074
a(S'100002377929792'
S'Sanjiv Singh'
tp1075
a(S'1087282147'
S'Garima Chaturvedi'
tp1076
a(S'100000815354804'
S'Manisha Bajpai'
tp1077
a(S'100002550133514'
S'Atul Gupta'
tp1078
a(S'769334091'
S'Abbas Ali Siddiqui'
tp1079
a(S'100002437497120'
S'Peenaki Padhi'
tp1080
a(S'100000059483982'
S'Vanshidhara Dubey'
tp1081
a(S'560671235'
S'Ramesh Chand Sharma'
tp1082
a(S'100000561483232'
S'Jagadishwar Chaturvedi'
tp1083
a(S'575312812'
S'Babul Prasad'
tp1084
a(S'100003775131590'
S'Bhuvaneshwar Bhartiya'
tp1085
a(S'100000034855969'
S'Shiv Datt Tiwari'
tp1086
a(S'1515926013'
S'Arvind K Singh'
tp1087
a(S'100005272692881'
S'Dinesh Tewari'
tp1088
a(S'100003662775632'
S'Indira Rajore'
tp1089
a(S'100001271530964'
S'Raghvendra Awasthi'
tp1090
a(S'100001742460004'
S'Ajay Tyagi'
tp1091
a(S'100005227265361'
S"R'jwathri Ashram"
tp1092
a(S'100000205556869'
S'Vijay Kumar'
tp1093
a(S'781369458'
S'Aparna Das'
tp1094
a(S'100000863363999'
S'Mohan Khadake'
tp1095
a(S'100000200398463'
S'Ramesh Kumar'
tp1096
a(S'100002767831617'
S'Dharmendra Karan'
tp1097
a(S'100002132547671'
S'Manjoo Mohan'
tp1098
a(S'100003803648136'
S'Renu Roy R'
tp1099
a(S'100002351986185'
S'Asha Ngo Jharkhand'
tp1100
a(S'100006507065025'
S'\\u092f\\u0925\\u093e\\u0935\\u0924 \\u092a\\u0924\\u094d\\u0930\\u093f\\u0915\\u093e'
tp1101
a(S'100002231711238'
S'Anand Kumar Singh'
tp1102
a(S'100004713760811'
S'\\u092f\\u0941\\u0926\\u094d\\u0927\\u0930\\u0924 \\u0906\\u092e \\u0906\\u0926\\u092e\\u0940'
tp1103
a(S'100003626809509'
S'Devendra Prasad'
tp1104
a(S'571850308'
S'Minar Pimple'
tp1105
a(S'1342376568'
S'Virendra Singh'
tp1106
a(S'100000458751129'
S'Prasant Sinha'
tp1107
a(S'1298768862'
S'Madhavi Shree'
tp1108
a(S'100005724464496'
S'Uday Sharma VidhiVakta'
tp1109
a(S'100002529600338'
S'Mithila Gram Vikas Parishad'
tp1110
a(S'603617084'
S'Umendra Dutt'
tp1111
a(S'100003869492797'
S'Mukesh Bhati'
tp1112
a(S'1340662384'
S'Jaishankar Gupta'
tp1113
a(S'100000497592386'
S'Nishikant Pagare'
tp1114
a(S'100004833552315'
S'Bhartiya Loktantrik BrahmanVikas Associations'
tp1115
a(S'100005060043886'
S'Ajey Singh'
tp1116
a(S'100000216384677'
S'Gaurav Bajpai'
tp1117
a(S'717470307'
S'Ajay N Jha'
tp1118
a(S'100000780054662'
S'Sanjay Kumar'
tp1119
a(S'100002396245632'
S'Tamanna Sharma'
tp1120
a(S'100005727130220'
S'Sunil Bhosale'
tp1121
a(S'100003817161655'
S'Nayee Pahal'
tp1122
a(S'100000499646420'
S'Prabhat Kumar'
tp1123
a(S'100000785020997'
S'Rekha Singh'
tp1124
a(S'670285564'
S'Priya Leo'
tp1125
a(S'100007897333650'
S'Nain Kumari'
tp1126
a(S'100003142401565'
S'Nitin Agarwal'
tp1127
a(S'1511989941'
S'Padma Sharma'
tp1128
a(S'100002228089576'
S'Jajoo Nayna'
tp1129
a(S'100003576893665'
S'Onkar Mittal'
tp1130
a(S'100003694826865'
S'Dhananjay Prasad'
tp1131
a(S'100001166855399'
S'Mani Mala'
tp1132
a(S'673529179'
S'Paul George'
tp1133
a(S'100004132503561'
S'Corruption Corruption Corruption'
tp1134
a(S'100004728810854'
S'Ajay Sharma'
tp1135
a(S'100002497096667'
S'Prashant Borawake'
tp1136
a(S'100000988666927'
S'Anand Dubey'
tp1137
a(S'100002349242781'
S'\\u0939\\u0930\\u093f \\u0936\\u0902\\u0915\\u0930 \\u091a\\u094c\\u092c\\u0947'
tp1138
a(S'1186657147'
S'Samvida Pandya'
tp1139
a(S'100002758818767'
S'Sujata Choudhary'
tp1140
a(S'100007319041042'
S'Pradeep Mishra'
tp1141
a(S'1518455243'
S'Nasreen Faiyaz'
tp1142
a(S'100001928580436'
S'Utpal Dutt'
tp1143
a(S'100001508588242'
S'Gram Adhikar Manch'
tp1144
a(S'100001712408209'
S'Smita Pawar'
tp1145
a(S'100000994639535'
S'Ram Mishra'
tp1146
a(S'100001204677241'
S'Tehseen Munawer'
tp1147
a(S'100002137253104'
S'Yogendra Narayan Sharma'
tp1148
a(S'1399074515'
S'Suneel Kumar Raavi'
tp1149
a(S'100006283415714'
S'Jaya Sharma II'
tp1150
a(S'100001231007790'
S'Reena Pant'
tp1151
a(S'1055239019'
S'Deepak Bharti'
tp1152
a(S'1113009742'
S'Debiprasad Mishra'
tp1153
a(S'100007893813508'
S'Akram Bhatti'
tp1154
a(S'100002354040135'
S'Virendra Vidrohi'
tp1155
a(S'100002899411072'
S'Beera Ashok'
tp1156
a(S'100002848754698'
S'Surekha Kaur'
tp1157
a(S'100002339225048'
S'Neeti Chaudhary'
tp1158
a(S'100001094558884'
S'DrBikash Kr Verma'
tp1159
a(S'100003978583277'
S'Shalini Sharma'
tp1160
a(S'100001208100147'
S'Raj Sharma'
tp1161
a(S'1686681018'
p1162
S'\\u092e\\u093f\\u0915\\u093f\\u0928 \\u092e\\u092f\\u0902\\u0915'
tp1163
a(S'100001337673953'
S'Pandit M K Upadhyay'
tp1164
a(S'100004149570545'
S'Beti Bachao Aandolan'
tp1165
a(S'100001226711902'
S'Gayatri Amit'
tp1166
a(S'100001630666720'
S'Rashmi Sharma'
tp1167
a(S'678288127'
S'Pushpendra Singh'
tp1168
a(S'100000526322077'
S'Praveen Arya'
tp1169
a(S'1097113105'
S'Binod Anand'
tp1170
a(S'100007791991965'
S'Uday Raj Tripathi'
tp1171
a(S'100003277952084'
S'Ramavtar Bairwa'
tp1172
a(S'1593367517'
S'Rajeev R. Rana'
tp1173
a(S'100001719867416'
S'Sudhendu Patel'
tp1174
a(S'100003515211789'
S'Krishna Mohan'
tp1175
a(S'100002125104248'
S'Ratna Rao'
tp1176
a(S'100000794094727'
S'Kirve Sushant'
tp1177
a(S'588893156'
S'Chaitra Redkar'
tp1178
a(S'1295372220'
S'Ashok Kumar Singh'
tp1179
a(S'100003873722935'
S'Satyendra Kishore'
tp1180
a(S'100001048971780'
S'Ravindra Mynampati'
tp1181
a(S'100001138752936'
S'Kishan Kaljayee'
tp1182
a(S'100000141134676'
S'Siba Sankar Mohanty'
tp1183
a(S'100001487688141'
S'Rakesh Jain'
tp1184
a(S'743580249'
S'Ranjana Kumari'
tp1185
a(S'1701390720'
S'Padmini Brahma'
tp1186
a(S'100000233034490'
S'Devendra Mohan Gautam'
tp1187
a(S'100004567955525'
S'Vijendra Shrivastava'
tp1188
a(S'861570367'
S'Kamayani Bali Mahabal'
tp1189
a(S'1782490122'
S'DrAshray Gupta'
tp1190
a(S'100003836769499'
S'Mayank Shekhar Mishra'
tp1191
a(S'1132804047'
S'Sudhanshu Joshi'
tp1192
a(S'542619776'
S'Anand Bharti'
tp1193
a(S'1706155504'
S'Deepa Xavier'
tp1194
a(S'100003791711658'
S'Sushila Pathak'
tp1195
a(S'1171515036'
S'Abhinay Singh'
tp1196
a(S'100001609591452'
S'Ali Abbas Naqvi'
tp1197
a(S'100001279442333'
S'Ashok Moti'
tp1198
a(S'100001409414859'
S'Shami Khan'
tp1199
a(S'609115012'
S'Shaheen Ansari'
tp1200
a(S'100002688832398'
S'Rajendra Singh Meena'
tp1201
a(S'100001908326892'
S'Lalbahadur Verma'
tp1202
a(S'100002642861712'
S'Ngo Consultancy'
tp1203
a(S'100002970731774'
S'Digambar Patil'
tp1204
a(S'100002924327884'
S'Rajaiah Oddepally'
tp1205
a(S'100001803093975'
S'Neena Sharma'
tp1206
a(S'100001357111073'
S'Mrityunjay Prabhakar'
tp1207
a(S'100002324380850'
S'Satyendra Pratap Singh'
tp1208
a(S'1419409088'
S'Dayakant Mishra'
tp1209
a(S'1344741046'
S'Dhananjay Tingal'
tp1210
a(S'1583089718'
S'Yeshi Chodon'
tp1211
a(S'100002634998088'
S'Adv Pavan Kone'
tp1212
a(S'100002571662265'
S'Anita Bagga'
tp1213
a(S'100000656182111'
S'Nimmaraju Ramamohan'
tp1214
a(S'1022019314'
S'Ranjan Mohanty'
tp1215
a(S'567467951'
S'Santosh Yadav'
tp1216
a(S'100001533080722'
S'Deepika Sharma'
tp1217
a(S'1820025687'
S'Debabrata Mandal'
tp1218
a(S'100002684293531'
S'Royal Chowdary'
tp1219
a(S'100000825202082'
S'Qamar Hayat'
tp1220
a(S'633448966'
S'Sanjay Nirala'
tp1221
a(S'1341146423'
S'Rajendra Singh'
tp1222
a(S'534137963'
S'Ish Mishra'
tp1223
a(S'100001625804322'
S'Radha Natarajan'
tp1224
a(S'1202038612'
S'Leander Toppo'
tp1225
a(S'100001531191777'
S'Rajesh Verma'
tp1226
a(S'100004981929133'
S'Md Zahid'
tp1227
a(S'1153024348'
S'Akhil Chaudhary'
tp1228
a(S'1758502681'
S'Om Prakash Mani Tripathi'
tp1229
a(S'1634911823'
S'Teki Vishy'
tp1230
a(S'100002930905901'
S'Ganpati Shinde'
tp1231
a(S'100003055837697'
S'Ajay Kumar'
tp1232
a(S'100006463992699'
S'Rajeshwar Prashad Sharma'
tp1233
a(S'100004180812920'
S'Sunil Dutt'
tp1234
a(S'741543245'
S'Subhash Bhatnagar'
tp1235
a(S'1061582093'
S'Bhaumik Trivedi'
tp1236
a(S'100000254948064'
S'Ashish Awasthi'
tp1237
a(S'100007336927054'
S'Wada Na Todo Bettiah'
tp1238
a(S'565198898'
S'Mano Ekka'
tp1239
a(S'100001776747482'
S'Ajay Agrawal'
tp1240
a(S'100001096026002'
S'Lauren Anand'
tp1241
a(S'100004258239962'
S'\\u0930\\u093e\\u092e \\u0915\\u093f\\u0936\\u094b\\u0930'
tp1242
a(S'100001382131650'
S'Arun Kumar'
tp1243
a(S'100004289407977'
S'\\u0938\\u094d\\u0935\\u093e\\u092e\\u0940 \\u0916\\u0921\\u093c\\u092c\\u0921\\u093c\\u093e\\u0928\\u0902\\u0926'
tp1244
a(S'100002485938585'
S'Anil Joshi'
tp1245
a(S'100000937130174'
S'Vrushali Datar'
tp1246
a(S'100001381455340'
S'Svackshee Sansathan'
tp1247
a(S'100005786163701'
S'Naveen Upadhyay'
tp1248
a(S'1082868988'
S'Ashok Chaudhary'
tp1249
a(S'100001868406850'
S'Vishwajeet Raosaheb Bhosale'
tp1250
a(S'100002192280112'
S'Swarn Kanta'
tp1251
a(S'100000232970431'
S'Makbul Tamboli'
tp1252
a(S'100004284603193'
S'Makbul Tamboli'
tp1253
a(S'609606738'
S'Manisha Banerjee'
tp1254
a(S'836399830'
S'Sandhya Chowdhary'
tp1255
a(S'100001119939878'
S'Ajay Narain Sharma'
tp1256
a(S'100002812512237'
S'Joseph Benjamin'
tp1257
a(S'100002315712172'
S'Kalabhai Jotva'
tp1258
a(S'543562627'
S'Amit Sharma'
tp1259
a(S'100002499704514'
S'Lakhi Das'
tp1260
a(S'100002729620540'
S'Vipin Jain'
tp1261
a(S'1075434852'
S'Hari Krishna'
tp1262
a(S'1216720424'
S'Niaz Farooqui'
tp1263
a(S'100000797037122'
S'Mallika Bhattacharya'
tp1264
a(S'570390217'
S'Indu Prakash Singh'
tp1265
a(S'514297072'
S'Zeenia Shaukat'
tp1266
a(S'100000788614178'
S'Rajesh Choudhary'
tp1267
a(S'100004515120071'
S'Gyanjyot Trust'
tp1268
a(S'100002911497498'
S'Ajay Singh'
tp1269
a(S'100003511187155'
S'Samrat Singh'
tp1270
a(S'100003569783807'
S'Sanjay Agarwal'
tp1271
a(S'100002267809244'
S'Rajiv Hemkeshav'
tp1272
a(S'100001801879823'
S'Comrade Dilawer'
tp1273
a(S'700652413'
S'Chetna Desai'
tp1274
a(S'100002682827032'
S'Pralhad Kute'
tp1275
a(S'100001317022864'
S'Rama Viswanathan'
tp1276
a(S'100002633460894'
S'Alok Verma'
tp1277
a(S'100003836986155'
S'Jai Narain Prasad Nishad'
tp1278
a(S'100002838555343'
S'Baba Vijayendra'
tp1279
a(S'1325570991'
S'Muhammad Rafique'
tp1280
a(S'100000387388488'
S'Mudra Rakshasa'
tp1281
a(S'100000112634423'
S'Malti Prasad'
tp1282
a(S'100000213831719'
S'Ranbir Kumar'
tp1283
a(S'625883720'
S'Rinkal Bagadia'
tp1284
a(S'100000746808398'
S'Lalji Desai'
tp1285
a(S'100000639837242'
S'Selvaraj Kothandapani'
tp1286
a(S'100003616981806'
S'Pathik Pratishthan'
tp1287
a(S'100000966718715'
S'Amiya Chandra'
tp1288
a(S'100003714635835'
p1289
S'Kavi Suresh Awasthi'
tp1290
a(S'100005635566778'
S'Ashok Vishwarai'
tp1291
a(S'595732824'
S'Natasha Guria'
tp1292
a(S'100000360885129'
S'Smriti Pandey'
tp1293
a(S'626101361'
S'Hishmi Jamil Husain'
tp1294
a(S'100000486139579'
S'Raoshan Kumar'
tp1295
a(S'100002517665754'
S'Vijay Pratap'
tp1296
a(S'100000506858200'
S'Hitesh D Agarwaal'
tp1297
a(S'100000637036066'
S'Harish Nagar'
tp1298
a(S'1500144130'
S'Asima Bhatt'
tp1299
a(S'1332475321'
S'Hope Puducherry'
tp1300
a(S'100000651991927'
S'Biju Borbaruah'
tp1301
a(S'100004077154426'
S'Napm Tamilnadu'
tp1302
a(S'100003913360642'
S'Sadhvi Vibha Mishra'
tp1303
a(S'100002656258606'
S'Ajai Kumar Singh'
tp1304
a(S'100000534808314'
S'Rehan Khan'
tp1305
a(S'100003973953590'
S'JC Vishal Vaghani'
tp1306
a(S'680212460'
S'Kishore Jha'
tp1307
a(S'100002316580454'
S'Tiwari Rakesh'
tp1308
a(S'100002268451937'
S'Datta Pakire'
tp1309
a(S'100001651457782'
S'Arvind Chauhan'
tp1310
a(S'100001264730548'
S'Yatindra Singh Sengar'
tp1311
a(S'100000144947034'
S'Nishant Bhatnagar'
tp1312
a(S'100000647001476'
S'Ranvijay Kumar'
tp1313
a(S'100003356576017'
S'Rajnesh Sharma'
tp1314
a(S'100002132370550'
S'Raja Avasak'
tp1315
a(S'100001013322478'
S'Aloke Sharma'
tp1316
a(S'100001585284653'
S'Vijaya Mishra'
tp1317
a(S'669834855'
S'Govind Sharma'
tp1318
a(S'100002314203548'
S'Ranjan Sharma'
tp1319
a(S'100002654845401'
S'Om Raja'
tp1320
a(S'774759914'
S'Rita Nahata'
tp1321
a(S'1354376451'
S'Ravi Mani'
tp1322
a(S'100002750201855'
S'Santosh Shinde'
tp1323
a(S'100003894002358'
S'Moksh Sharma'
tp1324
a(S'827544048'
S'Trupti Vyas'
tp1325
a(S'100002846867405'
S'Sunil Thakur'
tp1326
a(S'1484843867'
S'Dadhichi Patel'
tp1327
a(S'100002080333319'
S'Aditya Nigam'
tp1328
a(S'100004329870558'
S'Chhatra Yuva Sangharsh Vahini'
tp1329
a(S'665839938'
S'Ali Shahanshah'
tp1330
a(S'100001421172143'
S'Dharmendra Upadhyay'
tp1331
a(S'100001212711782'
S'Manroopkaur Chawla'
tp1332
a(S'100000383205215'
S'Biju Borbaruah'
tp1333
a(S'1303034588'
S'Pranav Kumar Chaudhary'
tp1334
a(S'1587552697'
S'Obaid Nasir'
tp1335
a(S'100000784025524'
S'Sudhir Verma'
tp1336
a(S'100006018582122'
S'Ulltimate Prabhukripa Shreekrishna'
tp1337
a(S'1309651454'
S'Nilima Bhatt'
tp1338
a(S'100000116038696'
S'Padma Sharma'
tp1339
a(S'100002395001108'
S'Anuradha Nagar'
tp1340
a(S'1261305474'
S'Sheetal Bhatt'
tp1341
a(S'1846780489'
S'Rajul Pant'
tp1342
a(S'100001732096195'
S'Narendra Kaushik'
tp1343
a(S'100002196117479'
S'\\u0936\\u093e\\u0902\\u0924\\u093f \\u092d\\u0942\\u0937\\u0923 \\u0936\\u0941\\u0915\\u094d\\u0932\\u093e'
tp1344
a(S'100008009382283'
S'Aditi Desai'
tp1345
a(S'750811521'
S'Ashok Kumar Bharti AshokaFellow'
tp1346
a(S'1071507484'
S'Arti Pandey'
tp1347
a(S'645895717'
S'Chandra Prakash Jha'
tp1348
a(S'100005645204197'
S'Brahmin Matrimonial Mumbai'
tp1349
a(S'100002473228501'
S'Yanadi Samakhya'
tp1350
a(S'100006614881580'
S'Chetan Patil'
tp1351
a(S'100001412793305'
S'Shaik Javed'
tp1352
a(S'754443672'
S'Rajeev R. Singh'
tp1353
a(S'100002064165085'
S'Ashutosh Joshi'
tp1354
a(S'100005110147004'
S'Sadhana Sharma'
tp1355
a(S'100000801210677'
S'Vivek Misra'
tp1356
a(S'1211947798'
S'Bishan Vaishnev'
tp1357
a(S'100000900549091'
S'Yogesh Pant'
tp1358
a(S'100001394815794'
S'Rohit Krishna Nandan'
tp1359
a(S'730049334'
S'Manisha Kulshreshtha'
tp1360
a(S'100006888043429'
S'Jal Sabha'
tp1361
a(S'100006925470743'
S'Bablu Jmv'
tp1362
a(S'1540173274'
S'Anil Attri'
tp1363
a(S'100000203701001'
S'Satya Sharma'
tp1364
a(S'100002489767350'
S'Astro Meghajoshi'
tp1365
a(S'1401156682'
S'Herjinder Sahni'
tp1366
a(S'1404768509'
S'Soha Sheth Moitra'
tp1367
a(S'788519771'
S'Archana Srivastava'
tp1368
a(S'100005094639521'
S'Gantavaya Sansthan'
tp1369
a(S'100002574699865'
S'N.p. Gupta'
tp1370
a(S'100003995462017'
S'Kunjeshwaridevi Dasi'
tp1371
a(S'100002279962112'
S"India's Riverkeeper"
tp1372
a(S'100000133658958'
S'Zulfiqar Shah'
tp1373
a(S'100002873246703'
S'Sanjay Rendalkar'
tp1374
a(S'100003392292829'
S'Janwadi Lekhak Sangh Ranchi'
tp1375
a(S'100000337875980'
S'Gopal Rathi'
tp1376
a(S'100002495293562'
S'Pankaj Kumar'
tp1377
a(S'630054275'
S'Shibani Sharma'
tp1378
a(S'100001552075202'
S'Ravindra Kumar Singh'
tp1379
a(S'100000427499116'
S'\\u091c\\u094d\\u092f\\u094b\\u0924\\u093f\\u0937\\u093e\\u091a\\u093e\\u0930\\u094d\\u092f \\u092a\\u0902\\u0921\\u093f\\u0924 \\u0935\\u093f\\u0928\\u094b\\u0926 \\u091a\\u094c\\u092c\\u0947'
tp1380
a(S'100002777527889'
S'Balkrishna Sawant'
tp1381
a(S'100002007752123'
S'Nazir Pandrani'
tp1382
a(S'100002321483475'
S'Ranjeet Pardeshi'
tp1383
a(S'100001921235473'
S'Sankat Mochan Sansthan Bajoli'
tp1384
asS'id'
p1385
S'1122891676'
p1386
sS'name'
p1387
S'Atal Behari Sharma'
p1388
s.