(dp1
S'friends'
p2
(lp3
(S'100001026563528'
S'Masomi Sahib'
tp4
a(S'100007906030813'
S'Maya Khan'
tp5
a(S'1743448446'
S'Mohammad Younus Omari'
tp6
a(S'100000762993286'
S'Mustafa Kamal'
tp7
a(S'100000126810740'
S'Aimal Ebad'
tp8
a(S'1135064530'
p9
S'Shukria Barakzai'
tp10
a(S'1460677634'
S'Shinkai Gardizi Arya'
tp11
a(S'100005083597251'
S'Qazi Fahad'
tp12
a(S'100006749439974'
S'Murad Jan'
tp13
a(S'100002636152447'
S'Jalal Mahmoodi'
tp14
a(S'100003678746549'
S'\\u0641\\u0636\\u0644\\u06cc \\u0622\\u0645\\u0627\\u062c'
tp15
a(S'100001409558124'
S'Nasrat Rahimi'
tp16
a(S'100007433949123'
S'Sadiq Hamidi'
tp17
a(S'100003027801698'
S'Hewad Khan'
tp18
a(S'1391222960'
S'Mukhtar Zohab'
tp19
a(S'100005695114273'
S'Behroz Astanikzay'
tp20
a(S'100001082523874'
S'SE Taheri'
tp21
a(S'1481235874'
S'Khanali Radmand'
tp22
a(S'100006278112258'
S'Mariam Atahi'
tp23
a(S'100002441522834'
S'Ali Eftekhari'
tp24
a(S'100003528066545'
S'Nazruddin Ahmadzai'
tp25
a(S'100001585633897'
S'Waheed Gharwal'
tp26
a(S'100001591760671'
S'Bashir Ahmad Qasani'
tp27
a(S'770699502'
S'Fahim Ebrat'
tp28
a(S'100000276077653'
S'Nisar Haress'
tp29
a(S'690956230'
S'Waheed Omer'
tp30
a(S'100000254872793'
S'Hamid Tajik'
tp31
a(S'100003977605558'
S'Muska Jalal'
tp32
a(S'100006409724333'
S'Spozhmai Atash'
tp33
a(S'100000848563778'
S'Atiq Quraishi'
tp34
a(S'100002091190101'
S'Najib Alkozai'
tp35
a(S'100002356729383'
S'Hamid Sangar Sangar'
tp36
a(S'579997822'
S'Qudratullah Andar Sultani'
tp37
a(S'100000305596440'
S'Mirwais Omarkhil'
tp38
a(S'100001824694862'
S'\\u0641\\u0631\\u06cc\\u062f\\u0627\\u062d\\u0645\\u062f \\u0627\\u0645\\u06cc\\u0631\\u06cc'
tp39
a(S'100001282605737'
S'Massood Zarab'
tp40
a(S'100000828065644'
S'Asad Sikandar'
tp41
a(S'100003294619907'
S'Aimal Faizi'
tp42
a(S'100006434930064'
S'Mirwais Ahmedzai'
tp43
a(S'100002722153579'
S'Raziq Samoon'
tp44
a(S'1844640750'
S'Bashir Ahmad Onsi'
tp45
a(S'703283317'
S'Zalmai Ahadi'
tp46
a(S'100003367170898'
S'Usman Usman'
tp47
a(S'100002085311776'
S'Mena Mangal'
tp48
a(S'1618732368'
S'Rohullah Ahmadzai'
tp49
a(S'100000562995401'
S'Aminullah Amarkhil'
tp50
a(S'100001039655715'
S'Abdul Majid Amarkhail'
tp51
a(S'100001813940727'
S'Rohullah Ahmadzai'
tp52
a(S'100000221752967'
S'Hamid Haidary'
tp53
a(S'100001916195743'
S'Fahim Fetrat'
tp54
a(S'100000200489007'
S'Wajiha Farid Rastagar'
tp55
a(S'100000281488542'
S'Ezatullah Tariq'
tp56
a(S'670793976'
S'Harun Najafizada'
tp57
a(S'100001565990073'
S'Mujahid Andarabi'
tp58
a(S'100004558151543'
S'\\u0645\\u062d\\u0645\\u062f \\u0639\\u0645\\u0631 \\u062f\\u0627\\u0648\\u0648\\u062f\\u0632\\u06cc'
tp59
a(S'100002763686040'
S'Shahzalmai Zalmai'
tp60
a(S'100000438733648'
S'Rahmatullah Farhad \\u0124\\u0103b\\u00ecb'
tp61
a(S'100000118855692'
S'Abdullah Anwari'
tp62
a(S'1447147310'
S'Mukhtar Temoryan'
tp63
a(S'1005223286'
S'Shareef Miakhail'
tp64
a(S'784066795'
S'Asif Nang'
tp65
a(S'100000210962920'
S'Wali Arian'
tp66
a(S'100003986477296'
S'Samiullah Zahid'
tp67
a(S'100001822942935'
S'Friend Ship'
tp68
a(S'100001886277093'
S'Ahmad Samir Bayat'
tp69
a(S'100005839231128'
S'Amirii Talaa'
tp70
a(S'669518309'
S'Nasir Khalid'
tp71
a(S'100001692930550'
S'Hashmat Stanikzai'
tp72
a(S'100008087164081'
S'Fazalbari Moslim'
tp73
a(S'100000419334697'
S'Shakir Habibyar'
tp74
a(S'555278811'
S'HabibRahman Haje Ibirahimi'
tp75
a(S'100001449978626'
S'Nasrat Sultani'
tp76
a(S'100004060614842'
S'Setanin Yassan'
tp77
a(S'100000933345893'
S'Khalid Torakhili'
tp78
a(S'100003582729952'
S'Amena Mayar'
tp79
a(S'100000897047088'
S'Sediq Wassel'
tp80
a(S'100005462370428'
S'Sarwar Faizi'
tp81
a(S'721366638'
S'Abdul Hassib Omed Rahimi'
tp82
a(S'1066443376'
S'Mukhtar Pidram'
tp83
a(S'100000929566088'
S'Fahim Kohdamani'
tp84
a(S'100006063062935'
S'Sadaf Karimi'
tp85
a(S'841010334'
S'Qais Azimy'
tp86
a(S'100004471171973'
S'Ahmad Farhad Afghanzoi'
tp87
a(S'100003024928374'
S'Weeda Qayyumi'
tp88
a(S'100000045087429'
S'Hayat Yaghubi'
tp89
a(S'758154023'
S'Sayed Ihsan Taheri'
tp90
a(S'100003278344755'
S'Nematullah Mahmoodi'
tp91
a(S'100005810410584'
S'Hadia Aminzada'
tp92
a(S'100002407573086'
S'Farhad Abrar'
tp93
a(S'100004075926589'
S'Sayed Mir Ahmad Seerat'
tp94
a(S'100000776767573'
S'Andi Wilmers'
tp95
a(S'785233318'
S'Asad Hasan'
tp96
a(S'614869124'
S'Hamid Noorzad'
tp97
a(S'1073816482'
S'Ghafar Salehi'
tp98
a(S'100001010172107'
S'Mubashir Wardak'
tp99
a(S'100005284510307'
S'Zigar Safi'
tp100
a(S'100000159757603'
S'Azizurahman Sharafat Sharafat'
tp101
a(S'100006021843536'
S'Anu Anu'
tp102
a(S'1808326399'
S'Wahid Payman'
tp103
asS'id'
p104
S'1125192903'
p105
sS'name'
p106
S'Abdul Ghafar Kamyab'
p107
s.