(dp1
S'friends'
p2
(lp3
(S'100008330527849'
S'Harry Sty\\u0142es'
tp4
a(S'1142920715'
S'Anushka Ghosh'
tp5
a(S'100008387370168'
S'Austin Mahone'
tp6
asS'id'
p7
S'1142920715'
p8
sS'name'
p9
S'Anushka Ghosh'
p10
s.