(dp1
S'name'
p2
S'Mukesh Butani'
p3
sS'current_class'
p4
S'india'
p5
sS'home_class'
p6
Vpuraniks hometown, ghodbandar road, sai nagar, anand nagar, thane west, thane, maharashtra 400615, india
p7
sS'home_text'
p8
VMumbai, Maharashtra, India\u000aHometown
p9
sS'current_link'
p10
Vhttps://www.facebook.com/l.php?u=https%3A%2F%2Fwww.bing.com%2Fmaps%2Fdefault.aspx%3Fv%3D2%26pc%3DFACEBK%26mid%3D8100%26where1%3D28.613900916609%252C%2B77.207794189453%26name%3DNew%2BDelhi%252C%2BIndia%26mkt%3Den-IN&h=OAQGc5-a4&s=1
p11
sS'home_link'
p12
Vhttps://www.facebook.com/l.php?u=https%3A%2F%2Fwww.bing.com%2Fmaps%2Fdefault.aspx%3Fv%3D2%26pc%3DFACEBK%26mid%3D8100%26where1%3D18.975000641097%252C%2B72.825622558594%26name%3DMumbai%252C%2BMaharashtra%252C%2BIndia%26mkt%3Den-IN&h=SAQHWfQhG&s=1
p13
sS'current_text'
p14
VNew Delhi, India\u000aCurrent City
p15
sS'friends'
p16
(lp17
(S'1144756532'
p18
S'Mukesh Butani'
tp19
a(S'1483852320'
S'Anshul Jain'
tp20
a(S'1144855127'
S'Vivek Sharma'
tp21
asS'id'
p22
g18
s.