(dp1
S'friends'
p2
(lp3
(S'1618504157'
p4
S'Niharika Godara'
tp5
a(S'100000963394457'
p6
S'Tushar Kalra'
tp7
a(S'100000074817754'
p8
S'Chhavi Joshi'
tp9
a(S'564489365'
p10
S'Jayesh Joshi'
tp11
a(S'1221156455'
p12
S'Varun Anand'
tp13
a(S'1407964406'
S'Sanjana Sharan'
tp14
a(S'703921629'
S'Shubham Mathur'
tp15
a(S'1825951585'
S'Sankalp Kalia'
tp16
a(S'100000274849124'
S'Shrutika Nair'
tp17
a(S'643358213'
p18
S'Pranav Vishnu'
tp19
a(S'1629579276'
p20
S'Uday Manucha'
tp21
a(S'1148696503'
p22
S'Abhinav Dhiman'
tp23
a(S'1319842602'
S'Sahiba Baweja'
tp24
a(S'1098123594'
p25
S'Mrunal Donde'
tp26
a(S'610626907'
p27
S'Soven Trehan'
tp28
a(S'1674772992'
p29
S'Aditya Ani Menon'
tp30
a(S'691691186'
p31
S'Samraat Sharma'
tp32
a(S'100000281381639'
p33
S'Megda Bharadwaj'
tp34
a(S'675708520'
S'Armaan Kazmi'
tp35
a(S'100002700668375'
p36
S'Aashian Ahluwalia'
tp37
a(S'1041927103'
p38
S'Tarushi Ravindra'
tp39
a(S'100000891750191'
S'Shivam Dhawan'
tp40
a(S'1265140146'
p41
S'Tanya Kundu'
tp42
a(S'100006225846853'
S'Taru Tekriwal'
tp43
a(S'697297291'
p44
S'Radhika Nair'
tp45
a(S'1271538264'
S'Shobhit Singh Kohli'
tp46
a(S'100000206071710'
p47
S'Sattam Thakur'
tp48
a(S'100002822599541'
S'Akshara Bhattacharya'
tp49
a(S'100001000929296'
p50
S'Aditai Puri'
tp51
a(S'709109855'
S'Rishav Bhattacharyya'
tp52
a(S'779432234'
S'Sagnik Ghosh'
tp53
a(S'100000825704818'
S'Prathmesh Vaidya'
tp54
a(S'780973987'
p55
S'Madhuvanthi Senthilkumar'
tp56
a(S'511624386'
p57
S'Vyom Sati'
tp58
a(S'1209121484'
p59
S'Aditya Gupta'
tp60
a(S'100002723240155'
S'Neha Bhandari'
tp61
a(S'1041122316'
p62
S'Pallavi Arora'
tp63
a(S'100000483763319'
S'Varsha Bansal'
tp64
a(S'1846622884'
p65
S'Prateek Gupta'
tp66
a(S'1041773670'
p67
S'Sohrab Gill'
tp68
a(S'100006047851154'
S'Shikhar Murty'
tp69
a(S'100001237170088'
S'Devika RoyChowdhury'
tp70
a(S'1344200409'
S'Tanvi Varshney'
tp71
a(S'1492163014'
S'KiRti ShaRma'
tp72
a(S'100000463842434'
S'Sakshi Srivastava'
tp73
a(S'1360350798'
S'Sanjana Jain'
tp74
a(S'1659287081'
p75
S'Devki Nehra'
tp76
a(S'1254197513'
S'Ashish Gupta'
tp77
a(S'100000951946470'
S'Lakshay Chaudhary'
tp78
a(S'523514048'
p79
S'Samridh Kapoor'
tp80
a(S'100000981898948'
p81
S'Sanjeev Singh'
tp82
a(S'573174204'
S'Camila Tehcor'
tp83
a(S'714510612'
p84
S'Siddhant Sharma'
tp85
a(S'100001629906306'
p86
S'Rhythem Bhambri'
tp87
a(S'1224661475'
S'Mikasha Sinha'
tp88
a(S'100002324310145'
S'Sriya Chandavarapu'
tp89
a(S'100000824776423'
p90
S'Tarushii Maggu'
tp91
a(S'1325241568'
p92
S'Aishwarya Joshi'
tp93
a(S'1365931656'
S'Kshitij Kasturia'
tp94
a(S'1105069442'
S'Sayan Sidha Das'
tp95
a(S'1773773613'
S'Udaydeep Jindal'
tp96
a(S'738201763'
S'Rohan Bhutani'
tp97
a(S'1503894258'
p98
S'Mehak Kawatra'
tp99
a(S'100000294635593'
p100
S'Lakshay Sharma'
tp101
a(S'1351894375'
S'Surag Nair'
tp102
a(S'1389348019'
p103
S'Pallavi Kumar'
tp104
a(S'100006289022759'
S'Aditya Gaur'
tp105
a(S'100000181865114'
p106
S'Rishabh Thakur'
tp107
a(S'100003843113566'
S'Riya Alagh'
tp108
a(S'1316301064'
S'Shaurya Muttreja'
tp109
a(S'1228423052'
p110
S'Kashish Gajrawala'
tp111
a(S'100000537613194'
S'Medhavi Sharma'
tp112
a(S'100000024403508'
S'Yaduraj Singh Chauhan'
tp113
a(S'100000094271891'
S'Manasi Rathore'
tp114
a(S'1051006929'
p115
S'Mudita Yadav'
tp116
a(S'1226396601'
S'Pranav Jain'
tp117
a(S'100002144569770'
p118
S'Shreya Sahoo'
tp119
a(S'1468207983'
S'Vidhi Arora'
tp120
a(S'1700091899'
p121
S'Harit Pathak'
tp122
a(S'100000550191493'
p123
S'Shifa Iqbal'
tp124
a(S'656475621'
S'Smrithi Senthilkumar'
tp125
a(S'1686255319'
S'Rinav Sachdev'
tp126
a(S'100001807432068'
p127
S'Shreya Ak'
tp128
a(S'1575387342'
p129
S'Ayush Magow'
tp130
a(S'1029171052'
p131
S'Karan Jhunja'
tp132
a(S'100002056969983'
S'Shaurya Saxena'
tp133
a(S'1042945244'
p134
S'Akshay Verma'
tp135
a(S'100000427803197'
S'Vaibhav Nagesh'
tp136
a(S'1460245783'
p137
S'Jatin MahaJan'
tp138
a(S'100000403891352'
S'Garima Ladwal'
tp139
a(S'1575186048'
p140
S'Pragya Gupta'
tp141
a(S'1488542477'
p142
S'Parul Jennifer'
tp143
a(S'533148969'
S'Rohit Yadav'
tp144
a(S'100000323545815'
S'Saksham Tuli'
tp145
a(S'100000653528378'
p146
S'Kirti Channan'
tp147
a(S'100000293510522'
S'Siddharth More'
tp148
a(S'1743166042'
p149
S'Aishwarya Borgohain'
tp150
a(S'1604485383'
S'Prakriti Malhotra'
tp151
a(S'100001059493651'
p152
S'Shuvoneel Chakraborty'
tp153
a(S'100000436129976'
p154
S'Jaipreet Singh Gill'
tp155
asS'id'
p156
S'1150747394'
p157
sS'name'
p158
S'Nupur More'
p159
s.