(dp1
S'friends'
p2
(lp3
(S'1183162415'
S'Ahmad Gul Totakhyl'
tp4
a(S'100007072576499'
S'Atal Afghan'
tp5
a(S'100007580534422'
S'\\u0627\\u062d\\u0645\\u062f\\u062c\\u0627\\u0646 \\u0627\\u062d\\u0645\\u062f'
tp6
a(S'100008332689498'
S'Naweed Ezam'
tp7
a(S'100005570673500'
S'Mohammad Nazif Sahil'
tp8
a(S'100006695202311'
S'Sharif Afghan Zadran'
tp9
a(S'100004346561472'
S'Abdulla Jaan Afghan'
tp10
asS'id'
p11
S'1183162415'
p12
sS'name'
p13
S'Ahmad Gul Totakhyl'
p14
s.