(dp1
S'name'
p2
S'Kashish Gajrawala'
p3
sS'current_class'
p4
S'india'
p5
sS'home_class'
p6
Vahmedabad, gujarat, india
p7
sS'home_text'
p8
VAhmedabad, India\u000aHometown
p9
sS'current_link'
p10
Vhttps://www.facebook.com/l.php?u=https%3A%2F%2Fwww.bing.com%2Fmaps%2Fdefault.aspx%3Fv%3D2%26pc%3DFACEBK%26mid%3D8100%26where1%3D23.033300959589%252C%2B72.615509033203%26name%3DAhmedabad%252C%2BIndia%26mkt%3Den-IN&h=BAQEdeXnP&s=1
p11
sS'home_link'
p12
Vhttps://www.facebook.com/l.php?u=https%3A%2F%2Fwww.bing.com%2Fmaps%2Fdefault.aspx%3Fv%3D2%26pc%3DFACEBK%26mid%3D8100%26where1%3D23.033300959589%252C%2B72.615509033203%26name%3DAhmedabad%252C%2BIndia%26mkt%3Den-IN&h=fAQEwDd7k&s=1
p13
sS'current_text'
p14
VAhmedabad, India\u000aCurrent City
p15
sS'friends'
p16
(lp17
(S'100002436534011'
S'Abhilasha Guha'
tp18
a(S'100000217404563'
S'Anand Krishnan'
tp19
a(S'100000673055060'
S'Mridul Arora'
tp20
a(S'100000640404444'
S'Anisha Agarwal'
tp21
a(S'1504064409'
S'Siddarth Broly Mehra'
tp22
a(S'1548111198'
S'Tilomi Desai'
tp23
a(S'1041122316'
S'Pallavi Arora'
tp24
a(S'100001578111709'
S'Ansh Misra'
tp25
a(S'511624386'
S'Vyom Sati'
tp26
a(S'100000993713141'
S'Pranshu Khakhar'
tp27
a(S'1124917708'
S'Jatin Singhal'
tp28
a(S'533352117'
S'Deep Zabakh'
tp29
a(S'533422769'
S'Rashmita Panigrahi'
tp30
a(S'1352345692'
S'Gazal Juneja'
tp31
a(S'100000561614307'
S'Bijal Gajrawala'
tp32
a(S'1215731501'
S'Ishan Agarwal'
tp33
a(S'1231241544'
S'Shobhit Patoria'
tp34
a(S'1283060585'
S'Aditya Kumar'
tp35
a(S'100001750803398'
S'Narsimha Pujari'
tp36
a(S'100000878001428'
S'Aditya Jain'
tp37
a(S'100000352695075'
S'Lakshay Parmar'
tp38
a(S'1160587318'
S'Vidisha Arora'
tp39
a(S'100001195030038'
S'Viraj Shah'
tp40
a(S'764954055'
S'Samir Bharadwaj'
tp41
a(S'1329366139'
S'Akash Gupta'
tp42
a(S'100001180771921'
S'Dhaval Sheth'
tp43
a(S'1425633700'
S'Kashish Dhawan'
tp44
a(S'100005675020040'
S'Falguni Shah'
tp45
a(S'1618599662'
S'Arun Tayal'
tp46
a(S'100004716062872'
S'Udhaya Kumar R'
tp47
a(S'100000383818868'
S'Chintan M. Vaywala'
tp48
a(S'650011384'
S'Deepa Gulati Chugh'
tp49
a(S'1538331406'
S'Varun Singh Ahluwalia'
tp50
a(S'100004745551235'
S'Muskaan Makwana'
tp51
a(S'1356129761'
S'Eesha Dwivedi'
tp52
a(S'100000999881698'
S'Saloni Singh'
tp53
a(S'100000349706867'
S'Akshay Agrawal'
tp54
a(S'860780463'
S'Himani Mehta'
tp55
a(S'100000901850022'
S'Rtik Sharma'
tp56
a(S'1650573720'
S'Sanchit Wazir'
tp57
a(S'100001056312536'
S'Sanket Mishra'
tp58
a(S'100006053767862'
S'Rishabh Shah'
tp59
a(S'1144656086'
S'Ankita Gaur'
tp60
a(S'585325629'
S'Adit Shah'
tp61
a(S'1018636600'
S'Pranay Billie Sharma'
tp62
a(S'100001246285744'
S'Prantik Das Barman'
tp63
a(S'1765160177'
S'Parth Shah'
tp64
a(S'555694883'
S'Rishaal Rajan'
tp65
a(S'100006393787991'
S'Namrata Sharma'
tp66
a(S'1354073232'
S'Sohil Sharma'
tp67
a(S'100005928189467'
S'Umangi Bhalani'
tp68
a(S'760198449'
S'Sulay Kadakia'
tp69
a(S'100000658500259'
S'Alexandra Coquim'
tp70
a(S'1407372088'
S'Shounak Joshi'
tp71
a(S'100000323545815'
S'Saksham Tuli'
tp72
a(S'605726849'
S'Yoginder Budania'
tp73
a(S'100002234838713'
S'Anar Mahendra'
tp74
a(S'532742043'
S'Anumita Bhattacharyya'
tp75
a(S'1068878428'
S'Udit Baliga'
tp76
a(S'100000660994462'
S'Arnav Dev'
tp77
a(S'1713570858'
S'Raja Suriya'
tp78
a(S'589827503'
S'Vipul Haralkar'
tp79
a(S'695042793'
S'Apoorv Vatzz'
tp80
a(S'100000790401662'
S'Aman Vasquez'
tp81
a(S'1414004437'
S'Omung Lalchandani'
tp82
a(S'100003701477241'
S'Suraj Singh'
tp83
a(S'100000514309835'
S'Stuti Gupta'
tp84
a(S'100000567742813'
S'Arpit Sahu'
tp85
a(S'1066046001'
S'Chhaya Yadav'
tp86
a(S'100000750577494'
S'Moti Mehra'
tp87
a(S'100000491450893'
S'Siddarth Mehra'
tp88
a(S'1704619804'
S'Raunaq Khanna'
tp89
a(S'100000604484861'
S'Ananth Suresh'
tp90
a(S'1851759288'
S'Shresth Goel'
tp91
a(S'100000052041936'
S'Rakhi Chopra'
tp92
a(S'100000243767329'
S'Karan Dureja'
tp93
a(S'644576801'
S'Sanjali Sharma'
tp94
a(S'1348333804'
S'Satvik Kumar'
tp95
a(S'100001287853469'
S'Rujvi Shah'
tp96
a(S'1031662520'
S'ROhan Sharma'
tp97
a(S'1621759556'
S'Ishan Piplani'
tp98
a(S'1777163333'
S'Shivani Kaushal Mehta'
tp99
a(S'100001479004161'
S'Udit Handa'
tp100
a(S'610626907'
S'Soven Trehan'
tp101
a(S'1224661475'
S'Mikasha Sinha'
tp102
a(S'1571784714'
S'Neel Paranjape'
tp103
a(S'100001851795560'
S'Prashant Yadav'
tp104
a(S'100001030108354'
S'Aman Gupta'
tp105
a(S'100000552124749'
S'Karan Grover'
tp106
a(S'1074614008'
S'Srinath Murali'
tp107
a(S'100001731127871'
S'Yogesh Saini'
tp108
a(S'1796719704'
S'Apoorva Somani'
tp109
a(S'100002676830653'
S'Saloni Mahendra'
tp110
a(S'100005263325130'
S'Sachin Gajrawala'
tp111
a(S'1407716922'
S'Arko Dey'
tp112
a(S'1710474626'
S'Chander Mohan Bhardwaj'
tp113
a(S'100000976320335'
S'Pranjal Shah'
tp114
a(S'1162681990'
S'Bhavya Bhatia'
tp115
a(S'1059407092'
S'Bharat Katyayan'
tp116
a(S'1496441718'
S'Karan Sud'
tp117
a(S'100000225801146'
S'Binita Shah'
tp118
a(S'1441891395'
S'Kritika Yadav'
tp119
a(S'100001063003735'
S'Anuj Gupta'
tp120
a(S'1150747394'
S'Nupur More'
tp121
a(S'540297747'
S'Nitant Desai'
tp122
a(S'1773773613'
S'Udaydeep Jindal'
tp123
a(S'100000502428455'
S'Dushyant Mahajan'
tp124
a(S'100006152652607'
S'Rrohan Gupta'
tp125
a(S'1270765741'
S'Aashi Agarwal'
tp126
a(S'528022614'
S'Siddharth Marya'
tp127
a(S'1279351031'
S'Dhruv Panwar'
tp128
a(S'100002455696998'
S'Shubham Agrawal'
tp129
a(S'100003691498878'
S'Anubhav Sharan'
tp130
a(S'100002056969983'
S'Shaurya Saxena'
tp131
a(S'1051006929'
S'Mudita Yadav'
tp132
a(S'772245639'
S'Pranav Malik'
tp133
a(S'100003857822670'
S'Tamaghna Mukherjee'
tp134
a(S'100000887960652'
S'Yashika Nijhawan'
tp135
a(S'100000317640535'
S'Aditya Jha'
tp136
a(S'1442144168'
S'Anand Mahendra'
tp137
a(S'100004208978137'
S'Apeksha Sharma'
tp138
a(S'1012637902'
S'Shobhit Gupta'
tp139
a(S'1105069442'
S'Sayan Sidha Das'
tp140
a(S'100003536046976'
S'Manu Singh'
tp141
a(S'1718541687'
S'Param Mahendra'
tp142
a(S'1683465051'
S'Vidit Soni'
tp143
a(S'1443700266'
S'Bharath Syam Nagelli'
tp144
a(S'703357812'
S'Ritu Sharma'
tp145
a(S'742265313'
S'Akhil Rao'
tp146
a(S'1100167826'
S'Rahul Bhola'
tp147
a(S'1428100130'
S'Sayesha Gupta'
tp148
a(S'100003228060006'
S'Athiqur Rahman'
tp149
a(S'1249982927'
S'Saikruth Rao'
tp150
a(S'100000498844328'
S'Meet Shah'
tp151
a(S'100000500421057'
S'Himanshu Sharma'
tp152
a(S'100002159641632'
S'Asutosh Padhy'
tp153
a(S'100007139171689'
S'Nidhi Shah'
tp154
a(S'1342921275'
S'Shreyas Varshney'
tp155
a(S'100001161056174'
S'Raj Shah'
tp156
a(S'100003739227745'
S'Saloni Patel'
tp157
a(S'100000519390621'
S'Irikaa Pilania'
tp158
a(S'1139589204'
S'Pratyush Kr'
tp159
a(S'100002921623629'
S'Heta Parikh'
tp160
a(S'100001595592284'
S'Abhinav Yadav'
tp161
a(S'100000527702182'
S'Ayush Kundra'
tp162
a(S'576434474'
S'Miraj Shah'
tp163
a(S'1275333793'
S'Niraj Patel'
tp164
a(S'100001068525676'
S'Sandipan Tewary'
tp165
a(S'1775246092'
S'Shanavas Kpz'
tp166
a(S'1491125726'
S'Gagan Sehgal'
tp167
a(S'100001191428775'
S'Nikita Bansal'
tp168
a(S'100000575386272'
S'Pranay Billie Sharma'
tp169
a(S'1152762359'
S'Anvit Rai'
tp170
a(S'100000181865114'
S'Rishabh Thakur'
tp171
a(S'100001008816202'
S'Shirali Agarwal'
tp172
a(S'1544535624'
S'Kushal Kedia'
tp173
a(S'1055642143'
S'Kaustav Gupta'
tp174
a(S'100001517281914'
S'Jinaal Shah'
tp175
a(S'779432234'
S'Sagnik Ghosh'
tp176
a(S'100000940295714'
S'Suril Shah'
tp177
a(S'100001448182322'
S'Sahil Ratra'
tp178
a(S'684163044'
S'Rachit Salian'
tp179
a(S'100002944725742'
S'Purvi Mahendra'
tp180
a(S'1044401408'
S'Mihir Nagpal'
tp181
a(S'659945595'
S'Dhara Sharma'
tp182
a(S'1580043892'
S'Nikhil Malik'
tp183
a(S'1271538264'
S'Shobhit Singh Kohli'
tp184
a(S'100004420868708'
S'Krutal Patel'
tp185
a(S'1065592990'
S'Rahul Wahi'
tp186
a(S'100001058509118'
S'Anurag Dhoot'
tp187
a(S'1505384693'
S'Arunima Bhattacharya'
tp188
a(S'100003790655541'
S'Prakriti Kohli'
tp189
a(S'1148742265'
S'Mitul Doshi'
tp190
a(S'100001391557477'
S'Ameya Deshmukh'
tp191
a(S'100006141933749'
S'Darpil Shah'
tp192
a(S'100001046045384'
S'Deepali Goyal'
tp193
a(S'1412558119'
S'Saivani Bobba'
tp194
a(S'1365763581'
S'Hamsa Raina'
tp195
a(S'100001589592090'
S'Kartik Arora'
tp196
a(S'749174111'
S'Aditi Dey'
tp197
a(S'100003324276883'
S'Kalpana Gajrawala'
tp198
a(S'100000261690267'
S'Jun Pio Collo'
tp199
a(S'1122953374'
S'Shivam Rana'
tp200
a(S'1001316862'
S'Karanvir Singh'
tp201
a(S'734137238'
S'Malvika Elango'
tp202
a(S'100000458181665'
S'Lalitha Dharmapuri'
tp203
a(S'100000562241445'
S'Samarth Gowda'
tp204
a(S'100006148327245'
S'Abitha Thabassum'
tp205
a(S'100000644753615'
S'Arun Subramaniam'
tp206
a(S'1344200409'
S'Tanvi Varshney'
tp207
a(S'100003995836279'
S'Sree Chaitu Reddy'
tp208
a(S'100003319196406'
S'Yashesh Shah'
tp209
a(S'650274444'
S'Hrishikesh Vader Mulabagula'
tp210
a(S'100000305100990'
S'Anshul Tyagi'
tp211
a(S'100001257517098'
S'Angad Walia'
tp212
a(S'581616430'
S'Ainesh Ahluwalia'
tp213
a(S'100001672530489'
S'Manan Shah'
tp214
a(S'1293715510'
S'Rishabh Sharma'
tp215
a(S'100002889269019'
S'Kushagra Singh'
tp216
a(S'100001901538255'
S'Mahika Yadav'
tp217
a(S'100001911470780'
S'Kangan Jain'
tp218
a(S'100001565952809'
S'Devaang Mehrotra'
tp219
a(S'100002157821673'
S'Samadri Ghosh'
tp220
a(S'1460157806'
S'Ritwiik Raje'
tp221
a(S'100000015772088'
S'Sana Khan'
tp222
a(S'100001503260763'
S'Dhruv Rawat'
tp223
a(S'1805603870'
S'Tanmay Sharma'
tp224
a(S'1808469064'
S'Prabhat Garg'
tp225
a(S'100001158655490'
S'Meet Shah'
tp226
a(S'100004691171120'
S'Nikita Padhy'
tp227
a(S'100000548013033'
S'Swaroop Krishnan'
tp228
a(S'100000224930808'
S'Raghav Raj Jaggi'
tp229
a(S'100000955839439'
S'Joe No'
tp230
a(S'100000206978428'
S'Aakash Sinha'
tp231
a(S'1680923793'
S'Khwab Chawla'
tp232
a(S'1030097273'
S'Joe James'
tp233
a(S'100000776837767'
S'Aman Sharma'
tp234
a(S'1575186048'
S'Pragya Gupta'
tp235
a(S'100003810316839'
S'Aman Agarwal'
tp236
a(S'100001215448741'
S'Manan Dave'
tp237
a(S'100000523992399'
S'Mayur Prajapati'
tp238
a(S'1484106403'
S'Dhrthi Nanda'
tp239
a(S'100000573630871'
S'Shubhankar Das Sharma'
tp240
a(S'100005635297905'
S'Ankita Gaur'
tp241
a(S'100002313039601'
S'Atulya Kaushik'
tp242
a(S'100000198553231'
S'Yesha Mehta'
tp243
a(S'1461458624'
S'Shiven Luthra'
tp244
a(S'100001859645716'
S'Naitik Ghiya'
tp245
a(S'671243440'
S'Himanshu Chourasia'
tp246
a(S'1647031828'
S'Vidisha Patel'
tp247
a(S'1332762689'
S'Bijal Gajrawala'
tp248
a(S'643358213'
S'Pranav Vishnu'
tp249
a(S'100000152396490'
S'Pranshu Singh Yadav'
tp250
a(S'1480172177'
S'Akshita Dhaka'
tp251
a(S'1451472806'
S'Agrim Singhal'
tp252
a(S'1635263741'
S'Aaryaman Sen'
tp253
a(S'1148696503'
S'Abhinav Dhiman'
tp254
a(S'100001686462198'
S'Saarthak Ghosh'
tp255
a(S'680881318'
S'Dhruv Shetty'
tp256
a(S'1644260123'
S'Arunika Sangwan'
tp257
a(S'100000021073805'
S'Julyson Casia Damasco'
tp258
a(S'1153278111'
S'Kosha Shah'
tp259
a(S'100002199627645'
S'Nidhi Gajarawala'
tp260
a(S'100001479362249'
S'Aditya Pratap'
tp261
a(S'100000775697983'
S'Yatin Chawla'
tp262
a(S'100004038979304'
S'Apurv Bajaj'
tp263
a(S'100002083367246'
S'Tanya Chandra'
tp264
a(S'1771119816'
S'Yayati Dinesh'
tp265
a(S'1794640848'
S'Prateek Singhal'
tp266
a(S'1221156455'
S'Varun Anand'
tp267
a(S'1180509128'
S'Kartik Bhargava'
tp268
a(S'100003745491313'
S'Swathi Swargam'
tp269
a(S'100001013220872'
S'Deadman Walking'
tp270
a(S'663788408'
S'Shrinil Shah'
tp271
a(S'100004459568446'
S'Kinish Gajrawala'
tp272
a(S'100001165171706'
S'AbiyAz MohAmmed'
tp273
a(S'100002424876627'
S'Komal Agrawal'
tp274
a(S'100002108705467'
S'Rahul Emi'
tp275
a(S'100002623686880'
S'Keepers Corp'
tp276
a(S'1697192187'
S'Himanshu Verma'
tp277
a(S'100000619679184'
S'Aashay Mishra'
tp278
a(S'100000708925409'
S'Aishwarya Nair'
tp279
a(S'1361764306'
S'Ankita Nangia'
tp280
a(S'100001089796372'
S'Jayraj Gohil'
tp281
a(S'100004059910084'
S'Harsh Goyal'
tp282
a(S'1734579726'
S'Deepanshu Juneja'
tp283
a(S'1067677596'
S'Chirayu Agarwal'
tp284
a(S'728186827'
S'Bhruvil Shah'
tp285
a(S'100000477604349'
S'Divij Papneja'
tp286
a(S'612785549'
S'Kirthana Singh'
tp287
a(S'1468207983'
S'Vidhi Arora'
tp288
a(S'1308152024'
S'Parag Shah'
tp289
a(S'100001807432068'
S'Shreya Ak'
tp290
a(S'1238368418'
S'Mehnaz Khan'
tp291
a(S'100000356101969'
S'Sarthak Stiffler'
tp292
a(S'100000900519152'
S'Siddharth Kaushik'
tp293
a(S'100001105175888'
S'Bhavya Khanna'
tp294
a(S'1508704294'
S'Divya Shukla'
tp295
a(S'100003773095528'
S'Gulshan Vageriya'
tp296
a(S'1203801971'
S'Pragya Gupta'
tp297
a(S'100000942777183'
S'Vishwa Shah'
tp298
a(S'1758594290'
S'Bhavya Bhatia'
tp299
a(S'1252695384'
S'Vaishnavi Patro'
tp300
a(S'100000252606866'
S'Siddhant Gupta'
tp301
a(S'100000807794590'
S'Aditya Gupta'
tp302
a(S'1771582643'
S'Chirag Gambhir'
tp303
a(S'100000941892993'
S'Kanav Gupta'
tp304
a(S'1627965349'
S'Ayon Dey'
tp305
a(S'1267571100'
S'Manu Singh'
tp306
a(S'1091466598'
S'Abhinav Chaudhury'
tp307
a(S'100001046986711'
S'Viraj Shah'
tp308
a(S'799788850'
S'Rishab Mittal'
tp309
a(S'100000439988502'
S'Parth Prabhakar'
tp310
a(S'100000516522083'
S'Amit Prajapati'
tp311
a(S'100000322207536'
S'Shikhar Golash'
tp312
a(S'100003899706263'
S'Aayush Karwatkar'
tp313
a(S'100000989244855'
S'Nikhil Lohia'
tp314
a(S'100002853050628'
S'Uday Ghiya'
tp315
a(S'100001233888606'
S'Kushal Kedia'
tp316
a(S'652855821'
S'Binoy Parikh'
tp317
a(S'100001389780859'
S'Aanal Gajrawala'
tp318
a(S'100001925923451'
S'Sahil Samar'
tp319
a(S'1058206833'
S'Avnish Rana'
tp320
a(S'1348601630'
S'Umesh Malik'
tp321
a(S'100001294029779'
S'Sanskar Chandra'
tp322
a(S'1645640382'
S'Arjoonn Sharma'
tp323
a(S'1581933119'
S'Deep Bhatia'
tp324
a(S'100001094273107'
S'Tirath Mehta'
tp325
a(S'1724541054'
S'Ram Issickofhisname Surendran'
tp326
a(S'100005397031778'
S'Aditya Kedia'
tp327
a(S'100004030800469'
S'Kajal Singh'
tp328
a(S'1629554966'
S'Mohit Maruwada'
tp329
a(S'1330844639'
S'Varun Kapoor'
tp330
a(S'703792647'
S'Priyam Chatterjee'
tp331
a(S'100000318612148'
S'Ketan Malik'
tp332
a(S'100001829222669'
S'Alisha Khanna'
tp333
a(S'1743166042'
S'Aishwarya Borgohain'
tp334
a(S'547571325'
S'Saurabh Joshi'
tp335
a(S'738201763'
S'Rohan Bhutani'
tp336
a(S'100004256771017'
S'Arko Dey'
tp337
a(S'100004436201543'
S'Rishabh Kumar Pandey'
tp338
a(S'100001060118141'
S'Shubhi Gupta'
tp339
a(S'100000141096198'
S'Sanjoli Sirohi'
tp340
a(S'100001857592211'
S'Harry Pele'
tp341
a(S'1193692695'
S'Diti Milind Shah'
tp342
a(S'1163525030'
S'Priyanka Nagarajan'
tp343
a(S'703921629'
S'Shubham Mathur'
tp344
a(S'100002557318737'
S'Mayank Dahiya'
tp345
a(S'100000981898948'
S'Sanjeev Singh'
tp346
a(S'100001091277442'
S'Ishani Banerjee'
tp347
a(S'100002589452657'
S'Birva Gajarawala Shah'
tp348
a(S'714510612'
S'Siddhant Sharma'
tp349
a(S'100002373606889'
S'Ami Gajrawala'
tp350
a(S'100002941563898'
S'Nihal F T Ahmed'
tp351
a(S'1207376664'
S'Manik Singhal'
tp352
asS'id'
p353
S'1228423052'
p354
s.