(dp1
S'friends'
p2
(lp3
(S'100001020465504'
S'Pranav Agarwal'
tp4
a(S'1066427866'
S'Ankur Kumar'
tp5
a(S'1089764311'
S'Nrapesh Kishore Jain'
tp6
a(S'1596526057'
S'Kartikeya Atrey'
tp7
a(S'678168846'
S'Shubham Goyal'
tp8
a(S'100000025279831'
S'Samkit Jain'
tp9
a(S'1708081499'
S'Divyansh Malia'
tp10
a(S'1477697036'
S'Mihir Gaur'
tp11
a(S'1571072470'
S'Tushar Rastogi'
tp12
a(S'1427326095'
S'Akshay Mahajan'
tp13
a(S'100002765004048'
S'Harshit Sharma'
tp14
a(S'100003825063526'
S'Tushar Pathak'
tp15
a(S'1277456988'
S'Harmehar Singh Gujral'
tp16
a(S'1482212429'
S'Shrey Gandhi'
tp17
a(S'1556276877'
S'Yatharth Agarwal'
tp18
a(S'1037205996'
S'Vaibhav Sharma'
tp19
a(S'1827691340'
S'Thakur Vidur Chauhan'
tp20
a(S'1702592044'
S'Prateek Puri'
tp21
a(S'1729784164'
S'Hetain Anand'
tp22
a(S'1773506161'
S'Dhruv Suri'
tp23
a(S'1472776937'
S'Umang Rastogi'
tp24
a(S'1413146508'
S'Rita Chauhan'
tp25
a(S'820775767'
S'Ratinder Singh Virdi'
tp26
a(S'1539076645'
S'Sarvesh Khanna'
tp27
a(S'652551586'
S'Prateek Bhargava'
tp28
a(S'100002849626151'
S'Vineet Singh'
tp29
a(S'100000853069685'
S'Arjun Narang'
tp30
a(S'100000780862056'
S'Samrat Miglani'
tp31
a(S'1304230921'
S'Rahul Shah'
tp32
a(S'1483877217'
S'Mitul Jain'
tp33
a(S'536749655'
S'Shubham Sharma'
tp34
a(S'100001633289252'
S'Ojas Vats'
tp35
a(S'1420777160'
S'Shaurya Bansal'
tp36
a(S'1130332994'
S'Shrey Sachdeva'
tp37
a(S'1471937060'
S'Sulabh Gupta'
tp38
a(S'100002554759203'
S'Sudhakar Singh'
tp39
a(S'1148683972'
S'Siddharth Mohan'
tp40
a(S'1360878990'
S'Umang Mishra'
tp41
a(S'100001241551262'
S'Eshaan Segan'
tp42
a(S'1050070647'
S'Amod Bansal'
tp43
a(S'1301954421'
S'Sanyam Agarwal'
tp44
a(S'1691602908'
S'Umang Arora'
tp45
a(S'1134845052'
S'Shivam Jaggi'
tp46
a(S'100003029484158'
S'Udai Singh'
tp47
a(S'1317767905'
S'Shubham Tayal'
tp48
a(S'100002123763731'
S'Ekansh Jain'
tp49
a(S'100000989134061'
S'Pranav Walia'
tp50
a(S'100002587062640'
S'Viresh Khokhar'
tp51
a(S'100000326360057'
S'Udit Singh Panwar'
tp52
a(S'1192484108'
S'Aman Goel'
tp53
a(S'1183946173'
S'Sankalp Garg'
tp54
a(S'100002868827278'
S'Bhuvan Sharma'
tp55
a(S'1009698508'
S'Shivam Singhal'
tp56
a(S'100002398279897'
S'Yagya Attri'
tp57
a(S'1295243408'
S'Prafful Garg'
tp58
a(S'100001262144038'
S'Shishir Sirohi'
tp59
a(S'1009827354'
S'Kartik Hajela'
tp60
a(S'100000683298776'
S'Abhinav Sethi'
tp61
a(S'807569906'
S'Rishabh Trehan'
tp62
a(S'1423361570'
S'Divij Arora'
tp63
a(S'658414649'
S'Manmeet Chawla'
tp64
a(S'1557565827'
S'Naman Gadhok'
tp65
a(S'619763673'
S'Sukhmeet Singh'
tp66
a(S'1302932485'
S'Namit Maheshwari'
tp67
a(S'1050647971'
S'Jai Arora'
tp68
a(S'1033817837'
S'Anant Jain'
tp69
a(S'100002310483301'
S'Ashwini Verma'
tp70
a(S'1773837360'
S'Akshay Maheshwari'
tp71
a(S'100001633636046'
S'Ahad Siddiqui'
tp72
a(S'100001160990451'
S'Kshitiz Chauhan'
tp73
a(S'1557777108'
S'Sarthak Gupta'
tp74
a(S'100001283266103'
S'Shivendra Ahlawat'
tp75
a(S'718325029'
S'Prashast Mehra'
tp76
a(S'1551686836'
S'Shrey Khurana'
tp77
a(S'100003851289870'
S'Shaumit Kumar'
tp78
a(S'100002650677734'
S'Shiv Vashisthsharma'
tp79
a(S'1314744311'
S'Sushrut Bhatia'
tp80
a(S'509475432'
S'Bhanush Arora'
tp81
a(S'1389020890'
S'Kashish Singhal'
tp82
a(S'1173529146'
S'Ashutosh Bhardwaj'
tp83
a(S'100007034924421'
S'Surbhi Chauhan'
tp84
a(S'1554768215'
S'Akhand Pratap Singh'
tp85
a(S'670123507'
S'Abhishek Chauhan'
tp86
a(S'1210366511'
S'Samarth Manish'
tp87
a(S'1709192127'
S'Melvin Mathew'
tp88
a(S'100002353120302'
S'Kunal Sagar Sharma'
tp89
a(S'100002561483190'
S'Shubham Sharma'
tp90
a(S'1505078942'
S'Tarang Singhal'
tp91
a(S'1324787173'
S'Vyom Agarwal'
tp92
a(S'100003726039596'
S'Vinay Kumar'
tp93
a(S'1312412700'
S'Udit Goel'
tp94
a(S'1263606571'
S'Anuranjan Singh'
tp95
a(S'1045877747'
S'Mrinal Denis Deane'
tp96
a(S'1543316909'
S'Sanchit Lonial'
tp97
a(S'100000955786254'
S'Navneet Ranjan'
tp98
a(S'1174026047'
S'Pulkit Sharma'
tp99
a(S'100001502739097'
S'Naman Jain'
tp100
a(S'1497302373'
S'Amol Sehgal'
tp101
a(S'1674732326'
S'Karan Tyagi'
tp102
a(S'100000894767717'
S'S\\u00e4tv\\u00efk S\\u00e4x\\u00ebn\\u00e4'
tp103
asS'id'
p104
S'1236357472'
p105
sS'name'
p106
S'Shivam Chauhan'
p107
s.