(dp1
S'friends'
p2
(lp3
(S'1129517077'
S'Shubham DoObi Oberoi'
tp4
a(S'100001576201609'
S'Shilpa Kanojia'
tp5
a(S'100003038321446'
S'Sani Yadav'
tp6
a(S'100000184723586'
S'Rajat Dhiman'
tp7
a(S'100000042990015'
S'Iqra Khalid'
tp8
a(S'1361872624'
S'Joseph Prakash'
tp9
a(S'100001817287854'
S'Saloni Sharma'
tp10
a(S'100000450204735'
S'Kuriakose P Joseph'
tp11
a(S'100000646366264'
S'Jackson Jacob'
tp12
a(S'1067409573'
S'Abhishek Chugh'
tp13
a(S'1337460254'
S'Mitali Poovayya'
tp14
a(S'565737536'
S'Michele Pantoni'
tp15
a(S'100000111650922'
S'Elizabeth Joseph'
tp16
a(S'100000359568523'
S'Sruthi George'
tp17
a(S'1390927800'
S'Samruddhi Shirkhedkar'
tp18
a(S'1319658834'
S'Chiara De Cuia'
tp19
a(S'100000716882819'
S'Jatin Singh Meen'
tp20
a(S'100000369742671'
S'Shincy Sunny'
tp21
a(S'100000274252842'
S'Vasundhara Roy'
tp22
a(S'100001026286199'
S'Sumit Singh'
tp23
a(S'1328145572'
S'Anurag Banerjee'
tp24
a(S'771623608'
S'Siby Mathew'
tp25
a(S'632407026'
S'Shrey Pacheco'
tp26
a(S'661466782'
S'Shagun Trisal'
tp27
a(S'573515222'
S'Dhruv Visvanath'
tp28
a(S'100002034011498'
S'Pavitra Pillai'
tp29
a(S'1500435532'
S'Amandeep Singh'
tp30
a(S'1536745032'
S'Shivani Bhatt'
tp31
a(S'100000158513019'
S'Ayush Cyriac'
tp32
a(S'100000905970055'
S'Priya Mirani'
tp33
a(S'100000466465403'
S'J Ranjan Panda'
tp34
a(S'647277191'
S'Aarushi Bhilotra'
tp35
a(S'100003613853907'
S'Aditya Gupta'
tp36
a(S'100000602468554'
S'Edwin Joseph'
tp37
a(S'100000703951837'
S'Moin Matto'
tp38
a(S'100000179652812'
S'Simran Saini'
tp39
a(S'100003813753087'
S'Anju Lukose'
tp40
a(S'100003714382846'
S'Elizabeth Dilu'
tp41
a(S'100000050921608'
S'Shubham Ruhela'
tp42
a(S'100001388046044'
S'Saurav Singh'
tp43
a(S'100001242238362'
S'Shivam Dixit'
tp44
a(S'1252176658'
S'Rahul Arora'
tp45
a(S'715253855'
S'Sachin Sekaran'
tp46
a(S'100003959722031'
S'Ashvatth Verma'
tp47
a(S'1264708135'
S'Saiket Talukdar'
tp48
a(S'100001258915927'
S'Sangeeta Bhowmik'
tp49
a(S'100003715890335'
S'Annie Vij'
tp50
a(S'1229143063'
S'Sagari Handa'
tp51
a(S'1565317200'
S'Arjun Gupta'
tp52
a(S'1482811239'
S'Kamaljeet Kaur'
tp53
a(S'100001431088204'
S'Dennis Sabu'
tp54
a(S'100001813873396'
S'Prateek Narsimha'
tp55
a(S'100000393048919'
S'Anant Waitforit Sharma'
tp56
a(S'665655196'
S'Neha George'
tp57
a(S'1659390189'
S'Ridhima Sodhi'
tp58
a(S'612894499'
S'Mehak Sharma'
tp59
a(S'1629661242'
S'Rahul Samuel'
tp60
a(S'100000121995617'
S'Kevin James'
tp61
a(S'100005752210209'
S'Nitya Chawla'
tp62
a(S'1627385259'
S'Anithasree Athiyaman'
tp63
a(S'620315431'
S'Ashish Massey'
tp64
a(S'710895113'
S'Viren Bijlani'
tp65
a(S'591311074'
S'Tushar Ghei'
tp66
a(S'100002132876915'
S'Pranjli Virmani'
tp67
a(S'1550454194'
S'Vanika Kamra'
tp68
a(S'100005736821531'
S'Ruchika Somani'
tp69
a(S'1371557438'
S'Priyanka Verma'
tp70
a(S'100000591458869'
S'Aaron Alfred'
tp71
a(S'1433994034'
S'Siddharth Chakravortty'
tp72
a(S'1485371765'
S'Rangarajan Venkatraman'
tp73
a(S'1837417738'
S'Nikhil Varghese'
tp74
a(S'1264016019'
S'Kartik Sachdev'
tp75
a(S'773781542'
S'Midrash Thomas Mathew'
tp76
a(S'100003336844167'
S'Shreya Seth'
tp77
a(S'674535465'
S'Rohan Dev'
tp78
a(S'100000632393970'
S'Angad Singh Arora'
tp79
a(S'1674495547'
S'Roderick Anthony'
tp80
a(S'100001226700996'
S'Sambhav Bansal Gupta'
tp81
a(S'1335855210'
S'Yash Singh'
tp82
a(S'1368190670'
S'Simranjeet Kaur'
tp83
a(S'100000962154548'
S'Anima Trivedi'
tp84
a(S'730127908'
S'Ashna Singh'
tp85
a(S'647220856'
S'Vaibhav Sabharwal'
tp86
a(S'100000294447928'
S'Sherwin Almeida'
tp87
a(S'1752415559'
S'Pulkit Rawat'
tp88
a(S'1509632525'
S'Siddharth Gautam'
tp89
a(S'567941458'
S'Rhea Lopez'
tp90
a(S'1558053693'
S'John Antony Karate'
tp91
a(S'100000094858169'
S'Sambhav Raj'
tp92
a(S'1781278220'
S'Akshat Dunkal'
tp93
a(S'1444035973'
S'Jyoti RohoDia'
tp94
a(S'1604267123'
S'Sherin Paul'
tp95
a(S'1782840184'
S'Saad Mustafa'
tp96
a(S'100007351895822'
S'Steve Stephen'
tp97
a(S'100003903518003'
S'Deepanshu Bhatt'
tp98
a(S'100001553390948'
S'Anjali Paul'
tp99
a(S'100001044063931'
S'Ishi Gill'
tp100
a(S'100000847268324'
S'Zubia Mukhtar'
tp101
a(S'1851796175'
S'Karan Singh Sawhney'
tp102
a(S'100000682790140'
S'Aman Satnam Singh'
tp103
a(S'1520359005'
S'Maria Srishti Kuttickal'
tp104
a(S'100000399892592'
S'Barkha Gupta'
tp105
a(S'100001204939859'
S'Saburi Pandita'
tp106
a(S'726530819'
S'Nitin Jude Magima'
tp107
a(S'100000602054783'
S'Saumya Kharya'
tp108
a(S'100001233171428'
S'Harsh H Harsh'
tp109
a(S'100001385495562'
S'Nikita Aggarwal'
tp110
a(S'100001403110007'
S'Kritika Roy'
tp111
a(S'507078529'
S'Aman Saxena'
tp112
a(S'100000045652066'
S'Sonali Verma'
tp113
a(S'1089196914'
S'Lokesh Devraj'
tp114
a(S'607048189'
S'Kalpana Sharma'
tp115
a(S'100003754820675'
S'Tolstoy Paonam'
tp116
a(S'100000820394992'
S'Harkirat Singh'
tp117
a(S'1240545130'
S'Swaroop A.R.'
tp118
a(S'689662616'
S'Tanuj Varshney'
tp119
a(S'100001282454558'
S'A\\u00e0\\u015bth\\u00e4 Go\\u0119\\u0142'
tp120
a(S'681494814'
S'Charles Tirkey'
tp121
a(S'100004052787335'
S'Aman Gupta'
tp122
a(S'100000453286208'
S'Devesh Varma'
tp123
a(S'1281503273'
S'Shantanu Arora'
tp124
a(S'100000590956423'
S'Alvita Gonsalvis'
tp125
a(S'100000196465064'
S'Jubin Babu'
tp126
a(S'671701644'
S'Indrani Roy'
tp127
a(S'100000441189899'
S'Joyan Mathew'
tp128
a(S'1843390401'
S'Rajat Wahab'
tp129
a(S'1586538611'
S'Agnes Poulose'
tp130
a(S'100000162319161'
S'Anthony Bringel'
tp131
a(S'1772051861'
S'Divya Sebastian'
tp132
a(S'1284388006'
S'Ubaid Iqbal Khan'
tp133
a(S'100006577201870'
S'Merry Issac'
tp134
a(S'100000198073391'
S'Jasmine Xalxo'
tp135
a(S'100001437382721'
S'Ayush Narang'
tp136
a(S'100000594768956'
S'Ridhi Chanda'
tp137
a(S'100001232464112'
S'RoMica SinGhal'
tp138
a(S'100000710618091'
S'Smriti Nanda'
tp139
a(S'100002640823344'
S'Deepak Kumar'
tp140
a(S'1061948667'
S'Prateek Katyal'
tp141
a(S'1414987857'
S'Himanshu Tariyal'
tp142
a(S'100000669886133'
S'Steven Joseph'
tp143
a(S'1790550827'
S'Suhina Cicily'
tp144
a(S'714422511'
S'Aquile Priyank Aind'
tp145
a(S'100000972844609'
S'Sumit Nanda'
tp146
a(S'801473259'
S'Irandeep Singh'
tp147
a(S'712235412'
S'Ankit Lakhotia'
tp148
a(S'100001216115049'
S'Samiksha Rustagi'
tp149
a(S'1038488628'
S'Karan Gill'
tp150
a(S'753358480'
S'Lamita Lyngdoh'
tp151
a(S'770201094'
S'Ludovico Di Martino'
tp152
a(S'100006215494674'
S'Nishtha Verma'
tp153
a(S'100000105550296'
S'Amal Augustine'
tp154
a(S'826965371'
p155
S'Natasha Chowdhury'
tp156
a(S'100001044301618'
S'\\u00dd\\u00c2sh \\u00c4g\\u00e2rw\\u00e5l'
tp157
a(S'100001980134789'
S'Eshaan Sharma'
tp158
a(S'1817576333'
S'Kanika Somani'
tp159
a(S'1474148087'
S'Dhruv Mongia'
tp160
a(S'1337960792'
S'Harmandeep Singh'
tp161
a(S'1558012688'
S'Siddharth Gupta'
tp162
a(S'100000900770761'
S'Lily Dean'
tp163
a(S'547543659'
S'Zeme Obed'
tp164
a(S'566212713'
S'Rashi Goil'
tp165
a(S'1184967404'
S'Dhruv Immortal'
tp166
a(S'1803237234'
S'Agnes Augustine'
tp167
a(S'100001460331230'
p168
S'Steni Lucy Thomas'
tp169
a(S'672712461'
S'Jose Alarico Carvalho'
tp170
a(S'711202263'
S'Tanya Mary Duckworth'
tp171
a(S'100000309505887'
S'Agnet Thomas'
tp172
a(S'1493471560'
S'Natasha Garg'
tp173
a(S'100002270692737'
S'Tania David'
tp174
a(S'1672677132'
S'Annu Malhotra'
tp175
a(S'1099905728'
S'Divya Kapur'
tp176
a(S'1724342143'
S'Aakriti Sharma'
tp177
a(S'664440874'
S'Mananjay Prakash'
tp178
a(S'100005691663009'
S'Ssc Afterhours'
tp179
a(S'1043229706'
S'Akshay Kaul'
tp180
a(S'100000979880835'
S'Ananta Joshi'
tp181
a(S'1802913545'
S'Gurvinder Singh Uurrff Gullu'
tp182
a(S'100000934416264'
S'Jyoti Topo'
tp183
a(S'100000356876036'
S'Akshay Kumar'
tp184
a(S'1671562199'
S'Divyanshu Sharma'
tp185
a(S'1837126831'
S'Aman Vashisth'
tp186
a(S'1098277623'
S'Manpreet Kaur'
tp187
a(S'100003738759961'
S'Ojaswini Wadhwa'
tp188
a(S'100000184009054'
S'Jonathan David George'
tp189
a(S'100000581614662'
S'Abhinav Kumar'
tp190
a(S'1106436399'
S'Rebecca Benny'
tp191
a(S'689759383'
S'Antony George'
tp192
a(S'560050918'
S'Mira Mukhi'
tp193
a(S'1626270011'
S'Aditya Narayan'
tp194
a(S'1042533826'
S'Aditi Kakar'
tp195
a(S'1604210018'
S'Nikhil Mathew'
tp196
a(S'1146558185'
S'Saakshi Sethi'
tp197
a(S'1498892785'
S'Apoorva Deep'
tp198
a(S'681254113'
S'Priyansh Dugar'
tp199
a(S'1442130793'
S'Astha Sharma'
tp200
a(S'100001482930457'
S'Justin Joseph'
tp201
a(S'100004078954159'
S'Arshia Jacob'
tp202
a(S'1714757698'
S'Amal Thomas'
tp203
a(S'637223255'
S'Linta Bouselly'
tp204
a(S'100000622956548'
S'Gagan Mahajan'
tp205
a(S'100004396983218'
S'Divij Bindlish'
tp206
a(S'100001284413858'
S'Srishti Dandriyal'
tp207
a(S'100002515502802'
S'Soumya Gupta'
tp208
a(S'100000478355592'
S'Mahima Loungani'
tp209
a(S'1615864787'
S'Bazel Joseph'
tp210
a(S'1520437078'
S'Avdhesh Batra'
tp211
a(S'100005320381089'
S'Elizabeth Chippy'
tp212
a(S'100000738271707'
S'Tina Theresa Thomas'
tp213
a(S'1441809838'
S'Samar Ahmed'
tp214
a(S'692054672'
S'Sagar Chawla'
tp215
a(S'100001170247854'
S'Rollins Varghese'
tp216
a(S'1083047416'
S'Sharon Immanuel'
tp217
a(S'100000096331150'
S'Vinay Hirani'
tp218
a(S'703248311'
S'Akshat Kumar'
tp219
a(S'100000619095237'
S'Yogesh Chowdhary'
tp220
a(S'100003705533613'
S'Anusree Prakash'
tp221
a(S'100001016510331'
S'Ashish Lakra'
tp222
a(S'679769489'
S'Vishakha Dayal'
tp223
a(S'100001416268348'
S'Anish George'
tp224
a(S'100004366412846'
S'Atima Shahi'
tp225
a(S'632337796'
S'Clayton Gonzalez'
tp226
a(S'100002403431652'
S'Kopal Dixit'
tp227
a(S'100001686303399'
S'Anubhuti Dhingra'
tp228
a(S'1286723609'
S'Sahil Dogra'
tp229
a(S'731938893'
S'Chetan Machado'
tp230
a(S'100000487520943'
S'John Jacob'
tp231
a(S'778697009'
S'Rewant Katyal'
tp232
a(S'1845882355'
S'Srishti Mahey'
tp233
a(S'1715421761'
S'Pulkit Kohli'
tp234
a(S'100000035508399'
S'Kishore Hazarika'
tp235
a(S'100000602169185'
S"Stephen's Delhi"
tp236
a(S'100000951694525'
S'Danica Lyngdoh'
tp237
a(S'620490249'
S'Abhay DabLa Gautam'
tp238
a(S'1625845082'
S'Apoorv Chopra'
tp239
a(S'100000956284245'
S'Palak Nenwani'
tp240
a(S'100001800364756'
S'Moby Sara Zachariah'
tp241
a(S'603052065'
S'Kabir David'
tp242
a(S'100004552329354'
S'Ayushi Kathayat'
tp243
a(S'100000576084005'
S'Param Adiseshiah'
tp244
a(S'504147402'
S'Kern Dalton'
tp245
a(S'100005004638150'
S'Jose Philip'
tp246
a(S'1545597921'
S'Diksha Khurana'
tp247
a(S'100000039524621'
S'Shashwat Sahay'
tp248
a(S'1762937881'
S'Kartik Saini'
tp249
a(S'855190370'
S'Vishaka George'
tp250
a(S'100001407442556'
S'Siddhant Tejasvi Mishra'
tp251
a(S'736940680'
S'Arnold A Prasad'
tp252
a(S'100000261097106'
S'Alok Gupta'
tp253
a(S'100000749708907'
S'Radhika Sanghi'
tp254
a(S'1140818401'
S'Jeffin Mathew'
tp255
a(S'100000372821997'
S'Robin Mohan'
tp256
a(S'100001308930623'
S'Paromita Das'
tp257
a(S'538724609'
S'George Jacob'
tp258
a(S'100002721402090'
S'Praduman Bansal'
tp259
a(S'711385295'
S'Disha Varma'
tp260
a(S'100001520152160'
S'Sanjana Mahesh'
tp261
a(S'100002250315918'
S'Dheeraj Tripathy'
tp262
a(S'100001137403418'
S'Alisha Anthony'
tp263
a(S'100002329237310'
S'Piya Biswas'
tp264
a(S'1492598199'
S'Sasha Mongia'
tp265
a(S'100002422925425'
S'Sammu Joria'
tp266
a(S'100001594952296'
S'Lipika Singh'
tp267
a(S'100001033671126'
S'Aakash Wadhwa'
tp268
a(S'100000291475773'
S'Gerald Mathew'
tp269
a(S'661885249'
S'Atreyi Bhattacharya'
tp270
a(S'100000288738545'
S'Amit Singh Pruthi'
tp271
a(S'1274254662'
S'Deeksha Gupta'
tp272
a(S'1834397528'
S'Nitisha Mehra'
tp273
a(S'100000018028890'
S'Tushar Kumar'
tp274
a(S'100000142286738'
S'Aanchal Manuja'
tp275
a(S'100001712877253'
S'Abhi Shek'
tp276
a(S'1252797744'
S'Deeksha Porwal'
tp277
a(S'100000986911376'
S'Shebin Mathew'
tp278
a(S'1532292747'
S'Shovick Mitra'
tp279
a(S'100000629599551'
S'Amritansh Rattanmani'
tp280
a(S'100001008350890'
S'Sheena Sabharwal'
tp281
a(S'1734217268'
S'Rajvi Anand'
tp282
a(S'100000554157829'
S'Jilson John'
tp283
a(S'618570703'
S'Sarina Grewal'
tp284
a(S'100003107351848'
S'Vishal Tiwari'
tp285
a(S'100000950036928'
S'Sharad Pahuja'
tp286
a(S'1547602023'
S'Rahil Gupta'
tp287
a(S'1083757394'
S'Nadeem Afroz'
tp288
a(S'100000576462897'
S'Pratima Kullu'
tp289
a(S'100001556691719'
S'Aparna Singh'
tp290
a(S'1686068658'
S'Vivek Tunur Joseph Barla'
tp291
a(S'100001465840922'
S'Aveleon Giles Vaz'
tp292
a(S'802884254'
S'Steven Dey'
tp293
a(S'100002685278443'
S'Yatharth Shahrawat'
tp294
a(S'1199739481'
S'Kevin Robin'
tp295
a(S'100004146700288'
S'Aakash Gupta'
tp296
a(S'1421906050'
S'Viola Cesaretti'
tp297
a(S'100001155045599'
S'Suraaj Pathak'
tp298
a(S'100000183589138'
S'Jerrin Sam Mathews'
tp299
a(S'100001719992334'
S'Neethu Varghese'
tp300
a(S'100000008767700'
S'Sheeza Nisar'
tp301
a(S'100001997434762'
S'Abhishek Vidyarthy Singh'
tp302
a(S'100002660655416'
S'Prakhar Srivastava'
tp303
a(S'1520766525'
S'Megha Karel'
tp304
a(S'100001005685107'
S'Daman Preet'
tp305
a(S'100002552056287'
S'Piety Coutinho'
tp306
a(S'1667319324'
S'MiNu VaRghese'
tp307
a(S'100000570173043'
S'Elvin Joshy'
tp308
a(S'100003447626884'
S'Alexander Cyriac'
tp309
a(S'500999897'
S'Sajal Sharma'
tp310
a(S'100001684838466'
S'Abhijeet Lokesh Beck'
tp311
a(S'791105370'
S'Mehak Batla'
tp312
a(S'100002616355711'
S'Adam Khalid'
tp313
a(S'1593084569'
S'Sachu Sanil Chemmalakuzhy'
tp314
a(S'1622084697'
S'Sahil Ratan'
tp315
a(S'100003123914087'
S'Prateek Arora'
tp316
a(S'1776028080'
S'Anish Pillai'
tp317
a(S'100002949727622'
S'Aanchal Jacob'
tp318
a(S'100006419322686'
S'Akriti Singh'
tp319
a(S'100001286555135'
S'Manas Singh'
tp320
a(S'1733398305'
S'Merin Mary'
tp321
a(S'100000692632257'
S'Kamal Preet'
tp322
a(S'1062608487'
S'Puleen Rehan'
tp323
a(S'1202514867'
S'Kim Saini'
tp324
a(S'100003119675767'
S'Jasmeen Kaur'
tp325
a(S'687810272'
S'Padmini Paonam'
tp326
a(S'100003145374515'
S'Nitant Gupta'
tp327
a(S'100002022944631'
S'Seema Makhijani'
tp328
a(S'100001528262979'
S'Shivangi Raj'
tp329
a(S'1529251349'
S'Raghav Khanna'
tp330
a(S'680279753'
S'Tarun Dugar'
tp331
a(S'100000386678888'
S'Varun Dubey'
tp332
a(S'1219124050'
S'Shivangi Gera'
tp333
a(S'100000921170939'
S'Diksha Anand'
tp334
a(S'100002300465035'
S'Annuj B. Aniy'
tp335
a(S'100001637225077'
S'Nimish Tyagi'
tp336
a(S'874875723'
S'Arjun Chakravorty'
tp337
a(S'1799313485'
S'Jestine Jacob'
tp338
a(S'1503075526'
S'Gagandeep Singh'
tp339
a(S'100000893145517'
S'Sid Friedman'
tp340
a(S'1288507466'
S'Marica Minnucci'
tp341
a(S'1246484287'
S'Manan Batra'
tp342
a(S'100001560919859'
S'Shaurya Khanna'
tp343
a(S'1470489697'
S'Riddhiman Roy'
tp344
a(S'1139269212'
S'Rachit Kapoor'
tp345
a(S'100000336523979'
S'Nikita Aswal'
tp346
a(S'1660476126'
S'Garima Khanna'
tp347
a(S'566778114'
S'Devangana Tikku'
tp348
a(S'1279657061'
S'Priyanka Sharma'
tp349
a(S'681554205'
S'Taniya Aggarwal'
tp350
a(S'1576605903'
S'Chitman Singh'
tp351
a(S'100000011941536'
S'Nitika Kriplani'
tp352
a(S'100001578402957'
S'Aaliya Khursheed'
tp353
a(S'1023785471'
S'Rupa Marwah'
tp354
a(S'100001098636185'
S'Ashbel Kurian'
tp355
a(S'100001218335750'
S'Jennifer Kullu'
tp356
a(S'1282352664'
S'Mayank Dandriyal'
tp357
a(S'1381045362'
S'Ishita Jalan'
tp358
a(S'100001564466418'
S'Mary Chowdhary'
tp359
a(S'1484360370'
S'Melanie Koicha'
tp360
a(S'100000315325578'
S'Abhilash Varghese'
tp361
a(S'100003702069436'
S'Sudhanshu Mewati'
tp362
a(S'100000557702983'
S'Nishtha Madnani'
tp363
a(S'100001112671743'
S'Raymond Amal'
tp364
a(S'618581715'
S'Ananya Diwa'
tp365
a(S'1216803639'
S'Jasveen Kaur'
tp366
a(S'100001624386690'
S'Devansh Malik'
tp367
a(S'696884947'
S'Elisa Lindfors Rossi'
tp368
a(S'100005459730487'
S'Snigdha Biswas'
tp369
a(S'1348296171'
S'Tanya Sharma'
tp370
a(S'100001150928759'
S'Merlyn Fernandes'
tp371
a(S'1624958925'
S'Aymen Kadhum'
tp372
a(S'100000619924045'
S'Sonakshi Chhabra'
tp373
a(S'741788901'
S'Dhruv Sethi'
tp374
a(S'100004408714267'
S'Andrea Cardoza'
tp375
a(S'100003958931023'
S'Siddhartha Anand'
tp376
a(S'1206602489'
S'Rahul Davis'
tp377
a(S'659870663'
S'Ramanan Venkatraman'
tp378
a(S'1476648320'
S'Sanya Dhillon'
tp379
a(S'1129119922'
S'Ashwin Lingaiah'
tp380
a(S'100008149178524'
S'Abhay Abraham'
tp381
a(S'100000934338364'
S'Jordan Kinchum Tshering Namchu'
tp382
a(S'100001762820136'
S'Deepak Rox'
tp383
a(S'100001895036527'
S'Shyamolie Shandley'
tp384
a(S'735429244'
S'Mohit George'
tp385
a(S'100000000996377'
S'Arpit Dudeja'
tp386
a(S'100000168621125'
S'Paveet Benson Thethi'
tp387
a(S'100001540220590'
S'Prashant Singh Bisht'
tp388
a(S'100000878089783'
S'Amrit Das'
tp389
a(S'1231532176'
S'Harshita Jamba'
tp390
a(S'1834278736'
S'Lawrence Cardoza'
tp391
a(S'100006788885184'
S'Radhika Karel'
tp392
a(S'100001063891756'
S'Anshul Jindal'
tp393
a(S'714636082'
S'Rahul Kuruvilla Mathew'
tp394
a(S'1348431623'
S'Anjali Thomas'
tp395
a(S'100004183963689'
S'Hafsa Khan'
tp396
a(S'100002672389217'
S'Neha Malhotra'
tp397
a(S'661575350'
S'Nikhil David'
tp398
a(S'1574178327'
S'Puneet Shankar'
tp399
a(S'100001201390150'
S'Jofil Joseph'
tp400
a(S'1555957226'
S'Cheryl Grover'
tp401
a(S'100001702407005'
S'Kunal Bakshi'
tp402
a(S'100001457562370'
S'Gaikhamlung Gangmei'
tp403
a(S'100002071127201'
S'Rahul Paul'
tp404
a(S'1059980625'
S'Kanav Nangia'
tp405
a(S'1055924978'
S'Akshat Taneja'
tp406
a(S'100002941628325'
S'Wilson Skaria'
tp407
a(S'100008114144173'
S'Mehak Verma'
tp408
a(S'100000873898496'
S'Revant Gupta'
tp409
a(S'1005879556'
S'Ammar Ahmad'
tp410
a(S'100002453104028'
S'Franklin Dass'
tp411
a(S'100003607076956'
S'Abhijeet Mata'
tp412
a(S'1305074575'
S'Vivek Varughese'
tp413
a(S'556130832'
S'Suhasini Krishnan'
tp414
a(S'100000608959509'
S'Ambika Rattanmani'
tp415
a(S'100001296878246'
S'Beatrice Maria Miranda'
tp416
a(S'100001785521271'
S'David Joy'
tp417
a(S'100000412758146'
S'Yash Kishnani'
tp418
a(S'100002203045742'
S'Mahek Agarwal'
tp419
a(S'100000955126078'
S'Leonne Castellas'
tp420
a(S'100000156361200'
S'Vaibhav Chaudhary'
tp421
a(S'100000967696935'
S'Liza George'
tp422
a(S'100000748719175'
S'Mansij Madaan'
tp423
a(S'100000289552882'
S'Akshay Saini'
tp424
a(S'100000161061114'
S'Varun Bhardwaj'
tp425
a(S'100006687091455'
S'Amrinder Singh'
tp426
a(S'1127397533'
S'Adele Xalxo'
tp427
a(S'100000003806988'
S'Mebil Issac'
tp428
a(S'100001031821572'
S'Jatin Sharma'
tp429
a(S'606917940'
S'Gavin George'
tp430
a(S'100004041930145'
S'Sunny Rana'
tp431
a(S'100001465738488'
S'Derick Dsouza'
tp432
a(S'1311397643'
S'Davin Paul'
tp433
a(S'1453922082'
S'Vaibhav Chawla'
tp434
a(S'100001039963815'
S'Mehul Saini'
tp435
a(S'100000471015772'
S'Cidloy Furtado'
tp436
a(S'1808738222'
S'Aditya Mahajan'
tp437
a(S'100000539656872'
S'Aruna Jalan'
tp438
a(S'100000313073077'
S'Khalid Matto'
tp439
a(S'1518716109'
S'Priya Bhatia'
tp440
a(S'1484880520'
S"R\\u00e1ul D'souza"
tp441
a(S'100003234882226'
S'Kavita Nanda'
tp442
a(S'100001182853452'
S'Aditya Khan'
tp443
a(S'100001236538906'
S'Akash Singh'
tp444
a(S'100001246623515'
S'Cynthia Sharma'
tp445
a(S'511220635'
S'Anagha Vasudevan'
tp446
a(S'100000355444686'
S'Noel Mathiulungbo Chawang'
tp447
a(S'100005774071247'
S'Vrinda Chugh'
tp448
a(S'100001621601863'
S'KeShav ShaRma'
tp449
a(S'735339898'
S'Charu Gupta'
tp450
a(S'1739908648'
S'Babush Santana'
tp451
a(S'100005707712307'
S'Sonu Chhillar'
tp452
a(S'100001076478198'
S'Adarsh Thakur'
tp453
a(S'598075528'
S'Anita Joseph'
tp454
a(S'100002079122483'
S'Jubil Chirvallel Josan'
tp455
a(S'540740258'
S'Leizelle Dean'
tp456
a(S'1797312931'
S'Kriti Wahie'
tp457
a(S'1087388173'
S'Khushboo Jaswani'
tp458
a(S'100000119184134'
S'Haneet Singh'
tp459
a(S'100001884828618'
S'Kunal Kohli'
tp460
a(S'100003684046704'
S'Lavanya Verma'
tp461
a(S'100000106600174'
S'Lawrence Simte'
tp462
a(S'1746683619'
S'Ravi Kant'
tp463
a(S'726763486'
S'Renin Raphael'
tp464
a(S'100001731543332'
S'Shreya Kuttickal'
tp465
a(S'100001931873618'
S'Madhulika Sharma'
tp466
a(S'100000523728800'
S'Piyush Jain'
tp467
a(S'1558323769'
S'Nayantara Majumder'
tp468
a(S'1007247562'
S'Prateek Agrawal'
tp469
a(S'100001141466602'
S'Robinson Bernard'
tp470
a(S'100002595166704'
S'James Willson'
tp471
a(S'1415761043'
S'Akshay Arora'
tp472
a(S'1237968492'
S'Tushar Mondal'
tp473
a(S'100004851461082'
S'Shashank Bhardwaj'
tp474
a(S'100000192001459'
S'Kevin Liang'
tp475
a(S'1800482827'
S'Manik Chhabra'
tp476
a(S'1372397143'
S'Shiivangi Tanwar'
tp477
a(S'100005581471587'
S'Mubeen Akhtar'
tp478
a(S'1062942034'
S'Kesav Krishnan'
tp479
a(S'1300642371'
S'Reva Moghe'
tp480
a(S'100002107756900'
S'Atul Vinu'
tp481
a(S'1472075522'
S'Shatakshi Sharma'
tp482
a(S'1004758536'
S'Jerrin John'
tp483
a(S'100000059475043'
S'Zenab Khan'
tp484
a(S'100002764240360'
S'Syed Ali'
tp485
a(S'1073768612'
S'Luce Liberatori'
tp486
a(S'1196362850'
S'Mahima Jain'
tp487
a(S'1828663672'
S'Daveed Paul'
tp488
a(S'601914458'
S'Samira Bose'
tp489
a(S'1278480858'
S'Vaibhav Ahuja'
tp490
a(S'100000572053050'
S'Megellan Fernandes'
tp491
a(S'100001823539533'
S'Sakshi Sharma'
tp492
a(S'100002715478166'
S'Shreya Seth'
tp493
a(S'100003211352818'
p494
S'Noise Assembly Jampad'
tp495
a(S'100000527865716'
S'Deepshikha Verma'
tp496
a(S'1702410396'
S'Riya Arora'
tp497
a(S'100001546127067'
S'Riya Dev'
tp498
a(S'100003747411504'
S'Jinia Islam'
tp499
a(S'100000951946470'
S'Lakshay Chaudhary'
tp500
a(S'620292574'
S'Kriti Malhotra'
tp501
a(S'1645640382'
p502
S'Arjoonn Sharma'
tp503
a(S'1001728347'
S'Devkrit Vasisht'
tp504
a(S'100004124051658'
S'Kritika Negi'
tp505
a(S'100000414624750'
S'Twinkle Yadav'
tp506
a(S'726039049'
S'Priya Mukhi'
tp507
a(S'753608209'
S'Cybill Maria Sabu'
tp508
a(S'100005531979202'
S'Raghav Batra'
tp509
a(S'541040265'
S'Aaron Dan Fernandes'
tp510
a(S'1519350525'
S'Angel Vij'
tp511
a(S'652510019'
S'Siddharth Shastri'
tp512
a(S'100004074254015'
S'Shashank Srivastava'
tp513
a(S'100000991400597'
S'Mukul Miglani'
tp514
a(S'584947968'
S'Bimal Tigga'
tp515
a(S'681649724'
S'Umang Gureja'
tp516
a(S'100006134222374'
S'Nikhil Nicks'
tp517
a(S'100000827254430'
S'Sakshi Gupta'
tp518
a(S'633741505'
S'Agnes Lee'
tp519
a(S'100000219641128'
S'Jibin George'
tp520
a(S'100001106755856'
S'Mark Vivian'
tp521
a(S'100001123810249'
S'Ritika Kishnani'
tp522
a(S'100000116775729'
S'Ayushi Varma'
tp523
a(S'100003075393900'
S'Himanshu Nautiyal'
tp524
a(S'100003690827667'
S'Sheron Merin Mathew'
tp525
a(S'100000911510757'
S'Smridh Mehndiratta'
tp526
a(S'1048768747'
S'Hanshal Nautiyal'
tp527
a(S'651034222'
S'Rohit Singh'
tp528
a(S'100001880299372'
S'Cincy Jose'
tp529
a(S'654246070'
p530
S'Arsh Sharma'
tp531
a(S'100000248195156'
S'Avikal Goyal'
tp532
a(S'1094085962'
S'Saad Khalid'
tp533
a(S'100002482171082'
S'Merushree Kharbanda'
tp534
a(S'698541538'
S'Tini Thomas'
tp535
a(S'100000501703499'
S'Gaurang Ram Sivaramakrishnan'
tp536
a(S'565166260'
S'Suyash Gabriel'
tp537
a(S'1440235933'
S'Rachit Gupta'
tp538
a(S'1790164271'
S'Syed Faizan Bukhari'
tp539
a(S'100000938349232'
S'Paraj Primlani'
tp540
a(S'100000033838518'
S'Raminder Singh'
tp541
a(S'1770434446'
S'Leon A. Tessil'
tp542
a(S'100000742543413'
S'Parush Kumar Arora'
tp543
a(S'1057586923'
S'Mansatkar Singh'
tp544
a(S'1100565641'
S'Rahul Sharma'
tp545
a(S'100000603066621'
S'Radhikha Murthy'
tp546
a(S'100002200782195'
S'Priya Arora'
tp547
a(S'100001063677102'
S'Sukrit Joshi'
tp548
a(S'1502530256'
S'Paran Sharma'
tp549
a(S'713431373'
S'Baljeet Singh'
tp550
a(S'100002204641435'
S'Gilbert Dungdung'
tp551
a(S'100001684834074'
S'Payal Sharma'
tp552
a(S'100000208417665'
S'Zachariah Mathew Abraham'
tp553
a(S'100001734947099'
S'Anish Francis'
tp554
a(S'1043232088'
S'Kavya Bajaj'
tp555
a(S'1795955041'
S'Anjali George'
tp556
a(S'653600498'
S'Bhamini Lakshminarayan'
tp557
a(S'100002368539247'
S'Riya Banerjee'
tp558
a(S'1022878700'
S'Merin John'
tp559
a(S'512450761'
S'Samson Radhika'
tp560
a(S'599222186'
S'Sorabh Kochhar'
tp561
a(S'100001059912619'
S'Raja Pandit'
tp562
a(S'1561243814'
S'Siddhant Sud'
tp563
a(S'100001702435496'
S'Rahul Mehra'
tp564
a(S'100003670816812'
S'Swati Nigam'
tp565
a(S'100000206008717'
S'Tiara Joseph'
tp566
a(S'100001512045695'
S'Upasna Garg'
tp567
a(S'100001107452309'
S'Ashish Joseph'
tp568
a(S'100001166253152'
S'SmriTi VeRonica'
tp569
a(S'1583205485'
S'Vanshika Oberoi'
tp570
a(S'100003722840865'
S'Yashita Bhopal'
tp571
a(S'100001833169578'
S'Nisha Joseph'
tp572
a(S'653108456'
S'Tarana Marwah'
tp573
a(S'100006424152083'
S'Sahil Thakur'
tp574
a(S'1636386248'
S'Shourya Awasthi'
tp575
a(S'100000461733508'
S'Mitchelle Wilson'
tp576
a(S'100000669892431'
S'Ishani Sharma'
tp577
a(S'100004738898618'
S'Christy M Peter'
tp578
a(S'100001496123410'
S'Varun Shukla'
tp579
a(S'100001835323539'
S'Nandini Singha'
tp580
a(S'100000014271125'
S'Ann Victor'
tp581
a(S'100001390675767'
S'Amrita Kaur'
tp582
a(S'1039691237'
S'Akanksha Sharma'
tp583
a(S'100001350640490'
S'Vikas Sen'
tp584
a(S'1019399767'
S'Zamin Sheikh'
tp585
a(S'100001881817259'
S'Olivia Michael'
tp586
a(S'100000482066072'
S'Ketan Singal'
tp587
a(S'1324383740'
S'Rajat Kalra'
tp588
a(S'100000067600638'
S'Mihir Kumar'
tp589
a(S'784478190'
S'Ruchika Gupta'
tp590
a(S'100000733129950'
S'Christeena Arpan Stephen'
tp591
a(S'1456221849'
S'Gagan Dhanjal'
tp592
a(S'100000206679566'
S'Munazza Ansar'
tp593
a(S'100000805958190'
S'Mayank Thapliyal'
tp594
a(S'1639011516'
S'Hanish Kukreja'
tp595
a(S'100000099117284'
S'Gunpreet Caur'
tp596
a(S'100000355675957'
S'Shaivika Chandekar'
tp597
a(S'100008087310696'
S'Amaan Ullah Turkei'
tp598
a(S'675429078'
S'Shubham Dewan'
tp599
a(S'100003128060722'
S'Manvi Singh'
tp600
a(S'100000548578896'
S'AmanPreet Singh'
tp601
a(S'585392450'
S'Ashima Upadhyay'
tp602
a(S'100001507188129'
S'Mariya Mathews'
tp603
a(S'100000525176129'
S'Taranpreet Lamba'
tp604
a(S'1837492658'
S'Mukund Marodia'
tp605
a(S'1275166201'
S'Diletta Luminari'
tp606
a(S'100002176517944'
S'Jijo John'
tp607
a(S'100004398210212'
S'Gunjan Arora'
tp608
a(S'1812476927'
S'Akhil Anto'
tp609
a(S'100000709839080'
S'Raunak Sengupta'
tp610
a(S'1292282547'
S'Abhishek Solomon'
tp611
a(S'100000068301408'
S'Justin Michael Baxla'
tp612
a(S'540105802'
S'Deanne Fernandes'
tp613
a(S'1351027386'
S'Leedyn Dean'
tp614
a(S'100001261850998'
S'Sagar Singh'
tp615
a(S'100002195471439'
S'Justin Gabriel'
tp616
a(S'1214229896'
S'Nicholas John'
tp617
a(S'1512294769'
S'Vipul Verma'
tp618
a(S'1251488562'
S'Stanly Toppo'
tp619
a(S'100000032534860'
S'Rocking Manav'
tp620
a(S'1268843608'
S'Anurag Menon'
tp621
a(S'1651094614'
S'James Peter Raj'
tp622
a(S'1172027929'
p623
S'Mayank Manocha'
tp624
a(S'1359170568'
S'Rahul Naidu'
tp625
a(S'100001046956175'
S'Parag Duggal'
tp626
a(S'1181793524'
S'Kavya Rana'
tp627
a(S'100007864898271'
S'Sakshi Douglas'
tp628
a(S'100003860119565'
S'Taylor Holmes'
tp629
a(S'100001098725244'
S'Norman Almeida'
tp630
a(S'1793055696'
S'Shwetabh Mishra'
tp631
a(S'100000002985718'
S'Anjlica Angelic Massey'
tp632
a(S'100004236704238'
S'Pragati Mishra'
tp633
a(S'100000321032144'
S'Rohan Nayar'
tp634
a(S'100002515628024'
S'Riya Martin'
tp635
a(S'715119758'
S'Shruti Paul'
tp636
a(S'511483794'
S'Ahona Palchoudhuri'
tp637
a(S'100001660056513'
S'Chahat Dhupar'
tp638
a(S'100000778549624'
S'Kevin Mathew'
tp639
a(S'100002371642093'
S'Apoorv Banerjee'
tp640
a(S'100000582608907'
S'Swapnil Adhikari'
tp641
a(S'549570547'
S'Takar Nabam'
tp642
a(S'1027856097'
S'Shasti Jain'
tp643
a(S'100000288171666'
S'Aarav Duggal'
tp644
a(S'714330103'
S"Joe Seph'"
tp645
a(S'100002540815242'
S'Deepak Goel'
tp646
a(S'100000016471193'
S'Shanky Steev Massey'
tp647
a(S'100000773089513'
S'Rohan Gautam'
tp648
a(S'100001018548367'
S'Yatin Kumar'
tp649
a(S'100001391474986'
S'Vasu Chanana'
tp650
a(S'542727162'
S'Giorgia Filippucci'
tp651
a(S'100000366663663'
S'Ankita Mathew'
tp652
a(S'1007044340'
S'Chinu Aka-himanshu'
tp653
a(S'1018857597'
S'Rajat Philip'
tp654
a(S'1694207982'
S'Dhruv Luthra'
tp655
a(S'1244581395'
S'Nishtha Bhatnagar'
tp656
a(S'1059110378'
S'Nidhaanjit Jain'
tp657
a(S'1197974316'
S'Rohan Singh'
tp658
a(S'100001718132029'
S'Vipin Cribz Dahiya'
tp659
a(S'100000427513961'
S'Mukul FltCpt'
tp660
a(S'100002619726850'
S'Aastha Rastogi'
tp661
a(S'577829125'
S'Sinit Thomas'
tp662
a(S'1216203075'
S'Aman Gandhi'
tp663
a(S'100000703776914'
S'Anish Sharma'
tp664
a(S'100001387039364'
S'Tom Thomas'
tp665
a(S'100001339920801'
S'Guneet Singh'
tp666
a(S'557905418'
S'Chhayankdhar Singh Rathore'
tp667
a(S'1314259218'
S'Giulia Andreoli'
tp668
a(S'1038364975'
S'Radhika Batra'
tp669
a(S'1131855515'
S'Daryll Tom'
tp670
a(S'1088465154'
S'Jerryn Thomas Cherian'
tp671
a(S'702478432'
S'Dixon Robert'
tp672
a(S'1691842645'
S'Brigit Jose'
tp673
a(S'100004209849885'
S'Rachael Das'
tp674
a(S'1794240755'
S'Varun Kumar'
tp675
a(S'100002036114779'
S'Bharat Singh'
tp676
a(S'1674307345'
S'Niyati Khanna'
tp677
a(S'100000961386365'
S'Rose Sebastian'
tp678
a(S'725147107'
S'Jatin Ralhan'
tp679
a(S'100001597160886'
S'Trishla Chadha'
tp680
a(S'1197859244'
S'Shebin Mathew'
tp681
a(S'590981926'
S'Aman Roy'
tp682
a(S'100002398151620'
S'Ridhi Chanda'
tp683
a(S'100002004047120'
S'Jennifer Kerketta'
tp684
a(S'1177870405'
S'Shradha Lama'
tp685
a(S'100001331187056'
S'Sweekriti Bhatia'
tp686
a(S'100004713248244'
S'Lun Pyon'
tp687
a(S'100000624376082'
S'Seemi Saleem'
tp688
a(S'100000542485977'
S'Tanmay Thulkar'
tp689
a(S'680451540'
S'Abhilasha Sinha'
tp690
a(S'624207424'
S'Sahil Dhingra'
tp691
a(S'100000147333410'
S'Sadaf Azam'
tp692
a(S'100003893003192'
S'Tashu Johnson'
tp693
a(S'100000232024916'
S'Namita Gupta'
tp694
a(S'753547416'
S'Himaki Kumari'
tp695
a(S'508243994'
S'Yashi Vikram'
tp696
a(S'1494180160'
S'Ritin Yesudas'
tp697
a(S'1662379230'
S'Sarthak Anand'
tp698
a(S'100005758650191'
S'Wilfred Richard'
tp699
a(S'1054825633'
S'Ashwin Ramanathan'
tp700
a(S'100008109815860'
S'Ab George'
tp701
a(S'664506012'
S'Ritwik De'
tp702
a(S'1077363136'
S'Adheer Dixit'
tp703
a(S'100003221803010'
S'Rebecca William'
tp704
a(S'100000791148021'
S'Kirtana Sai'
tp705
a(S'1076655975'
S'Sahil Chopraa'
tp706
a(S'100003663829100'
S'Divya Kundu'
tp707
a(S'100000222452085'
S'Riny Alex'
tp708
a(S'100001714948093'
S'Zunaira Khan'
tp709
a(S'688740283'
S'Namita Kuttickal'
tp710
a(S'100001782337124'
S'Ashwin Mathew'
tp711
a(S'1396089732'
S'Deeptesh Shukla'
tp712
a(S'100000551846210'
S'Andre Sethi'
tp713
a(S'100001657625780'
S'Dhairya Batla'
tp714
a(S'100000205868198'
S'Kunal Bansal'
tp715
a(S'100001098186822'
S'Leslee Kerketta'
tp716
a(S'655742140'
S'Kritika Bhatia'
tp717
a(S'100000604281322'
S'Anshdeep Singh Bindra'
tp718
a(S'576194822'
S'Sugandha Sharma'
tp719
a(S'100003116131621'
S'M.a. Natiq'
tp720
a(S'100001095780135'
S'Aman Kumar'
tp721
a(S'100000250039725'
S'Bonny Benny'
tp722
a(S'100000527741502'
S'Itish Makhijani'
tp723
a(S'1679410831'
S'Ramnit Oberoi'
tp724
a(S'1184958057'
S'Nikhil Kumar'
tp725
a(S'1849283612'
S'Clint S James'
tp726
a(S'100002457653966'
S'Dhananjay Bhardwaj'
tp727
a(S'100000254465189'
S'Madhav Goyal'
tp728
a(S'563931672'
S'Tommaso Galletta'
tp729
a(S'599779524'
S'Ammar Ahmad Ansari'
tp730
a(S'1258639115'
S'Robin Trakroo'
tp731
a(S'100003604333752'
S'Ayushi Yadav'
tp732
a(S'1238120802'
S'Bhavna Gupta'
tp733
a(S'752652789'
S'Stanley Kozhichira'
tp734
a(S'695855925'
S'Kopal Khanna'
tp735
a(S'584002083'
S'Manjot Munjal'
tp736
a(S'100000351300942'
S'Archisha Satyarthi'
tp737
a(S'1311584771'
S'Shiva Sitaraman'
tp738
a(S'100000482644379'
S'Rohan Kumar'
tp739
a(S'1424623141'
S'Chelsea Dean'
tp740
a(S'1291119440'
S'Jasmine Kaur'
tp741
a(S'1451991575'
S'Ashwin Nayar'
tp742
a(S'1359753569'
S'Sanjoli Gupta'
tp743
a(S'100001037227177'
S'Julian Benny'
tp744
a(S'100000597957617'
S'Bryan Rony Sharma'
tp745
a(S'543832536'
S'Varun Gupta'
tp746
a(S'623788938'
S'Rashmi Bhuwan'
tp747
a(S'100005652481765'
S'Rajat Wahab'
tp748
a(S'100005005053790'
S'Aditi Gupta'
tp749
a(S'100000508365837'
S'Ayush Roy'
tp750
a(S'100004719004275'
S'Ananya Dhar Choudhury'
tp751
a(S'597706202'
S'Nimisha Trehan'
tp752
a(S'1103001687'
S'Ajit Deshpande'
tp753
a(S'100000948219216'
S'Vaishali Soni'
tp754
a(S'100001318460991'
S'Deepansh Manchanda'
tp755
a(S'793435180'
S'Atika Lamba'
tp756
a(S'100003909384065'
S'Yuvraj Sabharwal'
tp757
a(S'100000646690464'
S'Deepto Mozumdar'
tp758
a(S'588660796'
S'Ashish George'
tp759
a(S'1712820885'
S'Anoushka Chopra'
tp760
a(S'100003595660264'
S'Sahil Chawla'
tp761
a(S'1794281695'
S'Sonaksh Kamra'
tp762
a(S'100001278211630'
S'Himanshu Saihji'
tp763
a(S'809487411'
S'Rebecca Sarah John'
tp764
a(S'1782917734'
S'Neetu Sebastian'
tp765
a(S'100000175902299'
S'Alen Varghese'
tp766
a(S'100002270411937'
S'Rajeev Ghotar'
tp767
a(S'100001277424649'
S'Pranshu Grover'
tp768
a(S'100000101343328'
S'Rishabh Mittal'
tp769
a(S'100003369895632'
S'Riya Kiro'
tp770
a(S'100000597666815'
S'Bharat Sadhwani'
tp771
a(S'100000718185540'
S'Bhumika Arora'
tp772
a(S'1198023097'
S'Kartik Verma'
tp773
a(S'100000037884117'
S'Ansu C Joy'
tp774
a(S'100000433329846'
S'Melvin Das'
tp775
a(S'100002292094050'
S'Anjali Goel'
tp776
a(S'100000722529762'
S'Tanya Sharma'
tp777
a(S'711489282'
S'Pearl Annie'
tp778
a(S'100000309014717'
S'Adityan Nair'
tp779
a(S'1381257107'
S'Sharon Mitra'
tp780
a(S'100004122223178'
S'Rahul Dev'
tp781
a(S'893340654'
S'Sijit Thomas'
tp782
a(S'1010125131'
S'Harman Singh'
tp783
a(S'100001074846510'
S'Anuj Bharadwaj'
tp784
a(S'1565900718'
S'Martyn Solomon'
tp785
a(S'100001592157986'
S'Lakshay Khosla'
tp786
a(S'792788451'
S'Prince Anthony'
tp787
a(S'100002708238922'
S'Tripti Khurana'
tp788
a(S'100001127761907'
S'Japneet Malhotra'
tp789
a(S'100001438749376'
S'Vasudha Agnihotri'
tp790
a(S'1449547944'
S'Anisha Angelina Victor'
tp791
a(S'1843448522'
S'Gautam Gupta'
tp792
a(S'1312114163'
S'Sayuj Bakshi'
tp793
a(S'659332954'
S'Elvis D Anthony'
tp794
a(S'667286699'
S'Sahil Thomas Massey'
tp795
a(S'1494295612'
S'Jilshy Varghese'
tp796
a(S'100000864363770'
S'Anish George'
tp797
a(S'100001143402253'
S'Akshit Xalxo'
tp798
a(S'1279992634'
S'Arianna Romano'
tp799
a(S'100002970469384'
S'Alfred Gomes'
tp800
a(S'100003827632663'
S'Smithin Sony'
tp801
a(S'100001422910479'
S'Ashish Mamgain'
tp802
a(S'1665371189'
S'Nishtha Pathela'
tp803
a(S'1185097032'
S'Siddhartho Chandra Bondhopadhaya'
tp804
a(S'1242598867'
S'Marina Basumatary'
tp805
a(S'100001988937930'
S'Chandrima Attri'
tp806
a(S'1172441946'
S'Aishwarya Mishra'
tp807
a(S'665075999'
S'Nirupan Sinha'
tp808
a(S'100001308060948'
S'Prithvi Singh'
tp809
a(S'100000415222668'
S'PaRth Arora'
tp810
a(S'100007543112177'
S'Vasundhara Seth'
tp811
a(S'1202228571'
S'Aatish Ra'
tp812
a(S'100003523872302'
S'Nikita Toppo'
tp813
a(S'1391114392'
S'Rohan Paul'
tp814
a(S'100004295670943'
S'Priya Mani'
tp815
a(S'1644410329'
S'Jemmy Sunny'
tp816
a(S'100000944932302'
S'Nitesh Kumar'
tp817
a(S'100000923686466'
S'Akanksha Gautam'
tp818
a(S'1527495592'
S'Eleonora Imbriani'
tp819
a(S'1231309866'
S'Aldo James Vaz'
tp820
a(S'100001170576371'
S'Ankit Raj'
tp821
a(S'661323959'
S'Saba Johnston'
tp822
a(S'510761072'
S'Abish Mathew'
tp823
a(S'511442340'
S'Akshay Johar'
tp824
a(S'100000132810535'
S'Rose Bara'
tp825
a(S'1099043762'
S'Minal Kumar'
tp826
a(S'1312058049'
S'Bhavika Malhotra'
tp827
a(S'1815665089'
S'Ripu Daman Sanger'
tp828
a(S'100002335119745'
S'Rishabh Rawat'
tp829
a(S'100002181132842'
S'Vaanya Kawatra'
tp830
a(S'1668459153'
S'Roy Joseph'
tp831
a(S'100000010498308'
S'Saif Rashid'
tp832
a(S'100007497875546'
S'Pushkar Khosla'
tp833
a(S'1475402400'
S'Manav Sharma'
tp834
a(S'100001132678855'
S'Rashmi Kapur'
tp835
a(S'100001095133061'
S'Isaac George Varghese'
tp836
a(S'100000196354981'
S'Aashray Chadha'
tp837
a(S'1321244392'
S'Aranya Sahay'
tp838
a(S'100000521967527'
S'Ruby Bara'
tp839
a(S'100001429275659'
S'Kashish Kumar'
tp840
a(S'1369264392'
S'Ankesh Masih Joy'
tp841
a(S'1520707696'
S'Somya Rustagi'
tp842
a(S'100000921872187'
S'Deep Bhattacharyya'
tp843
a(S'1725443558'
S'Piyush Kumar'
tp844
a(S'1494529814'
S'Ayush Yesudas'
tp845
a(S'1426652381'
S'Anmol Singh Kular'
tp846
a(S'100000122685325'
S'Steve Gerry'
tp847
a(S'100004644395125'
S'Kaur Simar'
tp848
a(S'100001771849924'
S'Icym Delhi Yuvodaya'
tp849
a(S'100004989547636'
S'Aanchal Tiwari'
tp850
a(S'100000323397954'
S'Anu Alex'
tp851
a(S'509822471'
S'Anahita Dawar'
tp852
a(S'100005964150123'
S'Shubhit Bajaj'
tp853
a(S'100000261455932'
S'Jubin Abraham Mathews'
tp854
a(S'516375196'
S'Marcos Paulo Mendon\\u00e7a Gomes'
tp855
a(S'100000069098863'
S'Cyril Thomas'
tp856
a(S'100002534708476'
S'Akhtar Agg'
tp857
a(S'1610187425'
S'Grusha Grace Victor'
tp858
a(S'617260155'
S'Saniya Bijlani'
tp859
a(S'651246697'
S'Brahmpal Singh'
tp860
a(S'1015799158'
S'Karan Kheterpal'
tp861
a(S'1805554939'
S'Priyanshu Padaya'
tp862
a(S'100000138949914'
S'Darwin Leonard'
tp863
a(S'100000348961304'
S'Aditya Vikram Gupta'
tp864
a(S'100002867088137'
S'Manish Sharma'
tp865
a(S'100001480494423'
S'Robin John'
tp866
a(S'100003775470137'
S'Gaurish Kant Shukla'
tp867
a(S'1145362014'
S'Ritika Kapoor'
tp868
a(S'1461967391'
S'Garvita Sethi'
tp869
a(S'1477902659'
S'Radhika Vinayak'
tp870
a(S'100000462738327'
S'Krishan Bishnoi'
tp871
a(S'1312204917'
S'Ribhav Pande'
tp872
a(S'1818264478'
S'Brinda Kalra'
tp873
a(S'100000841664806'
S'Varun Mishra'
tp874
a(S'100001975137819'
S'Sahil Peter'
tp875
a(S'1675788745'
S'Saurabh Bhowmick'
tp876
a(S'100000616677972'
S'Seeba Michael'
tp877
a(S'1141427889'
S'Dilpreet Singh \\u0a74'
tp878
a(S'100001606973102'
S'Grace Sam'
tp879
a(S'100002416702386'
S'Margaret Mary'
tp880
a(S'610631280'
S'Ekta Lall'
tp881
a(S'1805106232'
S'John Paul'
tp882
a(S'1316109037'
S'Christine Dessa'
tp883
a(S'100001641160459'
S'Sudhanshu Singh Panwar'
tp884
a(S'564656812'
S'Nicola Ambrosio'
tp885
a(S'1843970322'
S'Directer Dhruv'
tp886
a(S'100002011917407'
S'Huzaifa Iftikhar'
tp887
a(S'100000498334318'
S'Sana Khan'
tp888
a(S'100001395112798'
S'Liza Em John'
tp889
a(S'100002507078563'
S'Palak Agarwal'
tp890
a(S'100001395349479'
S'Robin John'
tp891
a(S'100001668105477'
S'Sandhya Marwah'
tp892
a(S'100000939781178'
S'Shaleen Derek George'
tp893
a(S'100001230851788'
S'Khyati Bhatnagar'
tp894
a(S'1231513928'
S'Smriti Paul'
tp895
a(S'770556982'
S'Agnese Virgilio'
tp896
a(S'100007347150448'
S'Mehak Verma'
tp897
a(S'1579632176'
S'Mallika Arora'
tp898
a(S'100000975905904'
S'Sagar Sharma'
tp899
a(S'100000491199662'
S'Aarushi Walia'
tp900
a(S'722486609'
S'Shourya Malhotra'
tp901
a(S'100006484982593'
S'Ananya Mishra'
tp902
a(S'100000987444617'
S'Rannvijay Singh'
tp903
a(S'606543943'
S'Christie Maria James'
tp904
a(S'654888835'
S'Saurab Immanuel'
tp905
a(S'1774795667'
S'Kadam Kansara'
tp906
a(S'100001822538376'
S'Saiansh Sharma'
tp907
a(S'100001686468590'
S'Ripudaman Sanger'
tp908
a(S'100000836100942'
S'Dipti Roy'
tp909
a(S'100001244516528'
S'Akshay Bhardwaj'
tp910
a(S'1654360423'
S'Aman Mehta'
tp911
a(S'584464859'
S'Latika Bal'
tp912
a(S'100004714381816'
S'Saiyam Aggarwal'
tp913
a(S'1221174574'
S'Sunny Daniel'
tp914
a(S'693368248'
p915
S'Tanay Padhi'
tp916
a(S'1508080112'
S"Sean D'souza"
tp917
a(S'1808066903'
S'Kunal Sadh'
tp918
a(S'511550253'
S'Ayesha Adlakha'
tp919
a(S'1811679154'
S'Ajay Abraham'
tp920
a(S'100001848885402'
S'Sebin Joseph'
tp921
a(S'1479846185'
S'Hiba Batool'
tp922
a(S'1229834197'
S'Sanjana Singh'
tp923
a(S'100005561024083'
S'Deepsimar Kaur'
tp924
a(S'544122875'
S'Marina Crasto'
tp925
a(S'100002647509955'
S'Merlin John'
tp926
a(S'1303492204'
p927
S'Sonam Sherpa'
tp928
a(S'831317409'
S'Bhumika Uppal'
tp929
a(S'100003632667163'
S'Astle Thomas'
tp930
a(S'100000268406224'
S'Raghu Prabhakar'
tp931
a(S'1563125575'
S'Namita Kujur'
tp932
a(S'1524026074'
S'Garima Arora'
tp933
a(S'545048072'
S'Prabhat Chatterjee'
tp934
a(S'702251169'
S"Leroy Leo D'Souza"
tp935
a(S'680084846'
S'Deepak Goel'
tp936
a(S'1117212203'
S'Mitul Lall'
tp937
a(S'100002576825478'
S'Neha Sharma'
tp938
a(S'653788675'
S'Laura Santana'
tp939
a(S'100002171251259'
S'Sunny Daniel'
tp940
a(S'1554991605'
S'Anita Sharma'
tp941
a(S'1212421456'
S'Rahul Rajkhowa'
tp942
a(S'551755473'
S'Roshan Roy'
tp943
a(S'100000258558651'
S'Samprita Kuncolinkar'
tp944
a(S'1037889575'
S'Kanchan Kaur'
tp945
a(S'100000172100844'
S'Nelbin Sebastian'
tp946
a(S'838218577'
S'Joshua Benny'
tp947
a(S'100000834537237'
S'Riny Elizabeth Alex'
tp948
a(S'100001811814560'
S'Clinton Robert'
tp949
a(S'100000649597932'
S'Jerin Joy'
tp950
a(S'100002109111564'
S'Sharon Ramse'
tp951
a(S'1610424183'
S'Rohan J Sebastian'
tp952
a(S'608355403'
S'Arpan Stephen'
tp953
a(S'100000185226037'
S'Roshan Paul'
tp954
a(S'1145142661'
S'Pratyaksh Seth'
tp955
a(S'1447224198'
S'Sanchay Sondhi'
tp956
a(S'100003686573150'
S'Sumeet Wilson'
tp957
a(S'100000020953582'
S'Harit Rastogi'
tp958
a(S'1743417341'
S'Tolstoy Paonam'
tp959
a(S'100000893079826'
S'Naina Rose Thomas'
tp960
a(S'1140325685'
S'Vineeta Viny'
tp961
a(S'100000492819320'
S'Bijina John Mathew'
tp962
a(S'1488064615'
S'Sanya Anand'
tp963
a(S'1512534450'
S'Akanksha Kohli'
tp964
a(S'1677063605'
S'Gilles Chuyen'
tp965
a(S'543125333'
S'Francesca Grilli'
tp966
a(S'543036486'
S'Federico Gregori'
tp967
a(S'100002005417121'
S'Abhishek Joseph'
tp968
a(S'583550236'
S'Manish Babu'
tp969
a(S'1751300222'
S'Aman Sharma'
tp970
a(S'833732445'
S'Diksha Sharma'
tp971
a(S'711656029'
S'Jimy Joy'
tp972
a(S'681044112'
S'Revant Gupta'
tp973
a(S'623880965'
S'Anil Chawla'
tp974
a(S'100000366311965'
S'Blesson Mathew'
tp975
a(S'1840222680'
S'Dia Kawatra'
tp976
a(S'695715039'
S'Nirvan Athreya'
tp977
a(S'1838943911'
S'Harman Kour'
tp978
a(S'100000181773671'
S'Joel Yohannan'
tp979
a(S'1494736999'
S'Harsimran Singh'
tp980
a(S'100003479962439'
S'Vasudha Pandey'
tp981
a(S'100003217966044'
S'Sanjeet Kaur'
tp982
a(S'100004174650785'
S'Komal Aggarwal'
tp983
a(S'100000030991887'
S'Sobia Jafri'
tp984
a(S'151801137'
S'Prashant Hosur'
tp985
a(S'100002206906422'
S'Shantam Khanna'
tp986
a(S'1451315117'
S'Sohaib Khan'
tp987
a(S'100001776294131'
S'Shehnaz Singh'
tp988
a(S'1433569626'
S'PriyAnka GaRg'
tp989
a(S'100001141593246'
S'Anurag Gupta'
tp990
a(S'100002097845332'
S'Subin MrWorldwide Jacob'
tp991
a(S'1227464645'
S'Svetlana Guthrie'
tp992
a(S'100001161014016'
S'Bernard Mishra'
tp993
a(S'1524765835'
S'Sameer Gardner'
tp994
a(S'673972154'
S'Tej Karan Singh'
tp995
a(S'100000441790080'
S'Ashish Malhotra'
tp996
a(S'100000057915408'
S'Anipurba Chatterjee'
tp997
a(S'513151919'
S'Sameer Selvam'
tp998
a(S'100000071661065'
S'Yashu Gupta'
tp999
a(S'100002212435045'
S'Ashima Bharal'
tp1000
a(S'100004991554852'
S'Sidra Khan'
tp1001
a(S'1707652776'
S'Auritro Mukherjee'
tp1002
a(S'100001263156056'
S'IsHita SaHni'
tp1003
a(S'100000195094780'
S'Anisha Mimani'
tp1004
a(S'614893523'
S'Kavya Trehan'
tp1005
a(S'1467224658'
S'Jeffrey Selvaraju'
tp1006
a(S'1284472158'
S'O Venkat Sai'
tp1007
a(S'100001590678935'
S'Jude Bosco Gibbs'
tp1008
a(S'100000172384689'
S'Sameer Wilfred'
tp1009
a(S'1592171350'
S'Arpit Gupta'
tp1010
a(S'775514594'
S'Srishti Das'
tp1011
a(S'1272607240'
S'Soumya Gera'
tp1012
a(S'1454857653'
S'Ankita Nawalakha'
tp1013
a(S'1151067127'
S'Nikhil Sharma'
tp1014
a(S'100003400254719'
S'Amisha Yadav'
tp1015
a(S'711012338'
S'Arjun Mathur'
tp1016
a(S'1767367576'
S'Akhil George'
tp1017
a(S'100000008529830'
S'Tushar Sharma'
tp1018
a(S'716905918'
S'Keith Peter'
tp1019
a(S'100001055885090'
S'Fauzan Mirza'
tp1020
a(S'1347022907'
S'Caterina Sansonetti'
tp1021
a(S'1499253876'
S'Ankit Mayank Ekka'
tp1022
a(S'100006302408396'
S'Jasmine Joseph'
tp1023
a(S'100001367823710'
S'Bony Vincent'
tp1024
a(S'1549039149'
S'Sohil Sharma'
tp1025
a(S'100005614060202'
S'Rahi Bhatia'
tp1026
a(S'100000509269788'
S'Meghna Sadhwani'
tp1027
a(S'621900559'
S'Snigdha Chadha'
tp1028
a(S'542716413'
S'Mudit Duggal'
tp1029
a(S'1057233682'
S'Vivian Albert Nicholas'
tp1030
a(S'1607180954'
S'Kunal Gupta'
tp1031
a(S'100000740881597'
S'Maria Seby'
tp1032
a(S'1512092694'
S'Mansi Bachani'
tp1033
a(S'100000110109168'
S'Leander Joshua Sequeira'
tp1034
a(S'100003628165000'
S'Shreya Sharma'
tp1035
a(S'803745827'
S'Avnika Jain'
tp1036
a(S'100006724751855'
S'Susan Issac'
tp1037
a(S'1600092485'
S'Rajat Kumar'
tp1038
a(S'668120339'
p1039
S'Aryaman Dixit'
tp1040
a(S'100000835408880'
S'Cristopher Simon'
tp1041
a(S'774975510'
S'Antriksh Bali'
tp1042
a(S'706728698'
S'Sagar Sethi'
tp1043
a(S'100000000208302'
S'Aditya Lal'
tp1044
a(S'1509309556'
S'Anish V Cherian'
tp1045
a(S'563822031'
S'Tommaso Szemere'
tp1046
a(S'100001272888834'
S'Sidarth Michael Chopra'
tp1047
a(S'755840444'
S'Vincenzo Filippo'
tp1048
a(S'100002112616612'
S'Chris Peter'
tp1049
a(S'100001744160149'
S'Tadasha Kar'
tp1050
a(S'1085627261'
S'Divya Kurian'
tp1051
a(S'100003219537849'
S'Mahak Buriya'
tp1052
a(S'684281109'
S'Madhav Sangal'
tp1053
a(S'100003192556689'
S'Vishal Gupta'
tp1054
a(S'100000316915700'
S'Sarthak Gupta'
tp1055
a(S'1422207587'
S'Raghav Batra'
tp1056
a(S'1221193827'
S'Saurabh Singh'
tp1057
a(S'709905593'
S'Shreya Nair'
tp1058
a(S'585190203'
S'Lalit Mehta'
tp1059
a(S'100003622686955'
S'Abhijeet Annihilator'
tp1060
a(S'647584679'
S"Raghav 'Roalts' Apoorv"
tp1061
a(S'1277665544'
S'Tanvi Sachdeva'
tp1062
a(S'1213312132'
S'Ritu Chandra'
tp1063
a(S'1554830166'
S'Vinay Jindal'
tp1064
a(S'1179776277'
S'Ojus Bhanot'
tp1065
a(S'667209688'
S'Satender Singh Vijayran'
tp1066
a(S'100006311672728'
S'Riya Batra'
tp1067
a(S'100000234832813'
S'Albert Prasad'
tp1068
a(S'694640903'
S'Rishi Dutta'
tp1069
a(S'100001530948427'
S'Richa Nancy'
tp1070
a(S'100002378827431'
S'Akshayta Lal'
tp1071
a(S'100000589952913'
S'Ar Kshitij Kaushik'
tp1072
a(S'100005276614224'
S"Stephen's Compliments"
tp1073
a(S'591672152'
S'Anmol Somanchi'
tp1074
a(S'100000602351137'
S'Allen Davis Alfred'
tp1075
a(S'807032976'
S'Manika Batra'
tp1076
a(S'100002514852192'
S'Sahil Vashisth'
tp1077
a(S'100001120955077'
S'Anupam Joshi'
tp1078
a(S'100001796002732'
S'Nikita Nagpal'
tp1079
a(S'1550926330'
S'Kovid Sharma'
tp1080
a(S'517860253'
S'Priyanka Mogul'
tp1081
a(S'565823220'
S'Rushveen Uban'
tp1082
a(S'1843722964'
S'Anjini Bist'
tp1083
a(S'659527901'
S'John Koshy'
tp1084
a(S'1352253332'
S'Megha Sehrawat'
tp1085
a(S'1602266590'
S'Nikhil Kadian'
tp1086
a(S'1038538839'
S'Ishaan Handa'
tp1087
a(S'100003745810083'
S'Balconytv Delhi'
tp1088
a(S'597126116'
S'Jubin Jacob'
tp1089
a(S'1269838538'
S'Nikhita Biswas'
tp1090
a(S'100002253495751'
S'Varnita Paliwal'
tp1091
a(S'100000412658105'
S'Tanuj Gupta'
tp1092
a(S'100000025114437'
S'Sonam Suri'
tp1093
a(S'100001646152623'
S'Arijit Dutta'
tp1094
a(S'100000402002221'
S'Khanak Mehta'
tp1095
a(S'100004711574627'
S'Allen Kurian'
tp1096
a(S'100003774178857'
S'Ruqayyah Sarkar'
tp1097
a(S'100000268681307'
S'Amol Benny'
tp1098
a(S'100001105880628'
S'Kirti Kaur'
tp1099
a(S'100000931726445'
S'Tonney Cherian'
tp1100
a(S'1844120209'
S'Dipti Tejwani'
tp1101
a(S'100001800016903'
S'Elsa Joseph'
tp1102
a(S'1200626740'
S'Jovi Singh'
tp1103
a(S'1457451387'
S'Parampreet Singh'
tp1104
a(S'100000067187163'
S'Bhavya Singh'
tp1105
a(S'100000214005360'
S'Subham Jaiswal'
tp1106
a(S'100001412901732'
S'Sobia Khan'
tp1107
a(S'709247124'
S'Sanjana Nangia'
tp1108
a(S'100000200537120'
S'Tanya Nayak'
tp1109
a(S'100000135234484'
S'Amardeep Singh'
tp1110
a(S'1508725545'
S'Lokesh Singh'
tp1111
a(S'1062195788'
S'Yash Sharma'
tp1112
a(S'620866188'
S'Ujjwal Batla'
tp1113
a(S'1405231998'
S'Sandhya Jai Gupta'
tp1114
a(S'100002907430594'
S'Abhishek Kullu'
tp1115
a(S'100001532243133'
S'Aashna Gupta'
tp1116
a(S'570945014'
S'Dhruv Bathla'
tp1117
a(S'100001221947274'
S'Nikita Pradhan'
tp1118
a(S'601897734'
S'Louis Pereira'
tp1119
a(S'745539898'
S'Benjamine Benny Pinto'
tp1120
a(S'100001320238059'
S'Mathew Sabu'
tp1121
a(S'100002140523820'
S'Madhav Sharma'
tp1122
a(S'100002932755123'
S'Sahil Chopra'
tp1123
a(S'100002506567516'
S'Anshul Saini'
tp1124
a(S'655101558'
S'Judith Albuquerque'
tp1125
a(S'100001790224502'
S'Jitesh Rawal'
tp1126
a(S'1032460854'
S'Elizabeth Joseph'
tp1127
a(S'1180925888'
S'Sahil Gochhayat'
tp1128
a(S'1490906225'
S'Amal Antony'
tp1129
a(S'1193304946'
S'Snigdha Asirvatham'
tp1130
a(S'100003361310159'
S'Rohan Ramsey'
tp1131
a(S'1108833438'
S'Riji Raju'
tp1132
a(S'100000596483039'
S'Bharti Malhotra'
tp1133
a(S'1363840466'
S'Aayush Bector'
tp1134
a(S'100000068548548'
S'Neha Aggarwal'
tp1135
a(S'548344709'
S'Raghav Dahuja'
tp1136
a(S'1035748849'
S'Noahin Markose'
tp1137
a(S'1357071000'
S'Simren Ohri'
tp1138
a(S'1424004469'
S'Akash Pawar'
tp1139
a(S'100001926839094'
S'Popson Joseph'
tp1140
a(S'100007686998268'
S'Jenny Sylvie'
tp1141
a(S'747968692'
S'Saurabh Roy Chowdhury'
tp1142
a(S'100000122724079'
S'Linny Lawrence'
tp1143
a(S'1213805124'
S'Rashi Gupta'
tp1144
a(S'1497582514'
S'Guneet Juneja'
tp1145
a(S'100001206767976'
S'Radhika Sharma'
tp1146
a(S'100000179115492'
S'Aman Reznov Joria'
tp1147
a(S'672787880'
S'Numaan Matto'
tp1148
a(S'1068868554'
S'Kashiv Kai'
tp1149
a(S'1350716130'
S'Rudraksh Banerjie'
tp1150
a(S'100002656419702'
S'Santanu Kumar Panda'
tp1151
a(S'100003165519022'
S'Manas Singh'
tp1152
a(S'656418655'
S'Archit Bansal'
tp1153
a(S'1403252199'
S'Aditi Ramchandra'
tp1154
a(S'100000706253094'
S'Prakhar Srivastava'
tp1155
a(S'1123851184'
S'Osman Siddiqi'
tp1156
a(S'100000088301446'
S'Aaron Arjun Koul'
tp1157
a(S'100002591829673'
S'Nikita Gupta'
tp1158
a(S'100001461441143'
S'Mohammad Tajuddin Khalid'
tp1159
a(S'100001912198870'
S'Ekta Taneja'
tp1160
a(S'574798452'
S'Dhruv Malik'
tp1161
a(S'100001422814642'
S'Nikhil John'
tp1162
a(S'100001793752913'
S'Amin Raza Sahil'
tp1163
a(S'100006020462611'
S'Irene Maria'
tp1164
a(S'789360060'
S'Sanya Bajaj'
tp1165
a(S'100004073805802'
S'Amanpreet Singh'
tp1166
a(S'538827752'
S'Charlene Dean'
tp1167
a(S'1263871780'
S'Aman Grewal'
tp1168
a(S'1194300548'
S'Vani Devraj'
tp1169
a(S'1292933583'
S'Shahed Sheike'
tp1170
a(S'544040242'
S'Varun Justin Dennis'
tp1171
a(S'100000999181468'
S'Sumant Bhandari'
tp1172
a(S'1549014168'
S'Manjeet Singh'
tp1173
a(S'1192426771'
S'Siai Khuptong'
tp1174
a(S'100001077264866'
S'Pulkit Gupta'
tp1175
a(S'100001849958460'
S'Srishti Singh'
tp1176
a(S'1294757114'
S'Shreya Wadhera'
tp1177
a(S'100001576787183'
S'Siddharth Bharal'
tp1178
a(S'1175262011'
S'Sameer Masih'
tp1179
a(S'100001805983330'
S'Jithin Jose'
tp1180
a(S'544160105'
S'Sherry Mathews'
tp1181
a(S'1321604609'
S'Sarthak Jain'
tp1182
a(S'100003510795421'
S'Rachel Tete'
tp1183
a(S'100000142917433'
S'Baljinder Kaur'
tp1184
a(S'669837075'
S'Anmol Jalta'
tp1185
a(S'520405772'
S'Ruhin Chatterjee'
tp1186
a(S'1817598409'
S'Shreya Khanna'
tp1187
a(S'1448228746'
S'Taisha Antony'
tp1188
a(S'100000032661384'
S'Ashita Dubey'
tp1189
a(S'100000238845772'
S'Kritika Roy'
tp1190
a(S'1291310568'
S'Ojaswini Sharma'
tp1191
a(S'1786495862'
S'Joe Santana'
tp1192
a(S'1820482283'
S'Angad Sarna'
tp1193
a(S'818407487'
S'Manav Chauhan'
tp1194
a(S'1465372832'
S'Kabir Upmanyu'
tp1195
a(S'100000945652361'
S'Aparna Babu'
tp1196
a(S'1620474503'
S'Anmol Sinha'
tp1197
a(S'1559071976'
S'Johnson Shunyu'
tp1198
a(S'100001164838057'
S'Khyati Malhotra'
tp1199
a(S'1378746047'
S'Himanshu Arora'
tp1200
a(S'1421658235'
S'Hannah Joyke Chawang'
tp1201
a(S'500346937'
S'Adhir Ghosh'
tp1202
a(S'100001250288649'
S'Shashank Gautam'
tp1203
a(S'1833977808'
S'Shreya Srivastava'
tp1204
a(S'100000086778364'
S'Felix Toppo'
tp1205
a(S'100001488796277'
S'Shreya Verma'
tp1206
a(S'100007554011919'
S'Joshua Roy'
tp1207
a(S'100000659512070'
S'Ritvica Paruthi'
tp1208
a(S'100000151700898'
S'Ankita Naik'
tp1209
a(S'100001153159360'
S'Neena John'
tp1210
a(S'523600817'
S'Bharat Bajaj Radix'
tp1211
a(S'1345415683'
S'Ravi Malhotra'
tp1212
a(S'100001028694265'
S'Varsha Thomas'
tp1213
a(S'100000455160549'
S'Mridul Kansara'
tp1214
a(S'100001295873108'
S'Monica Chawla'
tp1215
a(S'100001281910247'
S'Sahil Chopra'
tp1216
a(S'100002116956986'
S'Nidhi James'
tp1217
a(S'1569467488'
S'Mansi Budakoti'
tp1218
a(S'100000264614612'
S'Smega Sony'
tp1219
a(S'100000685601333'
S'Nigel Dsouza'
tp1220
a(S'100003675200547'
S'Neeharika Agnihotri'
tp1221
a(S'100003052561542'
S'Chris Peter'
tp1222
a(S'100005560629408'
S'Jerin Antony Xavier'
tp1223
a(S'1085177111'
S'Manu Karel'
tp1224
a(S'1197934258'
S'Aabha Kathuria'
tp1225
a(S'788205821'
S'Akash Feeler Gupta'
tp1226
a(S'1734823667'
S'Sambhav Gupta'
tp1227
a(S'100000133567307'
S'Aakanksha Upadhyay'
tp1228
a(S'100000057497978'
S'Henry Kunjumon'
tp1229
a(S'100000607808252'
S'Namita Chacko'
tp1230
a(S'100000427879150'
S'Noel Thomas'
tp1231
a(S'100000746133771'
S'Luvneet Kaur'
tp1232
a(S'1826605189'
S'Tammana Chowdhary'
tp1233
a(S'100004094735641'
S'Kushagra Gupta'
tp1234
a(S'1015741910'
S'Ankit Sharma'
tp1235
a(S'1235491087'
S'Debashish Kalita'
tp1236
a(S'1715423005'
S'Subh\\u00e3m Js'
tp1237
a(S'1801873712'
S'Kumar Ikshwaku'
tp1238
a(S'763740554'
S'Roohneet Kochar'
tp1239
a(S'100001925683610'
S'Richard Abraham'
tp1240
a(S'1277079388'
S'Balvinder Singh Bindra'
tp1241
a(S'100001152697161'
S'Cristina Maria'
tp1242
a(S'100001157511557'
S'Jitin Mohan'
tp1243
a(S'100006461064101'
S'Harshi Anand'
tp1244
a(S'1024208719'
S'Aditya Banerjee'
tp1245
a(S'100000279049237'
S'Percival Holt'
tp1246
a(S'100002455065033'
S'Adarsh Srivastava'
tp1247
a(S'100003996094302'
S'Moses Koul'
tp1248
a(S'100000915153345'
S'Sharad Joshi'
tp1249
a(S'100002301115672'
S'Rhea Bharal'
tp1250
a(S'691752780'
S'Nishant Nagar'
tp1251
a(S'100001093637987'
S'Maitraiyee Tiwari'
tp1252
a(S'1329853355'
S'Saniya Scott'
tp1253
a(S'1640958277'
S'Tisha Thomas'
tp1254
a(S'522578085'
S'Natasha Varughese'
tp1255
a(S'524231728'
S'Aakar Sharma'
tp1256
a(S'100000390156298'
S'Jerin Jose'
tp1257
a(S'100005510171845'
S'Akash Singh'
tp1258
a(S'100000729759879'
S'Jeffrey Mathews'
tp1259
a(S'517995503'
S'Sonakshi Chaudhry'
tp1260
a(S'100007448259776'
S'Sahil Vashisth'
tp1261
a(S'1818917834'
S'Kusum Pandey'
tp1262
a(S'563687839'
S'Arpeet Thethi'
tp1263
a(S'100002595732129'
S'Shallyn Teresa Cherian'
tp1264
a(S'1251396591'
S'Anish Thomas'
tp1265
a(S'1325761120'
S'Steven Peter'
tp1266
a(S'706442264'
S'Sakshi Soni'
tp1267
a(S'1156362576'
S'Pritish Ronjoy Menon'
tp1268
a(S'100000729008209'
S'Abhishek Prakash'
tp1269
a(S'1527933848'
S'Sruthi Rajagopal'
tp1270
a(S'502057721'
S'Shiv Ahuja'
tp1271
a(S'100001194982055'
S'Sobia Nadeem Siddiqui'
tp1272
a(S'1749598397'
S'Rachit Gupta'
tp1273
a(S'100000760685533'
S'Abhishek Abhi'
tp1274
a(S'100003375600144'
S'Athulliya Joseph'
tp1275
a(S'100001126957799'
S'Anisha Thomas'
tp1276
a(S'100001210635495'
S'Steffi Elizabeth Thomas'
tp1277
a(S'100002331766099'
S'Jatin Ekka'
tp1278
a(S'664501959'
S'Rishabh Sanghi'
tp1279
a(S'100002957463678'
S'Felix Biju'
tp1280
a(S'806119800'
S'Shiv Kumar'
tp1281
a(S'100000100058303'
S'Rishabh Malhotra'
tp1282
a(S'1138782844'
S'Vasundhara Seth'
tp1283
a(S'1248464091'
S'Aanchal Kumarr'
tp1284
a(S'100000767444910'
S'Reagan Nwakanobi'
tp1285
a(S'574050872'
S'Seena Michael'
tp1286
a(S'1399947785'
S'Neha Sharma'
tp1287
a(S'1087976933'
S'Nishtha Pandey'
tp1288
a(S'100003287830876'
S'Akshika Bhatnagar'
tp1289
a(S'1707887643'
S'Aman Villa Rox'
tp1290
a(S'100000625694483'
S'Melwyn Fernandes'
tp1291
a(S'1660417860'
S'Nicholas Christopher'
tp1292
a(S'1093989126'
S'Vaibhav Chauhan'
tp1293
a(S'1319134637'
S'Ishan Taneja'
tp1294
a(S'794748045'
S'Vandana Saini'
tp1295
a(S'100001166812771'
S'Malaika Dhar-James'
tp1296
a(S'100002918780184'
S'Mansi Thapliyal'
tp1297
a(S'1297918195'
S'Shithij George'
tp1298
a(S'1463534112'
S"Andrias D'souza"
tp1299
a(S'1783266188'
S'Atif Khan'
tp1300
a(S'1602666125'
S'Gregory Waters'
tp1301
a(S'530393389'
S'Anupa Joseph Toppo'
tp1302
a(S'100000036611997'
S'Mohith George'
tp1303
a(S'596731012'
S'Nitin Das'
tp1304
a(S'580295719'
S'Pierpa Leo'
tp1305
a(S'1527159556'
S'Tushar Mishra'
tp1306
a(S'100001192704304'
S'Align Tom'
tp1307
a(S'100000692858766'
S'Tanmeet Thapar'
tp1308
a(S'1713501019'
S'Tanya Sarna'
tp1309
asS'id'
p1310
S'1241481613'
p1311
sS'name'
p1312
S'Reuben Das'
p1313
s.