(dp1
S'name'
p2
S'Munish Kr Gupta'
p3
sS'current_class'
p4
S'india'
p5
sS'home_class'
p6
Vchandigarh, india
p7
sS'home_text'
p8
VChandigarh, India\u000aHometown
p9
sS'current_link'
p10
Vhttps://www.facebook.com/l.php?u=https%3A%2F%2Fwww.bing.com%2Fmaps%2Fdefault.aspx%3Fv%3D2%26pc%3DFACEBK%26mid%3D8100%26where1%3D30.900000322162%252C%2B75.849609375%26name%3DLudhiana%252C%2BPunjab%252C%2BIndia%26mkt%3Den-IN&h=yAQFm4MfZ&s=1
p11
sS'home_link'
p12
Vhttps://www.facebook.com/l.php?u=https%3A%2F%2Fwww.bing.com%2Fmaps%2Fdefault.aspx%3Fv%3D2%26pc%3DFACEBK%26mid%3D8100%26where1%3D30.737200794688%252C%2B76.786193847656%26name%3DChandigarh%252C%2BIndia%26mkt%3Den-IN&h=BAQEdeXnP&s=1
p13
sS'current_text'
p14
VLudhiana, Punjab, India\u000aCurrent City
p15
sS'friends'
p16
(lp17
(S'1476545627'
S'Priya Ranjan Ghosh'
tp18
a(S'100000468823739'
S'BV Gopinath'
tp19
a(S'1067001487'
S'Tarun Gupta'
tp20
a(S'1061764312'
S'Manish Mishra'
tp21
a(S'1029713428'
S'Sandip Garg'
tp22
a(S'100000462520814'
S'Karan Gupta'
tp23
a(S'100000761693019'
S'Harjot Singh'
tp24
a(S'1052821370'
S'Ajay Kumar'
tp25
a(S'759424765'
S'Gulshan Raj'
tp26
a(S'100001880488974'
S'Ashish Jainjain'
tp27
a(S'1656909542'
S'Binod Kumar Singh'
tp28
a(S'1325190196'
S'Rajeev P Singh'
tp29
a(S'100002334937254'
S'Ruchi Gupta'
tp30
a(S'100000820762320'
S'Jk Mishra'
tp31
a(S'1088921332'
S'Sangram R Gaikwad'
tp32
a(S'100000060857024'
S'Alisha Rohit Vats'
tp33
a(S'1554637083'
S'Gurusharan Singh'
tp34
a(S'1472344034'
S'Kc Badhok'
tp35
a(S'100001056605167'
S'Sydney Alexander'
tp36
a(S'1112834612'
S'Rabi Narayan Dash'
tp37
a(S'100001947276991'
S'Meena Gupta'
tp38
a(S'100002069681842'
S'Pirthi Lal'
tp39
a(S'1608699390'
S'Amrita Misra'
tp40
a(S'1725505487'
S'Raman Garg'
tp41
a(S'1791346106'
S'Ajay Kumar Jain'
tp42
a(S'1552910105'
S'Deepika Mittal'
tp43
a(S'1203706478'
S'Jaspal Singh'
tp44
a(S'1281220633'
S'Hardeep Batra'
tp45
a(S'100000585075176'
S'Sushil Poddar'
tp46
a(S'556805153'
S'Varun Jain'
tp47
a(S'100001083555867'
S'Ashish Goyal'
tp48
a(S'1632931953'
S'Mudit Nagpal'
tp49
a(S'100001152585359'
S'Ashok Gupta'
tp50
a(S'100000647556818'
S'Sanjay Gupta'
tp51
a(S'848979506'
S'Ashish Khosla'
tp52
a(S'100001461835117'
S'Richa Gupta'
tp53
a(S'1268243548'
S'Rahul Dhawan'
tp54
a(S'100000703584508'
S'Rajneesh Kapur'
tp55
a(S'832863953'
S'Harpreet Chopra'
tp56
a(S'100003808518806'
S'Ravi Ramachandran'
tp57
a(S'100000055052127'
S'Sunil Kumar Singh'
tp58
a(S'1294811900'
S'Naren Jangpangi'
tp59
a(S'1088225275'
S'Sumeet Budhraja'
tp60
a(S'816969061'
S'Anshu Prakash'
tp61
a(S'1003793720'
S'Paramjeet Singh'
tp62
a(S'100001155225219'
S'Satish Bhalla'
tp63
a(S'1262827334'
S'Suvir Chopra'
tp64
a(S'688072801'
S'Sameer Sharma'
tp65
a(S'1277236948'
S'Ansuman Pattnaik'
tp66
a(S'510371607'
S'Angad Singh'
tp67
a(S'597501779'
S'Bill Randhawa'
tp68
a(S'1470984793'
S'Devi Sharan Singh'
tp69
a(S'100001818524268'
S'Ashish Jain'
tp70
a(S'100000280374252'
S'Anand Upadhyay'
tp71
a(S'100001275327786'
S'Rajneesh Arvind'
tp72
a(S'100001238804568'
S'Medisetti Tirumala Kumar'
tp73
a(S'100002635514521'
S'Harishankar Kumar Lal'
tp74
a(S'1490490599'
S'Rahul Navin'
tp75
a(S'100001566579028'
S'Rajeev Kumar'
tp76
a(S'100000610442289'
S'Gurbir Singh'
tp77
a(S'703621333'
S'Rajeev Harit'
tp78
a(S'100002833015468'
S'Vikas Bir'
tp79
a(S'704998225'
S'Rajeev Harit'
tp80
a(S'744478729'
S'Rajeev Harit'
tp81
a(S'100004497789564'
S'Pec Mates'
tp82
a(S'1729609599'
S'Reddy Rv'
tp83
a(S'100002221931926'
S'Sunita Singh'
tp84
a(S'100002226352698'
S'SK Nayyar'
tp85
a(S'1271753039'
S'Prajna Paramita'
tp86
a(S'1017731794'
S'Rajendra Kumar Agrawal'
tp87
a(S'740372293'
S'Vikram Prabhakar'
tp88
a(S'567708456'
S'Shishir Srivastava'
tp89
a(S'100000948178962'
S'Alok Singh'
tp90
a(S'1283623200'
S'Binaya Manandhar'
tp91
a(S'1434190003'
S'Amit Jain'
tp92
a(S'586937020'
S'Pramod Shrivastava'
tp93
a(S'1044641886'
S'Krishna Kishore Jasthi'
tp94
a(S'100000169340713'
S'Jitender Kumar'
tp95
a(S'1470785623'
S'Sunil KumarJha'
tp96
a(S'567716942'
S'Harpreet Soni'
tp97
a(S'1268771385'
S'Mansi Goyal'
tp98
a(S'515033678'
S'Abhishek Pal Garg'
tp99
a(S'1568611356'
S'Sandeep Dahiya'
tp100
a(S'100002244798938'
S'Richa Khoda'
tp101
a(S'670772796'
S'Paramita M. Biswas'
tp102
a(S'1497298222'
S'Aashima Gupta'
tp103
a(S'586188157'
S'Satnam Gill'
tp104
a(S'100001507493654'
S'Ips Bindra'
tp105
a(S'1092950416'
S'Jaspreet S Minhas'
tp106
a(S'574502956'
S'Samir Tekriwal'
tp107
a(S'1683665350'
S'Bhuvnesh Kulshrestha'
tp108
a(S'760024119'
S'Narendra Bhooshan'
tp109
a(S'1496555685'
S'Ann Kapthuama Kale'
tp110
a(S'573032079'
S'Shravan Gotru'
tp111
a(S'100000774295492'
S'Sudhir Gupta'
tp112
a(S'1100703227'
S'Raman Kant Garg'
tp113
a(S'835953339'
S'Pooja Chopra'
tp114
a(S'100000004920842'
S'Pramod Chandra Mody'
tp115
a(S'100001209437027'
S'Ravi Sarangal'
tp116
a(S'100000605060456'
S'Rajeev Kumar'
tp117
a(S'1379745728'
S'Ashok Kardam'
tp118
a(S'100001282408277'
S'Rajesh K. Gupta'
tp119
a(S'100000952140884'
S'Dinesh Gautam'
tp120
a(S'100001904876257'
S'Anusha Khurana'
tp121
a(S'1047828270'
S'Devinder Kalyan'
tp122
a(S'772107717'
S'Praveen Siddharth'
tp123
a(S'724163872'
S'Sanjiv Singh'
tp124
a(S'749133437'
S'Yogesh Verma'
tp125
a(S'100000394234831'
S'Rajesh Bhoot'
tp126
a(S'100000924810796'
S'Ram Mohan Singh'
tp127
a(S'1752595465'
S'Vivek Gupta'
tp128
a(S'1012371130'
S'Aditya Shukla'
tp129
a(S'100000599228847'
S'Avadhesh Kumar'
tp130
a(S'1003526658'
S'Lakhesh Khullar'
tp131
a(S'100002447500771'
S'Swati Joshi'
tp132
a(S'1663830010'
S'Manoj Kohli'
tp133
a(S'1451963160'
S'Jagdeep Goel'
tp134
a(S'100000012799375'
S'Santosh Amat'
tp135
a(S'824637019'
S'Basanta Rajkumar'
tp136
a(S'565364841'
S'Sal Chou'
tp137
a(S'1358205707'
S'Uma Venkatesan'
tp138
a(S'1532567953'
S'Garima Lohani Bhagat'
tp139
a(S'100002143757740'
S'Ramesh Danday'
tp140
a(S'100000035288462'
S'Himanshu Shekhar Sinha'
tp141
a(S'563126066'
S'Vanita Sharma'
tp142
a(S'100002066798405'
S'Chander Mohan Ahuja'
tp143
a(S'100000316006534'
S'Yogesh Verma'
tp144
a(S'100000224004725'
S'Eashan Gupta'
tp145
a(S'1582472935'
S'Vatsalya Saxena'
tp146
a(S'1573729708'
S'Chittaranjan Dash'
tp147
a(S'100001062952469'
S'Satender Singh Rana'
tp148
a(S'1346035339'
S'Mamta Bansal'
tp149
a(S'100001875316493'
S'Vivek Mahajan'
tp150
a(S'707279394'
S'Mahua Sarkar'
tp151
a(S'519035334'
S'Amit Jindal'
tp152
a(S'1587991248'
S'Virendra Ojha'
tp153
a(S'100001411064291'
S'Vijay Kataria'
tp154
a(S'100000264490376'
S'Govind Manish'
tp155
a(S'839654303'
S'Poonam Khaira Sidhu'
tp156
a(S'755873728'
S'Pramod Kumar Chopra'
tp157
a(S'1340474143'
S'Prasad Reddy'
tp158
a(S'1323543022'
S'Mohit Shrivastava'
tp159
a(S'100002814481008'
S'Kumar Hrishikesh'
tp160
a(S'1824758200'
S'Raman Chopra'
tp161
a(S'100002064600308'
S'Sher Singh Meena'
tp162
a(S'100001571283553'
S'Anil Goyal'
tp163
a(S'542307408'
S'Vikram Gupta'
tp164
a(S'100001956117610'
S'Subhakant Sahu'
tp165
a(S'100002406356640'
S'Vivekanandan Vimalanandan'
tp166
a(S'100001635930281'
S'Surender Sharma'
tp167
a(S'611232622'
S'Kuljinder Kalsi'
tp168
a(S'717657784'
S'Viv Nangia'
tp169
a(S'812037607'
S'Rajendra Kumar'
tp170
a(S'1245666966'
S'Anshuman Sharma'
tp171
a(S'100000150831103'
S'Ritesh Parmar'
tp172
a(S'1134646513'
S'Dayainder Singh Sidhu'
tp173
a(S'100000105091978'
S'Vivek Aggarwal'
tp174
a(S'1040277860'
S'Nrusingh Swain'
tp175
a(S'1241435814'
S'Davinder Wadhwa'
tp176
a(S'100000094640701'
S'Dinesh Singh'
tp177
a(S'1060066497'
S'Arvinder Malhotra'
tp178
a(S'100002459934788'
S'Mamta Jain'
tp179
a(S'1639442933'
S'Sanjay Kumar'
tp180
a(S'557732377'
S'Ashis Mohanty'
tp181
a(S'1577889574'
S'Ajay Pandey'
tp182
a(S'546631509'
S'Ashok Mittal'
tp183
a(S'100003029195850'
S'Virendra Ojha'
tp184
a(S'734608651'
S'Anadee Nath Misshra'
tp185
a(S'1062541387'
S'Rajgopal Sharma'
tp186
a(S'623485555'
S'Isha Mittal'
tp187
a(S'100000935460947'
S'Ved Parkash Kalia'
tp188
a(S'100001451526603'
S'Raman Chopra'
tp189
a(S'100001739529191'
S'Surinder Kaur Waraich'
tp190
a(S'100003108701683'
S'Ajay Sharma'
tp191
a(S'1268415419'
S'Sangeeta Singh'
tp192
a(S'1423512455'
S'Archana Sharma'
tp193
a(S'100003384699439'
S'Samit Jain'
tp194
a(S'1222959180'
S'Suresh Yadav'
tp195
a(S'1634395939'
S'Krishan Kumar Mittal'
tp196
a(S'100001878184924'
S'Sagarika Sahu'
tp197
a(S'100000353166111'
S'Anurag Vardhan'
tp198
a(S'100000450150558'
S'Kj Singh'
tp199
a(S'100000216930960'
S'Rupinder Pannu Brar'
tp200
a(S'789468621'
S'Arun S Bhatnagar'
tp201
a(S'100000135930725'
S'Sahil Goel'
tp202
a(S'100001681252194'
S'Kalpana Kataria'
tp203
a(S'1202312990'
S'Kulwinder Goyal'
tp204
a(S'100000337143515'
S'Bandna Diwedi'
tp205
a(S'1569571220'
S'Naval Kapoor'
tp206
a(S'1049378815'
S'Veeresh Dua'
tp207
a(S'1579237573'
S'Rakesh Kumar Goyal'
tp208
a(S'100001042966995'
S'Aggarwal Vakul'
tp209
a(S'100002772707247'
S'Kiran Rallapalli'
tp210
a(S'100000671656072'
S'Pradeep Sharma'
tp211
a(S'100001229573685'
S'Jagpal Singh'
tp212
a(S'100000688887136'
S'Tejinder Singh'
tp213
a(S'100001971080197'
S'Niraj Bansal'
tp214
a(S'1451344350'
S'Pravin Goel'
tp215
a(S'100000166515109'
S'Savita Bundas'
tp216
a(S'572306295'
S'Sunil Suri'
tp217
a(S'1484520200'
S'Sunil Chander Sharma'
tp218
a(S'1825603925'
S'Pravin Goel'
tp219
a(S'696414738'
S'Vikram Gulati'
tp220
a(S'100000541358910'
S'Rakesh Goyal'
tp221
a(S'700815380'
S'Rashi Arora'
tp222
a(S'100000986763884'
S'Rajesh Katoch'
tp223
a(S'1234507026'
S'Amaresh Singh'
tp224
a(S'100000606125185'
S'Rishi Kumar'
tp225
a(S'100001486514668'
S'Dharam Vir'
tp226
asS'id'
p227
S'1251675189'
p228
s.