(dp1
S'friends'
p2
(lp3
(S'1088839249'
S'Nikita Poojari'
tp4
a(S'827978990'
S'Pranshu Bheda'
tp5
a(S'652089604'
S'Juhi Nagpal'
tp6
a(S'728585455'
S'Prakhar Srivastav'
tp7
a(S'809235643'
S'Samrat Chokshi'
tp8
a(S'682559529'
S'Shubhankar Uchil'
tp9
a(S'1049578719'
S'Kahkasha Sarguroh'
tp10
a(S'1213147639'
S'Yash Gujrani'
tp11
a(S'702228171'
S'Smith Shah'
tp12
a(S'1134986984'
S'Sudarshan Raman'
tp13
a(S'1040059318'
S'Ansh Chandak'
tp14
a(S'695095617'
S'Minal Mulani'
tp15
a(S'817655520'
S'Deep Chhabria'
tp16
a(S'1188328228'
S'Irfan Jhaveri'
tp17
a(S'543469163'
S'Aniket Gue'
tp18
a(S'546146449'
S'Prerna Sitlani'
tp19
a(S'684038198'
S'Heeba Barwani'
tp20
a(S'621564830'
S'Anchal Malhotra'
tp21
a(S'779557067'
S'Aniketh Nambiar'
tp22
a(S'1135038140'
S'Trisha Jan'
tp23
a(S'1227291690'
S'Tejas Cfc'
tp24
a(S'546193431'
S'Vidhi Shah'
tp25
a(S'1060226217'
S'Gaurav Rohra'
tp26
a(S'1111491405'
S'Sanjan Shetty'
tp27
a(S'1118896408'
S'Niharika Dalal'
tp28
a(S'1160690427'
S'Raaghav Venkatesh'
tp29
a(S'607956368'
S'Prerak Shah'
tp30
a(S'829888376'
S'Mizan Hemani'
tp31
a(S'756013214'
S'Aditi Vaidya'
tp32
a(S'1162558290'
S'Anushka Rishi'
tp33
a(S'1109821383'
S'Harsh Mehta'
tp34
a(S'769814794'
S'Nishant Shah'
tp35
a(S'665661467'
S'Shauna Judith Irani'
tp36
a(S'767434180'
S'Frazer DSaa'
tp37
a(S'549683591'
S'Ronak Khurana'
tp38
a(S'687459640'
S'Parindu Shah'
tp39
a(S'584811338'
S'Harshmee Gada'
tp40
a(S'1021426180'
S'Aamir Rangwalla'
tp41
a(S'1002425121'
S'Bhaumik Shah'
tp42
a(S'1083649262'
S'Viraj Chitroda'
tp43
a(S'619362615'
S'Dwijisha Katkar'
tp44
a(S'1119741245'
S'Niket Naidu'
tp45
a(S'1172530109'
S'Dhwani Sheth'
tp46
a(S'1051879340'
S'Ron Sharma'
tp47
a(S'638460595'
S'Sagar Achhpal'
tp48
a(S'599685072'
S'Viloka Jaipuriar'
tp49
a(S'729563595'
S'Karishma Sethi'
tp50
a(S'657209235'
S'Kenil Shah'
tp51
a(S'744979670'
S'Prithvi Singh'
tp52
a(S'697830696'
S'Karan Donny Hiranandani'
tp53
a(S'1095578137'
S'Krushita Sampat'
tp54
a(S'733573779'
S'Darsh Rupreja'
tp55
a(S'1193045156'
S'Sonali Pinge'
tp56
a(S'1057979764'
S'Shruti Hathiramani'
tp57
a(S'656946180'
S'Dhruv Haria'
tp58
a(S'703267706'
S'Krupa Mehta'
tp59
a(S'830593264'
S'Vibha Saboo'
tp60
a(S'633694607'
S'Samyukta Rathna Venkatraman'
tp61
a(S'1088624772'
S'Nikhil Asrani'
tp62
a(S'596132732'
S'Charu Gupta'
tp63
a(S'1097479140'
S'Kunal Mehta'
tp64
a(S'531345488'
S'Awais Gazyani'
tp65
a(S'527560711'
S'Kunaal Sangtani'
tp66
a(S'626509420'
S'Natasha Chatterjee'
tp67
a(S'595539783'
S'Shreyam Misra'
tp68
a(S'663476973'
S'Rohan Nambiar'
tp69
a(S'1181034293'
S'Karan Kaushik'
tp70
a(S'1043278457'
S'Sidhant Kamra'
tp71
a(S'705602129'
S'Lavina Chandwany'
tp72
a(S'1060768572'
S'Mansi Datta'
tp73
a(S'1174995084'
S'Kanika Garg'
tp74
a(S'562978989'
S'Yash Deshpande'
tp75
a(S'1028568108'
S'Harsh Mehta'
tp76
a(S'524248234'
S'Monik Pamecha'
tp77
a(S'572761483'
S'Aamna Khan'
tp78
a(S'838508500'
S'Sainani Aakash'
tp79
a(S'1205163223'
S'Ritesh Malaney'
tp80
a(S'1068646245'
S'Isha Singh'
tp81
a(S'1017192059'
S'Jasmita Bawa'
tp82
a(S'1102398028'
S'Aayush Kainya'
tp83
a(S'1026590984'
S'Varun Bhansali'
tp84
a(S'1191340246'
S'Utsav Jain'
tp85
a(S'1094481510'
S'Yashraj Kushwaha'
tp86
a(S'572597546'
S'Rehan Gupta'
tp87
a(S'1033115258'
S'Nidhi Choudhary'
tp88
a(S'757003812'
S'Karan Rijhwani'
tp89
a(S'703190929'
S'Aman Chhabria'
tp90
a(S'756508751'
S'Aenesh Sengupta'
tp91
a(S'1017753708'
S'Pratik Walinjkar'
tp92
a(S'1153827881'
S'Prerna Talreja'
tp93
a(S'623844267'
S'Amaya Sharma'
tp94
a(S'1067795377'
S'KrisAnn Figueiredo'
tp95
a(S'1215975289'
S'Dhruta Vyas'
tp96
a(S'1219971745'
S'Aishwariya Sur'
tp97
a(S'815339417'
S'Nikhil Shenoy'
tp98
a(S'755909961'
S'Fatema Dholkawala'
tp99
a(S'742333870'
S'Nadiya Mutchu Sehgal'
tp100
a(S'1155805131'
S'Deba Jagannath'
tp101
a(S'508986732'
S'Sanket Tiwari'
tp102
a(S'1063787150'
p103
S'Amitrajeet Mukherjee'
tp104
asS'id'
p105
S'1258459401'
p106
sS'name'
p107
S'Rishabh Shetty'
p108
s.