(dp1
S'friends'
p2
(lp3
(S'100006671284353'
S'Nawid Khaleli'
tp4
a(S'100006073507463'
S'Mathury Thavarajah'
tp5
a(S'730722090'
S'Christopher Cain'
tp6
a(S'100000724822602'
S'Abassin Badshah'
tp7
a(S'100002546294854'
S'Shazz Iqbal'
tp8
a(S'100005874973462'
S'Waheed Khalily'
tp9
a(S'1220635228'
S'Ali M Khan'
tp10
a(S'597645621'
S'Leenton Ambitionz Joseph'
tp11
a(S'100000502001526'
S'Omid Saiid'
tp12
a(S'1087877458'
S'Jasmyn Preston'
tp13
a(S'100000175521855'
S'Shahmina Yasmin \\u10f1\\u0713'
tp14
a(S'764705229'
S'Mitesh Gandhi'
tp15
a(S'569097593'
S'Joe Shaw'
tp16
a(S'1837290915'
S'Kara Dawson'
tp17
a(S'713925003'
S'Mithun Arun'
tp18
a(S'100001110900872'
S'Annisa Vie'
tp19
a(S'100002817684074'
S'Abdullah Masood'
tp20
a(S'584970705'
S'Assad Sadat'
tp21
a(S'100001413333517'
S'Greta Jok\\u016bbait\\u0117'
tp22
a(S'510423874'
S'Artem Karapetyan'
tp23
a(S'100004926210040'
S'Shir Jan'
tp24
a(S'667105396'
S'Kash Hussain'
tp25
a(S'1347684332'
S'Anne Stinsh\\u00f8ff'
tp26
a(S'516667291'
S'Emily Hill'
tp27
a(S'1309060073'
S'Nazi Jan'
tp28
a(S'100000490185971'
S'Sheerin Shakarak'
tp29
a(S'641205312'
S'Ahmed Shakir'
tp30
a(S'1078992265'
S'Francesco Leonardi'
tp31
a(S'1113250230'
S'Omari High-Def Robinson'
tp32
a(S'525289112'
S'Jasmine Jarvis'
tp33
a(S'100001018463396'
S'Ela He'
tp34
a(S'100000089878540'
S'Moulik Vasoya'
tp35
a(S'100005744700343'
S'Safiq Sadat'
tp36
a(S'100001331164418'
S'Rahmat Mahboob'
tp37
a(S'100001092183274'
S'Ivan Nikolov Pavlov'
tp38
a(S'100004894060941'
S'Saifu Rehman'
tp39
a(S'1409462446'
S'Veronica Tellies'
tp40
a(S'100000279308913'
S'Sameena Khan'
tp41
a(S'100001048976615'
S'Abdul Makhsoud Rahimi'
tp42
a(S'100000909058043'
S'MsJada Love'
tp43
a(S'100001366142610'
S'Zahra Ahmadi'
tp44
a(S'100000209013661'
S'Matin Osmani'
tp45
a(S'573993886'
S'Mas-kabuli Ahmadi'
tp46
a(S'831217640'
S"Samuel O'Connell"
tp47
a(S'100000741320783'
S'Sulayman Aziz'
tp48
a(S'744280127'
S'Remy Rem-Star Fisher'
tp49
a(S'844365603'
S'Taylor Ellis-Anne Macleod'
tp50
a(S'724704922'
S'Abbas Khan'
tp51
a(S'100001641616758'
S'Faridullah Badshah'
tp52
a(S'100004568440795'
S'Naqibullah Badshah'
tp53
a(S'100002445883258'
S'\\u0648\\u0644\\u0627\\u06cc\\u062a \\u0628\\u063a\\u0644\\u0627\\u0646'
tp54
a(S'1386947133'
S'Rhys Powell'
tp55
a(S'100002581763809'
S'Ahamd Nazir Ahmad Zahir'
tp56
a(S'851105242'
S'Nicholas Philpot'
tp57
a(S'762880639'
S'Metin Hussein'
tp58
a(S'100003995424675'
S'Brent Walker'
tp59
a(S'100000468543066'
S'Kamel Ahmadi'
tp60
a(S'535024961'
S'Retika Nayara Majed'
tp61
a(S'791919422'
S'Arti Jethwa'
tp62
a(S'639720386'
S'Ella Joi Harwood'
tp63
a(S'100001112860373'
S'Lily Norani'
tp64
a(S'100002269982880'
S'Ustad Wakil Arghandewall'
tp65
a(S'100001729233359'
S'Ahad Andar'
tp66
a(S'631140453'
S'Christina Theodoulou'
tp67
a(S'703875024'
S'Jenny Armes'
tp68
a(S'516474864'
S'E Tizz Timothy Grimwade'
tp69
a(S'515147191'
S'Harry Rogers'
tp70
a(S'100005995839357'
S'Wali Jan'
tp71
a(S'1609374614'
S'Giorgio Armani'
tp72
a(S'804528573'
S'Aryana Sayeed'
tp73
a(S'1609454251'
S'Roohi Bangia Arora'
tp74
a(S'100000391722514'
S'Safya Nangarhari'
tp75
a(S'1602433820'
S'Ijaz Warka Danng'
tp76
a(S'1286240939'
S'Watan Pal'
tp77
a(S'1418923134'
S'Babaar Rasheed'
tp78
a(S'607340614'
S'Mahmood Ansari'
tp79
a(S'1528142209'
S'Jay Etem'
tp80
a(S'100007238138559'
S'Majid Khalili'
tp81
a(S'100002936722267'
S'Seetara Khabibi'
tp82
a(S'760970222'
S'Nelly Nelima Begum'
tp83
a(S'1309485695'
S'Shah Khan'
tp84
a(S'100000365921926'
S'Naghma Shaperai'
tp85
a(S'501548552'
S'Mustaba Akbari GZ'
tp86
a(S'1559023933'
S'Catherine Cattymoobag Jones'
tp87
a(S'1211196713'
S'Nadim Zarifi'
tp88
a(S'1529296915'
S'Viranga Dippita'
tp89
a(S'100002965800535'
S'Abbas Kharotay'
tp90
a(S'662100053'
S'Connie Greasley'
tp91
a(S'500928275'
S'Muhammad Rana'
tp92
a(S'100002761737222'
S'Lucy Peterson'
tp93
a(S'100000695218226'
S'Afghan Rights'
tp94
a(S'741772757'
S'William Patterson'
tp95
a(S'100003702649676'
S'Hashmat Faqary'
tp96
a(S'871460636'
S'Arif Cankurt'
tp97
a(S'1638769132'
S'Mason Mullamula Ma'
tp98
a(S'1237454609'
S'Hassan Khawari'
tp99
a(S'775256143'
S'Qandeey Dipsy Rahman'
tp100
a(S'1356162363'
S'Jaii Tmk Masaki'
tp101
a(S'709255592'
S'Giacomo Maltman'
tp102
a(S'100001458870957'
S'Zig Pashton Afghan'
tp103
a(S'515033315'
S'Mathan Thiagarajah'
tp104
a(S'1519524399'
S'Kristina Indienko'
tp105
a(S'100003845261292'
S'Azam Ulfat'
tp106
a(S'100001310181716'
S'Sanah Hamidi Z'
tp107
a(S'1639761828'
S'In\\u00eas Costa'
tp108
a(S'779108859'
S'Aisleigh Comerford'
tp109
a(S'797590176'
S'Ayesha Khan'
tp110
a(S'100002085311776'
S'Mena Mangal'
tp111
a(S'100004315117150'
S'Sener Hakki'
tp112
a(S'100000183259843'
S'Dipa Patel'
tp113
a(S'100001288678716'
S'Hamid Rahimi'
tp114
a(S'100003661358282'
S'Abdulwahid Wahidi'
tp115
a(S'528350377'
S'Shereen El Orabi'
tp116
a(S'100002637249981'
S'Abdurehman Baghlan'
tp117
a(S'100002471952641'
S'Sahoo Barlas'
tp118
a(S'897095482'
S'Mandeep Deejay Jin Madhan'
tp119
a(S'638462259'
S'Zain Ul'
tp120
a(S'1083924650'
S'Ali Khawari'
tp121
a(S'1569126838'
S'Christopher Jones'
tp122
a(S'720293422'
S'Farhad Ghafoor'
tp123
a(S'100000866252453'
S'Fayaz Hamid'
tp124
a(S'100001038447246'
S'Azmat Khattak'
tp125
a(S'100007372868618'
S'Porsche Soraya'
tp126
a(S'100006519303347'
S'Lina Sodaro'
tp127
a(S'1194081755'
S'Wahidullah Khan Rahemy'
tp128
a(S'100002658014764'
S'Anton Babakov'
tp129
a(S'1354740830'
S'Najibullah Rahemy'
tp130
a(S'748958536'
S'Khalida Hakimzadah'
tp131
a(S'1207313851'
S'Starbwoy Andre'
tp132
a(S'736598120'
S'Ibrahim Osman'
tp133
a(S'1058052174'
S'Sabina Yasmin Nessa'
tp134
a(S'1462475010'
S'Jiwan Wambulaa Rai'
tp135
a(S'1260062122'
S'Rosemarie Dalaimo'
tp136
a(S'631557833'
S'Emal Zakhel'
tp137
a(S'1241880813'
S'Shirali Jaffery'
tp138
a(S'100002593192392'
S'Sher Jan'
tp139
a(S'1332285670'
S'Zina Hayat'
tp140
a(S'836650117'
S'Vishma Solanki'
tp141
a(S'100001049534931'
S'Nazanin Koshanian'
tp142
a(S'564608655'
S'Omar Bowra Zamani'
tp143
a(S'1257153659'
S'David Jones'
tp144
a(S'1283348415'
S'Tamara Khalil'
tp145
a(S'1419399527'
S'Drake Rogers'
tp146
a(S'604915557'
S'Tom Sykes-Brown'
tp147
a(S'100000487690910'
S'Zohal Marastiyal'
tp148
a(S'100007562683465'
S'Zafar Azizi'
tp149
a(S'100000504600730'
S'Numan Afgaanz'
tp150
a(S'1214503563'
S'Tyrone S\\u00f6ze'
tp151
a(S'1522323878'
S'Shin Shinwar'
tp152
a(S'585027907'
S'Katie Pemberton'
tp153
a(S'644095888'
S'Kay Broad'
tp154
a(S'1511137938'
S'Dmitry Cupec'
tp155
a(S'100003153400656'
S'Hamdard Achakzai Khan'
tp156
a(S'575623783'
S'Marco De Carvalho Posser'
tp157
a(S'100000388242665'
S'Muhammad Baseer'
tp158
a(S'565660877'
S'Tashaun Williams'
tp159
a(S'100004287300849'
S'Sulaiman Sulaimankhil'
tp160
a(S'100000026048485'
S'Bhavick Patel'
tp161
a(S'1661439497'
S'Zeeshan Malik'
tp162
a(S'1684549342'
S'Aurika Buzunaite'
tp163
a(S'502741383'
S'Farah Khan'
tp164
a(S'100000352402812'
S'Ghimire Shrawan'
tp165
a(S'548255113'
S'Lewis Holloway'
tp166
a(S'637293983'
S'Viktoriya Tomova'
tp167
a(S'512630139'
S'Yasmin Reshmie Miah'
tp168
a(S'100000931164974'
S'Waheed Achakzai'
tp169
a(S'100005491089699'
S'Amanda Whittle'
tp170
a(S'712340724'
S'Prem Vastani'
tp171
a(S'1332079904'
S'Thabir Ayub'
tp172
a(S'632997034'
S'Chirag Padhiar'
tp173
a(S'1269778273'
S'Amitabh Agarwal'
tp174
a(S'640500293'
S'Elisabeth Str\\u00f8msnes'
tp175
a(S'100002777955542'
S'Dawood Andar'
tp176
a(S'593610498'
S'Sutara Arian'
tp177
a(S'100004283853906'
S'Wahidullah Eshaqzai'
tp178
a(S'100000181166210'
S'Hafiz Mustafeay'
tp179
a(S'530060082'
S'Majed Saleh'
tp180
a(S'100000814384482'
S'Yalda Gak Tanha'
tp181
a(S'100004258028517'
S'Jawad Soltani'
tp182
a(S'1032571647'
S'Reece Pawsey'
tp183
a(S'100001835864011'
S'Rabani Gs Qasimi'
tp184
a(S'693766979'
S'Sohaila Jaan'
tp185
a(S'1527004299'
S'Oliver Williams'
tp186
a(S'100001915718653'
S'Sarah Javed'
tp187
a(S'100000216155070'
S'Tamanah Ahmadzai'
tp188
a(S'770475021'
S'NEj Yigitce'
tp189
a(S'782305050'
S'Avnika Patel'
tp190
a(S'1274453064'
S'Amjad Khan'
tp191
a(S'728126066'
S'Elli Bobani'
tp192
a(S'1681540227'
S'Jade Natalie Staples'
tp193
a(S'547205503'
S'Sahil Rahmani'
tp194
a(S'100007979700428'
S'M-anwar Nazari'
tp195
a(S'100005948833230'
S'Ahmad Shakib Barekzai'
tp196
a(S'1676244847'
S'Wakila Wahid'
tp197
a(S'543604330'
S'Janer Unknwn'
tp198
a(S'1380571390'
S'Saira Haq'
tp199
a(S'1136815596'
S'Jamyn Ben'
tp200
a(S'822580176'
S'Marika Martindale Johnson'
tp201
a(S'100001001861561'
S'Abdul Raja'
tp202
a(S'1376683620'
S'Jamal Jaden'
tp203
a(S'1611613413'
S'Habib Ullah Khan Niazi'
tp204
a(S'602933453'
S'Gags Bansal'
tp205
a(S'642535936'
S'Eleanor Beaumont-Smith'
tp206
a(S'100001504028757'
S'Milad S Sanaei'
tp207
a(S'648337954'
S'Haider Masood'
tp208
a(S'100004891153579'
S'Shir Jan'
tp209
a(S'1298946002'
S'Chelsey Burl'
tp210
a(S'614390169'
S'Tasha Kmt Miller'
tp211
a(S'598332925'
S'Robert Mcclellan'
tp212
a(S'100005303054448'
S'Nazar Mouradi'
tp213
a(S'100003921460243'
S'Jessica Kilty'
tp214
a(S'1047448179'
S'Friba Yasin'
tp215
a(S'100000165467159'
S'Adib Rahimi'
tp216
a(S'100004168118594'
S'Hanayah Josh'
tp217
a(S'100006634802232'
S'Akber Hoshmand'
tp218
a(S'673514149'
S'Mohammed Ali'
tp219
a(S'864180050'
S'Rebecca Allen'
tp220
a(S'534730873'
S'Santino Kofison'
tp221
a(S'100002120890959'
S'Katiiey Skatiiey'
tp222
a(S'747191574'
S'Majd Alwan'
tp223
a(S'693696150'
S"Naomi 'trumpetstar' Francis"
tp224
a(S'677343402'
S'Yasmin Fattyy Raindrops'
tp225
a(S'590116935'
S'Yaneal Patel'
tp226
a(S'100000835016134'
S'Salahuddin Sabir'
tp227
a(S'1550656665'
S'Prince Kaz'
tp228
a(S'100008062269656'
S'Adeel Anand'
tp229
a(S'100000670277761'
S'Hashmatullah Shahidi'
tp230
a(S'100002291133303'
S'Jozef Makula'
tp231
a(S'100000557462441'
S'Asif Mohammed'
tp232
a(S'100000311320515'
S'Maiwand Fida'
tp233
a(S'100002091159275'
S'Thanh Nhu'
tp234
a(S'1757251457'
S'Kajetan Micha\\u0142kiewicz'
tp235
a(S'600705411'
S'Isabel Notevarp Bj\\u00f8rge'
tp236
a(S'747713095'
S'Aleem Mv Mahmood'
tp237
a(S'100000863593389'
S'Rhea Wickham'
tp238
a(S'1505167477'
S'Dimeji Qurdri'
tp239
a(S'1095807493'
S'Shahrukh Khan'
tp240
a(S'1412221051'
S'Thamur Ayub'
tp241
a(S'1091155269'
S'Lizi Glazebrook'
tp242
a(S'577701183'
S'Nancy Thompstone'
tp243
a(S'1193139286'
S'Liisa-Aisha Matthews'
tp244
a(S'811930112'
S'Lillie Berge'
tp245
a(S'1383631603'
S'Shazz Iqbal'
tp246
a(S'605601124'
S'Elisabeth Tvedt'
tp247
a(S'100001304533633'
S'Wahidullah Eshaqzai'
tp248
a(S'546773650'
S'Gajan Sivakumar'
tp249
a(S'100002052135964'
S'Faiz Faqeer'
tp250
a(S'801860472'
S'Charlotte Wethal Bergh'
tp251
a(S'538864734'
S'Zia Zia N'
tp252
a(S'616358581'
S'Sattar Sahill'
tp253
a(S'100002927111324'
S'Karan Sandhu'
tp254
a(S'1486587032'
S'\\u0418\\u043b\\u043e\\u043d\\u0438\\u0442\\u0430 \\u041a\\u0440'
tp255
a(S'604101220'
S'Hannah Roberta'
tp256
a(S'100008056775281'
S'Parwaz Ex'
tp257
a(S'100001446286799'
S'Habib Kharotay'
tp258
a(S'520631282'
S'Robert Miller'
tp259
a(S'100001166469777'
S'Abdul Kharoti'
tp260
a(S'100001041200593'
p261
S'Mirwais Ashraf'
tp262
a(S'810826725'
S'Conor Jt'
tp263
a(S'1265336388'
S'George Andreas Talpos'
tp264
a(S'725961017'
S'Mahsa Hadavinia'
tp265
a(S'601025622'
S'Chantelle Jade Barrett'
tp266
asS'id'
p267
S'1263810729'
p268
sS'name'
p269
S'Moh Nazaree'
p270
s.