(dp1
S'name'
p2
S'Saba Haroon'
p3
sS'current_class'
p4
S'pakistan'
p5
sS'home_class'
p6
Vlahore, pakistan
p7
sS'home_text'
p8
VLahore, Pakistan\u000aHometown
p9
sS'current_link'
p10
Vhttps://www.facebook.com/l.php?u=https%3A%2F%2Fwww.bing.com%2Fmaps%2Fdefault.aspx%3Fv%3D2%26pc%3DFACEBK%26mid%3D8100%26where1%3D37.354400620721%252C%2B-121.97021484375%26name%3DSanta%2BClara%252C%2BCalifornia%26mkt%3Den-IN&h=5AQHpIP7t&s=1
p11
sS'home_link'
p12
Vhttps://www.facebook.com/l.php?u=https%3A%2F%2Fwww.bing.com%2Fmaps%2Fdefault.aspx%3Fv%3D2%26pc%3DFACEBK%26mid%3D8100%26where1%3D31.549700669186%252C%2B74.343109130859%26name%3DLahore%252C%2BPakistan%26mkt%3Den-IN&h=iAQGTSKI5&s=1
p13
sS'current_text'
p14
VSanta Clara, California\u000aCurrent City
p15
sS'friends'
p16
(lp17
(S'1277251636'
p18
S'Saba Haroon'
tp19
asS'id'
p20
g18
s.