(dp1
S'friends'
p2
(lp3
(S'100002739702295'
S'Arifa Avis'
tp4
a(S'810299521'
S'Amit Mishra'
tp5
a(S'100004629605293'
S'Vishnu Shukla'
tp6
a(S'100000733359779'
S'Bhaskar Upreti'
tp7
a(S'100002539702675'
S'\\u0921\\u0949. \\u0938\\u0938\\u094d\\u092e\\u093f\\u0924 \\u0926\\u094d\\u0935\\u093f\\u0935\\u0947\\u0926\\u0940'
tp8
a(S'737601275'
S'Sudhanva Deshpande'
tp9
a(S'100000119440134'
S'Hemant Kumar'
tp10
a(S'100003300224749'
S'Princesomu Sundaram Ngo'
tp11
a(S'100000636035042'
S'Csj Rashida'
tp12
a(S'654168882'
S'Clra India'
tp13
a(S'1363201959'
S'Geet Chaturvedi'
tp14
a(S'100000773192492'
S'Vibha Rani'
tp15
a(S'100000539328105'
S'Hema Mishra Malviya'
tp16
a(S'100004344783000'
S'Rya Delhi'
tp17
a(S'548992003'
S'Sanjay Dhadwal'
tp18
a(S'100005145126133'
S'Pawan Singh'
tp19
a(S'662741545'
S'Snehasis Das'
tp20
a(S'100000475997001'
S'Mukundraj Sarvade'
tp21
a(S'100000431260470'
S'Jitendra Narayan'
tp22
a(S'100003782557447'
S'Jagat Bahadur Singh'
tp23
a(S'100000725674375'
S'Gyaneshwar Vatsyayan'
tp24
a(S'100001080217821'
S'Mishra Ashutosh'
tp25
a(S'100002709760822'
S'Balwant Kaur'
tp26
a(S'100005727552323'
S'Anubhooti Bhatnagar'
tp27
a(S'1334621884'
S'Rupsona Gramin'
tp28
a(S'1336357881'
S'Krishana Kumar Pandey'
tp29
a(S'100001082603076'
S'Vini Sahu'
tp30
a(S'100002392391372'
S'Praveen Pandey'
tp31
a(S'100002236736148'
S'Avinash Anand'
tp32
a(S'100007569343489'
S'Nisha Mishra'
tp33
a(S'100002080333319'
S'Aditya Nigam'
tp34
a(S'100001686861226'
S'Rona Wilson'
tp35
a(S'100001211404638'
S'MuraleeDharan Raghavan'
tp36
a(S'100000775921396'
S'Tej Narayan Ojha'
tp37
a(S'100000008493318'
S'Devyani Bhardwaj'
tp38
a(S'555674716'
S'Xavier Dias'
tp39
a(S'100001506523999'
S'Rakesh Kumar Gupta'
tp40
a(S'642751798'
S'\\u0930\\u093e\\u091c\\u0940\\u0935 \\u0924\\u0928\\u0947\\u091c\\u093e'
tp41
a(S'1059309233'
S'Ranjana Padhi'
tp42
a(S'100001532566972'
S'Anand Sahare'
tp43
a(S'100001840985355'
S'Rajesh Ky'
tp44
a(S'1255907616'
S'Ravi Ranjan'
tp45
a(S'100001728289836'
S'Path Pradarshak Ngo'
tp46
a(S'100000064407044'
S'Shesh Dhar Tiwari'
tp47
a(S'100004250858865'
S'Chandra Shekhar Uma Shukla'
tp48
a(S'100001622722983'
S'Sandhya Tewari'
tp49
a(S'100001552312371'
S'Sharda Sinha'
tp50
a(S'100003260671969'
S'Amrendra Kumar Dablu'
tp51
a(S'100002258728248'
S'Prakash Mishra'
tp52
a(S'100004988713988'
S'Mahesh Joshi'
tp53
a(S'100001512585639'
S'Sushmita Dp'
tp54
a(S'100000278047000'
S'Sachin Raj Singh Chauhan'
tp55
a(S'752163687'
S'Paramjeet Bernad'
tp56
a(S'100002478098313'
S'Kaluram Sharma'
tp57
a(S'100000223839424'
S'Bharat Socl Net'
tp58
a(S'100003174873888'
S'Archana Priya'
tp59
a(S'100001655093282'
S'Nirmal Darshan'
tp60
a(S'100000615392133'
S'Sreedhar Ramamurthi'
tp61
a(S'100000096917365'
S'Veena Dwivedi'
tp62
a(S'100006561672002'
S'Balli Singh Cheema'
tp63
a(S'100000048125578'
S'Janpahal Ngo'
tp64
a(S'100001401825752'
S'Nandlal Sharma'
tp65
a(S'100002630962196'
S'Trimurti Sansthan'
tp66
a(S'1467398103'
S'Girijesh Tiwari'
tp67
a(S'710631498'
S'Ravi Agarwal'
tp68
a(S'100002488435259'
S'Baleshwar Pathak'
tp69
a(S'100000132892053'
S'Rohit Prajapati'
tp70
a(S'100001976889140'
S'\\u092a\\u0947\\u0902\\u0917\\u0941\\u0907\\u0928 \\u0939\\u093f\\u0902\\u0926\\u0940'
tp71
a(S'100000100782283'
S'\\u0936\\u093f\\u0935\\u093e\\u0928\\u0928\\u094d\\u0926 \\u0926\\u094d\\u0935\\u093f\\u0935\\u0947\\u0926\\u0940 \\u0938\\u0939\\u0930'
tp72
a(S'100000942346300'
S'Praxis India'
tp73
a(S'641313566'
S'Sanjay Kak'
tp74
a(S'100000874297189'
S'Beenita Meher'
tp75
a(S'100001351771958'
S'Adv Ashok Agarwal'
tp76
a(S'100001506227414'
S'Vinay Amber'
tp77
a(S'100001104952244'
S'Prathvipal Singh'
tp78
a(S'100002698528361'
S'Jagoree Sansthan'
tp79
a(S'100002296957544'
S'Arvijay Kumar'
tp80
a(S'1769316346'
S'Dharmvir Singh'
tp81
a(S'100001016988820'
S'Devesh Patel'
tp82
a(S'100000263723577'
S'Vina Bhatia'
tp83
a(S'100002555493089'
S'Shashikant Tiwari'
tp84
a(S'100001480584538'
S'Vinod Tyagi'
tp85
a(S'100001686613813'
S'Harish Thukral'
tp86
a(S'100002894207027'
S'Sneha Pandey'
tp87
a(S'100002675097481'
S'Globel Magaswargiya Bahuddeshiya Sanstha'
tp88
a(S'100001566707708'
S'Sanjeev Kumar'
tp89
a(S'680648384'
S'Amit Jagdhari'
tp90
a(S'100001619306227'
S'Hhbo Hyderabad Pakistan'
tp91
a(S'701527264'
S'Henri Tiphagne'
tp92
a(S'100003392761512'
S'Lokendra Bhartiya'
tp93
a(S'100007770781563'
S'Basant Kumar Bhatt'
tp94
a(S'650496417'
S'Preeti Sheth'
tp95
a(S'100000927772704'
S'Yugal Kishore Saran Shastri'
tp96
a(S'754020599'
S'Gazala Paul'
tp97
a(S'100002481575688'
S'Mangla Gauri'
tp98
a(S'100002297561146'
S'Prasen Spark'
tp99
a(S'100001282963977'
S'Samvedna Duggal'
tp100
a(S'1237162322'
S'Shruti Nagvanshi'
tp101
a(S'100001277146939'
S'Pearl India'
tp102
a(S'100000508777991'
S'Deshbandhu Np'
tp103
a(S'100000765698685'
S'Satish Thakur'
tp104
a(S'1220004231'
S'Ashraf Patel'
tp105
a(S'100002857404511'
S'Rakesh Srivastava'
tp106
a(S'100006791012381'
S'Sahyogi Ngo'
tp107
a(S'100001180351719'
S'Shubham Malviya'
tp108
a(S'100000524238823'
S'Sankalp Misra'
tp109
a(S'100002318884835'
S'Alok Agnihotri'
tp110
a(S'554942635'
S'Shashi Bhushan'
tp111
a(S'100005418788051'
S'Amit Kumar'
tp112
a(S'100001061589402'
S'Riyaz Momin'
tp113
a(S'548383501'
S'Chetna Birje'
tp114
a(S'100002254854962'
S'Sangeetha Saravanan'
tp115
a(S'100000160346595'
S'Mahinder Pal'
tp116
a(S'821683481'
S'Ritupon Gogoi'
tp117
a(S'100004488702727'
S'Arvind Kumar Tyagi'
tp118
a(S'100000247443549'
S'Jai Shankar Choubey'
tp119
a(S'100001116121841'
S'Prakash Pathak'
tp120
a(S'100002570264507'
S'Meenakshi Barua'
tp121
a(S'100001479412403'
S'Suryanand Suryakar'
tp122
a(S'100000224390835'
S'Dheeraj Kumar'
tp123
a(S'100000763750492'
S'Zakir Kazi'
tp124
a(S'100000325907198'
S'Jawari Mal Parakh'
tp125
a(S'725114839'
S'Rahul Manav'
tp126
a(S'100003673566864'
S'Lekhraj Nauriyal'
tp127
a(S'510385533'
S'Vinay Singhal'
tp128
a(S'100002141425302'
S'Saket Kumar'
tp129
a(S'100003712790669'
S'Ashangthit-Kshetra Kaamgar Sangthan'
tp130
a(S'1324517376'
S'Giriraj Sharan Agrawal'
tp131
a(S'100000764014367'
S'Saksham Delhi'
tp132
a(S'1558056645'
S'Ajit Kumar'
tp133
a(S'100003644613941'
S'Sachchida Singh Rana'
tp134
a(S'100002652881371'
S'Kiran Jaideep'
tp135
a(S'100000708954154'
S'Ashok Kumar'
tp136
a(S'100003738711571'
S'Dalchand Bardele'
tp137
a(S'100000322849231'
S'Arvind Mishra'
tp138
a(S'100002106610070'
S'Vyas Muni Tiwari'
tp139
a(S'100001733838094'
S'Shashi Kant'
tp140
a(S'1365272234'
S'Divikramesh Ramesh'
tp141
a(S'100001998223696'
S'Dhruv Gupt'
tp142
a(S'100000356509100'
S'Anil Rai'
tp143
a(S'100002505681477'
S'Theway Trust'
tp144
a(S'100002104093966'
S'Arvind Kejriwal'
tp145
a(S'100000813781955'
S'Cornelius Baxla'
tp146
a(S'100000489279452'
S'Ambarish Srivastava'
tp147
a(S'684968601'
S'Jaya Bharti'
tp148
a(S'100001217636551'
S'Kapil Deo Mishra'
tp149
a(S'100000611393735'
S'Rajeshkannaa Lakshmanan'
tp150
a(S'100002085627451'
S'Sanjay Singh'
tp151
a(S'100004327835956'
S'Deepak Singh Kathayat'
tp152
a(S'100002038001055'
S'Virji Vaghela'
tp153
a(S'100003612615769'
S'Neeraj Shukla'
tp154
a(S'100000576870571'
S'Akanksha Sonker'
tp155
a(S'100005193964368'
S'Aditya Kushwaha'
tp156
a(S'100002120338902'
S'Anil Srivastava'
tp157
a(S'100001628622825'
S'Anurag Anant'
tp158
a(S'100006975965720'
S'Bandana Bishwas'
tp159
a(S'1717716725'
S'Naval Kant Sinha'
tp160
a(S'100001119309792'
S'Vismay Basu'
tp161
a(S'100002429375999'
S'Ngo Ganga Sagar Harleen'
tp162
a(S'100003062246938'
S'Naveen Dubey'
tp163
a(S'100000491232612'
S'Asaithambi Sasi'
tp164
a(S'100001691233057'
S'Ravi Shankar Agnihotri'
tp165
a(S'100002845404097'
S'Surender Singhal'
tp166
a(S'100001203993371'
S'Atul Arora'
tp167
a(S'100001791688949'
S'Amit Vishwakarma'
tp168
a(S'100002344921872'
S'Sanjay Sharma'
tp169
a(S'100001341332903'
S'DrAnita Thakker'
tp170
a(S'100005104205650'
S'Upendra Kushwaha'
tp171
a(S'100001890144049'
S'Sandeep Tiwari'
tp172
a(S'1270939211'
S'Sandeep Gaur'
tp173
a(S'100000689479711'
S'Ashok Prakash'
tp174
a(S'100002842362573'
S'Sanjay Kumar Jaiswal'
tp175
a(S'100006266773244'
S'Bishambhar Patel'
tp176
a(S'100003043999381'
S'Parthsarthi Jena'
tp177
a(S'100001462851684'
S'Koshish Charitable Trust'
tp178
a(S'100002534084751'
S'Ak Singh'
tp179
a(S'100000595180917'
S'Maya Mrig'
tp180
a(S'100005543558873'
S'Marutisuzuki Workersunion'
tp181
a(S'100001802050283'
S'Vijoykant Sinha'
tp182
a(S'100001906812341'
S'Digamber Digamber'
tp183
a(S'1766485575'
S'Amit Anand'
tp184
a(S'100000326929483'
S'Seela M Mahapatra'
tp185
a(S'1829963003'
S'Neeraj Daiya'
tp186
a(S'100000847828557'
S'Prabha Rokade'
tp187
a(S'100002646717712'
S'Pankaj Sharma'
tp188
a(S'100001356316736'
S'Wasmi Zaheer Naqvi'
tp189
a(S'1279934175'
S'Kavita Krishnan'
tp190
a(S'100003183758383'
S'Chander Pal Gupta'
tp191
a(S'100000529032245'
S'Arun Srivastava'
tp192
a(S'100000673858525'
S'Nirmala Putul'
tp193
a(S'663816349'
S'Srijan Nandan'
tp194
a(S'100007593669823'
S'Udai Narain Rai'
tp195
a(S'100002434162076'
S'Ei Je Ami'
tp196
a(S'100001384573303'
S'Jai Prakash Kardam'
tp197
a(S'1822806159'
S'Mahesh Trivedi'
tp198
a(S'100001090518275'
S'Nai Dishayen'
tp199
a(S'684152372'
S'G Naga Saibaba'
tp200
a(S'100000133787038'
S'Himanshu Kumar'
tp201
a(S'1080957507'
S'Anil Kumar Gupta'
tp202
a(S'100003374106849'
S'Sk Akbar Ali'
tp203
a(S'534988846'
S'Shail Agrawal'
tp204
a(S'100002523009079'
S'Preeti Srivastava'
tp205
a(S'100004504059786'
S'Sandhya Pandey'
tp206
a(S'100001639699771'
S'Meena Pandey'
tp207
a(S'596031186'
S'Bobby Kunhu'
tp208
a(S'100001512771365'
S'Brijraj Singh'
tp209
a(S'100001997486984'
S'LaptopCare Lciit'
tp210
a(S'1851211013'
S'Vinod Tiwari'
tp211
a(S'1118006982'
S'Niraj Singh'
tp212
a(S'100000700476563'
S'Chandranath Dani'
tp213
a(S'100001299122905'
S'Ramjeet Rai'
tp214
a(S'100004334924384'
S'Saakhee Journal'
tp215
a(S'100000531814295'
S'Souparna Lahiri'
tp216
a(S'100006919452745'
S'Sidharth Raj'
tp217
a(S'100003173563881'
S'Shikha Singh'
tp218
a(S'100001939777854'
S'Surya Prakash'
tp219
a(S'100002217515050'
S'Suhanee Saxena'
tp220
a(S'100001101176535'
S'Seruds Ngo India'
tp221
a(S'100001817702775'
S'Sudhir Mane'
tp222
a(S'100004363842995'
S'Bhavna Chauhan'
tp223
a(S'100001397627679'
S'Dharmender Yadav'
tp224
a(S'1134564737'
S'Sandeep Pawar'
tp225
a(S'714520002'
S'Priyanka Dale'
tp226
a(S'100001347504731'
S'Abhay Kumar Choudhary'
tp227
a(S'100001498141884'
S'Jai Prakash Tripathi'
tp228
a(S'565268709'
S'Lalit Batra'
tp229
a(S'100000591544788'
S'Gangi Reddy'
tp230
a(S'658768051'
S'Mamta Malik'
tp231
a(S'100000763196046'
S'Anoop Aakash Verma'
tp232
a(S'100002882066705'
S'Mamta Malik'
tp233
a(S'100002390506818'
S'Ashu Verma'
tp234
a(S'100002334596992'
S'Chetan Abhinendra Kumar'
tp235
a(S'100001226011139'
S'Sitaram Singh'
tp236
a(S'100003588147037'
S'Anil Mahapatra'
tp237
a(S'100000237425196'
S'Pankaj Anand'
tp238
a(S'100004745043497'
S'Csds Delhi'
tp239
a(S'695847772'
S'Pramod Kumar'
tp240
a(S'777138660'
S'Shahana Bhattacharya'
tp241
a(S'1202692740'
S'Dinesh Mishra'
tp242
a(S'100001224025607'
S'Vijay Pal'
tp243
a(S'1716351753'
S'Navneet Bedar'
tp244
a(S'100003658785210'
S'Prabhu Dayal Sharma'
tp245
a(S'100002995203620'
S'Reena Praveen Kumar'
tp246
a(S'1369507888'
S'Melina Roy'
tp247
a(S'1242351789'
S'Rajesh Katiyar'
tp248
a(S'100002018582564'
S'Rajesh Pratap Singh'
tp249
a(S'1240997147'
S'Nutan Tsunami Thakur'
tp250
a(S'100002292326796'
S'Devendra Bahuguna'
tp251
a(S'1384082184'
S'Geeta Shree'
tp252
a(S'100004531143220'
S'Sitaram Sharma Chetan'
tp253
a(S'100000731286704'
S'Sneha Chauhan'
tp254
a(S'100004500120306'
S'Meraj Ahmad'
tp255
a(S'100001138752936'
S'Kishan Kaljayee'
tp256
a(S'100002503595920'
S'Asra Khan'
tp257
a(S'617253213'
S'Prof Swapan Garain'
tp258
a(S'100000611341602'
S'Praveen Godania'
tp259
a(S'1531430733'
S'Neeraj Pathak'
tp260
a(S'100003939216260'
S'Sangharsh E-Journal'
tp261
a(S'100003240474599'
S'Manoj Katiyar'
tp262
a(S'100003200978949'
S'Shailesh Shailesh Kumar Singh'
tp263
a(S'522278371'
S'Shakil Ahmed'
tp264
a(S'100000338362106'
S'Debasish Mukherjee'
tp265
a(S'100003100080499'
S'Suresh Raikwar'
tp266
a(S'100006964591912'
S'Juhi Gupta'
tp267
a(S'100001798931424'
S'Jagdish Kinjalk'
tp268
a(S'100003993837470'
S'Manveer Singh'
tp269
a(S'100003459956378'
S'Pradhyuman Vaghela'
tp270
a(S'548288259'
S'Kaustuv K Bandyopadhyay'
tp271
a(S'100002201580598'
S'Prem Negi'
tp272
a(S'1834816544'
S'Harish K. Patel'
tp273
a(S'100000437084685'
S'Ram Murat'
tp274
a(S'610238596'
S'Rakesh Khanna'
tp275
a(S'100002198570986'
S'Triloki Upadhyay'
tp276
a(S'1425286142'
S'Vaibhav Kant Adarsh'
tp277
a(S'100000688221007'
S'Sanjay Rokade'
tp278
a(S'100000567411665'
S'RN Tiwari'
tp279
a(S'556276561'
S'Ashita Mittal'
tp280
a(S'100001841730822'
S'Yogesh Kumar'
tp281
a(S'100005913219264'
S'Zakir Azmi'
tp282
a(S'100001593832727'
S'Sudeep Kumar Shrivastava'
tp283
a(S'100000177438781'
S'Shishir Kr Upadhyay'
tp284
a(S'630152884'
S'Vidya Bhushan Rawat'
tp285
a(S'1132407954'
S'Deshkal India'
tp286
a(S'100003280265831'
S'\\u091c\\u0928 \\u092a\\u0925'
tp287
a(S'1237157190'
S'Shalesh Kumar Singh'
tp288
a(S'100003762779192'
S'Sunita Narang'
tp289
a(S'1450677519'
S'Monika Saxena'
tp290
a(S'100002387942278'
S'Young Gandhians'
tp291
a(S'100000287714836'
S'\\u090f\\u0938.\\u092a\\u0940. \\u0938\\u093f\\u0902\\u0939'
tp292
a(S'100002030548468'
S'Mazher Hussain'
tp293
a(S'100000188418718'
S'Nikhil RK'
tp294
a(S'100003640171742'
S'Nostsvu Nhf'
tp295
a(S'804527837'
S'Camille Van Neer'
tp296
a(S'100002511714595'
S'\\u092e\\u0943\\u0926\\u0941\\u0932\\u093e \\u0936\\u0941\\u0915\\u094d\\u0932\\u093e'
tp297
a(S'100000743761628'
S'Anil Chamadia'
tp298
a(S'100001344605325'
p299
S'\\u0938\\u093e\\u0939\\u093f\\u0924\\u094d\\u092f \\u0936\\u093f\\u0932\\u094d\\u092a\\u0940 \\u0908-\\u092a\\u0924\\u094d\\u0930\\u093f\\u0915\\u093e'
tp300
a(S'100002442745845'
S'Amrik Singh Bungar'
tp301
a(S'100005850914003'
S'Binayak Sen'
tp302
a(S'1277259183'
S'Uttama Dixit'
tp303
a(S'100000644539567'
S'Parmod Kumar'
tp304
a(S'711520087'
S'Stalin K. Padma'
tp305
a(S'517381953'
S'Divya Mathur'
tp306
a(S'100008319000607'
S'Sangita Gupta'
tp307
a(S'1451273201'
S'Kuldeep C Verma'
tp308
a(S'100001626414329'
S'Kumar Uttam'
tp309
a(S'1041416398'
S'Sasmita Mahapatra'
tp310
a(S'652639214'
S'Machhindra Gojame'
tp311
a(S'100000697076884'
S'Suresh Prasad'
tp312
a(S'100001206675801'
S'Raghu Thakur'
tp313
a(S'100002243344259'
S'Ashok Nanda-rebel'
tp314
a(S'100000794306086'
S'Ankit Singh'
tp315
a(S'1640655794'
S'Saptarshi Dutt'
tp316
a(S'1153981790'
S'DrArvind Mishra'
tp317
a(S'1010629554'
S'\\u0930\\u0935\\u093f \\u0936\\u0902\\u0915\\u0930'
tp318
a(S'100000509068086'
S'DrSagar Jnu'
tp319
a(S'100003277952793'
S'Santosh Garg'
tp320
a(S'100000698505480'
S'Vibhuti Patel'
tp321
a(S'1195557473'
S'Jai Kaushal'
tp322
a(S'1058419644'
S'Santosh Kumar'
tp323
a(S'100002470294193'
S'Ramesh Rai'
tp324
a(S'1168676554'
S'Saurabh Pandey'
tp325
a(S'100000816566096'
S'Neelabh Ashk'
tp326
a(S'100002544617902'
S'Dharmender Yadev Lokadhikar'
tp327
a(S'100000298383240'
S'Rajeev Kumar'
tp328
a(S'100004332042663'
S'Upashana Chatterjee'
tp329
a(S'100002690958648'
S'\\u092f\\u093e\\u092f\\u093e\\u0935\\u0930\\u0940 \\u0939\\u093f\\u0902\\u0926\\u0940 \\u092e\\u093e\\u0938\\u093f\\u0915 \\u092a\\u0924\\u094d\\u0930\\u093f\\u0915\\u093e'
tp330
a(S'1556599751'
S'Rafi Malek'
tp331
a(S'746250412'
S'Gratian Vas'
tp332
a(S'100002673773445'
S'Alpana Suhasini'
tp333
a(S'100004648053204'
S'Yuva Urban'
tp334
a(S'1140262147'
S'Vijay Gaur'
tp335
a(S'100001894125623'
S'\\u092e\\u0939\\u0947\\u0936 \\u0938\\u093f\\u0902\\u0939'
tp336
a(S'100005178310022'
S'Pushpendra Tripathi'
tp337
a(S'100000360704383'
S'Anoop Sharma'
tp338
a(S'100003051920009'
S'DrPushplata Adhiwaqta'
tp339
a(S'1015704482'
S'Shant Prakash Jatav'
tp340
a(S'100003477883342'
S'Supriya Mukherjee'
tp341
a(S'100003634972363'
S'Swati Sathe'
tp342
a(S'100001709654885'
S'Shakti Anand Kanaujiya'
tp343
a(S'100002757203472'
S'Ngo Sahyogi'
tp344
a(S'100001951863160'
S'Urmila Urmi'
tp345
a(S'100000604752971'
S'Siddharth Kalhans'
tp346
a(S'100003821344616'
S'Manish Jairath'
tp347
a(S'1384111972'
S'Deepak Kabir'
tp348
a(S'100002164547660'
S'Ram Mohan'
tp349
a(S'100004793190730'
S'Bhaskar Sahoo'
tp350
a(S'100000281818003'
p351
S'Baanee Sharad'
tp352
a(S'740119142'
S'Lok Kala Manch'
tp353
a(S'100002433505978'
S'Rajiv Garg'
tp354
a(S'778280230'
S'Uday Prakash'
tp355
a(S'100004135085449'
S'Chitranjan Singh'
tp356
a(S'100000643071645'
S'Amar Singh Tanwar'
tp357
a(S'100002395738546'
S'Raunaque Afroz'
tp358
a(S'100002964132524'
S'Susrusha Ngo'
tp359
a(S'100001557129138'
S'Anil Pandey'
tp360
a(S'100002829263267'
S'Richa Srinet'
tp361
a(S'649111275'
S'Lalit Kumar'
tp362
a(S'100000312395529'
S'Mukul Shrivastava'
tp363
a(S'1234418184'
S'Ravindra Patwal'
tp364
a(S'100002290572741'
S'Cact India'
tp365
a(S'752413675'
S'Mathai Kochuparampil'
tp366
a(S'100001587247397'
S'Pranav Kumar'
tp367
a(S'689848215'
S'Sajad Hussain'
tp368
a(S'100001613841354'
p369
S'Avinash Mishra'
tp370
a(S'100001667093969'
S'Sharafat Ali'
tp371
a(S'1280225807'
S'Ramendra Chakarwarti'
tp372
a(S'100002846273234'
S'Krishna Kumar Singh'
tp373
a(S'100000949984355'
S'Priyadarshini Tiwari'
tp374
a(S'100000721364836'
S'Suryanarayan Bhattacharya'
tp375
a(S'1511885809'
S'Manasi Dash'
tp376
a(S'100002732785916'
S'Prashant Dubey'
tp377
a(S'100002711588723'
S'Mastram Singh Ghosh'
tp378
a(S'100000472283758'
S'\\u0936\\u0936\\u093f\\u092d\\u0942\\u0937\\u0923 \\u0926\\u094d\\u0935\\u093f\\u0935\\u0947\\u0926\\u0940'
tp379
a(S'100000711181462'
S'Satender Kumar'
tp380
a(S'1016890852'
S'DrSanjeev Kumar'
tp381
a(S'100001511816259'
S'Urmila Shirish'
tp382
a(S'100002246874687'
S'Reema Lamba'
tp383
a(S'100002131160365'
S'Grant Guru'
tp384
a(S'1171398818'
S'Abha Khetarpal'
tp385
a(S'100000599285238'
S'Haji Moin Malek'
tp386
a(S'100002917353444'
S'Mehtab Singh Achal'
tp387
a(S'100001413251290'
S'Ilina Sen'
tp388
a(S'100000726550111'
S'Ramesh Gongadi'
tp389
a(S'100000019402228'
S'Vijayeta Rajkumari'
tp390
a(S'100004735266326'
S'Karimnagar Childline Line'
tp391
a(S'100000052953770'
S'Sanjay Bairwa'
tp392
a(S'1253226000'
S'Narender Kumar'
tp393
a(S'100003024775236'
S'Rani Sharma'
tp394
a(S'100000126888122'
S'Neela Prasad'
tp395
a(S'100003342788533'
S'Sharmili Basu'
tp396
a(S'100004833333992'
S'Rashmi Ranjan Jena'
tp397
a(S'100000076131312'
S'Jairaj Singh'
tp398
a(S'100001272250480'
S'Jnu Bhojpuri Manch'
tp399
a(S'100001259013174'
S'Yogendra Tnb'
tp400
a(S'100003316005391'
S'Priyankaa Srivastava'
tp401
a(S'100001749540001'
S'Priyadarshini Priya'
tp402
a(S'1686800856'
S'Vandana Rag'
tp403
a(S'100001861456422'
S'Bal Adhikar Andolan'
tp404
a(S'100000831882140'
S'Shruti Jain'
tp405
a(S'100000987149019'
S'Brij Mohan'
tp406
a(S'100000302716893'
S'Upendra Prasad'
tp407
a(S'1739601444'
S'Karan Singh'
tp408
a(S'668633759'
S'Shivani Gautam Bhardwaj'
tp409
a(S'100000470297316'
S'Jayanta Sengupta'
tp410
a(S'100002356342228'
S'Dr-Ashok Kumar'
tp411
a(S'100004929003465'
S'\\u092a\\u0902\\u0915\\u091c \\u0924\\u094d\\u092f\\u093e\\u0917\\u0940'
tp412
a(S'100004481919928'
S'Kailash Chandra'
tp413
a(S'100000231953308'
S'Prabal Pratap Shahi'
tp414
a(S'100001691384183'
S'Ram Kumar'
tp415
a(S'100001021958544'
S'Jarnail Singh'
tp416
a(S'100002506847568'
S'Deepak Mishra Classes Dmc'
tp417
a(S'1471961072'
S'Leena Malhotra'
tp418
a(S'100000532243965'
S'Shekhar Arjun'
tp419
a(S'100001143079301'
S'Kiran Shaheen'
tp420
a(S'1483513818'
S'Javed Khan'
tp421
a(S'100001618872714'
S'Koustav Mondal'
tp422
a(S'649772176'
S'\\u0930\\u093e\\u0939\\u0941\\u0932 \\u0926\\u0947\\u0935'
tp423
a(S'100002200338094'
S'Ashok Malviy'
tp424
a(S'100002706724762'
S'Azhar Ali'
tp425
a(S'100003949500402'
S'Mamta Tiwari'
tp426
a(S'100003564155754'
S'Abdul Jabbar Khaskheli'
tp427
a(S'100004701250995'
S'\\u0915\\u0941\\u0936\\u0940\\u0928\\u093e\\u0930\\u093e \\u0909\\u091a\\u094d\\u091a \\u0905\\u0927\\u094d\\u092f\\u092f\\u0928 \\u0938\\u0902\\u0938\\u094d\\u0925\\u093e\\u0928'
tp428
a(S'1427123365'
S'Rahul Sahyog'
tp429
a(S'1297287159'
S'Ark Delhi'
tp430
a(S'100001926798096'
S'Swarna Choudhary'
tp431
a(S'100003220782425'
S'Anil Sharma'
tp432
a(S'100001820915025'
S'Gyanen Khumbongmayum'
tp433
a(S'100001501254411'
S'Geeta Rawat'
tp434
a(S'100003965993677'
S'Preeti Verma'
tp435
a(S'100000674297683'
S'Neelabh Mandav'
tp436
a(S'100001302660644'
S'Sumant Bhattacharya'
tp437
a(S'663259523'
S'Anup Kumar Srivastava'
tp438
a(S'100004461849864'
S'Prem Chand'
tp439
a(S'100000513729451'
S'Sushila Puri'
tp440
a(S'1413765982'
S'Lindsay Mckee'
tp441
a(S'100000788737379'
S'Priya Ranjan Sahoo'
tp442
a(S'650046928'
S'Bonojit Hussain'
tp443
a(S'1200303520'
S'Qudsia Anjum'
tp444
a(S'100002083839974'
S'We Care Trust Subramanian'
tp445
a(S'100000893925856'
S'Jagjeet Singh'
tp446
a(S'1003316577'
S'Sanjay Nagral'
tp447
a(S'1564650937'
S'Aalok Punj'
tp448
a(S'100002713218889'
S'Nisar Ali Sayyed'
tp449
a(S'100002980937344'
S'Human Rights'
tp450
a(S'652177624'
S'Durba Ghose'
tp451
a(S'100001550685686'
S'Tamarind Tree'
tp452
a(S'100001503718584'
S'Devender Kumar Sharma Arun'
tp453
a(S'100003166596635'
S'Ngo PrayasKi EkAsha'
tp454
a(S'100001463235440'
S'Pawan Bansal'
tp455
a(S'743073184'
S'Ben Wisner'
tp456
a(S'100000414248072'
S'Rajesh Singh'
tp457
a(S'710824020'
S'Anil Singh'
tp458
a(S'100000488071711'
S'Tabassum Jahan'
tp459
a(S'100000196661265'
S'Karan Singh Chauhan'
tp460
a(S'100004467279853'
S'Anjna Pakhi'
tp461
a(S'100001331738582'
S'Ramji Rai'
tp462
a(S'1166274654'
S'Sonam Kumari'
tp463
a(S'100003715857262'
S'Kishor Gedam'
tp464
a(S'100000927081388'
S"\\u092e\\u0939\\u093e\\u092d\\u0942\\u0924 '\\u091a\\u0928\\u094d\\u0926\\u0928 \\u0930\\u093e\\u092f'"
tp465
a(S'100000755870867'
S'Om Prakash Singh'
tp466
a(S'1206219229'
S'Rajni Tilak'
tp467
a(S'100000555845876'
S'Saurav Badoni'
tp468
a(S'1286316886'
S'Sudha Arora'
tp469
a(S'1322474290'
S'Maju Varghese'
tp470
a(S'100001116517510'
S'Priyadarshi Priyam'
tp471
a(S'1117313682'
S'Bidisha Fouzdar'
tp472
a(S'1511702436'
S'Manoj Kumar'
tp473
a(S'100002120259902'
S'Pankaj Kumar Pandey'
tp474
a(S'1196726964'
S'Shakti Prakash'
tp475
a(S'100000753886338'
S'Birendra Kumar Mahto'
tp476
a(S'100002630346351'
S'Shashi Kant Pathak'
tp477
a(S'100000656578911'
S'Zindabaad Sathiyo'
tp478
a(S'100000220343408'
S'Vipin Bihari Pathak'
tp479
a(S'100000878652604'
S'Sharafat Ali'
tp480
a(S'100003012466572'
S'Prakash Srivastava'
tp481
a(S'100003669686504'
S'Mohan Bansal'
tp482
a(S'736312223'
S'Prakash Koshy'
tp483
a(S'100004003644249'
S'Ngo Wacup'
tp484
a(S'100003774442786'
S'\\u0938\\u0941\\u0928\\u0940\\u0932 \\u092d\\u0941\\u091f\\u093e\\u0928\\u0940'
tp485
a(S'100004681261775'
S'Sushil Shah'
tp486
a(S'1258574412'
S'Amit Singh'
tp487
a(S'100000064206570'
p488
S'\\u0906\\u0936\\u0940\\u0937 \\u0926\\u0947\\u0935\\u0930\\u093e\\u0921\\u093c\\u0940'
tp489
a(S'100003212312452'
S'Iafot India'
tp490
a(S'100006522875229'
S'Ashwani Pandey'
tp491
a(S'1012406120'
S'Sujeet Kumar Jha'
tp492
a(S'100004652433875'
S'Chandramni Anand'
tp493
a(S'100001947415226'
S'Renu Manav'
tp494
a(S'100003282527762'
S'Sosay Way'
tp495
a(S'1850195269'
S'Alka Sarwat Mishra'
tp496
a(S'1214755614'
S'Satyam Varma'
tp497
a(S'100000349699905'
S'Vasant Shendye'
tp498
a(S'548795096'
S'Chakra Dhar'
tp499
a(S'725104778'
S'Dolly Verma'
tp500
a(S'100002367637023'
S'Dreamcatchers India'
tp501
a(S'100001908264528'
S'Care Foudation'
tp502
a(S'100002828117000'
S'Navendu Navin'
tp503
a(S'100002515581836'
S'Arvind Redkar'
tp504
a(S'100000602210346'
S'Ravindra K Das'
tp505
a(S'100001834123354'
S'New Socialist Initiative Nsi'
tp506
a(S'100003988761890'
S'Sanjay Sahay'
tp507
a(S'737168349'
S'Babu Lal Sharma'
tp508
a(S'100001145224362'
S'H L Dusadh Dusadh'
tp509
a(S'100001290423267'
S'Narendra Gupta'
tp510
a(S'1029642916'
S'Mashkoor Alam'
tp511
a(S'1050793510'
S'Danish Ahmad Khan'
tp512
a(S'100002349995155'
S'Huwad Trust'
tp513
a(S'100002086532254'
S'DrPritish Sabyasachi Mohanty'
tp514
a(S'100000700670021'
S'Gouri Nath'
tp515
a(S'100000549872048'
S'Ozg India'
tp516
a(S'100005229486049'
S'Pooja Malviya'
tp517
a(S'651030200'
S'Rashid Narain Shukul'
tp518
a(S'100004779811259'
S'Tikeshwar Prasad Janghel'
tp519
a(S'100001887972031'
S'Ajay Anand'
tp520
a(S'100000466460928'
S'\\u092a\\u093f\\u0902\\u0915\\u0940 \\u0936\\u093e\\u0939'
tp521
a(S'1066336994'
S'Rajesh Kumar Pandey'
tp522
a(S'100000552551326'
S'Palash Biswas'
tp523
a(S'100001787537775'
S'\\u092a\\u0941\\u0937\\u094d\\u092a\\u0947\\u0928\\u094d\\u0926\\u094d\\u0930 \\u092b\\u093e\\u0932\\u094d\\u0917\\u0941\\u0928'
tp524
a(S'570030696'
S'Sheeba Aslam Fehmi'
tp525
a(S'100004270509038'
S'Puspanjali Mishra'
tp526
a(S'100004967077601'
S'Pragatisheelmahila Ekta Kendra'
tp527
a(S'100002642678300'
S'Dharmvir Singh'
tp528
a(S'100004045458047'
S'Kailash Nauriyal'
tp529
a(S'1349105707'
S'Ullas Urs'
tp530
a(S'100000797539532'
S'Mukesh Rajak'
tp531
a(S'562741733'
S'Amitabh Behar'
tp532
a(S'1744318603'
S'Ruma Dutt'
tp533
a(S'1357980742'
p534
S'Rajeev Ranjan'
tp535
a(S'100005116393361'
S'Stree Mukti Sangathan'
tp536
a(S'100000885020555'
S'Ananyo Mukherjee'
tp537
a(S'100001519173061'
S'Ajay Tiwari'
tp538
a(S'100000146033986'
S'Manoj Prasad'
tp539
a(S'100001807237860'
S'Ashok Pandey'
tp540
a(S'100005500086903'
S'Anupam Pandey'
tp541
a(S'100000704682559'
S'Anand Soti'
tp542
a(S'1593855712'
S'Padma Singh'
tp543
a(S'100000627815021'
S'Veerendra Kumar'
tp544
a(S'1153218185'
S'Roma Malik'
tp545
a(S'100007944843878'
S'Johnson Kalappila'
tp546
a(S'100002903210383'
S'Nidi Odisha'
tp547
a(S'100000565572388'
S'Swati Thakur'
tp548
a(S'100000304634647'
S'Rajeev Ranjan'
tp549
a(S'100000599952829'
S'Shailja Pathak'
tp550
a(S'603740952'
S'Anshu Gupta'
tp551
a(S'1582405404'
S'Mukesh Popli'
tp552
a(S'100003009768195'
S'Ajay Janmejay'
tp553
a(S'1699825541'
S'Buddhi Nath Mishra'
tp554
a(S'100003608570874'
S'Rekha Verma'
tp555
a(S'100001336478618'
S'Aar Ravi Vidrohee'
tp556
a(S'100001995711598'
S'Prerna Ngo'
tp557
a(S'100003035055351'
S'Indo-Global India'
tp558
a(S'100000010641833'
S'Rajeshwar Singh Thakur'
tp559
a(S'100002498172071'
S'\\u0906\\u0915\\u093e\\u0901\\u0915\\u094d\\u0937\\u093e \\u0938\\u0947\\u0920'
tp560
a(S'100001745531023'
S'\\u0938\\u093f\\u0926\\u094d\\u0927\\u093e\\u0930\\u094d\\u0925 \\u092c\\u093e\\u091c\\u092a\\u0947\\u092f\\u0940'
tp561
a(S'100001025082403'
S'\\u092a\\u094d\\u0930\\u0940\\u0924\\u093f \\u0938\\u0941\\u0930\\u093e\\u0928\\u093e'
tp562
a(S'100003505661153'
S'Sunil Jadhav'
tp563
a(S'100004161489414'
S'Priyanka Verma'
tp564
a(S'709490021'
S'Shivnarayan Gour'
tp565
a(S'100002025177257'
S'Shravan Sharma'
tp566
a(S'1669501029'
S'Amrita Thakur'
tp567
a(S'564767582'
S'Taghi Farvar'
tp568
a(S'100000058409097'
S'Pramila Singh'
tp569
a(S'550216433'
S'Anuj Kumar'
tp570
a(S'100001202449823'
S'Savita Kumari'
tp571
a(S'100000189114785'
S'Anil Kumar'
tp572
a(S'741163097'
S'Anuradha Mandal'
tp573
a(S'100000479698783'
S'Vikalp Sansthan'
tp574
a(S'100002754065930'
S'Rajendra Sharma'
tp575
a(S'100003111666042'
S'Bhavna Kumari'
tp576
a(S'1287285882'
S'Putul Kumari'
tp577
a(S'100000255295801'
S'Delhi Heritage Walks'
tp578
a(S'100002496966276'
S'Nbnvs Ballia'
tp579
a(S'1197950744'
S'Arvind Kumar'
tp580
a(S'548759277'
S'Mini Mathew'
tp581
a(S'100001079717706'
S'Vani India'
tp582
a(S'100004075033959'
S'Latifa Giteli'
tp583
a(S'1338330269'
S'Rahima Khatun'
tp584
a(S'100001672377100'
S'Anil Rai'
tp585
a(S'100000691222645'
S'Rakesh Sinha'
tp586
a(S'100000594528816'
S'Suresh Sethu'
tp587
a(S'1375825675'
S'Raj Valmiki'
tp588
a(S'100000756770510'
S'Uma Journalist'
tp589
a(S'100002580578067'
S'Vinayak Bhishikar'
tp590
a(S'100003243603741'
S'Nikam Sanvi'
tp591
a(S'100003604439001'
S'Priti Maurya'
tp592
a(S'100001105405770'
S'Pradip Kumar Dhibar'
tp593
a(S'100002908133981'
S'Poonam Giri'
tp594
a(S'100000441281850'
S'Leeza Khushuboo'
tp595
a(S'1373897583'
S'\\u092a\\u0935\\u0928 \\u0938\\u093f\\u0902\\u0939 \\u092f\\u093e\\u0926\\u0935'
tp596
a(S'613447071'
S'Sharp Ngo Coordinator'
tp597
a(S'616973392'
S'Vijay Sharma'
tp598
a(S'100001407690991'
S'Pranav Kant Manglik'
tp599
a(S'1764774774'
S'Dubey Prakash'
tp600
a(S'100002134078446'
S'Chakmak Mag'
tp601
a(S'1030958032'
S'Ashima Khanna Singh'
tp602
a(S'100002707739137'
S'Suraj Paswan'
tp603
a(S'100004222176734'
S'Raghvendra Singh'
tp604
a(S'748324055'
S'Altaf Khan'
tp605
a(S'100002607245433'
S'Pooja Purwar'
tp606
a(S'100001663766547'
S'Winson Thomas'
tp607
a(S'100001300414847'
S'Asha Pandey Ojha'
tp608
a(S'100000882724109'
S'Joseph Gathia'
tp609
a(S'1352276443'
S'Soumen Ray'
tp610
a(S'100000373482579'
S'Surjit Singh Grover'
tp611
a(S'100003722064417'
S'Alpana Bhattacharjee'
tp612
a(S'100003012546380'
S'Sudhanshu Dwivedi'
tp613
a(S'100000603083864'
S'Bhavana Tiwari'
tp614
a(S'585607025'
S'Ganesh S H Puranik'
tp615
a(S'573908749'
S'Prashan Kumar Thakur'
tp616
a(S'1059065106'
S'Alok Ranjan'
tp617
a(S'100000761416691'
S'Sanjeev Shekhar'
tp618
a(S'1414058507'
S'Chauthi Duniya'
tp619
a(S'665077075'
S'Javed Naqi'
tp620
a(S'575713129'
p621
S'Prabhat Shunglu'
tp622
a(S'100000607027123'
S'\\u0930\\u091c\\u0928\\u0940\\u0936 \\u0915\\u0947 \\u091d\\u093e'
tp623
a(S'1511754375'
S'Neeraj Goswamy'
tp624
a(S'1520259684'
S'Laxmi Shankar'
tp625
a(S'1405527114'
S'Madhukar Rajput'
tp626
a(S'1543095840'
S'Gandhi Fellows'
tp627
a(S'1413498257'
S'\\u0930\\u093e\\u091c\\u0940\\u0935\\u0936\\u0902\\u0915\\u0930 \\u092e\\u093f\\u0936\\u094d\\u0930\\u093e \\u092c\\u0928\\u093e\\u0930\\u0938 \\u0935\\u093e\\u0932\\u0947'
tp628
a(S'100002342827460'
S'Shoshit Adhikar Manch'
tp629
a(S'100003024750900'
p630
S'Pragatisheel Vasudha'
tp631
a(S'100002258715000'
S'Rohit G Rusia'
tp632
a(S'100003581492290'
S'Prakasini Prakasiniktk'
tp633
a(S'1842880765'
S'Shashi Bhushan Pandit'
tp634
a(S'100000825373543'
S'Dhananjay Tiwari'
tp635
a(S'655717709'
S'Judith Smith'
tp636
a(S'1035268448'
S'Arvind Anjum'
tp637
a(S'100003694614187'
S'Vinod Kumar Vinod Kumar'
tp638
a(S'100002113017725'
S'Satish Kumar'
tp639
a(S'100001486983037'
S'Rama Shanker Tripathi'
tp640
a(S'100001787536394'
S'Arvind Anjum'
tp641
a(S'1018615235'
S'Kusum Lata'
tp642
a(S'100001573845809'
S'Ramjisharan Rai'
tp643
a(S'100000528953347'
S'\\u092a\\u0941\\u0916\\u0930\\u093e\\u091c Pukhraj \\u091c\\u093e\\u0901\\u0917\\u093f\\u0921\\u093c Jangid'
tp644
a(S'100003345372200'
S'Lion Rajendra Raghuwanshi'
tp645
a(S'100000938020239'
S'Rajesh Mishra'
tp646
a(S'100004226111369'
S'Saroj Pandey'
tp647
a(S'1515936452'
S'Andleeb Said'
tp648
a(S'1558869516'
S'Kimuza Delhi'
tp649
a(S'100003918722467'
S'Renu Saini'
tp650
a(S'1295781071'
S'Utpala Shukla'
tp651
a(S'503970112'
S'Gowhar Fazili'
tp652
a(S'580249917'
S'Digvijay Rajput'
tp653
a(S'100000841604182'
S'Sanoj Singh'
tp654
a(S'1157880855'
S'Chandy Bharti'
tp655
a(S'100003270129971'
S'Neetu Singh'
tp656
a(S'100000207849893'
S'Kirti Seth'
tp657
a(S'100002175607239'
S'Cacl Bangaluru Chapter'
tp658
a(S'100001649165737'
S'Naaz Ansari'
tp659
a(S'100000107608498'
S'Shambhunath Shukla'
tp660
a(S'100003595525487'
S'Sanjay Bharti'
tp661
a(S'100001633411090'
S'Babita Chaturvedi'
tp662
a(S'1270070503'
S'Satya Narayan'
tp663
a(S'100001801824823'
S'Vikas Trust Ngo'
tp664
a(S'100000605203716'
S'Shakti Vahini'
tp665
a(S'1300976266'
S'Basumatary Netaji'
tp666
a(S'1045868577'
S'Ashim Boral'
tp667
a(S'687447561'
S'Vidya Shah'
tp668
a(S'100005069380774'
S'Amjad Ali'
tp669
a(S'100002616616464'
S'Kailash Pandey'
tp670
a(S'100002257504010'
S'Naresh Chandra Naudiyal'
tp671
a(S'769837237'
S'Nikhil Anand Giri'
tp672
a(S'100002314741584'
S'DrBhim Rao Ambedkar'
tp673
a(S'1253937983'
S'Neena Sharma'
tp674
a(S'100002620738744'
S'Ranjana Singh'
tp675
a(S'100001160492854'
S'Khandelwal Braj'
tp676
a(S'100000160012370'
S'Jeevanand S Jeeva'
tp677
a(S'100000111517194'
S'Ashutosh Singh'
tp678
a(S'100003293875384'
S'Royal Jaat'
tp679
a(S'100000311916690'
S'Ds Rawat'
tp680
a(S'1175093295'
S'Prameela Kp'
tp681
a(S'100005262973115'
S'Ravinder Natak'
tp682
a(S'100000936894658'
S'Ajay Kashyap'
tp683
a(S'100000095991419'
S'Kiran Shaheen'
tp684
a(S'100002412788507'
S'Rangesh Bhardwaj'
tp685
a(S'1042914694'
S'Sailesh Mishra'
tp686
a(S'100001045965345'
S'Jag Jivan'
tp687
a(S'100001147058220'
S'Nitin R. Upadhyay'
tp688
a(S'1086772021'
S'Vivek Ranjan Shrivastava'
tp689
a(S'100005167200881'
S'Ramesh Rai'
tp690
a(S'100002519752548'
S'Dalit Lekhak Sangh'
tp691
a(S'100001540836127'
S'Dharmendra Singh'
tp692
a(S'100003092989482'
S'Divya Gautam'
tp693
a(S'100002830747689'
S'Subodh Sharma'
tp694
a(S'1435449953'
S'Anant Vijay'
tp695
a(S'100006205235529'
S'Voice Ngo'
tp696
a(S'1596593517'
S'Anandi Sharan'
tp697
a(S'679198661'
S'Bajrang Bali Singh'
tp698
a(S'1624012957'
S'Daya Shankar Patel'
tp699
a(S'100002502181180'
S'Arvind Kumar'
tp700
a(S'100000434089495'
S'Mohammad Shuja'
tp701
a(S'100003234286034'
S'Mediafor Ngo'
tp702
a(S'100000136694268'
S'Kameshwar Kamati'
tp703
a(S'1357994468'
S'Satish Kumar'
tp704
a(S'100001202095586'
S'Edu Wala'
tp705
a(S'100001792444473'
S'Govind Joshi'
tp706
a(S'1009202750'
S'Satya Chandan'
tp707
a(S'583223426'
S'Shree Prakash'
tp708
a(S'100008052150980'
S'Mahesh Tyagi'
tp709
a(S'100000118318410'
S'Tarun Kanti Bose'
tp710
a(S'100003101070328'
S'Om NanyAdi Raj'
tp711
a(S'100005600051441'
S'Mamta Varshney'
tp712
a(S'1710146609'
S'Saibal Baroi'
tp713
a(S'100004658022557'
S'Gujarat Dalit Sangthan'
tp714
a(S'1750695713'
S'Pankaj Mishra'
tp715
a(S'100000061605135'
S'Manisha Jain'
tp716
a(S'100001764232621'
S'Hayagriba Shadangi'
tp717
a(S'100000104135699'
p718
S'Abhishek Anand'
tp719
a(S'100000339959047'
S'Ramji Tiwari'
tp720
a(S'1198017176'
S'\\u0645\\u062d\\u0645\\u062f \\u0639\\u0635\\u064a\\u0641 \\u0644\\u0627\\u062e\\u0627\\u0646\\u064a'
tp721
a(S'1652207049'
S'Ashutosh Kumar'
tp722
a(S'100004183509914'
S'Priyanka Malviya'
tp723
a(S'100002161688961'
S'Amit Rana'
tp724
a(S'1546043363'
p725
S'Satyanand Nirupam'
tp726
a(S'100003796202305'
S'Anand Mohpal'
tp727
a(S'100003298787171'
S'Peoples Voice Ngo-human Rights'
tp728
a(S'100000463542428'
S'Kr Aman'
tp729
a(S'100001415462142'
S'Duraisamy Ravi'
tp730
a(S'100000282492904'
S'Prashant Anand'
tp731
a(S'100003314781821'
S'Prabhakar Mishra'
tp732
a(S'100005526753525'
S'Jksps Chitrakoot'
tp733
a(S'100000069560896'
S'Romesh Sahu'
tp734
a(S'100004152607027'
S'Arada Pk'
tp735
a(S'100005227411595'
S'Hmkp Madhyapradesh'
tp736
a(S'1259139242'
S'Rohit Dhyani'
tp737
a(S'100001517948404'
S'Shri Prakash Shukla'
tp738
a(S'100000889888100'
S'Ravindra Singh'
tp739
a(S'1796230479'
S'Mahender Singh'
tp740
a(S'100002999149194'
S'Vishwanth K N Nair'
tp741
a(S'100001857227986'
S'Priyanka Govekar'
tp742
a(S'100001171372982'
S'Wfs Delhi'
tp743
a(S'100002168930339'
S'Amalendu Upadhyaya'
tp744
a(S'612794055'
S'Meena Menon'
tp745
a(S'100002800045615'
S'Aarav Singh'
tp746
a(S'100002269445855'
S'Sanjeev Sagar'
tp747
a(S'100001620544195'
S'Sucheta De'
tp748
a(S'100005026837586'
S'Adnan Kafeel'
tp749
a(S'100006878821744'
S'Pawan Gupta'
tp750
a(S'1400231969'
S'Kishore Diwase'
tp751
a(S'635811254'
S'Shubhradeep Chakravorty'
tp752
a(S'100005862094051'
S'Apoorva Malviya'
tp753
a(S'100000157283776'
S'Ali Asghar'
tp754
a(S'1337242765'
S'Soumitra Roy'
tp755
a(S'100002795315729'
S'Naresh Chand'
tp756
a(S'100002113668958'
S'Anurag Malviya'
tp757
a(S'100000270181351'
p758
S'Subhash Chandra Kushwaha'
tp759
a(S'1011497939'
S'Somadri Sharma'
tp760
a(S'100000180645830'
S'Shiv Kumar Rai'
tp761
a(S'794484722'
S'Hilal Ahmed'
tp762
a(S'100003804717678'
S'Rajendra Tripathi'
tp763
a(S'100001337680354'
S'Arun Kumar Priyam'
tp764
a(S'1422542468'
S'Pardarshita India'
tp765
a(S'1311532541'
S'Hitendra Patel'
tp766
a(S'621852641'
S'Amitabh Pandey'
tp767
a(S'1470865693'
S'Hemant Malla'
tp768
a(S'100002353054524'
S'DrAshish Vashisht'
tp769
a(S'100004058133978'
S'\\u0906\\u0916\\u0930 \\u0936\\u092c\\u094d\\u0926 \\u0917\\u0942\\u0902\\u0925\\u0924\\u093e \\u0939\\u0942\\u0901'
tp770
a(S'1013663516'
S'Masijeevi Hindi'
tp771
a(S'100000648338671'
S'Anoop Tandon'
tp772
a(S'100001479391128'
S'Aparna Krishnan'
tp773
a(S'100003935944580'
S'Behavioural Sciences Cuk'
tp774
a(S'1632325217'
p775
S'\\u0930\\u0923\\u0927\\u0940\\u0930 \\u092d\\u093e\\u0930\\u0924'
tp776
a(S'100003178200514'
S'Jitendra Verma'
tp777
a(S'100002035630549'
S'Sangita Puri'
tp778
a(S'100000082787245'
S'Kanchan Bhardwaj'
tp779
a(S'1541727014'
S'Aarti Sharma'
tp780
a(S'100003268856755'
S'Pramod Shukla'
tp781
a(S'100000278213972'
S'Shamsudeen Abdulrahim'
tp782
a(S'100001167516218'
S'Kamruddin Saifi'
tp783
a(S'1208738684'
S'Uma Shanker Tiwary'
tp784
a(S'100000113586916'
p785
S'Ashish Tripathi'
tp786
a(S'100002107643017'
S'Sachin Kumar Jain'
tp787
a(S'1111935712'
S'Ritesh Mishra'
tp788
a(S'1038907112'
S'Priyamvad Ajaat'
tp789
a(S'100003856016697'
S'DrMahesh Chandra'
tp790
a(S'100003723023449'
S'Sanghmitra Wankhede'
tp791
a(S'100000603866890'
S'Abhishek Upadhyay'
tp792
a(S'1120941031'
S'A Ram Pandey'
tp793
a(S'100003382909249'
S'Aseem Satyadeo'
tp794
a(S'100000233895170'
S'Sandeep Minhas'
tp795
a(S'100002088363697'
S'\\u0906\\u0939\\u0902\\u0917 \\u0906\\u0939\\u0902\\u0917'
tp796
a(S'100002367579376'
S'Sahafi Akhilesh Bajpai'
tp797
a(S'100001145854453'
S'Mahila Samakhya Nainital'
tp798
a(S'100000572689167'
S'Swatantra Kumar'
tp799
a(S'100001222386150'
S'Pratibha Shinde'
tp800
a(S'100003305178512'
S'Jayesh Solanki'
tp801
a(S'100001263421994'
S'Mamta Kiran'
tp802
a(S'100000894547749'
S'Pankhuri Sinha'
tp803
a(S'100000020571070'
S'\\u0928\\u0935\\u0940\\u0928 \\u0930\\u093e\\u091c\\u0939\\u0902\\u0938 \\u092e\\u0921\\u093c\\u0935\\u093e \\u0935\\u093e\\u0932\\u0947'
tp804
a(S'100000178537906'
S'Mahisheya Gritsamad'
tp805
a(S'100003518325439'
S'Shabdyog Patrika'
tp806
a(S'100003939487749'
S'Mohammad Rafi'
tp807
a(S'100000689044638'
S'Dalit Feminism'
tp808
a(S'100000748090048'
S'Drvk Sharma'
tp809
a(S'100001275468410'
S'Anurag Sharma Chanderi'
tp810
a(S'100006468637442'
S'\\u091c\\u0928 \\u0938\\u0902\\u0938\\u094d\\u0915\\u0930\\u0923'
tp811
a(S'100002172298845'
S'Mona Lis'
tp812
a(S'100003192340228'
S'Syed Tanveer Haider Zaidi'
tp813
a(S'100001781098721'
S'Rohit Pathak'
tp814
a(S'100003240266889'
S'Anil Singh Somvanshi'
tp815
a(S'1830847783'
S'Raaj Bhagtani'
tp816
a(S'100001688801568'
S'Sonal Chopra'
tp817
a(S'100003709113335'
S'Mithlesh Jain'
tp818
a(S'100001357572684'
S'Mayank Agarwal'
tp819
a(S'100001743972177'
S'Suraj Upadhyay'
tp820
a(S'100001165328598'
S'Pradeep Priyadarshi'
tp821
a(S'100000079091453'
S'Faisal Anurag'
tp822
a(S'100002326408833'
S'Pehchan Delhi'
tp823
a(S'100000782930922'
S'Dinesh Kumar'
tp824
a(S'1070447265'
S'Nawab Uddin'
tp825
a(S'100001117655752'
S'Madhukar Ranchi'
tp826
a(S'577763877'
S'Anand Shukla'
tp827
a(S'100003894661671'
S'Vikas Narayan Upadhyay'
tp828
a(S'1544938539'
S'Ajay Kumar'
tp829
a(S'643029781'
S'Jamshed A. Siddiqui'
tp830
a(S'100004248222151'
S'Smet Ahmedabad India'
tp831
a(S'100002260825264'
S'Shashi Bhushan Singh'
tp832
a(S'100007550285949'
S'Jan Bhojpuri Manch'
tp833
a(S'100002577972408'
S'Vikram Pratap'
tp834
a(S'100000322254590'
S'Rajat Mitra'
tp835
a(S'1585994583'
S'\\u0938\\u093e\\u091c\\u093f\\u0926 \\u0936\\u0947\\u0916'
tp836
a(S'100003350097809'
S'Prem S. Verma'
tp837
a(S'100000926413583'
p838
S'Sarvesh Asthana'
tp839
a(S'100000890494702'
S'Bimal Prasad Pandia'
tp840
a(S'100001572120671'
S'Anil Sulabh'
tp841
a(S'100000931258369'
S'Inderaprastha Charitable Trust'
tp842
a(S'100000132897170'
S'Rahul Verma'
tp843
a(S'100000698594346'
S'Ratnesh Kumar Mishra'
tp844
a(S'739473932'
S'Arbind Sahay'
tp845
a(S'100007353067194'
S'Rebel Spark'
tp846
a(S'100002862879320'
S'Arvind Kumar Sambal'
tp847
a(S'100002193048420'
S'Zafar Khan'
tp848
a(S'100003124421561'
S'Udainarain Rai'
tp849
a(S'100002439634460'
S'Zubair Malik'
tp850
a(S'724857436'
S'Wesley D Ebenezer'
tp851
a(S'100003587814493'
S'Dalit Mitra'
tp852
a(S'691486413'
S'Kabir Khan'
tp853
a(S'1465797765'
S'Imtiyaz Mansuri'
tp854
a(S'100003903320225'
S'Rakesh Tiwari'
tp855
a(S'1491746139'
S'Gopikanta Ghosh'
tp856
a(S'100007553258988'
S'Alok Agarwal'
tp857
a(S'601157682'
S'Monika Singh'
tp858
a(S'100000196866193'
S'Parimal Kumar'
tp859
a(S'1465546456'
S'Sanjay K Pathak'
tp860
a(S'100002107137522'
S'Dimple Bhandare'
tp861
a(S'1056918865'
S'Stephen Ekka'
tp862
a(S'100002756679668'
S'Jagdish Vetale'
tp863
a(S'1781696199'
S'\\u0924\\u0928\\u0939\\u093e \\u0905\\u091c\\u092e\\u0947\\u0930\\u0940'
tp864
a(S'100003495684252'
S'Indu Singh Adv'
tp865
a(S'1557782012'
S'Gopal Menon'
tp866
a(S'100002363175714'
S'Ravi Ranjan Aisa'
tp867
a(S'100000219288772'
S'Kritian Delhi'
tp868
a(S'1059344668'
S'Satish Kumar'
tp869
a(S'533803347'
S'Vijay Rana'
tp870
a(S'100000298144576'
S'Neera Tyagi'
tp871
a(S'100002581860787'
S'Sharman Jee'
tp872
a(S'100003854846850'
S'Rupesh Kumar'
tp873
a(S'100001083333824'
S'Shonali Priyadarshini'
tp874
a(S'100003967763315'
S'Sheo Nandan Sahai'
tp875
a(S'1295079359'
S'Sanjay Rai'
tp876
a(S'1369512150'
S'Prabhat Ranjan'
tp877
a(S'1031673933'
S'Braj Kishore Singh'
tp878
a(S'100001535827305'
S'Vardan Ngo Lucknow'
tp879
a(S'100000470089048'
S'\\u0905\\u092e\\u093f\\u0924 \\u0906\\u0928\\u0902\\u0926'
tp880
a(S'100001513584274'
S'Rajendra Prasad'
tp881
a(S'100000247107737'
S'Ramesh Khatri'
tp882
a(S'100001362183749'
S'Anulekha Bhattacharya'
tp883
a(S'100001168775795'
S'Uma Raag'
tp884
a(S'100001462977966'
S'Shyam Bihari Shyamal'
tp885
a(S'100001258572078'
S'Vinit Bhargava'
tp886
a(S'100000401796615'
S'\\u0938\\u092e\\u092f \\u0905\\u0935\\u093f\\u0930\\u093e\\u092e'
tp887
a(S'100002484538329'
S'Prayatna Ngo'
tp888
a(S'100000861013982'
S'Hrishikesh Sulabh'
tp889
a(S'1209193119'
S'Akhil Srivastava'
tp890
a(S'100002056134462'
S'Devinder Sharma'
tp891
a(S'100004967970909'
S'Anshu Singh'
tp892
a(S'743580249'
S'Ranjana Kumari'
tp893
a(S'100001684755272'
S'Priyanka Singh'
tp894
a(S'100001621814282'
S'Shikha Singh'
tp895
a(S'100000914667371'
S'Santanu Singha Roy'
tp896
a(S'100001516781771'
S'Sashakt Ngo'
tp897
a(S'100003667186351'
S'Rajesh Mall'
tp898
a(S'100000522130509'
p899
S'Rajkamal Prakashan'
tp900
a(S'100000572112168'
S'Pratibha Mishra'
tp901
a(S'1430514285'
S'Jwala Prasad'
tp902
a(S'100002748932096'
S'Rakesh Gupta'
tp903
a(S'100001247546933'
S'Patrakar Praxis'
tp904
a(S'100003115386365'
S'Virendra Kumar Kudhra'
tp905
a(S'100001616595895'
S'Nagrik Adhikar Manch'
tp906
a(S'630360530'
S'Priti Darooka'
tp907
a(S'100003394291220'
S'Shiwani Sagar'
tp908
a(S'100002428101918'
S'Sanjeev Shastri Shastri'
tp909
a(S'100001086454758'
S'Mukesh Maanas'
tp910
a(S'100004422001884'
S'Soumya Ranjan Behera'
tp911
a(S'561863249'
S'Jatin Desai'
tp912
a(S'100000067250700'
S'Mohd Umar'
tp913
a(S'1322492787'
S'\\u0935\\u093f\\u092e\\u0932\\u0947\\u0936 \\u0924\\u094d\\u0930\\u093f\\u092a\\u093e\\u0920\\u0940'
tp914
a(S'100003888764970'
S'Neeraj Bhagat'
tp915
a(S'100001091990370'
S'Praneet Goel'
tp916
a(S'650011761'
S'Puneet Tandon'
tp917
a(S'100002402696329'
S'Lovely Abraham'
tp918
a(S'100000473499219'
S'Shailendra Singh'
tp919
a(S'100001683163894'
S'DrArun Kumar Singh'
tp920
a(S'100001544532004'
S'Janardan Singh'
tp921
a(S'100000125542627'
S'Sameer Remy'
tp922
a(S'1828476982'
S'Jagriti India'
tp923
a(S'100001560910912'
S'Ramnika Gupta'
tp924
a(S'712537573'
S'Manohar Roy'
tp925
a(S'100000586851264'
S'Akanksha Yadav'
tp926
a(S'100001406870084'
S'Shivendu Rai'
tp927
a(S'629191822'
p928
S'Prashant Dubey'
tp929
a(S'1157048101'
S'Gladson Dungdung'
tp930
a(S'100002492166908'
S'D.k. Sharma ExNsspo'
tp931
a(S'100000248839760'
S'Anand Krantivardhan'
tp932
a(S'1556949152'
S'Shirish Khare'
tp933
a(S'100002325175542'
S'Ranjini Ghosh'
tp934
a(S'100002586048238'
S'Poonam Balmiki'
tp935
a(S'1317393309'
S'Balmukund Pandey'
tp936
a(S'100002252487400'
S'Yashwant Singh'
tp937
a(S'1008092279'
S'Rajneesh Madhok'
tp938
a(S'100001731066257'
S'Suneel Manav'
tp939
a(S'100000219130827'
S'Gurpinder S. Vohra'
tp940
a(S'1477775328'
S'Manoj Singh'
tp941
a(S'100003300086755'
S'Maliram Saini'
tp942
a(S'100004422270948'
S'Tabassum Bano'
tp943
a(S'1406022183'
S'Arun Kumawat'
tp944
a(S'100003291415936'
S'Purbanchal Bikash Gosthi'
tp945
a(S'100003375227796'
S'Ashok Pandey Anhad'
tp946
a(S'100002017241056'
S'Syed Mubeen'
tp947
a(S'100002868330132'
S'Bhagirath Sinha'
tp948
a(S'100001175015404'
S'Jyoti Chawla'
tp949
a(S'100001613435523'
S'\\u0938\\u093e\\u0927\\u0928 \\u0928\\u0935\\u0940\\u0928'
tp950
a(S'1304317766'
S'Sunder Chand Thakur'
tp951
a(S'100003572644491'
S'Sima Singh'
tp952
a(S'100003958917134'
S'Sumedha Bodh'
tp953
a(S'729283522'
S'Himanshu Thakkar'
tp954
a(S'617907157'
S'Anuj Tiwari'
tp955
a(S'100005803681776'
S'Raju Kumar'
tp956
a(S'100000557394414'
S'Ajit Yadav'
tp957
a(S'100002272057489'
S'Pravasi Duniya'
tp958
a(S'100001372441830'
S'Khimraj Singh Brijwal'
tp959
a(S'100002915115010'
S'Obaid Mohd'
tp960
a(S'100006822481682'
S'Tara Chand Srivastav'
tp961
a(S'100001895859016'
S'S M Wazair Ahmad'
tp962
a(S'724614137'
S'Ashish Singh'
tp963
a(S'100000296968902'
S'Dinesh Dua'
tp964
a(S'100002505209141'
S'Deepraj Singh Yadav'
tp965
a(S'100002242461490'
S'Sharif Ansari'
tp966
a(S'100000377953298'
S'Chetan Sharma'
tp967
a(S'100004866756766'
S'Nina Garg'
tp968
a(S'1591487736'
S'Shashi Pandit'
tp969
a(S'100004870230780'
S'Lalit Kumar'
tp970
a(S'100002580038601'
S'Janbaj Khan'
tp971
a(S'1598615474'
S'Mahila Vikas Ashram'
tp972
a(S'100006797709624'
S'Sally Faria'
tp973
a(S'699039189'
S'Tridib Raman'
tp974
a(S'100000470463322'
S'Shyam S Kansal'
tp975
a(S'1364506715'
S'Anil Upadhyay'
tp976
a(S'1750520454'
S'Daulat Ram Ram'
tp977
a(S'1477055905'
S'\\u0926\\u093f\\u0928\\u0947\\u0936\\u0930\\u093e\\u092f \\u0926\\u094d\\u0935\\u093f\\u0935\\u0947\\u0926\\u0940'
tp978
a(S'637184772'
S'Arun Khote'
tp979
a(S'1693016122'
S'Satya Patel'
tp980
a(S'100005588774166'
S'Red Ant Dream'
tp981
a(S'100001695656735'
S'Poonam Choudhary'
tp982
a(S'100000039942597'
p983
S'Devendra Pratap'
tp984
a(S'100000595218897'
S'Arvind Jha'
tp985
a(S'1664097689'
S'Girindranath Jha'
tp986
a(S'1517447719'
S'Aradhana Mukti'
tp987
a(S'1501880966'
S'Ahmed Raza'
tp988
a(S'550829877'
S'Laxman Singh Dev'
tp989
a(S'100000674863318'
S'Namitha Kumar'
tp990
a(S'100001340462842'
S'Ashu Agarwal Sarraf'
tp991
a(S'100000976375775'
S'Xulfi Mahesar'
tp992
a(S'100001249748571'
S'Tarun Sharma'
tp993
a(S'100001702175525'
p994
S'Dhirendra Asthana'
tp995
a(S'100000080793763'
S'Meghnath Akhra'
tp996
a(S'100002281628574'
S'Aarti Tiwari'
tp997
a(S'1471864949'
S'Preety Bhatnagar'
tp998
a(S'1756232149'
S'Haushila Prasad Mishra'
tp999
a(S'100001363787061'
S'Ram Bachan Bharti'
tp1000
a(S'100002629666979'
S'Narendra Ahirwar'
tp1001
a(S'100002455901083'
S'Kamala Upadhyaya'
tp1002
a(S'100003485288424'
S'Pawan Kumar Singh'
tp1003
a(S'100003162643022'
S'Samit Vij'
tp1004
a(S'100001014069453'
S'Rajnish R. Singla'
tp1005
a(S'100002118076769'
S'Akash Verma'
tp1006
a(S'100002533971602'
S'Brij Behari Lal'
tp1007
a(S'597402799'
S'Ashok Chaurasia'
tp1008
a(S'100000417149364'
S'\\u092c\\u0902\\u0917\\u0940\\u092f \\u0939\\u093f\\u0928\\u094d\\u0926\\u0940 \\u092a\\u0930\\u093f\\u0937\\u0926'
tp1009
a(S'100003259017669'
S'Gauri Tripathi Pandey'
tp1010
a(S'1255656086'
S'Ashutosh Vishal'
tp1011
a(S'1551225791'
S'Khoj Delhi Found Khoj'
tp1012
a(S'100006061022499'
S'Anup Chowdhury'
tp1013
a(S'100003849892431'
S'Sanjoy Kumar'
tp1014
a(S'100000604292962'
S'Jayant Kumar Upadhyay'
tp1015
a(S'100000503177224'
S'Beulah Azariah'
tp1016
a(S'100002083000879'
S'Shivlal Singh'
tp1017
a(S'719601377'
S'Srijan Shilpi'
tp1018
a(S'100000601703995'
S'Shweta Raj'
tp1019
a(S'100001800310089'
S'Roopali Sinha'
tp1020
a(S'1748906220'
S'Sudhir Gandotra'
tp1021
a(S'100002617625082'
S'Madhu Aggrawal'
tp1022
a(S'100002237797895'
S'Kuldeep Singh'
tp1023
a(S'100000857251052'
S'Sumit Mall'
tp1024
a(S'100001380364913'
S'Alka Singh'
tp1025
a(S'1666396434'
S'Diben Singh'
tp1026
a(S'100002310171904'
S'Devraj Budhiraja'
tp1027
a(S'1278974612'
S'Prashant Bhatt'
tp1028
a(S'100001780797446'
S'Arun Tiwari'
tp1029
a(S'100001437987635'
S'Chavali Sambu Prasad'
tp1030
a(S'1093907102'
S'Md Shadab Ansari'
tp1031
a(S'1773784702'
S'Saran Ghai'
tp1032
a(S'679577648'
S'Onkar Dikshit'
tp1033
a(S'1446320270'
S'Anupam Mishra'
tp1034
a(S'1034989932'
S'Zafar Irshad'
tp1035
a(S'100004091416302'
S'Amit Sengupta'
tp1036
a(S'100004152240045'
S'Manisha Sancheti'
tp1037
a(S'100002582571598'
S'Colin Gonsalves'
tp1038
a(S'100001940359982'
S'Sangay Mishra'
tp1039
a(S'100005768523502'
S'Santosh Prabhakar'
tp1040
a(S'100002430311261'
S'Vinay Kant Mishra'
tp1041
a(S'100004207874609'
S'Parul Thakur'
tp1042
a(S'100001624053565'
S'Vipin Shukla'
tp1043
a(S'100001633501174'
S'Arun Kumar Arun'
tp1044
a(S'1800919494'
S'Ngos Samachar'
tp1045
a(S'100000484509493'
S'Jitendra Srivastava'
tp1046
a(S'1502421729'
S'Ahrc Human Rights'
tp1047
a(S'100003973445587'
S'Daisy Antopunneli'
tp1048
a(S'100007041580329'
S'Ajay Kapoor Mla'
tp1049
a(S'1182496443'
S'Ramanath Nayak'
tp1050
a(S'100003398117696'
S'Ramesh Hansda'
tp1051
a(S'100001617190427'
S'Anil Kumar Awasthi'
tp1052
a(S'100004545823512'
S'Seema Naz'
tp1053
a(S'100000545080843'
S'Shikha Srivastava'
tp1054
a(S'1255581162'
S'Vishaal Nityanand'
tp1055
a(S'100003018613832'
S'Adesh Singh'
tp1056
a(S'100001385128519'
S'Rita Das'
tp1057
a(S'100000010772897'
S'Indur K Chhugani'
tp1058
a(S'100005207495725'
S'Dakhal Prakashan'
tp1059
a(S'100003693497338'
S'\\u0906\\u0926\\u093f \\u0935\\u093f\\u0926\\u094d\\u0930\\u094b\\u0939\\u0940'
tp1060
a(S'100000957958621'
S'Amarendra Kumar'
tp1061
a(S'100002053459996'
S'Ajeet Singh'
tp1062
a(S'541195359'
S'Medhavi Gandhi'
tp1063
a(S'100002577163852'
S'Mokhtar-ul Haque'
tp1064
a(S'1623283614'
S'Amit Singh'
tp1065
a(S'1473691029'
S'Ravindra Kumar Rai'
tp1066
a(S'100001462590965'
S'No To Bride Trafficking'
tp1067
a(S'545101670'
S'Kumar Digvijay'
tp1068
a(S'100003589717385'
S'Farhat Usman'
tp1069
a(S'100001970689877'
S'Jitendra Choubey'
tp1070
a(S'1332107966'
S'John Edoor'
tp1071
a(S'100001961813877'
S'\\u0928\\u093f\\u0930\\u0941\\u092a\\u092e\\u093e \\u0938\\u093f\\u0928\\u0939\\u093e'
tp1072
a(S'100001691184803'
S'Amit Upadhyay'
tp1073
a(S'100001923225326'
S'Navneet Goel'
tp1074
a(S'1681504402'
S'Urmi Ninad'
tp1075
a(S'100002203296467'
S'Rajendra Ravi'
tp1076
a(S'100002492908437'
S'Anupama Bajpai'
tp1077
a(S'100003601115986'
S'Mines Watch India'
tp1078
a(S'100001629244079'
S'Shubhamitra Das'
tp1079
a(S'706955432'
p1080
S'Vimlendu Jha'
tp1081
a(S'100000187876589'
S'Ashish Anthony'
tp1082
a(S'100000099173135'
S"Sunil Kumar 'suman'"
tp1083
a(S'100000422174021'
S'Paras Nath Sidh'
tp1084
a(S'100001158596083'
S'Prabhakar Singh'
tp1085
a(S'100001587744989'
S'Dharmender Yadav'
tp1086
a(S'100001235964338'
S'Sudeep Kanodia'
tp1087
a(S'836228850'
S'Rajeev Sinha'
tp1088
a(S'100001244575169'
S'Bahujan India'
tp1089
a(S'100003467757167'
S'Kamal Drolia'
tp1090
a(S'100001351532942'
S'Rajesh Sharma'
tp1091
a(S'1409658734'
S'Mukesh Kapil'
tp1092
a(S'100000162491026'
S'Raghav Gautam'
tp1093
a(S'1667523066'
S'\\u0921\\u0949.\\u0930\\u093e\\u091c\\u0947\\u0928\\u094d\\u0926\\u094d\\u0930 \\u0928\\u093e\\u0925 \\u0924\\u094d\\u0930\\u093f\\u092a\\u093e\\u0920\\u0940'
tp1094
a(S'100000839346713'
S'Subas Sinha'
tp1095
a(S'100001561627054'
S'Neeraj Shukla'
tp1096
a(S'523434538'
S'Joy C. Raphael'
tp1097
a(S'715736671'
S'Pradeep Esteves'
tp1098
a(S'100003942216744'
S'Nirbhay Kulkarni'
tp1099
a(S'100002140771162'
S'Socialworksociety Du'
tp1100
a(S'100005546114141'
S'Ashutosh Mohan'
tp1101
a(S'882400533'
S'Meena Chopra'
tp1102
a(S'100005071361573'
S'Swadesh Sinha'
tp1103
a(S'100004232492963'
S'Mrinalini Biswas'
tp1104
a(S'100000192238337'
S'Anil Kumar'
tp1105
a(S'100001261247501'
S'Satyam Upadhyay'
tp1106
a(S'1176273270'
S'Rajni Gupt'
tp1107
a(S'100002214930473'
S'Kumar Kishor'
tp1108
a(S'1308570647'
S'Sandeep Bhatnagar'
tp1109
a(S'100002485938585'
S'Anil Joshi'
tp1110
a(S'1100484771'
S'Salman Arshad'
tp1111
a(S'594734315'
S'Waqar Qazi'
tp1112
a(S'100001281826436'
S'Sunil Verma'
tp1113
a(S'1344161205'
S'Samarendra Das'
tp1114
a(S'100003190848589'
S'Santosh Kumar Prabhakar'
tp1115
a(S'667516728'
S'Kundan Kumar Jha'
tp1116
a(S'1681295527'
S'Sandeep Tirkey'
tp1117
a(S'100000510177286'
S'\\u0905\\u0928\\u0941 \\u092a\\u094d\\u0930\\u093f\\u092f\\u093e'
tp1118
a(S'100000511759598'
S'Dev Sharma Dev Sharma'
tp1119
a(S'100001364135503'
S'Preety Bhatnagar'
tp1120
a(S'100002526189607'
S'Nidhi Malhotra'
tp1121
a(S'100000019502048'
S'Manoj Dubey'
tp1122
a(S'100004553220695'
S'Shakeel Abdul'
tp1123
a(S'100006604694079'
S'Lisa Branecki'
tp1124
a(S'100001456503186'
S'Malenadusevatrust Mrdst'
tp1125
a(S'100002699154896'
S'Geeta Sharma'
tp1126
a(S'100002402386850'
S'Shristi Pandit'
tp1127
a(S'714671987'
S'Dush Yant'
tp1128
a(S'100000731648948'
S'Jeet Jeet'
tp1129
a(S'1328023501'
S'Sanjay Raut'
tp1130
a(S'100002080785796'
S'Manoj Rathod'
tp1131
a(S'100001708995934'
S'Pramod Kumar Singh'
tp1132
a(S'1454792125'
S'Trilok Chander'
tp1133
a(S'100001340265086'
S'Janeshwar Kumar Sinha'
tp1134
a(S'100001315715499'
S'Development Insights'
tp1135
a(S'100002582774763'
S'Amarpal Singh Broka'
tp1136
a(S'100001676712082'
S'Meera Karki'
tp1137
a(S'633507601'
S'Rakesh Kumar Singh'
tp1138
a(S'100000984775241'
S'Kaleshwar Mishra'
tp1139
a(S'100000989404258'
S'Swati Tiwari'
tp1140
a(S'706021605'
S'Puran Bartwal'
tp1141
a(S'717571692'
S'Lokesh Jain'
tp1142
a(S'100000900571007'
p1143
S'Pashyanti Shukla Mohit'
tp1144
a(S'100000907982067'
S'RK Upadhyay'
tp1145
a(S'1477905094'
S'Aneesh Thillenkery'
tp1146
a(S'100002277695120'
S'Koshish A Beginning Ngo'
tp1147
a(S'100007881311621'
S'\\u0915\\u0935\\u093f\\u0924\\u093e \\u0915\\u093e\\u0926\\u094d\\u092f\\u093e\\u0928'
tp1148
a(S'100001648404417'
S'Brahmaji Pandey'
tp1149
a(S'100002625254576'
S'Fukunaga Masaaki'
tp1150
a(S'100002251212574'
S'Gram Sewa Sansthan Gss'
tp1151
a(S'100001274753841'
S'Muhammad Nayim'
tp1152
a(S'1260974394'
S'Anshu Malviya'
tp1153
a(S'100001215372062'
p1154
S'Apni Maati'
tp1155
a(S'100004037648736'
S'Rakesh Sharma'
tp1156
a(S'100000035223966'
S'Rita Kosmicworld'
tp1157
a(S'1326722260'
S'\\u0935\\u093e\\u0923\\u0940 \\u092a\\u094d\\u0930\\u0915\\u093e\\u0936\\u0928'
tp1158
a(S'100001803093975'
S'Neena Sharma'
tp1159
a(S'100003350433877'
p1160
S'Rolly Shivhare'
tp1161
a(S'100002599244116'
S'Mokhtarul Haque'
tp1162
a(S'100002088628617'
S'Pramod Bhargav'
tp1163
a(S'100004643290405'
S'Vishwa Brahmin'
tp1164
a(S'100002323484172'
S'Ved Prakash Yadav'
tp1165
a(S'100004652346275'
S'Meenu Chaswal'
tp1166
a(S'100002441424068'
S'Onestep Trust'
tp1167
a(S'100002699413798'
S'Kulwinder Kaur'
tp1168
a(S'100001606865129'
S'Vishwatma Dwijendra'
tp1169
a(S'100003996529956'
S'Madhu Gupta'
tp1170
a(S'100000656667787'
S'Rajeev Suman'
tp1171
a(S'100001882480633'
S'Firoz Ahmad'
tp1172
a(S'1289876174'
S'Raj Narayan Jha'
tp1173
a(S'100001579046663'
S'Kamlesh Kumar'
tp1174
a(S'100005929510782'
S'Bhajpa Ballia'
tp1175
a(S'100000863319939'
S'Zaman Syed Kashif'
tp1176
a(S'1527062915'
S'Kumar Sanjay'
tp1177
a(S'100001877401949'
S'Mukunda Rao'
tp1178
a(S'100003500696980'
S'Gajendra Singh Ramudamu'
tp1179
a(S'714158236'
S'Ritu Mishra'
tp1180
a(S'100003335197012'
S'Mirza Najmi Sadiqui'
tp1181
a(S'100000828390181'
S'Antika Prakashan'
tp1182
a(S'100003055711120'
S'Ramesh Tiwari'
tp1183
a(S'832064695'
p1184
S'\\u0938\\u0941\\u092f\\u0936 \\u0938\\u0941\\u092a\\u094d\\u0930\\u092d'
tp1185
a(S'100001568112851'
S'Narayan Gowala'
tp1186
a(S'100002342724530'
S'Nivedan Jansewa-Foundation'
tp1187
a(S'100000412169204'
S'Shashi Kant'
tp1188
a(S'523469604'
S'Raj Kumar Gupta'
tp1189
a(S'1654817961'
S'Tarique Anwar'
tp1190
a(S'100003326175476'
S'Arunabh Saurabh'
tp1191
a(S'100000349443592'
S"Nomad's Hermitage"
tp1192
a(S'100003161615358'
S'Taiba Khan'
tp1193
a(S'100002662460798'
S'Ram Puniyani'
tp1194
a(S'1311969884'
S'Samkaleen Sahitiya Sameelan India'
tp1195
a(S'100001053860043'
S'Badri Narayan'
tp1196
a(S'100002473032152'
S'\\u092c\\u093e\\u092c\\u0941 \\u0907\\u0928\\u094d\\u0926\\u094b\\u0930\\u0940 \\u0917\\u0940\\u0924\\u0915\\u093e\\u0930 \\u0907\\u0902\\u0926\\u094c\\u0930'
tp1197
a(S'1438021265'
S'Vijesh Kumar Garg'
tp1198
a(S'1189158577'
S'Krishna Kumar Yadav'
tp1199
a(S'100000611371891'
S'J.r. Sharan'
tp1200
a(S'100004362278691'
S'Mohammad Muosa'
tp1201
a(S'100003107280696'
S'Nagendra Prasad Singh'
tp1202
a(S'1294025444'
S'Vimala Sakkarwal'
tp1203
a(S'832782905'
S'Prasad Chacko'
tp1204
a(S'100001351909825'
S'Yasmeen Kausar'
tp1205
a(S'1553322625'
S'Prakash Reddy'
tp1206
a(S'665365642'
S'Sohail Hashmi'
tp1207
a(S'100001140996565'
S'Maroof Choudhary'
tp1208
a(S'1214887881'
S'Nand Bhardwaj'
tp1209
a(S'1639872339'
S'Abhilash Bhatt'
tp1210
a(S'100000270247250'
S'\\u0921\\u0949. \\u0905\\u0928\\u0941\\u092a\\u092e'
tp1211
a(S'100002821917480'
S'Narad Ngo'
tp1212
a(S'100002807478773'
S'Manav Subhash'
tp1213
a(S'100001763303148'
S'Dev Bhatnagar'
tp1214
a(S'100000051673232'
S'Ram Dular'
tp1215
a(S'100001539646977'
S'Yuva Samvad'
tp1216
a(S'100001583113255'
S'Dinesh Sharma'
tp1217
a(S'1493364520'
S'Pragya Pande'
tp1218
a(S'100006051638329'
S'Developafricanchild Andtheir Talents'
tp1219
a(S'1656121108'
S'Keshav Kumar'
tp1220
a(S'667106562'
S'Waliullah Ahmed Laskar'
tp1221
a(S'1158574876'
S'Jayprakash Manas'
tp1222
a(S'1576040915'
S'Ankit Bhishikar'
tp1223
a(S'662212524'
S'Lysa John'
tp1224
a(S'1175531971'
S'Sudeep Roy'
tp1225
a(S'100001297374551'
S'Rekha Sanjay Parihar'
tp1226
a(S'100002944684379'
S'Vijitabh Shrivastava'
tp1227
a(S'1597447698'
S'S Irfan Habib'
tp1228
a(S'1717974820'
S'Basha Mokther'
tp1229
a(S'669438949'
S'DrSantosh Singh'
tp1230
a(S'100000299582381'
S'Nasim Ansari'
tp1231
a(S'100005189502710'
S'Shikha Pathak'
tp1232
a(S'100002184832736'
S'Anil Kumar'
tp1233
a(S'643083437'
S'Mukul Sharma'
tp1234
a(S'1610652301'
S'Shashwat Tewari'
tp1235
a(S'100003318601112'
S'Usha Yadav Usha'
tp1236
a(S'667597405'
S'Bhawna Tyagi'
tp1237
a(S'100001546784015'
S'Anil Mayur'
tp1238
a(S'571521684'
S'Harish Chotani'
tp1239
a(S'100003219960470'
S'Rural Sunshine Daharki'
tp1240
a(S'100004488162018'
S'Abu Talaha Salar'
tp1241
a(S'100000547245418'
S'Vivek Bansal'
tp1242
a(S'100001321369717'
S'Anuj Shukla'
tp1243
a(S'100002150000803'
S'\\u0935\\u093f\\u0928\\u092f \\u091c\\u093e\\u092f\\u0938\\u0935\\u093e\\u0932'
tp1244
a(S'1104034182'
S'Ashok Kumar Srivastava'
tp1245
a(S'100001875305690'
S'Pawan Kumar Banta'
tp1246
a(S'100000994293684'
S'Chandrika Bgl'
tp1247
a(S'1436732341'
S'Achyut Pathak'
tp1248
a(S'100005759351552'
S'Noor Mohammad Noor'
tp1249
a(S'781699252'
S'Shreesh Chandra'
tp1250
a(S'1115230149'
S'Amulya Shanker'
tp1251
a(S'100002557297708'
S'Bulu Imam'
tp1252
a(S'100000905277609'
S'\\u0932\\u0940\\u0932\\u093e\\u0915\\u093e\\u0902\\u0924 \\u0928\\u093e\\u090f\\u0915'
tp1253
a(S'663829507'
S'Vinay Dubey'
tp1254
a(S'100002781576432'
S'Meenakshee Swami'
tp1255
a(S'1655507714'
S'Omprakash Pal'
tp1256
a(S'100001043671521'
S'Navrachna Sansthan'
tp1257
a(S'100001987355250'
S'Romel Sutariya'
tp1258
a(S'100000278009046'
S'Manasa Pandey'
tp1259
a(S'100000116208067'
S'Sunil Kumar'
tp1260
a(S'100000714970347'
S'Rohini Aggarwal'
tp1261
a(S'1244532489'
S'Anju Bala'
tp1262
a(S'100002234457183'
S'Abhinav Sinha'
tp1263
a(S'100002709343839'
S'Anoop Choubey'
tp1264
a(S'816979037'
S'Masaud Akhtar'
tp1265
a(S'100002554678434'
S'Ays Ngo'
tp1266
a(S'100002133824182'
S'Thepowerofcosmos Deepak'
tp1267
a(S'100006141071274'
S'Saloni Aggarwal'
tp1268
a(S'100000504175586'
S'Mahesh Khandelwal'
tp1269
a(S'100002162968157'
S'Rajesh Kumar Singh'
tp1270
a(S'100006354760706'
S'Marlyn Upadhyay'
tp1271
a(S'100002011021276'
S'Nationalsocialwatch India'
tp1272
a(S'676582730'
S'Snehansu Bhaduri'
tp1273
a(S'1083525310'
S'Rashmi Sahare'
tp1274
a(S'100000162485370'
S'Ashutosh Pandey'
tp1275
a(S'100002221103995'
S'Neeraj Tiwari'
tp1276
a(S'100003628712830'
S'\\u092a\\u0930\\u093f\\u0935\\u0947\\u0936\\u093f\\u0915\\u0940 \\u0938\\u0924\\u094d\\u092f'
tp1277
a(S'100001639751962'
S'Shiv Das'
tp1278
a(S'100000485668522'
S'Neeraj Nirala Journalist'
tp1279
a(S'100000049879084'
S'Brijesh Singh'
tp1280
a(S'100000359734008'
S'Ramji Yadav'
tp1281
a(S'1581916076'
S'Pramod Joshi'
tp1282
a(S'100003981919589'
S'Yaqoob Khatri'
tp1283
a(S'649432876'
S'Selvi Roy'
tp1284
a(S'100000469192780'
S'Nilay Upadhyay'
tp1285
a(S'100000911128484'
S'Madhavi Pandey'
tp1286
a(S'100000949094790'
S'Shridhar Nandedkar'
tp1287
a(S'100001768356686'
S'Dinanath Chauhan'
tp1288
a(S'100002374216657'
S'Prakash Yadav'
tp1289
a(S'100003319685941'
S'K Monisha Singh'
tp1290
a(S'1080504055'
S'L\\u00f0nely Lj\\u00f0n'
tp1291
a(S'100002916176104'
S'Koibhookhanasoye Abhiyan'
tp1292
a(S'100000092126119'
S'Jeetendra Gupta'
tp1293
a(S'100002838112109'
S'Mahesh Chandra Pandey'
tp1294
a(S'1018717445'
S'Kumar Mukul'
tp1295
a(S'100002892807056'
S'Chitra New Delhi'
tp1296
a(S'1532916631'
S'Aditya Singh Tomar'
tp1297
a(S'782204521'
S'Mushtaq Ahmad'
tp1298
a(S'100003956780427'
S'Darul Mia'
tp1299
a(S'100003566594674'
S'Lovely Agrawal'
tp1300
a(S'100002471073755'
S'Dharmendra Singh'
tp1301
a(S'100000574313851'
S'Jai Prakash Pandey'
tp1302
a(S'587941324'
S'Radhika Menon'
tp1303
a(S'1713418255'
S'Jayshankar Singh'
tp1304
a(S'100001807755717'
S'Saiffoundation Pakistan'
tp1305
a(S'1469220990'
S'Nandlal Master'
tp1306
a(S'100005482595683'
S'\\u0939\\u093f\\u0928\\u094d\\u0926\\u0940 \\u0936\\u093e\\u092f\\u0930\\u0940'
tp1307
a(S'100000045223695'
S'Kasheenath Chatterjee'
tp1308
a(S'100003902208923'
S'Anurag Pandey'
tp1309
a(S'100000245348041'
S'Shashank Bharadwaj'
tp1310
a(S'100000982182137'
S'Ashish Singh'
tp1311
a(S'100000670194059'
S'Ashim Chatterjee'
tp1312
a(S'100000428140770'
S'Mitu Khurana'
tp1313
a(S'100003314645433'
S'Ripusudan Singh'
tp1314
a(S'100002753220815'
S'Guru Prasad Singh'
tp1315
a(S'100003012871278'
S'Sherbahadur Gautam'
tp1316
a(S'100001133536077'
S'Thanuja Prabhakar'
tp1317
a(S'100000582560820'
S'Abhilasha Singh'
tp1318
a(S'100001218351684'
S'Vikas Goel'
tp1319
a(S'100005425174439'
S'Edisan India'
tp1320
a(S'543024251'
S'Lajwanti Chatani'
tp1321
a(S'100000100423585'
S'Solidarity Centre'
tp1322
a(S'100003805386543'
S'\\u091c\\u0928\\u091c\\u094d\\u0935\\u093e\\u0930 \\u0921\\u0949\\u091f\\u0915\\u0949\\u092e'
tp1323
a(S'100004222598017'
S'Ashok Sharma'
tp1324
a(S'100001019283128'
S'Jasmeeta Singh'
tp1325
a(S'100001726795465'
S'Josh India'
tp1326
a(S'100002424013377'
S'Bing P Plaza'
tp1327
a(S'1200813608'
S'Tara Chand'
tp1328
a(S'100000185756246'
S'\\u0915\\u0943\\u0937\\u094d\\u0923\\u0915\\u0941\\u092e\\u093e\\u0930 \\u0909\\u092a\\u093e\\u0927\\u094d\\u092f\\u093e\\u092f'
tp1329
a(S'100000952990223'
p1330
S'Abhimanyu Kumar'
tp1331
a(S'100001807807849'
S'Kabir Sanjay Kushwaha'
tp1332
a(S'1035676824'
S'Sukumar Muralidharan'
tp1333
a(S'100000783624424'
S'Fatimah Cosare'
tp1334
a(S'100003194458745'
S'Rising Stars Ngo'
tp1335
a(S'100001337076073'
S'Amit Kumar Ssrivastava'
tp1336
a(S'100002136656981'
S'Rajan Sharma'
tp1337
a(S'100002839039810'
S'Suneel Kumar Satnami Msw'
tp1338
a(S'1116404891'
S'Javed Anand'
tp1339
a(S'581647882'
S'Dharmendra Kumar'
tp1340
a(S'100000394147057'
S'Shayda Bano'
tp1341
a(S'1743202479'
S'Kestas Petrutis'
tp1342
a(S'1121059259'
S'Rajan Jauhar'
tp1343
a(S'100002043714044'
S'Suneel Kashyap'
tp1344
a(S'100000546635832'
S'Sanjeev Kumar'
tp1345
a(S'100002494650993'
S'Ashok Sinha'
tp1346
a(S'100002051154097'
S'Sunil Chaudhary'
tp1347
a(S'1400944735'
S'Munna Kumar Jha'
tp1348
a(S'100002331173854'
S'Ranjana Bhishikar'
tp1349
a(S'100004860216944'
S'Anushka Bhardwaj'
tp1350
a(S'100001190071134'
S'Gokul Dalit'
tp1351
a(S'100003728887022'
S'Nitish Mishra'
tp1352
a(S'100002299522915'
S'Shahin Ansari'
tp1353
a(S'750291216'
S'Mita Kapur'
tp1354
a(S'100004061140537'
S'Manish Gupta'
tp1355
a(S'100002400019616'
S'Pankaj Mishra'
tp1356
a(S'1384299718'
S'Mustafa Talpur'
tp1357
a(S'100001466885084'
S'Goldy M George'
tp1358
a(S'100002086018687'
S'River Hindon'
tp1359
a(S'100000399585367'
S'Amar Nath Jha'
tp1360
a(S'100000315598736'
S'Gopi Nath Ghosh'
tp1361
a(S'100001017058966'
S'Pankhuri Dixit'
tp1362
a(S'100001153390449'
S'Gaurav Kapoor'
tp1363
a(S'100002411664383'
S'Amit Kumar'
tp1364
a(S'591459029'
S'Krishna Kumar Pande'
tp1365
a(S'1079265442'
S'Nitin Sabrangi'
tp1366
a(S'1825110788'
S'Tanavi Singh'
tp1367
a(S'100000713659877'
S'Sachin Shashvat'
tp1368
a(S'100000121796526'
S'Mukesri Devi Pundir'
tp1369
a(S'100004488462536'
S'Brahmanand Prasad'
tp1370
a(S'100006909753944'
S'Amit Kumar'
tp1371
a(S'1470124456'
S'Narendra Tomar'
tp1372
a(S'1455073114'
S'Avisek Mookherjee'
tp1373
a(S'1022297604'
S'Prathak Batohi'
tp1374
a(S'100000071021717'
S'Sanjay Bhattacharya'
tp1375
a(S'100001157997869'
S'Komal Upadhhyay'
tp1376
a(S'1306292047'
S'\\u091a\\u0902\\u0926\\u094d\\u0930\\u092a\\u093e\\u0932 \\u0938\\u093f\\u0902\\u0939'
tp1377
a(S'100002338479155'
S'Ngo Grants Helpline'
tp1378
a(S'100004519093127'
S'Girish Pande'
tp1379
a(S'768980749'
S'Matthew Mattam'
tp1380
a(S'100000464919728'
S'Madan Kashyap'
tp1381
a(S'634326107'
S'Mohd.Moosa Azmi'
tp1382
a(S'100000991931258'
S'Rakesh Jha'
tp1383
a(S'100001044424853'
S'Manoj Patel'
tp1384
a(S'608134594'
S'Ranjan K Baruah'
tp1385
a(S'100003116610404'
S'Hariom Rajoria'
tp1386
a(S'100001460713556'
S'Sharad Singh'
tp1387
a(S'1139576570'
S'Rajesh Parthsarthy'
tp1388
a(S'100002416653248'
S'Suvro Mallick'
tp1389
a(S'655620474'
S'Arvind Gaur'
tp1390
a(S'100002267794339'
S'Anil Singh'
tp1391
a(S'100003160802100'
S'Ccs Ngo'
tp1392
a(S'100001372862950'
S'Manish Raj'
tp1393
a(S'1510039482'
S'Pratyoush Mishra'
tp1394
a(S'1021511566'
S'Smriti Rajesh'
tp1395
a(S'633307662'
S'Bhaswati Ghosh'
tp1396
a(S'100000308836773'
S'Pushpendra Singh Chandel'
tp1397
a(S'100001705086729'
S'Svct Delhi'
tp1398
a(S'100003136161344'
S'Yogendra Yadav'
tp1399
a(S'100001499533039'
S'Harnot SR Harnot'
tp1400
a(S'579279804'
S'Jamal Kidwai'
tp1401
a(S'1162941148'
p1402
S'Awesh Tiwari'
tp1403
a(S'100001034899999'
p1404
S'Kheya Chakraborti'
tp1405
a(S'100002610791326'
S'Sunita Sharma'
tp1406
a(S'100001366281823'
S'Manisha Verma'
tp1407
a(S'1488016921'
S'Manu Chaudhary'
tp1408
a(S'100001379075868'
S'R.s. Shrivastava'
tp1409
a(S'100007396392928'
S'Ashwini Upadhyay'
tp1410
a(S'100003475082574'
S'Kishor Makwana'
tp1411
a(S'100004586226220'
S'Seela Das'
tp1412
a(S'100004758577235'
S'Kalinga Krafts'
tp1413
a(S'1178696535'
S'Feroze Mithiborwala'
tp1414
a(S'100001252075929'
S'Arpan Kumar'
tp1415
a(S'100000664271579'
p1416
S'Ravishankar Shrivastava'
tp1417
a(S'1317690400'
S'Purnima Sharma'
tp1418
a(S'539263835'
S'Rajendra Jadhav'
tp1419
a(S'1026962963'
S'Govind Mathur'
tp1420
a(S'100001223880355'
S'Ronald Sabastian'
tp1421
a(S'651198180'
S'Mamata Dash'
tp1422
a(S'100002311779361'
S'Rashtriya Kranti Manch'
tp1423
a(S'814484787'
S'\\u0935\\u093f\\u092d\\u0941\\u0930\\u093e\\u091c \\u092e\\u093e\\u0917\\u0927'
tp1424
a(S'543419412'
S'Manvinder Bhimber'
tp1425
a(S'825108045'
S'Ajay Prakash'
tp1426
a(S'100002226350301'
S'Hemant Sonale'
tp1427
a(S'100001032290697'
S'Sonal Mansingh'
tp1428
a(S'100004044631944'
S'Savitri Chaudhary'
tp1429
a(S'100002017998502'
S'Daya Ram Daya'
tp1430
a(S'100000476861394'
S'Pankaj Kamariya'
tp1431
a(S'100003102414269'
S'Marx Madhanbrs'
tp1432
a(S'1095344264'
S'Anil Saumitra'
tp1433
a(S'100003747844183'
S'Ashok Choudhary'
tp1434
a(S'100006399400517'
S'Jeevan Singh'
tp1435
a(S'661710790'
S'\\u0938\\u094d\\u0935\\u092a\\u094d\\u0928\\u093f\\u0932 \\u091c\\u0948\\u0928'
tp1436
a(S'100000898460591'
S'Gaurav Banswal'
tp1437
a(S'100002107523348'
S'Ravinder Singh'
tp1438
a(S'100000447695030'
S'Shekhar Sonalkar'
tp1439
a(S'100005590660520'
S'Comrade Raj'
tp1440
a(S'1380573879'
S'Kavi Kishor Kumar Khorendra'
tp1441
a(S'859360391'
S'Feroz Mehdi'
tp1442
a(S'100001199909054'
S'Rakesh Tiwari'
tp1443
a(S'100000649506136'
S'Sachchidanand Bhasker'
tp1444
a(S'100002936558319'
S'Denzil Dsouza'
tp1445
a(S'100002288156241'
S'Abhishek Kumar Mishra'
tp1446
a(S'505389273'
S'Madhuresh Kumar'
tp1447
a(S'100003479106002'
S'Mahip Shukla'
tp1448
a(S'100004845667491'
S'Sourabh Kumar'
tp1449
a(S'100003218627094'
S'Pravender Kumar'
tp1450
a(S'1372315154'
S'Ambalal Chauhan'
tp1451
a(S'100002498442200'
S'Lok Singh Lodhi'
tp1452
a(S'100000257326122'
S'Poonam Srivastava'
tp1453
a(S'100004856887634'
S'Aisa Ara'
tp1454
a(S'100001576385238'
S'Ektaparishadup Ektaparishadup'
tp1455
a(S'1249784369'
S'Pradeep Solanki'
tp1456
a(S'1456543892'
S'Manu Tyagi Bijalwan'
tp1457
a(S'1572435859'
S'Tarun Kumar Tarun'
tp1458
a(S'100000984213442'
S'Faisal Khan'
tp1459
a(S'100001738769164'
S'Raj Arya'
tp1460
a(S'100002107031579'
S'Chaudhary Neeraj Yadav'
tp1461
a(S'1468788237'
S'Partap Sehgal'
tp1462
a(S'100002510218460'
S'Prem Prakash'
tp1463
a(S'585032754'
S'Satish Jha'
tp1464
a(S'100003678332395'
S'Marudhrha Ngo Tijara'
tp1465
a(S'100001990728598'
S'D.k. Bajpai'
tp1466
a(S'100005500747718'
S'Akhand Jyoti'
tp1467
a(S'100005810529721'
S'BhagatSingh Bhabdhara PracharSamiti'
tp1468
a(S'100002440966992'
S'Sreenivas Reddy'
tp1469
a(S'679061934'
S'James C Dabhi'
tp1470
a(S'100002024870315'
S'Mlpc Rajasthan'
tp1471
a(S'1639197421'
S'Gyan Prakash'
tp1472
a(S'100001386281492'
S'Barkat Mujawar'
tp1473
a(S'100003511853847'
S'Sandeep Raj'
tp1474
a(S'100004199982158'
S'Gurmail Singh Sidhu'
tp1475
a(S'100005340185874'
S'Narendra Mourya'
tp1476
a(S'100003163896232'
S'Naveen Chilana'
tp1477
a(S'1492274943'
S'\\u0917\\u0902\\u0917\\u093e \\u0938\\u0939\\u093e\\u092f \\u092e\\u0940\\u0923\\u093e'
tp1478
a(S'541313182'
S'Aditya Vikram Rametra'
tp1479
a(S'1122891676'
S'Atal Behari Sharma'
tp1480
a(S'736150649'
S'Abhay Mehta'
tp1481
a(S'100001512860206'
S'Jaleshwar Upadhyay'
tp1482
a(S'100006300721204'
S'\\u0915\\u0925\\u0928 \\u0924\\u094d\\u0930\\u0948\\u092e\\u093e\\u0938\\u093f\\u0915'
tp1483
a(S'100003997831084'
S'Anand Mishra'
tp1484
a(S'644237344'
S'Alok Kumar Bhuwan'
tp1485
a(S'100005355403243'
S'Uttar Pradesh'
tp1486
a(S'100001921447976'
S'Chandra Shekhar Vyas'
tp1487
a(S'100002029939857'
S'Aman Baluni'
tp1488
a(S'100001636564007'
S'Abhijit Payeng'
tp1489
a(S'100001720636179'
S'Gordon Brogan'
tp1490
a(S'100000925880178'
S'Kailashpati Mishra'
tp1491
a(S'100001516615344'
S'Vivekanand Tripathi'
tp1492
a(S'100002527514467'
S'Amar Nath Paswan'
tp1493
a(S'100002113421273'
S'Mahendra Kumar Shukla'
tp1494
a(S'1281723958'
S'Averil Fernando Stone'
tp1495
a(S'100003789433143'
S'Shona Arora'
tp1496
a(S'100000125117198'
S'Vinayak Sharma'
tp1497
a(S'100001373247939'
S'SUmana Patra'
tp1498
a(S'100003133911730'
S'Muzaffarpur Vikas Mandal'
tp1499
a(S'100000097348642'
S'DrArun Choubey'
tp1500
a(S'1750255629'
S'\\u091c\\u092f \\u092a\\u094d\\u0930\\u0915\\u093e\\u0936 \\u092a\\u093e\\u0920\\u0915'
tp1501
a(S'100000542072242'
S'Gfiles Mangazine India'
tp1502
a(S'687625180'
S'Charu Sharma'
tp1503
a(S'726901924'
S'C.R Bijoy'
tp1504
a(S'1819836945'
S'\\u0938\\u0941\\u092d\\u093e\\u0937 \\u091a\\u094c\\u0927\\u0930\\u0940'
tp1505
a(S'1261807280'
S'Inder Krishen Wali'
tp1506
a(S'100002130725246'
S'Ambrish Kumar'
tp1507
a(S'100001564427447'
S'Sunil Kumar'
tp1508
a(S'100004430553109'
S'Parivartankami Chhatra Sanghtan Pachhas'
tp1509
a(S'570285641'
S'Carol Morphew'
tp1510
a(S'100003989667574'
S'Kavi Vivek Beghar'
tp1511
a(S'100003940155339'
S'Dampy Yadav Dampy'
tp1512
a(S'100003908913708'
S'\\u0938\\u0902\\u0918\\u0930\\u094d\\u0937 \\u0938\\u0902\\u0935\\u093e\\u0926'
tp1513
a(S'100000751324477'
S'WaterAid Nepal'
tp1514
a(S'100000499072626'
S'Vishnu Rajgadia'
tp1515
a(S'100001200060056'
S'Devendra Shrivastava'
tp1516
a(S'100000294705617'
S'Changelooms Pravah'
tp1517
a(S'100002545048472'
S'Netaji Chatra Yuba Sangshta'
tp1518
a(S'1803193856'
S'Brijesh Verma'
tp1519
a(S'1772850884'
S'Ganga Pd Sharma'
tp1520
a(S'100004602000515'
S'Somesh Shukla'
tp1521
a(S'100001932183316'
S'Ngosamachar India'
tp1522
a(S'100000870746530'
S'Lalit Sharma'
tp1523
a(S'100003511187155'
S'Samrat Singh'
tp1524
a(S'100003259094369'
S'Prem Patel'
tp1525
a(S'100002477377364'
S'Rk Gupta'
tp1526
a(S'100002501883858'
S'DrAnamika Yadav'
tp1527
a(S'100006697627765'
S'Avtar Singh Negi'
tp1528
a(S'721473673'
S'Ambarish Rai'
tp1529
a(S'1549453042'
S'Vijay Sharma Vijeet'
tp1530
a(S'100002807225896'
S'Sanjeev Singh Shrinet'
tp1531
a(S'100003387313392'
S'JS Choubey'
tp1532
a(S'100002983855208'
S'Sapna Singh'
tp1533
a(S'100000255655987'
S'Aditya Vardhan Singh'
tp1534
a(S'100006484257200'
S'Rakesh Rafiq'
tp1535
a(S'100003292406750'
S'Kedarnath Chaurasia'
tp1536
a(S'100001796063155'
S'Vikas Sahayog Pratishthan'
tp1537
a(S'100003521364914'
S'Snehsagar Ngo Hingoli'
tp1538
a(S'100003630990072'
S'Arun Manjuaansu'
tp1539
a(S'100001102246062'
S'Manoj Pandey'
tp1540
a(S'100001122896847'
S'Tahira Hasan'
tp1541
a(S'100002042123493'
S'Feed TO Poor'
tp1542
a(S'100002262462041'
S'Iris Corbett'
tp1543
a(S'100002403277700'
S'Mahesh Kumar Dash'
tp1544
a(S'100003889448596'
S'Drsuprabhat Bhardwaj'
tp1545
a(S'1602864326'
S'Naimesh Dhamale'
tp1546
a(S'100003719515512'
S'Shivam Pathak'
tp1547
a(S'731231176'
S'Amit Malhotra'
tp1548
a(S'100002548307701'
S'Pramod Shukla'
tp1549
a(S'100000162512462'
S'Sanjay Kapoor'
tp1550
a(S'100002795506831'
S'Shiv Shambhu Sharma'
tp1551
a(S'100001982887314'
S'Belinda Bennet'
tp1552
a(S'100000139460248'
S'Kamlesh Kumar Diwan'
tp1553
a(S'100002448277914'
S'Ahmad Wazair'
tp1554
a(S'100000639902842'
S'Anand Bihari'
tp1555
a(S'100007302122913'
S'Poonam Pandey'
tp1556
a(S'1811944999'
S'Mumbai Ngo'
tp1557
a(S'100002278201831'
S'Gulab Singh'
tp1558
a(S'100004115881558'
S'Jeevan Yadav'
tp1559
a(S'1375539009'
S'Amit Kumar'
tp1560
a(S'100005851175036'
S'Aman Singh'
tp1561
a(S'1354335878'
S'Anjali Monteiro'
tp1562
a(S'100000522484607'
S'Jha B K Jha'
tp1563
a(S'100001526561068'
S'Santosh Kumar Dwivedi'
tp1564
a(S'727996450'
S'Shahid Akhtar'
tp1565
a(S'100002633498193'
S'Satyendra Kumar'
tp1566
a(S'1029750542'
S'Mahesh Kumar'
tp1567
a(S'1602216529'
S'Shiv Deshwal'
tp1568
a(S'1603524131'
S'Himmat Singh'
tp1569
a(S'1228281279'
S'Lenin Raghuvanshi'
tp1570
a(S'100000923760921'
S'Rakesh Arya'
tp1571
a(S'100002329005763'
S'Rashmi Bisht'
tp1572
a(S'1495682931'
S'K. C. Santhosh Kumar'
tp1573
a(S'100000073252174'
S'Geeta Krishali'
tp1574
a(S'687048205'
S'Mukul Singh'
tp1575
a(S'100000397054299'
S'Amit Srivastava'
tp1576
a(S'100000067744808'
S'Sahyadri Ngo'
tp1577
a(S'100008201826761'
S'Nargis Khan'
tp1578
a(S'100003346984979'
S'Dhananjay Shukla'
tp1579
a(S'100000113703427'
S'Ajay Kumar'
tp1580
a(S'100000636204482'
S'Divik Ramesh'
tp1581
a(S'100004733162269'
S'Vivek Krishnan'
tp1582
a(S'576682840'
S'Vijay Sharma'
tp1583
a(S'100002198813083'
S'Arvind Shukla'
tp1584
a(S'100000138617340'
S'Rahul Pratap'
tp1585
a(S'100002553617899'
S'Prince Verma'
tp1586
a(S'1523792428'
S'Rajshekhar Akki'
tp1587
a(S'1134923693'
S'Venkataramanaiah Hyderabad'
tp1588
a(S'586467189'
S'Sia Kumar'
tp1589
a(S'100001529110435'
S'Kamal Sharma Sadvipra'
tp1590
a(S'100004033784904'
S'\\u0928\\u0947\\u0936\\u0928\\u0932 \\u092a\\u092c\\u094d\\u0932\\u093f\\u0936\\u093f\\u0902\\u0917 \\u0939\\u093e\\u0909\\u0938'
tp1591
a(S'687978104'
S'Avanish Ojha'
tp1592
a(S'100001818676959'
S'Aadarsh Sanstha'
tp1593
a(S'100000765087143'
S'Arun Dev'
tp1594
a(S'100000144404440'
S'Nizamuddin Nice'
tp1595
a(S'100002243782974'
S'Tarun Bharat'
tp1596
a(S'100000093925352'
S'Abhishek Mishra'
tp1597
a(S'100000105700242'
S'Brijesh Pandey'
tp1598
a(S'100003119986246'
S'Hadimba Bilaspur'
tp1599
a(S'100004006629170'
S'Sohan Lal Sharma Prem'
tp1600
a(S'1578954650'
S'Delhi Shramik Sangathan Dss'
tp1601
a(S'695163908'
S'Rati Saxena'
tp1602
a(S'739591345'
S'Saeed Baloch'
tp1603
a(S'100001049474019'
S'Bachcha Tiwari'
tp1604
a(S'100001914466411'
S'Right To Work'
tp1605
a(S'100001813461556'
S'Ashwanikumar Singh'
tp1606
a(S'100002932914546'
S'Sewa Ngo'
tp1607
a(S'100000453014259'
S'Sushil Kumar Das'
tp1608
a(S'831974940'
S'Dhruva Narayan'
tp1609
a(S'1027347586'
S'Asha Mishra'
tp1610
a(S'100001300130084'
S'Santosh Pandey'
tp1611
a(S'100001536041838'
S'Alok Pathak'
tp1612
a(S'100005914867287'
S'Rakesh Tiwari'
tp1613
a(S'100002547867083'
S'Tanish Prakash'
tp1614
a(S'100006716470038'
S'Abhimanyu Prasad'
tp1615
a(S'100001972376743'
S'Kumari Neeraj'
tp1616
a(S'100001700470295'
S'Kumar Ganesham'
tp1617
a(S'100003733502314'
S'Gaurav Soni'
tp1618
a(S'100002780592213'
S'Sachin Tripathi'
tp1619
a(S'100002382080007'
S'Sudhir Bhai Goyal'
tp1620
a(S'1370755619'
S'Karan Tyagi'
tp1621
a(S'1455788553'
S'Dakhal Prakashan Delhi'
tp1622
a(S'100000971053228'
S'Ankit Khare'
tp1623
a(S'100004222444718'
S'Hands FoundationNgo'
tp1624
a(S'1198252841'
S'Naveen Mishra'
tp1625
a(S'100003352852389'
S'Bobita Dhibar'
tp1626
a(S'100005572541673'
S'Anil Agarwal'
tp1627
a(S'100003006543658'
S'Rajendra P. Joshi'
tp1628
a(S'801198064'
p1629
S'Rajiv Rai'
tp1630
a(S'100001183532096'
S'Hasan Jowher'
tp1631
a(S'100001533653056'
S'Jang Hindustani'
tp1632
a(S'786240741'
S'Rahul Banerjee'
tp1633
a(S'100000691127855'
S'\\u091c\\u094d\\u092f\\u094b\\u0924\\u094d\\u0938\\u094d\\u0928\\u093e \\u092a\\u093e\\u0923\\u094d\\u0921\\u0947\\u092f'
tp1634
a(S'1444666413'
S'Bondita Acharya'
tp1635
a(S'1238445379'
S'Rajesh Chandra'
tp1636
a(S'100001935970584'
S'Sayed Isthiyakh'
tp1637
a(S'100002267292156'
S'Intercultural Resources'
tp1638
a(S'100003904516517'
S'Onkar Singh'
tp1639
a(S'100000300330526'
S'Rakesh Chandra Lohar'
tp1640
a(S'100002791626597'
S'Col Surjit Singh Ferochechi'
tp1641
a(S'541524259'
S'Mangalesh Dabral'
tp1642
a(S'100002304863558'
S'Sonu Kanchan'
tp1643
a(S'1147303254'
S'Pravin Jha'
tp1644
a(S'1649078698'
S'Suman Saraswat'
tp1645
a(S'636365947'
S'Abhay Xaxa'
tp1646
a(S'100006127201840'
S'Sanjay Kansal'
tp1647
a(S'696781320'
S'Shiva Narain Singh'
tp1648
a(S'1224255662'
S'Mangalesh Dabral'
tp1649
a(S'1012276397'
S'Ram Pratap Shahi'
tp1650
a(S'644833180'
S'Anjali Deshpande'
tp1651
a(S'660647387'
S'Aijo Jacob'
tp1652
a(S'100001542508258'
S'Jay Upadhyay'
tp1653
a(S'1809775413'
S'Chaman Lal Jnu'
tp1654
a(S'100000938969248'
S'DrRavinder Puri'
tp1655
a(S'100006606042955'
S'Bela Bhatia'
tp1656
a(S'100007258000832'
S'Shubhendu Ghosh'
tp1657
a(S'1849632383'
S'Alok Sharma'
tp1658
a(S'603290539'
S'Akhilesh Mishra'
tp1659
a(S'704768768'
S'DrMuhammad Mukhtar Alam'
tp1660
a(S'566588590'
S'Aveek Swarnakar'
tp1661
a(S'100000200496152'
S'Syed Kashif Zaman'
tp1662
a(S'100000783827371'
S'Udit Prakash'
tp1663
a(S'100002980184633'
S'Amarpal Malik'
tp1664
a(S'100002215251946'
S'Raj Kumar'
tp1665
a(S'100002511301684'
S'Arpan Ngo'
tp1666
a(S'100003793275281'
S'Manju Gupta'
tp1667
a(S'100003364182689'
S'Ashok Kumar Sinha'
tp1668
a(S'100008186768223'
S'Nimi Dagdu'
tp1669
a(S'100000426846812'
S'Mukesh K Gajendra'
tp1670
a(S'1752715520'
S'Rashi Aditi Ghosh'
tp1671
a(S'100000790393304'
S'Ravinder Goel'
tp1672
a(S'1368062226'
S'Mahesh Darpan'
tp1673
a(S'100003394500328'
S'Rajani Varma'
tp1674
a(S'100000232609967'
S'Mukul Sinha'
tp1675
a(S'100003201703396'
S'Vivek Vivu Singh'
tp1676
a(S'100002520002974'
S'Dilip C Mandal'
tp1677
a(S'1206356840'
S'Mahul Vengsar'
tp1678
a(S'100004020468643'
S'Go Heaven'
tp1679
a(S'100007070231002'
S'\\u0938\\u093e\\u0939\\u093f\\u0924\\u094d\\u092f \\u092d\\u0902\\u0921\\u093e\\u0930 \\u0907\\u0932\\u093e\\u0939\\u093e\\u092c\\u093e\\u0926'
tp1680
a(S'100000284094201'
S'Pravind Praveen'
tp1681
a(S'100004430370909'
S'Arvind Gautam'
tp1682
a(S'100001007797691'
S'Virendra Rai'
tp1683
a(S'100002557819122'
S'Bsp Himachal Pradesh'
tp1684
a(S'100003611599985'
S'Pushkar Singh Bora'
tp1685
a(S'100000809153723'
S'Gautam Patel'
tp1686
a(S'1420059990'
S'Bibhash Chakraborty'
tp1687
a(S'1679603624'
S'Dayamani Barla'
tp1688
a(S'100002897910890'
S'Renu Dewan'
tp1689
a(S'1409988542'
S'Raju Sajwan'
tp1690
a(S'100000244769330'
S'Pawan Pandey'
tp1691
a(S'525021482'
S'Vikrant Mahajan'
tp1692
a(S'698426930'
S'Naaz Khair'
tp1693
a(S'100004581335846'
S'Gul Makai'
tp1694
a(S'100002661978826'
S'\\u0928\\u0940\\u0930\\u091c \\u0932\\u093e\\u0932 \\u0915\\u094d\\u0928\\u094d\\u0928\\u094c\\u091c\\u093f\\u092f\\u093e\\u0901'
tp1695
a(S'100002275279624'
S'Seema Tomar'
tp1696
a(S'100001095488587'
S'Mir Aijaz'
tp1697
a(S'100000520154393'
S'Arjun Saxena'
tp1698
a(S'100008077801423'
S'Ashok Kumar Mishra'
tp1699
a(S'100002073488796'
S'Hanumant Upre'
tp1700
a(S'1808209438'
S'Pramod Kumar Suman'
tp1701
a(S'100003141632312'
S'Deepti Naudiyal'
tp1702
a(S'100000231679987'
S'Krishna Mohan'
tp1703
a(S'100003862506833'
S'Aam Aadmi'
tp1704
a(S'1432506621'
S'Meeta Lall'
tp1705
a(S'749021553'
S'S.r. Darapuri'
tp1706
a(S'1305265049'
S'Manoj Chhabra'
tp1707
a(S'100001771321271'
S'Wethepeople Trust'
tp1708
a(S'1818921251'
S'Ilayaraja Hindustani'
tp1709
a(S'100002134428388'
S'Anjali Sinha'
tp1710
a(S'100004210441985'
S'Abhisek Cudhri'
tp1711
a(S'1319240731'
S'Rupesh Teoth'
tp1712
a(S'100000632691825'
S'Rakesh Joshy'
tp1713
a(S'100001420395458'
S'Manjari Srivastava'
tp1714
a(S'100002009346186'
S'Atul Ranjan'
tp1715
a(S'100000619920840'
S'Vaibhav Singh'
tp1716
a(S'100003824560687'
S'Birsa Hansda'
tp1717
a(S'100003222799878'
S'Jagdish Singh'
tp1718
a(S'100003029417849'
S'Anil Singh'
tp1719
a(S'1404297546'
S'Animesh Bahadur'
tp1720
a(S'100001284571550'
S'Rahul Sinha'
tp1721
a(S'1364024124'
S'\\u0921\\u0949. \\u0938\\u0941\\u092e\\u0940\\u0924\\u093e'
tp1722
a(S'100003317595232'
S'Rajnish Kumar Dhingra'
tp1723
a(S'675661459'
S'Manmohan Singh'
tp1724
a(S'100000397335764'
S'Sushil Tewari'
tp1725
a(S'1634516462'
S'Pankaj Chaturvedi'
tp1726
a(S'100000580009570'
S'Ajay Garg'
tp1727
a(S'100000523134389'
p1728
S'Gyan Astro'
tp1729
a(S'100001555296551'
S'Geetam Shrivastava'
tp1730
a(S'100000427505196'
S'Sarafraz Bhat'
tp1731
a(S'100006059503536'
S'Seeds India'
tp1732
a(S'1601075255'
S'Aniruddha Dey'
tp1733
a(S'1215751244'
S'Idrf Canada'
tp1734
a(S'100000719722336'
S'Bhoopal Singh'
tp1735
a(S'100002878699952'
S'Princekie Atencio'
tp1736
a(S'575427942'
S'Pallavi Tiwary'
tp1737
a(S'100000717434624'
S'Umanath Lal Das'
tp1738
a(S'100002529201812'
S'Vaddi Ravindra Choudary'
tp1739
a(S'100001709584603'
S'Pria India'
tp1740
a(S'100001002436072'
p1741
S'Subhash Rai'
tp1742
a(S'100000236392882'
S'Rajesh Bhattacharjee'
tp1743
a(S'100003871504044'
S'Jibi Melbin M'
tp1744
a(S'100002533205192'
S'Prema Dosanjh'
tp1745
a(S'100000402781643'
S'Bishwajit Chowdhury'
tp1746
a(S'100002830620560'
S'Ranjana Jaiswal'
tp1747
a(S'100003038628451'
S'Surendra Pal'
tp1748
a(S'1706096456'
S'Sabih Ahmad'
tp1749
a(S'100002704121886'
S'Teresa Andrade'
tp1750
a(S'1073007655'
S'Dalit Duniya'
tp1751
a(S'100001386917217'
S'Sandeep Shashikant Shukla'
tp1752
a(S'100005949337761'
S'Mohan Yadav'
tp1753
a(S'100002656021282'
S'Ajsa Odisha'
tp1754
a(S'1078521571'
S'Munne Bharti'
tp1755
a(S'100002514057746'
S'Janta Ka Manch Hindi'
tp1756
a(S'100000338866189'
S'Athishu Jonah'
tp1757
a(S'100001915326873'
S'Prem Agarwal'
tp1758
a(S'100002235624267'
S'Meenakshi Joshi'
tp1759
a(S'100002041683443'
S'Lcvs Ngo'
tp1760
a(S'1072912091'
S'Bharat Gyan Vigyan Samiti'
tp1761
a(S'100003642470998'
S'Kumar Balram Agrawal'
tp1762
a(S'100000356416123'
S'Swami Agnivesh'
tp1763
a(S'100000557164620'
S'Harish Burnwal'
tp1764
a(S'816134991'
S'\\u0917\\u0940\\u0924\\u093e \\u092a\\u0902\\u0921\\u093f\\u0924'
tp1765
a(S'100002092622309'
S'Ramanand Prasad'
tp1766
a(S'1249279193'
S'Devjit Nandi'
tp1767
a(S'100005828436029'
S'Sarbahara Path'
tp1768
a(S'100002779785017'
S'Charles Marandi'
tp1769
a(S'100001997645741'
S'Ankur Kaushik'
tp1770
a(S'1145501698'
S'Nani Viloria Herrera'
tp1771
a(S'100000786082146'
S'Devjit Nandi'
tp1772
a(S'1352471237'
S'HIrenkumar Shukla'
tp1773
a(S'100007505083469'
S'Sudhanshu Sharma'
tp1774
a(S'1152259291'
S'Vishnu Tripathi'
tp1775
a(S'100000016365938'
S'Rohit Singh'
tp1776
a(S'100001556580358'
S'Pramod Kumar Yadav'
tp1777
a(S'100003496500263'
S'\\u0905\\u0930\\u0941\\u0923\\u093e \\u0936\\u0930\\u094d\\u092e\\u093e'
tp1778
a(S'1414210553'
S'Citizen Gary'
tp1779
a(S'100003526384716'
S'Sonia Sharma'
tp1780
a(S'100001021617239'
S'Naval Joshi'
tp1781
a(S'100002537107009'
S'Mehnatkash Kalyan Sansthan Sansthan'
tp1782
a(S'100003076571107'
S'Kailash Arya'
tp1783
a(S'100004697223216'
S'Klas Delhi'
tp1784
a(S'540979646'
S'Anurag Modi'
tp1785
a(S'543188665'
S'Sunita Shanoo'
tp1786
a(S'100003708010237'
S'Labour File Tift'
tp1787
a(S'1435412710'
S'Chetan Kranti'
tp1788
a(S'1734574506'
S'Subhash Chandra'
tp1789
a(S'100003879643205'
S'Bittu Singh'
tp1790
a(S'100000373709224'
S'Virinder Singh'
tp1791
a(S'1469517889'
S'Atul Kanakk'
tp1792
a(S'1807655435'
S'Albela Khatri'
tp1793
a(S'100000462229436'
S'Uday Pratap Singh'
tp1794
a(S'1782699066'
S'Mangal Senacha'
tp1795
a(S'1585990436'
S'Vyomesh Shukla'
tp1796
a(S'686762285'
S'Kishorda Pavitra Bhagwan Jagtap'
tp1797
a(S'100001607830520'
S'Pradeep Tomar'
tp1798
a(S'1678381201'
S'\\u0905\\u0928\\u0942\\u092a \\u0936\\u094d\\u0930\\u0940\\u0928\\u093e\\u0930\\u093e\\u092f\\u0923'
tp1799
a(S'100003367007947'
S'DrBrahm Anand Brahm'
tp1800
a(S'558612950'
S'Richard Mahapatra'
tp1801
a(S'690656318'
S'Counter Currents'
tp1802
a(S'1615699433'
S'Surender Dalal'
tp1803
a(S'100000939757034'
S'Jesi Antony'
tp1804
a(S'100003189893292'
S'Rakesh Goyal'
tp1805
a(S'1700966908'
S'Prakriti Rai'
tp1806
a(S'677416374'
S'Shabnam Hashmi'
tp1807
a(S'100001615015319'
S'Monisha Kaur Sudan'
tp1808
a(S'100002016743512'
S'Madhuresh Singh'
tp1809
a(S'100002427576396'
S'Shaheen Maner'
tp1810
a(S'1053392754'
S'Prem Chand Gandhi'
tp1811
a(S'100003731544133'
S'Parveen Kumar'
tp1812
a(S'746291615'
S'Rajeshwar Vashistha'
tp1813
a(S'100001656033261'
S'Vinod Raina'
tp1814
a(S'100006615099222'
S'Sandesh Kumar'
tp1815
a(S'100001514866901'
S'Alka Bhartiya'
tp1816
a(S'100005498084405'
S'Prem Lata'
tp1817
a(S'100000338248556'
S'Anita Srivastava'
tp1818
a(S'100002390072230'
S'Govind Samastipur'
tp1819
a(S'100003556151642'
S'Sunney Vishwas'
tp1820
a(S'100005527086674'
S'Sri Brajanandan Pustakalaya'
tp1821
a(S'100002241473771'
S'Sachin Kumar'
tp1822
a(S'100001350960235'
S'Divya Srivastava'
tp1823
a(S'1566588286'
S'Paula Friedman'
tp1824
a(S'1156895008'
S'\\u092a\\u094d\\u0930\\u0947\\u092e \\u091c\\u0928\\u092e\\u0947\\u091c\\u092f'
tp1825
a(S'100004751647160'
S'Rati Singh'
tp1826
a(S'100003349413705'
S'Dharamvira Dv Gandhi'
tp1827
a(S'100002131182367'
S'Upasana Behar'
tp1828
a(S'1521136884'
S'Amit Kalla'
tp1829
a(S'100002752374048'
S'GK Dutta'
tp1830
a(S'100001488027751'
S'\\u0915\\u0943\\u0937\\u094d\\u0923 \\u0927\\u0930'
tp1831
a(S'100001001280738'
S'Ashu Chauhan'
tp1832
a(S'100005957652886'
S'Sunita Singh'
tp1833
a(S'100007129741266'
S'N.d. Pancholi'
tp1834
a(S'1307178120'
S'Manish Jain'
tp1835
a(S'100003647233092'
S'Pramod Singh'
tp1836
a(S'1214176099'
S'Shankar Suman'
tp1837
a(S'574437687'
S'Pallavi Mansingh'
tp1838
a(S'100003167861768'
S'Dharmendra Rai'
tp1839
a(S'100006916742152'
S'Brij Mohan Kabeera'
tp1840
a(S'100006899290804'
S'Rural Effort'
tp1841
a(S'100000593012704'
S'Harish Arora'
tp1842
a(S'1643199814'
p1843
S'Amitabh Agnihotri'
tp1844
a(S'1062441206'
S'Shubhranshu Choudhary'
tp1845
a(S'509528351'
S'Praveen Varshnei'
tp1846
a(S'100003282920662'
S'Archana Sharma'
tp1847
a(S'100007316082902'
S'Manjula Pradeep'
tp1848
a(S'100001940832463'
S'Priyadarshi Ranjan'
tp1849
a(S'616416047'
S'Venkatesh Sundaram'
tp1850
a(S'100001372687046'
S'Sanjeev Chandan'
tp1851
a(S'100001963423587'
S'Shayak Alok'
tp1852
a(S'1325283433'
S'Hemlata Kansotia'
tp1853
a(S'100003315192736'
S'Raghunath Singh'
tp1854
a(S'100001291627996'
S'Sarita Bhoi'
tp1855
a(S'100000744423182'
S'Virendra Sarang'
tp1856
a(S'100001000098323'
S'Jaynti Makadia'
tp1857
a(S'100002885983559'
S'Chandra Shekhar'
tp1858
a(S'100000204031860'
S'Kailash Mani Tripathi'
tp1859
a(S'100002090972205'
S'Rameshwar Yadav'
tp1860
a(S'100004362281177'
S'Manjari Dubey'
tp1861
a(S'627102569'
S'Jinee Lokaneeta'
tp1862
a(S'100003958839721'
S'Sanjay Gupta'
tp1863
a(S'758670291'
S'Manoj C Kumar'
tp1864
a(S'100000170993068'
S'Rajesh Yadav'
tp1865
a(S'100003884989672'
S'Ranu Sharma'
tp1866
a(S'100002088561396'
S'Reaching Unreached'
tp1867
a(S'100003349066876'
S'Hitender Yadav'
tp1868
a(S'100003690528800'
S'Sarbjit Singh'
tp1869
a(S'1180833451'
S'Ajit K Singh'
tp1870
a(S'100003532010717'
S'K Vivekanand Rajesh'
tp1871
a(S'1294666823'
S'Syed Shahroz Quamar'
tp1872
a(S'513383002'
S'Mathew Mattam'
tp1873
a(S'1460113823'
S'Sanjay Jothe'
tp1874
a(S'100003570821768'
S'Dhanwantri JI'
tp1875
a(S'100003332095228'
S'Aurangjeb Ahamad'
tp1876
a(S'100001707079946'
S'Shivkumar Kaushikey'
tp1877
a(S'100002041953022'
S'\\u0921\\u0949. \\u0938\\u0941\\u0928\\u0940\\u0924\\u093e'
tp1878
a(S'100000124501915'
S'Lokho Paul'
tp1879
a(S'100001603422672'
S'Soniya Singh'
tp1880
a(S'100000797463317'
S'Payal Kee'
tp1881
a(S'777434273'
S'Sarthak Ray'
tp1882
a(S'100001507227650'
S'Baabusha Kohli'
tp1883
a(S'100000737283657'
S'Raviprakash Shrivastava'
tp1884
a(S'1351303031'
S'Syed Shah Golam Gous'
tp1885
a(S'100002482835790'
S'Shrihari Pratap Shahi'
tp1886
a(S'100002287655356'
S'\\u0928\\u093e\\u0930\\u0940 \\u0936\\u0915\\u094d\\u0924\\u0940 \\u0935\\u094c\\u0932\\u0928\\u094d\\u091f\\u094d\\u0930\\u0940 \\u0913\\u0930\\u094d\\u0917\\u0928\\u093e\\u0907\\u091c\\u0947\\u0936\\u0928'
tp1887
a(S'100006733565877'
S'Shaheedbhagatsingh Vicharmanch'
tp1888
a(S'100001370988439'
S'Surendra Kumar'
tp1889
a(S'607567955'
S'Yasir Qureshi'
tp1890
a(S'100002077402868'
S'Ashwini Upadhyay'
tp1891
a(S'1051882125'
S'Raghuvir Agnihotri'
tp1892
a(S'100000584114968'
S'Arun Maheshwari'
tp1893
a(S'100001789756831'
S'Jharana Sansthan'
tp1894
a(S'100004631563090'
S'Vinod Kr Mishra'
tp1895
a(S'100003362298067'
S'Pankaj Kumar Singh'
tp1896
a(S'100001896881807'
S'Adhikaar Ngo'
tp1897
a(S'100001419410117'
S'Sanjay Sharma'
tp1898
a(S'100003945578974'
S'Verma Ajay'
tp1899
a(S'100001661627912'
S'Hindi Sahitya'
tp1900
a(S'100002617929838'
S'Pankaj Mishra'
tp1901
a(S'100002321803209'
S'Dialogue On Nukes'
tp1902
a(S'695101328'
S'Anne Mayher'
tp1903
a(S'100001690873587'
S'Mrinal Saharia'
tp1904
a(S'100001445174692'
S'Javed Akhtar Khan'
tp1905
a(S'100001916194102'
S'Vinod Dokania'
tp1906
a(S'100000368345017'
S'Siddhi Pandey'
tp1907
a(S'700933729'
S'Ramesh Suthar'
tp1908
a(S'100003292224210'
S'Mangesh Bavadekar'
tp1909
a(S'100002918816361'
S'DrSachidanand Yadav'
tp1910
a(S'542599262'
S'Hari Jaipur'
tp1911
a(S'100000114955602'
S'Geeta Gairola'
tp1912
a(S'100000331797125'
S'Rakhi Verma'
tp1913
a(S'100000677324306'
S'Gopal Pradhan'
tp1914
a(S'100002951407100'
p1915
S'Roshni Gupta'
tp1916
a(S'1024264191'
S'Vijay Orkay'
tp1917
a(S'1197508466'
S'Praveer Peter'
tp1918
a(S'100003921577937'
S'Vishal Singh'
tp1919
a(S'100003791214552'
S'Radheyshyam Bhartiya'
tp1920
a(S'100000889860009'
S'Kamal Chenoy'
tp1921
a(S'100005843561900'
S'Mahesh Kumar Vle'
tp1922
a(S'1799667728'
S'Sanjay Vishwakarma'
tp1923
a(S'100003323268675'
S'Ncc Usw'
tp1924
a(S'100000624673890'
S'Vandana Mahajan'
tp1925
a(S'100002493673135'
S'Voter Andolan Delhi'
tp1926
a(S'100001548770012'
S'Sachin Shrivastava'
tp1927
a(S'100001138010990'
S'Lakshmi Sharma'
tp1928
a(S'100001277648021'
S'Bijay Singh'
tp1929
a(S'100003645269255'
S'Kuldeep Dagar'
tp1930
a(S'556679639'
S'Ashok Kumar Dalai'
tp1931
a(S'100001369702574'
S'Camillus Rajkumar'
tp1932
a(S'100003994817034'
S'Triveni Dubey'
tp1933
a(S'100005060024229'
S'Munna Prasad'
tp1934
a(S'100007719875693'
S'Parivartankami Chhatra Sangthan Bareilly'
tp1935
a(S'100001212474010'
S'Inder Jeet Singh'
tp1936
a(S'100000775671627'
S'Vinod Menon'
tp1937
a(S'100000310143791'
S'Ravindra Tripathy'
tp1938
a(S'100004675058518'
S'Chahat Psyhiatric Counseling'
tp1939
a(S'100001468086520'
S'Thoi Singh'
tp1940
a(S'100004274405755'
S'Mohan Shrotriya'
tp1941
a(S'1817976431'
S'Ashok Bodhisattva'
tp1942
a(S'1681861113'
S'Dinesh Kumar'
tp1943
a(S'100001970056453'
S'\\u0905\\u0902\\u091c\\u0942 \\u0936\\u0930\\u094d\\u092e\\u093e'
tp1944
a(S'1401608332'
S'Virendra Dangwal Dangwal'
tp1945
a(S'100003714356421'
S'Shaz Bsa'
tp1946
a(S'1732339248'
S'Shrinath Vashishtha'
tp1947
a(S'1299024642'
S'Bhupen Singh'
tp1948
a(S'1288875386'
S'Ranjit Verma'
tp1949
a(S'1669367348'
S'Buddhesh Mani'
tp1950
a(S'100004033915406'
S'Punita Shaw'
tp1951
a(S'100000170091308'
S'Awsar India'
tp1952
a(S'557352991'
S'Avinash Kumar'
tp1953
a(S'1793048400'
S'Sanjai Rai'
tp1954
a(S'100002259280212'
S'Surender Pal Singh'
tp1955
a(S'100000174416520'
S'Monika Goel'
tp1956
a(S'100002398828239'
S'Baagi Ballia'
tp1957
a(S'1673316690'
S'Ankit Sharma'
tp1958
a(S'1331702318'
S'Vipin Choudhary'
tp1959
a(S'100001441997298'
S'Shashi Ranjan Mishra'
tp1960
a(S'100001499245591'
S'Satya Prakas Dev Pandey'
tp1961
a(S'100005185184623'
S'\\u0921\\u093e. \\u091c\\u092f \\u0936\\u0902\\u0915\\u0930 \\u0936\\u0941\\u0915\\u094d\\u0932'
tp1962
a(S'620799522'
S'Kavita Vachaknavee'
tp1963
a(S'100000088961572'
S'Anjani Kumar'
tp1964
a(S'100002729602701'
S'Sunita Kanke'
tp1965
a(S'1138031834'
S'Yunus Khan'
tp1966
a(S'100004044047598'
S'Funding Directory'
tp1967
a(S'1815079905'
S'Ramashish Ji'
tp1968
a(S'100002445505003'
S'Abhishek Kumar Dash'
tp1969
a(S'100003468440130'
S'Jati Virodhi Andolan'
tp1970
a(S'100002386077992'
S'Vishal Shukla'
tp1971
a(S'706332293'
S'Kirity Roy'
tp1972
a(S'100003947447089'
S'Gajal Aapki'
tp1973
a(S'100001575430580'
S'Parul Sharma'
tp1974
a(S'661386430'
S'Jyotirmay Das'
tp1975
a(S'100000368416271'
S'Satyen Kumar'
tp1976
a(S'100007755006694'
S'Isi New Delhi'
tp1977
a(S'1059093110'
S'Meena Bilgi'
tp1978
a(S'100004137368980'
S'Kunal Kumar'
tp1979
a(S'1261515770'
S'Nikolin Svetlana'
tp1980
a(S'100004198652762'
S'Gahnna Iyer Iyer'
tp1981
a(S'100000650443263'
S'Isha Shandilya'
tp1982
a(S'100003538047921'
S'Hambir Singh Baghel'
tp1983
a(S'100002245752620'
S'Manish Bharadwaj'
tp1984
a(S'100000428126135'
S'Prabhat Ranjan Khan'
tp1985
a(S'1786663491'
S'Vijay Kishor'
tp1986
a(S'100000939369386'
S'Nizam Wani'
tp1987
a(S'100000243696514'
S'Arvind Upadhyay'
tp1988
a(S'100002257144181'
S'Friend Sharma'
tp1989
a(S'100001700866795'
S'Ncmc Citymakers Caravan'
tp1990
a(S'100000013594781'
S'Manisha Manisha'
tp1991
a(S'100001408507182'
S'Fouzia Khan'
tp1992
a(S'1657091725'
S'Fazal Imam Mallick'
tp1993
a(S'100004997981969'
S'Joy Chakravorty'
tp1994
a(S'100002305270884'
S'Wadafoundation India'
tp1995
a(S'1708438255'
S'Atul Anjaan'
tp1996
a(S'100003733852904'
S'Dinesh Aggarwal'
tp1997
a(S'100002532471415'
S'Santosh Mishra'
tp1998
a(S'1018038350'
S'Hena Chakrabarty'
tp1999
a(S'100000953192118'
S'Vishnu Kumar Gupta'
tp2000
a(S'100003863006149'
S'Harnam Singh Verma'
tp2001
a(S'1823499921'
S'Mangal Senacha'
tp2002
a(S'100004316102643'
S'Samyak Entrepreneurs'
tp2003
a(S'1351353544'
S'Ram Bharati'
tp2004
a(S'1362108541'
S'Rajnish Gambhir'
tp2005
a(S'100002224301500'
S'Anna Hazare Andolan'
tp2006
a(S'100008072731004'
S'Rajaram Chaudhary'
tp2007
a(S'100000100255599'
S'Jitendra Dwivedi'
tp2008
a(S'100001630382281'
S'Nityanand Dubey'
tp2009
a(S'100001404646354'
S'Manoj Kumar'
tp2010
a(S'100006266140475'
S'Nandini Krishna Darbari'
tp2011
a(S'100001671225086'
S'Nirmal Drolia'
tp2012
a(S'100003035747656'
S'Vijay Pushpam Pathak'
tp2013
a(S'100000007418597'
S'Manoj Kumar'
tp2014
a(S'100002737051295'
S'Rani More'
tp2015
a(S'1597636170'
S'Hiren Gandhi'
tp2016
a(S'100002296375785'
S'Pffoundation Pff'
tp2017
a(S'100003090026299'
S'KC Verma'
tp2018
a(S'1113542741'
S'Arun Mishra'
tp2019
a(S'100001003396890'
S'Sanjeev Shashwati'
tp2020
a(S'100004128425076'
S'Shikha Jain'
tp2021
a(S'605635696'
S'Rajiv Tikoo'
tp2022
a(S'100000800482577'
S'Pradeep Singh'
tp2023
a(S'1410011923'
S'Subhash Mendhapurkar'
tp2024
a(S'100001693990672'
S'Biswajit Roy'
tp2025
a(S'100000299630132'
S'Saurabh Yadav'
tp2026
a(S'100001358571480'
S'NandKishore Neelam'
tp2027
a(S'100001912028880'
S'Hason Lal'
tp2028
a(S'549017953'
S'DrAlka Singh'
tp2029
a(S'100003098629962'
S'Trilok Pharswan'
tp2030
a(S'100001216166075'
S'Muzaffar Assadi'
tp2031
a(S'100002338359783'
S'Rd Tyagi'
tp2032
a(S'100003623482834'
S'Madhyama Koottam'
tp2033
a(S'729908244'
S'Wilfred Dcosta'
tp2034
a(S'100002302552240'
S'Savita Singh'
tp2035
a(S'1117603445'
S'Nalini Kant'
tp2036
a(S'1634531018'
S'Rajiv Varma'
tp2037
a(S'100000514173315'
S'Ncas India'
tp2038
a(S'100003746040716'
S'Mahesh Chandra Giri'
tp2039
a(S'595509521'
S'Vasudeo Upadhyay'
tp2040
a(S'1215731122'
S'Prem Piram'
tp2041
a(S'100000932727858'
S'Peelaram Patel'
tp2042
a(S'582427987'
S'Nitesh Sharma'
tp2043
a(S'100004775943310'
S'Rajaram Chaudhary'
tp2044
a(S'100000151968079'
S'Bhartendu Mishra'
tp2045
a(S'100001623926754'
S'Manoj Bajpai'
tp2046
a(S'100000459574726'
S'Aftab Alam'
tp2047
a(S'100005154300827'
S'Kumar Rakesh Mcij'
tp2048
a(S'1018651032'
S'Amit Kumar'
tp2049
a(S'100000771504718'
S'Krishna Shekhar'
tp2050
a(S'100000164674429'
S'Cindy Bidegary'
tp2051
a(S'100004319640909'
S'Ajay Goel'
tp2052
a(S'100002523028359'
S'Bittoo Singh'
tp2053
a(S'1800100563'
S'Indiyouth Reformer'
tp2054
a(S'100003159756484'
S'Lalit Raina'
tp2055
a(S'100001558387266'
S'Parvez Khan'
tp2056
a(S'100003508675148'
S'Puja Shukla'
tp2057
a(S'1725202162'
S'Anju Chopra'
tp2058
a(S'100006284142863'
S'Sanjay Tripathi'
tp2059
a(S'1004277366'
S'Feroze Ahmed'
tp2060
a(S'100003335144202'
S'Rajat Jain'
tp2061
a(S'100001305652585'
S'Rinku Yadav'
tp2062
a(S'100003854994768'
S'Meenakshi Singh'
tp2063
a(S'749005116'
S'Sunita Lillywhite'
tp2064
a(S'1841633435'
S'Shaji Varghese'
tp2065
a(S'100003553964548'
S'Keshav Chand Vairagi'
tp2066
a(S'100003116745077'
S'Jan Chetna'
tp2067
a(S'1563412589'
S'Muralidhar Rao N'
tp2068
a(S'1472541099'
S'Manish Kumar'
tp2069
a(S'100002835189451'
S'Naresh Selpar'
tp2070
a(S'100000081588968'
S'Satish Vikram Singh'
tp2071
a(S'100001069495880'
S'Rashmi'
tp2072
a(S'100001163956249'
S'Ceri Campaign'
tp2073
a(S'1411773044'
S'Kunal Gauraw'
tp2074
a(S'833163795'
S'Manu Manju Shukla'
tp2075
a(S'100000462950833'
S'Manish Jain'
tp2076
a(S'100001642463369'
S'Vikalp Ahmedabad'
tp2077
a(S'100001180544072'
S"Dominic D'Souza"
tp2078
a(S'1684892613'
S'Shiva Nand Jha'
tp2079
a(S'100001195633528'
S'Anil Karne'
tp2080
a(S'100001684825091'
S'Chattisgarh Mukti Morcha'
tp2081
a(S'1759618263'
S'Akbar Khan'
tp2082
a(S'1149415502'
S'Rakesh Kumar'
tp2083
a(S'100002148635972'
S'Shri Roy'
tp2084
a(S'100004091191859'
S'Ngo Begharfoundation'
tp2085
a(S'100000709699783'
S'Singh Omprakash'
tp2086
a(S'100000174530631'
S'Jeevesh Prabhakar'
tp2087
a(S'1406427145'
S'Mashkoor Alam'
tp2088
a(S'1528641424'
S'Ankit Agrawal'
tp2089
a(S'100001379794847'
S'\\u0906\\u0930. \\u091a\\u0902\\u0926\\u094d\\u0930\\u093e \\u0938\\u093f\\u0902\\u0939'
tp2090
a(S'100001332261805'
S'Arjun Singh'
tp2091
a(S'100003006323133'
S'Ashwanikumar Mishra'
tp2092
a(S'100002119020225'
S'Samar Singh'
tp2093
a(S'1775142107'
S'\\u0938\\u0941\\u0930\\u0947\\u0936 \\u091a\\u094c\\u0927\\u0930\\u0940'
tp2094
a(S'100001362957886'
S'Sudesh Bhardwaj'
tp2095
a(S'1191612637'
S'Saurabh Bhatt'
tp2096
a(S'568846806'
p2097
S'Nadeem Akhtar'
tp2098
a(S'1599334192'
S'Priyanka Sandilya'
tp2099
a(S'100001427342175'
S'Meena Srivastava'
tp2100
a(S'100000104338620'
S'Geetali Vibha Vohra'
tp2101
a(S'1306385859'
S'Jyoti Prakash Das'
tp2102
a(S'1660353482'
S'Ravi Hemadri'
tp2103
a(S'100003266587172'
S'Brajendra Singh Mauhari'
tp2104
a(S'100003109898536'
S'Chainsingh Meena'
tp2105
a(S'100004094767109'
S'Prakash Louis'
tp2106
a(S'100000092849062'
S'Veena Kumari'
tp2107
a(S'100004006484631'
S'Awaaz E Kashmir'
tp2108
a(S'591203695'
S'Chandra Shekhar Pant'
tp2109
a(S'100001954192872'
S'Lalit Kumar'
tp2110
a(S'100001956741071'
S'Suresh Khairnar'
tp2111
a(S'1558047822'
S'Selvi Roy'
tp2112
a(S'100002645757514'
S'Sushil Jogekar'
tp2113
a(S'100000249217314'
p2114
S'Rajendra Yadav'
tp2115
a(S'100004092452275'
S'\\u0935\\u093f\\u0928\\u092f \\u0917\\u0941\\u092a\\u094d\\u0924\\u093e'
tp2116
a(S'100000334606254'
S'Benny Varghese M'
tp2117
a(S'100001114721350'
S'Sheela Dongre'
tp2118
a(S'100003219846390'
S'Yaqoob Jalal Randhawa'
tp2119
a(S'1089936372'
S'Leena Dabiru'
tp2120
a(S'100001131486688'
S'Rozy Rose'
tp2121
a(S'100001474945212'
S'Ahsu Verma'
tp2122
a(S'1293498632'
S'Yogendra Krishna'
tp2123
a(S'100003656088132'
S'Sunita Kumari'
tp2124
a(S'100003055077194'
S'Kundan Dhoomil'
tp2125
a(S'100000645370710'
S'Pradeep Upadhyay'
tp2126
a(S'548875204'
S'Vishnu Mohan'
tp2127
a(S'100003101110997'
p2128
S'Sapna Manglik'
tp2129
a(S'100002395313145'
S'GauRav KRishna Yaduvanshi'
tp2130
a(S'771611039'
S'Mathew Cherian'
tp2131
a(S'100001482919092'
S'Sudha Om Dhingra'
tp2132
a(S'100001325209210'
S'Javed Khan Saroha'
tp2133
a(S'100002056827441'
S'Umesh Shriwas'
tp2134
a(S'100006232954368'
S'Ajay Tiwari'
tp2135
a(S'100000948573869'
S'Anurag Nirbhaya'
tp2136
a(S'100004225986196'
S'Chandni Pandey'
tp2137
a(S'100002107206891'
S'Rosalia Tirkry'
tp2138
a(S'100007443932012'
S'Qalam Vichar Manch Lucknow'
tp2139
a(S'633630032'
S'Anand Patwardhan'
tp2140
a(S'100004013954775'
S'Satyapal Yadav'
tp2141
a(S'1564461000'
S'Rj Shalini'
tp2142
a(S'1714135648'
S'Durga Jha'
tp2143
a(S'1851362837'
S'Mohan Singh'
tp2144
a(S'100002826141595'
S'She Trust'
tp2145
a(S'1104187614'
S'Syed Mohd Irfan'
tp2146
a(S'100001340005692'
S'Jana Natya Manch'
tp2147
a(S'1494601309'
S'Sanjay Rai'
tp2148
a(S'100002846867405'
S'Sunil Thakur'
tp2149
a(S'694151357'
S'Vrinda Grover'
tp2150
a(S'100001382579116'
S'Adminr Alumnid'
tp2151
a(S'100006010419893'
S'Ankit Yadav'
tp2152
a(S'100001822927805'
S'Rajesh Mishra'
tp2153
a(S'100000996567421'
S'ChildFund India'
tp2154
a(S'100001410969404'
S'H P Asha Ngo'
tp2155
a(S'100000067736257'
S'Shobha Shami'
tp2156
a(S'100002280240811'
S'Sudhir Kumar Mishra'
tp2157
a(S'1631305550'
S'Rabi Prakash'
tp2158
a(S'709391078'
S'Anup Sethi'
tp2159
a(S'822462349'
S'Kavita Malaiya'
tp2160
a(S'100005979960681'
S'Singer Sanjay Rai'
tp2161
a(S'1823600990'
S'Balendushekhar Mangalmurty'
tp2162
a(S'100000043842349'
S'LalChand Garg'
tp2163
a(S'711090880'
S'Kamal Krishna Roy'
tp2164
a(S'100004969562096'
S'RanVijay Singh'
tp2165
a(S'100002708504002'
S'Vivek Gupta'
tp2166
a(S'774889881'
S'Hanuma Prasadu M'
tp2167
a(S'100001417240420'
S'Anurag Dixit'
tp2168
a(S'639260264'
S'Surender Sagar'
tp2169
a(S'100003288347856'
S'Janvikasavamkalyansamiti Varanasi'
tp2170
a(S'100000648572883'
S'Sujata Mody'
tp2171
a(S'100005567587749'
S'Nhf Odisha'
tp2172
a(S'1820659140'
S'Aienla Lemtor'
tp2173
a(S'100000698363107'
S'DrAmita Agarwal'
tp2174
a(S'566064611'
S'\\u0938\\u0942\\u0930\\u091c \\u092a\\u094d\\u0930\\u0915\\u093e\\u0936'
tp2175
a(S'100003591732328'
S'Rupesh Kumar'
tp2176
a(S'100000584023418'
S'Tushar Bhattacharjee'
tp2177
a(S'100001143037817'
S'Sharma Ramakant'
tp2178
a(S'100002650552246'
S'Meenu Chawla'
tp2179
a(S'100001329031751'
S'Pratibha Bajpai'
tp2180
a(S'1698112983'
S'Naujawan BharatSabha Iftu'
tp2181
a(S'100001410947426'
S'Kumkum Joshi'
tp2182
a(S'100000890783414'
S'Anbar Shameem'
tp2183
a(S'100003194910109'
S'Samalochan Literary'
tp2184
a(S'100003054894100'
S'Prahar Ngo'
tp2185
a(S'100001254503743'
S'Guballja Muga'
tp2186
a(S'1281258266'
S'Kashyap Kishor Mishra'
tp2187
a(S'670909031'
S'Pradeep Singh'
tp2188
a(S'100002646496714'
S'Giriraj Sharma'
tp2189
a(S'1809145579'
S'Nandita Adaval'
tp2190
a(S'100000355302215'
S'Indra Bhushan Verma'
tp2191
a(S'100000559006617'
S'Chandrasmita Choudhury'
tp2192
a(S'100003596246161'
S'Kitabghar Prakashan'
tp2193
a(S'100006200168546'
S'Rakesh Agarwal'
tp2194
a(S'1831597015'
S'Gopal Jha'
tp2195
a(S'100002379892794'
S'Jyoti Sagar'
tp2196
a(S'1529680554'
S'Raman Mishra'
tp2197
a(S'100007419131953'
p2198
S'Sunita Narain'
tp2199
a(S'1793117611'
S'Hemlata Mahishwar'
tp2200
a(S'100000692737824'
S'Jyoti Sachdeva'
tp2201
a(S'22700219'
S'Prachee Sinha'
tp2202
a(S'100001226688327'
S'Renu Yadav'
tp2203
a(S'1198392532'
S'Anup Kumar Srivastava'
tp2204
a(S'100006743283875'
S'Kulbir Narang'
tp2205
a(S'794110415'
S'Gargi Sen'
tp2206
a(S'709489575'
S'\\u0905\\u092e\\u093f \\u0924\\u0947\\u0937'
tp2207
a(S'100005758154598'
S'Zahid Khan'
tp2208
a(S'100000338626942'
S'Vishnu Kant'
tp2209
a(S'1518309197'
S'Mayah Manghnani'
tp2210
a(S'1216381611'
S'Avinash Singh'
tp2211
a(S'100003571728262'
S'Shivanand Sangeeta'
tp2212
a(S'100003657517124'
S'Meera Vasudev'
tp2213
a(S'100001256575897'
S'Kanchan Sinha'
tp2214
a(S'100000010453909'
S'Pritesh Srivastava'
tp2215
a(S'100000743403942'
S'Vallabh Pandey'
tp2216
a(S'100000077344499'
S'Pl Punia'
tp2217
a(S'100004144085044'
S'Anand Pandey'
tp2218
a(S'100001627151422'
S'DrSweta Singh'
tp2219
a(S'1813423421'
S'Nand Pawar'
tp2220
a(S'100006998581117'
S'\\u0926\\u092e\\u0928 \\u0935\\u093f\\u0930\\u094b\\u0927\\u0940 \\u092e\\u094b\\u0930\\u094d\\u091a\\u093e \\u092c\\u0930\\u0947\\u0932\\u0940'
tp2221
a(S'100003890378544'
S'New Shah Baharo Ngo'
tp2222
a(S'100000851992103'
S'Rajni Kant Mudgal'
tp2223
a(S'1018255455'
S'Pravin Sinha'
tp2224
a(S'100000360006015'
S'Santosh Jagram'
tp2225
a(S'100002905907414'
S'Brij Singh'
tp2226
a(S'100000886885265'
S'Manju Rao'
tp2227
a(S'100002441850209'
S'Rajnitilak Tilak'
tp2228
a(S'1125322456'
S'Isht Deo Sankrityaayan'
tp2229
a(S'1672325522'
S'Aalok Shrivastav'
tp2230
a(S'100002513180355'
S'Vikrant Shrivastava'
tp2231
a(S'1556017333'
S'Markandey Rai'
tp2232
a(S'1255507631'
S'Karmendu Shishir'
tp2233
a(S'100003492862366'
S'Vinay Agarwal'
tp2234
a(S'100002507915028'
S'Amit Kumar'
tp2235
a(S'100000151845179'
S'Aditya Kumar Gautam'
tp2236
a(S'100001124683864'
S'Rakesh Gupta'
tp2237
a(S'1393210350'
S'Meeraz Bano'
tp2238
a(S'100003290652474'
S'Rajeshkumar Shukla'
tp2239
a(S'100001890211092'
p2240
S'Raghvendra Singh'
tp2241
a(S'1507796117'
S'V.s. Dixit'
tp2242
a(S'100002931826804'
S'Jitendra Raghuvanshi'
tp2243
a(S'100000593718628'
S'Shashi Bhushan Jha'
tp2244
a(S'100000110432832'
S'Cac Bangalore'
tp2245
a(S'100000078896186'
S'Right ToFood Campaign'
tp2246
a(S'100005366833400'
S'Mohan Singh'
tp2247
a(S'100001597509073'
S'Neetisha Xalxo'
tp2248
a(S'100002754319727'
S'Asim Mahapatra'
tp2249
a(S'100004258081353'
S'Umashankar Sangai'
tp2250
a(S'100004866034849'
S'Awantika Singh'
tp2251
a(S'100000767238684'
S'Devendra Surjan'
tp2252
a(S'100000615335630'
S'Kusum Rajgor'
tp2253
a(S'100000946578803'
S'Smokefreedelhi Delhi'
tp2254
a(S'1344510224'
S'Renu Vera'
tp2255
a(S'100005366640439'
S'Mohd Amir Aziz Beg'
tp2256
a(S'1504825908'
S'Narender Thakur'
tp2257
a(S'625805562'
S'Preeti Singh'
tp2258
a(S'100002142028653'
S'Suresh Chelembra'
tp2259
a(S'100004373408821'
S'Sarfuddin Nice'
tp2260
a(S'100002272281825'
S'Shahanshah Alam'
tp2261
a(S'100000961291470'
S'Vijay Mishra'
tp2262
a(S'1219100996'
S'Vighnesh Jha'
tp2263
a(S'100000849356453'
S'Equality India'
tp2264
a(S'100000218214402'
S'Rishi Srivastava'
tp2265
a(S'100004407762688'
S'Prathamesh Dutt Pandey'
tp2266
a(S'100001373164580'
S'Amar Pahadi'
tp2267
a(S'1281694319'
S'Bhargava Gadiyaram'
tp2268
a(S'100004537811730'
S'Sujit Ghosh'
tp2269
a(S'100003111833957'
S'Sp Abhijeet'
tp2270
a(S'100001985119272'
S'Sadanand Shahi'
tp2271
a(S'100001429959110'
S'Guddu Lahre'
tp2272
a(S'100003695216150'
S'Prasanna Pradhan'
tp2273
a(S'541317298'
S'Sunil Kohli'
tp2274
a(S'100004080103138'
S'Nashamukt India'
tp2275
a(S'1199232448'
S'Bhumesh Sharma'
tp2276
a(S'1063291874'
S'\\u0905\\u092d\\u093f\\u0928\\u0935 \\u0936\\u0941\\u0915\\u094d\\u0932'
tp2277
a(S'100004036274518'
S'Vratika Roy'
tp2278
a(S'100001200841078'
S'\\u0160\\u00efddh\\u00e5rth K\\u00fam\\u00e3r'
tp2279
a(S'100001271530964'
S'Raghvendra Awasthi'
tp2280
a(S'100000009150721'
S'Srinivasa Rao Bammidi'
tp2281
a(S'100000583763839'
S'Surendra Pratap'
tp2282
a(S'785014130'
p2283
S'GArima TiwaRi'
tp2284
a(S'100004128669425'
S'Gopu Pahadi'
tp2285
a(S'100003723649515'
S'Vinay Dubey'
tp2286
a(S'100007153419178'
S'Ballia Sansdiy Kshetra'
tp2287
a(S'100001292971907'
S'Rahul Anand'
tp2288
a(S'1064082103'
S'Ravi Kant'
tp2289
a(S'100000442668004'
S'Joseph Sebastian'
tp2290
a(S'100000924637371'
S'Hareprakash Upadhyay'
tp2291
a(S'100000792327554'
S'Singh Vp'
tp2292
a(S'100001310765553'
S'Mukesh Sinha'
tp2293
a(S'684443645'
S'Aflatoon Afloo'
tp2294
a(S'1041228766'
S'Irfan AEngineer'
tp2295
a(S'100003562905572'
S'Ravi Ranjan'
tp2296
a(S'100004352861221'
S'Priya Yadav'
tp2297
a(S'100007531807293'
S'Vineet Singh'
tp2298
a(S'100000536640192'
S'Devesh Jha'
tp2299
a(S'659061164'
S'Naveen Chander'
tp2300
a(S'100003317747178'
S'Shalini Khanna'
tp2301
a(S'701757444'
S'Purushottam Agrawal'
tp2302
a(S'100000928985599'
S'Sunita Singh'
tp2303
a(S'100000762166676'
S'Adalgiso Ippoliti'
tp2304
a(S'100000348090645'
S'Dattatray Lad'
tp2305
a(S'1602687779'
S'Naresh Madawat'
tp2306
a(S'100004914452022'
S'WE Nowruz'
tp2307
a(S'100001608676328'
S'Hemendra Singh Jhala'
tp2308
a(S'100002198275511'
S'Saman Bachpan'
tp2309
a(S'100000498442335'
S'Kauser Usman'
tp2310
a(S'100001763658499'
S'Saryu Roy'
tp2311
a(S'1162065486'
S'Mukesh Goswami'
tp2312
a(S'100003180041429'
S'Dipali Deshmukh'
tp2313
a(S'580613666'
p2314
S'Alok Puranik'
tp2315
a(S'100006334093406'
S'Harinarayan Dubey'
tp2316
a(S'1475967440'
S'Anand Pandey'
tp2317
a(S'571850308'
S'Minar Pimple'
tp2318
a(S'659190229'
S'Arvind Jain'
tp2319
a(S'100002955061558'
S'Dalit Sahitya Manch'
tp2320
a(S'100004568880052'
S'Ajay Dokania'
tp2321
a(S'100000842733175'
S'Umesh Kumar Singh'
tp2322
a(S'100000076539281'
S'Kapildev Tripathi'
tp2323
a(S'100002546499779'
S'Utkarsh Mall'
tp2324
a(S'1298768862'
S'Madhavi Shree'
tp2325
a(S'100000531110500'
S'Santosh Kumar Valmeeki'
tp2326
a(S'1599263350'
S'Rahul Pandita'
tp2327
a(S'1482322647'
S'R.s. Shrivastava Shrivastava'
tp2328
a(S'751455035'
S'Anita Cherian'
tp2329
a(S'732545518'
S'Shikha Varshney'
tp2330
a(S'100002534818552'
S'Vijaya Singh'
tp2331
a(S'100001457618013'
S'Suraj Badtiya'
tp2332
a(S'1135083303'
S'Shashwat Shekhar'
tp2333
a(S'100000010095198'
S'Vimal Kumar'
tp2334
a(S'100003215676246'
S'Ashutosh Pandey'
tp2335
a(S'100003691266791'
S'Amitaa Nikose'
tp2336
a(S'100002061555228'
S'Pushpa Tripathi'
tp2337
a(S'100004288891243'
S'\\u0907\\u0902\\u0915\\u0932\\u093e\\u092c\\u0940 \\u0928\\u0935\\u091c\\u0935\\u093e\\u0928 \\u0932\\u0947\\u0916\\u0915 \\u0938\\u0902\\u0918'
tp2338
a(S'100002469140443'
S'Shishir Upadhyay'
tp2339
a(S'550624567'
S'Raghav Agrawal'
tp2340
a(S'100001246241985'
S'Sowmen Mitter'
tp2341
a(S'100003817161655'
S'Nayee Pahal'
tp2342
a(S'100000499646420'
S'Prabhat Kumar'
tp2343
a(S'100000285950548'
S'Dipankar Kaundilya'
tp2344
a(S'794503623'
S'Lalita Ramdas'
tp2345
a(S'100000677239421'
S'Arjun Prasad Singh'
tp2346
a(S'100006915312270'
S'Paigam Mohabbat'
tp2347
a(S'1180774179'
S'Rocky Rakesh'
tp2348
a(S'1343118779'
S'Sawna Mardi'
tp2349
a(S'100002804226811'
S'Jp Narela'
tp2350
a(S'100003403141445'
S'Amod Shastri'
tp2351
a(S'100002187860098'
S'Ashish Rai'
tp2352
a(S'100003958310781'
S'Shivani Gupta'
tp2353
a(S'1100747962'
S'Tauqueer Ali Sabri'
tp2354
a(S'1088978957'
S'Lalit Saraswat'
tp2355
a(S'100003014906636'
S'Tejinder Gagan'
tp2356
a(S'622663709'
S'Cedric Prakash'
tp2357
a(S'1785339822'
S'Sharad Dixit'
tp2358
a(S'100000594801507'
S'Amit Kumar Yadav'
tp2359
a(S'100003078532399'
S'Ved Narayan Singh'
tp2360
a(S'1503349843'
S'\\u0930\\u0923\\u0935\\u093f\\u091c\\u092f \\u0938\\u093f\\u0902\\u0939 \\u0930\\u093e\\u091c\\u092a\\u0942\\u0924'
tp2361
a(S'100001449679575'
S'Veena Srivastava'
tp2362
a(S'100001576592806'
S'Geeta Singh'
tp2363
a(S'1695161596'
S'John Vm Juliana'
tp2364
a(S'1350813301'
S'Ajeet Singh'
tp2365
a(S'100002983931478'
S'Radhi Surendran'
tp2366
a(S'1587706266'
S'Arti Verma'
tp2367
a(S'1314498276'
S'Sam Chelladurai'
tp2368
a(S'100001585314734'
S'Ravi Shankar Singh Baaghi'
tp2369
a(S'100001498301320'
S'Prakash Kamble'
tp2370
a(S'100001381755593'
S'Ehsan Qazi'
tp2371
a(S'100000731917589'
S'Prabhat Prakashan'
tp2372
a(S'100001029669478'
S'Saumya Bansal'
tp2373
a(S'1108518504'
S'Priya Darshan'
tp2374
a(S'100002906075954'
S'Yasir Arafath T'
tp2375
a(S'100000466185904'
S'Rahul Shrivastava'
tp2376
a(S'100002758818767'
S'Sujata Choudhary'
tp2377
a(S'519757540'
S'Simi Malhotra'
tp2378
a(S'100003654341126'
S'RAhul Patel'
tp2379
a(S'100002047084840'
p2380
S'\\u0921\\u093e.\\u0905\\u0928\\u0941\\u091c \\u0915\\u0941\\u092e\\u093e\\u0930 \\u092a\\u091f\\u0947\\u0932'
tp2381
a(S'100003007937708'
S'Bhartiy Mnrega Majdur Mahasabha'
tp2382
a(S'100000467716381'
S'Tejbhan Tej'
tp2383
a(S'100001001085838'
S'Anand Prakash Tiwari'
tp2384
a(S'100001785612145'
S'Showket Para'
tp2385
a(S'100000060687710'
S'Deepak Singh'
tp2386
a(S'1186917045'
S'Neeraj Rehan'
tp2387
a(S'1673858110'
S'Abu Torab'
tp2388
a(S'1132727836'
S'Zeeshan Mohammad'
tp2389
a(S'100003209239139'
S'Ishwar Prajapati'
tp2390
a(S'100001204677241'
S'Tehseen Munawer'
tp2391
a(S'100004799441237'
S'\\u0926\\u093f\\u0932\\u0940\\u092a \\u0935\\u093e\\u0939\\u093f\\u0928\\u0940'
tp2392
a(S'656982449'
S'Uday Kumar'
tp2393
a(S'575743383'
S'Soumitra Bose'
tp2394
a(S'100001725980361'
S'Neef Bongaigaon Assam'
tp2395
a(S'100006112814653'
S'Hemant Kummar Bauddh'
tp2396
a(S'100002104533478'
S'Krishnadevsinh Sarvaiya'
tp2397
a(S'1756461901'
S'Rajesh Kumar'
tp2398
a(S'100000691066709'
S'Renu Siroya'
tp2399
a(S'100000368686596'
S'Sadre Alam'
tp2400
a(S'100002871505451'
S'Ivy Gyanen'
tp2401
a(S'100002457173746'
S'Ravi Shanker Chaturvedi'
tp2402
a(S'1055239019'
S'Deepak Bharti'
tp2403
a(S'617506491'
S'Rajeev Ranjan Jha'
tp2404
a(S'1484502751'
S'Anup Singh'
tp2405
a(S'100001360284519'
S'Akhilesh Akhil'
tp2406
a(S'1132923052'
S'Sakib Nissar Qadri'
tp2407
a(S'100000226713088'
S'Sc Mudgal'
tp2408
a(S'100002767758682'
S'Lalit Surjan'
tp2409
a(S'1261731266'
S'Navneet Kumar Tripathi'
tp2410
a(S'727174589'
S'Manoj Mitta'
tp2411
a(S'100002455746281'
S'Rajnikant Shukla'
tp2412
a(S'100001098946506'
S'Ambedkarindia India'
tp2413
a(S'1769488523'
S'Vipnesh Gautam'
tp2414
a(S'100001221268157'
S'Virendra Yadav'
tp2415
a(S'100000134176848'
S'Matuk Nath'
tp2416
a(S'100005275356734'
S'Kranti Kumar'
tp2417
a(S'100000192175822'
S'Shashi Bhooshan'
tp2418
a(S'100004144444853'
S'Archna Vishvas'
tp2419
a(S'100005621649969'
S'Hem Singh'
tp2420
a(S'100002919236590'
S'Manjeet Kaur'
tp2421
a(S'1123008291'
S'Samar Haideri'
tp2422
a(S'1278292878'
S'Ajit Jha'
tp2423
a(S'100005872535920'
S'Shashi Jain'
tp2424
a(S'532720233'
S'Amit Bhattacharya'
tp2425
a(S'100000885074598'
S'Sri Krishna Godham'
tp2426
a(S'100002360694103'
S'Bharatiya Janta Partykashmir'
tp2427
a(S'100002966795022'
S'Pooja Singh'
tp2428
a(S'100000129214257'
S'Sharad Gupta'
tp2429
a(S'100002002789269'
S'Peter Lasrado'
tp2430
a(S'100002867928066'
S'Raman Singh'
tp2431
a(S'100004149570545'
S'Beti Bachao Aandolan'
tp2432
a(S'100002933884314'
S'DrDurga Sharan Mishra'
tp2433
a(S'100001630666720'
S'Rashmi Sharma'
tp2434
a(S'100000185118606'
S'Chandrakant Dhanni'
tp2435
a(S'678288127'
S'Pushpendra Singh'
tp2436
a(S'1332524503'
S'Gyanendra Shukla'
tp2437
a(S'100002838664113'
S'Pushpa Chand'
tp2438
a(S'100003516594688'
S'Shivanand Sangeeta'
tp2439
a(S'1384658563'
S'Meghna D Tiwari'
tp2440
a(S'100001591448192'
S'Satya Sidhartha Pawar'
tp2441
a(S'100003875304657'
S'Chinwag Pakistan'
tp2442
a(S'100002443403773'
S'Gabriel Olufemi Anifowose'
tp2443
a(S'1011078952'
S'Nana Lal Sharma'
tp2444
a(S'100003277952084'
S'Ramavtar Bairwa'
tp2445
a(S'100003251063641'
S'Sarojini Bisht'
tp2446
a(S'1535225196'
S'Sujit Chowdhury'
tp2447
a(S'1074892287'
S'Swatantra Mishra'
tp2448
a(S'664261043'
S'Chandran Gopalakrishnan'
tp2449
a(S'100001918026111'
S'Arun Pradhan'
tp2450
a(S'100001125781062'
S'Altaf Ahmad Khan'
tp2451
a(S'100002263879320'
S'Join Nhf'
tp2452
a(S'100002656151930'
S'Nithya Sri'
tp2453
a(S'100000882132987'
S'Nisar Ahmad Khan'
tp2454
a(S'100002762181299'
S'Durgesh Tripathi'
tp2455
a(S'100000899799610'
S'Harish Naval'
tp2456
a(S'741980549'
S'Harish Saluja'
tp2457
a(S'100004367174253'
S'Vivek Chopra'
tp2458
a(S'100000845918458'
S'Ravi Thakur Shuryvansh'
tp2459
a(S'100000126482148'
S'Sanjay Dwivedi'
tp2460
a(S'100002012569687'
S'Sunil Abhiman Awachar'
tp2461
a(S'1384862227'
S'Utkarsh Sinha'
tp2462
a(S'100005600441667'
S'Arup Chatterjee'
tp2463
a(S'100001720818525'
S'Satyendra Kumar'
tp2464
a(S'100001455616061'
S'Atul Pandey'
tp2465
a(S'1838944379'
S'Chetan Malviya Journalist'
tp2466
a(S'1230036814'
S'Biplab Mukherjee'
tp2467
a(S'1586120847'
S'Devendra Singh'
tp2468
a(S'100002518925752'
S'\\u092a\\u0932\\u094d\\u0932\\u0935\\u0940 \\u0915\\u094c\\u0930 \\u091c\\u094c\\u0939\\u0930'
tp2469
a(S'100002636338485'
S'Mohammad Ekram'
tp2470
a(S'100006181892306'
S'Upendrasingh Bundela'
tp2471
a(S'100000864870026'
S'Kumar Mukesh'
tp2472
a(S'539242765'
S'Rizvanul Haque'
tp2473
a(S'100000811440865'
S'Pankaj Thakur'
tp2474
a(S'709405129'
S'Jennifer Quadros'
tp2475
a(S'100002383224971'
S'Ramsharan Joshi'
tp2476
a(S'100003001787064'
S'Krishna Mohan'
tp2477
a(S'100006063792600'
S'Aadarsh Gautam'
tp2478
a(S'100000305072553'
S'Sumit Singhania'
tp2479
a(S'1295372220'
S'Ashok Kumar Singh'
tp2480
a(S'100005120820300'
S'Aazadi Bachao Aandolan'
tp2481
a(S'659287046'
S'Saba Dewan'
tp2482
a(S'723731537'
S'Rajnish Saran'
tp2483
a(S'100001354459297'
S'Bhuvan Lal'
tp2484
a(S'100002124434001'
S'Shubha Rao'
tp2485
a(S'788102153'
S'Jaya Sajal'
tp2486
a(S'100000141134676'
S'Siba Sankar Mohanty'
tp2487
a(S'100001406604857'
S'\\u0909\\u0924\\u094d\\u0924\\u092e\\u0930\\u093e\\u0935 \\u0915\\u094d\\u0937\\u0940\\u0930\\u0938\\u093e\\u0917\\u0930'
tp2488
a(S'615187972'
S"Joe D'Souza"
tp2489
a(S'100001744809417'
S'Siddharth Upadhyay'
tp2490
a(S'100002871870946'
S'Prem Sagar Patel'
tp2491
a(S'100006798183744'
S'Rajendra Singh'
tp2492
a(S'100001965507722'
S'Rtf Bihar'
tp2493
a(S'100002908882641'
S'Naresh Kr Sharma'
tp2494
a(S'100003738324961'
S'Ashis Das'
tp2495
a(S'100006863860885'
S'Ashok Azami'
tp2496
a(S'100000543925959'
S'Sasi Kp'
tp2497
a(S'100002643340330'
S'Panchayat Abhiyan Prakash Om'
tp2498
a(S'100003584935688'
S'Navya Singh'
tp2499
a(S'100002714672224'
S'Alpana Kanpurthird'
tp2500
a(S'1061805786'
S'Nabil Singh'
tp2501
a(S'100002157127520'
S'Kunjamma Joseph'
tp2502
a(S'100001259599692'
S'Bipin Rai'
tp2503
a(S'100000926215635'
S'Arvind Pratap'
tp2504
a(S'100001501736771'
S'Murad Ali'
tp2505
a(S'100006053651354'
S'Nirmal Gangnani'
tp2506
a(S'100002207482796'
S'Anuj Gupta'
tp2507
a(S'100001796062340'
S'Krishna Kant'
tp2508
a(S'100000133017596'
S'Pradeep Jilwane'
tp2509
a(S'100001277612994'
S'Arun Kumar'
tp2510
a(S'100000306746850'
S'Praveen Kumar'
tp2511
a(S'100003866205826'
S'Ashish Meshram'
tp2512
a(S'100001925872741'
S'Rudraksha DevelopmentOrganisation'
tp2513
a(S'100004129380969'
S'Sunil Kumar'
tp2514
a(S'100002081528312'
S'Cornelius Baxla'
tp2515
a(S'100000811261460'
S'Samit Carr'
tp2516
a(S'1044760784'
S'Walter Fernandes'
tp2517
a(S'100003739891711'
S'Dev Tour'
tp2518
a(S'100001593051717'
S'\\u0905\\u0932\\u0915\\u093e \\u0917\\u0941\\u092a\\u094d\\u0924\\u093e'
tp2519
a(S'100002005581566'
S'Valmiki Kom Mr-valmikiyan'
tp2520
a(S'100005753413083'
S'Savita Suman'
tp2521
a(S'100000583975187'
S'Anoop Shramik'
tp2522
a(S'609115012'
S'Shaheen Ansari'
tp2523
a(S'100001152379738'
S'Aloka Ranchi'
tp2524
a(S'1499499831'
S'Rajiv Mishra'
tp2525
a(S'1672160319'
S'Pankaj Bhushan'
tp2526
a(S'810014903'
S'Madhu Trehan'
tp2527
a(S'1456125594'
S'Sanjay Narvekar'
tp2528
a(S'100001908326892'
S'Lalbahadur Verma'
tp2529
a(S'608350731'
p2530
S'Kumar Onkareshwar'
tp2531
a(S'100000774773346'
S'Smile Foryouth'
tp2532
a(S'100001357111073'
S'Mrityunjay Prabhakar'
tp2533
a(S'100001469986162'
S'Hiralal Rajasthani'
tp2534
a(S'100000826130438'
S'Kailash Wankhede'
tp2535
a(S'100003337360806'
S'Sunil J Ingle'
tp2536
a(S'100005467958708'
S'Prema Bhatt'
tp2537
a(S'100001488976406'
S'Rajeev Ranjan'
tp2538
a(S'100001554279451'
S'Kalpana Tripathi Pant'
tp2539
a(S'100002871264316'
S'Animesh Mishra'
tp2540
a(S'100004156121154'
S'Jan Adhikar Kendra'
tp2541
a(S'100003037995910'
S'Priyanka Gahlot'
tp2542
a(S'100002517227120'
S'Raj Kumar Ranawat'
tp2543
a(S'100000464304430'
S'Sree Kanth Guntur'
tp2544
a(S'100001547236329'
S'Suresh Bundel'
tp2545
a(S'100002474653132'
S'Susovan Saha'
tp2546
a(S'1193501331'
S'S M Zaki Ahmad'
tp2547
a(S'100002190558225'
S'Mujeebul Rahman'
tp2548
a(S'100002689054900'
S'Sanjay Srivastava'
tp2549
a(S'100002491504067'
S'\\u0921\\u0949. \\u092a\\u094d\\u0930\\u0940\\u0924 \\u0905\\u0930\\u094b\\u095c\\u093e'
tp2550
a(S'100002095320478'
S'Raj Kumar Rakesh'
tp2551
a(S'1344741046'
S'Dhananjay Tingal'
tp2552
a(S'100001873396657'
S'Chingari Trust'
tp2553
a(S'1321249825'
S'Jaspal Singh Naol'
tp2554
a(S'100002360859400'
S'Alankar Rastogi'
tp2555
a(S'100004595377681'
S'Mohammad Arif'
tp2556
a(S'100003568457558'
S'Kapil Dev Kesari'
tp2557
a(S'100001255638895'
S'Parshuram Tiadi'
tp2558
a(S'1573813920'
S'San Tosh K'
tp2559
a(S'100000412728328'
S'Chetanabhinendra Kumar'
tp2560
a(S'100000995190050'
S'Julia Nyzhnay'
tp2561
a(S'1542602886'
S'Anup Kumar Agrawal'
tp2562
a(S'100000948913994'
S'Santosh Srivastava'
tp2563
a(S'100003360129891'
S'Anamika Nigam'
tp2564
a(S'100000769802241'
S'Mohd Shakil'
tp2565
a(S'1417361914'
S'Indira Iyengar'
tp2566
a(S'100001417366380'
S'Prakash Shikshan Prasarak Sanstha'
tp2567
a(S'100002714481230'
S'Satyaprakash Prawal'
tp2568
a(S'100001605763352'
S'Developmentnet Work'
tp2569
a(S'573540212'
S'Anita Cheria'
tp2570
a(S'100003597654998'
S'Ruby Srivastava'
tp2571
a(S'100000096223800'
S'Parmod Mehra'
tp2572
a(S'100005645682268'
S'Kalpesh Dobariya'
tp2573
a(S'100004679893890'
S'Suman Takkar'
tp2574
a(S'577016632'
p2575
S'Lalit Mohan Joshi'
tp2576
a(S'100002617003495'
S'Amrapali Meshram'
tp2577
a(S'100003188976763'
S'Janmadhyam Jharkhand'
tp2578
a(S'1202038612'
S'Leander Toppo'
tp2579
a(S'100006138061177'
S'Vimal Kumar'
tp2580
a(S'1739974807'
S'Abhishek Sonu'
tp2581
a(S'100005968327912'
S'Unlocky Ramu'
tp2582
a(S'100002794111768'
S'Angel Hindustani'
tp2583
a(S'100000380503437'
S'Sunil Sharma'
tp2584
a(S'100002960342431'
S'Syed Arshad Raza'
tp2585
a(S'100000937526821'
S'Moid Alam'
tp2586
a(S'100007191010073'
S'Rajesh Chaturvedi'
tp2587
a(S'100002021325788'
S'Janhvi Singh'
tp2588
a(S'100006745986388'
S'Ajay Tiwari'
tp2589
a(S'100004560781811'
S'Ajay Kumar'
tp2590
a(S'100002227533180'
S'Rajmani Raj Mani'
tp2591
a(S'100002456337892'
S'Sangita Kumari Soni Soni'
tp2592
a(S'100005096444009'
S'Sanjay Dutt'
tp2593
a(S'100000504926030'
S'Kavita Singh'
tp2594
a(S'741543245'
S'Subhash Bhatnagar'
tp2595
a(S'100003653123513'
S'Veena Sharma'
tp2596
a(S'546123153'
S'Glenfrey Bernil De Mel'
tp2597
a(S'100002662765250'
S'NgoKanyakumari Net Work'
tp2598
a(S'100000254948064'
S'Ashish Awasthi'
tp2599
a(S'100005163249112'
S'Alok Dubey'
tp2600
a(S'100000193839894'
S'Prabhat Ranjan Deen'
tp2601
a(S'100000297067334'
S'Rananjay Singh'
tp2602
a(S'100001687427372'
S'Anhad Mumbai'
tp2603
a(S'1159512860'
S'Akhilesh Shukla'
tp2604
a(S'100004883407333'
S'Rampravesh Sharma'
tp2605
a(S'1269686657'
S'Santosh K Joy'
tp2606
a(S'100007131094369'
S'Caritas India'
tp2607
a(S'100001375626883'
S'Mukesh Pandey Chandan'
tp2608
a(S'1436569472'
S'Uma Chaturvedi'
tp2609
a(S'1236040360'
S'Sandeep P Jedhe'
tp2610
a(S'100003314034507'
S'Kailash Shaadaab'
tp2611
a(S'670781723'
S'Anuj Kumar Tiwari'
tp2612
a(S'100003712746287'
S'Virendra Kumar'
tp2613
a(S'100002561883203'
S'Monu Sharma'
tp2614
a(S'100001937945671'
S'Sanjay Srivastava'
tp2615
a(S'100001740662731'
S'Dalit ON Line'
tp2616
a(S'1485313098'
S'\\u0905\\u091c\\u092f \\u0915\\u0941\\u092e\\u093e\\u0930 \\u091d\\u093e'
tp2617
a(S'1015220523'
S'Vinay Ranjan'
tp2618
a(S'100002192280112'
S'Swarn Kanta'
tp2619
a(S'100003892049115'
S'Anuradha Prakashan'
tp2620
a(S'100003275589254'
S'Hardayal Choudhary'
tp2621
a(S'100002465810551'
S'Chaturanan Ojha'
tp2622
a(S'100001504821772'
S'Rohit Thakur'
tp2623
a(S'1600666429'
S'Vivek Pandey'
tp2624
a(S'1581805072'
S'Prashant Ramesh Gadekar Otari'
tp2625
a(S'100001119939878'
S'Ajay Narain Sharma'
tp2626
a(S'100003261177833'
S'Sunrays Cities India'
tp2627
a(S'100000525582961'
S'Sushil Yadav'
tp2628
a(S'100001871575378'
p2629
S'Amitabh Kumar'
tp2630
a(S'100001457093671'
S'Dilip Khan'
tp2631
a(S'1295083092'
S'Rakesh Bhargava'
tp2632
a(S'100000605768297'
S'Anand Patil'
tp2633
a(S'100002455913765'
S'Amol Gaikwad'
tp2634
a(S'100000184409521'
S'Ganesh Meena Dandaj'
tp2635
a(S'100006646902771'
S'Ghanshyam Dubey'
tp2636
a(S'100001591726726'
S'Asha Pandey Ojha Asha'
tp2637
a(S'1028935192'
S'Vinod Kumar Singh'
tp2638
a(S'100001750792089'
S'Sumanta K Bhowmick'
tp2639
a(S'100002266494452'
S'Sdwo Regd'
tp2640
a(S'100004191338460'
S'Seema Sharma'
tp2641
a(S'100000545593037'
S'Harsh Dobhal'
tp2642
a(S'100001411371819'
S'Nav Prabhat Singh Negi'
tp2643
a(S'100003564404001'
S'Abhay Agarwal'
tp2644
a(S'1075434852'
S'Hari Krishna'
tp2645
a(S'1216620826'
S'Viplav Vinod'
tp2646
a(S'100000797037122'
S'Mallika Bhattacharya'
tp2647
a(S'100000932774040'
S'Bishan Vaishnev'
tp2648
a(S'100000261749246'
S'Neelu Mjk'
tp2649
a(S'570390217'
S'Indu Prakash Singh'
tp2650
a(S'798823117'
S'\\u0938\\u0902\\u091c\\u0940\\u0935 \\u0924\\u093f\\u0935\\u093e\\u0930\\u0940'
tp2651
a(S'100002161552516'
S'Green Advocacy'
tp2652
a(S'100002910251065'
S'Pramod Kumar'
tp2653
a(S'100003461758159'
S'Seva Bharati'
tp2654
a(S'100000942254302'
S'Parimal Kumar Das'
tp2655
a(S'100001346386308'
S'Deshanait Jaipur'
tp2656
a(S'100003498137279'
S'Utsha Ahmed'
tp2657
a(S'100000512240575'
S'Sanjeev Upadhyay'
tp2658
a(S'1387786704'
S'Sukla Sen'
tp2659
a(S'100001174323243'
S'Sunil Sourabh'
tp2660
a(S'100005549647673'
S'Ashok Alok'
tp2661
a(S'714460101'
S'Kumar Vikram'
tp2662
a(S'100002430112138'
S'Prakash Kamble'
tp2663
a(S'633502296'
S'David Boyes'
tp2664
a(S'1845585965'
S'Rishi Kumar'
tp2665
a(S'100000708953220'
S'Ramesh Kumar Pimple'
tp2666
a(S'100001739193987'
S'Mohan Lakhiani'
tp2667
a(S'100002776515200'
S'Vow Welfare Trust'
tp2668
a(S'100001988376353'
S'Prabhat Kumar Upadhyay'
tp2669
a(S'100002004158278'
S'Banshidhar Behera'
tp2670
a(S'100003203719678'
S'Shamon Shamonvi'
tp2671
a(S'100000595601441'
S'Javed Khan'
tp2672
a(S'1785083172'
S'Anish Ankur'
tp2673
a(S'100002797279569'
S'Tulsi Ram'
tp2674
a(S'100001508588242'
S'Gram Adhikar Manch'
tp2675
a(S'100003256888510'
S'Sajha Sanskritik Manch'
tp2676
a(S'1251895429'
S'Supriya Prasad'
tp2677
a(S'100006042240814'
S'Vivek Yadav'
tp2678
a(S'100000094151435'
S'Pramod Meena'
tp2679
a(S'1256843336'
S'Shilpi Marwaha'
tp2680
a(S'1049683685'
S'Bibhav Kumar'
tp2681
a(S'100002537271691'
S'Parvinder Singh Sethi'
tp2682
a(S'1758297171'
S'Krishna Kumar Sharma'
tp2683
a(S'1383523606'
S'Apoorva Bajaj'
tp2684
a(S'100002592565938'
S'Ram Sumiran'
tp2685
a(S'100001407664117'
S'Namita Kumari'
tp2686
a(S'679448778'
S'Ram Puniyani'
tp2687
a(S'100000806594022'
S'Sawera Ngo'
tp2688
a(S'100003907104250'
S'Ram Bahadur Rai'
tp2689
a(S'1018445711'
S'Iqbal Singh Kaundal'
tp2690
a(S'100002491154435'
S'Koushal Mishra'
tp2691
a(S'100005336590358'
S'Bhaskar Sukla'
tp2692
a(S'1255296096'
S'Sushil Kumar'
tp2693
a(S'100000261018543'
S'\\u0909\\u092a\\u0926\\u0947\\u0936 \\u0938\\u0915\\u094d\\u0938\\u0947\\u0928\\u093e'
tp2694
a(S'100000387388488'
S'Mudra Rakshasa'
tp2695
a(S'100001535658193'
S'Ramesh Gongadi'
tp2696
a(S'100003100286792'
S'Saktiman Ghosh'
tp2697
a(S'1416268442'
S'Satyendra Kumar'
tp2698
a(S'100003843081339'
S'Rajjan Patel'
tp2699
a(S'100001367201176'
S'Deepak Upadhyaya'
tp2700
a(S'100002958000292'
S'Rishikesh Pathak'
tp2701
a(S'100000244137733'
S'Kumud Singh'
tp2702
a(S'100002393539357'
S'Sangya Singh'
tp2703
a(S'100003834232464'
S'Balkrishna Yadav'
tp2704
a(S'100001608536201'
S'Hina Foundation'
tp2705
a(S'100000746808398'
S'Lalji Desai'
tp2706
a(S'100005006317765'
S'Ashwani Dhawan'
tp2707
a(S'100003660711055'
S'Ncer India'
tp2708
a(S'1633977402'
S'Lalbahadur Ojha'
tp2709
a(S'100000022666699'
S'Banti Tiwari'
tp2710
a(S'100003262653055'
S'Jp Babita'
tp2711
a(S'800910771'
S'Abhay Tiwari'
tp2712
a(S'1584939877'
S'Susham Bedi'
tp2713
a(S'100004991920363'
S'Elsa Risma'
tp2714
a(S'100001974823188'
S'Raghav Chaturvedi'
tp2715
a(S'100003519828843'
S'Ravindra Kalia'
tp2716
a(S'1580649261'
S'Saurabh Singh'
tp2717
a(S'1346972212'
S"Kumar Swasti Priye 'Warsi'"
tp2718
a(S'100001416764493'
S'Ranjeet Thakur'
tp2719
a(S'100001213747655'
S'Ranjan Kumar'
tp2720
a(S'1467829233'
S'Hari Ram Meena'
tp2721
a(S'100000056859040'
S'Hanuman Galwa'
tp2722
a(S'100003195110225'
S'Abhishek Mishra'
tp2723
a(S'100001217764935'
S'Pawan Goyal'
tp2724
a(S'100001807967004'
S'Udai Kirola Balprahri'
tp2725
a(S'100003631239551'
S'Prabhu Narayan Verma'
tp2726
a(S'100001319660769'
S'Asrar Khan'
tp2727
a(S'100002785339372'
S'Subhash Tripathi'
tp2728
a(S'100001300024897'
S'Chanderkanta Silhi'
tp2729
a(S'100002517665754'
S'Vijay Pratap'
tp2730
a(S'611290851'
S'Ashok Lav'
tp2731
a(S'100002897465600'
S'Sayed Tapan Azad'
tp2732
a(S'100000750185021'
S'Manish Gaikwad'
tp2733
a(S'100004670765250'
S'Literaturein India'
tp2734
a(S'100003070903627'
S'Manokamna Vimal'
tp2735
a(S'1142081483'
S'Saroj Mishra'
tp2736
a(S'100004559263270'
S'Ashival Kumar'
tp2737
a(S'100002456910365'
S'Artist Sudhir Singh'
tp2738
a(S'100000439550009'
S'Sanjay Bharti'
tp2739
a(S'100001529078014'
S'Shyambir Shukla'
tp2740
a(S'100003827603722'
S'\\u0939\\u093f\\u0928\\u094d\\u0926\\u0940 \\u0938\\u093f\\u0928\\u0947\\u092e\\u093e'
tp2741
a(S'100003611542652'
p2742
S'Rupa Singh'
tp2743
a(S'100002843810788'
S'Sudha Raje'
tp2744
a(S'100003755949650'
S'Shiv Murti'
tp2745
a(S'100000118314718'
S'Prakash Erankar'
tp2746
a(S'1412602288'
S'Rajesh Srivastava'
tp2747
a(S'100002234741075'
S'Samaj Sewa Sansthan'
tp2748
a(S'100000480560344'
S'Vinod Kataria'
tp2749
a(S'100005214152683'
S'Pie India'
tp2750
a(S'100004324329763'
S'Maitreyi Pushpa'
tp2751
a(S'800950692'
S'Lakhbir Singh Khunkhun'
tp2752
a(S'100005435910751'
S'Sunil Kumar'
tp2753
a(S'680212460'
S'Kishore Jha'
tp2754
a(S'100003020303119'
S'Vinit Upadhyay'
tp2755
a(S'1351869105'
S'Shafiq Ur Rahman Khan'
tp2756
a(S'100000123556378'
S'Ankita Rastogi'
tp2757
a(S'1232854966'
S'Shiv Narayan'
tp2758
a(S'1134957668'
S'Harsh Vardhan'
tp2759
a(S'100001497130474'
S'Somnath Mukherjee'
tp2760
a(S'100000666868258'
S'Rama Sharma'
tp2761
a(S'100005916330509'
S'Anju Sharma'
tp2762
a(S'100001128887779'
S'Neha Shukla'
tp2763
a(S'100002897075210'
S'Akhilesh Shandilya'
tp2764
a(S'100003913360642'
S'Sadhvi Vibha Mishra'
tp2765
a(S'100005467381919'
S'Sanitation Campaign South Asia'
tp2766
a(S'100002012972775'
S'Premchand Dabi'
tp2767
a(S'100000046792028'
S'Shruti Dimble'
tp2768
a(S'645940751'
S'Maa Samta'
tp2769
a(S'100003065072754'
S'Manoj Kumarjha'
tp2770
a(S'100002812182954'
S'Sanjeev Thakur'
tp2771
a(S'100005267194650'
S'Zeenat Tarique'
tp2772
a(S'100000827760579'
S'Hem Mishra'
tp2773
a(S'1755324702'
S'Darshan Baweja'
tp2774
a(S'100002220607187'
S'Harit Prayas'
tp2775
a(S'521517383'
S'Bijulal Mecheril'
tp2776
a(S'661580168'
S'Vineeta Singh'
tp2777
a(S'100001194656127'
S'Lalitya Lalit'
tp2778
a(S'531828137'
S'Ranvir Sharda'
tp2779
a(S'100006859268238'
S'Arunoday Kumar'
tp2780
a(S'100000165670378'
S'Krishna Mohan Jha'
tp2781
a(S'100000138326933'
S'Spidsociety Spid'
tp2782
a(S'100004252651315'
S'Vaibhav Srivastava'
tp2783
a(S'100000738385621'
S'Sanjay Sharma'
tp2784
a(S'1214537647'
S'Neelam Madiratta'
tp2785
a(S'1492007524'
S'Akhilesh Kumar Pathak'
tp2786
a(S'100003477930382'
S'Hum Hindustani'
tp2787
a(S'100001095139924'
S'\\u092e\\u0941\\u0915\\u0947\\u0936 \\u091a\\u0928\\u094d\\u0926\\u094d\\u0930\\u093e'
tp2788
a(S'100001053866439'
S"\\u092a\\u0902.\\u0935\\u093f\\u091c\\u092f \\u0924\\u094d\\u0930\\u093f\\u092a\\u093e\\u0920\\u0940 '\\u0935\\u093f\\u091c\\u092f'"
tp2789
a(S'100001502715797'
S'Amit Bhushan'
tp2790
a(S'100002229781227'
S'\\u092a\\u094d\\u0930\\u0926\\u094d\\u092f\\u0941\\u092e\\u094d\\u0928 \\u0915\\u0941\\u092e\\u093e\\u0930'
tp2791
a(S'100000468755933'
S'Rajeev Kj'
tp2792
a(S'100000824794373'
S'Manoj Kumar'
tp2793
a(S'100000800388054'
S'Manjusree Talukdar'
tp2794
a(S'100002101418630'
S'Shailendra Kumar'
tp2795
a(S'100001292384182'
S'Vishal Verma'
tp2796
a(S'100000523828645'
S'Ramesh Babu'
tp2797
a(S'100003992520921'
S'\\u0915\\u0935\\u093f \\u0921\\u0949 \\u0928\\u0930\\u0947\\u0936 \\u0938\\u093e\\u0917\\u0930'
tp2798
a(S'100002380035654'
S'Child Suraksha'
tp2799
a(S'100003129156690'
S'Shri Chandra Charities Scc'
tp2800
a(S'100002824399684'
S'Nalini Singh'
tp2801
a(S'100003524994501'
S'Nirmla Baudh'
tp2802
a(S'100004480122207'
S'Durga Prassad Gupt'
tp2803
a(S'1303034588'
S'Pranav Kumar Chaudhary'
tp2804
a(S'100001850848127'
S'Indu Akhand'
tp2805
a(S'705621767'
S'Pawan Tripathi'
tp2806
a(S'100000796216465'
S'Nityanand Tiwari'
tp2807
a(S'100002993794555'
S'Rakesh Kumar'
tp2808
a(S'100003578898965'
S'Prakash Sewa Sansthan'
tp2809
a(S'100000573314331'
S'Urus Siddiqui'
tp2810
a(S'100001970304216'
S'Samy JArockia'
tp2811
a(S'100002758177281'
S'Narmada Bachao Andolan'
tp2812
a(S'100000855903902'
S'Noble Cause Foundatn'
tp2813
a(S'100000912157853'
S'Mritunjay Mritunjay'
tp2814
a(S'100002567412321'
S'Ghouse Cyda'
tp2815
a(S'100001907850630'
S'Shambhu Bhadra'
tp2816
a(S'1298112394'
S'Hrln Delhi'
tp2817
a(S'100001416753632'
S'Tara Shanker'
tp2818
a(S'667614569'
S'Ishan Shahi'
tp2819
a(S'100000099822992'
S'Basant Kumar Jha'
tp2820
a(S'100000116038696'
S'Padma Sharma'
tp2821
a(S'100003685689823'
S'Sapna Manglik'
tp2822
a(S'1816766596'
S'Vijay Srivastava'
tp2823
a(S'100000585856564'
S'Smita Misra'
tp2824
a(S'100001458694892'
p2825
S'Alka Tiwari'
tp2826
a(S'100000254180392'
S'Kumar Ambuj'
tp2827
a(S'1416488202'
S'Sandhya Navodita'
tp2828
a(S'660366878'
S'Sunil Kumar Aledia'
tp2829
a(S'100001693517536'
S'Satguru Sharan Verma'
tp2830
a(S'750811521'
S'Ashok Kumar Bharti AshokaFellow'
tp2831
a(S'1071507484'
S'Arti Pandey'
tp2832
a(S'100000248343324'
S'Vijayan Mj'
tp2833
a(S'100001448511669'
S'Sushil Chaudhary'
tp2834
a(S'100004180444728'
S'Abhishek Singh'
tp2835
a(S'1477475693'
S'Suranjan Dutt'
tp2836
a(S'100002533209660'
S'Shobha Bisen'
tp2837
a(S'100002519919488'
S'Manoj Dubey'
tp2838
a(S'754443672'
S'Rajeev R. Singh'
tp2839
a(S'100001279442333'
S'Ashok Moti'
tp2840
a(S'100002319736243'
S'Kailash Kumar'
tp2841
a(S'1244757412'
S'Varunesh Vijay'
tp2842
a(S'100007026608623'
S'Sampriti Malik'
tp2843
a(S'100001166799749'
S'Rathish Sharma'
tp2844
a(S'100001827162742'
S'Pramod Shukla'
tp2845
a(S'100006495463575'
S'Azam Anwar'
tp2846
a(S'100002531484062'
S'Adesh Garg'
tp2847
a(S'100002208163670'
S'DrCaptaindinesha Bhardwajsingh'
tp2848
a(S'679170440'
S'Bobby Ramakant'
tp2849
a(S'100003091842223'
S'Shabana Shabnam'
tp2850
a(S'100006671381410'
S'Alkasingh Khirwar Theatre-Director'
tp2851
a(S'100001798945565'
S'Mushtaq Veeri'
tp2852
a(S'589115815'
S'Suyash Deep Rai'
tp2853
a(S'733104022'
S'Sunilam Samajwadi'
tp2854
a(S'730049334'
S'Manisha Kulshreshtha'
tp2855
a(S'100003425351791'
S'Seema Rajoria'
tp2856
a(S'100001296682127'
S'Sangram Jharkhand'
tp2857
a(S'100000531206335'
S'Dipanshu Sharma'
tp2858
a(S'100002164690285'
S'Vijay Singh Raghav'
tp2859
a(S'100000262810177'
S'Yallamanchi Dilip Kumar'
tp2860
a(S'1540173274'
S'Anil Attri'
tp2861
a(S'100002351679513'
S'Ramesh Kumar'
tp2862
a(S'727262274'
S'Archana Shukla Mukherjee'
tp2863
a(S'688586184'
S'Gagan Sethi'
tp2864
a(S'1704625867'
S'Ajay Pandit'
tp2865
a(S'1083934439'
S'Sanjeev Mathur'
tp2866
a(S'100002162193484'
S'Dashra Bihar'
tp2867
a(S'1492225661'
S'Krushna Sahu'
tp2868
a(S'100003335363337'
S'Geejgarh Dausa'
tp2869
a(S'100005778404480'
S'Nacdor Mnrega Abhiyan'
tp2870
a(S'1358676714'
S'Sabari Kargupta'
tp2871
a(S'1428497916'
S'Mohammad Bilal'
tp2872
a(S'100000487088238'
S'Noor Zaheer'
tp2873
a(S'100000103504698'
S'Sanjey Bajoria'
tp2874
a(S'100002167311072'
S'Rajshekhar Pandey'
tp2875
a(S'1606934329'
S'Beatrice Amathi'
tp2876
a(S'100004141868716'
S'Saurabh Tiwari'
tp2877
a(S'100000262568278'
S'Manoj Kumar'
tp2878
a(S'100003540970882'
S'Sheetal Choudhary'
tp2879
a(S'100001981978388'
S'Satish Shukla'
tp2880
a(S'100004395428196'
S'Amartya Kumar'
tp2881
a(S'100003185362981'
S'Dharmender Srivastava'
tp2882
a(S'1194964929'
S'Mihir Bhishikar'
tp2883
a(S'100000300248822'
S'Sanjay Rai'
tp2884
a(S'100000027721999'
S'Ravi Ranjan'
tp2885
a(S'100002506454558'
S'Sanjay Kumar'
tp2886
a(S'100003739526203'
S'Hari Narayan Pareek'
tp2887
a(S'100000116808471'
S'Vijay Upadhyay'
tp2888
a(S'100000337875980'
S'Gopal Rathi'
tp2889
a(S'100002794916528'
S'Shi Vang'
tp2890
a(S'100003208932925'
S'Archana Sharma'
tp2891
a(S'100003288818546'
S'Rajesh Bhasker'
tp2892
a(S'100001469878373'
S'Azhagarraj Jayabalan'
tp2893
a(S'100001431666311'
S'Rajesh Jain'
tp2894
a(S'100004255951467'
S'Yogini Handicraft'
tp2895
a(S'100002097379716'
S'Mera Haq Child Rights'
tp2896
a(S'1015579537'
S'Mahendra Gaur'
tp2897
a(S'100001777447390'
S'Ajit Rai'
tp2898
a(S'100000862869369'
p2899
S'Ashutosh Pandey'
tp2900
a(S'100001527417259'
S'Ganesh Sony'
tp2901
a(S'100005283194376'
S'Hawkers Jac'
tp2902
a(S'1422163453'
S'Anil K Singh'
tp2903
a(S'100003485318696'
S'Manpreet Sood'
tp2904
a(S'100002258519121'
S'Kuldeepak Singh'
tp2905
a(S'100001886602913'
S'Braj Bhushan Tiwari'
tp2906
a(S'100001412154316'
S'Vinod Kataria'
tp2907
a(S'100001692121624'
S'Srimant Mohanty'
tp2908
asS'id'
p2909
S'1279461201'
p2910
sS'name'
p2911
S'Rajesh Upadhyay'
p2912
s.