(dp1
S'friends'
p2
(lp3
(S'1686438073'
S'Nasir Ahmad Naseri'
tp4
a(S'648124091'
S'Mauludeen Moradi'
tp5
a(S'100005291377446'
S'Dawood Yosufi'
tp6
a(S'1210434632'
S'Hashmat Hijran Qasimzadah'
tp7
a(S'100000762402590'
S'Essa Mojaddedi'
tp8
a(S'1527669602'
S'Ariana Afghan Airlines'
tp9
a(S'100000162705572'
S'Assef Hossaini'
tp10
a(S'100000225366214'
S'\\u0639\\u0646\\u0627\\u06cc\\u062a \\u0639\\u0644\\u06cc \\u0632\\u0627\\u062f\\u0647'
tp11
a(S'652424781'
S'Melanie Reddy'
tp12
a(S'37004446'
S'Lauren Oing'
tp13
a(S'100003945130913'
S'Jamal Nasir Nademyan'
tp14
a(S'100001290022063'
S'Naqeebullah Hakimyar'
tp15
a(S'100000923692674'
S'\\u0645\\u062d\\u0645\\u062f \\u0627\\u0633\\u0645\\u0627\\u0639\\u06cc\\u0644 \\u0627\\u06a9\\u0628\\u0631'
tp16
a(S'100001013886318'
S'Sanaa Saadaat'
tp17
a(S'1010263132'
S'M Behrooz Azizi'
tp18
a(S'100000906202063'
S'Tamim Afghan'
tp19
a(S'100000767478782'
S'\\u0633\\u06cc\\u062f \\u0634\\u0627\\u0647 \\u0631\\u0636\\u0627\\u0647 \\u0647\\u0698\\u06cc\\u0631'
tp20
a(S'100001147338506'
S'Naseem Popal'
tp21
a(S'100005519354763'
S'Rashid Khaiy'
tp22
a(S'1845906604'
S'Mubarak Sadaat'
tp23
a(S'100002573970072'
S'Yarani Khurasani'
tp24
a(S'100002460007607'
S'Baktash Siawash'
tp25
a(S'100000428085501'
S'Rabia Khatibi'
tp26
a(S'1472419454'
S'Edris Afzaly'
tp27
a(S'100002746669076'
S'Maryam Sadaf Sadaf'
tp28
a(S'100002571044003'
S'\\u0646\\u0633\\u06cc\\u0645\\u0647 \\u062a\\u0642\\u0648\\u0627'
tp29
a(S'100001265650993'
S'Zabihullah Noori'
tp30
a(S'100005316133402'
S'\\ufee3\\ufea0\\ufee4\\ufeca \\ufee3\\ufee0\\ufbfd \\ufee3\\ufeae\\ufea9\\ufee1 \\ufe8d\\ufed3\\ufed0\\ufe8e\\ufee7\\ufeb4\\ufe98\\ufe8e\\ufee5'
tp31
a(S'100007844860008'
S'\\u0641\\u0631\\u0632\\u0627\\u0646\\u0647 \\u0627\\u0646\\u0648\\u0634'
tp32
a(S'100003998086520'
S'Sonam Jan Sana'
tp33
a(S'100005286754818'
S'Majid Yousefi'
tp34
a(S'834469768'
S'Aziz-Ahmad Fard'
tp35
a(S'100003233156355'
S'Malik Marzeban'
tp36
a(S'100001336549261'
S'\\u0639\\u0628\\u062f\\u0627\\u0644\\u062d\\u06cc \\u067e\\u06cc\\u0631\\u0632\\u0627\\u062f\\u0647'
tp37
a(S'100002010450479'
S'Sardar Naweed Waheed'
tp38
a(S'100002849269592'
S'Mosakhan Afzali'
tp39
a(S'668557643'
S'Mureed Partaw'
tp40
a(S'100001867671582'
S'Fatah Froogh'
tp41
a(S'100003795140297'
S'\\u0639\\u0637\\u0627 \\u0645\\u062d\\u0645\\u062f \\u0646\\u0648\\u0631'
tp42
a(S'1306237525'
S'Abdullah Khodadad'
tp43
a(S'543746207'
S'Samim Sediqi'
tp44
a(S'100007911362679'
S'Omran Omran Ahmadi'
tp45
a(S'562068995'
S'Samira Hamidi'
tp46
a(S'502442744'
S'Ray Garman'
tp47
a(S'100003844183517'
S'Mohammad Haikal Hejat'
tp48
a(S'100002174923560'
S'See Thetruth'
tp49
a(S'611019514'
S'Moushumi Shabnam'
tp50
a(S'100002111206362'
S'Jamshid Siddiqi'
tp51
a(S'100002338357454'
S'\\u0633\\u06cc\\u062f \\u0645\\u0647\\u062f\\u06cc \\u062d\\u0633\\u06cc\\u0646\\u06cc'
tp52
a(S'100000209999437'
S'Sultan Khan'
tp53
a(S'100001152549709'
S'Masih Mohammadi'
tp54
a(S'545952518'
S'Tim Hartman'
tp55
a(S'100006118055799'
S'\\u0627\\u062d\\u0645\\u062f \\u062e\\u0627\\u0644\\u062f \\u0635\\u0627\\u0641\\u06cc'
tp56
a(S'100001075566954'
S'Farhad Naroei'
tp57
a(S'100000510259859'
S'Mati Baig'
tp58
a(S'558855996'
S'Al Fuertes'
tp59
a(S'100001853148266'
S'Mohammad Hosein Fayyaz'
tp60
a(S'100003221676290'
S'Asad Kebirzay'
tp61
a(S'1683792088'
S'Basir Mujahed'
tp62
a(S'725003274'
S'Massoud Hossaini'
tp63
a(S'658630026'
S'Abdul Ali Faiq'
tp64
a(S'100005434870427'
S'Shafiq Safi'
tp65
a(S'100001167117038'
S'Farhad Khurami'
tp66
a(S'1073299841'
S'Mina Nawbary'
tp67
a(S'100004251971452'
S'Jamila Kandaharai'
tp68
a(S'1615174914'
S'Tahera Delaye'
tp69
a(S'100001381124634'
S'Siddiq Barmak'
tp70
a(S'100000733682049'
S'Ali Ahmad Saifi'
tp71
a(S'100002668717103'
S'Majnon Eshq'
tp72
a(S'8002949'
S'Adela Raz'
tp73
a(S'1508211997'
S'\\u062f\\u0627\\u06a9\\u062a\\u0631 \\u0645\\u0647\\u062f\\u06cc'
tp74
a(S'100004737153494'
S'Dainmond East'
tp75
a(S'1667065373'
S'Fatima Jafari'
tp76
a(S'754577910'
S'Nahid Baqi'
tp77
a(S'100000688896869'
S'Najib Nazhat'
tp78
a(S'100001884496430'
S'Moneer Ahmad Sahebzada'
tp79
a(S'1271754129'
S'Aziz Mobasher'
tp80
a(S'100002921159270'
S'DrSayed Ali Kazemi'
tp81
a(S'100000736712148'
S'Fariha Nazary'
tp82
a(S'1270683370'
S'Saeed Haqiqi'
tp83
a(S'100001670308045'
S'Maysam Yawari'
tp84
a(S'1317148636'
S'Amrullah Madady'
tp85
a(S'100001301692855'
S'Mustafa Bahram'
tp86
a(S'100002341400729'
S'\\u0628\\u0644\\u0627\\u06af \\u062e\\u0628\\u0631'
tp87
a(S'100003730182690'
S'Mohammad Massoud Rasa'
tp88
a(S'100003062382918'
S'Jawid Kohistani'
tp89
a(S'100005807796568'
S'\\u0633\\u06cc\\u0641 \\u0627\\u0644\\u062f\\u06cc\\u0646 \\u0639\\u0645\\u0631\\u062e\\u06cc\\u0644'
tp90
a(S'596975528'
S'A Jahaid Zeerak'
tp91
a(S'1321514520'
S'Mohammad Farhad Azimi'
tp92
a(S'100005035626248'
S'Atiqullah Baryalai'
tp93
a(S'1272052271'
S'Massood Sanjer'
tp94
a(S'100003349578200'
S'Sarwar Daneshpor'
tp95
a(S'696624047'
S'Nelofer Pazira'
tp96
a(S'100001607627401'
S'Ahmad Mirwais Haq Doost'
tp97
a(S'100002196603195'
S'Almusawer Cco'
tp98
a(S'100002215595953'
S'BehRooz Haidari'
tp99
a(S'100001113702394'
S'Ismail Feroughi'
tp100
a(S'100001736422222'
S'Sameer Khosrawi'
tp101
a(S'100001630332643'
S'Ahmad Jawid Khatibi'
tp102
a(S'100000929566088'
S'Fahim Kohdamani'
tp103
a(S'100000460436329'
S'\\u0647\\u0648\\u0634\\u0645\\u0646\\u062f \\u0641\\u0631\\u0627\\u0631\\u0648\\u062f\\u064a'
tp104
a(S'100001899312182'
S'Khair M Chavoosh'
tp105
a(S'100000517667363'
S'Sahil Safari'
tp106
a(S'672632923'
S'Hossain Ramoz'
tp107
a(S'100000587800660'
S'MB Amir Amir'
tp108
a(S'100003495134601'
S'Shah Rasool Qasemi'
tp109
a(S'100007629847819'
S'Naveed Noori'
tp110
a(S'100002263036646'
S'Toorpikai Qayum'
tp111
a(S'100001434915317'
S'Mohammad Yasin Negah'
tp112
a(S'100001099629046'
S'Nazari Paryani'
tp113
a(S'100000921501731'
S'Wafa Sadat'
tp114
a(S'100006381310513'
S'Mahmood Arbabzada'
tp115
a(S'100002495326783'
S'Qurban Ali Fazeel'
tp116
a(S'15402725'
S'Qiam Amiry'
tp117
a(S'100002386604860'
S'Nargis Herawi'
tp118
a(S'100002179451990'
S'Saied Badakhsh'
tp119
a(S'100002655954477'
S'Mayor Muhammad Yunus Nawandish'
tp120
a(S'100003711605011'
S'Sadaf Kabuli'
tp121
a(S'100004156054875'
S'\\u062c\\u0648\\u0627\\u0646\\u0627\\u0646 \\u067e\\u0631\\u0648\\u0627\\u0646 \\u063a\\u0648\\u0631\\u0628\\u0646\\u062f'
tp122
a(S'100006880781743'
S'Romal Rasa'
tp123
a(S'100002040674650'
S'Emal Zaki'
tp124
a(S'100001120436576'
S'Hanif Hamgam'
tp125
a(S'1283296023'
S'Matin Gadakhel'
tp126
a(S'100000538858322'
S'Sajia Hussain Azmat'
tp127
a(S'100007873989945'
S'Qodratullah Ataey'
tp128
a(S'100003472984708'
S'Aimal Nabizada'
tp129
a(S'100000252151852'
S'Sayed Omar Alami'
tp130
a(S'100002279304842'
S'Hassib Quraishi'
tp131
a(S'100001751859116'
S'Rahmat Qasemi'
tp132
a(S'100002334101323'
S"Institut Fran\\u00e7ais d'Afghanistan"
tp133
a(S'100002937426347'
S'Wais Ahmad Barmak'
tp134
a(S'100004947721785'
S'Harozo Tanha'
tp135
a(S'100000994430358'
S'Mujeebullah Zia'
tp136
a(S'685843856'
S'Nilab Mobarez'
tp137
a(S'576208940'
S'M Farhad Ahmadzad'
tp138
a(S'100003855722905'
S'Abdull Satar Saadat'
tp139
a(S'100000834751482'
S'Michael Hissami'
tp140
a(S'100001204223304'
S'Saleh Mohammed Registani'
tp141
a(S'100001496768084'
S'Muqim Gulzad'
tp142
a(S'671377714'
S'Asif Maroof'
tp143
a(S'623591700'
S'Nirmal Kaur Khalsa'
tp144
a(S'100002196662839'
S'\\u0635\\u062f\\u0627\\u06cc \\u0631\\u0648\\u0632\\u0646\\u0627\\u0645\\u0647 \\u0646\\u06af\\u0627\\u0631\\u0627\\u0646'
tp145
a(S'100005325855893'
S'\\u067e\\u069a\\u062a\\u0646\\u0647 \\u0644\\u06cc\\u0644\\u0627 \\u0645\\u062d\\u0628\\u062a'
tp146
a(S'100001049959766'
S'Prda Afghanistan'
tp147
a(S'1136933485'
S'Mohammad Aman'
tp148
a(S'1441980837'
S'Tayma Abdulhai'
tp149
a(S'100000874845127'
S'Dastgeer Hozhabr'
tp150
a(S'100003960791172'
S'Younis Aryan'
tp151
a(S'100000336340575'
S'Mujib Rahman Rahimi'
tp152
a(S'100006558000322'
S'Iamreally Tiredoflive'
tp153
a(S'100005229723588'
S'Farda Fardaa'
tp154
a(S'100000126321547'
S'Marjeela Basij-Rasikh'
tp155
a(S'100001444081599'
S'Marzia Adil'
tp156
a(S'750716165'
S'Fayeq Wahedi'
tp157
a(S'100003110790209'
S'Bahram Yaftali'
tp158
a(S'603447024'
S'\\u0646\\u0635\\u0631\\u0627\\u0644\\u0644\\u0647 \\u067e\\u06cc\\u06a9'
tp159
a(S'100000897219228'
S'David Brubaker'
tp160
a(S'100002720939155'
S'Ahmad Ghaws Zalmai'
tp161
a(S'100003110176673'
S'Khairmohammad Sharifi'
tp162
a(S'100000548169338'
S'Sakhidad Majeed'
tp163
a(S'100000303442759'
S'Yarmohammad Yawar Noori'
tp164
a(S'100005176750266'
S'Abu Moslim Shirzad'
tp165
a(S'100003658389757'
S'Hassan Haidari Fekrat'
tp166
a(S'1585402918'
S'Nassir Ahmad Taraki'
tp167
a(S'1125155187'
S'Emal N. Ghiassi'
tp168
a(S'1749792935'
S'Alem Labib'
tp169
a(S'100001762841170'
S'\\u0634\\u0627\\u0639\\u0631\\u0627\\u0646 \\u062a\\u0627\\u062c\\u06cc\\u06a9'
tp170
a(S'100002182205069'
S'Sarujuddin Younusi'
tp171
a(S'627966448'
S'Hassina Sherjan'
tp172
a(S'100002510186479'
S'Khoshi Rahat'
tp173
a(S'712090144'
S'Arif Ammar'
tp174
a(S'100000221752967'
S'Hamid Haidary'
tp175
a(S'100002710581237'
S'Ahmad Zaki Zahid'
tp176
a(S'671333550'
S'Barna Karimi'
tp177
a(S'704571985'
S'Dennis Gingrich'
tp178
a(S'1211357268'
S'Jawad Faryad'
tp179
a(S'1767327753'
S'Qarizada Ruhullah'
tp180
a(S'100000141870803'
S'Khalid Safi'
tp181
a(S'724289366'
S'Mary Akrami'
tp182
a(S'1195692161'
S'Ahmad Zia Ferozpur'
tp183
a(S'100001399618827'
S'Afghan Man'
tp184
a(S'100003111426504'
S'Behroz Khaliqi'
tp185
a(S'100001637450048'
S'\\u0627\\u0644\\u06cc\\u0627\\u0633 \\u06cc\\u0648\\u0631\\u0634'
tp186
a(S'100007119970131'
S'Muqim Sikandary'
tp187
a(S'100002509211195'
S'Abdul Rahim Alizai'
tp188
a(S'1302595159'
S'Bashir Fayzi'
tp189
a(S'100001600382674'
S'Sadaf Afghan'
tp190
a(S'572816639'
S'Fariba Nawa'
tp191
a(S'100000328562283'
S'Rizwan Maiwand'
tp192
a(S'100003071998891'
S'Aman Natiqi'
tp193
a(S'502369545'
S'Lisa Schirch'
tp194
a(S'100001553048312'
S'Ali Joya'
tp195
a(S'100001506455682'
S'Zuhal Bass'
tp196
a(S'100003348217682'
S'Faisal Malik Malik'
tp197
a(S'100001642581001'
S'Rahim Azizi'
tp198
a(S'100007208161989'
S'\\u062a\\u0641\\u0633\\u06cc\\u0631 \\u0633\\u062e\\u0646'
tp199
a(S'603560803'
S'Margaret Foth'
tp200
a(S'100002527852008'
S'\\u0645\\u062d\\u0645\\u062f \\u06a9\\u0627\\u0638\\u0645 \\u0647\\u0645\\u0627\\u06cc\\u0648\\u0646'
tp201
a(S'100004960897087'
S'Yousuf Nesar'
tp202
a(S'648285892'
S'Najib Sharifi'
tp203
a(S'100005526973667'
S'Sadeq Mudaber'
tp204
a(S'100001218041583'
S'David Jaan'
tp205
a(S'559966240'
S'Fan Club Melodi'
tp206
a(S'847805537'
S'Suraya Dalil'
tp207
a(S'601217776'
S'Andishmand Mohammad'
tp208
a(S'100003133144374'
S'\\u0627\\u0646\\u062f\\u06cc\\u0634\\u0645\\u0646\\u062f\\u0627\\u0646 \\u0627\\u0641\\u063a\\u0627\\u0646\\u0633\\u062a\\u0627\\u0646'
tp209
a(S'100000784164153'
S'Milad'
tp210
a(S'100003398327582'
S'Mohammad Mosavi'
tp211
a(S'100000981818915'
S'\\u00d8M\\u00ed\\u010f \\u0143i\\u00e2\\u017ai'
tp212
a(S'100001081895876'
S'Matin Rahmani'
tp213
a(S'1253904342'
S'Kabir Ahmad Neshat'
tp214
a(S'100002170415318'
S'Horia Mosadiq'
tp215
a(S'100001069666680'
S'Zahra Mohmmadi'
tp216
a(S'100002303605636'
S'Homeira Qaderi'
tp217
a(S'1275603792'
S'Amir Hussain Hussaini'
tp218
a(S'100000817287746'
S'Pakhtoon Khwa'
tp219
a(S'100000176820335'
S'Arian Himat'
tp220
a(S'100002184862663'
S'\\u06a9\\u0627\\u0645\\u0628\\u06cc\\u0632 \\u0642\\u0631\\u0628\\u0627\\u0646\\u06cc'
tp221
a(S'1370174054'
S'Ahmad Rafi Khairy'
tp222
a(S'100003305566780'
S'Alem Nasiry'
tp223
a(S'100000246533138'
S'Nakhat Dastgirzada'
tp224
a(S'1146451213'
S'Ashraf Haidari'
tp225
a(S'1417334318'
S'Sayed Mahdi Kazemi'
tp226
a(S'100005055252953'
S'Tony Harris'
tp227
a(S'100002335218079'
S'Qader Hakimyar'
tp228
a(S'100006626174572'
S'Mohammad Reza Ahmadi'
tp229
a(S'100001734079301'
S'Najibullah Omari'
tp230
a(S'100004326577819'
S'Sheela Zita'
tp231
a(S'100005312497778'
S'Dari Debate'
tp232
a(S'711667710'
S'Jesper M\\u00f8ller S\\u00f8rensen'
tp233
a(S'100001082523874'
S'SE Taheri'
tp234
a(S'100005099076587'
S'Nasirahmad Poya'
tp235
a(S'1440652114'
S'Safi Sarahat'
tp236
a(S'100001373849125'
S'Zmary Masoud'
tp237
a(S'100002128762111'
S'Youssof Nadiri'
tp238
a(S'509653594'
S'Matayo Tsinyeni Mbasu'
tp239
a(S'827843235'
S'Nasrine Gross'
tp240
a(S'100004302189273'
S'Ahmad Morid II'
tp241
a(S'100000241478404'
S'Farhad Ehsas'
tp242
a(S'100001839160283'
S'Eric Hostetter'
tp243
a(S'100004536433630'
S'Alc Kunduz'
tp244
a(S'100006719052648'
S'Fareshta Shirin Sokhan'
tp245
a(S'100002360724391'
S'Amrullah Merzahi Panjshiri'
tp246
a(S'100005704724356'
S'Ehsan Hassani'
tp247
a(S'100002242595085'
S'Ghulam Sakhi Khatibi'
tp248
a(S'615465164'
S'Sayed Khalid'
tp249
a(S'100001081732090'
S'Ahmad Shah Khorasani'
tp250
a(S'100007629246270'
S'Feruz Kuheyan'
tp251
a(S'100004327872612'
S'\\u067e\\u0631\\u062a\\u0648 \\u0646\\u0627\\u062f\\u0631\\u06cc'
tp252
a(S'1527999130'
S'Sultan Mahmood Mahmoodi'
tp253
a(S'100002323900470'
S'Sami Farjad'
tp254
a(S'100003848782171'
S'Mina Rahimi'
tp255
a(S'100000315092347'
S'\\u0647\\u0627\\u0631\\u0648\\u0646 \\u0645\\u0639\\u062a\\u0631\\u0641'
tp256
a(S'100002593883074'
S'Maryam Koofi'
tp257
a(S'100005071871849'
S'Juya Fetrati'
tp258
a(S'100006505725425'
S'Wahiduddin Arghon'
tp259
a(S'100001776778789'
S'Yadhay Afghanistan'
tp260
a(S'833145466'
S'Mahmood Sabooryar'
tp261
a(S'100000085734087'
S'Fahim Rasa'
tp262
a(S'1246143620'
S'Hashmat Radfar'
tp263
a(S'100001986957859'
S'Farzana Marie'
tp264
a(S'100002423671473'
S'Maiwand Darya'
tp265
a(S'100000562995401'
S'Aminullah Amarkhil'
tp266
a(S'542923022'
S'Amy Corinne Knorr'
tp267
a(S'100000447174768'
S'\\u0627\\u062d\\u0645\\u062f\\u0628\\u06cc\\u06a9 \\u0638\\u0627\\u0647\\u0631'
tp268
a(S'100005264892872'
S'Baneen Zehra'
tp269
a(S'100001254581399'
S'\\u0627\\u0633\\u0627\\u0645\\u0647 \\u0628\\u0635\\u06cc\\u0631'
tp270
a(S'100007571683722'
S'\\u0639\\u0628\\u062f\\u0627\\u0644\\u0647\\u0627\\u062f\\u06cc \\u062f\\u0628\\u06cc\\u0631'
tp271
a(S'1008495421'
S'Samad Ali Moradi'
tp272
a(S'100000900248980'
S'Atiq Rahimi'
tp273
a(S'100005708015733'
S'Latif Nazari'
tp274
a(S'100002624641740'
S'Raminshah Mohammadi Watandost'
tp275
a(S'100001976181661'
S'Ahmad Zaki Jalil'
tp276
a(S'100003659071943'
S'\\u0639\\u0644\\u06cc \\u063a\\u0644\\u0627\\u0645\\u06cc'
tp277
a(S'100002390503807'
S'\\u0634\\u0648\\u0631\\u0627\\u06cc \\u0627\\u0646\\u0633\\u062c\\u0627\\u0645 \\u0642\\u0632\\u0644\\u0628\\u0627\\u0634\\u0647\\u0627\\u06cc \\u0627\\u0641\\u063a\\u0627\\u0646\\u0633\\u062a\\u0627\\u0646'
tp278
a(S'100007255181966'
S'Arianahi Kohan'
tp279
a(S'100002930841868'
S'Mastora Arghandewall'
tp280
a(S'100000799924299'
S'Musadeq Sadeq'
tp281
a(S'100003156310976'
S'\\u062b\\u0631\\u06cc\\u0627 \\u0633\\u0627\\u062f\\u0627\\u062a'
tp282
a(S'100002025285184'
S'Masoud Hasanzada'
tp283
a(S'100003394191707'
S'Ayub Khawreen'
tp284
a(S'100005241366470'
S'Asf Jan'
tp285
a(S'100000210962920'
S'Wali Arian'
tp286
a(S'100001989846884'
S'SeyedMasoud Kazemi'
tp287
a(S'100000408364854'
S'Mustafa Mubarez'
tp288
a(S'100003453508396'
S"What's Love"
tp289
a(S'576331839'
S'Daria Nashat'
tp290
a(S'100000647154372'
S'Shahin Nuri'
tp291
a(S'751698906'
S'Rahmatullah Muahid'
tp292
a(S'1420980004'
S'Bridget Mullins'
tp293
a(S'778535011'
S'Yaser Hussaini'
tp294
a(S'100001993253510'
S'Shahla Zoland'
tp295
a(S'100002456544744'
S'\\u0634\\u0647\\u064a\\u062f \\u0698\\u0646\\u0631\\u0627\\u0644 \\u0639\\u0628\\u062f\\u0627\\u0644\\u0631\\u0627\\u0632\\u0642 \\u0633\\u0627\\u0644\\u0646\\u06af\\u06cc'
tp296
a(S'100000768642955'
S'Khanum Zheela'
tp297
a(S'100003389787719'
S'Najwa Karam'
tp298
a(S'701210481'
S'Ah Faisal Natawan'
tp299
a(S'100001115619779'
S'Sherin Ahadzada'
tp300
a(S'100002068955639'
S'\\u0639\\u0628\\u062f\\u0627\\u0644\\u0642\\u0647\\u0627\\u0631 \\u0639\\u0627\\u0628\\u062f'
tp301
a(S'100000771692314'
S'Bijan Haidary'
tp302
a(S'100002976308996'
S'Rustam Sohrabi'
tp303
a(S'1479724535'
S'Sayedi Wase'
tp304
a(S'100000936663406'
S'Atal Noorzai'
tp305
a(S'100000278150111'
S'Hamid Sahil'
tp306
a(S'100004890551487'
S'Ahmad Sayedi'
tp307
a(S'100001597407026'
S'\\u0645\\u0647\\u062a\\u0627\\u0628 \\u0633\\u062d\\u0631'
tp308
a(S'100000785771894'
S'Amin Vakili'
tp309
a(S'100002119581229'
S'Ahmad Zubair Zabehe'
tp310
a(S'100002246254340'
S'Mujeeb Sarwari'
tp311
a(S'100003465704941'
S'Pro Websters'
tp312
a(S'100000108679673'
S'Arshad Arshad'
tp313
a(S'548403210'
S'Lemar Meenanak Khogiani'
tp314
a(S'100003475696146'
S'Nedaee Azadi'
tp315
a(S'100002384534025'
S'Suraya Sadeed'
tp316
a(S'100001764332331'
S'Masood Khalili'
tp317
a(S'1007992920'
S'Shogofa Salehi'
tp318
a(S'100001533697845'
S'Jeeho Park'
tp319
a(S'100002021890157'
S'Rohullah Baran Rohullah Baran'
tp320
a(S'100000601105337'
S'Ibrahim Sahar'
tp321
a(S'100002838484094'
S'Ibrahim Abed'
tp322
a(S'100002893316236'
S'Shabnam Shams'
tp323
a(S'677790165'
S'Robert Lifeartist'
tp324
a(S'100002034584322'
S'Oqaab Oqaab'
tp325
a(S'100007816569328'
S'\\ufe8d\\ufe9f\\ufee4\\ufede \\u0631\\u062d\\u06cc\\u0645\\u06cc'
tp326
a(S'100000113482160'
S'Jennifer Soros'
tp327
a(S'100001244522499'
S'Nadia Qani'
tp328
a(S'100007359101441'
S'Fardin Hakimyar'
tp329
a(S'100003180711530'
S'Fayaz Wira'
tp330
a(S'724566296'
S'Matin Bek'
tp331
a(S'100003121664602'
S'Farida Rabbani'
tp332
a(S'785969122'
S"Kimberly O'Haver"
tp333
a(S'100002111273199'
S'Shadab Amin Begzad'
tp334
a(S'100005442817550'
S'Ishaq Rahimi'
tp335
a(S'1718753622'
S'Rona Mbz'
tp336
a(S'100002318575932'
S'Sohail Sidiqi'
tp337
a(S'100001148653951'
S'Ahankoh Oswa'
tp338
a(S'100003465058087'
S'Baseramad Karime'
tp339
a(S'100001905742030'
S'\\u0642\\u0637\\u063a\\u0646 \\u062c\\u06af\\u06cc\\u062a\\u0644\\u0631\\u06cc'
tp340
a(S'1452650386'
S'Enver Sadat'
tp341
a(S'100000179580656'
S'Abdullah Azada Khenjani'
tp342
a(S'100000003729736'
S'Mohammad Rafi'
tp343
a(S'770699502'
S'Fahim Ebrat'
tp344
a(S'4403540'
S'Haseeb Humayoon'
tp345
a(S'519736288'
S'Muhammad Sakhi Khatibi'
tp346
a(S'1230403085'
S'Bijan Haidary'
tp347
a(S'100000282313418'
S'\\u06a9\\u0627\\u0645 \\u0628\\u062e\\u0634 \\u0646\\u06cc\\u06a9\\u0648\\u06cc\\u06cc'
tp348
a(S'100001238908959'
S'Mohammad Habil Habil'
tp349
a(S'100000803948077'
S'Vaheed Kaacemy'
tp350
a(S'100004930535035'
S'Sangar Afghan'
tp351
a(S'100001500670316'
S'Marzia Nazari'
tp352
a(S'100005113448697'
S'\\u0636\\u062f\\u067e\\u0634\\u062a\\u0648\\u0646 \\u062e\\u0631'
tp353
a(S'657066001'
S'Jonathan David McRay'
tp354
a(S'1684252296'
S'Tareq Eqtedary'
tp355
a(S'693801093'
S'Joel Nofziger'
tp356
a(S'1373797677'
S'Ramin Soroosh'
tp357
a(S'100006489035562'
S'Farooq Adeel'
tp358
a(S'100002344151647'
S'Kohdamani Khurasani'
tp359
a(S'100005325840833'
S'Bashir Ansari'
tp360
a(S'100000437887437'
S'Farzana Popal'
tp361
a(S'100001398325388'
S'Shaheed Najibullah'
tp362
a(S'100006455304890'
S'Abdul Rashid Khairy'
tp363
a(S'100001806729715'
S'Mildred Hostetter'
tp364
a(S'100005987588333'
S'Mursal Qader'
tp365
a(S'100002580837085'
S'Sebghatullah Aryan'
tp366
a(S'100000756632439'
S'Sayed A H Sancharaki'
tp367
a(S'100004586740021'
S'Abdurrahman Rahimi'
tp368
a(S'100006496082348'
S'Farhat Wafa'
tp369
a(S'100001263423650'
S'Elmira Mosavi'
tp370
a(S'1020023130'
S'Fabian Latifi'
tp371
a(S'713082141'
S'Homa Sultani'
tp372
a(S'1388492540'
S'Laci Barrow'
tp373
a(S'100000291765787'
S'Hasib Jahid'
tp374
a(S'100002451811773'
S'Hamza Amiry'
tp375
a(S'100005340701198'
S'\\u062c\\u0647\\u0627\\u062f \\u0647\\u0632\\u0627\\u0631\\u0647'
tp376
a(S'100000928182385'
S'Arif Kayhan'
tp377
a(S'100003112172046'
S'\\u30e2\\u30e9\\u30c7\\u30a3 \\u30e0\\u30e9\\u30c9'
tp378
a(S'100001355766883'
S'Manocheher Jahesh'
tp379
a(S'100000015558479'
S'Naiem Nawa'
tp380
a(S'100002535160186'
S'Nilo Far'
tp381
a(S'100001344695641'
S'Jawanmard Sharifi'
tp382
a(S'736511449'
S'Razi Mohebi'
tp383
a(S'100003130979225'
S'Yealee Solee'
tp384
a(S'537760820'
S'Haroon Rahoon'
tp385
a(S'100004612537757'
S'\\u0631\\u0627\\u0645\\u064a\\u0646 \\u0628\\u0647\\u0627\\u0631\\u0627\\u0628\\u0649'
tp386
a(S'100002368534705'
S'Yahyar Dostyar'
tp387
a(S'100002532419001'
S'Majroh Ghorzang'
tp388
a(S'1101258173'
S'\\u0639\\u0644\\u064a \\u0627\\u062d\\u0645\\u062f\\u064a'
tp389
a(S'1782773691'
S'Millad Sultani'
tp390
a(S'720293422'
S'Farhad Ghafoor'
tp391
a(S'100004030013914'
S'Fereshta Hazrati II'
tp392
a(S'100002150511378'
S'Mursal Tanha'
tp393
a(S'100003623053764'
S'Razaq Qaderi'
tp394
a(S'610596515'
S'Zia Shahreyar'
tp395
a(S'100000224427803'
S'Alan Ellerbe'
tp396
a(S'100004890211709'
S'Ali Behzad'
tp397
a(S'100002821184854'
S'Sonia Karimi'
tp398
a(S'100003048726057'
S'IR UzbekRadio'
tp399
a(S'100001185993510'
S'Ali Alizadeh'
tp400
a(S'1132345900'
S'Nik Poet'
tp401
a(S'683145107'
S'Fatana Ishaq Gailani'
tp402
a(S'100004593280010'
S'\\u067e\\u0633\\u0631 \\u0627\\u0641\\u063a\\u0627\\u0646'
tp403
a(S'100005145666009'
S'\\u0627\\u0645\\u0627\\u0646 \\u0627\\u0644\\u0644\\u0647 \\u0628\\u062f\\u062e\\u0634'
tp404
a(S'100003823977953'
S'Ibrahim Shirinzoy'
tp405
a(S'100002041448511'
S'Farzana Mussa'
tp406
a(S'1238350009'
S'Adeela Jawad'
tp407
a(S'1257374888'
S'Diana Saqeb'
tp408
a(S'695338127'
S'Abdul Salam Rahimy'
tp409
a(S'100003822032677'
S'\\u0645\\u06cc\\u0647\\u0646\\u0645 \\u062a\\u0631\\u06a9\\u0633\\u062a\\u0627\\u0646 \\u0632\\u0645\\u06cc\\u0646'
tp410
a(S'100001559803728'
S'Bariley Khaleqi'
tp411
a(S'100002051484538'
S'Jeneba Breeze'
tp412
a(S'1522670308'
S'Bostan Fahim'
tp413
a(S'15613425'
S'Maryam Rashid'
tp414
a(S'100000721207696'
S'Zalmai Araa'
tp415
a(S'1706316700'
S'Arash Amiry'
tp416
a(S'100006440051735'
S'Mohammad Rasoulipour'
tp417
a(S'100002571399329'
S'Ruhullah Qarizada'
tp418
a(S'100000953950246'
S'Shukoor Kakar'
tp419
a(S'100001619476904'
S'Homayoun Paiez'
tp420
a(S'100001720615777'
S'Sekander Shekib'
tp421
a(S'100001660367814'
S'Afghan Bazaar'
tp422
a(S'721770205'
S'Mohammad Hamid Saboory'
tp423
a(S'100004442681336'
S'\\u062f\\u0627\\u06a9\\u062a\\u0631\\u0639\\u0628\\u062f\\u0627\\u0644\\u0642\\u06cc\\u0648\\u0645 \\u0633\\u062c\\u0627\\u062f\\u06cc'
tp424
a(S'100006263102524'
S'Omid Afghan'
tp425
a(S'100002138811648'
S'Solleiman Rauwasch'
tp426
a(S'100004021848196'
S'\\u0648\\u064a\\u069a \\u06a9\\u0646\\u062f\\u0648\\u0632\\u06cc'
tp427
a(S'100001873316477'
S'Sayed Haroon Sadat'
tp428
a(S'100004125272847'
S'Sohrab Kakar'
tp429
a(S'100002229664371'
S'Mateen Haidari'
tp430
a(S'100001021461445'
S'Ahmad Quraishi'
tp431
a(S'100002200682674'
S'Rahela Salim'
tp432
a(S'100001678033140'
S'Abdullah Faez'
tp433
a(S'100002424918196'
S'Nadir Hakimyar'
tp434
a(S'790689753'
S'Sumeer Bhasin'
tp435
a(S'100002560620714'
S'Frangis Farda'
tp436
a(S'100003112254522'
S'Afghanistan Asia'
tp437
a(S'1136554729'
S'Asar Hakimi'
tp438
a(S'100001781566791'
S'Abdul Qadeer Merzai'
tp439
a(S'100002259290564'
S'\\u0639\\u0632\\u06cc\\u0632\\u0627\\u0644\\u0644\\u0647 \\u0622\\u0631\\u06cc\\u0627\\u0641\\u0631'
tp440
a(S'100002328366109'
S'\\u0645\\u0647\\u0627\\u062c\\u0631\\u06cc\\u0646 \\u0627\\u0641\\u063a\\u0627\\u0646'
tp441
a(S'1762126185'
S'Khalil Ahmad Kanjo'
tp442
a(S'1453176037'
S'Laura Vercruysse Wells'
tp443
a(S'100001179285319'
S'Asil Faqiryar'
tp444
a(S'100001989850441'
S'Nabi Karimi'
tp445
a(S'100005581874412'
S'Ramesh Sherzai'
tp446
a(S'1155662807'
S'Naeem Poyesh'
tp447
a(S'600966409'
S'Habib Balkhi'
tp448
a(S'1344529357'
S'Ali Yawar Salimi'
tp449
a(S'100003745244861'
S'Naser Haidarzada'
tp450
a(S'100000584575167'
S'Sangar Niazai'
tp451
a(S'644891013'
S'Barry Salaam'
tp452
a(S'100005685364234'
S'Abdulrahman Alizai'
tp453
a(S'1345221684'
S'Faridoon Azhand'
tp454
a(S'100004900141991'
S'\\u0645\\u062d\\u0645\\u062f\\u0631\\u062d\\u06cc\\u0645 \\u0639\\u0644\\u06cc \\u06cc\\u0627\\u0631'
tp455
a(S'682877280'
S'Vali Nasr'
tp456
a(S'1810491119'
S'Kabul Pressistan'
tp457
a(S'100001316457255'
S'Najib Khoshal'
tp458
a(S'100002549674095'
S'Makhdom Rahin'
tp459
a(S'2530125'
S'Bak Amani'
tp460
a(S'1148275866'
S'Arian Yaqubi'
tp461
a(S'100003606431687'
S'Safi Parsa'
tp462
a(S'676431297'
S'Adriana Rojas Campbell'
tp463
a(S'100000820232575'
S'\\u0641\\u0647\\u06cc\\u0645 \\u0627\\u062d\\u0645\\u062f \\u0622\\u0632\\u0627\\u062f \\u067e\\u0646\\u062c\\u0634\\u06cc\\u0631\\u06cc'
tp464
a(S'100002233196788'
S'\\u062a\\u0627\\u062c\\u06cc\\u06a9 \\u0628\\u0686\\u0647 \\u062e\\u0631\\u0627\\u0633\\u0627\\u0646 \\u0632\\u0645\\u06cc\\u0646'
tp465
a(S'100006835983397'
S'Mohammadajmal Fazli'
tp466
a(S'1663084318'
S'Shourangiz Dadashi'
tp467
a(S'791576940'
S'Jenn Bricker'
tp468
a(S'1815408260'
S'Omid Behtaj Nejrabi'
tp469
a(S'1838546783'
S'Sami Elham'
tp470
a(S'100004558151543'
S'\\u0645\\u062d\\u0645\\u062f \\u0639\\u0645\\u0631 \\u062f\\u0627\\u0648\\u0648\\u062f\\u0632\\u06cc'
tp471
a(S'100000764395767'
S'Ustad Mahwash'
tp472
a(S'100002218682844'
S'Political Class'
tp473
a(S'100002508617971'
S'\\u0627\\u0634\\u0631\\u0641 \\u0641\\u06cc\\u0627\\u0636'
tp474
a(S'883220393'
S'Homa Sorouri Shinwari'
tp475
a(S'100001277977587'
S'Bashir Bawar'
tp476
a(S'744007054'
S'Wakil Baharabi'
tp477
a(S'100004138440513'
S'M.a. Khuramji'
tp478
a(S'100004433860503'
S'\\u0639\\u0644\\u06cc \\u062f\\u0631\\u0647 \\u0635\\u0648\\u0641\\u06cc'
tp479
a(S'1492860884'
S'Sadiq Samim'
tp480
a(S'100002346847092'
S'Masih Masiha'
tp481
a(S'100000464133157'
S'YouSuf Mohammad'
tp482
a(S'684925784'
S'Zaid Mohseni'
tp483
a(S'1449915273'
S'Shuja Zaky'
tp484
a(S'759464061'
S'Saadat Panjshiri'
tp485
a(S'100002099840293'
S'Noor Pari'
tp486
a(S'100002506206625'
S'Rasoul Naghavi'
tp487
a(S'1587619143'
S'Ehsan Sarwary'
tp488
a(S'100003013587712'
S'Maiwaazi Dandaura Samu'
tp489
a(S'100003647956462'
S'Mohammad Amin Javadi'
tp490
a(S'100004169973702'
S'Mursal Sayed Zada'
tp491
a(S'100000699857834'
S'Rouba Isshak'
tp492
a(S'1016250329'
S'Joseph Luciani'
tp493
a(S'100004640174022'
S'Shabnam Wali'
tp494
a(S'100006023221190'
S'Muqeem Fahim'
tp495
a(S'100002953687079'
S'Tahir Ahmadi'
tp496
a(S'100003258227787'
S'Emal Faizi'
tp497
a(S'100001581803590'
S'Bak Sey'
tp498
a(S'100001075330188'
S'Lyzah Rie'
tp499
a(S'100006613416604'
S'Fardeen Ferdaws Kohistany'
tp500
a(S'100002108348411'
S'Jamila Joya'
tp501
a(S'100004310979088'
S'Wahida Tabish'
tp502
a(S'100001004138782'
S'Azita Anosh'
tp503
a(S'606391822'
S'Ahmad Idrees Rahmani'
tp504
a(S'100006519452356'
S'\\u00c4fgh\\u00e4\\u00f1 B\\u00f6\\u00ff'
tp505
a(S'100005407326962'
S'\\u062f\\u06a9\\u062a\\u0631 \\u0627\\u062d\\u0645\\u062f \\u0622\\u0634\\u062a\\u06cc'
tp506
a(S'663439324'
S'Robert Kluijver'
tp507
a(S'100000192062191'
S'Hamzeh Vaezi'
tp508
a(S'100000766704755'
S'Khetab PressClub'
tp509
a(S'100002391816637'
S'\\u0622\\u0635\\u0641 \\u0631\\u062d\\u0645\\u0627\\u0646\\u06cc'
tp510
a(S'100005151614599'
S'Andisha Jan'
tp511
a(S'528436999'
S'Jacob Faber Sil\\u00e9n'
tp512
a(S'100001988188607'
S'Ebadullah Saleh'
tp513
a(S'100000932222012'
S'Ahmad Ariaye'
tp514
a(S'100003772252868'
S'\\u0634\\u0628\\u0646\\u0645 \\u062f\\u0631\\u06cc\\u0627'
tp515
a(S'1186924300'
S'Linda Lavender'
tp516
a(S'100001701997397'
S'Rohullah Sina Haidary'
tp517
a(S'100002937305290'
S'Rafi Kuhnaward'
tp518
a(S'100000781621395'
S'Shaparak Afghan'
tp519
a(S'100004824583408'
S'\\u0645\\u062d\\u0645\\u062f \\u0627\\u0633\\u0644\\u0627\\u0645 \\u06cc\\u0641\\u062a\\u0644\\u06cc'
tp520
a(S'100001113375657'
S'\\u062a\\u0627\\u0631\\u0646\\u0645\\u0627\\u06cc \\u0645\\u0634\\u0639\\u0644 \\u0646\\u0634\\u0631\\u06cc\\u0647 \\u0686\\u0627\\u067e\\u06cc'
tp521
a(S'700380431'
S'Shakila Edizada'
tp522
a(S'100005172194373'
S'Ismail Aminy'
tp523
a(S'100006179583127'
S'Hashmatullah Ghazi'
tp524
a(S'100003023240593'
S'Dastager Khalili'
tp525
a(S'722287332'
S'Shabana Basij-Rasikh'
tp526
a(S'100001426520971'
S'Shabnam Rahimi'
tp527
a(S'546640269'
S'Nazifullah Salarzai'
tp528
a(S'100002797087737'
S'\\u0627\\u0634\\u0631\\u0641 \\u063a\\u0646\\u064a'
tp529
a(S'100004062653555'
S'\\u06a9\\u0627\\u0628\\u0644 \\u0632\\u06cc\\u0628\\u0627'
tp530
a(S'100007616564353'
S'H\\u00e4\\u00ef\\u0144\\u00e4 \\u0160\\u00e4\\u00ff\\u00ebd'
tp531
a(S'100001803233803'
S'Fazil Ahmad Faizy'
tp532
a(S'100002331253076'
S'Ghani Khosrawi'
tp533
a(S'100002507269381'
S'\\u0641\\u0631\\u0634\\u06cc\\u062f \\u0646\\u0627\\u0628'
tp534
a(S'100000044701233'
S'Qassim Akhgar'
tp535
a(S'100001662943641'
S'Maria Al Khouri'
tp536
a(S'100002197455223'
S'Safar Ali Feyyaz'
tp537
a(S'100000632808456'
S'\\u0645\\u062d\\u0645\\u062f\\u0635\\u0627\\u062f\\u0642 \\u0639\\u0644\\u064a \\u0632\\u0627\\u062f\\u0647'
tp538
a(S'664969032'
S'M. Saeed Niazi'
tp539
a(S'1606848535'
S'Rahim Mirzad'
tp540
a(S'1349205525'
S'Abdul Hai Rauf'
tp541
a(S'100004299818103'
S'Shams Aqil'
tp542
a(S'100006992559960'
S'Abdul Rahman Khisrawi'
tp543
a(S'100005323268196'
S'Mustafa Jahani'
tp544
a(S'100002467415615'
S'Zarar Ahmad Moqbel Osmani'
tp545
a(S'112358'
S'Shoaib Harris Sharifi'
tp546
a(S'697048923'
S'Chris Alexander'
tp547
a(S'100001162468454'
S'Said Mohammad Omar Sadat'
tp548
a(S'723572508'
S'Feridun Ilham'
tp549
a(S'100002205934964'
S'Abdul Shakoor Waqif Hakimi'
tp550
a(S'1516515727'
S'Patience Kamau'
tp551
a(S'606763259'
S'Marilyn Raatz'
tp552
a(S'100006294007482'
S'Hikmat Mana'
tp553
a(S'100001252354341'
S'Mohammad Aria'
tp554
a(S'100004305815783'
S'Mohammad Ali Paik'
tp555
a(S'100002224878173'
S'\\u0627\\u0641\\u063a\\u0627\\u0646\\u0633\\u062a\\u0627\\u0646 \\u0622\\u0632\\u0627\\u062f'
tp556
a(S'549347588'
S'Ala Moatasem'
tp557
a(S'1085607862'
S'Najib Ahmadyar'
tp558
a(S'100001037782911'
S'\\u0627\\u064a\\u0627\\u0645 \\u0627\\u0644\\u062f\\u064a\\u0646 \\u0627\\u062c\\u0645\\u0644'
tp559
a(S'100002943435037'
S'Mir Ahmad Joyenda'
tp560
a(S'1349401365'
S'Jelani Zwak'
tp561
a(S'1179669936'
S'Khushhal Nabizada'
tp562
a(S'1808732461'
S'Rachel Smucker'
tp563
a(S'100006292026814'
S'Habiba Sarabi'
tp564
a(S'1363611502'
S'Farahi Zmaray'
tp565
a(S'1434669268'
S'Nemat Sadat'
tp566
a(S'859860709'
S'Wais Aria'
tp567
a(S'613612764'
S'Mohammad Kazim'
tp568
a(S'1017078906'
S'Fawad Ahmady'
tp569
a(S'100000068478154'
S'Alireza Rahbari'
tp570
a(S'100000724724236'
S'Selselah Yousuf'
tp571
a(S'633928370'
S'Sahar Maranlou'
tp572
a(S'100004099641342'
S'Ghulam Dastaghir Bassam Amiry'
tp573
a(S'100002511286166'
S'Haqiqat Ensan'
tp574
a(S'100000400932281'
S'Ahmad Navid'
tp575
a(S'1391040333'
S'Marianna Abraham'
tp576
a(S'100001597872019'
S'Riffat Butt'
tp577
a(S'100006872070625'
S'Pashtun Azbek Tajik Azara'
tp578
a(S'100002142413033'
S'Marwan Ahmad Zai'
tp579
a(S'100000210303422'
S'Fayez Sadat'
tp580
a(S'100003977605558'
S'Muska Jalal'
tp581
a(S'100000576321090'
S'Nasir Fayaz'
tp582
a(S'100002436903990'
S'Naqib Khan Taraki'
tp583
a(S'1510899025'
S'Suhaib Zarshenas'
tp584
a(S'100000581333385'
S'Habib Bozorgmehr'
tp585
a(S'100000581724323'
S'Rahela Yar'
tp586
a(S'650851050'
S'Parwiz Kawa'
tp587
a(S'100002675533266'
S'\\u0631\\u062d\\u06cc\\u0645 \\u0627\\u0644\\u0644\\u0647 \\u0646\\u0639\\u0645\\u062a \\u067e\\u0648\\u0631'
tp588
a(S'100003910200587'
S'\\u0639\\u0632\\u06cc\\u0632 \\u0637\\u0644\\u0648\\u0639'
tp589
a(S'100001276033418'
S'Mohammad Nateqi'
tp590
a(S'100005413714555'
S'\\u0147\\u0105\\u015bi\\u0155 \\u0160\\u00e1\\u010f\\u00e9d'
tp591
a(S'100000618544228'
S'M Hussain Hussaini'
tp592
a(S'100006129641420'
S'\\u0631\\u0641\\u06cc\\u0639 \\u0630\\u0647\\u0646\\u067e\\u0648\\u06cc\\u0627'
tp593
a(S'641129134'
S'Humayoon Agah'
tp594
a(S'100004906325122'
S'Shams Rumi'
tp595
a(S'100000098443913'
S'Ali Sina Allahyar'
tp596
a(S'100005526095676'
S'\\u0648\\u0644\\u0627\\u06cc\\u062a \\u0647\\u0631\\u0627\\u062a \\u0628\\u0627\\u0633\\u062a\\u0627\\u0646'
tp597
a(S'1364592798'
S'Omar Ahmad Parwani'
tp598
a(S'827285303'
S'Tamim Asey'
tp599
a(S'1358650333'
S'Abdul Hadi Khan'
tp600
a(S'612902233'
S'Sigal Shoham'
tp601
a(S'100004492362462'
S'Humayoon Daneshyar'
tp602
a(S'100000828065644'
S'Asad Sikandar'
tp603
a(S'100000113214570'
S'\\u0645\\u062d\\u0645\\u062f \\u0645\\u0647\\u062f\\u064a \\u062d\\u062f\\u064a\\u062f'
tp604
a(S'100000211987953'
S'Ali Hazara'
tp605
a(S'100002107406111'
S'Mohammad Nasir'
tp606
a(S'1649562271'
S'Ghulam Siddiq'
tp607
a(S'100000849253837'
S'Khalil Hashmat'
tp608
a(S'100000138900851'
S'Mobarez Rashedi'
tp609
a(S'693656690'
S'Esmat Kohsar'
tp610
a(S'750707094'
S'Faisal Mir'
tp611
a(S'100001436295856'
S'Babak Babak'
tp612
a(S'768668864'
S'Wahid Waissi'
tp613
a(S'100002603504338'
S'Aacn Aacn'
tp614
a(S'100000160171609'
S'Shamsulhaq Ansari'
tp615
a(S'100005380475025'
S'Hedayatullah Sediqy'
tp616
a(S'712998642'
S'Sayed Hashmatullah Hashimi'
tp617
a(S'100006692343003'
S'Soosan Firooz'
tp618
a(S'100005769372857'
S'Shah Mard Bromand'
tp619
a(S'100003875796407'
S'Malala Afghan'
tp620
a(S'798848153'
S'Idrees Ilham'
tp621
a(S'1181891475'
S'Zabiullah Akhundzada'
tp622
a(S'100004698132223'
S'Haseebullah Rezayee'
tp623
a(S'100001535596427'
S'Afghanistan Peace'
tp624
a(S'1535976145'
S'Saboor Siasang'
tp625
a(S'100000160303377'
S'Jalal Rabbani'
tp626
a(S'802174833'
S'Nilofar Sakhi'
tp627
a(S'100000894468080'
S'Eidmohammad Saba'
tp628
a(S'1789555294'
S'\\u06a9\\u0627\\u0631\\u0648\\u0627\\u0646 \\u0634\\u0639\\u0631'
tp629
a(S'1168991305'
S'Rasul Rahimi'
tp630
a(S'100004914395194'
S'Syed As\\u0131f'
tp631
a(S'100001669262678'
S'Sayed Murtaza Sadaat'
tp632
a(S'1069489279'
S'Said Sulaiman Ashna'
tp633
a(S'100003289045766'
S'Ghufran Barakzi'
tp634
a(S'1401902908'
S'Janet Hostetter'
tp635
a(S'100005199632810'
S'Omidkhan Sofizada'
tp636
a(S'100000753331511'
S'Hamed Elmi'
tp637
a(S'100002005734393'
S'Ebad Hormat'
tp638
a(S'100000014693300'
S'Siraj Davis'
tp639
a(S'100001058949061'
S'B\\u00e9atrice Loubet'
tp640
a(S'100002120728206'
S'Muhammad Hassan'
tp641
a(S'1062593111'
S'Mursal Jalali'
tp642
a(S'150900258'
S'Erika Bollman'
tp643
a(S'1140631061'
S'Rasouli Fardin'
tp644
a(S'100001207090500'
S'\\u0639\\u0628\\u06cc\\u062f \\u062c\\u0627\\u0647\\u062f'
tp645
a(S'808409247'
S'Mohamad Khadem Haidari'
tp646
a(S'100004321356097'
S'Sahil Shahzad'
tp647
a(S'1779129030'
S'Hamid Saljuqi'
tp648
a(S'100002719525565'
S'\\u062f\\u06a9\\u062a\\u0648\\u0631 \\u0627\\u062d\\u0645\\u062f\\u0633\\u06cc\\u0631 \\u0645\\u0647\\u062c\\u0648\\u0631'
tp649
a(S'100006016600845'
S'Arzoo Musamem'
tp650
a(S'100001285992179'
S'Ali Sobhan'
tp651
a(S'100004375866649'
S'Nargis Qayumi'
tp652
a(S'100002074868983'
S'Ziaullhaq Ghafar'
tp653
a(S'100001743667506'
S'Hafizullah Niazy'
tp654
a(S'100003868621843'
S'Fawzia Koofi'
tp655
a(S'100001322598854'
S'Ibrahim Saeedi'
tp656
a(S'100001027272227'
S'Behnam Akhyari'
tp657
a(S'100008139184472'
S'Khaja Nasrudeen Haseen'
tp658
a(S'100003848404848'
S'North Afghanistan'
tp659
a(S'1566120097'
S'Daniel Lee'
tp660
a(S'100000524743116'
S'Zainab Amiri'
tp661
a(S'100000968316066'
S'Gul Ahmad Mansoor'
tp662
a(S'100000005131939'
S'Nadia Khorsand'
tp663
a(S'100001386525736'
S'\\u0645\\u062d\\u0645\\u062f \\u06cc\\u0648\\u0633\\u0641 \\u0627\\u06cc\\u0631\\u062c'
tp664
a(S'1591579375'
S'Fahim Ehsas'
tp665
a(S'1204549377'
S'Ismail Khorasanpur'
tp666
a(S'100000363756780'
S'Arman Arian'
tp667
a(S'100001618783318'
S'Maria Akbari'
tp668
a(S'100002680701664'
S'Vandana Mutreja'
tp669
a(S'100007674301085'
S'Abdullah Babori'
tp670
a(S'100000061059076'
S'Suhail Babak'
tp671
a(S'100006479667621'
S'Tamanna K Jahesh'
tp672
a(S'1666982133'
S'\\u0645\\u0648\\u0644\\u0627\\u0646\\u0627 \\u0645\\u062d\\u0645\\u062f \\u06cc\\u0627\\u0633\\u0631 \\u0645\\u0647\\u062f\\u06cc'
tp673
a(S'100001507230881'
S'Tareq Aziz Khoshiwal'
tp674
a(S'606898893'
S'Haroun Mir'
tp675
a(S'100001101062168'
S'Ramiz Montahesh Nejrabi'
tp676
a(S'100002929217426'
S'Faisal Azami'
tp677
a(S'100002337808731'
S'Meena Arman'
tp678
a(S'100003651456570'
S'Borna Uni'
tp679
a(S'100000932472014'
S'\\u0645\\u0646\\u0635\\u0648\\u0631 \\u0633\\u062f\\u0627\\u062f'
tp680
a(S'541801538'
S'Manizha Wafeq'
tp681
a(S'100000057465264'
S'\\u0646\\u062f\\u06cc\\u0645 \\u0634\\u0627\\u0647\\u062f'
tp682
a(S'100001456150103'
S'Muhammad Haidari'
tp683
a(S'100001518224904'
S'Khaja Abdullah Ansari'
tp684
a(S'100001309459188'
S'Dawood Sarwary'
tp685
a(S'1133852185'
S'Hamidullah Muazam'
tp686
a(S'100003113365202'
S'Hamidullah Arifi'
tp687
a(S'100000156524953'
S'Shuja Shayan'
tp688
a(S'100001362591505'
S'Zmaray Baher'
tp689
a(S'100000151984376'
S'Nasir Ahmad Noor'
tp690
a(S'1585158898'
S'Mohammad Eshaq Faeiz'
tp691
a(S'100003193094971'
S'Dr-Naqibullah Faiq'
tp692
a(S'100000680966569'
S'Abdulrahim Oraz'
tp693
a(S'100000266920073'
S'Amirshah Rashed'
tp694
a(S'100001937623316'
S'\\u062f\\u0627\\u0646\\u0634\\u06af\\u0627\\u0647 \\u06af\\u0648\\u0647\\u0631\\u0634\\u0627\\u062f'
tp695
a(S'590192363'
S'Neamat Haidari'
tp696
a(S'100003948979472'
S'\\u067e\\u064a\\u0631 \\u062e\\u0631\\u0627\\u0633\\u0627\\u0646'
tp697
a(S'100000932652217'
S'Kabul Debate'
tp698
a(S'640680444'
S'Cynthia Nassif'
tp699
a(S'595082918'
S'Noriyo Suzuki'
tp700
a(S'100002300505369'
S'M Ali Hassani'
tp701
a(S'100002131661160'
S'Ahmad Drwesh'
tp702
a(S'613779206'
S'Abdullah Faiz'
tp703
a(S'1433419625'
S'Mohamad Amin Forotan'
tp704
a(S'100004906333076'
S'Tamim Ansari'
tp705
a(S'100001041180042'
S'Ahmad Bashir Fayaz'
tp706
a(S'100003736225803'
S'Rihana Amiri Zad'
tp707
a(S'100003525664019'
S'Khalil Salangi'
tp708
a(S'100004283291544'
S'Tahmina Amiri'
tp709
a(S'100006812199361'
S'Ahmad Musafer'
tp710
a(S'100000061666431'
S'Afghan Dragon'
tp711
a(S'561598076'
S'Nasir Andisha'
tp712
a(S'1029701379'
S'Saifuddin Saihoon'
tp713
a(S'100002230386347'
S'Sayed Hussain Anwari'
tp714
a(S'100008219646527'
S'Zakia Kabuli'
tp715
a(S'100001346562838'
S'\\u0644\\u0645\\u0631 \\u0631\\u06bc\\u0627'
tp716
a(S'100001915435864'
S'\\u0627\\u062d\\u0645\\u062f \\u0628\\u0647\\u0632\\u0627\\u062f'
tp717
a(S'1049983582'
S'Nate Bailey'
tp718
a(S'100002128233123'
S'\\u0646\\u06cc\\u0627\\u0632 \\u0645\\u062d\\u0645\\u062f \\u0646\\u06cc\\u0627\\u0632'
tp719
a(S'1323921093'
S'Touryalai Ghiyasi'
tp720
a(S'100001039306352'
S'Milad Farwash'
tp721
a(S'500685464'
S'Anthony Richter'
tp722
a(S'100002555675179'
S'\\u0646\\u062c\\u0644\\u0627 \\u0627\\u0646\\u062c\\u06cc\\u0644\\u0627'
tp723
a(S'100002214290432'
S'\\u062d\\u06a9\\u0645\\u062a \\u0627\\u0644\\u0644\\u0647 \\u0645\\u0635\\u0644\\u062d'
tp724
a(S'729400863'
S'Nader Nadery'
tp725
a(S'100007748407763'
S'Sumaira Yaftali'
tp726
a(S'100000988074283'
S'Elizabeth Winter'
tp727
a(S'603243463'
S'Torialai Esar'
tp728
a(S'100004060614842'
S'Setanin Yassan'
tp729
a(S'100002305608934'
S'Farkhunda Zahra Naderi'
tp730
a(S'100000564572014'
S'Raz Mohammad Noorzai'
tp731
a(S'100001262943317'
S'Tajuddin Farzam'
tp732
a(S'100001065367681'
S'Jamshid Yama Amiri'
tp733
a(S'680042175'
S'Janelle Myers-Benner'
tp734
a(S'100004914605725'
S'Abdul Fatah Hamdard'
tp735
a(S'100002192614465'
S'\\u063a\\u06cc\\u0648\\u0631 \\u0627\\u062d\\u0645\\u062f'
tp736
a(S'1255046716'
S'Muhammad Suleman Kakar'
tp737
a(S'100000469938421'
S'\\u0627\\u062d\\u0645\\u062f\\u0635\\u0647\\u06cc\\u0628 \\u0639\\u0645\\u0631\\u0627\\u0646\\u06cc'
tp738
a(S'100001579854088'
S'Shafiqullah Wahdat'
tp739
a(S'100000998553742'
S'Rabia Ibrahimkhill'
tp740
a(S'689960829'
S'Marion Bittinger'
tp741
a(S'1305070526'
S'Mostafa Mahmoud'
tp742
a(S'100000140992703'
S'\\u0631\\u0648\\u0632\\u0646\\u0627\\u0645\\u0647 \\u0647\\u0631\\u0627\\u062a HeratPaper'
tp743
a(S'1294405113'
S'\\u0641\\u0648\\u0627\\u062f \\u0645\\u0633\\u06cc\\u062d\\u0627'
tp744
a(S'100004002399909'
S'Tayeb Sultani'
tp745
a(S'100002591515427'
S'Baktash Hakimyar'
tp746
a(S'100001292688638'
S'Maryam Hatef'
tp747
a(S'1220403555'
S'Ahmad Shahpoor Ahmadi'
tp748
a(S'1201675832'
S'Abdul Latif Pedram'
tp749
a(S'100003087487693'
S'M\\u00eb\\u0144\\u00e5 B\\u00e2h\\u00e5r'
tp750
a(S'100000239774573'
S'\\u0645\\u0646\\u0648\\u0686\\u0647\\u0631 \\u0641\\u0631\\u0627\\u062f\\u06cc\\u0633'
tp751
a(S'100007154834484'
S'Sameer Mubarak'
tp752
a(S'1278235139'
S'Ajmal Kamal'
tp753
a(S'100002282437284'
S'Nazir Masoudi'
tp754
a(S'562730668'
S'Shahin Ghaznawi'
tp755
a(S'634233485'
S'Roya Zamani Hareva'
tp756
a(S'100001032926345'
S'Jawad Behrooz Wahedi'
tp757
a(S'1626134332'
S'Fahim Masoud'
tp758
a(S'1011723728'
S'Nader Yama'
tp759
a(S'1564564558'
S'Rashed Ezmary'
tp760
a(S'100003038111055'
S'Delber Nazari'
tp761
a(S'1215150947'
S'Emmanuel Fleurin\\u00e9'
tp762
a(S'1599367829'
S'Enayatullah Rasooli'
tp763
a(S'668622166'
S'Mercan-Ellen Nielsen'
tp764
a(S'100000297435087'
S'Ahmed Nuweed Amini'
tp765
a(S'100001786585943'
S'Hussain Rahimi'
tp766
a(S'100002799921049'
S'Faqir Mohammad Mohmmand Salam'
tp767
a(S'100000051837607'
S'Mubarakshah Shahram'
tp768
a(S'100002806146969'
S'Alimuslim Mohmmad'
tp769
a(S'100000787499127'
S'Vali Emadi'
tp770
a(S'669686689'
S'Shelly Barker'
tp771
a(S'100001885771797'
S'\\u0634\\u0639\\u0631\\u0647\\u0627\\u06cc \\u06a9\\u0647 \\u062f\\u0648\\u0633\\u062a \\u062f\\u0627\\u0631\\u0645'
tp772
a(S'100003278643609'
S'Simin Barakzai'
tp773
a(S'591829713'
S'\\u0639\\u0628\\u062f\\u0627\\u0644\\u0645\\u0646\\u0627\\u0646 \\u0634\\u06cc\\u0648\\u0627\\u06cc \\u0634\\u0631\\u0642'
tp774
a(S'16812742'
S'Andy Nussbaum'
tp775
a(S'100000817843306'
S'\\u0646\\u0627\\u0632\\u06cc\\u0644\\u0627 \\u067e\\u0631\\u0634\\u0627\\u0646'
tp776
a(S'100000694491623'
S'Young-Ai Kim'
tp777
a(S'1547913134'
S'Massoud Abne Yamin'
tp778
a(S'100002837769412'
S'Maiwand Siawash Khayyam'
tp779
a(S'100001363025809'
S'Najib Agah'
tp780
a(S'100002193144004'
S'Said Mujtaba Eshanzada'
tp781
a(S'1198151109'
S'Lutfullah Dinarkhil'
tp782
a(S'100004839091466'
S'\\u062c\\u0646\\u0628\\u0634 \\u0647\\u0632\\u0627\\u0631\\u0647 \\u0647\\u0627'
tp783
a(S'100002819223779'
S'Said Ali Shah'
tp784
a(S'611800792'
S'Ibrahim Hussaini'
tp785
a(S'100002441522834'
S'Ali Eftekhari'
tp786
a(S'100006633068356'
S'Sher Khan Farnood'
tp787
a(S'100004958887351'
S'Zia Roshan'
tp788
a(S'100001274810159'
S'Saeed Jami'
tp789
a(S'100001267284015'
S'Barak Zad'
tp790
a(S'100007254908794'
S'Tamim Haidari'
tp791
a(S'100001634409920'
S'Jawid Jan'
tp792
a(S'1782050653'
S'Fareed Khoroush'
tp793
a(S'1301191543'
S'Azaryuon Matin'
tp794
a(S'100007907015110'
S'\\u0627\\u0645\\u0631\\u064a\\u0634\\u0627\\u0647 \\u0646\\u0648\\u0631\\u064a'
tp795
a(S'100005776625029'
S'Nasir Omar'
tp796
a(S'100000910647880'
S'Moom Yaprai'
tp797
a(S'100007013172125'
S'Shakib Mosadeq'
tp798
a(S'100004077693632'
S'Shoraie Nezar'
tp799
a(S'100006558040637'
S'Aimal Rasa'
tp800
a(S'100001974024326'
S'Najibullah Musafer'
tp801
a(S'100000211534693'
S'Mohammad Shafiq Hamdam'
tp802
a(S'100001679799347'
S'Mateen Mati'
tp803
a(S'100005242440438'
S'Rahima Hakimi'
tp804
a(S'148801012'
S'Gloria Rhodes'
tp805
a(S'100003356462746'
S'Behroz Yaftali'
tp806
a(S'1848711693'
S'Shahhussain Murtazawi'
tp807
a(S'1397526545'
S'Abdul Qadeer Zurmati'
tp808
a(S'100000080048944'
S'Ali Yaqubi'
tp809
a(S'100001824455567'
S'Shaheed Saheeb Khan Gazi'
tp810
a(S'100000179308617'
S'\\u0641\\u0631\\u06cc\\u062f\\u0648\\u0646 \\u0646\\u0642\\u0627\\u0634 \\u0632\\u0627\\u062f\\u0647'
tp811
a(S'100007728330774'
S'Mohamad Kabir Shahi'
tp812
a(S'12453202'
S'Nate Schlabach'
tp813
a(S'100000183097367'
S'Sayed Ahmad Abid'
tp814
a(S'100001520931204'
S'Masoud Tarashtwal'
tp815
a(S'100002737308686'
S'\\u0639\\u0628\\u062f\\u0627\\u0644\\u063a\\u0641\\u0627\\u0631\\u0627\\u062e\\u0644\\u0627\\u0635 \\u0633\\u06cc\\u063a\\u0627\\u0646\\u06cc'
tp816
a(S'100003303390015'
S'Abdullkhaled Amiri'
tp817
a(S'784066795'
S'Asif Nang'
tp818
a(S'100001634993950'
S'Saleh Solhjo'
tp819
a(S'100002818384286'
S'Ahmad Wali Sangar'
tp820
a(S'100002208629101'
S'Shokria Horyakhil'
tp821
a(S'100006879090097'
S'Sayed Jalil Shah Kazemi'
tp822
a(S'585686854'
S'Samantha Parvathi-Lynne Doak'
tp823
a(S'100001461101168'
S'\\u0627\\u0631 \\u06a9\\u06cc\\u062f\\u0647'
tp824
a(S'100000596778779'
S'Homayoun Rahnoma'
tp825
a(S'100000738291016'
S'Zohra Rahgozar'
tp826
a(S'100001706704553'
S'Ali Shah Zarifi'
tp827
a(S'100002320586471'
S'Suhrab Suroosh'
tp828
a(S'100000399841172'
S'\\u0645\\u0646\\u0627\\u062f\\u06cc \\u0635\\u0644\\u062d'
tp829
a(S'555037636'
S'Akbar Quraishi'
tp830
a(S'100000459120542'
S'A Mujeeb Khalvatgar'
tp831
a(S'100004521273714'
S'Ahmad Shaiq Weda'
tp832
a(S'100001002001304'
S'Masoma Rizayi'
tp833
a(S'1249492331'
S'Massihullah Abdul Rahman Rahmani'
tp834
a(S'100004929222699'
S'Baz Mohammad Jawhari'
tp835
a(S'724348332'
S'Davood Moradian'
tp836
a(S'100000762202488'
S'Sharif Bakhtari'
tp837
a(S'538826004'
S'Sher Shah Suri Jr.'
tp838
a(S'100001797181175'
S'Mahdi Mosaiby'
tp839
a(S'551223391'
S'Ghulam Jan Daler'
tp840
a(S'1104098845'
S'Hamid Obaidi'
tp841
a(S'100008073724390'
S'Qahar Yousfzai'
tp842
a(S'100001679012208'
S'Habiba Danish'
tp843
a(S'100005995114561'
S'Hakimullah Shahryar'
tp844
a(S'100001094878864'
S'Zaza Namoradze'
tp845
a(S'100000891561538'
S'Abdulkader Qaderi'
tp846
a(S'1274364978'
S'Jawad Darwazian'
tp847
a(S'521956808'
S'Jane Anttila'
tp848
a(S'100001698644632'
S'Ehsaan Nehmaty'
tp849
a(S'1289275037'
S'Ali Mohaqqeq'
tp850
a(S'100004915896063'
S'\\u0622\\u0631\\u06cc\\u0627\\u0646\\u0627 \\u0633\\u0631\\u0632\\u0645\\u06cc\\u0646 \\u0639\\u0627\\u0631\\u0641\\u0627\\u0646'
tp851
a(S'100003285445472'
S'Rafi Osoli'
tp852
a(S'565572833'
S'Hamidullah Qiyam'
tp853
a(S'1072047252'
S'Farid Tanai'
tp854
a(S'100002138185399'
S'Ghulam Ishan Mohammadi'
tp855
a(S'100001135716933'
S'Ayar Khurasan'
tp856
a(S'100004252062960'
S'Yussif Abdulfataw'
tp857
a(S'100000665112813'
S'Najibullah Khilwatgar'
tp858
a(S'100000803582380'
S'Maruf Rasoli'
tp859
a(S'1122396269'
S'Amin Wahidi'
tp860
a(S'677969536'
S'Ali Mohammad A'
tp861
a(S'603355337'
S'Bshara Nassar'
tp862
a(S'1273790167'
S'Raheel Saboor'
tp863
a(S'100003534730072'
S'DrHomayoon Azizi'
tp864
a(S'1497522664'
S'Haroon Nazire'
tp865
a(S'1295955675'
S'Abdul Mobin'
tp866
a(S'100001893978612'
S'Ahmad Hijrat Asim'
tp867
a(S'100002254863954'
S'AR Naser'
tp868
a(S'100002260038768'
S'Jaish Qaderi'
tp869
a(S'100002448473753'
S'Mohammad Ali'
tp870
a(S'100006220184572'
S'Akhtargul Azimi'
tp871
a(S'1041372227'
S'Abaceen Nasimi'
tp872
a(S'100003247493879'
S'\\u0627\\u0643\\u0628\\u0631\\u0634\\u0627\\u0647 \\u0622\\u0631\\u0645\\u0627\\u0646'
tp873
a(S'100006849043899'
S'\\u062a\\u063a\\u06cc\\u06cc\\u0631 \\u0628\\u06cc\\u062f\\u0627\\u0631 \\u0634\\u062f'
tp874
a(S'745172145'
S"Shanthie Mariet D'Souza"
tp875
a(S'100001969625093'
S'Fatema Gailani'
tp876
a(S'100000357897234'
S'Abu Yousuf'
tp877
a(S'501579926'
S'Javed Rezayee'
tp878
a(S'100000368206841'
S'Sama Amiri'
tp879
a(S'1181583676'
S'\\u062d\\u0633\\u06cc\\u0646 \\u067e\\u0648\\u06cc\\u0627'
tp880
a(S'100000694098676'
S'Reza Aagah'
tp881
a(S'1604018462'
S'Mohammad Ehsan'
tp882
a(S'1543069654'
S'Sidiqullah Tuwhidi'
tp883
a(S'1370988167'
S'\\u0641\\u0636\\u0644 \\u0627\\u0644\\u0644\\u0647 \\u0632\\u0631\\u06a9\\u0648\\u0628'
tp884
a(S'764260572'
S'Helena Bahaar'
tp885
a(S'100001242729213'
S'Muslim Saadat'
tp886
a(S'100000463727080'
S'Liaquet Ali Ameri'
tp887
a(S'523937036'
S'Afghan Friend'
tp888
a(S'713322745'
S'Rachel Reid'
tp889
a(S'100007132237853'
S'Engmzh Hakimyar'
tp890
a(S'507923797'
S'Jawed Nader'
tp891
a(S'100002194650690'
S'\\u0639\\u0628\\u062f\\u0627\\u0644\\u0648\\u0627\\u062c\\u062f \\u0633\\u0631\\u0648\\u0634'
tp892
a(S'699549621'
S'Mohammad Shafi Anwary'
tp893
a(S'100008342324567'
S'Digi Arena'
tp894
a(S'100000932413716'
S'Ahmad Zaki Khairi'
tp895
a(S'100003645738814'
S'Faheem Dashty'
tp896
a(S'516457848'
S'Mondira Dutta'
tp897
a(S'100001056514170'
S'Noorullah Hamdard'
tp898
a(S'669130731'
S'Katrina Gehman'
tp899
a(S'100005001941847'
S'\\u0627\\u0628\\u0631\\u0627\\u0647\\u06cc\\u0645\\u06cc \\u063a\\u0631\\u062c\\u0633\\u062a\\u0627\\u0646\\u06cc'
tp900
a(S'100004784704632'
S'Sara Khairy'
tp901
a(S'100005352336533'
S'Hamid Ayoobi'
tp902
a(S'100001263527146'
S'Gholamheidar Allameh'
tp903
a(S'100004370919805'
S'\\u0410\\u0445\\u0440\\u043e\\u0440\\u0438\\u0435\\u043d \\u0410\\u043b\\u0435\\u043a\\u0441\\u0430\\u043d\\u0434\\u0440\\u043e\\u0432\\u0430'
tp904
a(S'100002226120490'
S'\\u0639\\u0628\\u062f\\u0627\\u0644\\u0638\\u0627\\u0647\\u0631 \\u0627\\u0646\\u0648\\u0631\\u064a'
tp905
a(S'100005508188345'
S'\\u0634\\u0648\\u0631\\u0627\\u06cc \\u062b\\u0628\\u0627\\u062a \\u067e\\u0631\\u0648\\u0627\\u0646'
tp906
a(S'1171020984'
S'Said Mansour'
tp907
a(S'1276606274'
S'Hailay Amanyar'
tp908
a(S'1429535539'
S'Sharara Amiri'
tp909
a(S'100004997774075'
S'\\u0633\\u062e\\u0646 \\u0645\\u0627\\u0646\\u062f\\u06af\\u0627\\u0631'
tp910
a(S'100003420986694'
S'\\u0647\\u0645\\u0631\\u0627\\u0647 \\u0628\\u0627\\u0642\\u0644\\u0645'
tp911
a(S'1821783593'
S'Nia S Soerachman'
tp912
a(S'100000507337061'
S'Bahram Rasin'
tp913
a(S'801798406'
S'Mohammad Haroon Basharyar'
tp914
a(S'100001386838512'
S'Zamir Wisal Panjshiry'
tp915
a(S'100002331310611'
S'Afghanistan Man'
tp916
a(S'100001576579474'
S'Safia Noori'
tp917
a(S'1637496716'
S'Tabish Forugh'
tp918
a(S'100004164131989'
S'Kaltuma Hassan'
tp919
a(S'100002198031013'
S'Ali Ahmad'
tp920
a(S'100002633435011'
S'Shamsuddin Shams'
tp921
a(S'100001250292194'
S'Haji Qurban Hossaini'
tp922
a(S'100000373435584'
S'Amanullah Paiman'
tp923
a(S'100001812628473'
S'Alef Af'
tp924
a(S'607747083'
S'Akmal Dawi'
tp925
a(S'100006520741321'
S'Mohammad Fawad Nasimi'
tp926
a(S'591755554'
S'Guissou Jahangiri'
tp927
a(S'100005290630916'
S'Herat Bastan'
tp928
a(S'100005110479103'
S'Lima Najeeb'
tp929
a(S'100000110492008'
S'Ameena Rehmani'
tp930
a(S'100006988418670'
S'Zhalla Hakimyar'
tp931
a(S'100003538006189'
S'Ahmad Shakib Hakimyar'
tp932
a(S'100001973739450'
S'Noorullah Hakemi'
tp933
a(S'100002596300905'
S'Farid Aveezhe'
tp934
a(S'100000724654219'
S'\\u0633\\u0645\\u06cc\\u0639 \\u0631\\u0641\\u06cc\\u0639'
tp935
a(S'1468453301'
S'Homayon Ahmadi'
tp936
a(S'100004655949527'
S'Halimkhan Akakhil'
tp937
a(S'100003294526319'
S'Mohammad Zahir'
tp938
a(S'100006187832256'
S'Shekib Rahmani'
tp939
a(S'1645897358'
S'Nematullah Haidari'
tp940
a(S'100000900186218'
S'Zalmai Khan'
tp941
a(S'610508882'
S'Damjan Zdravev'
tp942
a(S'1268650975'
S'Hamed Karimi'
tp943
a(S'669518309'
S'Nasir Khalid'
tp944
a(S'100002681864449'
S'Ali Reza Soroush Jaami'
tp945
a(S'509041248'
S'Mariam Jalalzada'
tp946
a(S'100003520391393'
S'Parwiz Kaihan'
tp947
a(S'100000216844050'
S'Samay Hamed'
tp948
a(S'100000259828557'
S'Mohammadzia Ensafi'
tp949
a(S'545387316'
S'Sayed Sirajuddin Khalid'
tp950
a(S'100000118138104'
S'Behzad  Aria'
tp951
a(S'100002087885222'
S'Siyar Rasooli'
tp952
a(S'100001916942437'
S'Shaheed Najibullah'
tp953
a(S'100003534695602'
S'Abdullah Khatibi'
tp954
a(S'100003664556664'
S'\\u0639\\u0637\\u0627 \\u0627\\u0644\\u0631\\u062d\\u0645\\u0646 \\u0633\\u0644\\u06cc\\u0645'
tp955
a(S'100000526918376'
S'Noor Shahin'
tp956
a(S'100000539247091'
S'Sayed Abdul Nasser Hashemi'
tp957
a(S'100002705958514'
S'Khalid Khan'
tp958
a(S'100003391101179'
S'Ahmad Tariq Azimi'
tp959
a(S'100003312828479'
S'Edrees AK'
tp960
a(S'100004725822983'
S'Farhad Dehqan'
tp961
a(S'1433414045'
S'Khushal Asefi'
tp962
a(S'100004653152407'
S'\\u0646\\u0633\\u062a\\u0648\\u0647 \\u0646\\u0627\\u062f\\u0631\\u06cc'
tp963
a(S'100001148145669'
S'Ajmal Siddique'
tp964
a(S'100000142163849'
S'Mohammad Qasem Omary'
tp965
a(S'100000691694420'
S'Hameed Nasery'
tp966
a(S'100003994177786'
S'Kareema Mumand'
tp967
a(S'100003232175044'
S'Jamila Afghani'
tp968
a(S'1827037189'
S'Najib Jabelsaraj'
tp969
a(S'1275895100'
S'Wazhma Abdulrahimzay'
tp970
a(S'100007311427996'
S'Qalandar Akbari'
tp971
a(S'100003677300151'
S'\\u0635\\u0627\\u0628\\u0631 \\u0635\\u0627\\u0628\\u0631\\u06cc'
tp972
a(S'100000460196504'
S'\\u0627\\u0645\\u0627\\u0646 \\u067e\\u0648\\u06cc\\u0627\\u0645\\u06a9'
tp973
a(S'100002322784677'
S'Atta Attee'
tp974
a(S'100000501857890'
S'Ramazan Bashardost'
tp975
a(S'100001978365537'
S'Hosain Haydari'
tp976
a(S'100002623050658'
S'Rahmatollah Darvazi'
tp977
a(S'100003638874742'
S'\\u0646\\u06cc\\u0644\\u0648\\u0641\\u0631 \\u0627\\u0628\\u0631\\u0627\\u0647\\u06cc\\u0645\\u06cc'
tp978
a(S'100000223098468'
S'Jawed Ludin'
tp979
a(S'100003042173000'
S'Fatemah Panjshiri'
tp980
a(S'100003109759077'
S'\\u0641\\u0631\\u06cc\\u062f\\u0627\\u0644\\u0644\\u0647 \\u062c\\u0645\\u0634\\u064a\\u062f \\u0633\\u062a\\u0627\\u0646\\u0643\\u0632\\u064a'
tp981
a(S'100001005876551'
S'Nasir Neanderthal'
tp982
a(S'100005953601223'
S'Sobhansoft Afghanistan'
tp983
a(S'100001058230158'
S'Zalmay Panjshiri'
tp984
a(S'605799750'
S'Adela Mohseni'
tp985
a(S'100001177727745'
S'Jawad Khaleqi'
tp986
a(S'100001579059958'
S'Jawanan-e Kangara'
tp987
a(S'100000676921159'
S'Imamudin Hamdard'
tp988
a(S'100000174885682'
S'Fahim Khairy'
tp989
a(S'100003769610677'
S'Razmohammad Ihsanpoor'
tp990
a(S'100001121554866'
S'Asma Sakhi Aziz'
tp991
a(S'100002502740568'
S'Ehsan Araam'
tp992
a(S'100002427703709'
S'Lynn Roth'
tp993
a(S'100001777469256'
S'Ferdowsi Saturday Classes'
tp994
a(S'100005304906578'
S'Jafari Baran'
tp995
a(S'1214867048'
S'Nadim Bakhshi'
tp996
a(S'1341500759'
S'Bahar Mehr'
tp997
a(S'100000887505757'
S'Mohammad Ehsan Sohraby'
tp998
a(S'1270908325'
S'Zekria Barakzai'
tp999
a(S'1572748278'
S'Najibullah Paschan'
tp1000
a(S'100002212466211'
S'\\u0645\\u062d\\u0645\\u062f\\u062c\\u0627\\u0646 \\u0645\\u0647\\u062c\\u0648\\u0631'
tp1001
a(S'100000947433994'
S'Tahir Sakhi'
tp1002
a(S'715863148'
S'Farouq Samim'
tp1003
a(S'1508871795'
S'Haji Hashmatullah Samadi'
tp1004
a(S'1084832542'
S'Abdullah Fahimi'
tp1005
a(S'765606943'
S'Khushnood Nabizada'
tp1006
a(S'22206566'
S'Michael Robert McAndrew'
tp1007
a(S'1652767498'
S'Gulabuddin Sukhanwar'
tp1008
a(S'1009877945'
S'Zobayr Moslemi'
tp1009
a(S'100001596553757'
S'Ajmal Himat'
tp1010
a(S'100002491515899'
S'Nasratullah Naveed'
tp1011
a(S'100002958746056'
S'\\u0631\\u0645\\u0636\\u0627\\u0646 \\u0628\\u0634\\u0631 \\u062f\\u0648\\u0633\\u062a'
tp1012
a(S'100006282311633'
S'\\u06a9\\u0631\\u06cc\\u0645\\u0647 \\u0634\\u0628\\u0631\\u0646\\u06af'
tp1013
a(S'1526720316'
S'Azizullah Nehefta'
tp1014
a(S'632036223'
S'Fabrice Guerrier'
tp1015
a(S'100001624210557'
S'Aziz Arianfar'
tp1016
a(S'100005182243017'
S'Jamal Nasir'
tp1017
a(S'100000116536259'
S'Akiko Ishihara'
tp1018
a(S'1124914635'
S'Faayez Haseeb'
tp1019
a(S'530225024'
S'Arsalan Sadat'
tp1020
a(S'100003493527586'
S'\\u0633\\u0648\\u0645\\u0631\\u06cc \\u0628\\u0644\\u0648\\u0686'
tp1021
a(S'100005036054163'
S'\\u0627\\u0631\\u0646\\u0633\\u062a\\u0648 \\u0686\\u0647 \\u06af\\u0648\\u0627\\u0631\\u0627'
tp1022
a(S'1650724098'
S'Mohammad Qasim Wafayezada'
tp1023
a(S'100002311363228'
S'Jeza Gabuya'
tp1024
a(S'100007209433094'
S'Uqab Ngo'
tp1025
a(S'100001958420539'
S'Gulalay Habib'
tp1026
a(S'1015419043'
S'Arash Rasuli'
tp1027
a(S'1248316206'
S'Farishta Sakhi'
tp1028
a(S'100000634749297'
S'\\u0648\\u06a9\\u06cc\\u0644 \\u0631\\u0647\\u062c\\u0648'
tp1029
a(S'100006284712602'
S'Reza Ansari'
tp1030
a(S'1805157879'
S'Murtaza Meraj'
tp1031
a(S'100001812198107'
S'Syed Ishaq Alavi'
tp1032
a(S'670663038'
S'Sayyed Ul Abrar Khan'
tp1033
a(S'100003335208219'
S'Qadir Khan'
tp1034
a(S'100000484106224'
S'Hk Kabuli'
tp1035
a(S'100002124506330'
S"Susan Hagh'goo"
tp1036
a(S'1507659638'
S'Mohammad Salem Wahdat'
tp1037
a(S'100006161652808'
S'Ya Mir'
tp1038
a(S'702685947'
S'Mariana Berbec-Rostas'
tp1039
a(S'100001554798249'
S'Zarguna Ata'
tp1040
a(S'1287723647'
S'Najib Amin'
tp1041
a(S'100006733712859'
S'Qiamuddin Mohamady'
tp1042
a(S'517864470'
S'Wahed Abawi'
tp1043
a(S'100003119697509'
S'Womenspolitical Participation'
tp1044
a(S'100006680375114'
S'Shaista Sadat Lameh'
tp1045
a(S'100002641938105'
S'Zolal Hasti'
tp1046
a(S'100002118710119'
S'Sameer Rasa'
tp1047
a(S'100004276658615'
S'Trina Bahar Badakhsh'
tp1048
a(S'100004226460295'
S'Azizullah Shirzad'
tp1049
a(S'100002022499993'
S'Sharif Azizyar'
tp1050
a(S'100001026787175'
S'Khwaja Saeedi'
tp1051
a(S'100005075652630'
S'Sakhi Ahmadi'
tp1052
a(S'100001056531072'
S'Enayatullah Akbari'
tp1053
a(S'100003795879603'
S'\\u0631\\u0627\\u064a \\u0628\\u0647 \\u0639\\u0628\\u062f\\u0627\\u0644\\u0644\\u0647'
tp1054
a(S'100003806760636'
S'Imranulhaq Jahanbaz'
tp1055
a(S'100001259417997'
S'Zobair Hejran'
tp1056
a(S'100001974345946'
S'Habiburahman Rahman'
tp1057
a(S'100006338435072'
S'Seema Ghani'
tp1058
a(S'100000127082963'
S'Khorasani Khorasani'
tp1059
a(S'667608457'
S'J Alexander Thier'
tp1060
a(S'100004236881415'
S'Samim Ahmad'
tp1061
a(S'100005802455603'
S'Hasibullah Faakher'
tp1062
a(S'100005224142501'
S'Pari Shakery'
tp1063
a(S'100001075654209'
S'\\u062c\\u0646\\u0628\\u0634 \\u0622\\u0632\\u0627\\u062f\\u06cc \\u062e\\u0648\\u0627\\u0647\\u0627\\u0646 \\u062e\\u0631\\u0627\\u0633\\u0627\\u0646'
tp1064
a(S'100001448679969'
S'Zahir Ariaie'
tp1065
a(S'100000529151333'
S'Pia Cugal'
tp1066
a(S'545041142'
S'Iraj Khaliqi'
tp1067
a(S'100004005086221'
S'\\u0160\\u0125\\u00e3\\u010f\\u00e5b \\u015a\\u00e0f\\u012f'
tp1068
a(S'100004971361757'
S'Hamdard Afghan'
tp1069
a(S'100001123990570'
S'Wahid Ayar'
tp1070
a(S'1667347273'
S'Sidiq Tuwhidi'
tp1071
a(S'100004790534308'
S'Farooq Sakhi'
tp1072
a(S'100001418486639'
S'Latif Pedram II'
tp1073
a(S'1415690130'
S'Ahmad Shahir Salehi'
tp1074
a(S'1359978368'
S'Masood Balouch'
tp1075
a(S'100001069619204'
S'Amir Habibullah Khan'
tp1076
a(S'100005274636497'
S'Ustad Belton'
tp1077
a(S'1066443376'
S'Mukhtar Pidram'
tp1078
a(S'517824662'
S'Noel Selegzi'
tp1079
a(S'100001163532481'
S'Mostafa Amin'
tp1080
a(S'100007123776235'
S'Mazeed Khisraw'
tp1081
a(S'100000872388760'
S'Ahmad Noor'
tp1082
a(S'100000285159972'
S'Sameer Bedrud'
tp1083
a(S'100000285803162'
S'Hazrat Wahriz'
tp1084
a(S'100002330587940'
S'\\u0635\\u0627\\u0644\\u062d \\u0645\\u062d\\u0645\\u062f \\u062e\\u0644\\u06cc\\u0642'
tp1085
a(S'636053827'
S'Ahmad Shuja'
tp1086
a(S'100001687323887'
S'Yassine Chafizadeh'
tp1087
a(S'100004174805485'
S'Khadija Mohseni'
tp1088
a(S'100003009466291'
S'Khalil Sultanzada'
tp1089
a(S'692735854'
S'Hekmatullah Foushanji'
tp1090
a(S'100001113630815'
S'Ahmad Sorosh Shaheer'
tp1091
a(S'100001291261577'
S'\\u0647\\u0627\\u06cc\\u062f \\u0639\\u0645\\u0627\\u0631'
tp1092
a(S'100005581152409'
S'Abdul Jane Qand'
tp1093
a(S'100003177726959'
S'Shiragha Najaty'
tp1094
a(S'100001737844303'
S'Faqir Wadan'
tp1095
a(S'100001232943139'
S'Hasibullah Khan Nazari'
tp1096
a(S'100002456730314'
S'Sudour Amini'
tp1097
a(S'1412582588'
S'Basharat Rahimullah'
tp1098
a(S'100005426378973'
S'Mohammad Ibrahim Qasemi'
tp1099
a(S'100002171474968'
S'Arash Howaida II'
tp1100
a(S'100001090553752'
S'Aman Maosher'
tp1101
a(S'570806674'
S'Kaja Borchgrevink'
tp1102
a(S'1243757946'
S'Naqib Haidari'
tp1103
a(S'100000447623463'
S'Omid Rashid Kohistani'
tp1104
a(S'100002008475015'
S'Sahebnazar Muradi'
tp1105
a(S'100002121396890'
S'Saleem Khan'
tp1106
a(S'721729228'
S'Sandra Kienitz'
tp1107
a(S'510837791'
S'Paulette Moore'
tp1108
a(S'100000836814919'
S'Hamayoon Kohestani'
tp1109
a(S'732207335'
S'Mirwais Rekab'
tp1110
a(S'100002382310921'
S'Din Mohammad Darwishi'
tp1111
a(S'581420488'
S'Hamid Rahimi'
tp1112
a(S'100005238933027'
S'Mohammad Rafi'
tp1113
a(S'100003556177593'
S'Arash Panjshiri'
tp1114
a(S'100001977808028'
S'\\u06a9\\u062c \\u0628\\u0634\\u06cc\\u0646 \\u0631\\u0627\\u0633\\u062a \\u0628\\u06af\\u0648'
tp1115
a(S'100005158561952'
S'Shah Mohammad Goya'
tp1116
a(S'19403102'
S'M. Asif Ehsan'
tp1117
a(S'100000748444069'
S'Haji Nisar Ahmad Rashidi'
tp1118
a(S'100002141500588'
S'Farid Ahmad Momand Halimzai'
tp1119
a(S'615042774'
S'Zabi Rahat'
tp1120
a(S'1366681298'
S'Hematullah Aminzay'
tp1121
a(S'581938534'
S'Maiwand Tokhy'
tp1122
a(S'100008158114596'
S'Razeq Yar'
tp1123
a(S'100006760771530'
S'Rabi Mohammadi'
tp1124
a(S'100002191248440'
S'Roya Mehraban'
tp1125
a(S'1127023017'
S'Abdullah Fahim'
tp1126
a(S'100001098833967'
S'\\u0641\\u0627\\u0637\\u0645\\u0647 \\u062c\\u0639\\u0641\\u0631\\u064a'
tp1127
a(S'1809399086'
S'\\u062c\\u0627\\u0648\\u06cc\\u062f \\u0631\\u0648\\u0633\\u062a\\u0627\\u067e\\u0648\\u0631'
tp1128
a(S'568111282'
S'Najia Haneefi'
tp1129
a(S'1275126910'
S'Abdul Lalzad'
tp1130
a(S'100002634820519'
S'Abdulhaq Omeri'
tp1131
a(S'100005255280355'
S'Ali Yawar Habibi'
tp1132
a(S'100002003072884'
S'Princess Frozan'
tp1133
a(S'1079138456'
S'Rahman Habib'
tp1134
a(S'758283081'
S'Rami Jabali'
tp1135
a(S'100000142271308'
S'Waheed Ahmadi'
tp1136
a(S'100005808311018'
S'\\u0646\\u0633\\u0644 \\u062c\\u0648\\u0627\\u0646 \\u0641\\u0627\\u0631\\u06cc\\u0627\\u0628'
tp1137
a(S'100001016922022'
S'Azizullah Ima'
tp1138
a(S'100002949213591'
S'\\u0639\\u0628\\u062f\\u0627\\u0644\\u0633\\u062a\\u0627\\u0631 \\u062e\\u0648\\u0627\\u0635\\u06cc'
tp1139
a(S'100005678412493'
S'\\u0627\\u0646\\u062c\\u0645\\u0646 \\u0639\\u0644\\u0645\\u06cc \\u0648\\u0641\\u0631\\u0647\\u0646\\u06af\\u06cc \\u0628\\u0646\\u06cc\\u0627\\u062f\\u06af\\u0631'
tp1140
a(S'100000505539808'
S'Nessar Ahmad Nori'
tp1141
a(S'852430011'
S'Janan Mosazai'
tp1142
a(S'785353798'
S'Rahim Morshidi'
tp1143
a(S'100002653430742'
S'Mohammad Musa Talash'
tp1144
a(S'524666585'
S'Joanne Lauterjung Kelly'
tp1145
a(S'100001436895942'
S'Sh\\u00e1z\\u00e1d\\u00e1 St\\u00ffl\\u00ebg\\u00e4k T\\u014dO\\u014d'
tp1146
a(S'876420013'
S'Lindsay Martin'
tp1147
a(S'1208853657'
S'Masooma Mohammadi'
tp1148
a(S'100001078765644'
S'Najila Anjila'
tp1149
a(S'100001031581500'
S'Sherenaqa Farshid'
tp1150
a(S'100000385460530'
S'Ahmad Seyam Raufi'
tp1151
a(S'100004371061694'
S'Ghulam Mujtaba Patang'
tp1152
a(S'100001452266730'
S'Khwaja Azimudin'
tp1153
a(S'1179968189'
S'Hekmat Khalil Karzai'
tp1154
a(S'1736730786'
S'Noor Mohammad Noor'
tp1155
a(S'100001964962348'
S'Ahmad Fahim Karimi'
tp1156
a(S'690881845'
S'Khalid Khosraw'
tp1157
a(S'100000379388477'
S'Ahmad Jawad Karimi'
tp1158
a(S'100000207797303'
S'Nadi Sakhi'
tp1159
a(S'100002656535576'
S'Kyle Marshall'
tp1160
a(S'100001657242755'
S'Hedayat Mahmood'
tp1161
a(S'100004502559163'
S'Jomae Khan Mohammadi'
tp1162
a(S'100002480241603'
S'Sayed Nematullah Rezaee'
tp1163
a(S'100000104846993'
S'Jafar Rasouli'
tp1164
a(S'100001780212370'
S'Haider Salim'
tp1165
a(S'100001235612913'
S'Khalid Abed'
tp1166
a(S'100008157942837'
S'Khamosh Khan Bidar'
tp1167
a(S'100000840975628'
S'Ruhullah Roieen'
tp1168
a(S'100006234006793'
S'Arsalan Ghizali'
tp1169
a(S'100001198761195'
S'Amir Erfan'
tp1170
a(S'100003613743880'
S'\\u0627\\u062d\\u0645\\u062f\\u0636\\u06cc\\u0627\\u0621 \\u0645\\u0633\\u0639\\u0648\\u062f'
tp1171
a(S'100006466621496'
S'\\u0641\\u0631\\u0627\\u062c \\u067e\\u0646\\u062c\\u0634\\u06cc\\u0631'
tp1172
a(S'100003317427470'
S'Abbas Farasou'
tp1173
a(S'100002422800926'
S'\\u062a\\u062d\\u0648\\u0644 \\u0648\\u062a\\u062f\\u0627\\u0648\\u0645'
tp1174
a(S'100004859310413'
S'Taazi Arab'
tp1175
a(S'1330243116'
S'Emal Naqshbandi'
tp1176
a(S'100001752574761'
S'Faiz Faizan'
tp1177
a(S'1216181155'
S'Khalil Roman'
tp1178
a(S'100001160517520'
S'Masoud Sarwari'
tp1179
a(S'100005843130110'
S'Timor Hakimyar'
tp1180
a(S'100001536757490'
S'Enayat Raouf'
tp1181
a(S'100000179385379'
S'\\u06cc\\u0648\\u0646\\u0633 \\u062d\\u06cc\\u062f\\u0631\\u06cc'
tp1182
a(S'100007651536422'
S'Amir Pasha'
tp1183
a(S'100002003589215'
S'Mard Momin'
tp1184
a(S'100000119878637'
S'Samim Haamid'
tp1185
a(S'100000402781139'
S'Hamed Ahmad'
tp1186
a(S'100001313834164'
S'Farishta Kamal'
tp1187
a(S'100006098044412'
S'Thinkndgrow Rich'
tp1188
a(S'100004773547211'
S'Aziz Rafiee'
tp1189
a(S'1294673989'
S'Sattar Alikozay'
tp1190
a(S'13928741'
S'Corie Custer'
tp1191
a(S'100002295743122'
S'Ahmad Fahim Noory'
tp1192
a(S'100001748907310'
S'Ryhanna Habib'
tp1193
a(S'100000003247512'
S'Faridon Sorush'
tp1194
a(S'100005318593386'
S'Nago Neeli'
tp1195
a(S'100000052153667'
S'Azad Afghanistan'
tp1196
a(S'671363722'
S'Meena Baktash'
tp1197
a(S'100002700201154'
S'Arif Farahi'
tp1198
a(S'100002141683133'
S'Anas Anwary'
tp1199
a(S'100002024619683'
S'Fereshta Hazrati'
tp1200
a(S'697171501'
S'Lyse Doucet'
tp1201
a(S'100000882870506'
S'Abid Khan'
tp1202
a(S'100000159346061'
S'Abbas Farasoo'
tp1203
a(S'648344011'
S'Sari Kouvo'
tp1204
a(S'100005802762842'
S'Yousuf Afghan'
tp1205
a(S'100001841405768'
S'Zafar Shayan'
tp1206
a(S'100002047613040'
S'Habib Karimi'
tp1207
a(S'100002727094161'
S'\\u0634\\u0645\\u0633 \\u0627\\u0644\\u062d\\u0642 \\u062d\\u0642\\u0627\\u0646\\u06cc'
tp1208
a(S'100000496097600'
S'Scherzei Wahidullah'
tp1209
a(S'100006550568485'
S'Siddiq Mujadidi'
tp1210
a(S'1658480818'
S'Jaden Hostetter'
tp1211
a(S'100005349511540'
S'Ahmad Zubair'
tp1212
a(S'100000986338739'
S'Rustam Zaman'
tp1213
a(S'1614892335'
S'Ahmad Zia Zaher'
tp1214
a(S'663185013'
S'Barbie Fischer'
tp1215
a(S'100002389496054'
S'Arif Rahmani'
tp1216
a(S'100000760034073'
S'Nazar Enayat'
tp1217
a(S'607455730'
S'Melissa Johnson'
tp1218
a(S'100005204501753'
S'Mehrabali Myar'
tp1219
a(S'100002008822813'
S'Khalid Ahmad Salih Zada'
tp1220
a(S'633338422'
S'Fahim Shansab'
tp1221
a(S'100000246382769'
S'Masoud Jan'
tp1222
a(S'100002291108281'
S'Ahmad Sohail Amir'
tp1223
a(S'100002385449011'
S'\\u062d\\u0642\\u06cc\\u0642\\u062a \\u0632\\u0646\\u062f\\u06af\\u06cc'
tp1224
a(S'100002597144259'
S'Enayat Rahesh'
tp1225
a(S'636782386'
S'Richy Bikko'
tp1226
a(S'100002303573909'
S'\\u0627\\u0633\\u062a\\u0627\\u062f \\u0639\\u0628\\u062f\\u0627\\u0644\\u0644\\u0647 \\u062e\\u0627\\u062f\\u0645'
tp1227
a(S'100003555944715'
S'Ahmad Yama Delawer'
tp1228
a(S'100003309798460'
S'Khalid Payman'
tp1229
a(S'100004701060846'
S'Belqais Azizi'
tp1230
a(S'100004686721392'
S'Sayed Tamor Shah Haidari'
tp1231
a(S'100001076898952'
S'Farishta Sakhi'
tp1232
a(S'100007777926724'
S'Deeba Hakimyar'
tp1233
a(S'100000617765416'
S'Ahmad Kavan'
tp1234
a(S'100003305180736'
S'Ahmad Zarif'
tp1235
a(S'100005724191870'
S'Haseeb Massumi'
tp1236
a(S'100004038826466'
S'\\u0645\\u062d\\u0645\\u062f \\u0633\\u0631\\u0648\\u0631 \\u062c\\u0648\\u0627\\u062f\\u06cc'
tp1237
a(S'1234366225'
S'Faramarz Tamanna'
tp1238
a(S'100001876219399'
S'Nima Nima'
tp1239
a(S'1318797607'
S'Shafi Sharifi'
tp1240
a(S'614187442'
S'Noorullah Haidari'
tp1241
a(S'100001140139373'
S'Saidhassan Hussaini'
tp1242
a(S'100003158913997'
S'Millad Nawjawan Afghanistany'
tp1243
a(S'506407743'
S'Nicolau Capita Nguimbi'
tp1244
a(S'100003101320643'
S'Mohammad Ahmadi'
tp1245
a(S'100000069273008'
S'Sameer Haidary'
tp1246
a(S'100001259550856'
S'Shir Khan Yahya'
tp1247
a(S'100001668490770'
S'Sahra Ahmad'
tp1248
a(S'100003726640954'
S'Gayeon Kim'
tp1249
a(S'100002636378025'
S'Fawad Nasim'
tp1250
a(S'1476187710'
S'Sayed Nasir Gharjistani'
tp1251
a(S'100004940654087'
S'Hazaras-in London'
tp1252
a(S'100000605799295'
S'Walliullah Niazi'
tp1253
a(S'755005298'
S'Mir Hussain Mahdavi'
tp1254
a(S'100000044213288'
S'Pendar Kabul'
tp1255
a(S'100005964812695'
S'\\u0631\\u0627\\u0636\\u064a\\u0647 \\u0628\\u0647\\u0627\\u0631'
tp1256
a(S'100005309854049'
S'Qadriya Yazdanparast'
tp1257
a(S'100004288621030'
S'\\u0639\\u0644\\u06cc \\u0646\\u0642\\u06cc \\u0641\\u0631\\u0647\\u0645\\u0646\\u062f'
tp1258
a(S'519080632'
S'Abasin Azarm'
tp1259
a(S'100004126716557'
S'Tamanna Akrami'
tp1260
a(S'100000069105863'
S'Miral Syarif Setyawan'
tp1261
a(S'100001965275511'
S'\\u062d\\u0627\\u062c\\u064a \\u0639\\u0642\\u064a\\u0644 \\u0641\\u0647\\u064a\\u0645'
tp1262
a(S'100003016622989'
S'Mohammad Moradi'
tp1263
a(S'148801271'
S'Sarah Roth Shank'
tp1264
a(S'100003877302991'
S'\\u062f\\u0627\\u0643\\u062a\\u0631 \\u0639\\u0628\\u062f\\u0627\\u0644\\u0644\\u0647 \\u0639\\u0628\\u062f\\u0627\\u0644\\u0644\\u0647'
tp1265
a(S'100003492544182'
S'Ziaullah Ibrahimi'
tp1266
a(S'100001804822017'
S'Ahmad Naweed Azimi'
tp1267
a(S'1160730263'
S'Alema Dralema'
tp1268
a(S'100000341437689'
S'Fariba Aryan'
tp1269
a(S'789993695'
S'Jayne Seminare Docherty'
tp1270
a(S'100005123253031'
S'Farhadshah Ahmadi'
tp1271
a(S'100000389749647'
S'Musadiq Parsa'
tp1272
a(S'100001394068295'
S'\\u0622\\u06cc\\u0647 \\u0647\\u0627\\u06cc \\u0632\\u0646\\u062f\\u06af\\u06cc'
tp1273
a(S'100001372864026'
S'Same Rahi'
tp1274
a(S'100005342704918'
S'Ali Nasiri'
tp1275
a(S'100001055953259'
S'Khaled Seddiq Seddiq'
tp1276
a(S'100001683728517'
S'Ahmad Deedat'
tp1277
a(S'100003790512776'
S'Simin Kohzad'
tp1278
a(S'100002309893149'
S'Hos Sadeghi'
tp1279
a(S'100006872770689'
S'Mehrghan Hakimi'
tp1280
a(S'1269391665'
S'\\u0645\\u062d\\u0645\\u062f\\u0627\\u0645\\u06cc\\u0646 \\u062d\\u0646\\u06cc\\u0641'
tp1281
a(S'1442277681'
S'Nematollah Torkany'
tp1282
a(S'100004345991620'
S'\\u0646\\u0647\\u0627\\u062f \\u0628\\u06cc\\u0646 \\u0627\\u0644\\u0645\\u0644\\u0644\\u06cc \\u0632\\u0646\\u0627\\u0646 \\u0627\\u0641\\u063a\\u0627\\u0646'
tp1283
a(S'100003014867825'
S'Asadullah Hussaini'
tp1284
a(S'100002249239091'
S'Bamdad Af'
tp1285
a(S'1447330363'
S'Haider Salim'
tp1286
a(S'100000157199151'
S'Khalil Ahmad Fazl'
tp1287
a(S'100005813941337'
S'Atmar Hakimyar'
tp1288
a(S'100007183453966'
S'Serena Sabet'
tp1289
a(S'100005590414808'
S'Dinmohammad Hezhabre'
tp1290
a(S'656741522'
S'Fabrizio Foschini'
tp1291
a(S'100001848842017'
S'Mohammad Khatibi'
tp1292
a(S'100008225701549'
S'Payman Arbabzasa'
tp1293
a(S'100002479059618'
S'Sardar Nazari'
tp1294
a(S'100005311659695'
S'Ghazal Afghanistan'
tp1295
a(S'633942271'
S'Noorkhan Haidari'
tp1296
a(S'100005767296412'
S'\\u062f\\u0627\\u0643\\u062a\\u0631 \\u0639\\u0632\\u064a\\u0632\\u0627\\u0644\\u0644\\u0647 \\u0644\\u0648\\u062f\\u064a\\u0646'
tp1297
a(S'100002457504834'
S'Ahmad Murid Azami'
tp1298
a(S'100001048670227'
S'Afifa Shams'
tp1299
a(S'100001313149410'
S'Ali Kasra'
tp1300
a(S'100004055321417'
S'Mitra Tawana'
tp1301
a(S'690387037'
S'Arezo Qanih'
tp1302
a(S'100001183514381'
S'Ali Baghery'
tp1303
a(S'556431823'
S'Nadir Atash'
tp1304
a(S'781185401'
S'Arshi Saleem Hashmi'
tp1305
a(S'100001417899783'
S'Alpamish Batir'
tp1306
a(S'539511269'
S'Salih Dogan'
tp1307
a(S'1220204044'
S'Zubair Fattahi'
tp1308
a(S'100000569737592'
S'Amir Sakhra'
tp1309
a(S'100000084568495'
S'Best Mosakhel'
tp1310
a(S'100003012900542'
S'Zabi Hakimzada'
tp1311
a(S'100002661399191'
S'\\u0641\\u0631\\u0645\\u0627\\u0646\\u062f\\u0647 \\u0645\\u062d\\u0645\\u062f \\u0646\\u0648\\u0631'
tp1312
a(S'100004008635061'
S'Ahmadzia Rafat'
tp1313
a(S'527014456'
S'Jahid Mohseni'
tp1314
a(S'100002215438827'
S'Jamshid Jamshid Aziz'
tp1315
a(S'100006886147577'
S'Saleh Registani'
tp1316
a(S'601078082'
S'Martine Van Bijlert'
tp1317
a(S'100000295063952'
S'Hafez Latifi'
tp1318
a(S'100001144941484'
S'Ahmad Wali'
tp1319
a(S'100002378045037'
S'Bismullah Mohammadi'
tp1320
a(S'100001061495320'
S'Dawar Durandesh'
tp1321
a(S'100002468175672'
S'Timor Sharan'
tp1322
a(S'100003275635491'
S'\\u062d\\u0645\\u06cc\\u062f\\u0647 \\u0648\\u0631\\u062f\\u06a9'
tp1323
a(S'1298479325'
S'Yama Siawash'
tp1324
a(S'100003104717123'
S'Saboor Ghousi'
tp1325
a(S'100002814858133'
S'Afghan Perspective'
tp1326
a(S'100004832286665'
S'Samir Samimi'
tp1327
a(S'1058038774'
S'Rahimullah Rameh'
tp1328
a(S'100001885184361'
S'Sima Farahi'
tp1329
a(S'100001160709662'
S'\\u0637\\u063a\\u06cc\\u0627\\u0646 \\u0633\\u0631\\u0648\\u0631'
tp1330
a(S'100004417510524'
S'Mohammad Esa Parsa'
tp1331
a(S'100000159212867'
S'Taqi Husainy'
tp1332
a(S'100003496790890'
S'Lina Ahmad'
tp1333
a(S'100004999272294'
S'\\u0627\\u0641\\u0634\\u0627\\u06af\\u0631 \\u062c\\u0646\\u0627\\u06cc\\u062a\\u06a9\\u0627\\u0631\\u0627\\u0646'
tp1334
a(S'100003916140638'
S'Waheed Saheem'
tp1335
a(S'1041295555'
S'Trina Trotter Nussbaum'
tp1336
a(S'100005117049464'
S'Khalid Nawisa'
tp1337
a(S'1456660844'
S'Sear Zia'
tp1338
a(S'843662286'
S'Shahzoda Nazarova'
tp1339
a(S'100000777533213'
S'Mahboobullah Mahboob'
tp1340
a(S'538446542'
S'Mustafa Bashaarat'
tp1341
a(S'1180306464'
S'Mohammad Afzal Kuhnaward'
tp1342
a(S'1148515255'
S'Wore Ndiaye'
tp1343
a(S'100002373869011'
S'\\u062a\\u06cc\\u0645 \\u0627\\u0633\\u062a\\u0642\\u0644\\u0627\\u0644 \\u0647\\u0631\\u0627\\u062a'
tp1344
a(S'1843483083'
S'Habib Sharif'
tp1345
a(S'100000254872793'
S'Hamid Tajik'
tp1346
a(S'1094484011'
S'Rasool Emaan'
tp1347
a(S'100007570201963'
S'Aziza Wafa'
tp1348
a(S'100002514880556'
S'Sultan Ahmad Khayam'
tp1349
a(S'100003883525824'
S'\\u062e\\u0644\\u064a\\u0644 \\u0647\\u062f\\u0641'
tp1350
a(S'100001511206653'
S'Hashmat Salhi'
tp1351
a(S'100001775386794'
S'Hassan Hakimy'
tp1352
a(S'100006733124081'
S'Reza Dana E Yan'
tp1353
a(S'1579417368'
S'Bibi Gul'
tp1354
a(S'100000448482907'
S'Diane Kellogg'
tp1355
a(S'695723482'
S'Esmael Darman'
tp1356
a(S'1465710106'
S'Alli Eanes'
tp1357
a(S'613476311'
S'Kalyani Tulankar'
tp1358
a(S'100001271554099'
S'\\u0627\\u062d\\u0645\\u062f \\u0627\\u0631\\u0634\\u0627\\u062f \\u062e\\u0637\\u06cc\\u0628\\u06cc'
tp1359
a(S'100004031507962'
S'Zohooruddin Sidiqi'
tp1360
a(S'100000155418722'
S'Sadeq Osyan'
tp1361
a(S'1278101149'
S'Tamim Bedar'
tp1362
a(S'100005623117339'
S"Abdul Muna'em Tajalli"
tp1363
a(S'720786256'
S'Yalda Natawan'
tp1364
a(S'100000080307362'
S'Waheed Hamidi'
tp1365
a(S'100002913855231'
S'Farid Koshan'
tp1366
a(S'100005018791557'
S'Jn Jaleeli'
tp1367
a(S'100002274318079'
S'\\u0641\\u0631\\u0648\\u063a \\u0641\\u0631\\u062e\\u0632\\u0627\\u062f'
tp1368
a(S'100002593071413'
S'\\u062e\\u0628\\u0631\\u06af\\u0632\\u0627\\u0631\\u06cc \\u062c\\u0645\\u0647\\u0648\\u0631'
tp1369
a(S'100001384059655'
S'\\u0646\\u0648\\u0631\\u0627\\u0644\\u062f\\u06cc\\u0646 \\u0645\\u0638\\u0641\\u0631\\u06cc'
tp1370
a(S'670793976'
S'Harun Najafizada'
tp1371
a(S'683104079'
S'Ccpd Consultancy'
tp1372
a(S'100001824694862'
S'\\u0641\\u0631\\u06cc\\u062f\\u0627\\u062d\\u0645\\u062f \\u0627\\u0645\\u06cc\\u0631\\u06cc'
tp1373
a(S'595620739'
S'Daud Qarizadah'
tp1374
a(S'100000104068359'
S'Yago Abeledo'
tp1375
a(S'100000040219839'
S'Zabihullah Ghazi Nuristani'
tp1376
a(S'100005763187550'
S'Sayed Ali Masoomi'
tp1377
a(S'1626311109'
S'Shafiqullah Shafiq'
tp1378
a(S'663612098'
S'Parwiz Shamal'
tp1379
a(S'100001063247869'
S'Abdul Rab Rasul Sayaf'
tp1380
a(S'100005298451288'
S'\\u0633\\u0627\\u0632\\u0645\\u0627\\u0646 \\u062c\\u0648\\u0627\\u0646\\u0627\\u0646 \\u0645\\u064a\\u0647\\u0646'
tp1381
a(S'759700367'
S'Roya Rahmani'
tp1382
a(S'100007403737918'
S'Khaled Hamedi'
tp1383
a(S'100001568712270'
S'\\u0648\\u0631\\u0632\\u0634 \\u0627\\u0641\\u063a\\u0627\\u0646\\u0633\\u062a\\u0627\\u0646'
tp1384
a(S'100004134669050'
S'Shadab Tanha'
tp1385
a(S'100002983015789'
S'Mohammad Ali Shojae'
tp1386
a(S'100000288481442'
S'Ghulam Hassan Gran'
tp1387
a(S'1041171506'
S'Asif Ashna'
tp1388
a(S'100000843164926'
S'Valey Arya'
tp1389
a(S'100003243931746'
S'Shapor Saad'
tp1390
a(S'705457759'
S'Mir Abdul Wahed Hashimi'
tp1391
a(S'100001808875611'
S'Hangama Anwari'
tp1392
a(S'100000504293975'
S'Baba Malang Ariayee A'
tp1393
a(S'100002977250452'
S'Sharife Gulzar'
tp1394
a(S'100004321990182'
S'Thomas D. Garnett'
tp1395
a(S'100005005084944'
S'Sami Ullah Bikzad'
tp1396
a(S'100001021912517'
S'Naghma Liveinconcert'
tp1397
a(S'100005718611201'
S'Volunteering Afghanistan'
tp1398
a(S'100002415207456'
S'Moh Reza Sina'
tp1399
a(S'724694174'
S'Daud Saba'
tp1400
a(S'100003117315049'
S'Fazel Rahim Fazli'
tp1401
a(S'100002577334467'
S'Youths Afg'
tp1402
a(S'40706860'
S'Elizabeth Bartlett'
tp1403
a(S'100004333863134'
S'Tahmena Shayan'
tp1404
a(S'100001983998255'
S'\\ufee3\\ufeae\\ufef3\\ufee2 \\ufea7\\ufee4\\ufeee\\ufeb5'
tp1405
a(S'100000629715352'
S'Wais Barakzai'
tp1406
a(S'1169751765'
S'Nawroz Rateb'
tp1407
a(S'100000238069064'
S'Hamid Saljooghi'
tp1408
a(S'100000457954434'
S'Islam Jurat'
tp1409
a(S'100002830294524'
S'Mirwais Wardak'
tp1410
a(S'100002518134645'
S'Kabul Wood'
tp1411
a(S'100000227166248'
S'Nawid Afghan'
tp1412
a(S'100002382453687'
S'Abdul Sami Zhman'
tp1413
a(S'100003792175778'
S'Bas\\u012fr Dehqa\\u014b'
tp1414
a(S'100001656980908'
S'Amrullah Saleh'
tp1415
a(S'100002052723122'
S'Aarya Nijat'
tp1416
a(S'100005079480217'
S'\\u0641\\u0631\\u0634\\u062a\\u0647 \\u0627\\u0632 \\u06a9\\u0627\\u0628\\u0644\\u0633\\u062a\\u0627\\u0646'
tp1417
a(S'1481852260'
S'Symah Asim'
tp1418
a(S'100002038390449'
S'Ccaa Kabul'
tp1419
a(S'703177786'
S'Daud Rahim'
tp1420
a(S'100000512865147'
S'\\u0627\\u062a\\u062d\\u0627\\u062f\\u06cc\\u0647 \\u062e\\u0631\\u0627\\u0633\\u0627\\u0646'
tp1421
a(S'713946091'
S'Bashir Sakhawarz'
tp1422
a(S'100000304444480'
S'Omaid M Saeed'
tp1423
a(S'100007102511059'
S'Sapida Sakhi'
tp1424
a(S'100004891207494'
S'Mahnaz Rezaei'
tp1425
a(S'100002725117769'
S'Yama Saad'
tp1426
a(S'650927059'
S'Somira Naz'
tp1427
a(S'100002830922108'
S'Amirkhan Shahzad'
tp1428
a(S'100001164884599'
S'Asif Ali'
tp1429
a(S'548903619'
S'Dastgir Sadeghi'
tp1430
a(S'1431607340'
S'Nazira Karimi'
tp1431
a(S'100000634572545'
S'Wahid Zaland'
tp1432
a(S'100002221678420'
S'Jamaludin Badar'
tp1433
a(S'100002356949004'
S'Masoomeh Kazemi'
tp1434
a(S'100002167770184'
S'Munizha Kishmi'
tp1435
a(S'100002377907111'
S'\\u0627\\u06cc\\u0645\\u0627\\u0646 \\u0628\\u062f\\u062e\\u0634\\u06cc'
tp1436
a(S'100002206506451'
S'\\u0631\\u0647\\u0646\\u0648\\u0631\\u062f \\u0632\\u0631\\u06cc\\u0627\\u0628'
tp1437
a(S'100000200395186'
S'Charles Kwuelum'
tp1438
a(S'1331242171'
S'Zaker Hussain Ershad'
tp1439
a(S'100001397601132'
S'Abdul Ahad Mohammadi'
tp1440
a(S'573489077'
S'Sanam Anbarin'
tp1441
a(S'100000598702968'
S'Haji Hamdullah Hamidi'
tp1442
a(S'1252975078'
S'Ajmal Baluchzada'
tp1443
a(S'1804271800'
S'Rashed Masoumi'
tp1444
a(S'100003553968170'
S'Sayra Shakib'
tp1445
a(S'1481545761'
S'Abdul Majeed Qarluq'
tp1446
a(S'100000137795887'
S'Ahmad Reshad Mongory'
tp1447
a(S'100003793421503'
S'Fawad Nasimi Mohfawad'
tp1448
a(S'100004054972419'
S'\\u0634\\u0627\\u0647\\u067e\\u0648\\u0631 \\u0634\\u0647\\u0631\\u06cc\\u0627\\u0631'
tp1449
a(S'548369444'
S'Mohammad Raouf Ahmadi'
tp1450
a(S'100000754882537'
S'Enayatullah Mohammadi'
tp1451
a(S'690956230'
S'Waheed Omer'
tp1452
a(S'100001974574958'
S'Akhirkhat Noortv'
tp1453
a(S'1112356453'
S'Aziz Guman'
tp1454
a(S'100006895921691'
S'Noorahmad Majroh'
tp1455
a(S'100000527323587'
S'Tokhy Maiwand'
tp1456
a(S'100000365921926'
S'Naghma Shaperai'
tp1457
a(S'100001104866020'
S'Omar Seddiqi'
tp1458
a(S'100000288888661'
S'\\u0633\\u06cc\\u062f \\u0639\\u0644\\u06cc \\u062d\\u0633\\u06cc\\u0646\\u06cc'
tp1459
a(S'100006324841036'
S'Saeed Khariy'
tp1460
a(S'100000811496593'
S'Shoaib Tamim'
tp1461
a(S'100004390837653'
S'\\u0634\\u0647\\u064a\\u062f \\u0635\\u0644\\u062d \\u0627\\u0633\\u062a\\u0627\\u062f \\u0631\\u0628\\u0627\\u0646\\u064a'
tp1462
a(S'100001081883751'
S'EraseTaliban Madrasas'
tp1463
a(S'1037673402'
S'Rafi Ferdous'
tp1464
a(S'100002492029156'
S'Mohammad Nasir Kohdamani'
tp1465
a(S'100003570613835'
S'\\u0689\\u0627\\u06a9\\u062a\\u0631 \\u0634\\u0628\\u0646\\u0645 \\u0634\\u0628\\u0646\\u0645'
tp1466
a(S'1679394041'
S'Web Hosting'
tp1467
a(S'100002653753157'
S'\\u0645\\u0631\\u062f\\u0627\\u0646 \\u0631\\u0627\\u0633\\u062a\\u06cc\\u0646 \\u0627\\u0641\\u063a\\u0627\\u0646'
tp1468
a(S'1645670938'
S'Bridgett Brunea'
tp1469
a(S'100002147172669'
S'Maryam Tanha'
tp1470
a(S'100003109400158'
S'Mohammad Qurban Haqjo'
tp1471
a(S'100002624251965'
S'Ahmed Shakeeb Khairy'
tp1472
a(S'1413792064'
S'Murad Mirza Safdari'
tp1473
a(S'100004156896159'
S'Farhad Majidi'
tp1474
a(S'100002945496151'
S'Ahmad Jawid Salim'
tp1475
a(S'100004244772347'
S'\\u062f\\u0627\\u0646\\u0634\\u062c\\u0648\\u064a\\u0627\\u0646 \\u0628\\u062f\\u062e\\u0634\\u0627\\u0646\\u064a'
tp1476
a(S'100002373181163'
S'\\u0628\\u0627\\u0634\\u06af\\u0627\\u0647 \\u062e\\u0628\\u0631\\u0646\\u06af\\u0627\\u0631\\u0627\\u0646 \\u0645\\u0647\\u0627\\u062c\\u0631'
tp1477
a(S'100000430328074'
S'Zahir Shah'
tp1478
a(S'100005284266055'
S'Asad Yari'
tp1479
a(S'100001249632716'
S'\\u0641\\u0627\\u0631\\u0633\\u06cc \\u0632\\u0628\\u0627\\u0646\\u0627\\u0646 \\u0627\\u0641\\u063a\\u0627\\u0646\\u0633\\u062a\\u0627\\u0646'
tp1480
a(S'100004934474252'
S'Mohammad Rohin Sorkhabi'
tp1481
a(S'1624015169'
S'Larry Jones'
tp1482
a(S'100000485768343'
S'Ahmad Morid'
tp1483
a(S'100000998344146'
S'Sayedmostafa Kazemi'
tp1484
a(S'100000258521406'
S'Sadeqi Poya'
tp1485
a(S'700310900'
S'Zia Moballegh'
tp1486
a(S'1473903515'
S'Ahmad Jawid Shakib'
tp1487
a(S'100000568155085'
S'\\u06cc\\u0648\\u0633\\u0641 \\u0633\\u0627\\u067e\\u06cc'
tp1488
a(S'100002074639964'
S'Baran Ashianaa'
tp1489
a(S'713551872'
S'Emad Abedi'
tp1490
a(S'100000542744349'
S'Naqibullah Bayan'
tp1491
a(S'100000884207334'
S'Assadullah Shour'
tp1492
a(S'100000005158354'
S'Obai Kurdali'
tp1493
a(S'100000420547972'
S'Zhulia Yaftali'
tp1494
a(S'100001642764299'
S'Majid Amiri'
tp1495
a(S'658168971'
S'Howard Zehr'
tp1496
a(S'100002242227865'
S'Atiqullah Bana'
tp1497
a(S'100002012705661'
S'Jailani Kohistani'
tp1498
a(S'543105963'
S'Idrees Zaman'
tp1499
a(S'1033146399'
S'Mohammad Hossain'
tp1500
a(S'1134559804'
S'Ahrar Ramizpoor'
tp1501
a(S'100004550582315'
S'Haqdad Khan'
tp1502
a(S'100004055572668'
S'Afghanistan Embassy Ottawa'
tp1503
a(S'670719190'
S'Farhad Arian'
tp1504
a(S'100000873549727'
S'Fariha Sakhi'
tp1505
a(S'1480333335'
S'Mohammad Zarif'
tp1506
a(S'100005363049210'
S'Abdulrahim Aubi'
tp1507
a(S'100000628017731'
S'Younes Barez'
tp1508
a(S'100001824102621'
S'Naser Uddin Bakhshi'
tp1509
a(S'100001290277516'
S'Human Rights'
tp1510
a(S'100001538335064'
S'Mohammad Sadiq'
tp1511
a(S'100001341125345'
S'Frozan Safiari'
tp1512
a(S'515467073'
S'Constantino Xavier'
tp1513
a(S'100006729277287'
S'Khaleda Khorsand'
tp1514
a(S'549086320'
S'Eng Hasibullah Kamal Rezaie'
tp1515
a(S'100006615403637'
S'Taranom Maryam'
tp1516
a(S'100006336553460'
S'Hossein Alavi'
tp1517
a(S'100001835331482'
S'Hassan Saviz Huseinyar'
tp1518
a(S'100001978655026'
S'Islam Religion'
tp1519
a(S'100002395646572'
S'Royaroya Ahmadi'
tp1520
a(S'100000322024656'
S'Lora Steiner'
tp1521
a(S'100000590442825'
S'Najib Aqdas'
tp1522
a(S'100002140261420'
S'Mohammad Mansour'
tp1523
a(S'100000167140374'
S'Farid Qaderi'
tp1524
a(S'100000470242810'
S'David Mason'
tp1525
a(S'100007845940694'
S'Wali Arian II'
tp1526
a(S'100001985563809'
S'Omar Ha'
tp1527
a(S'100006861071370'
S'Khan Sahib'
tp1528
a(S'571738417'
S'Farid Bahman'
tp1529
a(S'817675532'
S'Amy Rebecca Marsico'
tp1530
a(S'100001015682316'
S'Shaima Khalily'
tp1531
a(S'100004957081855'
S'Abdul Wasi Yaqoobi'
tp1532
a(S'100004280713498'
S'\\u0647\\u0632\\u0627\\u0631\\u0633\\u062a\\u0627\\u0646 \\u0628\\u0627\\u0633\\u062a\\u0627\\u0646'
tp1533
a(S'100000191966411'
S'Rafiullah Niazi'
tp1534
a(S'100001331556416'
S'Jamakhan Nazari'
tp1535
a(S'100002060407720'
S'\\u0645\\u062d\\u0645\\u062f \\u06a9\\u0627\\u0628\\u0644\\u06cc'
tp1536
a(S'100003911972157'
S'Hashim Naziri'
tp1537
a(S'1393368756'
S'Abdul Basir Faizi'
tp1538
a(S'100001830726389'
S'Ahmad Rishad'
tp1539
a(S'1550643639'
S'Ahmad Javeed Shayan'
tp1540
a(S'100005310933405'
S'Shams Zaid'
tp1541
a(S'648076893'
S'A. Munir Baraki'
tp1542
a(S'1481235874'
S'Khanali Radmand'
tp1543
a(S'1476080251'
S'Sabur Sohieb'
tp1544
a(S'11523205'
S'Zab Birang'
tp1545
a(S'100005973452075'
S'Fardin Noor'
tp1546
a(S'100001599070231'
S'Habibi Hameed'
tp1547
a(S'100004369900943'
S'\\u0639\\u0627\\u0628\\u062f\\u06cc\\u0646 \\u0627\\u06a9\\u0628\\u0631\\u06cc'
tp1548
a(S'508276569'
S'Valerie Helbert'
tp1549
a(S'100000640170370'
S'Basir Bita'
tp1550
a(S'1403010606'
S'Nesar Ahmed Bigzad'
tp1551
a(S'514028219'
S'Ali Maisam Nazary'
tp1552
a(S'671032536'
S'Mirwais Balkhi'
tp1553
a(S'100006143111760'
S'Ali Tlc'
tp1554
a(S'100004742981305'
S'Jan Afghanistan'
tp1555
a(S'100000270984362'
S'Ahmadrafi Nadiri'
tp1556
a(S'100006851260107'
S'Ramish Shirzada'
tp1557
a(S'1402554351'
S'Shahpoor Ahmad Shaheq'
tp1558
a(S'100000370165819'
S'Haroon Ranjbar Saidkhili'
tp1559
a(S'100002264688198'
S'Khatera Khorami'
tp1560
a(S'100001283935285'
S'\\u0646\\u062b\\u0627\\u0631\\u0627\\u062d\\u0645\\u062f \\u062d\\u0628\\u06cc\\u0628\\u06cc'
tp1561
a(S'100001033062626'
S'Abad Rahman Reshtin'
tp1562
a(S'1204456301'
S'Ghotai Sahibian'
tp1563
a(S'100000184588222'
S'Qais Tokhy'
tp1564
a(S'604755080'
S'\\u062c\\u0639\\u0641\\u0631 \\u0639\\u0637\\u0627\\u06cc\\u06cc'
tp1565
a(S'100002345050908'
S'Sakhi Muneer'
tp1566
a(S'100005900707511'
S'\\u0627\\u062d\\u0645\\u062f\\u0634\\u06a9\\u06cc\\u0628 \\u0633\\u0627\\u0639\\u06cc'
tp1567
a(S'100006454057778'
S'NisarAhmad Bakhash'
tp1568
a(S'100002085311776'
S'Mena Mangal'
tp1569
a(S'100005636705571'
S'Zaland Sarsabz'
tp1570
a(S'606130064'
S'Khwaga Kakar'
tp1571
a(S'100000831114220'
S'Reza Parsa'
tp1572
a(S'100002393888748'
S'Idawidaningsih Ida'
tp1573
a(S'100003728618527'
S'Bahar Mahwash'
tp1574
a(S'513558071'
S'Manizha Naderi Parand'
tp1575
a(S'1813551143'
S'Rahim Shirinzoy'
tp1576
a(S'100003195999332'
S'Sayed Habib Hussaini'
tp1577
a(S'100007433467797'
S'Baktash Nomyalai'
tp1578
a(S'509016006'
S'Tamim Sarwary'
tp1579
a(S'100003022563980'
S'Sarah Evans'
tp1580
a(S'100000388531094'
S'Javad Sami'
tp1581
a(S'100001541698159'
S'Walishah Shahidy'
tp1582
a(S'1133126662'
S'Hakim Shukoor'
tp1583
a(S'100002123757065'
S'\\u0622\\u0631\\u06cc\\u0646 \\u0641\\u0631'
tp1584
a(S'100001870969952'
S'Saleh Saljuqi'
tp1585
a(S'100001402396334'
S'Hamid Barish'
tp1586
a(S'100001940704327'
S'Ibrahim Husseini'
tp1587
a(S'100001565850725'
S'Homaira Sadeqyar'
tp1588
a(S'1254526913'
S'Enayat Hafiz'
tp1589
a(S'1188630939'
S'Emal Mustafa'
tp1590
a(S'100001814843581'
S'Nur Aqa Sherzai'
tp1591
a(S'100001986625018'
S'Peter Bergen'
tp1592
a(S'100006094057937'
S'\\u0627\\u0633\\u062f\\u0627\\u0644\\u0644\\u0647 \\u0633\\u0639\\u0627\\u062f\\u062a\\u06cc'
tp1593
a(S'100005839989261'
S'Panjsher Parwan'
tp1594
a(S'100002554664218'
S'Mohammad Rafiq Afghan'
tp1595
a(S'100001556894409'
S'\\u0647\\u0627\\u0631\\u0648\\u0646 \\u0631\\u0627\\u0639\\u0648\\u0646'
tp1596
a(S'100004609778124'
S'Mohammad Haidari'
tp1597
a(S'100000950461655'
S'Jawid Falsafi'
tp1598
a(S'100005339201139'
S'Sanaullah Shirzad'
tp1599
a(S'100000228110025'
S'A Khalid Khaliqi'
tp1600
a(S'100000655950481'
S'Monir Ahmadi'
tp1601
a(S'100003841201484'
S'Ltg Murad Ali Murad'
tp1602
a(S'100003120525076'
S'Hamida Haidari'
tp1603
a(S'100000491048375'
S'Arash Barez'
tp1604
a(S'100004935277150'
S'Abdulwakil Onib'
tp1605
a(S'100001988943722'
S'Sahil Akbary'
tp1606
a(S'100005248535898'
S'Khoshi Samadi'
tp1607
a(S'100001668453594'
S'Ahmaddin Noori'
tp1608
a(S'100001927923902'
S'Zee Intezar'
tp1609
a(S'1277439985'
S'Khatera Asahaqzai'
tp1610
a(S'623002261'
S'Wahid Sabet'
tp1611
a(S'100005296028355'
S'Anosha Roman'
tp1612
a(S'1052118773'
S'Wazir Ahmad Khorami'
tp1613
a(S'1678344261'
S'Ahmad Parwiz'
tp1614
a(S'100003590600792'
S'M Nasser Khalid'
tp1615
a(S'100000724677237'
S'Ali Ahmad Jalali'
tp1616
a(S'100001856555092'
S'\\u0633\\u06cc\\u062f \\u0639\\u0644\\u06d2 \\u0628\\u0647\\u0634\\u062a\\u06d2'
tp1617
a(S'712173193'
S'Hamidulla Obaidi'
tp1618
a(S'720441052'
S'Promeet Singh'
tp1619
a(S'100007128331197'
S'Popal Noori'
tp1620
a(S'100003495681968'
S'Voice Sport'
tp1621
a(S'100002346982305'
S'Bahar Tabasom'
tp1622
a(S'100000974209232'
S'Kirijan Jankiri'
tp1623
a(S'100005544693253'
S'\\u062e\\u062f\\u0627\\u062f\\u0627\\u062f \\u0639\\u0631\\u0641\\u0627\\u0646\\u06cc \\u062f\\u0627\\u06cc\\u06a9\\u0646\\u062f\\u06cc'
tp1624
a(S'100003697911417'
S'Bahador Shah'
tp1625
a(S'100001989012285'
S'Bahramudin Nabi'
tp1626
a(S'1297940075'
S'Nasrin Tarin'
tp1627
a(S'100001043917739'
S'Shapour Saad'
tp1628
a(S'100001578095163'
S'Eng Jawad Moradi'
tp1629
a(S'1600370458'
S'Mohammad Daud Daud'
tp1630
a(S'100001640429223'
S'Abdulbari Jahane'
tp1631
a(S'100001476145453'
S'Baqee Khalil'
tp1632
a(S'1808326399'
S'Wahid Payman'
tp1633
a(S'100002440359462'
S'Farshad Jooya'
tp1634
a(S'100003068787356'
S'Azat Ullah'
tp1635
a(S'686977716'
S'Mohommad Amin Vakili'
tp1636
a(S'100001821281138'
S'Rafi Farooq'
tp1637
a(S'100003683702005'
S'Afghan Uranim Khazayen'
tp1638
a(S'100003248205425'
S'Ajan Omid'
tp1639
a(S'1170544654'
S'Kanishka Malikzada'
tp1640
a(S'539137416'
S'Navid Ariaei'
tp1641
a(S'100003683054106'
S'Qurban Bake'
tp1642
a(S'679257559'
S'Helen Mo'
tp1643
a(S'100002837976435'
S'Nasher Shoja'
tp1644
a(S'5409300'
S'Khalid Nadiri'
tp1645
a(S'100001908374161'
S'Khorshed Ahmad'
tp1646
a(S'100002468880353'
S'Nilloofar Fatimi'
tp1647
a(S'757339140'
S'Scott Hutchinson'
tp1648
a(S'817322941'
S'Andrea Csanadi'
tp1649
a(S'100002946077163'
S'Mohammad Dawood Naimi'
tp1650
a(S'100001828096803'
S'Mohammad Aslim Kuhnaward'
tp1651
a(S'1308642756'
S'Liah Jawad'
tp1652
a(S'100001303008607'
S'Ismail Jamshedy'
tp1653
a(S'100002311231966'
S'Mustafa Aminzada'
tp1654
a(S'1666630044'
S'Atta Noor'
tp1655
a(S'100007179133785'
S'Hazrat Umar'
tp1656
a(S'100002004227227'
S'\\u0622\\u0631\\u0634 \\u0632\\u0627\\u0648\\u0644\\u06cc'
tp1657
a(S'100000883906670'
S'Din Noori'
tp1658
a(S'100001843081083'
S'Haley Noorzai'
tp1659
a(S'529955647'
S'Ussal Sahbaz'
tp1660
a(S'711440908'
S'Seddiq Rahpoe Tarzi'
tp1661
a(S'554882957'
S'Lailuma Sadid'
tp1662
a(S'1233120355'
S'Nata Orisma'
tp1663
a(S'100004930501033'
S'Hamid Dawoodzai'
tp1664
a(S'1140214756'
S'Sami Mahdi'
tp1665
a(S'100003577295739'
S'Qais Sapand'
tp1666
a(S'100002392806669'
S'Masood Sakhizada'
tp1667
a(S'100001400545276'
S'Mohammad Sharif Saiidi'
tp1668
a(S'583529861'
S'Gwendolyn Myers'
tp1669
a(S'100002179261310'
S'Zahra Mazari'
tp1670
a(S'1279437190'
S'Shahnaz Hakim'
tp1671
a(S'100002847735007'
S'Abdul Rasul Shikeb'
tp1672
a(S'1505824784'
S'Nasiruddin Dareez'
tp1673
a(S'603403220'
S'Seayed Zabihullah'
tp1674
a(S'100000977360225'
S'\\u063a\\u0648\\u0631\\u0628\\u0646\\u062f\\u06cc \\u0646\\u0698\\u0627\\u062f'
tp1675
a(S'644302456'
S'Ramin Ahmadyar'
tp1676
a(S'100004592041081'
S'\\u0645\\u0639\\u0631\\u0648\\u0641 \\u0628\\u06cc\\u0627\\u0646\\u06af\\u0631'
tp1677
a(S'100004628433914'
S'Abodin Poia'
tp1678
a(S'516084793'
S'Valid Shahabi'
tp1679
a(S'1271888308'
S'Naeem Ayubzada'
tp1680
a(S'100002563158469'
S'\\u0633\\u067e\\u0631\\u0641\\u0648\\u0644\\u0627\\u062f\\u06cc\\u0646 \\u062f\\u0631\\u0645\\u0642\\u0627\\u0628\\u0644 \\u0645\\u062a\\u062c\\u0627\\u0648\\u0632\\u06cc\\u0646'
tp1681
a(S'100004053921786'
S'Jawid Shabdiz'
tp1682
a(S'100002459683509'
S'Arifa Paikar'
tp1683
a(S'100001077115078'
S'Ahmad Farhad Ghafory'
tp1684
a(S'100000214044747'
S'Wakil Ehsass'
tp1685
a(S'645087337'
S'Farzad Lameh'
tp1686
a(S'100004079872384'
S'Sara Hakimyar'
tp1687
a(S'1712361687'
S'Afg Military'
tp1688
a(S'100000852546418'
S'Mazdak Farid'
tp1689
a(S'680323706'
S'Sedikullah Shubab'
tp1690
a(S'734977668'
S'Malek Sitez'
tp1691
a(S'100000209990296'
S'Ajmal Rauf'
tp1692
a(S'1028751711'
S'Qasem Ramishgar'
tp1693
a(S'100000332072212'
S'Niamatullah Hamdard'
tp1694
a(S'100002425690139'
S'\\u0641\\u0631\\u0647\\u0627\\u062f \\u0627\\u06a9\\u0628\\u0631 \\u0637\\u0631\\u0641\\u062f\\u0627\\u0631\\u0627\\u0646'
tp1695
a(S'100003327032132'
S'Zahiroddin Saad'
tp1696
a(S'100003396696013'
S'Hamed Ahamd'
tp1697
a(S'100004044385732'
S'Zamanuddin Fakhri'
tp1698
a(S'100000656391697'
S'Asad Hakimi'
tp1699
a(S'100003009286160'
S'Ahmad Sohrab Afghanyar'
tp1700
a(S'1089361592'
S'Fawad Lameh'
tp1701
a(S'100001542759145'
S'\\u0627\\u062d\\u0633\\u0627\\u0646 \\u0627\\u0644\\u0644\\u0647 \\u0627\\u062f\\u06cc\\u0628'
tp1702
a(S'100002424973495'
S'Nawab Nawabi'
tp1703
a(S'100005216524965'
S'Farida Hashemi'
tp1704
a(S'100000405661174'
S'Mohammad Rafiq Shahir'
tp1705
a(S'100003590637852'
S'\\u067e\\u0647\\u0644\\u0648\\u0627\\u0646 \\u0633\\u06cc\\u0627\\u0647 \\u067e\\u0648\\u0634'
tp1706
a(S'1297642531'
S'Hamdard Ghafoorey'
tp1707
a(S'100000862828307'
S'Harris Mir'
tp1708
a(S'100000853987667'
S'Ahmad Abdullah Mustafa'
tp1709
a(S'100001893225691'
S'Ehsan Qaane'
tp1710
a(S'100001695987534'
S'Farhad Quraishi'
tp1711
a(S'100002827460416'
S'Abdul Waheed Khalili'
tp1712
a(S'100000954322023'
S'\\u0633\\u06cc\\u062f \\u062d\\u0628\\u06cc\\u0628 \\u0633\\u0627\\u062f\\u0627\\u062a \\u062d\\u0633\\u06cc\\u0646\\u06cc'
tp1713
a(S'100000021106923'
S'Rooholamin Amini'
tp1714
a(S'100000041510098'
S'Qahar Asi'
tp1715
a(S'100000830582382'
S'Qaasim Khaan Watan Duste'
tp1716
a(S'100001805155374'
S'Samira Popalzai'
tp1717
a(S'100000092616828'
S'Arif Farahmand'
tp1718
a(S'100001901283820'
S'\\u0644\\u0637\\u064a\\u0641\\u0647 \\u0639\\u0632\\u064a\\u0632\\u064a'
tp1719
a(S'669325806'
S'Yama Torabi'
tp1720
a(S'1610447555'
S'Homayoon Hohner'
tp1721
a(S'100000365090568'
S'RnEe'
tp1722
a(S'100007735780485'
S'Latif Nooryar'
tp1723
a(S'1175090173'
S'Homaira Rahimi'
tp1724
a(S'100003655797252'
S'\\u0102\\u00fd\\u0171b \\u0164\\u0105j\\u012f\\u0137'
tp1725
a(S'1538171519'
S'Sana Yar'
tp1726
a(S'100001377893600'
S'Samir Ezedyar Aslami'
tp1727
a(S'100005801199326'
S'Mustafa Haidari'
tp1728
a(S'1116784674'
S'Mirwais Arya'
tp1729
a(S'799973624'
S'Najieh Gholami'
tp1730
a(S'100000687824569'
S'Yunus Akhtar'
tp1731
a(S'100004348752488'
S'Simin Barakzai'
tp1732
a(S'100003277794487'
S'\\u0634\\u0627\\u0647 \\u0622\\u0642\\u0627 \\u0633\\u0627\\u062f\\u0627\\u062a'
tp1733
a(S'1505461861'
S'Mahmoud Saikal'
tp1734
a(S'1386638120'
S'Ema Miroslava Billings'
tp1735
a(S'100002096186189'
S'Yorish Hakimyar'
tp1736
a(S'100002219289824'
S'B\\u1eb7\\u015f\\u015f T\\u00e3\\u0159\\u0259q'
tp1737
a(S'100001842489891'
S'Din Mohammad Adil'
tp1738
a(S'100000104914551'
S'Hamid Haideri'
tp1739
a(S'1615106245'
S'Ashafea Mohammed Osman'
tp1740
a(S'100003275230591'
S'\\u067e\\u0627\\u06cc\\u06af\\u0627\\u0647 \\u0642\\u0627\\u0646\\u0648\\u0646\\u06cc'
tp1741
a(S'100000255614572'
S'Ustad Berang Kohdamani'
tp1742
a(S'100005295997632'
S'Anti-Pakistan Anti-Pakistan Anti-Pakistan'
tp1743
a(S'536519090'
S'Farid Ahmad Qarizadah'
tp1744
a(S'100007069356878'
S'Shah Mukhtar'
tp1745
a(S'100002082136941'
S'Ashna Shafaq'
tp1746
a(S'554441660'
S'Mohammad Wais Khetab'
tp1747
a(S'649952803'
S'Patrick M. Campbell'
tp1748
a(S'100003022822368'
S'Ariana Mobarez'
tp1749
a(S'725791948'
S'Omaid Sharifi'
tp1750
asS'id'
p1751
S'1283275478'
p1752
sS'name'
p1753
S'Farshid Hakimyar'
p1754
s.