(dp1
S'friends'
p2
(lp3
(S'1291413837'
S'Rahul Dhal Rd'
tp4
a(S'100006734207874'
S'Smita Khandelwal'
tp5
a(S'100006286806304'
S'Ayesha Sharma'
tp6
a(S'100006829710027'
S'Prabhat Kumar'
tp7
a(S'100006355868430'
S'Sibani Sahoo'
tp8
asS'id'
p9
S'1291413837'
p10
sS'name'
p11
S'Rahul Dhal Rd'
p12
s.