(dp1
S'friends'
p2
(lp3
(S'100004542159505'
S'Manish Kumar'
tp4
a(S'100007193113217'
S'Aditya Jain'
tp5
a(S'1299395924'
S'Neeraja Raju'
tp6
a(S'100007012593998'
S'Ram Prakash'
tp7
a(S'100005150292130'
S'Ayush Sharma'
tp8
a(S'100004660238628'
S'Abhishek Srivastava'
tp9
a(S'100004872723730'
S'Dhananjaya Kumar'
tp10
asS'id'
p11
S'1299395924'
p12
sS'name'
p13
S'Neeraja Raju'
p14
s.