(dp1
S'friends'
p2
(lp3
(S'1312160542'
S'Mushafiq Hassan'
tp4
a(S'100006805231965'
S'Saleem Paray'
tp5
a(S'100005628161372'
S'John Mohammad'
tp6
asS'id'
p7
S'1312160542'
p8
sS'name'
p9
S'Mushafiq Hassan'
p10
s.