(dp1
S'friends'
p2
(lp3
(S'1025435646'
S'Wakman Wakmann'
tp4
a(S'100001592220441'
S'Remy Bouyin'
tp5
a(S'100003085894307'
S'ShaShank Rawat'
tp6
a(S'100001674534991'
S'Nspecial Malik AbdulRazak Awan'
tp7
a(S'100002925423558'
S'Muchammad Muchyiddin'
tp8
a(S'100001744751215'
S'Mario De Lucia Oca\\u00f1a'
tp9
a(S'100001473306572'
S'Aysha Khan'
tp10
a(S'100002319892915'
S'Bryan Gonzalez Mena'
tp11
a(S'100003157117735'
S'Aqohxie Mico'
tp12
a(S'100004019603519'
S'Luis Angel'
tp13
a(S'100000082292423'
S'Barbara Sutter'
tp14
a(S'1279415219'
S'Mohammad Nasser Musadeq'
tp15
a(S'100001654731475'
S'\\u0627\\u062d\\u0645\\u062f \\u0635\\u0628\\u0631\\u064a'
tp16
a(S'100000738378823'
S'Jessica Wentter'
tp17
a(S'100001730870342'
S'Rahat Sair'
tp18
a(S'100001113572517'
S'Joseph Stutzman'
tp19
a(S'100004521613755'
S'Markiitos Db'
tp20
a(S'100005487523536'
S'Jerry Thomas'
tp21
a(S'100007272404239'
S'Maiwand Badri'
tp22
a(S'100001804000651'
S'Muhammad Afaq'
tp23
a(S'100001054561126'
S'Toofan Khan'
tp24
a(S'100000202819463'
S'Malik Ayaz Awan'
tp25
a(S'100001584669537'
S'Bilawal Khan'
tp26
a(S'100003863615163'
S'\\u0633\\u0644\\u0645\\u0627\\u0646 \\u0627\\u0644\\u0645\\u0633\\u062a\\u062d\\u064a\\u0644'
tp27
a(S'100005007643484'
S'Anthonydiaz Caldelderon'
tp28
a(S'100004446481775'
S'Jamil Rahman Shahab'
tp29
a(S'100007600326872'
S'Muhammad Ahmed Sahil Khan'
tp30
a(S'1840560121'
S'Najeebullah Safi'
tp31
a(S'100000855388181'
S'Jorge Romer'
tp32
a(S'100001386886759'
S'Mrr Shah'
tp33
a(S'100000314309328'
S'Nabila Arzo'
tp34
a(S'100002041764080'
S'Noorullah Ahmad Yar'
tp35
a(S'100002734781086'
S'Cristian Castro'
tp36
a(S'1658844500'
S'SadeeqUllah Khan'
tp37
a(S'100001777307609'
S'Arcro Mayes Acolt'
tp38
a(S'100007697293096'
S'Usama Rafique'
tp39
a(S'100004422700690'
S'Ariana Afghan Airlines'
tp40
a(S'100000881813901'
S'\\u0643\\u0627\\u0628\\u062a\\u0646 \\u0639\\u0644\\u064a \\u0627\\u0644\\u0628\\u0643\\u064a\\u0631'
tp41
a(S'100002543546175'
S'Jeena Arezo'
tp42
a(S'100003894218070'
S'Jose Luis Zaragoza Garcia'
tp43
a(S'100001686187071'
S'Waleed Ahmad'
tp44
a(S'100004505743143'
S'Haroon Wardak'
tp45
a(S'100002405601475'
S'Xeeshan Ali Sher Mohmand'
tp46
a(S'100003891220845'
S'James Cartagena'
tp47
a(S'100000977627474'
S'Alejo Perdomo Narvaez'
tp48
a(S'100000629196548'
S'Zakir Miakhail'
tp49
a(S'100003156690867'
S'Carlos David Velasquez'
tp50
a(S'100002519823772'
S'Marwane Benadada Rajawi'
tp51
a(S'100001799848217'
S'Adil Afridi'
tp52
a(S'100002257464848'
S'Estarlin Castillo'
tp53
a(S'100000999041317'
p54
S'Omidali Wardak'
tp55
a(S'100003078885796'
S'Alex Url Mendoza'
tp56
a(S'1345268345'
S'Edwin Cahatol Espelita Jr.'
tp57
a(S'100000703345745'
S'Ismael Alfonso Zambrano Tovar'
tp58
a(S'100003043640397'
S'Tu Chikitoh Record'
tp59
a(S'100007851393110'
S'Stub Born Christina'
tp60
a(S'100000080893930'
S'Molly Adams'
tp61
a(S'1399544517'
S'Raoul Bloem'
tp62
a(S'100002809700604'
S'Wali Shadab'
tp63
a(S'100000617735109'
S'Muhammad Bilal'
tp64
a(S'1215998751'
S'Ashuqullah Halim'
tp65
a(S'100000515593325'
S'Qaiser Ali'
tp66
a(S'1405586129'
S'Waheed Zadran'
tp67
a(S'100001797204503'
S'Aena Khan'
tp68
a(S'100006456415706'
S'Sharif Amarkhail'
tp69
a(S'100001414121201'
S'Matias Ignacio Verdejo Ortega'
tp70
a(S'100000636490491'
S'Benben Ybanez'
tp71
a(S'100002085311776'
p72
S'Mena Mangal'
tp73
a(S'100002704377060'
S'Salhe Elkarfy'
tp74
a(S'100000570940970'
S'Amr Elshaarawy'
tp75
a(S'100001465820923'
S'Waris Kakar'
tp76
a(S'100002278757429'
S'J-m Mousse Gravouil'
tp77
a(S'100003016038769'
S'Alejandro D\\u00edaz'
tp78
a(S'100004080579516'
S'Bruno Belem Sousa'
tp79
a(S'100002385777564'
S'Bence Hajzer'
tp80
a(S'100001411327757'
S'Zia Rahimee'
tp81
a(S'100000709533407'
S'Stanik Puma Swa\\u010dik'
tp82
a(S'100000719059533'
S'\\u0410\\u043b\\u0435\\u043a\\u0441\\u0435\\u0439 \\u041c\\u0438\\u0440\\u043e\\u043d\\u043e\\u0432'
tp83
a(S'100001865757532'
S'Francisco Gomez Tagle'
tp84
a(S'100001137343183'
S'Ibrahim Zabibah'
tp85
a(S'100004925826962'
S'Emir Adrian Apas'
tp86
a(S'100001341777258'
S'Matthias Katt'
tp87
a(S'100001995926328'
S'Princess Naila'
tp88
a(S'100000461534116'
S'Waleed Ghaznavi'
tp89
a(S'100003519808933'
S'Saif Urahman Shafaq'
tp90
a(S'100007587964771'
S'Nassratullah Masood'
tp91
a(S'100002523527493'
S'Ezequiel Crema'
tp92
a(S'100000117288946'
S'Ezza Mng'
tp93
a(S'721538519'
S'Kanishka Panjshiri'
tp94
a(S'100001371475114'
S'Amir Muhaimin'
tp95
a(S'100001500647691'
S'Starlin Manuel'
tp96
a(S'100003140770293'
S'No\\u00e9 Martinez'
tp97
a(S'100000442055465'
S'Kevin Hurel'
tp98
a(S'100003377044530'
S'Shafi Zerokwall Zadran'
tp99
a(S'100001691273393'
S'Basim Zadran'
tp100
a(S'100001819503969'
S'Hameedullah Khan'
tp101
a(S'100002371311553'
S'Aldo Tosqui'
tp102
a(S'100000157773639'
S'SekiczekCz Sekiczek'
tp103
a(S'100003154970656'
S'Afero Odrzutowiec'
tp104
a(S'100002102239130'
S'David Nu\\u00f1ez Montanaro'
tp105
a(S'100004659728201'
S'Martin Perez'
tp106
a(S'100006994680329'
S'Haji Shakir Ullah'
tp107
a(S'100000803698111'
S'Nosheen Alizey'
tp108
a(S'100002503144361'
S'Alex Zamora'
tp109
a(S'100001321450607'
p110
S'Jamaluddin Rezai'
tp111
a(S'100001449263855'
S'Abdullah Hamed Abdealftah'
tp112
a(S'100000481748722'
S'Arsalan Jamil'
tp113
a(S'100001842277489'
S'Usman Zadran'
tp114
a(S'100001292313053'
S'Chico Mannmx'
tp115
a(S'100000038430973'
S'Hamidullah Niazi'
tp116
a(S'1023734978'
S'Kashif Feat Kashi'
tp117
a(S'100001727373573'
S'Liolio Lio'
tp118
a(S'100000572299479'
S'Omaid Hope Zadran'
tp119
a(S'100002802927560'
S'Andres VM'
tp120
a(S'100002427041723'
S'Fausto Bj'
tp121
a(S'100003577385793'
S'Paul Marcantonio'
tp122
a(S'100000178757635'
S'Amar Doglod'
tp123
a(S'100002770857758'
S'Eddy Luis Gonzales Fernandes'
tp124
a(S'100001968905609'
S'Miguel Angel Perea Pera'
tp125
a(S'100000947308652'
S'Mujeebullah Hamidi'
tp126
asS'id'
p127
S'1329519813'
p128
sS'name'
p129
S'Hope Umeed Zadran'
p130
s.