(dp1
S'friends'
p2
(lp3
(S'1215910665'
S'Samridhi Aggarwal'
tp4
a(S'100000963394457'
S'Tushar Kalra'
tp5
a(S'1249982927'
S'Saikruth Rao'
tp6
a(S'100000214646443'
S'Kritika Khanna'
tp7
a(S'100000074817754'
S'Chhavi Joshi'
tp8
a(S'1760274583'
S'Meher Prasher'
tp9
a(S'555027970'
S'Aishwarya Shah'
tp10
a(S'1580043892'
S'Nikhil Malik'
tp11
a(S'517783419'
S'Aatish Pradhan'
tp12
a(S'1249520381'
S'Senaara Ailawadi'
tp13
a(S'589032406'
S'Roli Ramchandani'
tp14
a(S'1148696503'
S'Abhinav Dhiman'
tp15
a(S'1674772992'
S'Aditya Ani Menon'
tp16
a(S'691691186'
S'Samraat Sharma'
tp17
a(S'100000281381639'
S'Megda Bharadwaj'
tp18
a(S'100000152396490'
S'Pranshu Singh Yadav'
tp19
a(S'697297291'
S'Radhika Nair'
tp20
a(S'599289111'
S'Sohil Lamba'
tp21
a(S'1265140146'
S'Tanya Kundu'
tp22
a(S'532742043'
S'Anumita Bhattacharyya'
tp23
a(S'100000673514434'
S'Varnika Khandelwal'
tp24
a(S'100000027585222'
S'Malaika Nangia'
tp25
a(S'1209661496'
S'Shubham Senger'
tp26
a(S'511624386'
S'Vyom Sati'
tp27
a(S'1041122316'
S'Pallavi Arora'
tp28
a(S'1563997220'
S'Anahita Jhunja'
tp29
a(S'595511556'
S'Yogi Ramchandani'
tp30
a(S'100002305207054'
S'Shimali Mishra'
tp31
a(S'100000674641185'
S'Aditya Mudgal'
tp32
a(S'603045287'
S'Amyt Kumar'
tp33
a(S'533352117'
S'Deep Zabakh'
tp34
a(S'100000206071710'
S'Sattam Thakur'
tp35
a(S'1418211986'
S'Karan Wahi'
tp36
a(S'1704619804'
S'Raunaq Khanna'
tp37
a(S'1734579726'
S'Deepanshu Juneja'
tp38
a(S'714510612'
S'Siddhant Sharma'
tp39
a(S'100001546765760'
S'Shefali Lohia'
tp40
a(S'1203962138'
S'Vanya Pasricha'
tp41
a(S'1001316862'
p42
S'Karanvir Singh'
tp43
a(S'1195436728'
S'Uday Reacher'
tp44
a(S'100001091277442'
S'Ishani Banerjee'
tp45
a(S'100000455541398'
S'Vikrant Raghav'
tp46
a(S'564473338'
S'Poorva Nangia'
tp47
a(S'525030614'
S'Aayush Khare'
tp48
a(S'639683015'
S'Shivam Jha'
tp49
a(S'100001046045384'
S'Deepali Goyal'
tp50
a(S'1431082255'
S'Jessica Walia'
tp51
a(S'1038778307'
S'Priya Yadav'
tp52
a(S'620887802'
S'Yash Choubey'
tp53
a(S'1058206833'
S'Avnish Rana'
tp54
a(S'1536731203'
S'Divanshi Gupta'
tp55
a(S'100001957077069'
S'Rittik Sharma'
tp56
a(S'1373889308'
S'Ashish Verma'
tp57
a(S'100000320564138'
S'Divyaanshu Jain'
tp58
a(S'570206193'
S'Nikoletta Tripodi Dosani'
tp59
a(S'523514048'
S'Samridh Kapoor'
tp60
a(S'100000981898948'
S'Sanjeev Singh'
tp61
a(S'581616430'
S'Ainesh Ahluwalia'
tp62
a(S'610626907'
S'Soven Trehan'
tp63
a(S'612785549'
S'Kirthana Singh'
tp64
a(S'609407331'
S'Siddharth Gupta'
tp65
a(S'100000320962105'
S'Ishan Dhar'
tp66
a(S'100000141096198'
S'Sanjoli Sirohi'
tp67
a(S'547571325'
S'Saurabh Joshi'
tp68
a(S'633367667'
S'Nishant Gauttam'
tp69
a(S'100002150031293'
S'Palak Bhatia'
tp70
a(S'1485117921'
S'Daksh Sharma'
tp71
a(S'580350063'
S'Aashian Bieber Stark'
tp72
a(S'100000141653106'
S'Punika Mangla'
tp73
a(S'1805603870'
S'Tanmay Sharma'
tp74
a(S'597857776'
S'Mohit Dudeja'
tp75
a(S'547067957'
S'Shauryaveer Singh Tomar'
tp76
a(S'1168004229'
S'Manya Choudhary'
tp77
a(S'1573689227'
S'Meghal Karki'
tp78
a(S'100000549770470'
S'Vinayak Prasad'
tp79
a(S'636556048'
S'Anuj Datta'
tp80
a(S'100000550191493'
S'Shifa Iqbal'
tp81
a(S'1778711583'
S'Bani Singh'
tp82
a(S'645533267'
S'Lakshya Vohra'
tp83
a(S'1575387342'
S'Ayush Magow'
tp84
a(S'100001584213132'
S'Mohit Yadav'
tp85
a(S'1042945244'
S'Akshay Verma'
tp86
a(S'625096071'
S'Vedangini Singh'
tp87
a(S'100000800822744'
S'Aditya Surendhra'
tp88
a(S'555694883'
S'Rishaal Rajan'
tp89
a(S'1238368418'
S'Mehnaz Khan'
tp90
a(S'1575186048'
S'Pragya Gupta'
tp91
a(S'1738766429'
S'Vineet Dixit'
tp92
a(S'100000653528378'
S'Kirti Channan'
tp93
a(S'100000026314320'
S'Chetanya Kandhari'
tp94
a(S'1683465051'
S'Vidit Soni'
tp95
a(S'1518398797'
S'Shubham Sharma'
tp96
a(S'100001807432068'
S'Shreya Ak'
tp97
a(S'100000023787606'
S'Sonal Sahni'
tp98
a(S'100001059493651'
S'Shuvoneel Chakraborty'
tp99
a(S'100000069663640'
S'Hargun Kohli'
tp100
a(S'100000009664376'
S'Shantanu Lakhotia'
tp101
a(S'100000436129976'
S'Jaipreet Singh Gill'
tp102
a(S'533163953'
S'Aditya Jha'
tp103
asS'id'
p104
S'1364836229'
p105
sS'name'
p106
S'Shivya Gupta'
p107
s.