(dp1
S'friends'
p2
(lp3
(S'1009249737'
S'Siddhant Pusdekar'
tp4
a(S'570866995'
S'Pratik Hole'
tp5
a(S'1010452970'
S'Zeco Keepdriftingfun Barretto'
tp6
a(S'100001852596465'
p7
S'Sanket Tingre'
tp8
a(S'1383797153'
S'Sharad Sanghvi'
tp9
a(S'595687921'
S'Craig Andre Pereira'
tp10
a(S'1297380889'
S'Aditi Gaikwad'
tp11
a(S'1527555412'
S'Yamini Sukhwani'
tp12
a(S'1376394143'
S'Danish Navodia'
tp13
a(S'1661656533'
S'Shreya Bhosale'
tp14
a(S'1082493891'
S'Ishan Hendre'
tp15
a(S'621824750'
S'Danisha Merchant'
tp16
a(S'1387100224'
S'Aaron Fernandes'
tp17
a(S'545674891'
S'Ken Rodrigues'
tp18
a(S'739384406'
S'Archit Khandeparkar'
tp19
a(S'1439517544'
S'Ishaan Bhataiya'
tp20
a(S'1640486375'
S'Kshitij Vedak'
tp21
a(S'1154533967'
S'Nihad Jivani'
tp22
a(S'1300357932'
S'Karan Dhere'
tp23
a(S'1439950284'
S'Amal Dev'
tp24
a(S'1118090068'
S'Zubair Mulani'
tp25
a(S'680009454'
S'Rohan Gaikwad'
tp26
a(S'100000155762075'
S'Dashmeet Singh Vohra'
tp27
a(S'1086338675'
S'Bilal Khan'
tp28
a(S'595932971'
S'Brendon DeSouza'
tp29
a(S'1601491197'
S'Azhar Poonawala'
tp30
a(S'845590144'
S'Taushik Sidhu'
tp31
a(S'1343422377'
S'Nihil Parmar'
tp32
a(S'1314224569'
S'Arnold Fernandes'
tp33
a(S'797065155'
S'Vikram Brid'
tp34
a(S'1200017226'
S'Riya Potdar'
tp35
a(S'1193155404'
S"Desiree D'sa"
tp36
a(S'1288797527'
S'Umair Shaikh'
tp37
a(S'1491737713'
S'Raian Suratia'
tp38
a(S'1655979659'
S'Collin Rodricks'
tp39
a(S'1579132623'
S'Tanmay Singh Madan'
tp40
a(S'665931450'
S'Aishwarya Shah'
tp41
a(S'1325753131'
S'Henna Raisinghani'
tp42
a(S'679329140'
S'Krishna Jain'
tp43
a(S'1571694201'
S'Arvin Tam'
tp44
a(S'1304074766'
S'Harsh Basur'
tp45
a(S'537648219'
S'Gaurav Gupta \\u2729'
tp46
a(S'100001598409270'
S'Daniel Seymour'
tp47
a(S'1120007362'
S'Avani Bhagwat'
tp48
a(S'1604027871'
S'Aman Wasu'
tp49
a(S'1611776704'
S'Hillary Rodrigues'
tp50
a(S'690991364'
S'Neal Shah'
tp51
a(S'1168062780'
S'Yash Chavda'
tp52
a(S'1319004669'
S'Daryl Roz\\u00e6rio'
tp53
a(S'1382584273'
S'Moiz Bandukwala'
tp54
a(S'615220295'
S'Jugal Parmar'
tp55
a(S'1421117236'
S'Jason Monteiro'
tp56
a(S'762705295'
S'Aaron Aston'
tp57
a(S'674914090'
S'Rehan Hiroli'
tp58
a(S'507318899'
S'Ketan Oswal'
tp59
a(S'1267698161'
S'Astaad Irani'
tp60
a(S'100000219213269'
S'Rohan Rahul Dhole Patil'
tp61
a(S'1072399411'
S"Varun D'cruz"
tp62
a(S'779120911'
S'Viren Kochhar'
tp63
a(S'1700098787'
S'Prateik Kalsekar'
tp64
a(S'1411060721'
S'Jason Gonsalves'
tp65
a(S'713169868'
S"Evelyn D'Cruz"
tp66
a(S'1581499905'
S'Agampal Dhupar'
tp67
a(S'1329344709'
S'Simran Mehta'
tp68
a(S'1531429277'
S'Ashlyn Fernandes'
tp69
a(S'1362938450'
S'Shahid Attar'
tp70
a(S'1504944482'
S'Angad Bashani'
tp71
a(S'1053356999'
S'Arthur Vieyra'
tp72
a(S'1666518386'
S'Danish Shaikh'
tp73
a(S'1016265789'
S'Arshad Shaikh'
tp74
a(S'586049876'
S'Alex DeSouza'
tp75
a(S'100000090443525'
S'Kiran Satav'
tp76
a(S'556029890'
S'Chirago Ahuja'
tp77
a(S'606018216'
S'Josh DSouza'
tp78
a(S'689476818'
S'Huzefa Hakim'
tp79
a(S'587244433'
S'Sangram Lonkar'
tp80
a(S'580425537'
S'Bhagi Bugz'
tp81
a(S'1436781467'
S'Nikita Dsilva'
tp82
a(S'843622969'
S'Qusai Indo'
tp83
a(S'1393760838'
S'Sunit Sanghvi'
tp84
a(S'1589951087'
S'Aamir Shaikh Blaugrana'
tp85
a(S'1057020787'
S'Kavit Surana'
tp86
a(S'742959947'
S'Jay Patel'
tp87
a(S'1424075495'
S'Tanya Batra'
tp88
a(S'1686708428'
S'Akshay Pinjani'
tp89
a(S'1267201767'
S'Komal Soneji'
tp90
a(S'1675765048'
S'Aniket Koditkar'
tp91
a(S'1129184379'
S'Kartik Sethi'
tp92
a(S'1124751411'
S'Tanishq Pereira'
tp93
a(S'1684972298'
S'Fabian Godfrey'
tp94
a(S'1201887425'
S'Everest Lobo'
tp95
a(S'537792078'
S"Sean D'souza"
tp96
a(S'1710750965'
S'Valerian Dsouza'
tp97
a(S'531994656'
S'Mohammed Ali Chherawalla'
tp98
a(S'1068544155'
S'Ryan Jackie Dias'
tp99
a(S'1662617579'
S'Akshay Pathak'
tp100
a(S'596940954'
S"Ryan D'souza"
tp101
a(S'785068477'
S'Nikhil Jacob'
tp102
a(S'1680774745'
S'Rishabh Fredy Sawant'
tp103
a(S'585254363'
S'Raunak Anthony'
tp104
asS'id'
p105
S'1383266001'
p106
sS'name'
p107
S'Mark Borges'
p108
s.