(dp1
S'friends'
p2
(lp3
(S'100004632401307'
S'Mamta Rani'
tp4
a(S'1392237664'
S'Ashima Walia'
tp5
a(S'100005138351090'
S'Rohan Raj'
tp6
a(S'596212003'
S'Sudhir Kumar'
tp7
a(S'100003601375974'
S'Ashish Kumar'
tp8
a(S'100007512943253'
S'Manish Raj'
tp9
asS'id'
p10
S'1392237664'
p11
sS'name'
p12
S'Ashima Walia'
p13
s.