(dp1
S'friends'
p2
(lp3
(S'1295544473'
S'Ali Khan'
tp4
a(S'100000743979947'
S'Utsarinee Apoorva'
tp5
a(S'1015253578'
S'Ritvik Sultania'
tp6
a(S'100000249245904'
S'Shivraj Singh'
tp7
a(S'100000018450841'
S'Anhad Trehan'
tp8
a(S'629043764'
S'Minal Vashisht'
tp9
a(S'1401027203'
S'Sahejdeep Singh Mallhi'
tp10
a(S'761917271'
S'Yash Agarwal'
tp11
a(S'100000668719572'
S'Pranav Chadha'
tp12
a(S'1377891380'
S'Richa Jain'
tp13
a(S'624806095'
S'Shreevats Swarup'
tp14
a(S'1037124688'
S'Gaurav Bidhuri'
tp15
a(S'602867493'
S'Pranay Dawar'
tp16
a(S'100004849664324'
S'Shashank Srivastava'
tp17
a(S'1478236695'
S'Vinay Bhatia'
tp18
a(S'100001344306986'
S'Aditya Pahwa'
tp19
a(S'1485613734'
S'Anirudh Attri'
tp20
a(S'100000345316233'
S'Anish Vaibhav'
tp21
a(S'100000242570169'
S'Harnoor Singh'
tp22
a(S'100004536332380'
S'Aishwarya Dave'
tp23
a(S'100000930976030'
S'Rahul Bari'
tp24
a(S'100001106948576'
S'Yash Swarup Agarwal'
tp25
a(S'100000183614985'
S'Muzammil Hussain'
tp26
a(S'100000675085222'
S'Parul Raheja'
tp27
a(S'100000020428348'
S'Anubhav Goyal'
tp28
a(S'100000977332387'
S'Saadgee Sood'
tp29
a(S'1734799814'
S'Shubham Agrawal'
tp30
a(S'100001812881662'
S'Vibhu Jain'
tp31
a(S'100007038781990'
S'Maitreyi Joshi'
tp32
a(S'1848759628'
S'Nimisha Bothra'
tp33
a(S'1379875863'
S'Raj Shekhar'
tp34
a(S'100001111316393'
S'Shaurya Singh'
tp35
a(S'100003681221943'
S'Jyoti Singh'
tp36
a(S'100000398075762'
S'Shradha Gulati'
tp37
a(S'100000481926880'
S'Saksham Goel'
tp38
a(S'100001133859416'
S'Shivam Rajput'
tp39
a(S'1415152938'
S'Vishal Singh'
tp40
a(S'100001787950602'
S'Mohit Yadav'
tp41
a(S'100001680468759'
S'Raj Jaiswal'
tp42
a(S'558398699'
S'Jagat Pratap Singh Thakran'
tp43
a(S'100003367847959'
S'Yash Pathak'
tp44
a(S'100000315708238'
S'Shubhpreet Layal'
tp45
a(S'1478183819'
S'Ayush Kumar Tiwary'
tp46
a(S'1320495101'
S'Selva Raj'
tp47
a(S'709435125'
S'Bivab Bajracharya'
tp48
a(S'100001194892136'
S'Raghav Mittal'
tp49
a(S'100000541624291'
S'Sonia Chaudhary'
tp50
a(S'1683012021'
S'Anushka Singh'
tp51
a(S'100000232448105'
S'Ashish Sikaria'
tp52
a(S'100000074436770'
S'Ratik Khandelwal'
tp53
a(S'100001250317264'
S'Vibhu Juneja'
tp54
a(S'100000467259534'
S'Jai Vikram Singh'
tp55
a(S'100000110377571'
S'Yuvraj Randhawa'
tp56
a(S'100001922877552'
S'Deva Mahasvin'
tp57
a(S'712700839'
S'Eesha Bagga'
tp58
a(S'100003647955400'
S'Nikhil Singh'
tp59
a(S'100003546313109'
S'Shaivya Dixit'
tp60
a(S'100006464812258'
S'Ishana Chengappa'
tp61
a(S'548344709'
S'Raghav Dahuja'
tp62
a(S'754723593'
S'Abhineet Kanodia'
tp63
a(S'100000666268251'
S'Ishan Mohan'
tp64
a(S'762404428'
S'Sushant Vasishta'
tp65
a(S'100002522011471'
S'Amanjot Singh Kalsi'
tp66
a(S'1064296503'
S'Pranjal Agrawal'
tp67
a(S'1756710536'
S'Omar Khan'
tp68
a(S'100000030820586'
S'Shristi Sharma'
tp69
a(S'1125437303'
S'Rana Vaneet Singh Narang'
tp70
a(S'1240244854'
S'Fahad Siddiqui'
tp71
a(S'100003299694040'
S'Dheerajkumar Dilmilton'
tp72
a(S'100001170520861'
S'Saloni Singh Kashyap'
tp73
a(S'100000122277724'
S'Tenzin Namgyal'
tp74
a(S'100002476323506'
S'Arikesh Jung'
tp75
a(S'100000462543147'
S'Yasharth Singh'
tp76
a(S'624669665'
S'Tushar Malik'
tp77
a(S'1647026465'
S'Arpit Khemka'
tp78
a(S'1341982069'
S'Harshun Tintin Mehta'
tp79
a(S'1389260775'
S'Shrey Singhal'
tp80
a(S'100005194500900'
S'Naina Rullzz'
tp81
a(S'100001485406756'
S'Keshav Saraogi'
tp82
a(S'704647578'
S'Satyendra Kumar Mishra'
tp83
a(S'1462821041'
S'Shashvat Shrotria'
tp84
a(S'522837388'
S'Divij Gupta'
tp85
a(S'1349361115'
S'Abhay Goenka'
tp86
a(S'1283000518'
S'Akanksha Sethi'
tp87
a(S'100001778994068'
S'Peyush Trehan'
tp88
a(S'100003936690492'
S'Sanskriti Gupta'
tp89
a(S'1104172630'
S'Shubhankar Agrawal'
tp90
a(S'1408045189'
S'Keshav Agarwal'
tp91
a(S'1191886101'
S'Javed Ahmed'
tp92
a(S'1117315815'
S'Upam Lahkar'
tp93
a(S'100003800048239'
S'Soubhagya Agarwal'
tp94
a(S'1348876410'
S'Ana Moreno'
tp95
a(S'1540091194'
S'Aditya Agarwal'
tp96
a(S'100001786134677'
S'Aviral Agarwal'
tp97
a(S'100001110991810'
S'Shriya Negi'
tp98
a(S'1429715349'
S'Chetan Sharma'
tp99
a(S'100002667186421'
S'Kumudini Gajanand'
tp100
a(S'722730406'
S'Ajay Kailkhura'
tp101
a(S'100001589782139'
S'Mohit Khanna'
tp102
a(S'1668474466'
S'Shreepath Jain'
tp103
asS'id'
p104
S'1398895205'
p105
sS'name'
p106
S'Gaurav Prasad'
p107
s.