(dp1
S'friends'
p2
(lp3
(S'100008244905021'
S'Hariom Miglani'
tp4
a(S'1413223424'
S'Sunil Chugh'
tp5
a(S'100008333865010'
S'RamGopal Kansal'
tp6
a(S'100007465512584'
S'Kapil Thakur'
tp7
a(S'1405455775'
S'Vivek Sharma'
tp8
a(S'100007940343120'
S'Vijay Sharma'
tp9
asS'id'
p10
S'1413223424'
p11
sS'name'
p12
S'Sunil Chugh'
p13
s.