(dp1
S'friends'
p2
(lp3
(S'100003051358269'
S'\\u0646\\u062f\\u0629 \\u0646\\u062f\\u0629'
tp4
a(S'100007175945802'
S'Neha Sharma'
tp5
a(S'1420337012'
S'Vijay Singh'
tp6
asS'id'
p7
S'1420337012'
p8
sS'name'
p9
S'Vijay Singh'
p10
s.