(dp1
S'current_text'
p2
VMumbai, Maharashtra, India\u000aCurrent City
p3
sS'name'
p4
S'Ashok Bal'
p5
sS'current_class'
p6
S'india'
p7
sS'friends'
p8
(lp9
(S'100001362960674'
S'Bibekananda Choudhury'
tp10
a(S'1177489161'
S'Nmadhusudana Rao'
tp11
a(S'5744345'
S'Ravi Kiran'
tp12
a(S'100000882851685'
S'Surya Rao'
tp13
a(S'1077164967'
S'Mitali Madhusmita'
tp14
a(S'1005978583'
S'Sanjiv Garg'
tp15
a(S'100000414312316'
S'Abhilasha Bal'
tp16
a(S'100002193697526'
S'Sidharth Pradhan'
tp17
a(S'100001112587870'
S'Sanjiv Das Das'
tp18
a(S'1209321011'
S'Kumud C P Patnaik'
tp19
a(S'100000552415906'
S'Sumit Dasgupta'
tp20
a(S'100001371110642'
S'Prashant Kumar Mohanty'
tp21
a(S'710449845'
S'Itishree Panda'
tp22
a(S'732377918'
S'Satish Kumar Gupta'
tp23
a(S'1613414529'
S'Vivek Batra'
tp24
a(S'1173516560'
S'Alka Amar'
tp25
a(S'100001705789820'
S'Kl Maheshwari'
tp26
a(S'100000824373715'
S'Sriram Abhisek'
tp27
a(S'1183944941'
S'Ravi Budhiraja'
tp28
a(S'100001703806164'
S'Jagannath Karan'
tp29
a(S'749964265'
S'Nilimesh Baruah'
tp30
a(S'1501746267'
S'Paramita Satpathy Tripathy'
tp31
a(S'100006876422069'
S'Gagan Nayak'
tp32
a(S'100001457214685'
S'Suresh Maheshwari'
tp33
a(S'1344199494'
S'Shailendra Raj Mehta'
tp34
a(S'1467570542'
S'Suman Darsi'
tp35
a(S'100000479264011'
S'Satinder Rana'
tp36
a(S'100001767522218'
S'Ashok Kumar Mallick'
tp37
a(S'1684599746'
S'Mrinalini Padhi'
tp38
a(S'100001754972122'
S'Ashoke Barman'
tp39
a(S'563316773'
S'Harekrushna Panda'
tp40
a(S'1599704867'
S'Amruta Bal'
tp41
a(S'506961999'
S'Aditi Jain Pancholi'
tp42
a(S'567708456'
S'Shishir Srivastava'
tp43
a(S'100001448555634'
S'Gs Singh'
tp44
a(S'504338479'
S'Swapan Kumar Hazra'
tp45
a(S'1581316661'
S'Konda Ramesh'
tp46
a(S'1493627216'
S'Piyush Pal Singh'
tp47
a(S'100000078385532'
S'Sanjay Kumar Khare'
tp48
a(S'1445098229'
S'Om Mehra'
tp49
a(S'100000364479718'
S'Dipti Mallik'
tp50
a(S'1015676253'
S'Joe Sebastian'
tp51
a(S'673578778'
S'Raman Nanda'
tp52
a(S'100001567652399'
S'Naveen Shukla'
tp53
a(S'100002773790504'
S'Ravindra Jain'
tp54
a(S'100001639502544'
S'Shiv Sharma'
tp55
a(S'1370665743'
S'Satyabrata Das'
tp56
a(S'100003499613851'
S'Ramesh Chandra Nayak'
tp57
a(S'100002761275077'
S'Rajendra Joshi Rajendra Joshi'
tp58
a(S'537499342'
S'Om Prakash Kakralia'
tp59
a(S'1347142495'
S'Srijit Mishra'
tp60
a(S'1777644836'
S'Venuthurupalli Ramaraju'
tp61
a(S'1313865956'
S'Gagan Goyal'
tp62
a(S'1772275293'
S'Rasesh Shah'
tp63
a(S'100001197423745'
S'Dev Mohapatra'
tp64
a(S'100000349960863'
S'Sanat Panda'
tp65
a(S'100000702386264'
S'Abhaya Shankar Dash'
tp66
a(S'599532820'
S'Ravindra Kumar'
tp67
a(S'1766709413'
S'Binod Kumar'
tp68
a(S'100001578532152'
S'Byasadev Naik'
tp69
a(S'100001498353213'
S'Surendra Rajanahalli'
tp70
a(S'100003218802001'
S'Manju Ray'
tp71
a(S'1605216153'
S'Vinod Kumar Pandey'
tp72
a(S'100005772221413'
S'Arun Panda'
tp73
a(S'100001035681330'
S'Om Prakash Meena'
tp74
a(S'655809884'
S'Ravichandran Ramasamy'
tp75
a(S'1453958300'
S'Krishna Sahai'
tp76
a(S'651767015'
S'Anuj Nayyar'
tp77
a(S'100000290886865'
S'Twentyfirstcentury Indianart'
tp78
a(S'100006169023018'
S'Bharatkumar Vesukar'
tp79
a(S'100002640088467'
S'Bidhanesh Misra'
tp80
a(S'1486491918'
S'Sanjay Shivam'
tp81
a(S'100000980607480'
S'Suresh Satapathy'
tp82
a(S'891470363'
S'Mohammad Abid'
tp83
a(S'100003628712663'
S'Manoj Doshi'
tp84
a(S'100007564053553'
S'Ramesh Khaitan'
tp85
a(S'1246428984'
S'Gopal Dhal'
tp86
a(S'100006142301192'
S'Dattatray Shinde'
tp87
a(S'1533476602'
S'Manoj Kumar'
tp88
a(S'100003906879166'
S'Ashok D Suri'
tp89
a(S'1046230063'
S'Chinmay Chakravarty'
tp90
a(S'100000094640701'
S'Dinesh Singh'
tp91
a(S'100001109600237'
S'Wahidul Hasan'
tp92
a(S'1614606292'
S'Krishna Mohan Prasad'
tp93
a(S'100003911029898'
S'Pabitra Mahapatra'
tp94
a(S'1577889574'
S'Ajay Pandey'
tp95
a(S'539995368'
S'Ashu Jain'
tp96
a(S'100004150861976'
S'Tilokchand Ostwal'
tp97
a(S'1593871826'
S'CA Krishna GV'
tp98
a(S'100001589084721'
S'Ajit Mishra'
tp99
a(S'1161766982'
S'Girish Chandorkar'
tp100
a(S'100002221931926'
S'Sunita Singh'
tp101
a(S'609670745'
S'Prasanna Jena'
tp102
a(S'100000653884006'
S'Gc Srivastava'
tp103
a(S'100004449545815'
S'Hanamantrao Kulkarni'
tp104
a(S'1432242800'
S'Santrupt Misra'
tp105
a(S'820922368'
S'Himakar Tata'
tp106
a(S'100000496773331'
S'Sadhan Pathak'
tp107
a(S'1624575361'
S'Gopal Kamal'
tp108
a(S'1489680635'
S'Niraj N. Kumar'
tp109
a(S'1330698488'
S'Ravi Inder Gill'
tp110
a(S'100002063812743'
S'Praful Patnaik'
tp111
a(S'588097433'
S'Rajeev Shahare'
tp112
a(S'100001420483316'
S'Kamakshi Karri'
tp113
a(S'100000238781261'
S'Prasanna Das'
tp114
a(S'100000661325471'
S'Bishwanath Jha'
tp115
a(S'100000097491563'
S'Trailokya Jena'
tp116
a(S'100001191491744'
S'Satyajit Behuria'
tp117
a(S'100000901437387'
S'Sudhakara Rao Dirisam'
tp118
a(S'662633310'
S'Jahanzeb Akhtar'
tp119
a(S'1144756532'
S'Mukesh Butani'
tp120
a(S'1264643399'
S'Sitanshu Kar'
tp121
a(S'100002040363490'
S'Deepak Goradia'
tp122
a(S'1327132855'
S'Nilimesh Baruah'
tp123
a(S'521336873'
S'Shomu Banerjee'
tp124
a(S'738539735'
S'Deepak Tralshawala'
tp125
a(S'100001169799122'
S'Rufi Qureshi'
tp126
a(S'1478602987'
S'Samuel Darse'
tp127
a(S'751948236'
S'Sunil Gupta'
tp128
a(S'100000244373505'
S'Sudhir Sharma'
tp129
a(S'100000670415055'
S'Prakash H Adnur'
tp130
a(S'572647969'
S'Kedia Rajeshkumar'
tp131
a(S'1845463428'
S'Sanjay Patra'
tp132
a(S'100001415927655'
S'Dinesh Patwari'
tp133
a(S'1004077311'
S'Ravindra T Revankar'
tp134
a(S'100000626024450'
S'Kishore Vyawahare'
tp135
a(S'718545607'
S'Reeti Rajguru'
tp136
a(S'100001279991070'
S'Bharat Pandya'
tp137
a(S'573355858'
S'Dinesh Patwari'
tp138
a(S'1029353247'
S'Rup Krishen Baqaya'
tp139
a(S'100002816574625'
S'Prafulla Swain'
tp140
a(S'100000123298035'
S'Pradip Kumar Das'
tp141
a(S'794725611'
S'Urvashi Barman'
tp142
a(S'100000897656173'
S'Monalisha Mitra'
tp143
a(S'825997714'
S'Daniel Trevelyn Joseph'
tp144
a(S'100002125183731'
S'Anand Kumar'
tp145
a(S'100003752640469'
S'Pranab Pati'
tp146
a(S'100000280374252'
S'Anand Upadhyay'
tp147
a(S'622149915'
S'Naresh Salecha'
tp148
a(S'100004023435670'
S'Rajendra Chalke'
tp149
a(S'100002635514521'
S'Harishankar Kumar Lal'
tp150
a(S'100001838326861'
S'Pranab Kumar Das'
tp151
a(S'100000420414821'
S'Ca Haren Shah'
tp152
a(S'1407826336'
S'P Soma Shekar Reddy'
tp153
a(S'571401469'
S'Athikho Obou'
tp154
a(S'704998225'
S'Rajeev Harit'
tp155
a(S'738811132'
S'Subrat Ratho'
tp156
a(S'1340746858'
S'Urvashi Saxena'
tp157
a(S'517669950'
S'Sanjay Bhatia'
tp158
a(S'100003114507321'
S'Prasant Barik'
tp159
a(S'100003234773766'
S'Uttam Suryavanshi'
tp160
a(S'100001215464250'
S'Maruti Vishwasrao'
tp161
a(S'100000509470026'
S'Rajib Hota'
tp162
a(S'100000547159835'
S'Koushik Mohapatra'
tp163
a(S'100001377654673'
S'Dharm Vir Singh'
tp164
a(S'1094160382'
S'Ravindra T Revankar'
tp165
a(S'1697689808'
S'Ashok Kumar Khandelwal'
tp166
a(S'100001716334229'
S'Gandharba Pradhan'
tp167
a(S'100002603881167'
S'Anil Agarwal'
tp168
a(S'574502956'
S'Samir Tekriwal'
tp169
a(S'100001694107495'
S'Shibendu Moharana'
tp170
a(S'1122202118'
S'Shiba Rath'
tp171
a(S'100000660001763'
S'Satyagopal Rajguru'
tp172
a(S'1673116225'
S'Byomkesh Panda'
tp173
a(S'100000554597747'
S'Ashutosh Padru'
tp174
a(S'100002247757444'
S'Soumit Jena'
tp175
a(S'100001183672494'
S'Sridhar Tnc'
tp176
a(S'1325319960'
S'Brahma Prakash Gaur'
tp177
a(S'100003400832450'
S'Sandip Das'
tp178
a(S'100002812858967'
S'K N Ramachandran Ramachandran'
tp179
a(S'100002164097428'
S'Atul Verma'
tp180
a(S'100002531722344'
S'Rashmi Ranjan Das'
tp181
a(S'723023349'
S'Ritesh Misra'
tp182
a(S'1161694461'
S'Ajit Naik'
tp183
a(S'790155532'
S'Sunita Yadav Kakralia'
tp184
a(S'100000185677892'
S'Pitambar Das'
tp185
a(S'627380772'
S'Bharat Tripathi'
tp186
a(S'100004431161372'
S'Keshab Sahoo'
tp187
a(S'647378301'
S'Ashutosh Rajhans'
tp188
a(S'100002599667258'
S'Sanjay Rak'
tp189
a(S'1582472935'
S'Vatsalya Saxena'
tp190
a(S'100001062952469'
S'Satender Singh Rana'
tp191
a(S'100001604056540'
S'Biranchi Narayan Mallick'
tp192
a(S'1587991248'
S'Virendra Ojha'
tp193
a(S'1748820757'
S'Ganesh Trichur'
tp194
a(S'100003554859648'
S'Capitalhighschool Bhubaneswar'
tp195
a(S'100000814593207'
S'Rananjay Singh'
tp196
a(S'100006343806992'
S'Suman Jain'
tp197
a(S'100000428450065'
S'Parth Sanghvi'
tp198
a(S'100000606416302'
S'Ahindra Chakrabarti'
tp199
a(S'100000263531447'
S'Sanjeev Das'
tp200
a(S'100004953090923'
S'Alok Mallik'
tp201
a(S'100003548597882'
S'Umesh Pattnaik'
tp202
a(S'100000106721578'
S'Shrikant Barthakur'
tp203
a(S'100002123791934'
S'Dillip Biswal'
tp204
a(S'1496400927'
S'Shyam Benupani'
tp205
a(S'100002557449463'
S'Gautam Ip'
tp206
a(S'100007251662419'
S'Srinivas Danda'
tp207
a(S'1529093381'
S'Artabandhu Patra'
tp208
a(S'581247892'
S'Indrani Gupta'
tp209
a(S'100002440574586'
S'Girish Kumar Maheshwari'
tp210
a(S'100003110004926'
S'Dilip Biswal'
tp211
a(S'100000843458519'
S'Dilip Samantray'
tp212
a(S'100000788404264'
S'Pawan Bahekar'
tp213
a(S'100004107753566'
S'Naresh Chandra Swain'
tp214
a(S'1019736270'
S'Pravin Varma'
tp215
a(S'100000788733403'
S'Sagarika Mohanty'
tp216
a(S'100000463136550'
S'Devi Prasad Uppuleti'
tp217
a(S'100000427314526'
S'Samir Mohanty'
tp218
a(S'100001913857167'
S'Kamlesh Upadhayay'
tp219
a(S'1483627389'
S'Diptiman Das'
tp220
a(S'1745483154'
S'Prafulla Prusty'
tp221
a(S'100006097712182'
S'Krupanidhi Biswal'
tp222
a(S'100000107604015'
S'Girish Sharma'
tp223
a(S'607082340'
S'Hukum C Jain'
tp224
a(S'100002380497089'
S'Bijoy Mishra'
tp225
a(S'100000468823739'
S'BV Gopinath'
tp226
a(S'673151892'
S'Shyam Dawra'
tp227
a(S'100000286800658'
S'Anshula Kant'
tp228
a(S'100000475782506'
S'Arun Shenoy'
tp229
a(S'100000797934932'
S'Pratap Mohanty'
tp230
a(S'100000820762320'
S'Jk Mishra'
tp231
a(S'100000262167539'
S'Jayadev Sarangi'
tp232
a(S'1437423816'
S'Manish Sethi'
tp233
a(S'1517470020'
S'Manoj Kumar Singh'
tp234
a(S'100000069729772'
S'Omprakash Mohanty'
tp235
a(S'1352246720'
S'Rajesh Jena'
tp236
a(S'100000731920290'
S'Lakshmi Singh'
tp237
a(S'1339485738'
S'Sanjib Kumar Tripathy'
tp238
a(S'1599631281'
S'Shyamsundar Keshkamat'
tp239
a(S'517329884'
S'Amarendra Khatua'
tp240
a(S'100004000226193'
S'Ashok Gadkari'
tp241
a(S'100003086638496'
S'Bijay Kumar Tripathi'
tp242
a(S'100002569975323'
S'Gokulananda Pattnaik'
tp243
a(S'100002231132691'
S'Bhagchand Meena'
tp244
a(S'1428332344'
S'Laxmi Narayan Pant'
tp245
a(S'1632931953'
S'Mudit Nagpal'
tp246
a(S'100001555514840'
S'Madhumita Beuria Patra'
tp247
a(S'100002469814017'
S'Asfaq Shaikh'
tp248
a(S'1415598660'
S'Sunil Ojha'
tp249
a(S'724897972'
S'Aditya Kumar Jain'
tp250
a(S'1791320987'
S'Daya Shanker'
tp251
a(S'100001238804568'
S'Medisetti Tirumala Kumar'
tp252
a(S'100000025192489'
S'Pritam Singh'
tp253
a(S'703621333'
S'Rajeev Harit'
tp254
a(S'1590096191'
S'Ajay Chauhan'
tp255
a(S'100001468373555'
S'Goutam Nayak'
tp256
a(S'656370881'
S'Alka Arora Misra'
tp257
a(S'744478729'
S'Rajeev Harit'
tp258
a(S'100004684922051'
S'Girish Sharma'
tp259
a(S'100001973477511'
S'Ashok Sinha'
tp260
a(S'100003930656552'
S'Tulsidas Sutar'
tp261
a(S'100000351532560'
S'Riaz Shaikh'
tp262
a(S'100000169557753'
S'Vijay Shendre'
tp263
a(S'1201064635'
S'Vinod K Tripathi'
tp264
a(S'1069434527'
S'Dschool Almn'
tp265
a(S'100006064960867'
S'Kula Saikia'
tp266
a(S'1014527879'
S'Anadee Nath Misshra'
tp267
a(S'1598101330'
S'Kavita Jha'
tp268
a(S'100001273235102'
S'Sekar Pandian'
tp269
a(S'100000610167621'
S'Sangeeta Mohanty Bhargava'
tp270
a(S'1409795991'
S'Hemant Sarangi'
tp271
a(S'1156017995'
S'Sushil Madhuk'
tp272
a(S'100000952348574'
S'Nitish Agarwal'
tp273
a(S'100001277802545'
S'Narayan Agrawal'
tp274
a(S'100003908018785'
S'Jayakrishnan TK'
tp275
a(S'1112834612'
S'Rabi Narayan Dash'
tp276
a(S'100001284896202'
S'Madhu Khanna'
tp277
a(S'1162924213'
S'Seema Khorana Patra'
tp278
a(S'1393880668'
S'Wasim Haque'
tp279
a(S'650808255'
S'Vishal Agarwal'
tp280
a(S'100003779713642'
S'Neeraj Kumar Srivastava'
tp281
a(S'100000028215266'
S'Udaya Shankar Das'
tp282
a(S'100000330572316'
S'Yadappa Kori'
tp283
a(S'100002143757740'
S'Ramesh Danday'
tp284
a(S'100002273251817'
S'Sanjay Singh'
tp285
a(S'1735645389'
S'Neena Kumar'
tp286
a(S'1573729708'
S'Chittaranjan Dash'
tp287
a(S'100000124250459'
S'Satish Pradhan'
tp288
a(S'1140287493'
S'Sanjeev K Abrol'
tp289
a(S'100002414536204'
S'Gangadhar Belagali'
tp290
a(S'100002720674464'
S'Bipin Mishra'
tp291
a(S'1818756885'
S'Karunakara Rao Dasari'
tp292
a(S'578799525'
S'Sunil Kumar Banerjee'
tp293
a(S'100000394166644'
S'Veerappalam Mahalingam'
tp294
a(S'100002814481008'
S'Kumar Hrishikesh'
tp295
a(S'526183812'
S'Jayadev Manyapu'
tp296
a(S'100001791104774'
S'Subodh Sharma'
tp297
a(S'100001134733246'
S'Parvathimangalam Ramadorai'
tp298
a(S'100004289010427'
S'Ujwala Deodhar Seth'
tp299
a(S'100000131418394'
S'Kamal Choudhury'
tp300
a(S'100000171476789'
S'Udaya Jena'
tp301
a(S'604495609'
S'Asim Choudhury'
tp302
a(S'100003043845303'
S'Chandrajani Behuria'
tp303
a(S'531085370'
S'Ravindra Singh'
tp304
a(S'1725917829'
S'Manoranjan Panigrahy'
tp305
a(S'100000637453107'
S'Sishir Sinha'
tp306
a(S'100000001180862'
S'Vikram Sankhala'
tp307
a(S'1057808456'
S'Ramesh Narain Parbat'
tp308
a(S'100001852731672'
S'Manas Mondal'
tp309
a(S'100007126321908'
S'Brajesh Kumar Singh'
tp310
a(S'729990414'
S'Sk Singh'
tp311
a(S'505491723'
S'Sidharth Nayak'
tp312
a(S'100000480677083'
S'Kingshuk Nag'
tp313
a(S'100003235939394'
S'Anand Kulkarni'
tp314
a(S'100007424647737'
S'Nilima Mansukhani'
tp315
a(S'100001296017510'
S'Mukesh Raval'
tp316
a(S'100002295652164'
S'Anjani Kumar'
tp317
a(S'1642086280'
S'Suraj Bhan Nain'
tp318
a(S'698194500'
S'Amritanshu Singh'
tp319
a(S'789468621'
S'Arun S Bhatnagar'
tp320
a(S'550139175'
S'Sangeeta Gupta'
tp321
a(S'729859750'
S'Krishna Mohan Prasad'
tp322
a(S'100004861903780'
S'Debananda Dwibedi'
tp323
a(S'100001216211173'
S'Anil Kumar'
tp324
a(S'634830183'
S'Kunal Chakrabarti'
tp325
a(S'100000638230583'
S'Krishan K Khadaria'
tp326
a(S'546762785'
S'Max Michaels'
tp327
a(S'100002479254963'
S'Sumana Mohanty'
tp328
a(S'100002071908191'
S'Jaya Singh Chauhan'
tp329
a(S'100002840383583'
S'Kaushal Sharma'
tp330
a(S'100000049587637'
S'Surinder Jit Singh'
tp331
a(S'1844194497'
S'Satya Prasant P'
tp332
a(S'100002478493506'
S'KR Sudhaman'
tp333
a(S'100001021331932'
S'Salil Kumar Mohanty'
tp334
a(S'544448003'
S'Ajay Mankotia'
tp335
a(S'100002116154677'
S'Sujit Kumar'
tp336
a(S'1037131183'
S'Vijay Kumar'
tp337
a(S'1287318712'
S'Naresh Balodia'
tp338
a(S'1029713428'
S'Sandip Garg'
tp339
a(S'100000525214449'
S'Rk Jain'
tp340
a(S'1545349799'
S'Munindra Mohan Das'
tp341
a(S'100001528292536'
S'Shailaja Nair'
tp342
a(S'1325143421'
S'Rangnath Jha'
tp343
a(S'100001985923971'
S'Anuradha Mookerjee'
tp344
a(S'100001032953822'
S'Chhabilendra Roul'
tp345
a(S'1138615541'
S'Narendra Singh'
tp346
a(S'100000040033177'
S'Ashok Sawhney'
tp347
a(S'1497690573'
S'Sanjeev Sharma'
tp348
a(S'100003237218837'
S'Sanjeev Chopra'
tp349
a(S'1048152953'
S'Bala Krishnan'
tp350
a(S'659916782'
S'Kishor Yadav'
tp351
a(S'522154355'
S'Madhu Sinha Sharma'
tp352
a(S'1443245260'
S'Ravi Kini'
tp353
a(S'100001529711658'
S'Manoj Sharma'
tp354
a(S'704422761'
S'Anto Joseph'
tp355
a(S'1003793720'
S'Paramjeet Singh'
tp356
a(S'502266885'
S'Naveen Sarna'
tp357
a(S'100002936369125'
S'Ashok Kumar Satapathy'
tp358
a(S'100002019289844'
S'Desh Raj'
tp359
a(S'100000826295855'
S'Nilesh Patel'
tp360
a(S'1254223937'
S'Syed Ashraf'
tp361
a(S'100001501143272'
S'Mini Kar'
tp362
a(S'100002667881008'
S'Priya Ranjan Dash'
tp363
a(S'566448852'
S'Debjyoti Das'
tp364
a(S'1097347418'
S'Saseekala Nair'
tp365
a(S'100000138793167'
S'Rajaraman Singaravelu'
tp366
a(S'100002287103289'
S'Sujata Panigrahi'
tp367
a(S'100002900180159'
S'Rahul Seth'
tp368
a(S'100001412480916'
S'Radha Raman Pathak'
tp369
a(S'100002226352698'
S'SK Nayyar'
tp370
a(S'100001654128180'
S'Yogendra Gaiha'
tp371
a(S'657193938'
S'Agrosaw India'
tp372
a(S'100002650992789'
S'Sudipta Harichandan'
tp373
a(S'673368757'
S'Ashok Mahapatra'
tp374
a(S'100000613879548'
S'Sudhish Sonkar'
tp375
a(S'1152805118'
S'Alka Subramanian'
tp376
a(S'100000423148631'
S'Devesh Vasavada'
tp377
a(S'100006986912327'
S'Ashoke Barman'
tp378
a(S'100002246138484'
S'Sujay Kewalramani'
tp379
a(S'100000100996910'
S'Rajendra Ranjane'
tp380
a(S'653526217'
S'Madhuchhanda Bal'
tp381
a(S'100001572862793'
S'Krishan Kanwat'
tp382
a(S'1609951241'
S'Vidhu Shekher Singh'
tp383
a(S'100001805840587'
S'Debi Patra'
tp384
a(S'100000593772952'
S'Shyamsundar Keshkamat'
tp385
a(S'749133437'
S'Yogesh Verma'
tp386
a(S'1637676219'
S'Shafiq R Malik'
tp387
a(S'100004083229519'
S'Vinod Wahi'
tp388
a(S'100005074718671'
S'Kabita Swain'
tp389
a(S'780843935'
S'Ashish Abrol'
tp390
a(S'1393282552'
S'Sushmita Dasgupta'
tp391
a(S'100000746131916'
S'Srikant Patnaik'
tp392
a(S'1019588446'
S'DurgaCharan Dash'
tp393
a(S'100001594833828'
S'Bhabani Chayani'
tp394
a(S'100000815224172'
S'Pawan Bahekar'
tp395
a(S'100001574220710'
S'Ashok Kumar Agrawal'
tp396
a(S'1079453739'
S'Karun K Ojha'
tp397
a(S'100000316006534'
S'Yogesh Verma'
tp398
a(S'1167764546'
S'Manoj Pande'
tp399
a(S'707279394'
S'Mahua Sarkar'
tp400
a(S'100002020612984'
S'Chandraprakash Saroj'
tp401
a(S'100003625876964'
S'Benu Pani'
tp402
a(S'100002278956874'
S'Shashi Prasad'
tp403
a(S'100000611075409'
S'Feroz Khan'
tp404
a(S'100001285322160'
S'Sarat Dash'
tp405
a(S'1340474143'
S'Prasad Reddy'
tp406
a(S'1435202395'
S'Kamlesh Vikamsey'
tp407
a(S'633209247'
S'Vineet Agrawal'
tp408
a(S'100000193360681'
S'Chandra Sekhar Dash'
tp409
a(S'100000397058119'
S'Ajit Kamat Satoskar'
tp410
a(S'100001484205123'
S'Rajesh Ranjan Prasad'
tp411
a(S'1444081107'
S'Subrata Kumar Dash'
tp412
a(S'100001956117610'
S'Subhakant Sahu'
tp413
a(S'100000709208246'
S'Girish Shirsat'
tp414
a(S'100002942646179'
S'Ashok Kumar Mishra'
tp415
a(S'100003668090389'
S'Jaikishan Shivani'
tp416
a(S'625135916'
S'Girish N Pande'
tp417
a(S'640955132'
S'Manan Javeri'
tp418
a(S'1370811170'
S'Navasatya Bal'
tp419
a(S'1276414044'
S'Vinod Agarwal'
tp420
a(S'100002628310148'
S'Vivek Wadekar'
tp421
a(S'546631509'
S'Ashok Mittal'
tp422
a(S'734608651'
S'Anadee Nath Misshra'
tp423
a(S'100001180201201'
S'Uday Kumaran'
tp424
a(S'100001356223146'
S'Rajeev Soham'
tp425
a(S'100000823282518'
S'Kakara Satyanarayana'
tp426
a(S'1011158492'
S'Logapathi Manikannan'
tp427
a(S'1251422755'
S'Kusum Singh'
tp428
a(S'873370226'
S'Purnima Das'
tp429
a(S'100000450150558'
S'Kj Singh'
tp430
a(S'581568090'
S'Tannu Malik'
tp431
a(S'1750297465'
S'Pramila Kishore'
tp432
a(S'686828266'
S'Tarun Seem'
tp433
a(S'100000069949033'
S'Rama Das'
tp434
a(S'100001327354791'
S'Uma Charan Pattanaik'
tp435
a(S'100001386756110'
S'Sanjeev Kashyap'
tp436
a(S'100000671656072'
S'Pradeep Sharma'
tp437
a(S'1807491195'
S'Nageshwar Rao'
tp438
a(S'1062541387'
S'Rajgopal Sharma'
tp439
a(S'100001314233381'
S'Amitav Swain'
tp440
a(S'1102240781'
S'Pramod Panda'
tp441
asS'id'
p442
S'1427071599'
p443
sS'current_link'
p444
Vhttps://www.facebook.com/l.php?u=https%3A%2F%2Fwww.bing.com%2Fmaps%2Fdefault.aspx%3Fv%3D2%26pc%3DFACEBK%26mid%3D8100%26where1%3D18.975000641097%252C%2B72.825622558594%26name%3DMumbai%252C%2BMaharashtra%252C%2BIndia%26mkt%3Den-IN&h=TAQERW_I4&s=1
p445
s.