(dp1
S'name'
p2
S'Sayesha Gupta'
p3
sS'current_class'
p4
S'india'
p5
sS'home_class'
p6
Vgurgaon, haryana, india
p7
sS'home_text'
p8
VGurgaon, Haryana\u000aHometown
p9
sS'current_link'
p10
Vhttps://www.facebook.com/l.php?u=https%3A%2F%2Fwww.bing.com%2Fmaps%2Fdefault.aspx%3Fv%3D2%26pc%3DFACEBK%26mid%3D8100%26where1%3D30.316700868289%252C%2B78.033142089844%26name%3DDehra%2BDun%252C%2BIndia%26mkt%3Den-IN&h=8AQFN85pf&s=1
p11
sS'home_link'
p12
Vhttps://www.facebook.com/l.php?u=https%3A%2F%2Fwww.bing.com%2Fmaps%2Fdefault.aspx%3Fv%3D2%26pc%3DFACEBK%26mid%3D8100%26where1%3D28.469999907198%252C%2B77.029266357422%26name%3DGurgaon%252C%2BHaryana%26mkt%3Den-IN&h=kAQHXFGJJ&s=1
p13
sS'current_text'
p14
VDehra Dun, India\u000aCurrent City
p15
sS'friends'
p16
(lp17
(S'100000185028860'
S'Radhika Chandak'
tp18
a(S'100000214646443'
S'Kritika Khanna'
tp19
a(S'1618504157'
S'Niharika Godara'
tp20
a(S'1760274583'
S'Meher Prasher'
tp21
a(S'100000136098114'
S'Ankita Shrothi'
tp22
a(S'1348406983'
S'Nitish Rajput'
tp23
a(S'557494715'
S'Neeti Gupta'
tp24
a(S'564489365'
S'Jayesh Joshi'
tp25
a(S'1580043892'
S'Nikhil Malik'
tp26
a(S'1204320538'
S'Leo R Robert'
tp27
a(S'1215268499'
S'Raghav Sharma'
tp28
a(S'100001355177370'
S'Soumya Deshawar'
tp29
a(S'100001091277442'
S'Ishani Banerjee'
tp30
a(S'100004538498199'
S'Divya Shakti'
tp31
a(S'100000530439205'
S'Srishti Bajaj'
tp32
a(S'1653474942'
S'Disha Dahiya'
tp33
a(S'620919582'
S'Ruchit Mohan'
tp34
a(S'1825951585'
S'Sankalp Kalia'
tp35
a(S'100003950626628'
S'Shweta Dadwal'
tp36
a(S'100000479855477'
S'Ankita Bali'
tp37
a(S'1553497272'
S'Tannika Aggarwal'
tp38
a(S'1339893858'
S'Aakarsha Sivaramakrishnan'
tp39
a(S'1492163139'
S'Varun Sharawat'
tp40
a(S'100000767804738'
S'Smriti Agiwal'
tp41
a(S'702276142'
S'Ritika Gajwani'
tp42
a(S'1685791072'
S'Sachin Gupta'
tp43
a(S'1272016175'
S'Raghvendra Singh'
tp44
a(S'100001288080020'
S'Bhavika Wani'
tp45
a(S'1530394593'
S'Mayank Mahajan'
tp46
a(S'1566214861'
S'Ankita Mondal'
tp47
a(S'100001807432068'
S'Shreya Ak'
tp48
a(S'794334939'
S'Mayank Varshney'
tp49
a(S'100005462201976'
S'Kadambari Kira Issar'
tp50
a(S'100000522530538'
S'Shrey Swades'
tp51
a(S'100000119460877'
S'Ankit Jaggi'
tp52
a(S'1821776888'
S'Sahil Singh'
tp53
a(S'100000074817754'
S'Chhavi Joshi'
tp54
a(S'1160587318'
S'Vidisha Arora'
tp55
a(S'100003798103412'
S'Priyanshi Jain'
tp56
a(S'100001008816202'
S'Shirali Agarwal'
tp57
a(S'100001691450484'
S'Shirshendu Banerjee'
tp58
a(S'1502144824'
S'Arjun Bhatnagar'
tp59
a(S'1319149213'
S'Akanksha Singh'
tp60
a(S'1163525030'
S'Priyanka Nagarajan'
tp61
a(S'100000951946470'
S'Lakshay Chaudhary'
tp62
a(S'100002253090089'
S'Anoushka Datta'
tp63
a(S'1051289788'
S'Gaurav Gupta'
tp64
a(S'1510582739'
S'Venkat AkhoLic'
tp65
a(S'1412558119'
S'Saivani Bobba'
tp66
a(S'1224661475'
S'Mikasha Sinha'
tp67
a(S'100001523398341'
S'Pulkit Gupta'
tp68
a(S'612785549'
S'Kirthana Singh'
tp69
a(S'100001605726514'
S'Tejas Monga'
tp70
a(S'100003569326122'
S'Shveta Chhabra'
tp71
a(S'100003706249258'
S'Anupama Saha'
tp72
a(S'100000069663640'
S'Hargun Kohli'
tp73
a(S'1310979511'
S'Shashank Sharma'
tp74
a(S'100000487740959'
S'Rahul Jain'
tp75
a(S'1127746649'
S'Aarambh Sharma'
tp76
a(S'1215910665'
S'Samridhi Aggarwal'
tp77
a(S'1180509128'
S'Kartik Bhargava'
tp78
a(S'100000281381639'
S'Megda Bharadwaj'
tp79
a(S'598242262'
S'Shrey Malhotra'
tp80
a(S'100002700668375'
S'Aashian Ahluwalia'
tp81
a(S'100001471840995'
S'Ananya Chakraborty'
tp82
a(S'1302817702'
S'Vivek Dhar'
tp83
a(S'1334080428'
S'Yash Chitnis'
tp84
a(S'1058206833'
S'Avnish Rana'
tp85
a(S'1189089775'
S'Sneha Ramesh'
tp86
a(S'100000027585222'
S'Malaika Nangia'
tp87
a(S'1215731501'
S'Ishan Agarwal'
tp88
a(S'1041773670'
S'Sohrab Gill'
tp89
a(S'100001479004161'
S'Udit Handa'
tp90
a(S'100000285990197'
S'Rohit Chhoker'
tp91
a(S'523514048'
S'Samridh Kapoor'
tp92
a(S'1307451698'
S'Abhilasha Guha'
tp93
a(S'1132970457'
S'Vaibhav Gulati'
tp94
a(S'100005361548819'
S'Newdps Confess'
tp95
a(S'1390902863'
S'Disha Kulkarni'
tp96
a(S'1536731203'
S'Divanshi Gupta'
tp97
a(S'1644260123'
S'Arunika Sangwan'
tp98
a(S'100006397233320'
S'Lakshay Jain'
tp99
a(S'100000712085151'
S'Jasdeep Singh'
tp100
a(S'100000249092011'
S'Rhea Banerjee'
tp101
a(S'100000673514434'
S'Varnika Khandelwal'
tp102
a(S'100004284514842'
S'Navpreet Singh Gill'
tp103
a(S'100000515629413'
S'Ishan Gupta'
tp104
a(S'100001518170412'
S'Manu Sharma'
tp105
a(S'1583360877'
S'Shubham Patle'
tp106
a(S'100002130038794'
S'Sameer Budhwar'
tp107
a(S'1050281960'
S'Tanveer Oberoi'
tp108
a(S'724859011'
S'Alisha Vij'
tp109
a(S'1078874161'
S'Devanshi Nigam'
tp110
a(S'100003993858161'
S'Fagul Pandey'
tp111
a(S'100000418548839'
S'Megha Tangri'
tp112
a(S'100001076806325'
S'Ananya Patra'
tp113
a(S'100000678293250'
S'Sharika Sanjay'
tp114
a(S'100000893825446'
S'Yasmeen Singh'
tp115
a(S'1512057899'
S'Vaibhav Hans'
tp116
a(S'100000514309835'
S'Stuti Gupta'
tp117
a(S'100000148278328'
S'Akshay Saraogi'
tp118
a(S'644576801'
S'Sanjali Sharma'
tp119
a(S'1221156455'
S'Varun Anand'
tp120
a(S'100004145166803'
S'Kartika Badola'
tp121
a(S'1028050915'
S'Shivani Gaur'
tp122
a(S'1041927103'
S'Tarushi Ravindra'
tp123
a(S'100000035179021'
S'Chinmay Sharma'
tp124
a(S'1520777868'
S'Sk Rajawat'
tp125
a(S'697290476'
S'Arihant Sethia'
tp126
a(S'100001390404942'
S'Honey Sharma'
tp127
a(S'1645640382'
S'Arjoonn Sharma'
tp128
a(S'1348601630'
S'Umesh Malik'
tp129
a(S'100000320564138'
S'Divyaanshu Jain'
tp130
a(S'100001063003735'
S'Anuj Gupta'
tp131
a(S'1319842602'
S'Sahiba Baweja'
tp132
a(S'100000305100990'
S'Anshul Tyagi'
tp133
a(S'100005265481488'
S'Anamika Kumari'
tp134
a(S'100000026314320'
S'Chetanya Kandhari'
tp135
a(S'100000346807168'
S'Shashank Awadhut'
tp136
a(S'1508704294'
S'Divya Shukla'
tp137
a(S'100003095502097'
S'Dishant Gupta'
tp138
a(S'100000531013085'
S'Deekshant Varshney'
tp139
a(S'1144656086'
S'Ankita Gaur'
tp140
a(S'1365763581'
S'Hamsa Raina'
tp141
a(S'1758594290'
S'Bhavya Bhatia'
tp142
a(S'100000197737891'
S'Devesh Varshney'
tp143
a(S'100002082586800'
S'Komal Saini'
tp144
a(S'1515278701'
S'Pritesh Kumar'
tp145
a(S'1535124868'
S'Yogi Rana'
tp146
a(S'1332533546'
S'Malvika Paliwal'
tp147
a(S'100003155293135'
S'Pashy Kaur'
tp148
a(S'1019208854'
S'Tapasya Aashish'
tp149
a(S'100001459305092'
S'Shubham Mathur'
tp150
a(S'566338666'
S'Rachna Khosla'
tp151
a(S'1461072935'
S'Akshansh Animesh'
tp152
a(S'100000052041936'
S'Rakhi Chopra'
tp153
a(S'1389348019'
S'Pallavi Kumar'
tp154
a(S'100001152002877'
S'Bikram Gujral'
tp155
a(S'563504491'
S'Harsh Malhotra'
tp156
a(S'1485117921'
S'Daksh Sharma'
tp157
a(S'100000454196448'
S'Saagar Bhatia'
tp158
a(S'1325241568'
S'Aishwarya Joshi'
tp159
a(S'565890301'
S'Rea Krishna'
tp160
a(S'100001105175888'
S'Bhavya Khanna'
tp161
a(S'100002646823528'
S'Sambhavi Gami'
tp162
a(S'100001269691061'
S'Prachi Bapna'
tp163
a(S'771495243'
S'Tanmaya Jain'
tp164
a(S'580350063'
S'Aashian Bieber Stark'
tp165
a(S'100000181865114'
S'Rishabh Thakur'
tp166
a(S'691691186'
S'Samraat Sharma'
tp167
a(S'1104792536'
S'Nishant Khosia'
tp168
a(S'1014787861'
S'Satabhisa Bhaumik'
tp169
a(S'100000691151070'
S'Aakriti Batra'
tp170
a(S'100002454024185'
S'Bhumika Khandelwal'
tp171
a(S'1271538264'
S'Shobhit Singh Kohli'
tp172
a(S'100000504528895'
S'Bavleen Mehta'
tp173
a(S'100000945004451'
S'Tannaz Sidhu'
tp174
a(S'100000750577494'
S'Moti Mehra'
tp175
a(S'528022614'
S'Siddharth Marya'
tp176
a(S'1488276282'
S'Prajakta Sonkusare'
tp177
a(S'1361764306'
S'Ankita Nangia'
tp178
a(S'100000534710210'
S'Arpit Kumar'
tp179
a(S'1329366139'
S'Akash Gupta'
tp180
a(S'100004690531800'
S'Aditi Jaiswal'
tp181
a(S'100003478150749'
S'Manish Mahajan'
tp182
a(S'100002889009514'
S'Tanvi Yadav'
tp183
a(S'100004146700288'
S'Aakash Gupta'
tp184
a(S'100001756064455'
S'Shubhra Sinha'
tp185
a(S'100001093068956'
S'Vibhor Jain'
tp186
a(S'1575186048'
S'Pragya Gupta'
tp187
a(S'511624386'
S'Vyom Sati'
tp188
a(S'1804290790'
S'Yagini Aggarwal'
tp189
a(S'100001475895629'
S'Saagar Nayyar'
tp190
a(S'100000948425833'
S'Nitin Arora'
tp191
a(S'1147869983'
S'Anahita Mistry'
tp192
a(S'507806992'
S'Sonam Singh'
tp193
a(S'697297291'
S'Radhika Nair'
tp194
a(S'686125274'
S'Simrat Khanuja'
tp195
a(S'1059474613'
S'Yashima Puri'
tp196
a(S'100000533220695'
S'Pratik Satija'
tp197
a(S'1545101685'
S'Eshaa Wahie'
tp198
a(S'1254736260'
S'Rishab Guglani'
tp199
a(S'100001191428775'
S'Nikita Bansal'
tp200
a(S'1276887653'
S'Maani Kul'
tp201
a(S'1122953374'
S'Shivam Rana'
tp202
a(S'1344200409'
S'Tanvi Varshney'
tp203
a(S'100001422965376'
S'Aditya Mishra'
tp204
a(S'1720980350'
S'Manish Sharma'
tp205
a(S'100000251105379'
S'Saniya Rao'
tp206
a(S'100000114542097'
S'Nishant Yadav'
tp207
a(S'100000299205598'
S'Shreyas Classieguy'
tp208
a(S'1063582875'
S'Ayushi Singh'
tp209
a(S'100002436534011'
S'Abhilasha Guha'
tp210
a(S'100000485390866'
S'Kartikeya Pandey'
tp211
a(S'100000283158595'
S'Suryaa Bhatia'
tp212
a(S'650274444'
S'Hrishikesh Vader Mulabagula'
tp213
a(S'581616430'
S'Ainesh Ahluwalia'
tp214
a(S'1496441718'
S'Karan Sud'
tp215
a(S'1808469064'
S'Prabhat Garg'
tp216
a(S'1800325090'
S'Veena Sangar'
tp217
a(S'1119014350'
S'Vishesh Khanna'
tp218
a(S'532742043'
S'Anumita Bhattacharyya'
tp219
a(S'100000403891352'
S'Garima Ladwal'
tp220
a(S'1123062946'
S'Tarini Verma'
tp221
a(S'100001978242838'
S'Akshay Tank'
tp222
a(S'780973987'
S'Madhuvanthi Senthilkumar'
tp223
a(S'645533267'
S'Lakshya Vohra'
tp224
a(S'100001686462198'
S'Saarthak Ghosh'
tp225
a(S'1569671728'
S'Akhil Sharma'
tp226
a(S'100002833318343'
S'Garima Gupta'
tp227
a(S'1025143763'
S'Abhinav Yadav'
tp228
a(S'100000186864245'
S'Shreya Sikka'
tp229
a(S'100004015101993'
S'Harman Sohi'
tp230
a(S'1051006929'
S'Mudita Yadav'
tp231
a(S'1353383415'
S'Tribeni Das'
tp232
a(S'100000502428455'
S'Dushyant Mahajan'
tp233
a(S'714510612'
S'Siddhant Sharma'
tp234
a(S'100000804576560'
S'Pankaj Sahab'
tp235
a(S'1461458624'
S'Shiven Luthra'
tp236
a(S'1504064409'
S'Siddarth Broly Mehra'
tp237
a(S'1352345692'
S'Gazal Juneja'
tp238
a(S'1538331406'
S'Varun Singh Ahluwalia'
tp239
a(S'100001169076132'
S'Aishika Dutta'
tp240
a(S'1139589204'
S'Pratyush Kr'
tp241
a(S'100000932004538'
S'Shashank Sharma'
tp242
a(S'1629579276'
S'Uday Manucha'
tp243
a(S'1414004437'
S'Omung Lalchandani'
tp244
a(S'100000192006558'
S'Aditya Duggal'
tp245
a(S'1445214126'
S'Rashmi Khanna'
tp246
a(S'100000648931629'
S'Rishabh Jain'
tp247
a(S'100001751682760'
S'Saloni Rastogi'
tp248
a(S'100000550285904'
S'Latika Varshney Jain'
tp249
a(S'100001388958019'
S'Anuj Sahal'
tp250
a(S'1211324443'
S'Ashna Mehta'
tp251
a(S'1059407092'
S'Bharat Katyayan'
tp252
a(S'100001039000790'
S'Charvi Kataria'
tp253
a(S'1451472806'
S'Agrim Singhal'
tp254
a(S'100002531452170'
S'Divya Tara'
tp255
a(S'1411608839'
S'Aishwarya Rao'
tp256
a(S'100001585704963'
S'Aalia Tausif'
tp257
a(S'100004251014548'
S'Kanishk Anand Sharma'
tp258
a(S'1360318172'
S'Karan Singh'
tp259
a(S'1159644597'
S'Shavika Agrawal'
tp260
a(S'1354864021'
S'Aishwarya Sivaramakrishnan'
tp261
a(S'533352117'
S'Deep Zabakh'
tp262
a(S'1365931656'
S'Kshitij Kasturia'
tp263
a(S'656475621'
S'Smrithi Senthilkumar'
tp264
a(S'1573689227'
S'Meghal Karki'
tp265
a(S'1393065707'
S'Shivangnee Sharma'
tp266
a(S'100001257517098'
S'Angad Walia'
tp267
a(S'100000981898948'
S'Sanjeev Singh'
tp268
a(S'100001565952809'
S'Devaang Mehrotra'
tp269
a(S'1029171052'
S'Karan Jhunja'
tp270
a(S'1208829841'
S'Shashank Shekhar'
tp271
a(S'703826199'
S'Rachiyta Jain'
tp272
a(S'1105069442'
S'Sayan Sidha Das'
tp273
a(S'100000933580381'
S'Kritika Saxena'
tp274
a(S'1738766429'
S'Vineet Dixit'
tp275
a(S'1818726078'
S'Mehak Bajaj'
tp276
a(S'100000568528437'
S'Yashika Nijhawan'
tp277
a(S'100000500421057'
S'Himanshu Sharma'
tp278
a(S'1704619804'
S'Raunaq Khanna'
tp279
a(S'100001776377373'
S'Sophia Sharda'
tp280
a(S'1302968490'
S'Jyoti Gupta'
tp281
a(S'100000598147212'
S'Simran Nandwani'
tp282
a(S'100000878001428'
S'Aditya Jain'
tp283
a(S'1824967142'
S'Maloshree Sanyal'
tp284
a(S'100000963394457'
S'Tushar Kalra'
tp285
a(S'1407372088'
S'Shounak Joshi'
tp286
a(S'100000619892650'
S'Mayank Dawra'
tp287
a(S'100000015772088'
S'Sana Khan'
tp288
a(S'100000114484540'
S'Shubhanshu Rai'
tp289
a(S'1058724125'
S'Chirantan Ghanekar'
tp290
a(S'100001073985938'
S'Mallika Kumar'
tp291
a(S'771127958'
S'Srishti Bhargava'
tp292
a(S'1354073232'
S'Sohil Sharma'
tp293
a(S'1323450236'
S'\\u0905\\u092d\\u093f\\u0937\\u0947\\u0915 \\u092e\\u0932\\u093f\\u0915'
tp294
a(S'100000550191493'
S'Shifa Iqbal'
tp295
a(S'100000575386272'
S'Pranay Billie Sharma'
tp296
a(S'1228051576'
S'Tushita Dogra'
tp297
a(S'1500601997'
S'Meenakshi Gupta'
tp298
a(S'100002056969983'
S'Shaurya Saxena'
tp299
a(S'100000708925409'
S'Aishwarya Nair'
tp300
a(S'100007720114302'
S'Shefali Lohia'
tp301
a(S'100002344896791'
S'Keerthana Lochana'
tp302
a(S'1734579726'
S'Deepanshu Juneja'
tp303
a(S'555694883'
S'Rishaal Rajan'
tp304
a(S'100003221985597'
S'Shubham Mittal'
tp305
a(S'1464961297'
S'Chiraag Khurana'
tp306
a(S'100001865433055'
S'Prakhar Goel'
tp307
a(S'1022535307'
S'Sakshi Malik'
tp308
a(S'100000084980365'
S'Medha Bhadauria'
tp309
a(S'100001768474405'
S'Advitya Patni'
tp310
a(S'100000322207536'
S'Shikhar Golash'
tp311
a(S'100001022321407'
S'Karanpal Singh'
tp312
a(S'1096561530'
S'Ayushi Nevatia'
tp313
a(S'100000080861609'
S'Shubham Mehra'
tp314
a(S'100000806019897'
S'Mansha Singh'
tp315
a(S'1497722730'
S'Sanya Malik'
tp316
a(S'1095604673'
S'Sonal Khurana'
tp317
a(S'547571325'
S'Saurabh Joshi'
tp318
a(S'1316054490'
S'Sparsh Gupta'
tp319
a(S'1277553894'
S'Tusharika Mishra'
tp320
a(S'1203801971'
S'Pragya Gupta'
tp321
a(S'100001046045384'
S'Deepali Goyal'
tp322
a(S'100001887980944'
S'Supriya Agrawal'
tp323
a(S'100002726720405'
S'Ashish Kumar'
tp324
a(S'100000320962105'
S'Ishan Dhar'
tp325
a(S'1743166042'
S'Aishwarya Borgohain'
tp326
a(S'100004660238628'
S'Abhishek Srivastava'
tp327
a(S'100000582022832'
S'Jay Singh Patel'
tp328
a(S'723780501'
S'Chitrali Khanna'
tp329
a(S'779432234'
S'Sagnik Ghosh'
tp330
a(S'100001022465422'
S'Divyakshi Satija'
tp331
a(S'1575387342'
S'Ayush Magow'
tp332
a(S'1621759556'
S'Ishan Piplani'
tp333
a(S'1307892825'
S'Manvi Kathuria'
tp334
a(S'1066046001'
S'Chhaya Yadav'
tp335
a(S'100003995715462'
S'Jyoti Lohia'
tp336
a(S'1348333804'
S'Satvik Kumar'
tp337
a(S'100001876207026'
S'Nikita Malhotra'
tp338
a(S'1037542495'
S'Anvii Gupta'
tp339
a(S'734137238'
S'Malvika Elango'
tp340
a(S'100000141096198'
S'Sanjoli Sirohi'
tp341
a(S'1773773613'
S'Udaydeep Jindal'
tp342
a(S'1480172177'
S'Akshita Dhaka'
tp343
a(S'100001911470780'
S'Kangan Jain'
tp344
a(S'1448798355'
S'Eshaan Sud'
tp345
a(S'100001514793292'
S'Deepali Gupta'
tp346
a(S'1463617704'
S'Lavanya Kashyap'
tp347
a(S'1593215535'
S'Tushar Rana'
tp348
a(S'738201763'
S'Rohan Bhutani'
tp349
a(S'100006152652607'
S'Rrohan Gupta'
tp350
a(S'100006028176835'
S'Pallavi Tiwary'
tp351
a(S'100002372665105'
S'Tanya Navin Kohli'
tp352
a(S'1065592990'
S'Rahul Wahi'
tp353
a(S'1249520381'
S'Senaara Ailawadi'
tp354
a(S'1370353604'
S'Ketan Bir Sharma'
tp355
a(S'100001720104208'
S'Aman Chhabra'
tp356
a(S'100000189084963'
S'Simran Nayyar'
tp357
a(S'100003246551546'
S'Akshey Popli'
tp358
a(S'100002248223006'
S'Nitish Thakur'
tp359
a(S'1469874091'
S'Rohan Vachani'
tp360
a(S'100000552124749'
S'Karan Grover'
tp361
a(S'1541627954'
S'Vibhor Batra'
tp362
a(S'1501250693'
S'Madhur Malhotra'
tp363
a(S'1517926379'
S'Nitash Anklesaria'
tp364
a(S'575026109'
S'Emaan Kazmi'
tp365
a(S'100005635297905'
S'Ankita Gaur'
tp366
a(S'1771119816'
S'Yayati Dinesh'
tp367
a(S'637152863'
S'Akriti Paracer'
tp368
a(S'100003745491313'
S'Swathi Swargam'
tp369
a(S'1099298794'
S'Mallika Singh'
tp370
a(S'100000883276715'
S'Avni Gupta'
tp371
a(S'764954055'
S'Samir Bharadwaj'
tp372
a(S'1610304891'
S'Pooja Luthra'
tp373
a(S'100000549770470'
S'Vinayak Prasad'
tp374
a(S'100005980114758'
S'Sagar Gulati'
tp375
a(S'100000477604349'
S'Divij Papneja'
tp376
a(S'100003156151086'
S'Neelesh Mehrotra'
tp377
a(S'1301674525'
S'Poorvi Singh Chaudhary'
tp378
a(S'100001000929296'
S'Aditai Puri'
tp379
a(S'100002144569770'
S'Shreya Sahoo'
tp380
a(S'1484106403'
S'Dhrthi Nanda'
tp381
a(S'1810033102'
S'Ajay Kundu'
tp382
a(S'100003790655541'
S'Prakriti Kohli'
tp383
a(S'1670505368'
S'Anjani Batra'
tp384
a(S'100000439988502'
S'Parth Prabhakar'
tp385
a(S'1579164397'
S'Prateik Lalwani'
tp386
a(S'100001101793983'
S'Akshat Singh'
tp387
a(S'1254197513'
S'Ashish Gupta'
tp388
a(S'1041122316'
S'Pallavi Arora'
tp389
a(S'100004177990656'
S'Aditi Bansal'
tp390
a(S'1152762359'
S'Anvit Rai'
tp391
a(S'652190748'
S'Nishant Sharma'
tp392
a(S'100000966934618'
S'Shubham Aggarwal'
tp393
a(S'1491125726'
S'Gagan Sehgal'
tp394
a(S'1518398797'
S'Shubham Sharma'
tp395
a(S'1511150949'
S'Krishna Vinod'
tp396
a(S'1481226246'
S'Aastha Nangia'
tp397
a(S'100004087904540'
S'Akanksha Singh'
tp398
a(S'100003947259553'
S'Yashvi Dhal'
tp399
a(S'100001053066078'
S'Deepankar Mathur'
tp400
a(S'100000887960652'
S'Yashika Nijhawan'
tp401
a(S'1505384693'
S'Arunima Bhattacharya'
tp402
a(S'1049852330'
S'Aishwarya Karnataki'
tp403
a(S'100000967299396'
S'Krti Yadav'
tp404
a(S'1680923793'
S'Khwab Chawla'
tp405
a(S'100000088119384'
S'Neeharika Sharma'
tp406
a(S'610626907'
S'Soven Trehan'
tp407
a(S'100001282717192'
S'Poornima Yadav'
tp408
a(S'1623751104'
S'Prachi Krazygal'
tp409
a(S'100000317640535'
S'Aditya Jha'
tp410
a(S'1505671786'
S'Abhishek Gupta'
tp411
a(S'100001298158607'
S'Roseline Pandian'
tp412
a(S'1796719704'
S'Apoorva Somani'
tp413
a(S'100003984677797'
S'Aayushi Agrawal'
tp414
a(S'1827189679'
S'Shaurya Saxena'
tp415
a(S'1228128020'
S'Amit Gupta'
tp416
a(S'100001752361618'
S'Monisha Sinha'
tp417
a(S'100000469135075'
S'Eeshita Verma'
tp418
a(S'620887802'
S'Yash Choubey'
tp419
a(S'1406029000'
S'Hemant Gulia'
tp420
a(S'100003491167734'
S'Parth Prabhakar'
tp421
a(S'100000010213198'
S'Chintan Khushal Gotecha'
tp422
a(S'1493790519'
S'SvanyaMedha Ahuja'
tp423
a(S'1249982927'
S'Saikruth Rao'
tp424
a(S'1042945244'
S'Akshay Verma'
tp425
a(S'1087120385'
S'Rohan Sadana'
tp426
a(S'1084796945'
S'Nitish Chandan'
tp427
a(S'100003745210107'
S'Akash Tiwari'
tp428
a(S'1431082255'
S'Jessica Walia'
tp429
a(S'1844349849'
S'Shreya Thukral'
tp430
a(S'1055642143'
S'Kaustav Gupta'
tp431
a(S'563687839'
S'Arpeet Thethi'
tp432
a(S'1228423052'
S'Kashish Gajrawala'
tp433
a(S'1815523615'
S'Janice Verghese'
tp434
a(S'100004057702258'
S'Vaidehi Gaur'
tp435
a(S'1207780999'
S'Lohit Parmar'
tp436
a(S'100001954609155'
S'Jitesh Malhotra'
tp437
a(S'1345791836'
S'Saumya Varshney'
tp438
a(S'100000188640364'
S'Maansi Sharma'
tp439
a(S'799788850'
S'Rishab Mittal'
tp440
a(S'1317540345'
S'Harshit Saxena'
tp441
a(S'100000071485166'
S'Mannu Sharma'
tp442
a(S'1627965349'
S'Ayon Dey'
tp443
a(S'100003858386749'
S'Anusha Agarwal'
tp444
a(S'100000735578875'
S'Deeksha Chauhan'
tp445
a(S'1371607766'
S'Shefali Naik'
tp446
a(S'1421044970'
S'Rahul Gupta'
tp447
a(S'100000152396490'
S'Pranshu Singh Yadav'
tp448
a(S'100001216659066'
S'Nitin Chhillar'
tp449
a(S'1162681990'
S'Bhavya Bhatia'
tp450
a(S'1299395924'
S'Neeraja Raju'
tp451
a(S'100002307714693'
S'Rashika Singh Mehra'
tp452
a(S'1594149019'
S'Jatin Choudhary'
tp453
a(S'1230491986'
S'Pallavi Goyal'
tp454
a(S'757878919'
S'Varun Narain'
tp455
a(S'100001564498842'
S'Saurabh Das'
tp456
a(S'1468207983'
S'Vidhi Arora'
tp457
a(S'1535479330'
S'Yugaastha Saxena'
tp458
a(S'100001059493651'
S'Shuvoneel Chakraborty'
tp459
a(S'650011384'
S'Deepa Gulati Chugh'
tp460
a(S'100001469848464'
S'Akanksha Gupta'
tp461
a(S'1589061647'
S'Rohan Singh'
tp462
a(S'550771106'
S'Shubhankar Mathur'
tp463
a(S'100001348887246'
S'Ayush Jaiswal'
tp464
a(S'100004666621790'
S'Osheen Singh'
tp465
a(S'100001589592090'
S'Kartik Arora'
tp466
a(S'564473338'
S'Poorva Nangia'
tp467
a(S'100003225461686'
S'Shannon Bhati'
tp468
a(S'1476362194'
S'Akshita Singh'
tp469
a(S'1763308225'
S'Nisha Raju'
tp470
a(S'100000527702182'
S'Ayush Kundra'
tp471
a(S'648418303'
S'Shaleen Bhasin'
tp472
a(S'100000519390621'
S'Irikaa Pilania'
tp473
a(S'1018636600'
S'Pranay Billie Sharma'
tp474
a(S'100000009664376'
S'Shantanu Lakhotia'
tp475
a(S'1458318513'
S'Saman Jain'
tp476
a(S'100001729675495'
S'Devansh Jain'
tp477
a(S'1001316862'
S'Karanvir Singh'
tp478
a(S'1041676980'
S'Mehak Arora'
tp479
a(S'614227014'
S'Divyanshu Agarwal'
tp480
a(S'100003807452358'
S'Tanvi Garg'
tp481
a(S'905250112'
S'Chiti Chopra'
tp482
a(S'1645957329'
S'Aakash Thakran'
tp483
a(S'100003076241425'
S'Vaishali Soni'
tp484
a(S'100001761960598'
S'Navneet Singh'
tp485
a(S'703357812'
S'Ritu Sharma'
tp486
a(S'100000513953764'
S'Akanksha Gupta'
tp487
asS'id'
p488
S'1428100130'
p489
s.