(dp1
S'friends'
p2
(lp3
(S'100005862753398'
p4
S'Simran Thomson'
tp5
a(S'1775338425'
p6
S'Karan Sharma'
tp7
a(S'100000934211593'
p8
S'Rakesh Mirpuri'
tp9
a(S'1228098343'
p10
S'Marilyn Katherine Dyas'
tp11
a(S'554725364'
p12
S'Karan Kothari'
tp13
a(S'1473720388'
p14
S'Kalyani Sharma'
tp15
a(S'100007817521540'
p16
S'Jatin Kachhala'
tp17
a(S'1537516388'
p18
S'Gunjan Lodha'
tp19
a(S'100000499386999'
p20
S'Kavinesh Thyagarajan'
tp21
a(S'1477123819'
p22
S'Sushant Agarwal'
tp23
a(S'1677083790'
p24
S'Shahazim Samnani'
tp25
a(S'100001581873612'
p26
S'Agnel Panickar'
tp27
a(S'100000012260483'
p28
S'Akash Alok Vartak'
tp29
a(S'100000313503890'
p30
S'Nikhil Pagaria'
tp31
a(S'100000613421791'
p32
S'Raj Dagliya'
tp33
a(g4
S'Simran Thomson'
tp34
a(g6
S'Karan Sharma'
tp35
a(g8
S'Rakesh Mirpuri'
tp36
a(g10
S'Marilyn Katherine Dyas'
tp37
a(g16
S'Jatin Kachhala'
tp38
a(S'100000107328533'
p39
S'Vaidehi \\u0162 BaviSkar'
tp40
a(g12
S'Karan Kothari'
tp41
a(g14
S'Kalyani Sharma'
tp42
a(g18
S'Gunjan Lodha'
tp43
a(g20
S'Kavinesh Thyagarajan'
tp44
a(g22
S'Sushant Agarwal'
tp45
a(S'1242686454'
p46
S'Yash Lath'
tp47
a(g26
S'Agnel Panickar'
tp48
a(g24
S'Shahazim Samnani'
tp49
a(g28
S'Akash Alok Vartak'
tp50
a(g12
S'Karan Kothari'
tp51
a(S'674864807'
p52
S'Neesha Patel'
tp53
a(g39
S'Vaidehi \\u0162 BaviSkar'
tp54
a(g32
S'Raj Dagliya'
tp55
a(g8
S'Rakesh Mirpuri'
tp56
a(g30
S'Nikhil Pagaria'
tp57
a(g10
S'Marilyn Katherine Dyas'
tp58
a(g4
S'Simran Thomson'
tp59
a(g16
S'Jatin Kachhala'
tp60
a(g6
S'Karan Sharma'
tp61
a(g14
S'Kalyani Sharma'
tp62
a(g26
S'Agnel Panickar'
tp63
a(g18
S'Gunjan Lodha'
tp64
a(g46
S'Yash Lath'
tp65
a(g20
S'Kavinesh Thyagarajan'
tp66
a(g22
S'Sushant Agarwal'
tp67
a(g24
S'Shahazim Samnani'
tp68
a(g28
S'Akash Alok Vartak'
tp69
a(S'1821504152'
p70
S'Kanika Shetty'
tp71
a(S'100004343317495'
p72
S'Naman Mander'
tp73
a(S'100000612201559'
p74
S'Vadapatra Raghavan'
tp75
a(S'100001228391504'
p76
S'Deepali Tanna'
tp77
a(g30
S'Nikhil Pagaria'
tp78
a(g52
S'Neesha Patel'
tp79
a(S'100000022006397'
p80
S'Mainak Kundu'
tp81
a(S'100000164078514'
p82
S'Rohan Mansukhe'
tp83
a(g32
S'Raj Dagliya'
tp84
a(S'100004981896221'
p85
S'Samuel Paul'
tp86
a(S'1659977640'
p87
S'Rutuja Kulkarni'
tp88
a(S'100001148861905'
p89
S'Niharika Salunke'
tp90
a(S'100000209265172'
p91
S'Pal Unadkat'
tp92
a(S'1021661706'
p93
S'Anurag Goel'
tp94
a(S'100001502554113'
p95
S'Revati Taware'
tp96
a(S'100005165825760'
p97
S'Siddhant Pradhan'
tp98
a(S'100000897393064'
p99
S'Aadi Mistry'
tp100
a(g70
S'Kanika Shetty'
tp101
a(g74
S'Vadapatra Raghavan'
tp102
a(S'100001294744519'
p103
S'Piyush Naik'
tp104
a(g76
S'Deepali Tanna'
tp105
a(g85
S'Samuel Paul'
tp106
a(g82
S'Rohan Mansukhe'
tp107
a(S'100000219481993'
p108
S'Mithila Deshmukh'
tp109
a(g80
S'Mainak Kundu'
tp110
a(S'1523157767'
p111
S'Devang Gandhi'
tp112
a(g70
S'Kanika Shetty'
tp113
a(g91
S'Pal Unadkat'
tp114
a(S'100002061592197'
p115
S'Kirti Thakker'
tp116
a(g89
S'Niharika Salunke'
tp117
a(g103
S'Piyush Naik'
tp118
a(g74
S'Vadapatra Raghavan'
tp119
a(g76
S'Deepali Tanna'
tp120
a(g93
S'Anurag Goel'
tp121
a(g95
S'Revati Taware'
tp122
a(g97
S'Siddhant Pradhan'
tp123
a(g87
S'Rutuja Kulkarni'
tp124
a(g99
S'Aadi Mistry'
tp125
a(g72
S'Naman Mander'
tp126
a(g85
S'Samuel Paul'
tp127
a(g82
S'Rohan Mansukhe'
tp128
a(g108
S'Mithila Deshmukh'
tp129
a(g80
S'Mainak Kundu'
tp130
a(g111
S'Devang Gandhi'
tp131
a(S'100000429100516'
p132
S'Divya Buddhiwant'
tp133
a(g91
S'Pal Unadkat'
tp134
a(g115
S'Kirti Thakker'
tp135
a(g89
S'Niharika Salunke'
tp136
a(S'100000619586347'
p137
S'Divesh Ramrakhiany'
tp138
a(g103
S'Piyush Naik'
tp139
a(S'100000593436523'
p140
S'Mohit Prakash'
tp141
a(g93
S'Anurag Goel'
tp142
a(g95
S'Revati Taware'
tp143
a(g97
S'Siddhant Pradhan'
tp144
a(g87
S'Rutuja Kulkarni'
tp145
a(g99
S'Aadi Mistry'
tp146
a(g72
S'Naman Mander'
tp147
a(S'100003399619813'
p148
S'Aditya Shete Patil'
tp149
a(S'100000319128459'
p150
S'Subhasree V Iyer'
tp151
a(g108
S'Mithila Deshmukh'
tp152
a(S'100000014930257'
p153
S'Abhishek Khandelwal'
tp154
a(g111
S'Devang Gandhi'
tp155
a(g132
S'Divya Buddhiwant'
tp156
a(S'100002787495603'
p157
S'Arshiya Dutt'
tp158
a(g115
S'Kirti Thakker'
tp159
a(S'100001074648626'
p160
S'Ryan John'
tp161
a(g140
S'Mohit Prakash'
tp162
a(S'100000956842507'
p163
S'Aishwarya Misal'
tp164
a(S'1337801152'
p165
S'Ashna Agarwal'
tp166
a(S'100001482018615'
p167
S'Shrikant Jadhav'
tp168
a(S'100001808060623'
p169
S'Pawan Chavhan'
tp170
a(S'100003035256634'
p171
S'Nikita Shah'
tp172
a(S'100000279816745'
p173
S'Avinash Kshirsagar'
tp174
a(g137
S'Divesh Ramrakhiany'
tp175
a(S'100001726496449'
p176
S'J\\u00e3\\u00ff Pawar'
tp177
a(g148
S'Aditya Shete Patil'
tp178
a(g150
S'Subhasree V Iyer'
tp179
a(S'1178524750'
p180
S'Ketan Sowani'
tp181
a(g153
S'Abhishek Khandelwal'
tp182
a(S'100000404809189'
p183
S'Priyank Passey'
tp184
a(g132
S'Divya Buddhiwant'
tp185
a(g157
S'Arshiya Dutt'
tp186
a(S'741007368'
p187
S'Swaraj Kardile'
tp188
a(g160
S'Ryan John'
tp189
a(g140
S'Mohit Prakash'
tp190
a(g163
S'Aishwarya Misal'
tp191
a(g165
S'Ashna Agarwal'
tp192
a(g167
S'Shrikant Jadhav'
tp193
a(g169
S'Pawan Chavhan'
tp194
a(g171
S'Nikita Shah'
tp195
a(g173
S'Avinash Kshirsagar'
tp196
a(g137
S'Divesh Ramrakhiany'
tp197
a(g176
S'J\\u00e3\\u00ff Pawar'
tp198
a(g148
S'Aditya Shete Patil'
tp199
a(g150
S'Subhasree V Iyer'
tp200
a(g180
S'Ketan Sowani'
tp201
a(g153
S'Abhishek Khandelwal'
tp202
a(g183
S'Priyank Passey'
tp203
a(S'100004556414353'
p204
S'Jerry John Murphy'
tp205
a(g157
S'Arshiya Dutt'
tp206
a(g187
S'Swaraj Kardile'
tp207
a(S'1607941619'
p208
S'Aishwarya Bafana'
tp209
a(g163
S'Aishwarya Misal'
tp210
a(g165
S'Ashna Agarwal'
tp211
a(g167
S'Shrikant Jadhav'
tp212
a(g160
S'Ryan John'
tp213
a(g169
S'Pawan Chavhan'
tp214
a(g171
S'Nikita Shah'
tp215
a(g173
S'Avinash Kshirsagar'
tp216
a(S'100000115952284'
p217
S'Lashita Dhingra'
tp218
a(g176
S'J\\u00e3\\u00ff Pawar'
tp219
a(S'1099174163'
p220
S'Rajesh Vora'
tp221
a(S'1543575971'
p222
S'Disha Rajput'
tp223
a(g180
S'Ketan Sowani'
tp224
a(S'503536239'
p225
S'Nikita Jain'
tp226
a(g183
S'Priyank Passey'
tp227
a(g204
S'Jerry John Murphy'
tp228
a(S'845590144'
p229
S'Taushik Sidhu'
tp230
a(g187
S'Swaraj Kardile'
tp231
a(g208
S'Aishwarya Bafana'
tp232
a(S'1618009158'
p233
S'Janhavi Kapadia'
tp234
a(S'752044856'
p235
S'Radhika Oza'
tp236
a(S'100001974173597'
p237
S'Saamarth Vaish'
tp238
a(S'100001823165660'
p239
S'Arjun Brar'
tp240
a(S'100000104214553'
p241
S'Kshitij Nair'
tp242
a(S'1745937070'
p243
S'Indranil Barry'
tp244
a(S'1562661226'
p245
S'Nikhil Sahai'
tp246
a(g217
S'Lashita Dhingra'
tp247
a(g222
S'Disha Rajput'
tp248
a(g229
S'Taushik Sidhu'
tp249
a(g220
S'Rajesh Vora'
tp250
a(g208
S'Aishwarya Bafana'
tp251
a(g204
S'Jerry John Murphy'
tp252
a(g225
S'Nikita Jain'
tp253
a(S'1802827829'
p254
S'Alraaz Saiyed'
tp255
a(g241
S'Kshitij Nair'
tp256
a(S'599222631'
p257
S'Vineet Tolia'
tp258
a(S'100001281075374'
p259
S'Diana Kapper'
tp260
a(g237
S'Saamarth Vaish'
tp261
a(g235
S'Radhika Oza'
tp262
a(g233
S'Janhavi Kapadia'
tp263
a(S'100000995238677'
p264
S'Tanya Mehta'
tp265
a(g243
S'Indranil Barry'
tp266
a(g245
S'Nikhil Sahai'
tp267
a(g222
S'Disha Rajput'
tp268
a(g229
S'Taushik Sidhu'
tp269
a(g220
S'Rajesh Vora'
tp270
a(g217
S'Lashita Dhingra'
tp271
a(S'1325736769'
p272
S'Niharika Gogate'
tp273
a(S'100001637170314'
p274
S'Rhea Rebello'
tp275
a(g225
S'Nikita Jain'
tp276
a(g254
S'Alraaz Saiyed'
tp277
a(g241
S'Kshitij Nair'
tp278
a(g239
S'Arjun Brar'
tp279
a(g257
S'Vineet Tolia'
tp280
a(g259
S'Diana Kapper'
tp281
a(g237
S'Saamarth Vaish'
tp282
a(g235
S'Radhika Oza'
tp283
a(g233
S'Janhavi Kapadia'
tp284
a(g264
S'Tanya Mehta'
tp285
a(g243
S'Indranil Barry'
tp286
a(g245
S'Nikhil Sahai'
tp287
a(S'100001240046488'
p288
S'Dolly Vyas Sanghvi'
tp289
a(S'100000905332553'
p290
S'Ankit Sharma'
tp291
a(S'100006469722087'
p292
S'Arunav Chakravarty'
tp293
a(S'100000950649884'
p294
S'Akanksha Bhatt'
tp295
a(g272
S'Niharika Gogate'
tp296
a(g274
S'Rhea Rebello'
tp297
a(S'1506457340'
p298
S'Amman Singh'
tp299
a(g254
S'Alraaz Saiyed'
tp300
a(g288
S'Dolly Vyas Sanghvi'
tp301
a(g290
S'Ankit Sharma'
tp302
a(g292
S'Arunav Chakravarty'
tp303
a(S'100001743297622'
p304
S'Shardul Oza'
tp305
a(g294
S'Akanksha Bhatt'
tp306
a(S'1423497214'
p307
S'Saurabh Misal'
tp308
a(g259
S'Diana Kapper'
tp309
a(S'100008018353407'
p310
S'Ajay Shinde'
tp311
a(S'100000487829145'
p312
S'Aishwarya Wadkar'
tp313
a(g257
S'Vineet Tolia'
tp314
a(g239
S'Arjun Brar'
tp315
a(g274
S'Rhea Rebello'
tp316
a(g272
S'Niharika Gogate'
tp317
a(g298
S'Amman Singh'
tp318
a(g264
S'Tanya Mehta'
tp319
a(S'100000838160353'
p320
S'Abhishek Parole'
tp321
a(S'100000998958721'
p322
S'Viraj Thakur'
tp323
a(S'100000551644235'
p324
S'Shreyans Lalwani'
tp325
a(g288
S'Dolly Vyas Sanghvi'
tp326
a(g290
S'Ankit Sharma'
tp327
a(g292
S'Arunav Chakravarty'
tp328
a(g304
S'Shardul Oza'
tp329
a(g294
S'Akanksha Bhatt'
tp330
a(g307
S'Saurabh Misal'
tp331
a(S'100002580311574'
p332
S'Patricia Storey'
tp333
a(g310
S'Ajay Shinde'
tp334
a(g312
S'Aishwarya Wadkar'
tp335
a(S'100002387718918'
p336
S'Shriyash Dhumal'
tp337
a(S'100005335021330'
p338
S'Ayesha Chavan'
tp339
a(S'100000718528163'
p340
S'Nikhil Rathod'
tp341
a(S'100000298062925'
p342
S'Bhavesh Rachcha'
tp343
a(g298
S'Amman Singh'
tp344
a(S'100002739473187'
p345
S'Dipankar Sharma'
tp346
a(g320
S'Abhishek Parole'
tp347
a(g322
S'Viraj Thakur'
tp348
a(g324
S'Shreyans Lalwani'
tp349
a(S'1157121986'
p350
S'Rishi Karia'
tp351
a(S'100001140343770'
p352
S'Aishwarya Bhise'
tp353
a(S'100006614164183'
p354
S'Anushree Repe'
tp355
a(g304
S'Shardul Oza'
tp356
a(S'1016997739'
p357
S'Krish Pherwani'
tp358
a(g307
S'Saurabh Misal'
tp359
a(g332
S'Patricia Storey'
tp360
a(g310
S'Ajay Shinde'
tp361
a(g312
S'Aishwarya Wadkar'
tp362
a(g336
S'Shriyash Dhumal'
tp363
a(g338
S'Ayesha Chavan'
tp364
a(g340
S'Nikhil Rathod'
tp365
a(g342
S'Bhavesh Rachcha'
tp366
a(S'1589179197'
p367
S'Megha Rao'
tp368
a(g320
S'Abhishek Parole'
tp369
a(g322
S'Viraj Thakur'
tp370
a(g345
S'Dipankar Sharma'
tp371
a(g324
S'Shreyans Lalwani'
tp372
a(g350
S'Rishi Karia'
tp373
a(g352
S'Aishwarya Bhise'
tp374
a(g354
S'Anushree Repe'
tp375
a(S'1461262896'
p376
S'Vishwajeet Paradkar'
tp377
a(g357
S'Krish Pherwani'
tp378
a(S'100002274230318'
p379
S'Sanjhana Raghavan'
tp380
a(g332
S'Patricia Storey'
tp381
a(S'1309472979'
p382
S'Abhishek Bairy'
tp383
a(S'100000491103726'
p384
S'Sayan Mitra'
tp385
a(g336
S'Shriyash Dhumal'
tp386
a(g338
S'Ayesha Chavan'
tp387
a(g340
S'Nikhil Rathod'
tp388
a(g342
S'Bhavesh Rachcha'
tp389
a(g367
S'Megha Rao'
tp390
a(S'1544502824'
p391
S'Kinnari Doshi'
tp392
a(S'581593674'
p393
S'Rahil Nerkar'
tp394
a(g345
S'Dipankar Sharma'
tp395
a(S'100003957076896'
p396
S'Jacqueline Dobson'
tp397
a(g350
S'Rishi Karia'
tp398
a(g352
S'Aishwarya Bhise'
tp399
a(g354
S'Anushree Repe'
tp400
a(g376
S'Vishwajeet Paradkar'
tp401
a(g357
S'Krish Pherwani'
tp402
a(g379
S'Sanjhana Raghavan'
tp403
a(S'100001183778839'
p404
S'Pranav Ragalwar'
tp405
a(g382
S'Abhishek Bairy'
tp406
a(g384
S'Sayan Mitra'
tp407
a(S'1427470133'
p408
S'Prerna Bhalla'
tp409
a(S'100000252537439'
p410
S'Deep Thackar'
tp411
a(S'100000362164321'
p412
S'Aakash Kataria'
tp413
a(S'100003072866173'
p414
S'Yashal Patil'
tp415
a(g367
S'Megha Rao'
tp416
a(g391
S'Kinnari Doshi'
tp417
a(g393
S'Rahil Nerkar'
tp418
a(S'100000746227187'
p419
S'Alisha Lalani'
tp420
a(g396
S'Jacqueline Dobson'
tp421
a(S'100002022228005'
p422
S'Devesh Vaidya'
tp423
a(S'1325957270'
p424
S'Aaliya Khan'
tp425
a(S'100000314792243'
p426
S'Jonathan Young'
tp427
a(g376
S'Vishwajeet Paradkar'
tp428
a(S'1600567801'
p429
S'Praneet Samal'
tp430
a(g379
S'Sanjhana Raghavan'
tp431
a(g404
S'Pranav Ragalwar'
tp432
a(g382
S'Abhishek Bairy'
tp433
a(g384
S'Sayan Mitra'
tp434
a(g408
S'Prerna Bhalla'
tp435
a(g410
S'Deep Thackar'
tp436
a(g412
S'Aakash Kataria'
tp437
a(g414
S'Yashal Patil'
tp438
a(S'100000909458865'
p439
S'Dhwani Gupta'
tp440
a(g391
S'Kinnari Doshi'
tp441
a(g393
S'Rahil Nerkar'
tp442
a(g419
S'Alisha Lalani'
tp443
a(g396
S'Jacqueline Dobson'
tp444
a(g422
S'Devesh Vaidya'
tp445
a(g424
S'Aaliya Khan'
tp446
a(g426
S'Jonathan Young'
tp447
a(S'100000101179647'
p448
S'Harshal Bafna'
tp449
a(g429
S'Praneet Samal'
tp450
a(g404
S'Pranav Ragalwar'
tp451
a(S'100000048729230'
p452
S'Rushikesh Narhare'
tp453
a(S'1582714291'
p454
S'Anirudh Rao'
tp455
a(S'649639218'
p456
S'Meera Shenoy'
tp457
a(g408
S'Prerna Bhalla'
tp458
a(g410
S'Deep Thackar'
tp459
a(g412
S'Aakash Kataria'
tp460
a(g414
S'Yashal Patil'
tp461
a(g439
S'Dhwani Gupta'
tp462
a(S'14817175'
p463
S'Tiffany McEwen'
tp464
a(S'100003949703297'
p465
S'Apoorva Ghule'
tp466
a(g419
S'Alisha Lalani'
tp467
a(S'100001770131572'
p468
S'Utkarsha Kulkarni'
tp469
a(g422
S'Devesh Vaidya'
tp470
a(g424
S'Aaliya Khan'
tp471
a(g426
S'Jonathan Young'
tp472
a(g448
S'Harshal Bafna'
tp473
a(g429
S'Praneet Samal'
tp474
a(g456
S'Meera Shenoy'
tp475
a(S'1645200517'
p476
S'Riya Sapare'
tp477
a(g454
S'Anirudh Rao'
tp478
a(S'100000593036538'
p479
S'Anshul Ahuja'
tp480
a(g439
S'Dhwani Gupta'
tp481
a(S'1475113243'
p482
S'Jeet Jagdhane'
tp483
a(S'100003396801060'
p484
S'Rahil Lakhani'
tp485
a(S'100000167979147'
p486
S'Sneha Sajjan'
tp487
a(g465
S'Apoorva Ghule'
tp488
a(g452
S'Rushikesh Narhare'
tp489
a(g463
S'Tiffany McEwen'
tp490
a(S'100003087720135'
p491
S'Jonathan Mason'
tp492
a(g468
S'Utkarsha Kulkarni'
tp493
a(S'100000385912601'
p494
S'Pratik Soni'
tp495
a(S'100002227342642'
p496
S'Abhishek Tupe'
tp497
a(g448
S'Harshal Bafna'
tp498
a(S'100001167744827'
p499
S'Anurag Saigiridhari'
tp500
a(g456
S'Meera Shenoy'
tp501
a(g476
S'Riya Sapare'
tp502
a(g454
S'Anirudh Rao'
tp503
a(g479
S'Anshul Ahuja'
tp504
a(S'100000512026081'
p505
S'Karan Pinjani'
tp506
a(g482
S'Jeet Jagdhane'
tp507
a(g484
S'Rahil Lakhani'
tp508
a(g486
S'Sneha Sajjan'
tp509
a(g465
S'Apoorva Ghule'
tp510
a(g452
S'Rushikesh Narhare'
tp511
a(g463
S'Tiffany McEwen'
tp512
a(g491
S'Jonathan Mason'
tp513
a(g468
S'Utkarsha Kulkarni'
tp514
a(g494
S'Pratik Soni'
tp515
a(S'716701347'
p516
S'Indrajit Deshmukh'
tp517
a(g496
S'Abhishek Tupe'
tp518
a(g476
S'Riya Sapare'
tp519
a(S'100000091345027'
p520
S'Udit Ekansh'
tp521
a(g499
S'Anurag Saigiridhari'
tp522
a(g505
S'Karan Pinjani'
tp523
a(g484
S'Rahil Lakhani'
tp524
a(g479
S'Anshul Ahuja'
tp525
a(S'100002391667844'
p526
S'Abhiraj Jadhav'
tp527
a(g494
S'Pratik Soni'
tp528
a(g482
S'Jeet Jagdhane'
tp529
a(g516
S'Indrajit Deshmukh'
tp530
a(S'100000394273443'
p531
S'Suparna Sahajwalla'
tp532
a(g486
S'Sneha Sajjan'
tp533
a(S'1102126311'
p534
S'Vaishnavi Rao'
tp535
a(S'100000475009771'
p536
S'Aishwarya Lohokare'
tp537
a(S'906180102'
p538
S'Niyati Kanakia'
tp539
a(g491
S'Jonathan Mason'
tp540
a(g496
S'Abhishek Tupe'
tp541
a(S'100002251447365'
p542
S'Vaibhav Gaikwad'
tp543
a(g520
S'Udit Ekansh'
tp544
a(S'680571172'
p545
S'Harjeet Rana'
tp546
a(g499
S'Anurag Saigiridhari'
tp547
a(g505
S'Karan Pinjani'
tp548
a(S'100000091051265'
p549
S'Shruti Mali'
tp550
a(S'100000224664878'
p551
S'Akshat Tyagi'
tp552
a(g526
S'Abhiraj Jadhav'
tp553
a(S'1255549297'
p554
S'Anvay Gogate'
tp555
a(S'100000456996967'
p556
S'Neha Nandre'
tp557
a(g516
S'Indrajit Deshmukh'
tp558
a(g531
S'Suparna Sahajwalla'
tp559
a(S'100000387694670'
p560
S'Mohnish Madaan'
tp561
a(g534
S'Vaishnavi Rao'
tp562
a(g536
S'Aishwarya Lohokare'
tp563
a(g538
S'Niyati Kanakia'
tp564
a(S'100002356970613'
p565
S'Aishwarya Sanjay'
tp566
a(S'1237995162'
p567
S'Khyatee Nigam'
tp568
a(g542
S'Vaibhav Gaikwad'
tp569
a(g520
S'Udit Ekansh'
tp570
a(g545
S'Harjeet Rana'
tp571
a(S'100001579543178'
p572
S'Shaurya Jaisinghani'
tp573
a(S'100003247239149'
p574
S'Shaan Kumar'
tp575
a(g549
S'Shruti Mali'
tp576
a(g551
S'Akshat Tyagi'
tp577
a(g526
S'Abhiraj Jadhav'
tp578
a(g556
S'Neha Nandre'
tp579
a(g554
S'Anvay Gogate'
tp580
a(S'100001492519677'
p581
S'Akansha Dhiwar'
tp582
a(g531
S'Suparna Sahajwalla'
tp583
a(g560
S'Mohnish Madaan'
tp584
a(g534
S'Vaishnavi Rao'
tp585
a(g536
S'Aishwarya Lohokare'
tp586
a(g538
S'Niyati Kanakia'
tp587
a(g565
S'Aishwarya Sanjay'
tp588
a(g567
S'Khyatee Nigam'
tp589
a(g542
S'Vaibhav Gaikwad'
tp590
a(S'100000982625294'
p591
S'Ishan Mishra'
tp592
a(g545
S'Harjeet Rana'
tp593
a(g572
S'Shaurya Jaisinghani'
tp594
a(g574
S'Shaan Kumar'
tp595
a(g549
S'Shruti Mali'
tp596
a(S'14802784'
p597
S'Nirav Shah'
tp598
a(g551
S'Akshat Tyagi'
tp599
a(g581
S'Akansha Dhiwar'
tp600
a(g567
S'Khyatee Nigam'
tp601
a(g554
S'Anvay Gogate'
tp602
a(S'512471221'
p603
S'Sonia Donesh Irani'
tp604
a(S'1480183370'
p605
S'Kedar Sharma'
tp606
a(g574
S'Shaan Kumar'
tp607
a(S'100006546483428'
p608
S'Monika Vashisht'
tp609
a(S'100000980583679'
p610
S'Ishan Taldekar'
tp611
a(g560
S'Mohnish Madaan'
tp612
a(S'1507173482'
p613
S'Sakshi Singal'
tp614
a(S'100000000097800'
p615
S'Rahul Gaikwad'
tp616
a(S'522041612'
p617
S'Milonee Madiyar'
tp618
a(g591
S'Ishan Mishra'
tp619
a(g556
S'Neha Nandre'
tp620
a(g565
S'Aishwarya Sanjay'
tp621
a(g572
S'Shaurya Jaisinghani'
tp622
a(g597
S'Nirav Shah'
tp623
a(S'100000284908309'
p624
S'Gavin Rodrigues'
tp625
a(g581
S'Akansha Dhiwar'
tp626
a(S'100001203767611'
p627
S'Kunal Patil'
tp628
a(S'100003739567938'
p629
S'Ambar Modi'
tp630
a(g603
S'Sonia Donesh Irani'
tp631
a(g605
S'Kedar Sharma'
tp632
a(S'1151365085'
p633
S'Disha Bhukte'
tp634
a(g608
S'Monika Vashisht'
tp635
a(g610
S'Ishan Taldekar'
tp636
a(S'100001612407574'
p637
S'Antonia Spires'
tp638
a(g613
S'Sakshi Singal'
tp639
a(g615
S'Rahul Gaikwad'
tp640
a(g617
S'Milonee Madiyar'
tp641
a(g591
S'Ishan Mishra'
tp642
a(S'1351526755'
p643
S'Neil Ambre'
tp644
a(S'100001445569006'
p645
S'Anirudha Kamthe'
tp646
a(S'707661629'
p647
S'Vyoma Shah'
tp648
a(g597
S'Nirav Shah'
tp649
a(g624
S'Gavin Rodrigues'
tp650
a(S'100002655536863'
p651
S'Ishaan Bhutada'
tp652
a(g627
S'Kunal Patil'
tp653
a(g629
S'Ambar Modi'
tp654
a(g603
S'Sonia Donesh Irani'
tp655
a(g605
S'Kedar Sharma'
tp656
a(g633
S'Disha Bhukte'
tp657
a(g608
S'Monika Vashisht'
tp658
a(g610
S'Ishan Taldekar'
tp659
a(g637
S'Antonia Spires'
tp660
a(g613
S'Sakshi Singal'
tp661
a(g615
S'Rahul Gaikwad'
tp662
a(g617
S'Milonee Madiyar'
tp663
a(S'100001501208525'
p664
S'Nikki Biradar'
tp665
a(g643
S'Neil Ambre'
tp666
a(g645
S'Anirudha Kamthe'
tp667
a(g647
S'Vyoma Shah'
tp668
a(S'548892746'
p669
S'Ali Freese'
tp670
a(g624
S'Gavin Rodrigues'
tp671
a(g651
S'Ishaan Bhutada'
tp672
a(g627
S'Kunal Patil'
tp673
a(g629
S'Ambar Modi'
tp674
a(S'100000940906370'
p675
S'Sophia Samuel'
tp676
a(S'100001383036916'
p677
S'Vivienna Longjam'
tp678
a(g633
S'Disha Bhukte'
tp679
a(S'1829320580'
p680
S'Parth Thakker'
tp681
a(S'1266229269'
p682
S'Mankirat Multani'
tp683
a(g637
S'Antonia Spires'
tp684
a(S'100000111699416'
p685
S'Fateh Hamdule'
tp686
a(S'1227039550'
p687
S'Ashnaa Changani'
tp688
a(S'100000688492091'
p689
S'Khooni Haath'
tp690
a(g664
S'Nikki Biradar'
tp691
a(g643
S'Neil Ambre'
tp692
a(g645
S'Anirudha Kamthe'
tp693
a(g647
S'Vyoma Shah'
tp694
a(g669
S'Ali Freese'
tp695
a(S'100000481762248'
p696
S'Nikhil Mali'
tp697
a(g651
S'Ishaan Bhutada'
tp698
a(S'1816044492'
p699
S'Shaan Partani'
tp700
a(g675
S'Sophia Samuel'
tp701
a(S'100001028405755'
p702
S'Pranali Shah'
tp703
a(g677
S'Vivienna Longjam'
tp704
a(S'100001717040198'
p705
S'Shwetal Sharma'
tp706
a(g680
S'Parth Thakker'
tp707
a(g682
S'Mankirat Multani'
tp708
a(S'565830372'
p709
S'Shubina Roy'
tp710
a(g685
S'Fateh Hamdule'
tp711
a(g687
S'Ashnaa Changani'
tp712
a(g689
S'Khooni Haath'
tp713
a(g664
S'Nikki Biradar'
tp714
a(S'100005008412173'
p715
S'Bablynn Longjam'
tp716
a(S'100001036282533'
p717
S'Mahesh Mudliyar'
tp718
a(S'1534415913'
p719
S'Anshveer Sahani'
tp720
a(g669
S'Ali Freese'
tp721
a(g696
S'Nikhil Mali'
tp722
a(S'100002893554371'
p723
S'Siddhart Rao'
tp724
a(g699
S'Shaan Partani'
tp725
a(g675
S'Sophia Samuel'
tp726
a(g702
S'Pranali Shah'
tp727
a(g677
S'Vivienna Longjam'
tp728
a(g705
S'Shwetal Sharma'
tp729
a(g680
S'Parth Thakker'
tp730
a(g682
S'Mankirat Multani'
tp731
a(g709
S'Shubina Roy'
tp732
a(g685
S'Fateh Hamdule'
tp733
a(g687
S'Ashnaa Changani'
tp734
a(g689
S'Khooni Haath'
tp735
a(S'1213298398'
p736
S'Saket Rallabhandi'
tp737
a(g715
S'Bablynn Longjam'
tp738
a(g717
S'Mahesh Mudliyar'
tp739
a(g719
S'Anshveer Sahani'
tp740
a(S'100000989120466'
p741
S'Priyanka Kadaganchi'
tp742
a(g696
S'Nikhil Mali'
tp743
a(g723
S'Siddhart Rao'
tp744
a(g699
S'Shaan Partani'
tp745
a(g702
S'Pranali Shah'
tp746
a(S'1601270896'
p747
S'Tahseen Shah'
tp748
a(S'764380316'
p749
S'Aashna Dave'
tp750
a(g705
S'Shwetal Sharma'
tp751
a(S'100001627616236'
p752
S'Priyanka Gupta'
tp753
a(S'1420040958'
p754
S'Abhiroop Gupta'
tp755
a(g709
S'Shubina Roy'
tp756
a(S'100001290647268'
p757
S'Sahira Karia'
tp758
a(S'773607669'
p759
S'Gurdeep Singh Batra'
tp760
a(S'688971035'
p761
S'Vedika Chamria'
tp762
a(g736
S'Saket Rallabhandi'
tp763
a(g715
S'Bablynn Longjam'
tp764
a(g717
S'Mahesh Mudliyar'
tp765
a(g719
S'Anshveer Sahani'
tp766
a(g741
S'Priyanka Kadaganchi'
tp767
a(S'1178393308'
p768
S'Sayak Ray'
tp769
a(g747
S'Tahseen Shah'
tp770
a(g752
S'Priyanka Gupta'
tp771
a(S'100001543309578'
p772
S'Larika Gadkari'
tp773
a(g761
S'Vedika Chamria'
tp774
a(g757
S'Sahira Karia'
tp775
a(g723
S'Siddhart Rao'
tp776
a(S'1469086743'
p777
S'Lynn Brigit Joy'
tp778
a(g754
S'Abhiroop Gupta'
tp779
a(g749
S'Aashna Dave'
tp780
a(S'100001564226007'
p781
S'Divya Kanike'
tp782
a(g759
S'Gurdeep Singh Batra'
tp783
a(S'1815946937'
p784
S'Akritti Agarwal'
tp785
a(g736
S'Saket Rallabhandi'
tp786
a(S'100003701790279'
p787
S'\\u00c4st\\u00e0r H\\u00eddden'
tp788
a(S'100002051831933'
p789
S'Apurva Hardikar'
tp790
a(S'626526450'
p791
S'Bhargav Srinivasa'
tp792
a(g741
S'Priyanka Kadaganchi'
tp793
a(g768
S'Sayak Ray'
tp794
a(g747
S'Tahseen Shah'
tp795
a(g752
S'Priyanka Gupta'
tp796
a(g772
S'Larika Gadkari'
tp797
a(g761
S'Vedika Chamria'
tp798
a(g757
S'Sahira Karia'
tp799
a(S'100000195326940'
p800
S'Ujjwal Dahiya'
tp801
a(g777
S'Lynn Brigit Joy'
tp802
a(g754
S'Abhiroop Gupta'
tp803
a(g749
S'Aashna Dave'
tp804
a(g781
S'Divya Kanike'
tp805
a(g759
S'Gurdeep Singh Batra'
tp806
a(g784
S'Akritti Agarwal'
tp807
a(S'1681748376'
p808
S'Sankesh Jain'
tp809
a(g787
S'\\u00c4st\\u00e0r H\\u00eddden'
tp810
a(g789
S'Apurva Hardikar'
tp811
a(g791
S'Bhargav Srinivasa'
tp812
a(S'679367756'
p813
S'Arjun Ahluwalia'
tp814
a(g768
S'Sayak Ray'
tp815
a(S'100000449504293'
p816
S'Vidya Buddhiwant'
tp817
a(S'100001040233820'
p818
S'Franky David'
tp819
a(g772
S'Larika Gadkari'
tp820
a(S'100006815769183'
p821
S'Abdul Qadir Mohd'
tp822
a(S'1469930965'
p823
S'Abhishek Bagdare'
tp824
a(g800
S'Ujjwal Dahiya'
tp825
a(g777
S'Lynn Brigit Joy'
tp826
a(S'1663607798'
p827
S'Kavya Jagannath'
tp828
a(S'1012764570'
p829
S'Lakshmi Nair'
tp830
a(g781
S'Divya Kanike'
tp831
a(S'100001240142315'
p832
S'Joshua Hembrom'
tp833
a(g784
S'Akritti Agarwal'
tp834
a(g808
S'Sankesh Jain'
tp835
a(g787
S'\\u00c4st\\u00e0r H\\u00eddden'
tp836
a(g789
S'Apurva Hardikar'
tp837
a(g791
S'Bhargav Srinivasa'
tp838
a(g813
S'Arjun Ahluwalia'
tp839
a(S'100001942827184'
p840
S'Samuel Kurian'
tp841
a(g816
S'Vidya Buddhiwant'
tp842
a(g818
S'Franky David'
tp843
a(g821
S'Abdul Qadir Mohd'
tp844
a(g823
S'Abhishek Bagdare'
tp845
a(S'100000269978339'
p846
S'Shirley Mody'
tp847
a(g827
S'Kavya Jagannath'
tp848
a(g813
S'Arjun Ahluwalia'
tp849
a(g829
S'Lakshmi Nair'
tp850
a(g808
S'Sankesh Jain'
tp851
a(g832
S'Joshua Hembrom'
tp852
a(g800
S'Ujjwal Dahiya'
tp853
a(S'100001059222134'
p854
S'Shraddha Uchale'
tp855
a(S'100000502930982'
p856
S'Pranay Bajare'
tp857
a(S'100003133115370'
p858
S'Priyansh Bhimani'
tp859
a(S'100000431851427'
p860
S'Faraz Hariyani'
tp861
a(S'100003351397901'
p862
S'Eliza Carter'
tp863
a(g816
S'Vidya Buddhiwant'
tp864
a(g818
S'Franky David'
tp865
a(S'100000834650437'
p866
S'Arefa Bootwalla'
tp867
a(g840
S'Samuel Kurian'
tp868
a(g821
S'Abdul Qadir Mohd'
tp869
a(g823
S'Abhishek Bagdare'
tp870
a(g846
S'Shirley Mody'
tp871
a(g827
S'Kavya Jagannath'
tp872
a(S'100000574630828'
p873
S'Krishna Tyagi'
tp874
a(g829
S'Lakshmi Nair'
tp875
a(S'1628364219'
p876
S'Radha Srinivasan'
tp877
a(g832
S'Joshua Hembrom'
tp878
a(S'100002316944549'
p879
S'Shivani Sapkal'
tp880
a(g854
S'Shraddha Uchale'
tp881
a(g856
S'Pranay Bajare'
tp882
a(g858
S'Priyansh Bhimani'
tp883
a(g860
S'Faraz Hariyani'
tp884
a(g862
S'Eliza Carter'
tp885
a(S'517369232'
p886
S'Diisha Doshi'
tp887
a(S'100000655733981'
p888
S'Sashaa Raco'
tp889
a(g866
S'Arefa Bootwalla'
tp890
a(g840
S'Samuel Kurian'
tp891
a(S'100000652078543'
p892
S'Suraj Kadam'
tp893
a(g846
S'Shirley Mody'
tp894
a(g873
S'Krishna Tyagi'
tp895
a(g876
S'Radha Srinivasan'
tp896
a(S'1436417975'
p897
S'Shailaja Mehta'
tp898
a(S'100000429553770'
p899
S'Anuja Bhosale'
tp900
a(g888
S'Sashaa Raco'
tp901
a(g886
S'Diisha Doshi'
tp902
a(g879
S'Shivani Sapkal'
tp903
a(S'1359888225'
p904
S'Neel Maitra'
tp905
a(g860
S'Faraz Hariyani'
tp906
a(g854
S'Shraddha Uchale'
tp907
a(g858
S'Priyansh Bhimani'
tp908
a(g856
S'Pranay Bajare'
tp909
a(g866
S'Arefa Bootwalla'
tp910
a(g892
S'Suraj Kadam'
tp911
a(S'100001926693964'
p912
S'Pratik Patkar'
tp913
a(g862
S'Eliza Carter'
tp914
a(S'100003244834279'
p915
S'Jacqueline Dobson'
tp916
a(S'511431948'
p917
S'Purva Chopra'
tp918
a(g873
S'Krishna Tyagi'
tp919
a(g876
S'Radha Srinivasan'
tp920
a(g897
S'Shailaja Mehta'
tp921
a(g899
S'Anuja Bhosale'
tp922
a(g888
S'Sashaa Raco'
tp923
a(g886
S'Diisha Doshi'
tp924
a(g879
S'Shivani Sapkal'
tp925
a(g904
S'Neel Maitra'
tp926
a(S'100000996558657'
p927
S'Shreya Pundir'
tp928
a(S'1749037135'
p929
S'Hemz Shah'
tp930
a(S'1301984709'
p931
S'Dolly Agarwal'
tp932
a(S'100000955107724'
p933
S'Srihitha Motadoo Reddy'
tp934
a(S'100000076479235'
p935
S'Rajeshwari Tegampure'
tp936
a(g892
S'Suraj Kadam'
tp937
a(g912
S'Pratik Patkar'
tp938
a(S'1213787706'
p939
S'Anikesh Mehta'
tp940
a(g915
S'Jacqueline Dobson'
tp941
a(S'100002629594882'
p942
S'Saloni Charnalia'
tp943
a(g917
S'Purva Chopra'
tp944
a(S'100001003455952'
p945
S'Rayan Mysterio'
tp946
a(g897
S'Shailaja Mehta'
tp947
a(g899
S'Anuja Bhosale'
tp948
a(S'100003078277331'
p949
S'Aishwarya Mhase'
tp950
a(S'1516940403'
p951
S'Yashashree Sharma'
tp952
a(g904
S'Neel Maitra'
tp953
a(g929
S'Hemz Shah'
tp954
a(g931
S'Dolly Agarwal'
tp955
a(g933
S'Srihitha Motadoo Reddy'
tp956
a(g935
S'Rajeshwari Tegampure'
tp957
a(S'33902620'
p958
S'Rorik Seth'
tp959
a(g912
S'Pratik Patkar'
tp960
a(g939
S'Anikesh Mehta'
tp961
a(g915
S'Jacqueline Dobson'
tp962
a(S'100000889783724'
p963
S'Arman Chagla'
tp964
a(g942
S'Saloni Charnalia'
tp965
a(g917
S'Purva Chopra'
tp966
a(g945
S'Rayan Mysterio'
tp967
a(S'100002217898896'
p968
S'Khushboo Pardeshi'
tp969
a(S'100000289491558'
p970
S'Nihal Hegde'
tp971
a(g949
S'Aishwarya Mhase'
tp972
a(g927
S'Shreya Pundir'
tp973
a(g951
S'Yashashree Sharma'
tp974
a(S'1019105096'
p975
S'Ashita Ajmera'
tp976
a(g933
S'Srihitha Motadoo Reddy'
tp977
a(g935
S'Rajeshwari Tegampure'
tp978
a(g958
S'Rorik Seth'
tp979
a(g963
S'Arman Chagla'
tp980
a(g931
S'Dolly Agarwal'
tp981
a(g929
S'Hemz Shah'
tp982
a(g939
S'Anikesh Mehta'
tp983
a(S'100000109162717'
p984
S'Nupur Mander'
tp985
a(g942
S'Saloni Charnalia'
tp986
a(S'100000460667439'
p987
S'Priyanka Swain'
tp988
a(g945
S'Rayan Mysterio'
tp989
a(S'809794885'
p990
S'Shivam Sen'
tp991
a(g968
S'Khushboo Pardeshi'
tp992
a(g949
S'Aishwarya Mhase'
tp993
a(g970
S'Nihal Hegde'
tp994
a(g927
S'Shreya Pundir'
tp995
a(g951
S'Yashashree Sharma'
tp996
a(g975
S'Ashita Ajmera'
tp997
a(S'100000252390313'
p998
S'Padma Nair'
tp999
a(S'100002062123283'
p1000
S'Jaideep Seth'
tp1001
a(g958
S'Rorik Seth'
tp1002
a(g963
S'Arman Chagla'
tp1003
a(g987
S'Priyanka Swain'
tp1004
a(S'100000055042914'
p1005
S'Abdo Ali Mohd'
tp1006
a(S'100005593295009'
p1007
S'Aaresh Bhathena'
tp1008
a(g998
S'Padma Nair'
tp1009
a(S'600472058'
p1010
S'Advaita Tiwari'
tp1011
a(g984
S'Nupur Mander'
tp1012
a(S'100002841175649'
p1013
S'Chitresh Poonja'
tp1014
a(S'1014154016'
p1015
S'Sanhita Dhamdhere'
tp1016
a(S'100000710707913'
p1017
S'Shreya Nandigam'
tp1018
a(g1000
S'Jaideep Seth'
tp1019
a(g968
S'Khushboo Pardeshi'
tp1020
a(S'100000661000789'
p1021
S'Evelyn Prasad'
tp1022
a(g970
S'Nihal Hegde'
tp1023
a(S'100001106296405'
p1024
S'Shrea Kukreja'
tp1025
a(S'592201576'
p1026
S'Manali Jain Sharma'
tp1027
a(g990
S'Shivam Sen'
tp1028
a(g975
S'Ashita Ajmera'
tp1029
a(g987
S'Priyanka Swain'
tp1030
a(g1005
S'Abdo Ali Mohd'
tp1031
a(g1007
S'Aaresh Bhathena'
tp1032
a(g998
S'Padma Nair'
tp1033
a(g1010
S'Advaita Tiwari'
tp1034
a(g984
S'Nupur Mander'
tp1035
a(g1013
S'Chitresh Poonja'
tp1036
a(g1015
S'Sanhita Dhamdhere'
tp1037
a(g1017
S'Shreya Nandigam'
tp1038
a(S'100001088475653'
p1039
S'Rhea Banerjee'
tp1040
a(g1021
S'Evelyn Prasad'
tp1041
a(S'100001918575453'
p1042
S'Poonam Gavade'
tp1043
a(g1024
S'Shrea Kukreja'
tp1044
a(S'100003301063393'
p1045
S'Simran Gill'
tp1046
a(g1026
S'Manali Jain Sharma'
tp1047
a(g990
S'Shivam Sen'
tp1048
a(S'100000083666405'
p1049
S'Nemanja Akash Gonnagar'
tp1050
a(S'660534417'
p1051
S'Sana Vaidya'
tp1052
a(g1005
S'Abdo Ali Mohd'
tp1053
a(g1007
S'Aaresh Bhathena'
tp1054
a(S'100003691101921'
p1055
S'Jesse Gotting'
tp1056
a(g1010
S'Advaita Tiwari'
tp1057
a(S'100000765920470'
p1058
S'Krupa Rupapra'
tp1059
a(g1013
S'Chitresh Poonja'
tp1060
a(g1015
S'Sanhita Dhamdhere'
tp1061
a(g1017
S'Shreya Nandigam'
tp1062
a(g1039
S'Rhea Banerjee'
tp1063
a(g1021
S'Evelyn Prasad'
tp1064
a(g1042
S'Poonam Gavade'
tp1065
a(g1024
S'Shrea Kukreja'
tp1066
a(g1045
S'Simran Gill'
tp1067
a(g1026
S'Manali Jain Sharma'
tp1068
a(S'1389618956'
p1069
S'Anuja Butaney'
tp1070
a(g1000
S'Jaideep Seth'
tp1071
a(g1049
S'Nemanja Akash Gonnagar'
tp1072
a(g1051
S'Sana Vaidya'
tp1073
a(S'100002847746814'
p1074
S'Monisha Balsara'
tp1075
a(S'100001143242745'
p1076
S'Andrew Cole'
tp1077
a(g1055
S'Jesse Gotting'
tp1078
a(S'100002493250969'
p1079
S'Dee Ksha'
tp1080
a(g1058
S'Krupa Rupapra'
tp1081
a(S'1328572606'
p1082
S'Caitlin Burke'
tp1083
a(S'100000941946780'
p1084
S'Nikkita Nair'
tp1085
a(S'1018412247'
p1086
S'Arunav Chakravarty'
tp1087
a(g1039
S'Rhea Banerjee'
tp1088
a(S'100003004963669'
p1089
S'Rohan Sonawane'
tp1090
a(g1042
S'Poonam Gavade'
tp1091
a(g1045
S'Simran Gill'
tp1092
a(S'100003105608078'
p1093
S'Hazel Lawrence'
tp1094
a(g1069
S'Anuja Butaney'
tp1095
a(S'1745848071'
p1096
S'Saif Lakhani'
tp1097
a(g1049
S'Nemanja Akash Gonnagar'
tp1098
a(g1051
S'Sana Vaidya'
tp1099
a(g1074
S'Monisha Balsara'
tp1100
a(g1076
S'Andrew Cole'
tp1101
a(g1055
S'Jesse Gotting'
tp1102
a(g1084
S'Nikkita Nair'
tp1103
a(g1086
S'Arunav Chakravarty'
tp1104
a(g1082
S'Caitlin Burke'
tp1105
a(g1079
S'Dee Ksha'
tp1106
a(S'100000462543407'
p1107
S'Apoorva Sonawane'
tp1108
a(g1058
S'Krupa Rupapra'
tp1109
a(g1096
S'Saif Lakhani'
tp1110
a(g1089
S'Rohan Sonawane'
tp1111
a(g1093
S'Hazel Lawrence'
tp1112
a(g1084
S'Nikkita Nair'
tp1113
a(S'100001515528349'
p1114
S'Aditya Dramebaaz Singhal'
tp1115
a(g1074
S'Monisha Balsara'
tp1116
a(g1076
S'Andrew Cole'
tp1117
a(S'100000834758603'
p1118
S'Aayush Singh'
tp1119
a(g1069
S'Anuja Butaney'
tp1120
a(S'1042792755'
p1121
S'Keshav Joglekar'
tp1122
a(S'100000717641068'
p1123
S'Nikhil Reddy'
tp1124
a(g1079
S'Dee Ksha'
tp1125
a(g1086
S'Arunav Chakravarty'
tp1126
a(S'100000535796817'
p1127
S'Rhythm Shukla'
tp1128
a(S'100000488276139'
p1129
S'Sargam Shukla'
tp1130
a(g1096
S'Saif Lakhani'
tp1131
a(g1089
S'Rohan Sonawane'
tp1132
a(g1082
S'Caitlin Burke'
tp1133
a(g1107
S'Apoorva Sonawane'
tp1134
a(g1093
S'Hazel Lawrence'
tp1135
a(S'1531530823'
p1136
S'Rhea Shah'
tp1137
a(g1114
S'Aditya Dramebaaz Singhal'
tp1138
a(S'100000336332145'
p1139
S'Aditya Gupta'
tp1140
a(S'1630384310'
p1141
S'Sonia Jain'
tp1142
a(S'100000097665867'
p1143
S'Avinash Madala'
tp1144
a(g1118
S'Aayush Singh'
tp1145
a(S'100001031642001'
p1146
S'KiMi HauVa'
tp1147
a(g1121
S'Keshav Joglekar'
tp1148
a(g1123
S'Nikhil Reddy'
tp1149
a(S'100001820694788'
p1150
S'Trishala Yadav'
tp1151
a(S'1283157049'
p1152
S'Richi Fauji Gyan'
tp1153
a(g1127
S'Rhythm Shukla'
tp1154
a(g1129
S'Sargam Shukla'
tp1155
a(S'100000489763487'
p1156
S'Vishal Lalvani'
tp1157
a(S'1386914656'
p1158
S'Shubhi Goyal'
tp1159
a(S'100001592808479'
p1160
S'Nishabh Polke'
tp1161
a(g1107
S'Apoorva Sonawane'
tp1162
a(g1136
S'Rhea Shah'
tp1163
a(g1139
S'Aditya Gupta'
tp1164
a(g1141
S'Sonia Jain'
tp1165
a(g1123
S'Nikhil Reddy'
tp1166
a(g1118
S'Aayush Singh'
tp1167
a(g1121
S'Keshav Joglekar'
tp1168
a(g1143
S'Avinash Madala'
tp1169
a(g1146
S'KiMi HauVa'
tp1170
a(g1152
S'Richi Fauji Gyan'
tp1171
a(g1150
S'Trishala Yadav'
tp1172
a(g1156
S'Vishal Lalvani'
tp1173
a(g1136
S'Rhea Shah'
tp1174
a(S'1776200406'
p1175
S'Manpreet Singh Hora'
tp1176
a(g1160
S'Nishabh Polke'
tp1177
a(g1143
S'Avinash Madala'
tp1178
a(g1158
S'Shubhi Goyal'
tp1179
a(g1141
S'Sonia Jain'
tp1180
a(S'1480463012'
p1181
S'Dharmil Parekh'
tp1182
a(S'100002277558297'
p1183
S'Parichehr Marker'
tp1184
a(g1139
S'Aditya Gupta'
tp1185
a(S'100002490341559'
p1186
S'Khushbu Tilokani'
tp1187
a(S'100000992058251'
p1188
S'Snehal Patel'
tp1189
a(g1150
S'Trishala Yadav'
tp1190
a(S'100000415291836'
p1191
S'Yash Gupta'
tp1192
a(g1129
S'Sargam Shukla'
tp1193
a(g1152
S'Richi Fauji Gyan'
tp1194
a(g1146
S'KiMi HauVa'
tp1195
a(g1156
S'Vishal Lalvani'
tp1196
a(g1175
S'Manpreet Singh Hora'
tp1197
a(g1183
S'Parichehr Marker'
tp1198
a(S'100001540177960'
p1199
S'Sayam Kathuria'
tp1200
a(g1186
S'Khushbu Tilokani'
tp1201
a(S'1003893613'
p1202
S'Dhruv Subramanian'
tp1203
a(g1158
S'Shubhi Goyal'
tp1204
a(g1160
S'Nishabh Polke'
tp1205
a(g1181
S'Dharmil Parekh'
tp1206
a(S'1365094409'
p1207
S'Sameer Sewani'
tp1208
a(g1188
S'Snehal Patel'
tp1209
a(S'708326467'
p1210
S'Neha Darekar'
tp1211
a(S'100000119883390'
p1212
S'Mayank Sharma'
tp1213
a(S'599112404'
p1214
S'Mohit Palshetkar'
tp1215
a(g1191
S'Yash Gupta'
tp1216
a(S'100001921261789'
p1217
S'Faizi Salim'
tp1218
a(S'100000676193470'
p1219
S'Anamika Mani'
tp1220
a(S'1558574399'
p1221
S'Apoorva Kanago'
tp1222
a(S'100000073902762'
p1223
S'Ajinkya Jadhav AJ'
tp1224
a(g1175
S'Manpreet Singh Hora'
tp1225
a(g1183
S'Parichehr Marker'
tp1226
a(g1199
S'Sayam Kathuria'
tp1227
a(g1186
S'Khushbu Tilokani'
tp1228
a(g1202
S'Dhruv Subramanian'
tp1229
a(S'100001280776714'
p1230
S'Sneha Shinde'
tp1231
a(S'1100486888'
p1232
S'Amrita Ajmera'
tp1233
a(g1181
S'Dharmil Parekh'
tp1234
a(g1207
S'Sameer Sewani'
tp1235
a(g1188
S'Snehal Patel'
tp1236
a(g1210
S'Neha Darekar'
tp1237
a(g1212
S'Mayank Sharma'
tp1238
a(g1214
S'Mohit Palshetkar'
tp1239
a(S'100001474760938'
p1240
S'Gaurav Sharma'
tp1241
a(g1217
S'Faizi Salim'
tp1242
a(g1219
S'Anamika Mani'
tp1243
a(g1221
S'Apoorva Kanago'
tp1244
a(g1223
S'Ajinkya Jadhav AJ'
tp1245
a(S'100001799967258'
p1246
S'Reen Arohi'
tp1247
a(S'1345695166'
p1248
S'Nachiket Yeole'
tp1249
a(g1199
S'Sayam Kathuria'
tp1250
a(S'1397405818'
p1251
S'Revati Pawar'
tp1252
a(g1202
S'Dhruv Subramanian'
tp1253
a(g1230
S'Sneha Shinde'
tp1254
a(g1232
S'Amrita Ajmera'
tp1255
a(S'100002351157344'
p1256
S'Jasleen Arora'
tp1257
a(g1207
S'Sameer Sewani'
tp1258
a(S'100000587627340'
p1259
S'Eric Cainne Demitrius'
tp1260
a(g1210
S'Neha Darekar'
tp1261
a(g1212
S'Mayank Sharma'
tp1262
a(g1214
S'Mohit Palshetkar'
tp1263
a(g1240
S'Gaurav Sharma'
tp1264
a(g1217
S'Faizi Salim'
tp1265
a(g1219
S'Anamika Mani'
tp1266
a(g1221
S'Apoorva Kanago'
tp1267
a(g1223
S'Ajinkya Jadhav AJ'
tp1268
a(g1246
S'Reen Arohi'
tp1269
a(g1248
S'Nachiket Yeole'
tp1270
a(S'100000949681339'
p1271
S'Prachi Choudhary'
tp1272
a(g1251
S'Revati Pawar'
tp1273
a(S'100003216177814'
p1274
S'Zoheb Khan'
tp1275
a(g1230
S'Sneha Shinde'
tp1276
a(g1232
S'Amrita Ajmera'
tp1277
a(g1256
S'Jasleen Arora'
tp1278
a(S'100000750974479'
p1279
S'Mayank Sharma'
tp1280
a(g1259
S'Eric Cainne Demitrius'
tp1281
a(S'100000407964948'
p1282
S'Saniya Memon'
tp1283
a(S'1715185576'
p1284
S'Shipra Tigerkillers'
tp1285
a(S'100003774055593'
p1286
S'Sunny Mahirchandani'
tp1287
a(g1240
S'Gaurav Sharma'
tp1288
a(S'100001707727821'
p1289
S'Neha Patel'
tp1290
a(S'727013726'
p1291
S'Kirtana Chouthoy'
tp1292
a(S'1473458235'
p1293
S'Megha Solanki'
tp1294
a(S'100001844370754'
p1295
S'Vishal Mishra'
tp1296
a(g1246
S'Reen Arohi'
tp1297
a(g1248
S'Nachiket Yeole'
tp1298
a(g1271
S'Prachi Choudhary'
tp1299
a(g1251
S'Revati Pawar'
tp1300
a(g1274
S'Zoheb Khan'
tp1301
a(S'1339755460'
p1302
S'Ameya Bhalerao'
tp1303
a(g1256
S'Jasleen Arora'
tp1304
a(g1279
S'Mayank Sharma'
tp1305
a(g1259
S'Eric Cainne Demitrius'
tp1306
a(g1282
S'Saniya Memon'
tp1307
a(g1284
S'Shipra Tigerkillers'
tp1308
a(g1286
S'Sunny Mahirchandani'
tp1309
a(S'100001103306313'
p1310
S'Sunil Bhatt'
tp1311
a(g1289
S'Neha Patel'
tp1312
a(g1291
S'Kirtana Chouthoy'
tp1313
a(g1293
S'Megha Solanki'
tp1314
a(g1295
S'Vishal Mishra'
tp1315
a(S'100001014502302'
p1316
S'Kuhu Rox'
tp1317
a(g1271
S'Prachi Choudhary'
tp1318
a(S'100000480348261'
p1319
S'Verun Chavan'
tp1320
a(S'100001707827571'
p1321
S'Aishwarya Joshi'
tp1322
a(S'553715896'
p1323
S'Bhavya Pande'
tp1324
a(g1279
S'Mayank Sharma'
tp1325
a(g1274
S'Zoheb Khan'
tp1326
a(S'100001456111028'
p1327
S'Arushi Pasricha'
tp1328
a(g1282
S'Saniya Memon'
tp1329
a(g1284
S'Shipra Tigerkillers'
tp1330
a(g1286
S'Sunny Mahirchandani'
tp1331
a(g1289
S'Neha Patel'
tp1332
a(g1291
S'Kirtana Chouthoy'
tp1333
a(g1310
S'Sunil Bhatt'
tp1334
a(g1302
S'Ameya Bhalerao'
tp1335
a(g1293
S'Megha Solanki'
tp1336
a(g1316
S'Kuhu Rox'
tp1337
a(S'100000593241466'
p1338
S'Zaid Ali'
tp1339
a(g1319
S'Verun Chavan'
tp1340
a(g1321
S'Aishwarya Joshi'
tp1341
a(g1295
S'Vishal Mishra'
tp1342
a(g1323
S'Bhavya Pande'
tp1343
a(S'702592616'
p1344
S'Sunishka Goenka'
tp1345
a(g1327
S'Arushi Pasricha'
tp1346
a(S'100001039464009'
p1347
S'Tanmay Kawade'
tp1348
a(S'1420719821'
p1349
S'Nausheen Khan'
tp1350
a(S'1190633972'
p1351
S'Sanaya Thakur'
tp1352
a(S'100000015152607'
p1353
S'Anamika Mazumdar'
tp1354
a(S'1139573076'
p1355
S'Pruthvi Ninganur'
tp1356
a(S'1156377371'
p1357
S'Tanmay Dixit'
tp1358
a(S'1160926590'
p1359
S'Maahind Gajera'
tp1360
a(g1310
S'Sunil Bhatt'
tp1361
a(S'100000526141774'
p1362
S'Vrushabh Lalwani'
tp1363
a(g1302
S'Ameya Bhalerao'
tp1364
a(g1316
S'Kuhu Rox'
tp1365
a(g1338
S'Zaid Ali'
tp1366
a(g1319
S'Verun Chavan'
tp1367
a(S'100000839178217'
p1368
S'Mann RaJe Dure'
tp1369
a(g1327
S'Arushi Pasricha'
tp1370
a(g1347
S'Tanmay Kawade'
tp1371
a(g1349
S'Nausheen Khan'
tp1372
a(g1353
S'Anamika Mazumdar'
tp1373
a(g1323
S'Bhavya Pande'
tp1374
a(g1355
S'Pruthvi Ninganur'
tp1375
a(g1357
S'Tanmay Dixit'
tp1376
a(g1344
S'Sunishka Goenka'
tp1377
a(g1321
S'Aishwarya Joshi'
tp1378
a(g1359
S'Maahind Gajera'
tp1379
a(g1351
S'Sanaya Thakur'
tp1380
a(g1362
S'Vrushabh Lalwani'
tp1381
a(S'1730814955'
p1382
S'Naman Mander'
tp1383
a(S'752219291'
p1384
S'Nikita Juriasinghani'
tp1385
a(S'1282404790'
p1386
S'Prasan Srirekam Jayram'
tp1387
a(g1338
S'Zaid Ali'
tp1388
a(S'100000756900217'
p1389
S'Stuti Tank'
tp1390
a(g1368
S'Mann RaJe Dure'
tp1391
a(S'100000836912578'
p1392
S'Akash Vartak'
tp1393
a(g1347
S'Tanmay Kawade'
tp1394
a(g1349
S'Nausheen Khan'
tp1395
a(g1353
S'Anamika Mazumdar'
tp1396
a(S'537648219'
p1397
S'Gaurav Gupta \\u2729'
tp1398
a(g1355
S'Pruthvi Ninganur'
tp1399
a(g1357
S'Tanmay Dixit'
tp1400
a(g1344
S'Sunishka Goenka'
tp1401
a(g1359
S'Maahind Gajera'
tp1402
a(S'1343319855'
p1403
S'Mervyn Chacko'
tp1404
a(g1351
S'Sanaya Thakur'
tp1405
a(g1362
S'Vrushabh Lalwani'
tp1406
a(g1382
S'Naman Mander'
tp1407
a(g1384
S'Nikita Juriasinghani'
tp1408
a(g1386
S'Prasan Srirekam Jayram'
tp1409
a(S'1675655774'
p1410
S'Rohit Das'
tp1411
a(g1389
S'Stuti Tank'
tp1412
a(g1392
S'Akash Vartak'
tp1413
a(S'100003077897909'
p1414
S'Leon Bernard'
tp1415
a(S'1353655826'
p1416
S'Advitya Bahl'
tp1417
a(S'1786652110'
p1418
S'Kevin Thomas'
tp1419
a(S'100000631541404'
p1420
S'Shikhar Panwar'
tp1421
a(S'100004928250212'
p1422
S'Yashal Patil'
tp1423
a(S'698768437'
p1424
S'Nimish Ningurkar'
tp1425
a(g1403
S'Mervyn Chacko'
tp1426
a(S'100000843469694'
p1427
S'Shubh Garg'
tp1428
a(g1386
S'Prasan Srirekam Jayram'
tp1429
a(g1410
S'Rohit Das'
tp1430
a(g1389
S'Stuti Tank'
tp1431
a(g1392
S'Akash Vartak'
tp1432
a(g1414
S'Leon Bernard'
tp1433
a(g1416
S'Advitya Bahl'
tp1434
a(g1418
S'Kevin Thomas'
tp1435
a(g1420
S'Shikhar Panwar'
tp1436
a(g1422
S'Yashal Patil'
tp1437
a(g1424
S'Nimish Ningurkar'
tp1438
a(g1403
S'Mervyn Chacko'
tp1439
a(g1427
S'Shubh Garg'
tp1440
a(g1368
S'Mann RaJe Dure'
tp1441
a(g1382
S'Naman Mander'
tp1442
a(g1397
S'Gaurav Gupta \\u2729'
tp1443
a(g1384
S'Nikita Juriasinghani'
tp1444
a(S'100001073467967'
p1445
S'Saurabh S. Shinde'
tp1446
a(S'100000154712609'
p1447
S'Mallika Seth'
tp1448
a(g1410
S'Rohit Das'
tp1449
a(S'100000145401581'
p1450
S'Dhruvi Shah'
tp1451
a(S'100003170809988'
p1452
S'Wendy Dobson'
tp1453
a(g1414
S'Leon Bernard'
tp1454
a(g1416
S'Advitya Bahl'
tp1455
a(g1418
S'Kevin Thomas'
tp1456
a(g1420
S'Shikhar Panwar'
tp1457
a(g1422
S'Yashal Patil'
tp1458
a(g1424
S'Nimish Ningurkar'
tp1459
a(S'1426851536'
p1460
S'Abhinav Reddy'
tp1461
a(g1427
S'Shubh Garg'
tp1462
a(S'100000997161264'
p1463
S'Harleen Hora'
tp1464
a(S'531478818'
p1465
S'Michael Condillac'
tp1466
a(S'100004824966845'
p1467
S'Gucci Narula'
tp1468
a(g1397
S'Gaurav Gupta \\u2729'
tp1469
a(g1445
S'Saurabh S. Shinde'
tp1470
a(g1447
S'Mallika Seth'
tp1471
a(S'100001150911631'
p1472
S'Neha Solanki'
tp1473
a(g1450
S'Dhruvi Shah'
tp1474
a(g1452
S'Wendy Dobson'
tp1475
a(S'100000398633682'
p1476
S'Romit Khurd'
tp1477
a(S'100001168155618'
p1478
S'Harsh Naredi'
tp1479
a(S'1343974134'
p1480
S'Shailesh Uchale'
tp1481
a(S'1021274100'
p1482
S'Mankirat Pannu'
tp1483
a(S'100001413604492'
p1484
S'Soham Kathuria'
tp1485
a(S'100000603752618'
p1486
S'Siddhant Kasera'
tp1487
a(g1460
S'Abhinav Reddy'
tp1488
a(S'100001063723265'
p1489
S'Manasvi Sethy'
tp1490
a(g1463
S'Harleen Hora'
tp1491
a(g1465
S'Michael Condillac'
tp1492
a(g1467
S'Gucci Narula'
tp1493
a(S'739263275'
p1494
S'Sushant C Bhat'
tp1495
a(g1445
S'Saurabh S. Shinde'
tp1496
a(g1447
S'Mallika Seth'
tp1497
a(g1472
S'Neha Solanki'
tp1498
a(g1450
S'Dhruvi Shah'
tp1499
a(g1452
S'Wendy Dobson'
tp1500
a(g1476
S'Romit Khurd'
tp1501
a(g1478
S'Harsh Naredi'
tp1502
a(g1480
S'Shailesh Uchale'
tp1503
a(g1482
S'Mankirat Pannu'
tp1504
a(g1484
S'Soham Kathuria'
tp1505
a(g1486
S'Siddhant Kasera'
tp1506
a(g1460
S'Abhinav Reddy'
tp1507
a(g1489
S'Manasvi Sethy'
tp1508
a(g1463
S'Harleen Hora'
tp1509
a(g1465
S'Michael Condillac'
tp1510
a(g1467
S'Gucci Narula'
tp1511
a(g1494
S'Sushant C Bhat'
tp1512
a(S'1562409320'
p1513
S'Kruttika Joshi'
tp1514
a(S'727241957'
p1515
S'Aveesha Padia'
tp1516
a(g1472
S'Neha Solanki'
tp1517
a(S'100000269589764'
p1518
S'Gursimran Winkx Singh'
tp1519
a(S'100002120082336'
p1520
S'Shirin Medora'
tp1521
a(g1476
S'Romit Khurd'
tp1522
a(g1478
S'Harsh Naredi'
tp1523
a(g1480
S'Shailesh Uchale'
tp1524
a(g1482
S'Mankirat Pannu'
tp1525
a(g1484
S'Soham Kathuria'
tp1526
a(g1486
S'Siddhant Kasera'
tp1527
a(S'100000709543552'
p1528
S'Desmond Michael'
tp1529
a(g1489
S'Manasvi Sethy'
tp1530
a(S'508306639'
p1531
S'Gauri Abhishek Thakker'
tp1532
a(S'1080042015'
p1533
S'Jitendra Tanna'
tp1534
a(S'100000024109516'
p1535
S'Shivam Gandhi'
tp1536
a(g1494
S'Sushant C Bhat'
tp1537
a(g1513
S'Kruttika Joshi'
tp1538
a(g1515
S'Aveesha Padia'
tp1539
a(S'1205530386'
p1540
S'Ni De'
tp1541
a(g1518
S'Gursimran Winkx Singh'
tp1542
a(g1520
S'Shirin Medora'
tp1543
a(S'100000423763892'
p1544
S'Tanmaya Pande'
tp1545
a(S'1582461260'
p1546
S'Kenan Rogers'
tp1547
a(S'100008074360855'
p1548
S'Abhishek Kher'
tp1549
a(S'100000556398864'
p1550
S'Shraddha Majumder'
tp1551
a(S'1580148536'
p1552
S'Yash Nath'
tp1553
a(S'1395477312'
p1554
S'Dhanashree Pradhan'
tp1555
a(g1528
S'Desmond Michael'
tp1556
a(S'627764486'
p1557
S'Ranjul Ghose'
tp1558
a(g1531
S'Gauri Abhishek Thakker'
tp1559
a(g1533
S'Jitendra Tanna'
tp1560
a(g1535
S'Shivam Gandhi'
tp1561
a(S'100000110793250'
p1562
S'Sanraksha Mayya'
tp1563
a(g1513
S'Kruttika Joshi'
tp1564
a(g1515
S'Aveesha Padia'
tp1565
a(g1540
S'Ni De'
tp1566
a(g1518
S'Gursimran Winkx Singh'
tp1567
a(g1520
S'Shirin Medora'
tp1568
a(g1544
S'Tanmaya Pande'
tp1569
a(g1546
S'Kenan Rogers'
tp1570
a(g1548
S'Abhishek Kher'
tp1571
a(g1550
S'Shraddha Majumder'
tp1572
a(g1552
S'Yash Nath'
tp1573
a(g1554
S'Dhanashree Pradhan'
tp1574
a(g1528
S'Desmond Michael'
tp1575
a(g1557
S'Ranjul Ghose'
tp1576
a(g1531
S'Gauri Abhishek Thakker'
tp1577
a(g1533
S'Jitendra Tanna'
tp1578
a(g1535
S'Shivam Gandhi'
tp1579
a(g1562
S'Sanraksha Mayya'
tp1580
a(S'100000110163229'
p1581
S'Tanisha Shah'
tp1582
a(S'1405764981'
p1583
S'Robin Sawardekar'
tp1584
a(g1540
S'Ni De'
tp1585
a(S'1310116638'
p1586
S'Parimal Udapurkar'
tp1587
a(S'100001425727645'
p1588
S'Saket Saurabh'
tp1589
a(g1544
S'Tanmaya Pande'
tp1590
a(g1546
S'Kenan Rogers'
tp1591
a(g1548
S'Abhishek Kher'
tp1592
a(g1550
S'Shraddha Majumder'
tp1593
a(g1554
S'Dhanashree Pradhan'
tp1594
a(g1552
S'Yash Nath'
tp1595
a(S'1778484908'
p1596
S'Tarsha Kohli Khorana'
tp1597
a(g1557
S'Ranjul Ghose'
tp1598
a(S'100001264998122'
p1599
S'Jerry John Murphy'
tp1600
a(S'100000750515504'
p1601
S'Vinit Nair'
tp1602
a(S'100003268751858'
p1603
S'Aditya Iyer'
tp1604
a(g1562
S'Sanraksha Mayya'
tp1605
a(g1581
S'Tanisha Shah'
tp1606
a(g1583
S'Robin Sawardekar'
tp1607
a(S'684748470'
p1608
S'Basil Isaac'
tp1609
a(g1586
S'Parimal Udapurkar'
tp1610
a(g1588
S'Saket Saurabh'
tp1611
a(S'100002478459345'
p1612
S'Sakshi Barve'
tp1613
a(S'100001571920414'
p1614
S'Annissa Rebello'
tp1615
a(S'721088987'
p1616
S'Arnav Pradhan'
tp1617
a(S'100004798661189'
p1618
S'Samrudhi Salunke'
tp1619
a(S'100003934707136'
p1620
S'Simaran Shaikh'
tp1621
a(S'100000320166703'
p1622
S'Piyushi Sharma'
tp1623
a(g1596
S'Tarsha Kohli Khorana'
tp1624
a(S'100003111849188'
p1625
S'Adish Kulkarni'
tp1626
a(g1599
S'Jerry John Murphy'
tp1627
a(g1601
S'Vinit Nair'
tp1628
a(g1603
S'Aditya Iyer'
tp1629
a(S'1407030155'
p1630
S'Sohom Bhowmick'
tp1631
a(g1581
S'Tanisha Shah'
tp1632
a(g1583
S'Robin Sawardekar'
tp1633
a(g1608
S'Basil Isaac'
tp1634
a(g1586
S'Parimal Udapurkar'
tp1635
a(g1588
S'Saket Saurabh'
tp1636
a(g1612
S'Sakshi Barve'
tp1637
a(g1614
S'Annissa Rebello'
tp1638
a(g1616
S'Arnav Pradhan'
tp1639
a(g1618
S'Samrudhi Salunke'
tp1640
a(g1620
S'Simaran Shaikh'
tp1641
a(g1622
S'Piyushi Sharma'
tp1642
a(g1596
S'Tarsha Kohli Khorana'
tp1643
a(g1625
S'Adish Kulkarni'
tp1644
a(g1599
S'Jerry John Murphy'
tp1645
a(g1601
S'Vinit Nair'
tp1646
a(S'1670305779'
p1647
S'Aniket Singh Rathore'
tp1648
a(g1603
S'Aditya Iyer'
tp1649
a(g1630
S'Sohom Bhowmick'
tp1650
a(S'100003948262639'
p1651
S'Wendy Dobson'
tp1652
a(S'732082632'
p1653
S'Shivli Malani'
tp1654
a(g1608
S'Basil Isaac'
tp1655
a(S'100002568595175'
p1656
S'Raj Pandey'
tp1657
a(S'100001955905715'
p1658
S'Aanya Khan'
tp1659
a(g1612
S'Sakshi Barve'
tp1660
a(g1614
S'Annissa Rebello'
tp1661
a(g1616
S'Arnav Pradhan'
tp1662
a(g1618
S'Samrudhi Salunke'
tp1663
a(g1620
S'Simaran Shaikh'
tp1664
a(g1622
S'Piyushi Sharma'
tp1665
a(S'1814033036'
p1666
S'Zane Young'
tp1667
a(g1625
S'Adish Kulkarni'
tp1668
a(S'100008221907055'
p1669
S'Ayush Balerao'
tp1670
a(S'100000541685482'
p1671
S'Raabia Khona'
tp1672
a(g1647
S'Aniket Singh Rathore'
tp1673
a(S'100001754561505'
p1674
S'Madhura Dharmadhikari'
tp1675
a(g1630
S'Sohom Bhowmick'
tp1676
a(g1651
S'Wendy Dobson'
tp1677
a(g1653
S'Shivli Malani'
tp1678
a(S'1102782877'
p1679
S'Farkhanda Khan'
tp1680
a(g1656
S'Raj Pandey'
tp1681
a(g1658
S'Aanya Khan'
tp1682
a(S'100002232646189'
p1683
S'Carlton Greatorex'
tp1684
a(S'100000095221361'
p1685
S'Neil Thombare'
tp1686
a(S'807649629'
p1687
S'Ryan Warren'
tp1688
a(S'100000994734481'
p1689
S'Isha Sheth'
tp1690
a(S'100000101478714'
p1691
S'Rahoul Acharya'
tp1692
a(S'734600385'
p1693
S'Sheetal Shankar'
tp1694
a(g1666
S'Zane Young'
tp1695
a(S'100000421089912'
p1696
S'Shreya Dave'
tp1697
a(g1669
S'Ayush Balerao'
tp1698
a(g1671
S'Raabia Khona'
tp1699
a(g1647
S'Aniket Singh Rathore'
tp1700
a(g1674
S'Madhura Dharmadhikari'
tp1701
a(S'100001073438751'
p1702
S'Kritika Chawla'
tp1703
a(g1651
S'Wendy Dobson'
tp1704
a(g1653
S'Shivli Malani'
tp1705
a(g1679
S'Farkhanda Khan'
tp1706
a(g1656
S'Raj Pandey'
tp1707
a(g1658
S'Aanya Khan'
tp1708
a(g1683
S'Carlton Greatorex'
tp1709
a(g1685
S'Neil Thombare'
tp1710
a(g1687
S'Ryan Warren'
tp1711
a(g1689
S'Isha Sheth'
tp1712
a(g1691
S'Rahoul Acharya'
tp1713
a(g1693
S'Sheetal Shankar'
tp1714
a(g1666
S'Zane Young'
tp1715
a(g1696
S'Shreya Dave'
tp1716
a(g1669
S'Ayush Balerao'
tp1717
a(g1671
S'Raabia Khona'
tp1718
a(S'100000031071810'
p1719
S'Siddhant Jain'
tp1720
a(g1674
S'Madhura Dharmadhikari'
tp1721
a(g1702
S'Kritika Chawla'
tp1722
a(S'1321527929'
p1723
S'Gaurav Majumdar'
tp1724
a(S'100002176414694'
p1725
S'Rohit Chowdhury'
tp1726
a(g1679
S'Farkhanda Khan'
tp1727
a(S'1149283745'
p1728
S'Rhea Bhavsar'
tp1729
a(S'100000106314125'
p1730
S'Ashlesha Babar'
tp1731
a(g1683
S'Carlton Greatorex'
tp1732
a(g1685
S'Neil Thombare'
tp1733
a(g1687
S'Ryan Warren'
tp1734
a(g1689
S'Isha Sheth'
tp1735
a(g1691
S'Rahoul Acharya'
tp1736
a(g1693
S'Sheetal Shankar'
tp1737
a(S'689208033'
p1738
S'Himanshu Sharma'
tp1739
a(g1696
S'Shreya Dave'
tp1740
a(S'1137356747'
p1741
S'Gauri Ratnam'
tp1742
a(S'1436937495'
p1743
S'Zion Cedric Snuggs'
tp1744
a(g1719
S'Siddhant Jain'
tp1745
a(S'1366396795'
p1746
S'Nisheen Ladhani'
tp1747
a(g1702
S'Kritika Chawla'
tp1748
a(g1723
S'Gaurav Majumdar'
tp1749
a(g1725
S'Rohit Chowdhury'
tp1750
a(S'551262058'
p1751
S'Adnan Thingna'
tp1752
a(g1728
S'Rhea Bhavsar'
tp1753
a(g1730
S'Ashlesha Babar'
tp1754
a(S'1347124759'
p1755
S'Karan Varu'
tp1756
a(S'100000965093022'
p1757
S'Albert Anthony'
tp1758
a(S'100002124095378'
p1759
S'Disha Oswal'
tp1760
a(S'100002342598011'
p1761
S'Nain Pherwani'
tp1762
a(S'100000174097806'
p1763
S'Nikunj Gupta'
tp1764
a(S'100001091113572'
p1765
S'Samip Desai'
tp1766
a(g1738
S'Himanshu Sharma'
tp1767
a(S'1629953595'
p1768
S'Shivani Pawar'
tp1769
a(g1741
S'Gauri Ratnam'
tp1770
a(g1743
S'Zion Cedric Snuggs'
tp1771
a(g1719
S'Siddhant Jain'
tp1772
a(g1746
S'Nisheen Ladhani'
tp1773
a(S'100000999608067'
p1774
S'Isha Raskar'
tp1775
a(g1723
S'Gaurav Majumdar'
tp1776
a(g1725
S'Rohit Chowdhury'
tp1777
a(g1751
S'Adnan Thingna'
tp1778
a(g1728
S'Rhea Bhavsar'
tp1779
a(g1730
S'Ashlesha Babar'
tp1780
a(g1755
S'Karan Varu'
tp1781
a(g1757
S'Albert Anthony'
tp1782
a(g1759
S'Disha Oswal'
tp1783
a(g1761
S'Nain Pherwani'
tp1784
a(g1763
S'Nikunj Gupta'
tp1785
a(g1765
S'Samip Desai'
tp1786
a(g1738
S'Himanshu Sharma'
tp1787
a(g1768
S'Shivani Pawar'
tp1788
a(g1741
S'Gauri Ratnam'
tp1789
a(g1743
S'Zion Cedric Snuggs'
tp1790
a(S'100000159563671'
p1791
S'Kavita Rao'
tp1792
a(g1746
S'Nisheen Ladhani'
tp1793
a(g1774
S'Isha Raskar'
tp1794
a(S'1664395574'
p1795
S'Payal Pamnani'
tp1796
a(S'100003017683355'
p1797
S'Neha Sonawane'
tp1798
a(g1751
S'Adnan Thingna'
tp1799
a(S'1034313866'
p1800
S'Urvashi Saxena'
tp1801
a(S'1641709999'
p1802
S'Tejal Dave'
tp1803
a(g1755
S'Karan Varu'
tp1804
a(g1757
S'Albert Anthony'
tp1805
a(g1759
S'Disha Oswal'
tp1806
a(g1761
S'Nain Pherwani'
tp1807
a(g1763
S'Nikunj Gupta'
tp1808
a(g1765
S'Samip Desai'
tp1809
a(S'100001979387274'
p1810
S'Vivek Gawade'
tp1811
a(g1768
S'Shivani Pawar'
tp1812
a(S'100001757529118'
p1813
S'Priyanshu Anand'
tp1814
a(S'100000221307008'
p1815
S'Sahil Kothari'
tp1816
a(g1791
S'Kavita Rao'
tp1817
a(S'100001058654363'
p1818
S'Pratik Jangir'
tp1819
a(g1774
S'Isha Raskar'
tp1820
a(g1795
S'Payal Pamnani'
tp1821
a(g1797
S'Neha Sonawane'
tp1822
a(S'1103619041'
p1823
S'Nishchal Choudaha'
tp1824
a(g1800
S'Urvashi Saxena'
tp1825
a(g1802
S'Tejal Dave'
tp1826
a(S'1638232870'
p1827
S'Aaly Mithani'
tp1828
a(S'100002187862889'
p1829
S'Priyanka Apsangi'
tp1830
a(S'1415492189'
p1831
S'Ganesh Rao'
tp1832
a(S'100000971554112'
p1833
S'Deeksha Sharma'
tp1834
a(S'100000207713143'
p1835
S'Divyanshu Shende'
tp1836
a(S'100001559641916'
p1837
S'Siddharth Nair'
tp1838
a(g1810
S'Vivek Gawade'
tp1839
a(S'1409138105'
p1840
S'Mansi Baxi'
tp1841
a(g1813
S'Priyanshu Anand'
tp1842
a(g1815
S'Sahil Kothari'
tp1843
a(g1791
S'Kavita Rao'
tp1844
a(g1818
S'Pratik Jangir'
tp1845
a(S'1807862991'
p1846
S'Aditya Pisal'
tp1847
a(g1795
S'Payal Pamnani'
tp1848
a(g1797
S'Neha Sonawane'
tp1849
a(g1823
S'Nishchal Choudaha'
tp1850
a(g1800
S'Urvashi Saxena'
tp1851
a(g1802
S'Tejal Dave'
tp1852
a(g1827
S'Aaly Mithani'
tp1853
a(g1829
S'Priyanka Apsangi'
tp1854
a(g1831
S'Ganesh Rao'
tp1855
a(g1833
S'Deeksha Sharma'
tp1856
a(g1835
S'Divyanshu Shende'
tp1857
a(g1837
S'Siddharth Nair'
tp1858
a(g1810
S'Vivek Gawade'
tp1859
a(g1840
S'Mansi Baxi'
tp1860
a(g1813
S'Priyanshu Anand'
tp1861
a(g1815
S'Sahil Kothari'
tp1862
a(S'585075140'
p1863
S'Hina Shah'
tp1864
a(g1818
S'Pratik Jangir'
tp1865
a(g1846
S'Aditya Pisal'
tp1866
a(S'100000869128269'
p1867
S'Akriti Rana'
tp1868
a(S'100000108516452'
p1869
S'Ayush Mann'
tp1870
a(g1823
S'Nishchal Choudaha'
tp1871
a(S'100000289592209'
p1872
S'Anshuman Pati'
tp1873
a(S'100000223107288'
p1874
S'Atharva Shinde'
tp1875
a(g1827
S'Aaly Mithani'
tp1876
a(g1829
S'Priyanka Apsangi'
tp1877
a(g1833
S'Deeksha Sharma'
tp1878
a(g1831
S'Ganesh Rao'
tp1879
a(g1835
S'Divyanshu Shende'
tp1880
a(g1837
S'Siddharth Nair'
tp1881
a(S'100001214481717'
p1882
S'Adriana Barren'
tp1883
a(g1840
S'Mansi Baxi'
tp1884
a(S'100001078309868'
p1885
S'Komal Bade'
tp1886
a(S'100000537242937'
p1887
S'Anshul Ahuja'
tp1888
a(g1863
S'Hina Shah'
tp1889
a(S'100000036148220'
p1890
S'Rushi Sankhye'
tp1891
a(g1846
S'Aditya Pisal'
tp1892
a(g1867
S'Akriti Rana'
tp1893
a(g1869
S'Ayush Mann'
tp1894
a(S'100000536919153'
p1895
S'Shourya Chahande'
tp1896
a(g1872
S'Anshuman Pati'
tp1897
a(g1874
S'Atharva Shinde'
tp1898
a(S'100001161961158'
p1899
S'Aishwarya Kanetkar'
tp1900
a(S'1335975115'
p1901
S'Smeet Shah'
tp1902
a(S'100005474612964'
p1903
S'Karan Katariya'
tp1904
a(S'100000082443982'
p1905
S'Veera Salvi'
tp1906
a(S'100001680027210'
p1907
S'Archita Sinha'
tp1908
a(S'100000302460598'
p1909
S'Sonia Arora'
tp1910
a(g1882
S'Adriana Barren'
tp1911
a(S'1422834266'
p1912
S'Simran Kanse'
tp1913
a(g1885
S'Komal Bade'
tp1914
a(g1887
S'Anshul Ahuja'
tp1915
a(g1863
S'Hina Shah'
tp1916
a(g1890
S'Rushi Sankhye'
tp1917
a(S'100001740732386'
p1918
S'Avinash Kshirsagar'
tp1919
a(g1867
S'Akriti Rana'
tp1920
a(g1869
S'Ayush Mann'
tp1921
a(g1895
S'Shourya Chahande'
tp1922
a(g1872
S'Anshuman Pati'
tp1923
a(g1874
S'Atharva Shinde'
tp1924
a(g1899
S'Aishwarya Kanetkar'
tp1925
a(g1901
S'Smeet Shah'
tp1926
a(g1905
S'Veera Salvi'
tp1927
a(g1903
S'Karan Katariya'
tp1928
a(g1907
S'Archita Sinha'
tp1929
a(g1909
S'Sonia Arora'
tp1930
a(g1882
S'Adriana Barren'
tp1931
a(g1912
S'Simran Kanse'
tp1932
a(g1885
S'Komal Bade'
tp1933
a(g1887
S'Anshul Ahuja'
tp1934
a(S'722994664'
p1935
S'Geeta Patel'
tp1936
a(g1890
S'Rushi Sankhye'
tp1937
a(g1918
S'Avinash Kshirsagar'
tp1938
a(S'1347022438'
p1939
S'Shruti Sasane'
tp1940
a(S'1045894676'
p1941
S'Ashish Abhishek'
tp1942
a(g1895
S'Shourya Chahande'
tp1943
a(S'100002487733212'
p1944
S'Aishwarya Konnur'
tp1945
a(S'905365443'
p1946
S'Avantika Goenka'
tp1947
a(g1899
S'Aishwarya Kanetkar'
tp1948
a(g1901
S'Smeet Shah'
tp1949
a(g1903
S'Karan Katariya'
tp1950
a(g1905
S'Veera Salvi'
tp1951
a(g1907
S'Archita Sinha'
tp1952
a(g1909
S'Sonia Arora'
tp1953
a(S'1271417050'
p1954
S'Poorvi Gautam'
tp1955
a(g1912
S'Simran Kanse'
tp1956
a(S'100001136877667'
p1957
S"Abdul D'souza"
tp1958
a(S'601611189'
p1959
S'Mohit Daswani'
tp1960
a(g1935
S'Geeta Patel'
tp1961
a(S'100000480807555'
p1962
S'Priyanka Bhosale'
tp1963
a(g1918
S'Avinash Kshirsagar'
tp1964
a(g1939
S'Shruti Sasane'
tp1965
a(g1941
S'Ashish Abhishek'
tp1966
a(S'1727799443'
p1967
S'Nihal Balwadkar'
tp1968
a(g1944
S'Aishwarya Konnur'
tp1969
a(g1946
S'Avantika Goenka'
tp1970
a(S'513739624'
p1971
S'Kunal Shah'
tp1972
a(S'1028859360'
p1973
S'Moaz Mohamad Jamal'
tp1974
a(S'100000513214627'
p1975
S'Divjot Mago'
tp1976
a(S'100002677264449'
p1977
S'Sunil Bohra'
tp1978
a(S'100000191675171'
p1979
S'Ryan Shelke'
tp1980
a(S'100002467386331'
p1981
S'Shweta Pandey'
tp1982
a(g1954
S'Poorvi Gautam'
tp1983
a(S'100000426074335'
p1984
S'Monica Narang'
tp1985
a(g1957
S"Abdul D'souza"
tp1986
a(g1959
S'Mohit Daswani'
tp1987
a(g1935
S'Geeta Patel'
tp1988
a(g1962
S'Priyanka Bhosale'
tp1989
a(S'100002813697674'
p1990
S'David Saldanha'
tp1991
a(g1939
S'Shruti Sasane'
tp1992
a(g1941
S'Ashish Abhishek'
tp1993
a(g1967
S'Nihal Balwadkar'
tp1994
a(g1944
S'Aishwarya Konnur'
tp1995
a(g1946
S'Avantika Goenka'
tp1996
a(g1971
S'Kunal Shah'
tp1997
a(g1973
S'Moaz Mohamad Jamal'
tp1998
a(g1975
S'Divjot Mago'
tp1999
a(g1977
S'Sunil Bohra'
tp2000
a(g1979
S'Ryan Shelke'
tp2001
a(g1981
S'Shweta Pandey'
tp2002
a(g1954
S'Poorvi Gautam'
tp2003
a(g1984
S'Monica Narang'
tp2004
a(g1957
S"Abdul D'souza"
tp2005
a(g1959
S'Mohit Daswani'
tp2006
a(S'1680581277'
p2007
S'Dee Kshaa'
tp2008
a(g1962
S'Priyanka Bhosale'
tp2009
a(g1990
S'David Saldanha'
tp2010
a(S'548875792'
p2011
S'Vaarun Kamble'
tp2012
a(S'100001247141577'
p2013
S'Vaibhav Warulkar'
tp2014
a(g1967
S'Nihal Balwadkar'
tp2015
a(S'100000500048402'
p2016
S'Neha Kuchi'
tp2017
a(S'100000164495609'
p2018
S'Niharika Misal'
tp2019
a(g1971
S'Kunal Shah'
tp2020
a(g1973
S'Moaz Mohamad Jamal'
tp2021
a(g1975
S'Divjot Mago'
tp2022
a(g1977
S'Sunil Bohra'
tp2023
a(g1979
S'Ryan Shelke'
tp2024
a(g1981
S'Shweta Pandey'
tp2025
a(S'100000211467068'
p2026
S'Annie Sunny'
tp2027
a(g1984
S'Monica Narang'
tp2028
a(S'32801586'
p2029
S'Anandi Patel'
tp2030
a(S'100002222993454'
p2031
S'Shalaka Bodke'
tp2032
a(g2007
S'Dee Kshaa'
tp2033
a(S'100002366340067'
p2034
S'Inaara Khan'
tp2035
a(g1990
S'David Saldanha'
tp2036
a(g2011
S'Vaarun Kamble'
tp2037
a(g2013
S'Vaibhav Warulkar'
tp2038
a(S'1290257376'
p2039
S'Tej Pandit'
tp2040
a(g2016
S'Neha Kuchi'
tp2041
a(g2018
S'Niharika Misal'
tp2042
a(S'1129956425'
p2043
S'Amey Narain'
tp2044
a(S'100000767468824'
p2045
S'Sanika Joshi'
tp2046
a(S'100000596400301'
p2047
S'Daksh Nahar'
tp2048
a(S'10004312'
p2049
S'Shan Patel'
tp2050
a(S'1714122084'
p2051
S'Aahana Singh'
tp2052
a(S'1150786657'
p2053
S'Nekita Batra'
tp2054
a(g2026
S'Annie Sunny'
tp2055
a(S'100000391798454'
p2056
S'Aakash Sheth'
tp2057
a(g2029
S'Anandi Patel'
tp2058
a(g2031
S'Shalaka Bodke'
tp2059
a(g2007
S'Dee Kshaa'
tp2060
a(g2034
S'Inaara Khan'
tp2061
a(S'100002273275330'
p2062
S'Shubham Gaikwad'
tp2063
a(g2011
S'Vaarun Kamble'
tp2064
a(g2013
S'Vaibhav Warulkar'
tp2065
a(g2039
S'Tej Pandit'
tp2066
a(g2016
S'Neha Kuchi'
tp2067
a(g2018
S'Niharika Misal'
tp2068
a(g2043
S'Amey Narain'
tp2069
a(g2045
S'Sanika Joshi'
tp2070
a(g2047
S'Daksh Nahar'
tp2071
a(g2049
S'Shan Patel'
tp2072
a(g2051
S'Aahana Singh'
tp2073
a(g2029
S'Anandi Patel'
tp2074
a(g2056
S'Aakash Sheth'
tp2075
a(g2026
S'Annie Sunny'
tp2076
a(g2053
S'Nekita Batra'
tp2077
a(g2034
S'Inaara Khan'
tp2078
a(g2031
S'Shalaka Bodke'
tp2079
a(g2062
S'Shubham Gaikwad'
tp2080
a(S'100000086643929'
p2081
S'Simran Paradkar'
tp2082
a(S'1247490969'
p2083
S'Utkantha Doshi'
tp2084
a(g2049
S'Shan Patel'
tp2085
a(S'100008052399426'
p2086
S'Akash Vartak'
tp2087
a(g2039
S'Tej Pandit'
tp2088
a(S'100000768863406'
p2089
S'Raj Messi Tegampure'
tp2090
a(g2045
S'Sanika Joshi'
tp2091
a(S'100000418994207'
p2092
S'Manali Mohite'
tp2093
a(S'1583814050'
p2094
S'Raj Pandey'
tp2095
a(g2043
S'Amey Narain'
tp2096
a(g2056
S'Aakash Sheth'
tp2097
a(g2051
S'Aahana Singh'
tp2098
a(g2047
S'Daksh Nahar'
tp2099
a(g2081
S'Simran Paradkar'
tp2100
a(g2083
S'Utkantha Doshi'
tp2101
a(g2086
S'Akash Vartak'
tp2102
a(S'100000556177458'
p2103
S'Noopur Ambre'
tp2104
a(g2062
S'Shubham Gaikwad'
tp2105
a(g2089
S'Raj Messi Tegampure'
tp2106
a(S'100000614135554'
p2107
S'Reshul Dani'
tp2108
a(S'739384406'
p2109
S'Archit Khandeparkar'
tp2110
a(S'100000696469716'
p2111
S'Arwa Sinnarwala'
tp2112
a(g2092
S'Manali Mohite'
tp2113
a(g2094
S'Raj Pandey'
tp2114
a(S'100002725250068'
p2115
S'Shikhar Dixit'
tp2116
a(g2053
S'Nekita Batra'
tp2117
a(S'100003328112592'
p2118
S'Harsh Pereira'
tp2119
a(S'100000422349816'
p2120
S'Zakiya Sayyed'
tp2121
a(S'100003295260830'
p2122
S'Krutika Kulkarni'
tp2123
a(S'100000670777792'
p2124
S'Ritika Punna'
tp2125
a(S'722493117'
p2126
S'Aman Singh'
tp2127
a(g2081
S'Simran Paradkar'
tp2128
a(g2083
S'Utkantha Doshi'
tp2129
a(g2086
S'Akash Vartak'
tp2130
a(g2103
S'Noopur Ambre'
tp2131
a(S'100000050265872'
p2132
S'Amruuta Pawar'
tp2133
a(g2089
S'Raj Messi Tegampure'
tp2134
a(g2107
S'Reshul Dani'
tp2135
a(g2109
S'Archit Khandeparkar'
tp2136
a(g2111
S'Arwa Sinnarwala'
tp2137
a(g2092
S'Manali Mohite'
tp2138
a(g2094
S'Raj Pandey'
tp2139
a(g2115
S'Shikhar Dixit'
tp2140
a(S'1258432866'
p2141
S'Prutha Karandikar'
tp2142
a(g2118
S'Harsh Pereira'
tp2143
a(g2120
S'Zakiya Sayyed'
tp2144
a(g2122
S'Krutika Kulkarni'
tp2145
a(g2124
S'Ritika Punna'
tp2146
a(g2126
S'Aman Singh'
tp2147
a(S'100000746513115'
p2148
S'Purva Veera'
tp2149
a(S'1019405194'
p2150
S'Sunny Rishab'
tp2151
a(S'689740892'
p2152
S'Aditya Kulkarni'
tp2153
a(g2103
S'Noopur Ambre'
tp2154
a(g2132
S'Amruuta Pawar'
tp2155
a(g2107
S'Reshul Dani'
tp2156
a(S'1648354308'
p2157
S'Sanket Desarda'
tp2158
a(g2109
S'Archit Khandeparkar'
tp2159
a(g2111
S'Arwa Sinnarwala'
tp2160
a(S'100003801653092'
p2161
S'Malhar Katare'
tp2162
a(S'100002955617393'
p2163
S'Heena Punjabi'
tp2164
a(g2115
S'Shikhar Dixit'
tp2165
a(g2141
S'Prutha Karandikar'
tp2166
a(g2118
S'Harsh Pereira'
tp2167
a(g2120
S'Zakiya Sayyed'
tp2168
a(g2122
S'Krutika Kulkarni'
tp2169
a(g2124
S'Ritika Punna'
tp2170
a(g2126
S'Aman Singh'
tp2171
a(g2148
S'Purva Veera'
tp2172
a(g2150
S'Sunny Rishab'
tp2173
a(g2152
S'Aditya Kulkarni'
tp2174
a(S'1230836697'
p2175
S'Hradini Parikh'
tp2176
a(g2132
S'Amruuta Pawar'
tp2177
a(g2157
S'Sanket Desarda'
tp2178
a(S'100003162769966'
p2179
S'Jacqueline Dobson'
tp2180
a(S'100000592701009'
p2181
S'Mohit Somai'
tp2182
a(S'1352130712'
p2183
S'Aman Sharma'
tp2184
a(g2161
S'Malhar Katare'
tp2185
a(g2163
S'Heena Punjabi'
tp2186
a(S'100000690185612'
p2187
S'Aritra Majumdar'
tp2188
a(g2141
S'Prutha Karandikar'
tp2189
a(S'100000117241106'
p2190
S'Pranjal Khairnar'
tp2191
a(S'1528717333'
p2192
S'Rohit Hoare'
tp2193
a(S'100003701395818'
p2194
S'Anushka Mohan'
tp2195
a(S'1331303230'
p2196
S'Nidhi Shetty'
tp2197
a(S'100001224852014'
p2198
S'Morrison Gaikwad'
tp2199
a(g2148
S'Purva Veera'
tp2200
a(g2150
S'Sunny Rishab'
tp2201
a(g2152
S'Aditya Kulkarni'
tp2202
a(g2175
S'Hradini Parikh'
tp2203
a(S'100005941384015'
p2204
S'Anisha Agarwal'
tp2205
a(g2157
S'Sanket Desarda'
tp2206
a(g2179
S'Jacqueline Dobson'
tp2207
a(g2161
S'Malhar Katare'
tp2208
a(g2187
S'Aritra Majumdar'
tp2209
a(g2163
S'Heena Punjabi'
tp2210
a(g2183
S'Aman Sharma'
tp2211
a(g2194
S'Anushka Mohan'
tp2212
a(S'1186305615'
p2213
S'Nirav Parmar'
tp2214
a(g2196
S'Nidhi Shetty'
tp2215
a(g2192
S'Rohit Hoare'
tp2216
a(S'1130155220'
p2217
S'Zain Zkm Meghjani'
tp2218
a(S'100000511161043'
p2219
S'Pooja Udeshi'
tp2220
a(g2198
S'Morrison Gaikwad'
tp2221
a(g2190
S'Pranjal Khairnar'
tp2222
a(S'100000123415766'
p2223
S'Chirag Agarwal'
tp2224
a(g2175
S'Hradini Parikh'
tp2225
a(g2204
S'Anisha Agarwal'
tp2226
a(g2179
S'Jacqueline Dobson'
tp2227
a(S'100003706524220'
p2228
S'Hazel Lawrence'
tp2229
a(g2181
S'Mohit Somai'
tp2230
a(g2187
S'Aritra Majumdar'
tp2231
a(g2183
S'Aman Sharma'
tp2232
a(S'1719045550'
p2233
S'Rhea Kudchadker'
tp2234
a(g2213
S'Nirav Parmar'
tp2235
a(g2223
S'Chirag Agarwal'
tp2236
a(g2194
S'Anushka Mohan'
tp2237
a(g2198
S'Morrison Gaikwad'
tp2238
a(g2217
S'Zain Zkm Meghjani'
tp2239
a(g2196
S'Nidhi Shetty'
tp2240
a(g2219
S'Pooja Udeshi'
tp2241
a(g2192
S'Rohit Hoare'
tp2242
a(g2190
S'Pranjal Khairnar'
tp2243
a(S'100007888504576'
p2244
S'Saloni Sandesh Charnalia'
tp2245
a(g2204
S'Anisha Agarwal'
tp2246
a(S'100003358291761'
p2247
S'Kimi EunMi Hauva'
tp2248
a(g2228
S'Hazel Lawrence'
tp2249
a(g2223
S'Chirag Agarwal'
tp2250
a(S'687997315'
p2251
S'Vrushali Gulwadi'
tp2252
a(S'1241828726'
p2253
S'Parikshit Goenka'
tp2254
a(g2233
S'Rhea Kudchadker'
tp2255
a(g2217
S'Zain Zkm Meghjani'
tp2256
a(S'100000734447552'
p2257
S'Chaitrali Athane'
tp2258
a(g2213
S'Nirav Parmar'
tp2259
a(S'1415873089'
p2260
S'Shahzar Sajid'
tp2261
a(g2219
S'Pooja Udeshi'
tp2262
a(S'100005424613496'
p2263
S'Jhalak Hemnani'
tp2264
a(S'100000110445800'
p2265
S'Aakash Som'
tp2266
a(S'100001725754228'
p2267
S'Anant Singh'
tp2268
a(S'100000712739222'
p2269
S'Aishwarya Deshpande'
tp2270
a(S'100000167225107'
p2271
S'Suraj Gade'
tp2272
a(g2244
S'Saloni Sandesh Charnalia'
tp2273
a(S'100002217825820'
p2274
S'Joanna Sam'
tp2275
a(g2247
S'Kimi EunMi Hauva'
tp2276
a(g2228
S'Hazel Lawrence'
tp2277
a(S'100001076076679'
p2278
S'Utkarsha Misal'
tp2279
a(g2251
S'Vrushali Gulwadi'
tp2280
a(g2253
S'Parikshit Goenka'
tp2281
a(g2233
S'Rhea Kudchadker'
tp2282
a(S'100003739146933'
p2283
S'Mayank Deo'
tp2284
a(g2257
S'Chaitrali Athane'
tp2285
a(S'100000121539342'
p2286
S'Arpit Yadav'
tp2287
a(g2260
S'Shahzar Sajid'
tp2288
a(S'100000218034691'
p2289
S'Sanket Shah'
tp2290
a(g2263
S'Jhalak Hemnani'
tp2291
a(g2265
S'Aakash Som'
tp2292
a(g2267
S'Anant Singh'
tp2293
a(g2269
S'Aishwarya Deshpande'
tp2294
a(g2271
S'Suraj Gade'
tp2295
a(g2244
S'Saloni Sandesh Charnalia'
tp2296
a(g2274
S'Joanna Sam'
tp2297
a(g2247
S'Kimi EunMi Hauva'
tp2298
a(S'100003671234373'
p2299
S'Bhakti Daigavane'
tp2300
a(g2278
S'Utkarsha Misal'
tp2301
a(g2251
S'Vrushali Gulwadi'
tp2302
a(S'100000084024938'
p2303
S'Shiraz Khan'
tp2304
a(S'1847633188'
p2305
S'Sumit Hardwani'
tp2306
a(g2283
S'Mayank Deo'
tp2307
a(g2257
S'Chaitrali Athane'
tp2308
a(g2286
S'Arpit Yadav'
tp2309
a(g2260
S'Shahzar Sajid'
tp2310
a(g2289
S'Sanket Shah'
tp2311
a(g2263
S'Jhalak Hemnani'
tp2312
a(g2265
S'Aakash Som'
tp2313
a(g2267
S'Anant Singh'
tp2314
a(g2269
S'Aishwarya Deshpande'
tp2315
a(g2271
S'Suraj Gade'
tp2316
a(S'1375475749'
p2317
S'Aishwarya Sonar'
tp2318
a(g2274
S'Joanna Sam'
tp2319
a(S'100000114111259'
p2320
S'Nat\\u0101sha \\u0110oke'
tp2321
a(g2299
S'Bhakti Daigavane'
tp2322
a(g2278
S'Utkarsha Misal'
tp2323
a(S'100005504712828'
p2324
S'Sneha Joeel'
tp2325
a(g2303
S'Shiraz Khan'
tp2326
a(g2305
S'Sumit Hardwani'
tp2327
a(g2283
S'Mayank Deo'
tp2328
a(g2286
S'Arpit Yadav'
tp2329
a(S'100004574016814'
p2330
S'Roshan Lalwani'
tp2331
a(S'100000396222268'
p2332
S'Pranav Dhawan'
tp2333
a(g2289
S'Sanket Shah'
tp2334
a(S'1783760511'
p2335
S'Kamlesh Sekar'
tp2336
a(S'100002015615506'
p2337
S'Varun Yadav'
tp2338
a(S'1683604022'
p2339
S'Rupal Sharma'
tp2340
a(S'1551406166'
p2341
S'Priyanka Duggal'
tp2342
a(S'100000035107887'
p2343
S'Shaurin Shah'
tp2344
a(g2317
S'Aishwarya Sonar'
tp2345
a(S'1061867332'
p2346
S'Yingran Nancy Zhang'
tp2347
a(g2320
S'Nat\\u0101sha \\u0110oke'
tp2348
a(g2299
S'Bhakti Daigavane'
tp2349
a(S'100000080304240'
p2350
S'Fahad Salem'
tp2351
a(g2324
S'Sneha Joeel'
tp2352
a(g2303
S'Shiraz Khan'
tp2353
a(g2305
S'Sumit Hardwani'
tp2354
a(S'100000631869048'
p2355
S'Pushkar Kulkarni'
tp2356
a(g2330
S'Roshan Lalwani'
tp2357
a(S'549659858'
p2358
S'Sanjana Singh'
tp2359
a(g2332
S'Pranav Dhawan'
tp2360
a(S'100001264363708'
p2361
S'Gaurav Charnalia'
tp2362
a(g2335
S'Kamlesh Sekar'
tp2363
a(g2337
S'Varun Yadav'
tp2364
a(g2339
S'Rupal Sharma'
tp2365
a(g2341
S'Priyanka Duggal'
tp2366
a(g2343
S'Shaurin Shah'
tp2367
a(g2317
S'Aishwarya Sonar'
tp2368
a(g2346
S'Yingran Nancy Zhang'
tp2369
a(g2320
S'Nat\\u0101sha \\u0110oke'
tp2370
a(S'100002269221720'
p2371
S'Navid Khalifa Shaikh'
tp2372
a(g2350
S'Fahad Salem'
tp2373
a(g2324
S'Sneha Joeel'
tp2374
a(S'1454514000'
p2375
S'Kunal Jadhav'
tp2376
a(S'100002539569806'
p2377
S'Vidura Ganesh'
tp2378
a(g2355
S'Pushkar Kulkarni'
tp2379
a(g2330
S'Roshan Lalwani'
tp2380
a(g2358
S'Sanjana Singh'
tp2381
a(g2361
S'Gaurav Charnalia'
tp2382
a(g2332
S'Pranav Dhawan'
tp2383
a(g2335
S'Kamlesh Sekar'
tp2384
a(g2337
S'Varun Yadav'
tp2385
a(g2339
S'Rupal Sharma'
tp2386
a(g2341
S'Priyanka Duggal'
tp2387
a(g2343
S'Shaurin Shah'
tp2388
a(S'637220313'
p2389
S'Ananta Shah'
tp2390
a(g2346
S'Yingran Nancy Zhang'
tp2391
a(S'100000771362584'
p2392
S'Rohit Mehta'
tp2393
a(g2371
S'Navid Khalifa Shaikh'
tp2394
a(g2350
S'Fahad Salem'
tp2395
a(S'690142772'
p2396
S'Nikhil Patil'
tp2397
a(g2375
S'Kunal Jadhav'
tp2398
a(g2377
S'Vidura Ganesh'
tp2399
a(g2355
S'Pushkar Kulkarni'
tp2400
a(g2358
S'Sanjana Singh'
tp2401
a(S'100001576404097'
p2402
S'Rishi Ganguly'
tp2403
a(S'1371412400'
p2404
S'Moksh Lalwani'
tp2405
a(g2361
S'Gaurav Charnalia'
tp2406
a(S'1280422979'
p2407
S'Satesh Mirpuri'
tp2408
a(S'100002562847339'
p2409
S'Michelle Rubdy'
tp2410
a(S'100003717485055'
p2411
S'Aditi Verma'
tp2412
a(S'100001465372578'
p2413
S'Pronoy Sengupta'
tp2414
a(S'100006913746746'
p2415
S'Rishab Dev Bhaskar'
tp2416
a(g2389
S'Ananta Shah'
tp2417
a(S'737093047'
p2418
S'Yash Kale'
tp2419
a(g2392
S'Rohit Mehta'
tp2420
a(g2371
S'Navid Khalifa Shaikh'
tp2421
a(S'1491502567'
p2422
S'Azaman Chothia'
tp2423
a(g2396
S'Nikhil Patil'
tp2424
a(g2375
S'Kunal Jadhav'
tp2425
a(g2377
S'Vidura Ganesh'
tp2426
a(S'1627196480'
p2427
S'Erika Doulton'
tp2428
a(g2402
S'Rishi Ganguly'
tp2429
a(S'100001184234469'
p2430
S'Sanket Bachuwar'
tp2431
a(g2404
S'Moksh Lalwani'
tp2432
a(g2407
S'Satesh Mirpuri'
tp2433
a(g2409
S'Michelle Rubdy'
tp2434
a(g2411
S'Aditi Verma'
tp2435
a(g2413
S'Pronoy Sengupta'
tp2436
a(g2415
S'Rishab Dev Bhaskar'
tp2437
a(S'1227559639'
p2438
S'Yashvardhan Agarwal'
tp2439
a(g2389
S'Ananta Shah'
tp2440
a(g2418
S'Yash Kale'
tp2441
a(g2392
S'Rohit Mehta'
tp2442
a(S'100000554076356'
p2443
S'Shambhvi Kasera'
tp2444
a(g2422
S'Azaman Chothia'
tp2445
a(g2396
S'Nikhil Patil'
tp2446
a(S'100000578649005'
p2447
S'Damanpreet Singh Dang'
tp2448
a(S'100000472233282'
p2449
S'Kuldeep Shakya'
tp2450
a(g2427
S'Erika Doulton'
tp2451
a(g2402
S'Rishi Ganguly'
tp2452
a(g2404
S'Moksh Lalwani'
tp2453
a(g2430
S'Sanket Bachuwar'
tp2454
a(g2407
S'Satesh Mirpuri'
tp2455
a(g2427
S'Erika Doulton'
tp2456
a(S'100000252112794'
p2457
S'Apoorva Ghiya'
tp2458
a(g2418
S'Yash Kale'
tp2459
a(g2409
S'Michelle Rubdy'
tp2460
a(g2422
S'Azaman Chothia'
tp2461
a(g2411
S'Aditi Verma'
tp2462
a(g2443
S'Shambhvi Kasera'
tp2463
a(S'100001028465439'
p2464
S'Devine Angle'
tp2465
a(g2430
S'Sanket Bachuwar'
tp2466
a(g2415
S'Rishab Dev Bhaskar'
tp2467
a(S'625597502'
p2468
S'Kirit Thadaka'
tp2469
a(g2438
S'Yashvardhan Agarwal'
tp2470
a(g2413
S'Pronoy Sengupta'
tp2471
a(g2447
S'Damanpreet Singh Dang'
tp2472
a(S'1518556256'
p2473
S'Sharvari Chikhalkar'
tp2474
a(g2449
S'Kuldeep Shakya'
tp2475
a(S'100001940553750'
p2476
S'Kartik Kadao'
tp2477
a(S'100001553618278'
p2478
S'Andre Labrooy'
tp2479
a(S'100001175618290'
p2480
S'Siddharth Rathod'
tp2481
a(g2457
S'Apoorva Ghiya'
tp2482
a(S'100003281602734'
p2483
S'Shweta Patil'
tp2484
a(S'586036477'
p2485
S'Lisa Condillac'
tp2486
a(S'671857641'
p2487
S'Smrithi Shetty'
tp2488
a(S'1467263950'
p2489
S'Raghav Bhutra'
tp2490
a(g2443
S'Shambhvi Kasera'
tp2491
a(g2464
S'Devine Angle'
tp2492
a(S'100000787880404'
p2493
S'Deepti Parolkar'
tp2494
a(S'100004142251029'
p2495
S'Arushi Pradhan'
tp2496
a(g2468
S'Kirit Thadaka'
tp2497
a(g2438
S'Yashvardhan Agarwal'
tp2498
a(S'100002244027789'
p2499
S'Krithin Rajesh'
tp2500
a(g2447
S'Damanpreet Singh Dang'
tp2501
a(g2473
S'Sharvari Chikhalkar'
tp2502
a(g2449
S'Kuldeep Shakya'
tp2503
a(g2476
S'Kartik Kadao'
tp2504
a(g2478
S'Andre Labrooy'
tp2505
a(g2480
S'Siddharth Rathod'
tp2506
a(g2457
S'Apoorva Ghiya'
tp2507
a(g2483
S'Shweta Patil'
tp2508
a(g2485
S'Lisa Condillac'
tp2509
a(g2487
S'Smrithi Shetty'
tp2510
a(g2489
S'Raghav Bhutra'
tp2511
a(S'100001359763291'
p2512
S'Nilesh Kanase'
tp2513
a(g2464
S'Devine Angle'
tp2514
a(g2493
S'Deepti Parolkar'
tp2515
a(g2495
S'Arushi Pradhan'
tp2516
a(g2468
S'Kirit Thadaka'
tp2517
a(S'100001482280668'
p2518
S'Avnie Agnihotri'
tp2519
a(g2499
S'Krithin Rajesh'
tp2520
a(g2473
S'Sharvari Chikhalkar'
tp2521
a(S'100000412020739'
p2522
S'Riya Kaul'
tp2523
a(g2476
S'Kartik Kadao'
tp2524
a(g2478
S'Andre Labrooy'
tp2525
a(S'100001553566873'
p2526
S'Navtej Wadhawa'
tp2527
a(g2480
S'Siddharth Rathod'
tp2528
a(S'501484082'
p2529
S'Aasshna Aroraa'
tp2530
a(g2483
S'Shweta Patil'
tp2531
a(g2485
S'Lisa Condillac'
tp2532
a(g2487
S'Smrithi Shetty'
tp2533
a(g2512
S'Nilesh Kanase'
tp2534
a(g2489
S'Raghav Bhutra'
tp2535
a(S'100003897553362'
p2536
S'Anushkaa Pawar'
tp2537
a(g2493
S'Deepti Parolkar'
tp2538
a(g2495
S'Arushi Pradhan'
tp2539
a(S'100002325001199'
p2540
S'Rutuja Jadhav'
tp2541
a(g2518
S'Avnie Agnihotri'
tp2542
a(g2499
S'Krithin Rajesh'
tp2543
a(S'1301185097'
p2544
S'Alefiya Malkan'
tp2545
a(g2522
S'Riya Kaul'
tp2546
a(S'100000109458363'
p2547
S'Nihal Singh'
tp2548
a(S'1495000173'
p2549
S'Sanika Harshe'
tp2550
a(g2526
S'Navtej Wadhawa'
tp2551
a(g2529
S'Aasshna Aroraa'
tp2552
a(S'100003158124330'
p2553
S'Hiya Jethani'
tp2554
a(S'100002156539387'
p2555
S'Purva Jain'
tp2556
a(S'1570454143'
p2557
S'Idris Bakri'
tp2558
a(g2512
S'Nilesh Kanase'
tp2559
a(S'100001965988848'
p2560
S'Soham Lande'
tp2561
a(g2536
S'Anushkaa Pawar'
tp2562
a(S'1464457721'
p2563
S'Shreya Shaligram'
tp2564
a(S'100008038151955'
p2565
S'Shraddha Uchale'
tp2566
a(g2540
S'Rutuja Jadhav'
tp2567
a(g2518
S'Avnie Agnihotri'
tp2568
a(S'100002387066573'
p2569
S'Naveli Rachcha'
tp2570
a(S'683786752'
p2571
S'Anup Doddamani'
tp2572
a(g2544
S'Alefiya Malkan'
tp2573
a(g2522
S'Riya Kaul'
tp2574
a(g2547
S'Nihal Singh'
tp2575
a(g2549
S'Sanika Harshe'
tp2576
a(g2526
S'Navtej Wadhawa'
tp2577
a(g2529
S'Aasshna Aroraa'
tp2578
a(g2553
S'Hiya Jethani'
tp2579
a(g2555
S'Purva Jain'
tp2580
a(g2557
S'Idris Bakri'
tp2581
a(g2560
S'Soham Lande'
tp2582
a(S'708705114'
p2583
S'Radhika Merchant'
tp2584
a(g2536
S'Anushkaa Pawar'
tp2585
a(g2563
S'Shreya Shaligram'
tp2586
a(g2565
S'Shraddha Uchale'
tp2587
a(g2540
S'Rutuja Jadhav'
tp2588
a(S'100001762875006'
p2589
S'Rachel Pherwani'
tp2590
a(g2569
S'Naveli Rachcha'
tp2591
a(g2571
S'Anup Doddamani'
tp2592
a(g2544
S'Alefiya Malkan'
tp2593
a(S'1626902372'
p2594
S'Agrawal Saurabh'
tp2595
a(g2547
S'Nihal Singh'
tp2596
a(g2549
S'Sanika Harshe'
tp2597
a(S'1800459990'
p2598
S'Stuti Tank'
tp2599
a(S'1420390198'
p2600
S'Prithmesh Mago'
tp2601
a(g2555
S'Purva Jain'
tp2602
a(g2557
S'Idris Bakri'
tp2603
a(g2560
S'Soham Lande'
tp2604
a(g2583
S'Radhika Merchant'
tp2605
a(g2563
S'Shreya Shaligram'
tp2606
a(g2565
S'Shraddha Uchale'
tp2607
a(S'100000642776544'
p2608
S'Zahid Xavi Khan'
tp2609
a(g2589
S'Rachel Pherwani'
tp2610
a(g2569
S'Naveli Rachcha'
tp2611
a(g2571
S'Anup Doddamani'
tp2612
a(S'682213366'
p2613
S'Divya Jagtap'
tp2614
a(g2594
S'Agrawal Saurabh'
tp2615
a(S'100002409302618'
p2616
S'Manvi Malhotra'
tp2617
a(S'1845664061'
p2618
S'Faizi Salim'
tp2619
a(g2598
S'Stuti Tank'
tp2620
a(g2553
S'Hiya Jethani'
tp2621
a(g2600
S'Prithmesh Mago'
tp2622
a(S'100006549127665'
p2623
S'Muhammad Ali Humza'
tp2624
a(S'100006607868757'
p2625
S'Anupama Sarkar'
tp2626
a(S'100000598742462'
p2627
S'Shivam Kailash'
tp2628
a(g2583
S'Radhika Merchant'
tp2629
a(S'100002266542393'
p2630
S'Dhairya Thakkar'
tp2631
a(S'100000966366949'
p2632
S'Komal Shahaney'
tp2633
a(g2608
S'Zahid Xavi Khan'
tp2634
a(g2598
S'Stuti Tank'
tp2635
a(g2600
S'Prithmesh Mago'
tp2636
a(g2613
S'Divya Jagtap'
tp2637
a(g2589
S'Rachel Pherwani'
tp2638
a(S'100001006202236'
p2639
S'Shreya Namde'
tp2640
a(S'100003274376940'
p2641
S'Vivienna Longjam'
tp2642
a(g2625
S'Anupama Sarkar'
tp2643
a(S'100000433075027'
p2644
S'Varada Dharmadhikari'
tp2645
a(g2594
S'Agrawal Saurabh'
tp2646
a(g2616
S'Manvi Malhotra'
tp2647
a(g2608
S'Zahid Xavi Khan'
tp2648
a(g2623
S'Muhammad Ali Humza'
tp2649
a(g2627
S'Shivam Kailash'
tp2650
a(S'100001960786681'
p2651
S'Sam Singh'
tp2652
a(g2618
S'Faizi Salim'
tp2653
a(g2632
S'Komal Shahaney'
tp2654
a(S'1022790542'
p2655
S'Vedika Padia'
tp2656
a(S'100002481177610'
p2657
S'Aishwarya Patil'
tp2658
a(g2613
S'Divya Jagtap'
tp2659
a(S'100003276295412'
p2660
S'Kruti Deshpande'
tp2661
a(g2630
S'Dhairya Thakkar'
tp2662
a(g2639
S'Shreya Namde'
tp2663
a(g2641
S'Vivienna Longjam'
tp2664
a(g2625
S'Anupama Sarkar'
tp2665
a(g2644
S'Varada Dharmadhikari'
tp2666
a(S'100000029971968'
p2667
S'Salman Nathani'
tp2668
a(S'1534811387'
p2669
S'Due\\u00f1o Dan'
tp2670
a(g2616
S'Manvi Malhotra'
tp2671
a(S'669988258'
p2672
S'Archit Khode'
tp2673
a(g2623
S'Muhammad Ali Humza'
tp2674
a(g2627
S'Shivam Kailash'
tp2675
a(g2651
S'Sam Singh'
tp2676
a(g2618
S'Faizi Salim'
tp2677
a(g2632
S'Komal Shahaney'
tp2678
a(g2655
S'Vedika Padia'
tp2679
a(g2657
S'Aishwarya Patil'
tp2680
a(S'100000365520573'
p2681
S'Vipul Malik'
tp2682
a(g2660
S'Kruti Deshpande'
tp2683
a(g2639
S'Shreya Namde'
tp2684
a(g2641
S'Vivienna Longjam'
tp2685
a(S'530913507'
p2686
S'Aniket Ajwani'
tp2687
a(g2644
S'Varada Dharmadhikari'
tp2688
a(g2667
S'Salman Nathani'
tp2689
a(g2669
S'Due\\u00f1o Dan'
tp2690
a(g2630
S'Dhairya Thakkar'
tp2691
a(S'1585126761'
p2692
S'Tanzil Shaikh'
tp2693
a(g2672
S'Archit Khode'
tp2694
a(S'100001084667953'
p2695
S'Vindhya Singh'
tp2696
a(S'1451836210'
p2697
S'Inna Belozeorova'
tp2698
a(g2651
S'Sam Singh'
tp2699
a(S'758931962'
p2700
S'Amar Ummat'
tp2701
a(S'1778149422'
p2702
S'Tushar Choudhury'
tp2703
a(g2657
S'Aishwarya Patil'
tp2704
a(g2655
S'Vedika Padia'
tp2705
a(g2660
S'Kruti Deshpande'
tp2706
a(g2681
S'Vipul Malik'
tp2707
a(S'1257140138'
p2708
S'Nirav Tanna'
tp2709
a(S'100002287736982'
p2710
S'Ronak Kamble'
tp2711
a(S'766889217'
p2712
S'Saloni Dharamshi'
tp2713
a(g2667
S'Salman Nathani'
tp2714
a(g2686
S'Aniket Ajwani'
tp2715
a(g2669
S'Due\\u00f1o Dan'
tp2716
a(S'100002057705633'
p2717
S'Aishwarya Pardeshi'
tp2718
a(g2692
S'Tanzil Shaikh'
tp2719
a(g2672
S'Archit Khode'
tp2720
a(g2697
S'Inna Belozeorova'
tp2721
a(g2695
S'Vindhya Singh'
tp2722
a(S'100002664837040'
p2723
S'Shruti Deshpande'
tp2724
a(g2700
S'Amar Ummat'
tp2725
a(g2702
S'Tushar Choudhury'
tp2726
a(S'1314150215'
p2727
S'Kimaya Patil'
tp2728
a(S'1024995773'
p2729
S'Mrinal Masand'
tp2730
a(S'100001103657102'
p2731
S'AmAn ShAikh'
tp2732
a(g2681
S'Vipul Malik'
tp2733
a(g2708
S'Nirav Tanna'
tp2734
a(g2710
S'Ronak Kamble'
tp2735
a(g2686
S'Aniket Ajwani'
tp2736
a(S'100001114429653'
p2737
S'Justin Evans'
tp2738
a(g2712
S'Saloni Dharamshi'
tp2739
a(S'1061791180'
p2740
S'Ranjeev Dutt'
tp2741
a(g2717
S'Aishwarya Pardeshi'
tp2742
a(g2692
S'Tanzil Shaikh'
tp2743
a(S'100002721529802'
p2744
S'Latasha Garg'
tp2745
a(g2695
S'Vindhya Singh'
tp2746
a(g2697
S'Inna Belozeorova'
tp2747
a(g2723
S'Shruti Deshpande'
tp2748
a(g2700
S'Amar Ummat'
tp2749
a(g2702
S'Tushar Choudhury'
tp2750
a(g2729
S'Mrinal Masand'
tp2751
a(g2727
S'Kimaya Patil'
tp2752
a(g2731
S'AmAn ShAikh'
tp2753
a(S'100004640113101'
p2754
S'Annie Jacob'
tp2755
a(g2710
S'Ronak Kamble'
tp2756
a(g2708
S'Nirav Tanna'
tp2757
a(g2712
S'Saloni Dharamshi'
tp2758
a(g2737
S'Justin Evans'
tp2759
a(S'100002298455845'
p2760
S'Kushal Sanas'
tp2761
a(g2740
S'Ranjeev Dutt'
tp2762
a(g2717
S'Aishwarya Pardeshi'
tp2763
a(g2744
S'Latasha Garg'
tp2764
a(S'100000120104271'
p2765
S'Vatsal Sakaria'
tp2766
a(S'1353940685'
p2767
S'Mehak Agarwal'
tp2768
a(g2723
S'Shruti Deshpande'
tp2769
a(S'100001648973985'
p2770
S'Shreya Parmar'
tp2771
a(S'100000739224621'
p2772
S'Siddhi Naik'
tp2773
a(g2727
S'Kimaya Patil'
tp2774
a(g2729
S'Mrinal Masand'
tp2775
a(g2731
S'AmAn ShAikh'
tp2776
a(g2754
S'Annie Jacob'
tp2777
a(S'100002671735759'
p2778
S'Shreenidhi Bhutada'
tp2779
a(S'100001794555845'
p2780
S'Priyanshu Anand'
tp2781
a(g2760
S'Kushal Sanas'
tp2782
a(S'1130708802'
p2783
S'Karan Madan'
tp2784
a(g2737
S'Justin Evans'
tp2785
a(g2740
S'Ranjeev Dutt'
tp2786
a(S'100002044932040'
p2787
S'Ritu Sheth'
tp2788
a(g2744
S'Latasha Garg'
tp2789
a(g2765
S'Vatsal Sakaria'
tp2790
a(g2767
S'Mehak Agarwal'
tp2791
a(S'100000278676852'
p2792
S'Zeba Sayed'
tp2793
a(g2770
S'Shreya Parmar'
tp2794
a(g2772
S'Siddhi Naik'
tp2795
a(S'693731652'
p2796
S'Harshman Singh'
tp2797
a(S'1149610354'
p2798
S'Aakriti Sharma'
tp2799
a(S'1365291802'
p2800
S'Ashini Patel'
tp2801
a(g2754
S'Annie Jacob'
tp2802
a(g2780
S'Priyanshu Anand'
tp2803
a(g2778
S'Shreenidhi Bhutada'
tp2804
a(g2783
S'Karan Madan'
tp2805
a(S'1578693020'
p2806
S'Rajas Raygade'
tp2807
a(g2760
S'Kushal Sanas'
tp2808
a(g2787
S'Ritu Sheth'
tp2809
a(S'100000578858672'
p2810
S'Sarthak Agarwal'
tp2811
a(S'1583573094'
p2812
S'Arpit Srivastava'
tp2813
a(g2765
S'Vatsal Sakaria'
tp2814
a(g2767
S'Mehak Agarwal'
tp2815
a(g2792
S'Zeba Sayed'
tp2816
a(g2770
S'Shreya Parmar'
tp2817
a(g2772
S'Siddhi Naik'
tp2818
a(S'100001605328748'
p2819
S'Alex Watson'
tp2820
a(g2798
S'Aakriti Sharma'
tp2821
a(g2796
S'Harshman Singh'
tp2822
a(S'1196866161'
p2823
S'Swati Srinivasan'
tp2824
a(g2800
S'Ashini Patel'
tp2825
a(g2778
S'Shreenidhi Bhutada'
tp2826
a(g2780
S'Priyanshu Anand'
tp2827
a(g2783
S'Karan Madan'
tp2828
a(g2806
S'Rajas Raygade'
tp2829
a(S'100002273162659'
p2830
S'Vedant Nikam'
tp2831
a(g2810
S'Sarthak Agarwal'
tp2832
a(g2787
S'Ritu Sheth'
tp2833
a(g2812
S'Arpit Srivastava'
tp2834
a(S'100002226270099'
p2835
S'Aryan Chopra'
tp2836
a(S'100001276578279'
p2837
S'Karishma Nadar'
tp2838
a(g2792
S'Zeba Sayed'
tp2839
a(S'100001702555626'
p2840
S'Siddhant Jain'
tp2841
a(S'100001361565583'
p2842
S'Ankita Khandve'
tp2843
a(g2819
S'Alex Watson'
tp2844
a(g2798
S'Aakriti Sharma'
tp2845
a(g2796
S'Harshman Singh'
tp2846
a(g2823
S'Swati Srinivasan'
tp2847
a(g2800
S'Ashini Patel'
tp2848
a(S'100000558110083'
p2849
S'Kuber Bhatia'
tp2850
a(S'100000148340034'
p2851
S'Shriyash Sonawane'
tp2852
a(S'100000999230376'
p2853
S'Jessica Roy'
tp2854
a(g2806
S'Rajas Raygade'
tp2855
a(g2830
S'Vedant Nikam'
tp2856
a(S'100000125834433'
p2857
S'Subbu Iyer'
tp2858
a(g2810
S'Sarthak Agarwal'
tp2859
a(g2812
S'Arpit Srivastava'
tp2860
a(g2835
S'Aryan Chopra'
tp2861
a(g2837
S'Karishma Nadar'
tp2862
a(S'100004339866234'
p2863
S'Dhruv Khanna'
tp2864
a(g2840
S'Siddhant Jain'
tp2865
a(g2842
S'Ankita Khandve'
tp2866
a(g2819
S'Alex Watson'
tp2867
a(S'1173407933'
p2868
S'Akshata Oswal'
tp2869
a(S'100002225420614'
p2870
S'Kartik Bhosale'
tp2871
a(S'100003659060472'
p2872
S'Neha Sonawane'
tp2873
a(g2823
S'Swati Srinivasan'
tp2874
a(g2851
S'Shriyash Sonawane'
tp2875
a(g2849
S'Kuber Bhatia'
tp2876
a(g2853
S'Jessica Roy'
tp2877
a(g2830
S'Vedant Nikam'
tp2878
a(S'610051150'
p2879
S'Kanksha Patel'
tp2880
a(S'100000348390965'
p2881
S'Sakshi Kanse'
tp2882
a(g2857
S'Subbu Iyer'
tp2883
a(S'100000981310720'
p2884
S'Akansha Walvekar'
tp2885
a(g2835
S'Aryan Chopra'
tp2886
a(g2863
S'Dhruv Khanna'
tp2887
a(g2840
S'Siddhant Jain'
tp2888
a(g2842
S'Ankita Khandve'
tp2889
a(S'1248965591'
p2890
S'Srijan Seth'
tp2891
a(g2837
S'Karishma Nadar'
tp2892
a(g2870
S'Kartik Bhosale'
tp2893
a(g2868
S'Akshata Oswal'
tp2894
a(S'100000925225519'
p2895
S'Ishdeep Kaur'
tp2896
a(g2872
S'Neha Sonawane'
tp2897
a(g2849
S'Kuber Bhatia'
tp2898
a(g2851
S'Shriyash Sonawane'
tp2899
a(g2853
S'Jessica Roy'
tp2900
a(S'1682162372'
p2901
S'Namit Sharma'
tp2902
a(g2879
S'Kanksha Patel'
tp2903
a(g2881
S'Sakshi Kanse'
tp2904
a(g2857
S'Subbu Iyer'
tp2905
a(g2884
S'Akansha Walvekar'
tp2906
a(S'100003250133430'
p2907
S'Wendy Dobson'
tp2908
a(g2863
S'Dhruv Khanna'
tp2909
a(S'100001224086412'
p2910
S'Rashmi Prasad Prasad'
tp2911
a(S'100001031727094'
p2912
S'Ameya Wadkar'
tp2913
a(g2890
S'Srijan Seth'
tp2914
a(S'1805004609'
p2915
S'Chirayu Chhibar'
tp2916
a(g2870
S'Kartik Bhosale'
tp2917
a(g2868
S'Akshata Oswal'
tp2918
a(g2895
S'Ishdeep Kaur'
tp2919
a(g2872
S'Neha Sonawane'
tp2920
a(S'1702029855'
p2921
S'Adarsh Sekar'
tp2922
a(S'1057636199'
p2923
S'Anshul Kanade'
tp2924
a(S'100001372744661'
p2925
S'Mayuri Charnalia'
tp2926
a(g2879
S'Kanksha Patel'
tp2927
a(g2901
S'Namit Sharma'
tp2928
a(g2881
S'Sakshi Kanse'
tp2929
a(S'1467924731'
p2930
S'Akshay Jha'
tp2931
a(g2884
S'Akansha Walvekar'
tp2932
a(g2907
S'Wendy Dobson'
tp2933
a(S'100000251940396'
p2934
S'Pratibha Pawar'
tp2935
a(g2910
S'Rashmi Prasad Prasad'
tp2936
a(g2912
S'Ameya Wadkar'
tp2937
a(g2890
S'Srijan Seth'
tp2938
a(g2915
S'Chirayu Chhibar'
tp2939
a(S'1571847513'
p2940
S'Mobin Varghese'
tp2941
a(S'100000121461087'
p2942
S'Neeraj Mogal'
tp2943
a(g2895
S'Ishdeep Kaur'
tp2944
a(S'100000102387370'
p2945
S'Mayuri Jethmalani'
tp2946
a(g2921
S'Adarsh Sekar'
tp2947
a(g2923
S'Anshul Kanade'
tp2948
a(g2901
S'Namit Sharma'
tp2949
a(S'100003524794659'
p2950
S'Sanya Patel'
tp2951
a(g2925
S'Mayuri Charnalia'
tp2952
a(S'1048010806'
p2953
S'Armaan Dua'
tp2954
a(g2930
S'Akshay Jha'
tp2955
a(S'100000940085935'
p2956
S'Malvika Barry'
tp2957
a(g2907
S'Wendy Dobson'
tp2958
a(g2934
S'Pratibha Pawar'
tp2959
a(g2912
S'Ameya Wadkar'
tp2960
a(S'100001589149368'
p2961
S'Karan Parkhe'
tp2962
a(g2915
S'Chirayu Chhibar'
tp2963
a(g2910
S'Rashmi Prasad Prasad'
tp2964
a(g2942
S'Neeraj Mogal'
tp2965
a(g2940
S'Mobin Varghese'
tp2966
a(S'55006180'
p2967
S'Rohan Patel'
tp2968
a(g2945
S'Mayuri Jethmalani'
tp2969
a(g2921
S'Adarsh Sekar'
tp2970
a(g2923
S'Anshul Kanade'
tp2971
a(g2925
S'Mayuri Charnalia'
tp2972
a(g2950
S'Sanya Patel'
tp2973
a(g2953
S'Armaan Dua'
tp2974
a(g2930
S'Akshay Jha'
tp2975
a(g2956
S'Malvika Barry'
tp2976
a(S'100000004372611'
p2977
S'Mohit Vinit Kaku'
tp2978
a(g2934
S'Pratibha Pawar'
tp2979
a(S'100001059114146'
p2980
S'Prachi Auti'
tp2981
a(S'702740396'
p2982
S'Amisha Patel'
tp2983
a(g2961
S'Karan Parkhe'
tp2984
a(S'100002271530386'
p2985
S'Apurva Jagtap'
tp2986
a(S'1109482685'
p2987
S'Sania Poovaiah'
tp2988
a(g2940
S'Mobin Varghese'
tp2989
a(g2942
S'Neeraj Mogal'
tp2990
a(g2967
S'Rohan Patel'
tp2991
a(g2945
S'Mayuri Jethmalani'
tp2992
a(S'1600246573'
p2993
S'Nikhil Jagtap'
tp2994
a(S'100000222619028'
p2995
S'Janit Dadlani'
tp2996
a(S'100000005346969'
p2997
S'Disha Agarwal'
tp2998
a(g2950
S'Sanya Patel'
tp2999
a(g2953
S'Armaan Dua'
tp3000
a(S'1204305132'
p3001
S'Ila Shrivastava'
tp3002
a(g2956
S'Malvika Barry'
tp3003
a(g2977
S'Mohit Vinit Kaku'
tp3004
a(S'100000952689549'
p3005
S'Suraj Joshi'
tp3006
a(g2980
S'Prachi Auti'
tp3007
a(g2982
S'Amisha Patel'
tp3008
a(g2961
S'Karan Parkhe'
tp3009
a(g2985
S'Apurva Jagtap'
tp3010
a(g2987
S'Sania Poovaiah'
tp3011
a(S'100006385843575'
p3012
S'Huzaifa Mohsinally'
tp3013
a(S'851465696'
p3014
S'Gulam Dhalla'
tp3015
a(S'100000279666714'
p3016
S'Kailash Chivhe'
tp3017
a(g2967
S'Rohan Patel'
tp3018
a(g2995
S'Janit Dadlani'
tp3019
a(g2993
S'Nikhil Jagtap'
tp3020
a(g2997
S'Disha Agarwal'
tp3021
a(S'1453712757'
p3022
S'Sonal Narvekar'
tp3023
a(g3001
S'Ila Shrivastava'
tp3024
a(S'100000544831644'
p3025
S'Krishna Dhariwal'
tp3026
a(g2977
S'Mohit Vinit Kaku'
tp3027
a(g3005
S'Suraj Joshi'
tp3028
a(g2980
S'Prachi Auti'
tp3029
a(g2982
S'Amisha Patel'
tp3030
a(S'610867573'
p3031
S'Sneha Ahuja'
tp3032
a(S'100002457912390'
p3033
S'Sanjhana Raghavan'
tp3034
a(g2985
S'Apurva Jagtap'
tp3035
a(g2987
S'Sania Poovaiah'
tp3036
a(g3014
S'Gulam Dhalla'
tp3037
a(g3012
S'Huzaifa Mohsinally'
tp3038
a(g3016
S'Kailash Chivhe'
tp3039
a(S'100002379487594'
p3040
S'Ayesha Juthani'
tp3041
a(g2995
S'Janit Dadlani'
tp3042
a(g2993
S'Nikhil Jagtap'
tp3043
a(g2997
S'Disha Agarwal'
tp3044
a(g3001
S'Ila Shrivastava'
tp3045
a(g3022
S'Sonal Narvekar'
tp3046
a(g3025
S'Krishna Dhariwal'
tp3047
a(S'1059678666'
p3048
S'Shivani Rukhana'
tp3049
a(g3005
S'Suraj Joshi'
tp3050
a(S'100002444352652'
p3051
S'Aniket Singh Rathod'
tp3052
a(S'1297380889'
p3053
S'Aditi Gaikwad'
tp3054
a(g3031
S'Sneha Ahuja'
tp3055
a(g3033
S'Sanjhana Raghavan'
tp3056
a(S'1106738664'
p3057
S'Rohan Kisarkar'
tp3058
a(S'100007028852661'
p3059
S'Faisal Meghrani'
tp3060
a(g3012
S'Huzaifa Mohsinally'
tp3061
a(g3014
S'Gulam Dhalla'
tp3062
a(g3016
S'Kailash Chivhe'
tp3063
a(g3040
S'Ayesha Juthani'
tp3064
a(S'1670979120'
p3065
S'Khyati Rustagi'
tp3066
a(S'100000208282726'
p3067
S'Ronak Tanna'
tp3068
a(S'100002721122521'
p3069
S'Pratik Patil'
tp3070
a(S'1161062105'
p3071
S'Sakshi Sethi'
tp3072
a(g3022
S'Sonal Narvekar'
tp3073
a(g3025
S'Krishna Dhariwal'
tp3074
a(g3048
S'Shivani Rukhana'
tp3075
a(S'1268861461'
p3076
S'Tejas Raj'
tp3077
a(g3051
S'Aniket Singh Rathod'
tp3078
a(g3053
S'Aditi Gaikwad'
tp3079
a(g3031
S'Sneha Ahuja'
tp3080
a(g3033
S'Sanjhana Raghavan'
tp3081
a(g3057
S'Rohan Kisarkar'
tp3082
a(g3059
S'Faisal Meghrani'
tp3083
a(S'100000575321561'
p3084
S'Prachi Jain'
tp3085
a(S'759914360'
p3086
S'Suhasini Dave'
tp3087
a(g3040
S'Ayesha Juthani'
tp3088
a(S'100002347915295'
p3089
S'Harsh Pandit'
tp3090
a(g3065
S'Khyati Rustagi'
tp3091
a(g3067
S'Ronak Tanna'
tp3092
a(g3069
S'Pratik Patil'
tp3093
a(S'1053327839'
p3094
S'Deeksha Pagar'
tp3095
a(g3071
S'Sakshi Sethi'
tp3096
a(S'1474298536'
p3097
S'Ishwari Deogaonkar'
tp3098
a(g3048
S'Shivani Rukhana'
tp3099
a(g3076
S'Tejas Raj'
tp3100
a(g3051
S'Aniket Singh Rathod'
tp3101
a(g3053
S'Aditi Gaikwad'
tp3102
a(S'1315990230'
p3103
S'Debneil Mukherjee'
tp3104
a(S'100000844533360'
p3105
S'Mihir Deo'
tp3106
a(g3057
S'Rohan Kisarkar'
tp3107
a(g3059
S'Faisal Meghrani'
tp3108
a(g3086
S'Suhasini Dave'
tp3109
a(g3084
S'Prachi Jain'
tp3110
a(g3089
S'Harsh Pandit'
tp3111
a(S'1824207146'
p3112
S'Smrithi Kumar'
tp3113
a(g3067
S'Ronak Tanna'
tp3114
a(g3065
S'Khyati Rustagi'
tp3115
a(g3069
S'Pratik Patil'
tp3116
a(g3071
S'Sakshi Sethi'
tp3117
a(g3094
S'Deeksha Pagar'
tp3118
a(g3097
S'Ishwari Deogaonkar'
tp3119
a(S'1540202154'
p3120
S'Nayna Bhinde'
tp3121
a(g3076
S'Tejas Raj'
tp3122
a(S'676686490'
p3123
S'Simrat Bir'
tp3124
a(S'100008103405716'
p3125
S'Salome Kurian'
tp3126
a(g3103
S'Debneil Mukherjee'
tp3127
a(g3105
S'Mihir Deo'
tp3128
a(S'100002235514869'
p3129
S'Zahid Mansuri'
tp3130
a(S'100007268105153'
p3131
S'Jacqueline Catherine Dobson'
tp3132
a(g3084
S'Prachi Jain'
tp3133
a(g3086
S'Suhasini Dave'
tp3134
a(g3112
S'Smrithi Kumar'
tp3135
a(g3089
S'Harsh Pandit'
tp3136
a(S'648440432'
p3137
S'Seemoli Ganatra'
tp3138
a(S'1008977447'
p3139
S'Anmol Rattan'
tp3140
a(S'100000044027499'
p3141
S'Sahil Virmani'
tp3142
a(g3094
S'Deeksha Pagar'
tp3143
a(S'1485295256'
p3144
S'Suruchi Dhawan'
tp3145
a(g3097
S'Ishwari Deogaonkar'
tp3146
a(g3120
S'Nayna Bhinde'
tp3147
a(S'100002095775868'
p3148
S'Shaswat Yashwardhan'
tp3149
a(g3123
S'Simrat Bir'
tp3150
a(g3125
S'Salome Kurian'
tp3151
a(g3103
S'Debneil Mukherjee'
tp3152
a(g3105
S'Mihir Deo'
tp3153
a(g3129
S'Zahid Mansuri'
tp3154
a(g3131
S'Jacqueline Catherine Dobson'
tp3155
a(S'1684910848'
p3156
S'Ritesh Sharma'
tp3157
a(S'100001068030415'
p3158
S'Abhishikta Bandopadhyay'
tp3159
a(S'1382138255'
p3160
S'Shubhankar Kulkarni'
tp3161
a(g3112
S'Smrithi Kumar'
tp3162
a(g3137
S'Seemoli Ganatra'
tp3163
a(g3139
S'Anmol Rattan'
tp3164
a(g3141
S'Sahil Virmani'
tp3165
a(S'1098285524'
p3166
S'Mrugakshee Palwe'
tp3167
a(g3144
S'Suruchi Dhawan'
tp3168
a(S'1435977341'
p3169
S'Maria Mathews Swamy'
tp3170
a(g3120
S'Nayna Bhinde'
tp3171
a(g3148
S'Shaswat Yashwardhan'
tp3172
a(g3123
S'Simrat Bir'
tp3173
a(g3125
S'Salome Kurian'
tp3174
a(S'100000372773726'
p3175
S'Anish Pingle'
tp3176
a(S'1524233012'
p3177
S'Aditya Arora'
tp3178
a(g3129
S'Zahid Mansuri'
tp3179
a(g3131
S'Jacqueline Catherine Dobson'
tp3180
a(g3158
S'Abhishikta Bandopadhyay'
tp3181
a(g3156
S'Ritesh Sharma'
tp3182
a(S'100000674197970'
p3183
S'Sharvari Kulkarni'
tp3184
a(g3160
S'Shubhankar Kulkarni'
tp3185
a(g3139
S'Anmol Rattan'
tp3186
a(g3137
S'Seemoli Ganatra'
tp3187
a(g3141
S'Sahil Virmani'
tp3188
a(g3166
S'Mrugakshee Palwe'
tp3189
a(g3144
S'Suruchi Dhawan'
tp3190
a(g3169
S'Maria Mathews Swamy'
tp3191
a(S'1460692724'
p3192
S'Faizal Memon'
tp3193
a(g3148
S'Shaswat Yashwardhan'
tp3194
a(S'590248359'
p3195
S'Shivani Sawant'
tp3196
a(S'100001485133289'
p3197
S'Harshit Chauhan'
tp3198
a(g3175
S'Anish Pingle'
tp3199
a(g3177
S'Aditya Arora'
tp3200
a(S'100002033421828'
p3201
S'Aayush Parekh'
tp3202
a(S'1626708579'
p3203
S'Sanaya Gupta'
tp3204
a(g3156
S'Ritesh Sharma'
tp3205
a(g3158
S'Abhishikta Bandopadhyay'
tp3206
a(g3183
S'Sharvari Kulkarni'
tp3207
a(g3160
S'Shubhankar Kulkarni'
tp3208
a(S'100000315416992'
p3209
S'Aanchal Tyagi'
tp3210
a(S'1293832980'
p3211
S'Aashna Banerjee'
tp3212
a(S'765075161'
p3213
S'Komal Sidhu'
tp3214
a(S'728455623'
p3215
S'Noemi Blazquez Benito'
tp3216
a(g3166
S'Mrugakshee Palwe'
tp3217
a(g3169
S'Maria Mathews Swamy'
tp3218
a(g3192
S'Faizal Memon'
tp3219
a(S'100002797239865'
p3220
S'Sruthi Sriram'
tp3221
a(g3195
S'Shivani Sawant'
tp3222
a(g3197
S'Harshit Chauhan'
tp3223
a(g3175
S'Anish Pingle'
tp3224
a(g3177
S'Aditya Arora'
tp3225
a(g3201
S'Aayush Parekh'
tp3226
a(g3203
S'Sanaya Gupta'
tp3227
a(S'100002104821664'
p3228
S'Maulika Memane'
tp3229
a(S'100000668996392'
p3230
S'Namrata Somaani'
tp3231
a(g3183
S'Sharvari Kulkarni'
tp3232
a(S'100000586818366'
p3233
S'Karishma Aghav'
tp3234
a(g3209
S'Aanchal Tyagi'
tp3235
a(g3211
S'Aashna Banerjee'
tp3236
a(g3213
S'Komal Sidhu'
tp3237
a(S'100001214331638'
p3238
S'Muskan Varma'
tp3239
a(g3215
S'Noemi Blazquez Benito'
tp3240
a(S'619723499'
p3241
S'Neeti Pherwani'
tp3242
a(g3192
S'Faizal Memon'
tp3243
a(g3220
S'Sruthi Sriram'
tp3244
a(g3195
S'Shivani Sawant'
tp3245
a(g3197
S'Harshit Chauhan'
tp3246
a(S'100001161669154'
p3247
S'Pawan Patil'
tp3248
a(S'100001252784333'
p3249
S'Aparna Kotak'
tp3250
a(g3201
S'Aayush Parekh'
tp3251
a(g3203
S'Sanaya Gupta'
tp3252
a(g3228
S'Maulika Memane'
tp3253
a(g3230
S'Namrata Somaani'
tp3254
a(g3233
S'Karishma Aghav'
tp3255
a(S'100001642616236'
p3256
S'Soumya Pawar'
tp3257
a(g3211
S'Aashna Banerjee'
tp3258
a(g3209
S'Aanchal Tyagi'
tp3259
a(g3213
S'Komal Sidhu'
tp3260
a(g3238
S'Muskan Varma'
tp3261
a(g3215
S'Noemi Blazquez Benito'
tp3262
a(g3241
S'Neeti Pherwani'
tp3263
a(S'1351347549'
p3264
S'Preshit Parihar'
tp3265
a(g3220
S'Sruthi Sriram'
tp3266
a(S'100001184101713'
p3267
S'Mahesh Mudliyar'
tp3268
a(S'100001410337903'
p3269
S'Jonathan Mason'
tp3270
a(g3247
S'Pawan Patil'
tp3271
a(g3249
S'Aparna Kotak'
tp3272
a(S'825963348'
p3273
S'Siddharth Baxi'
tp3274
a(S'1008103750'
p3275
S'Imtiyaz Hariyani'
tp3276
a(g3228
S'Maulika Memane'
tp3277
a(g3230
S'Namrata Somaani'
tp3278
a(g3233
S'Karishma Aghav'
tp3279
a(g3256
S'Soumya Pawar'
tp3280
a(S'100000569986564'
p3281
S'Saurabh Veer'
tp3282
a(S'100003166767584'
p3283
S'Samreen Kashmiri'
tp3284
a(S'100001067620966'
p3285
S'Antriksha Oberoi'
tp3286
a(S'100000190886414'
p3287
S'Ankita Nabriya'
tp3288
a(g3238
S'Muskan Varma'
tp3289
a(g3241
S'Neeti Pherwani'
tp3290
a(g3264
S'Preshit Parihar'
tp3291
a(S'100003638851296'
p3292
S'Aliasgar Kapasi'
tp3293
a(g3267
S'Mahesh Mudliyar'
tp3294
a(g3269
S'Jonathan Mason'
tp3295
a(g3247
S'Pawan Patil'
tp3296
a(g3249
S'Aparna Kotak'
tp3297
a(g3273
S'Siddharth Baxi'
tp3298
a(g3275
S'Imtiyaz Hariyani'
tp3299
a(S'100001090780745'
p3300
S'Ishaan Bhutada'
tp3301
a(S'100000840935306'
p3302
S'Rhea Anne Rego'
tp3303
a(S'1657655912'
p3304
S'Shreyash Ranpise'
tp3305
a(g3256
S'Soumya Pawar'
tp3306
a(g3281
S'Saurabh Veer'
tp3307
a(g3285
S'Antriksha Oberoi'
tp3308
a(g3287
S'Ankita Nabriya'
tp3309
a(S'100000413612666'
p3310
S'Raj Awatramani'
tp3311
a(g3264
S'Preshit Parihar'
tp3312
a(g3292
S'Aliasgar Kapasi'
tp3313
a(g3267
S'Mahesh Mudliyar'
tp3314
a(g3269
S'Jonathan Mason'
tp3315
a(S'1424195636'
p3316
S'Irvan Sanghvi'
tp3317
a(g3283
S'Samreen Kashmiri'
tp3318
a(S'100000525481843'
p3319
S'Vaishnavi D. Javare'
tp3320
a(g3273
S'Siddharth Baxi'
tp3321
a(g3275
S'Imtiyaz Hariyani'
tp3322
a(g3300
S'Ishaan Bhutada'
tp3323
a(g3302
S'Rhea Anne Rego'
tp3324
a(g3304
S'Shreyash Ranpise'
tp3325
a(S'1387164140'
p3326
S'Niharika Singh'
tp3327
a(g3281
S'Saurabh Veer'
tp3328
a(g3285
S'Antriksha Oberoi'
tp3329
a(g3310
S'Raj Awatramani'
tp3330
a(g3287
S'Ankita Nabriya'
tp3331
a(S'1269472817'
p3332
S'Shloka Shetty'
tp3333
a(g3292
S'Aliasgar Kapasi'
tp3334
a(S'1772933104'
p3335
S'Nikhil Reddy'
tp3336
a(S'1791173957'
p3337
S'Aakash Shimpi'
tp3338
a(g3316
S'Irvan Sanghvi'
tp3339
a(g3283
S'Samreen Kashmiri'
tp3340
a(g3319
S'Vaishnavi D. Javare'
tp3341
a(S'1355632777'
p3342
S'Srishti Malhotra'
tp3343
a(S'1322630420'
p3344
S'Sania Rao'
tp3345
a(g3300
S'Ishaan Bhutada'
tp3346
a(g3302
S'Rhea Anne Rego'
tp3347
a(g3304
S'Shreyash Ranpise'
tp3348
a(g3326
S'Niharika Singh'
tp3349
a(S'100002137753760'
p3350
S'Shreya Waghmare'
tp3351
a(S'100001501482745'
p3352
S'Arbaaz Pathan'
tp3353
a(S'1087611706'
p3354
S'Rahil Memon'
tp3355
a(g3310
S'Raj Awatramani'
tp3356
a(g3332
S'Shloka Shetty'
tp3357
a(S'1496822219'
p3358
S'Sahil Mali'
tp3359
a(S'100002193594966'
p3360
S'Priya Shah'
tp3361
a(g3335
S'Nikhil Reddy'
tp3362
a(g3337
S'Aakash Shimpi'
tp3363
a(g3316
S'Irvan Sanghvi'
tp3364
a(S'100001222188203'
p3365
S'Kushal Sanas'
tp3366
a(g3319
S'Vaishnavi D. Javare'
tp3367
a(g3342
S'Srishti Malhotra'
tp3368
a(g3344
S'Sania Rao'
tp3369
a(S'100000263388622'
p3370
S'Ria Ramesh'
tp3371
a(S'619581608'
p3372
S'Rishad Chatterjee'
tp3373
a(g3326
S'Niharika Singh'
tp3374
a(g3350
S'Shreya Waghmare'
tp3375
a(g3352
S'Arbaaz Pathan'
tp3376
a(g3354
S'Rahil Memon'
tp3377
a(g3332
S'Shloka Shetty'
tp3378
a(g3358
S'Sahil Mali'
tp3379
a(g3360
S'Priya Shah'
tp3380
a(S'100001559634237'
p3381
S'Chaitanya Bathija'
tp3382
a(g3337
S'Aakash Shimpi'
tp3383
a(S'100000169020936'
p3384
S'Alim Bhimani'
tp3385
a(S'100000855746829'
p3386
S'Swagat Belsare'
tp3387
a(g3365
S'Kushal Sanas'
tp3388
a(S'1355163813'
p3389
S'Anushka Sanap'
tp3390
a(g3342
S'Srishti Malhotra'
tp3391
a(g3344
S'Sania Rao'
tp3392
a(g3370
S'Ria Ramesh'
tp3393
a(g3372
S'Rishad Chatterjee'
tp3394
a(S'743644765'
p3395
S'Natasha Kadam'
tp3396
a(g3350
S'Shreya Waghmare'
tp3397
a(g3352
S'Arbaaz Pathan'
tp3398
a(g3354
S'Rahil Memon'
tp3399
a(S'100001100360267'
p3400
S'Shivani Singh'
tp3401
a(g3358
S'Sahil Mali'
tp3402
a(g3360
S'Priya Shah'
tp3403
a(g3381
S'Chaitanya Bathija'
tp3404
a(S'100002437505021'
p3405
S'Navkirat Pannu'
tp3406
a(g3384
S'Alim Bhimani'
tp3407
a(g3335
S'Nikhil Reddy'
tp3408
a(g3386
S'Swagat Belsare'
tp3409
a(g3365
S'Kushal Sanas'
tp3410
a(g3389
S'Anushka Sanap'
tp3411
a(S'678988958'
p3412
S'Ruchee Soni'
tp3413
a(S'100000975823311'
p3414
S'Shantanu Atram'
tp3415
a(g3370
S'Ria Ramesh'
tp3416
a(g3372
S'Rishad Chatterjee'
tp3417
a(g3395
S'Natasha Kadam'
tp3418
a(S'1490738572'
p3419
S'Srinivas Dudhgaonkar'
tp3420
a(S'100001444604312'
p3421
S'Abhay Chaudhary'
tp3422
a(S'100001296498538'
p3423
S'Janhavi Penkar'
tp3424
a(g3400
S'Shivani Singh'
tp3425
a(S'100000902773462'
p3426
S'Celene George'
tp3427
a(S'100000597975119'
p3428
S'Rishab Jain'
tp3429
a(g3381
S'Chaitanya Bathija'
tp3430
a(g3405
S'Navkirat Pannu'
tp3431
a(g3384
S'Alim Bhimani'
tp3432
a(S'1836785766'
p3433
S'Akanksha Chopda'
tp3434
a(g3386
S'Swagat Belsare'
tp3435
a(S'100002005909479'
p3436
S'Animesh Bhat'
tp3437
a(g3389
S'Anushka Sanap'
tp3438
a(g3412
S'Ruchee Soni'
tp3439
a(g3414
S'Shantanu Atram'
tp3440
a(S'100003603998422'
p3441
S'Priyanshu Anand'
tp3442
a(S'1214913766'
p3443
S'Ria Sheth'
tp3444
a(g3395
S'Natasha Kadam'
tp3445
a(g3419
S'Srinivas Dudhgaonkar'
tp3446
a(g3421
S'Abhay Chaudhary'
tp3447
a(g3423
S'Janhavi Penkar'
tp3448
a(g3400
S'Shivani Singh'
tp3449
a(g3428
S'Rishab Jain'
tp3450
a(g3426
S'Celene George'
tp3451
a(S'1504505819'
p3452
S'Drishti Agarwal'
tp3453
a(g3405
S'Navkirat Pannu'
tp3454
a(S'1221694083'
p3455
S'Aditya Khonde'
tp3456
a(g3433
S'Akanksha Chopda'
tp3457
a(S'100001407787963'
p3458
S'Akshay Khade'
tp3459
a(g3436
S'Animesh Bhat'
tp3460
a(S'100000583615962'
p3461
S'Devanjan Indra Mukherjee'
tp3462
a(g3412
S'Ruchee Soni'
tp3463
a(g3414
S'Shantanu Atram'
tp3464
a(g3441
S'Priyanshu Anand'
tp3465
a(g3443
S'Ria Sheth'
tp3466
a(S'1090240408'
p3467
S'Lauren Robinson'
tp3468
a(g3419
S'Srinivas Dudhgaonkar'
tp3469
a(g3421
S'Abhay Chaudhary'
tp3470
a(g3423
S'Janhavi Penkar'
tp3471
a(S'100002045002898'
p3472
S'Sanjana Sekhar'
tp3473
a(g3428
S'Rishab Jain'
tp3474
a(g3426
S'Celene George'
tp3475
a(g3452
S'Drishti Agarwal'
tp3476
a(S'100002899858619'
p3477
S'Siddhant Pradhan'
tp3478
a(g3455
S'Aditya Khonde'
tp3479
a(g3433
S'Akanksha Chopda'
tp3480
a(g3458
S'Akshay Khade'
tp3481
a(g3436
S'Animesh Bhat'
tp3482
a(g3461
S'Devanjan Indra Mukherjee'
tp3483
a(S'1512827073'
p3484
S'Amman Singh'
tp3485
a(S'1148389173'
p3486
S'Ashia Choony'
tp3487
a(g3441
S'Priyanshu Anand'
tp3488
a(g3443
S'Ria Sheth'
tp3489
a(g3467
S'Lauren Robinson'
tp3490
a(S'1260975544'
p3491
S'Trisha Eduljee'
tp3492
a(S'100003070459068'
p3493
S'Helenas Sch'
tp3494
a(S'100001680434298'
p3495
S'Prerna Natekar'
tp3496
a(g3472
S'Sanjana Sekhar'
tp3497
a(S'100000068157633'
p3498
S'Ishitta Shinde'
tp3499
a(g3452
S'Drishti Agarwal'
tp3500
a(g3455
S'Aditya Khonde'
tp3501
a(g3477
S'Siddhant Pradhan'
tp3502
a(g3461
S'Devanjan Indra Mukherjee'
tp3503
a(S'100001905811910'
p3504
S'Revati Bajaj'
tp3505
a(S'1134987912'
p3506
S'Aditya Ghanawat'
tp3507
a(g3458
S'Akshay Khade'
tp3508
a(g3486
S'Ashia Choony'
tp3509
a(g3484
S'Amman Singh'
tp3510
a(g3493
S'Helenas Sch'
tp3511
a(g3491
S'Trisha Eduljee'
tp3512
a(S'100001115684065'
p3513
S'Sameksha Nagar'
tp3514
a(g3467
S'Lauren Robinson'
tp3515
a(g3472
S'Sanjana Sekhar'
tp3516
a(g3495
S'Prerna Natekar'
tp3517
a(S'1162967880'
p3518
S'Rohan Gaglani'
tp3519
a(S'690853692'
p3520
S'Tanya Fernandes'
tp3521
a(g3498
S'Ishitta Shinde'
tp3522
a(S'1460472887'
p3523
S'Parin Patel'
tp3524
a(g3504
S'Revati Bajaj'
tp3525
a(g3477
S'Siddhant Pradhan'
tp3526
a(g3491
S'Trisha Eduljee'
tp3527
a(g3506
S'Aditya Ghanawat'
tp3528
a(S'843134420'
p3529
S'Kavita Kulkarni'
tp3530
a(S'1520347127'
p3531
S'Shikha Singh'
tp3532
a(g3486
S'Ashia Choony'
tp3533
a(S'100000117653214'
p3534
S'Glen Gale'
tp3535
a(g3493
S'Helenas Sch'
tp3536
a(S'100001002409544'
p3537
S'Abhishek Patel'
tp3538
a(g3513
S'Sameksha Nagar'
tp3539
a(g3484
S'Amman Singh'
tp3540
a(g3495
S'Prerna Natekar'
tp3541
a(S'100000507867578'
p3542
S'Merwyn Savio Menezes'
tp3543
a(g3518
S'Rohan Gaglani'
tp3544
a(g3520
S'Tanya Fernandes'
tp3545
a(g3498
S'Ishitta Shinde'
tp3546
a(g3523
S'Parin Patel'
tp3547
a(g3504
S'Revati Bajaj'
tp3548
a(S'100000540788910'
p3549
S'Yash Abhang'
tp3550
a(g3506
S'Aditya Ghanawat'
tp3551
a(S'100001887261556'
p3552
S'Ruchi Persephone Mehta'
tp3553
a(g3529
S'Kavita Kulkarni'
tp3554
a(g3531
S'Shikha Singh'
tp3555
a(g3534
S'Glen Gale'
tp3556
a(g3513
S'Sameksha Nagar'
tp3557
a(S'100000199175114'
p3558
S'Gopal Jindal'
tp3559
a(g3537
S'Abhishek Patel'
tp3560
a(g3542
S'Merwyn Savio Menezes'
tp3561
a(S'100001242985258'
p3562
S'Sakshi Thapar'
tp3563
a(S'100004440821204'
p3564
S'Punam Gavade'
tp3565
a(S'697586054'
p3566
S'Hemant Wadekar'
tp3567
a(g3518
S'Rohan Gaglani'
tp3568
a(S'100001065837297'
p3569
S'Raja Mirpuri'
tp3570
a(g3529
S'Kavita Kulkarni'
tp3571
a(S'100002292384864'
p3572
S'Hussey Hussain'
tp3573
a(g3549
S'Yash Abhang'
tp3574
a(g3523
S'Parin Patel'
tp3575
a(S'1554435905'
p3576
S'Karan Shah'
tp3577
a(S'100001148436391'
p3578
S'Amru Jethani'
tp3579
a(g3534
S'Glen Gale'
tp3580
a(g3531
S'Shikha Singh'
tp3581
a(g3537
S'Abhishek Patel'
tp3582
a(g3542
S'Merwyn Savio Menezes'
tp3583
a(S'100005441835277'
p3584
S'Abhishek Suresan'
tp3585
a(g3552
S'Ruchi Persephone Mehta'
tp3586
a(g3558
S'Gopal Jindal'
tp3587
a(g3566
S'Hemant Wadekar'
tp3588
a(g3569
S'Raja Mirpuri'
tp3589
a(S'100002240183898'
p3590
S'Vignesh Chander'
tp3591
a(g3572
S'Hussey Hussain'
tp3592
a(g3564
S'Punam Gavade'
tp3593
a(S'593353067'
p3594
S'Saloni Nahata'
tp3595
a(S'100000063411939'
p3596
S'Prarthana Purushothaman'
tp3597
a(g3549
S'Yash Abhang'
tp3598
a(S'100001675107619'
p3599
S'Circe Stroker'
tp3600
a(g3584
S'Abhishek Suresan'
tp3601
a(g3578
S'Amru Jethani'
tp3602
a(g3552
S'Ruchi Persephone Mehta'
tp3603
a(S'100001139005182'
p3604
S'Divya Parikh'
tp3605
a(g3576
S'Karan Shah'
tp3606
a(g3558
S'Gopal Jindal'
tp3607
a(S'100001786256358'
p3608
S'Abhishek Bisht'
tp3609
a(S'100001727546681'
p3610
S'Nikita Bharati'
tp3611
a(g3566
S'Hemant Wadekar'
tp3612
a(g3599
S'Circe Stroker'
tp3613
a(g3594
S'Saloni Nahata'
tp3614
a(g3572
S'Hussey Hussain'
tp3615
a(g3562
S'Sakshi Thapar'
tp3616
a(g3569
S'Raja Mirpuri'
tp3617
a(g3590
S'Vignesh Chander'
tp3618
a(g3564
S'Punam Gavade'
tp3619
a(g3584
S'Abhishek Suresan'
tp3620
a(S'868780380'
p3621
S'Ankit Thakker'
tp3622
a(g3604
S'Divya Parikh'
tp3623
a(S'100000477685133'
p3624
S'Vedika Mansukhe'
tp3625
a(g3576
S'Karan Shah'
tp3626
a(g3608
S'Abhishek Bisht'
tp3627
a(g3610
S'Nikita Bharati'
tp3628
a(g3596
S'Prarthana Purushothaman'
tp3629
a(g3578
S'Amru Jethani'
tp3630
a(S'1791852508'
p3631
S'Neel Ramaiya'
tp3632
a(g3599
S'Circe Stroker'
tp3633
a(g3594
S'Saloni Nahata'
tp3634
a(S'100001282988316'
p3635
S'Krishnaji Sanas'
tp3636
a(S'100000889249855'
p3637
S'Arpita Deshmukh'
tp3638
a(S'100001534159215'
p3639
S'Shubham Deoghare'
tp3640
a(g3590
S'Vignesh Chander'
tp3641
a(S'100002869082322'
p3642
S'Heena Suratwala'
tp3643
a(S'1363787507'
p3644
S'Trisha Tanti'
tp3645
a(g3621
S'Ankit Thakker'
tp3646
a(g3604
S'Divya Parikh'
tp3647
a(g3624
S'Vedika Mansukhe'
tp3648
a(S'100000597602477'
p3649
S'Anisha Gaikwad'
tp3650
a(g3608
S'Abhishek Bisht'
tp3651
a(g3610
S'Nikita Bharati'
tp3652
a(g3596
S'Prarthana Purushothaman'
tp3653
a(S'685377578'
p3654
S'Meera Malhotra'
tp3655
a(g3631
S'Neel Ramaiya'
tp3656
a(S'1219328526'
p3657
S'Ashray Mathers Khandelwal'
tp3658
a(S'1573384666'
p3659
S'Priyanka Desai'
tp3660
a(S'100000968548723'
p3661
S'Vanshika Trigunait'
tp3662
a(g3635
S'Krishnaji Sanas'
tp3663
a(S'100002680899949'
p3664
S'Aksheetha Menon'
tp3665
a(g3639
S'Shubham Deoghare'
tp3666
a(g3637
S'Arpita Deshmukh'
tp3667
a(g3621
S'Ankit Thakker'
tp3668
a(g3644
S'Trisha Tanti'
tp3669
a(g3642
S'Heena Suratwala'
tp3670
a(g3649
S'Anisha Gaikwad'
tp3671
a(S'100001377133434'
p3672
S'Nikhil Reddy'
tp3673
a(S'1203195114'
p3674
S'Aditya Suttatti'
tp3675
a(g3624
S'Vedika Mansukhe'
tp3676
a(S'1033864044'
p3677
S'Reesha Shivani'
tp3678
a(g3654
S'Meera Malhotra'
tp3679
a(S'1437455508'
p3680
S'Yash Sanghvi'
tp3681
a(g3631
S'Neel Ramaiya'
tp3682
a(g3657
S'Ashray Mathers Khandelwal'
tp3683
a(g3659
S'Priyanka Desai'
tp3684
a(g3661
S'Vanshika Trigunait'
tp3685
a(g3635
S'Krishnaji Sanas'
tp3686
a(g3664
S'Aksheetha Menon'
tp3687
a(g3639
S'Shubham Deoghare'
tp3688
a(g3637
S'Arpita Deshmukh'
tp3689
a(g3644
S'Trisha Tanti'
tp3690
a(g3642
S'Heena Suratwala'
tp3691
a(g3649
S'Anisha Gaikwad'
tp3692
a(g3672
S'Nikhil Reddy'
tp3693
a(g3674
S'Aditya Suttatti'
tp3694
a(S'100000406822459'
p3695
S'Lichte Dumars'
tp3696
a(g3677
S'Reesha Shivani'
tp3697
a(g3654
S'Meera Malhotra'
tp3698
a(g3680
S'Yash Sanghvi'
tp3699
a(S'100001203529297'
p3700
S'Saloni Pathak'
tp3701
a(g3657
S'Ashray Mathers Khandelwal'
tp3702
a(g3659
S'Priyanka Desai'
tp3703
a(g3661
S'Vanshika Trigunait'
tp3704
a(S'100001016948390'
p3705
S'Akanksha Roy'
tp3706
a(g3664
S'Aksheetha Menon'
tp3707
a(S'1803561989'
p3708
S'Shreyaan Chaudhary'
tp3709
a(S'100001109077034'
p3710
S'Rohit Sanas'
tp3711
a(S'1076313901'
p3712
S'Meera Mali'
tp3713
a(S'100001948157527'
p3714
S'Esha Dhrangadharia'
tp3715
a(S'100000445384702'
p3716
S'Raunak Jadhav'
tp3717
a(g3672
S'Nikhil Reddy'
tp3718
a(g3674
S'Aditya Suttatti'
tp3719
a(g3695
S'Lichte Dumars'
tp3720
a(g3677
S'Reesha Shivani'
tp3721
a(S'693683397'
p3722
S'Mitra Mohanty'
tp3723
a(g3680
S'Yash Sanghvi'
tp3724
a(g3700
S'Saloni Pathak'
tp3725
a(S'100001608557099'
p3726
S'Utsav Sharma'
tp3727
a(S'100002275575030'
p3728
S'Mugdha Phalak'
tp3729
a(S'100000946191585'
p3730
S'Sagar Pujari'
tp3731
a(g3705
S'Akanksha Roy'
tp3732
a(S'1073147334'
p3733
S'Himani Manglik'
tp3734
a(g3708
S'Shreyaan Chaudhary'
tp3735
a(g3710
S'Rohit Sanas'
tp3736
a(g3712
S'Meera Mali'
tp3737
a(g3714
S'Esha Dhrangadharia'
tp3738
a(g3716
S'Raunak Jadhav'
tp3739
a(S'650371101'
p3740
S'Aishwarya Nalawade'
tp3741
a(g3722
S'Mitra Mohanty'
tp3742
a(g3695
S'Lichte Dumars'
tp3743
a(S'100001182513342'
p3744
S'Vikrant Kshirsagar'
tp3745
a(S'1568607880'
p3746
S'Rohan Galande'
tp3747
a(g3700
S'Saloni Pathak'
tp3748
a(g3730
S'Sagar Pujari'
tp3749
a(g3726
S'Utsav Sharma'
tp3750
a(g3728
S'Mugdha Phalak'
tp3751
a(g3712
S'Meera Mali'
tp3752
a(g3705
S'Akanksha Roy'
tp3753
a(g3733
S'Himani Manglik'
tp3754
a(g3710
S'Rohit Sanas'
tp3755
a(g3708
S'Shreyaan Chaudhary'
tp3756
a(S'100001451943124'
p3757
S'Pupy Rock'
tp3758
a(g3714
S'Esha Dhrangadharia'
tp3759
a(g3716
S'Raunak Jadhav'
tp3760
a(S'100000865634636'
p3761
S'Sonal Jain'
tp3762
a(g3746
S'Rohan Galande'
tp3763
a(S'100001026191520'
p3764
S'Ashish Gharge'
tp3765
a(g3722
S'Mitra Mohanty'
tp3766
a(g3730
S'Sagar Pujari'
tp3767
a(g3740
S'Aishwarya Nalawade'
tp3768
a(S'100000342489144'
p3769
S'Rachana Kilari'
tp3770
a(g3728
S'Mugdha Phalak'
tp3771
a(S'100008118007878'
p3772
S'Nidhi Gaikwad'
tp3773
a(S'100000242385961'
p3774
S'Prachi Jain'
tp3775
a(g3726
S'Utsav Sharma'
tp3776
a(S'100000557484468'
p3777
S'Sumit Gupta'
tp3778
a(S'1168467187'
p3779
S'Palak Gupta'
tp3780
a(g3733
S'Himani Manglik'
tp3781
a(g3744
S'Vikrant Kshirsagar'
tp3782
a(g3757
S'Pupy Rock'
tp3783
a(S'100003900427466'
p3784
S'Priscilla Greatorex'
tp3785
a(g3761
S'Sonal Jain'
tp3786
a(g3746
S'Rohan Galande'
tp3787
a(g3764
S'Ashish Gharge'
tp3788
a(S'100000659635959'
p3789
S'Devashish Choudhary'
tp3790
a(g3769
S'Rachana Kilari'
tp3791
a(S'100000136917512'
p3792
S'Unnati Oswal'
tp3793
a(g3774
S'Prachi Jain'
tp3794
a(S'1278585527'
p3795
S'Anirudh Gautam'
tp3796
a(g3740
S'Aishwarya Nalawade'
tp3797
a(S'1017127585'
p3798
S'Ajinkya Kekre'
tp3799
a(g3772
S'Nidhi Gaikwad'
tp3800
a(S'100000273327944'
p3801
S'Yash Chhatwani'
tp3802
a(g3744
S'Vikrant Kshirsagar'
tp3803
a(S'1712051259'
p3804
S'Nikhil Krishna'
tp3805
a(g3769
S'Rachana Kilari'
tp3806
a(g3764
S'Ashish Gharge'
tp3807
a(g3777
S'Sumit Gupta'
tp3808
a(g3774
S'Prachi Jain'
tp3809
a(S'100001014078178'
p3810
S'Akhila Joshi'
tp3811
a(g3784
S'Priscilla Greatorex'
tp3812
a(g3761
S'Sonal Jain'
tp3813
a(g3789
S'Devashish Choudhary'
tp3814
a(g3779
S'Palak Gupta'
tp3815
a(g3792
S'Unnati Oswal'
tp3816
a(S'1489095350'
p3817
S'Dhriti Datta'
tp3818
a(g3798
S'Ajinkya Kekre'
tp3819
a(g3801
S'Yash Chhatwani'
tp3820
a(g3795
S'Anirudh Gautam'
tp3821
a(S'100004980258615'
p3822
S'Yash Lekhwani'
tp3823
a(S'1584668313'
p3824
S'Amrutha Venkatesan'
tp3825
a(g3804
S'Nikhil Krishna'
tp3826
a(S'1117153217'
p3827
S'Zaid Ali'
tp3828
a(S'100000536767307'
p3829
S'Pratyusha Koche'
tp3830
a(g3777
S'Sumit Gupta'
tp3831
a(S'100000532011890'
p3832
S'Akshay Arya'
tp3833
a(g3810
S'Akhila Joshi'
tp3834
a(g3784
S'Priscilla Greatorex'
tp3835
a(S'100000115617376'
p3836
S'Omkar Suryawanshi'
tp3837
a(g3789
S'Devashish Choudhary'
tp3838
a(g3779
S'Palak Gupta'
tp3839
a(g3792
S'Unnati Oswal'
tp3840
a(S'1219468307'
p3841
S'Robie Wood'
tp3842
a(g3798
S'Ajinkya Kekre'
tp3843
a(g3801
S'Yash Chhatwani'
tp3844
a(g3817
S'Dhriti Datta'
tp3845
a(g3795
S'Anirudh Gautam'
tp3846
a(g3822
S'Yash Lekhwani'
tp3847
a(g3824
S'Amrutha Venkatesan'
tp3848
a(g3804
S'Nikhil Krishna'
tp3849
a(g3827
S'Zaid Ali'
tp3850
a(g3829
S'Pratyusha Koche'
tp3851
a(S'100000391351177'
p3852
S'Siddhesh Dwivedi'
tp3853
a(g3832
S'Akshay Arya'
tp3854
a(g3810
S'Akhila Joshi'
tp3855
a(S'1413195189'
p3856
S'Khushali Mehta'
tp3857
a(g3836
S'Omkar Suryawanshi'
tp3858
a(S'608594893'
p3859
S'Maithili Davda'
tp3860
a(S'100002531744630'
p3861
S'Nikhil Hembrom'
tp3862
a(S'638281455'
p3863
S'Tanya Choudhary'
tp3864
a(g3841
S'Robie Wood'
tp3865
a(g3817
S'Dhriti Datta'
tp3866
a(S'1662474346'
p3867
S'Animesh Swain'
tp3868
a(S'542295262'
p3869
S'Hemant Daiya'
tp3870
a(S'651876176'
p3871
S'Trishul Navalakha'
tp3872
a(g3822
S'Yash Lekhwani'
tp3873
a(g3824
S'Amrutha Venkatesan'
tp3874
a(S'100000258518262'
p3875
S'Shikhar Sambhav Narula'
tp3876
a(g3827
S'Zaid Ali'
tp3877
a(g3829
S'Pratyusha Koche'
tp3878
a(g3852
S'Siddhesh Dwivedi'
tp3879
a(g3832
S'Akshay Arya'
tp3880
a(S'722983603'
p3881
S'Yash Modi'
tp3882
a(g3856
S'Khushali Mehta'
tp3883
a(g3859
S'Maithili Davda'
tp3884
a(g3836
S'Omkar Suryawanshi'
tp3885
a(g3861
S'Nikhil Hembrom'
tp3886
a(g3863
S'Tanya Choudhary'
tp3887
a(g3841
S'Robie Wood'
tp3888
a(S'100001700484910'
p3889
S'Nikki Ghorpade'
tp3890
a(g3867
S'Animesh Swain'
tp3891
a(g3869
S'Hemant Daiya'
tp3892
a(g3871
S'Trishul Navalakha'
tp3893
a(S'100001897175696'
p3894
S'Aishwarya Deshmukh'
tp3895
a(S'100003142583589'
p3896
S'Purva Bavare'
tp3897
a(g3875
S'Shikhar Sambhav Narula'
tp3898
a(S'100001901593243'
p3899
S'Saurav Pandey'
tp3900
a(S'587161932'
p3901
S'Prakruthi Suresh'
tp3902
a(g3852
S'Siddhesh Dwivedi'
tp3903
a(S'100001561623343'
p3904
S'Raed Salem'
tp3905
a(g3881
S'Yash Modi'
tp3906
a(g3856
S'Khushali Mehta'
tp3907
a(g3859
S'Maithili Davda'
tp3908
a(S'100000450427753'
p3909
S"Andrew LittleGuy D'cruz"
tp3910
a(g3861
S'Nikhil Hembrom'
tp3911
a(g3863
S'Tanya Choudhary'
tp3912
a(S'100003002510115'
p3913
S'Yashal Patil'
tp3914
a(g3889
S'Nikki Ghorpade'
tp3915
a(g3867
S'Animesh Swain'
tp3916
a(g3869
S'Hemant Daiya'
tp3917
a(g3871
S'Trishul Navalakha'
tp3918
a(g3894
S'Aishwarya Deshmukh'
tp3919
a(g3896
S'Purva Bavare'
tp3920
a(g3875
S'Shikhar Sambhav Narula'
tp3921
a(g3899
S'Saurav Pandey'
tp3922
a(g3901
S'Prakruthi Suresh'
tp3923
a(S'100000187489183'
p3924
S'Rishab Rao'
tp3925
a(g3909
S"Andrew LittleGuy D'cruz"
tp3926
a(g3881
S'Yash Modi'
tp3927
a(g3904
S'Raed Salem'
tp3928
a(S'100001007474420'
p3929
S'Ria Mutha'
tp3930
a(S'100002357166832'
p3931
S'Rohan Patil'
tp3932
a(g3913
S'Yashal Patil'
tp3933
a(S'100000590457575'
p3934
S'Niket Agarwal'
tp3935
a(S'1620917537'
p3936
S'Preena Karia'
tp3937
a(g3889
S'Nikki Ghorpade'
tp3938
a(g3894
S'Aishwarya Deshmukh'
tp3939
a(g3896
S'Purva Bavare'
tp3940
a(S'1152361862'
p3941
S'Arjun Singh Sandhu'
tp3942
a(S'100000555464595'
p3943
S'Aishwarya Kataria'
tp3944
a(g3901
S'Prakruthi Suresh'
tp3945
a(g3924
S'Rishab Rao'
tp3946
a(g3899
S'Saurav Pandey'
tp3947
a(g3904
S'Raed Salem'
tp3948
a(g3931
S'Rohan Patil'
tp3949
a(S'690531184'
p3950
S'Akshay Garg'
tp3951
a(g3929
S'Ria Mutha'
tp3952
a(S'100000430140612'
p3953
S'Gayatri Ganpule'
tp3954
a(g3913
S'Yashal Patil'
tp3955
a(S'100000434198017'
p3956
S'Unnati Yande'
tp3957
a(g3909
S"Andrew LittleGuy D'cruz"
tp3958
a(g3936
S'Preena Karia'
tp3959
a(g3934
S'Niket Agarwal'
tp3960
a(S'100005864464790'
p3961
S'Divya Mahirchandani'
tp3962
a(S'100000232568034'
p3963
S'Aaishwarya Desai'
tp3964
a(S'100000467013154'
p3965
S'Aparimit Vyas'
tp3966
a(g3941
S'Arjun Singh Sandhu'
tp3967
a(g3943
S'Aishwarya Kataria'
tp3968
a(S'100001147843741'
p3969
S'Kartik Narang'
tp3970
a(g3924
S'Rishab Rao'
tp3971
a(S'100000542955836'
p3972
S'MiTali PardiWala'
tp3973
a(S'100003261517946'
p3974
S'Suraj Kotecha'
tp3975
a(g3931
S'Rohan Patil'
tp3976
a(g3950
S'Akshay Garg'
tp3977
a(g3929
S'Ria Mutha'
tp3978
a(g3953
S'Gayatri Ganpule'
tp3979
a(S'1718217902'
p3980
S'Nida Khan'
tp3981
a(g3956
S'Unnati Yande'
tp3982
a(S'1290907957'
p3983
S'Nikalp Patel'
tp3984
a(g3936
S'Preena Karia'
tp3985
a(g3934
S'Niket Agarwal'
tp3986
a(g3961
S'Divya Mahirchandani'
tp3987
a(g3963
S'Aaishwarya Desai'
tp3988
a(g3965
S'Aparimit Vyas'
tp3989
a(g3941
S'Arjun Singh Sandhu'
tp3990
a(g3943
S'Aishwarya Kataria'
tp3991
a(g3969
S'Kartik Narang'
tp3992
a(S'100002674165913'
p3993
S'Nomaan Shaikh'
tp3994
a(g3972
S'MiTali PardiWala'
tp3995
a(g3950
S'Akshay Garg'
tp3996
a(S'100001309879578'
p3997
S'Aishwarya Bogam'
tp3998
a(S'100001812010596'
p3999
S'Puneet Gerrard Agarwal'
tp4000
a(g3956
S'Unnati Yande'
tp4001
a(g3980
S'Nida Khan'
tp4002
a(g3983
S'Nikalp Patel'
tp4003
a(g3963
S'Aaishwarya Desai'
tp4004
a(S'100000025030348'
p4005
S'Divya Budwani'
tp4006
a(g3961
S'Divya Mahirchandani'
tp4007
a(g3974
S'Suraj Kotecha'
tp4008
a(g3965
S'Aparimit Vyas'
tp4009
a(g3999
S'Puneet Gerrard Agarwal'
tp4010
a(g3972
S'MiTali PardiWala'
tp4011
a(g3969
S'Kartik Narang'
tp4012
a(S'565829074'
p4013
S'Priya Ahire Bhinde'
tp4014
a(g3997
S'Aishwarya Bogam'
tp4015
a(g3993
S'Nomaan Shaikh'
tp4016
a(S'100002800831179'
p4017
S'Sanaya Anne Dhondy'
tp4018
a(S'692186242'
p4019
S'Aastha Sehgal'
tp4020
a(S'100001049015490'
p4021
S'Aditi Sharma'
tp4022
a(g3980
S'Nida Khan'
tp4023
a(S'1004501577'
p4024
S'Shreeya Saldanha'
tp4025
a(S'513283909'
p4026
S'Bijal Bhinde'
tp4027
a(S'1460530475'
p4028
S'Tanvi Kotkar'
tp4029
a(g4005
S'Divya Budwani'
tp4030
a(g3983
S'Nikalp Patel'
tp4031
a(S'100001181482370'
p4032
S'Aditya Kale'
tp4033
a(S'1013472190'
p4034
S'Himanshu Hingorani'
tp4035
a(S'1312393775'
p4036
S'Sarita Malik Chaudhary'
tp4037
a(g3999
S'Puneet Gerrard Agarwal'
tp4038
a(S'100001755320934'
p4039
S'Yashaswini Pandit'
tp4040
a(S'100001434448584'
p4041
S'Pragati Bohara'
tp4042
a(g4013
S'Priya Ahire Bhinde'
tp4043
a(g3997
S'Aishwarya Bogam'
tp4044
a(g3993
S'Nomaan Shaikh'
tp4045
a(g4017
S'Sanaya Anne Dhondy'
tp4046
a(g4019
S'Aastha Sehgal'
tp4047
a(g4021
S'Aditi Sharma'
tp4048
a(S'100002278318520'
p4049
S'Karan Vani'
tp4050
a(g4024
S'Shreeya Saldanha'
tp4051
a(g4026
S'Bijal Bhinde'
tp4052
a(g4028
S'Tanvi Kotkar'
tp4053
a(g4005
S'Divya Budwani'
tp4054
a(S'100000876939589'
p4055
S'R\\u00f8h\\u00e5n M\\u00e3h\\u00e3\\u00d0ik'
tp4056
a(g4032
S'Aditya Kale'
tp4057
a(g4034
S'Himanshu Hingorani'
tp4058
a(g4036
S'Sarita Malik Chaudhary'
tp4059
a(S'100003321991411'
p4060
S'Caroline Storey'
tp4061
a(g4039
S'Yashaswini Pandit'
tp4062
a(g4041
S'Pragati Bohara'
tp4063
a(g4013
S'Priya Ahire Bhinde'
tp4064
a(g4021
S'Aditi Sharma'
tp4065
a(g4017
S'Sanaya Anne Dhondy'
tp4066
a(S'1374500419'
p4067
S'Gauri Gaikwad'
tp4068
a(S'587701580'
p4069
S'Abhishek Singh Tomar'
tp4070
a(S'100000096321309'
p4071
S'Radhikaa Duggal'
tp4072
a(g4026
S'Bijal Bhinde'
tp4073
a(g4024
S'Shreeya Saldanha'
tp4074
a(g4049
S'Karan Vani'
tp4075
a(g4055
S'R\\u00f8h\\u00e5n M\\u00e3h\\u00e3\\u00d0ik'
tp4076
a(g4032
S'Aditya Kale'
tp4077
a(g4028
S'Tanvi Kotkar'
tp4078
a(g4034
S'Himanshu Hingorani'
tp4079
a(g4060
S'Caroline Storey'
tp4080
a(g4036
S'Sarita Malik Chaudhary'
tp4081
a(S'100006154394356'
p4082
S'Snehal Kenjale'
tp4083
a(S'1573359593'
p4084
S'Yash Kankaria'
tp4085
a(S'1578694071'
p4086
S'Umang Bhandari'
tp4087
a(S'100000949825973'
p4088
S'Indrani Sabharwal'
tp4089
a(g4067
S'Gauri Gaikwad'
tp4090
a(g4069
S'Abhishek Singh Tomar'
tp4091
a(g4041
S'Pragati Bohara'
tp4092
a(g4071
S'Radhikaa Duggal'
tp4093
a(S'100000725017713'
p4094
S'Akshay Chhetri'
tp4095
a(g4049
S'Karan Vani'
tp4096
a(S'100001202780035'
p4097
S'Nehal Dhamdhere'
tp4098
a(g4039
S'Yashaswini Pandit'
tp4099
a(g4055
S'R\\u00f8h\\u00e5n M\\u00e3h\\u00e3\\u00d0ik'
tp4100
a(S'100002245757003'
p4101
S'Krishna Deora'
tp4102
a(S'600518351'
p4103
S'Saanya Sharma'
tp4104
a(S'1449541911'
p4105
S'Shikhar Tyagi'
tp4106
a(g4060
S'Caroline Storey'
tp4107
a(g4084
S'Yash Kankaria'
tp4108
a(g4082
S'Snehal Kenjale'
tp4109
a(S'100000464880859'
p4110
S'Parth Shankar'
tp4111
a(g4088
S'Indrani Sabharwal'
tp4112
a(g4086
S'Umang Bhandari'
tp4113
a(g4067
S'Gauri Gaikwad'
tp4114
a(g4069
S'Abhishek Singh Tomar'
tp4115
a(g4094
S'Akshay Chhetri'
tp4116
a(g4071
S'Radhikaa Duggal'
tp4117
a(g4097
S'Nehal Dhamdhere'
tp4118
a(g4101
S'Krishna Deora'
tp4119
a(g4103
S'Saanya Sharma'
tp4120
a(g4105
S'Shikhar Tyagi'
tp4121
a(g4084
S'Yash Kankaria'
tp4122
a(g4082
S'Snehal Kenjale'
tp4123
a(g4088
S'Indrani Sabharwal'
tp4124
a(g4110
S'Parth Shankar'
tp4125
a(g4086
S'Umang Bhandari'
tp4126
a(g4094
S'Akshay Chhetri'
tp4127
a(g4097
S'Nehal Dhamdhere'
tp4128
a(g4101
S'Krishna Deora'
tp4129
a(g4103
S'Saanya Sharma'
tp4130
a(g4105
S'Shikhar Tyagi'
tp4131
a(g4110
S'Parth Shankar'
tp4132
asS'id'
p4133
S'1431524102'
p4134
sS'name'
p4135
S'Mehek Gandhi'
p4136
s.