(dp1
S'friends'
p2
(lp3
(S'100000903921159'
S'Kritija Saxena'
tp4
a(S'1581596222'
S'Mayank Kashyap'
tp5
a(S'1268383570'
S'Ishaan Kochhar'
tp6
a(S'1490847630'
S'Alan Masilla John'
tp7
a(S'661282850'
S'Avi Pandey'
tp8
a(S'1376661431'
S'Kuber Deshwal'
tp9
a(S'548136574'
S'Ron Bezbaruah'
tp10
a(S'100001360812174'
S'Charu Rawat'
tp11
a(S'1184145610'
S'Amitt Kumar'
tp12
a(S'1014165797'
S'Siddhant Chhettri'
tp13
a(S'1022368612'
S'Rohanesh Rithvik'
tp14
a(S'100001137402137'
S'Ridhya Malhotra'
tp15
a(S'1522179041'
S'Jyoti Dahiya'
tp16
a(S'587375987'
S'Akshat Gupta'
tp17
a(S'1587339697'
S'Sushmita Panigrahi'
tp18
a(S'100000597128621'
S'Mohit Kaushik'
tp19
a(S'100000530948497'
S'Dipika Singh'
tp20
a(S'1041122316'
p21
S'Pallavi Arora'
tp22
a(S'100000002584287'
S'Jai Vivek Khadilkar'
tp23
a(S'1511022569'
S'Daisy Kaur'
tp24
a(S'1029658685'
S'Pragya Dixit'
tp25
a(S'100000116775729'
S'Ayushi Varma'
tp26
a(S'685874540'
p27
S'Rashalika Sabharwal'
tp28
a(S'1592544685'
S'Pankti Gohel'
tp29
a(S'100000502909669'
S'Sania Lewis'
tp30
a(S'100000483664274'
S'Sarfaraz Khan'
tp31
a(S'619531580'
S'Aashray Anand'
tp32
a(S'1681800975'
S'Natasha Ahuja'
tp33
a(S'1174493855'
S'Rama Salkar'
tp34
a(S'1336748588'
S'Sahiba Mathur'
tp35
a(S'1062547748'
S'Aditya Rai'
tp36
a(S'1469597941'
S'Poornima Jha'
tp37
a(S'607740876'
S'Umang Dwivedi'
tp38
a(S'1831846243'
S'Aishwarya Raghuvanshi'
tp39
a(S'100000575374362'
S'Shruti Gupta'
tp40
a(S'1036708584'
S'Aishwarya Kharbanda'
tp41
a(S'100000189762833'
S'Gagandeep Singh'
tp42
a(S'1465437444'
S'Avantika Gautam'
tp43
a(S'1150753573'
S'Surabhi Shrivastava'
tp44
a(S'100002145121996'
S'Riya Jumnani'
tp45
a(S'1787708726'
S'Poorva Deshmukh'
tp46
a(S'100000467249198'
S'Avinash Das'
tp47
a(S'100000052352595'
S'Sharanya Chocoholic Chandna'
tp48
a(S'1436891650'
S'Naveen Gadhvi'
tp49
a(S'1264484398'
S'Kritika Makkar'
tp50
a(S'1213312132'
S'Ritu Chandra'
tp51
a(S'1307356090'
S'Mark Sanyal'
tp52
a(S'563398162'
p53
S'Shruti Prasad'
tp54
a(S'100000069558798'
S'Pranav Sharma'
tp55
a(S'100000234387598'
p56
S'Aanchal Singh'
tp57
a(S'616686214'
S'Sanah Rizvi'
tp58
a(S'100001208786624'
S'Monika Yadav'
tp59
a(S'100000441192312'
S'Ankita Sinha'
tp60
a(S'100000178939122'
S'Deekshita Paliath'
tp61
a(S'1598048893'
S'Anushtha Rathore'
tp62
a(S'1430080085'
S'Aakriti Dutta'
tp63
a(S'1218942113'
S'Namita Relan'
tp64
a(S'100000452940826'
S'Sanyukta Shirwadkar'
tp65
a(S'100000297850274'
S'Geetika Singh'
tp66
a(S'794862420'
S'Mayank Kapoor'
tp67
a(S'100000571002287'
S'Akshat Saxena'
tp68
a(S'565958364'
S'Aswati Anand'
tp69
a(S'100000464687492'
S'Sandeep Tiwary'
tp70
a(S'1646142461'
S'Shreyash Hanchinal'
tp71
a(S'100000284276433'
S'Kavya Ratnakaran'
tp72
a(S'100000573900585'
S'Shalini Roy'
tp73
a(S'566443550'
S'Awadhi Saxena'
tp74
a(S'100001236991298'
S'Nitya Bisht'
tp75
a(S'1439487365'
S'Janani Balaji'
tp76
a(S'1239691059'
S'Natasha Gogia'
tp77
a(S'100003712119008'
S'Neti Ranjan'
tp78
a(S'1836824118'
S'Andrew Nirmal'
tp79
a(S'1636386248'
p80
S'Shourya Awasthi'
tp81
a(S'1606037583'
S'Da Dredevil Uttara'
tp82
a(S'100003091983229'
S'Aparna Anand'
tp83
a(S'1464480280'
S'Vaishnavi Chandran'
tp84
a(S'1539515671'
S'Abhas Bhatnagar'
tp85
a(S'507299303'
S'Aditi Khanna'
tp86
a(S'1616036803'
S'Shwetank Singh'
tp87
a(S'1659280278'
S'Aishwarya Murlidharan'
tp88
a(S'717282511'
S'Aamir Khan'
tp89
a(S'1241465200'
S'Akanksha Pandit Kalla'
tp90
a(S'510535592'
S'Jay Kale'
tp91
a(S'1337027211'
S'Vani Govel'
tp92
a(S'1083984330'
S'Richa Sinha'
tp93
a(S'100000567235741'
S'Ankit Choudhury'
tp94
a(S'660092598'
S'Vibha Vajpayee Kale'
tp95
a(S'100000362386288'
S'Akshay Harjai'
tp96
a(S'100000584258760'
S'Rohini Jha'
tp97
a(S'100000124982335'
S'Gunjan Singh'
tp98
a(S'100000146810004'
S'Aditi Singh'
tp99
a(S'1482385560'
S'Sherry Pande'
tp100
a(S'100000222195213'
S'Kimberly Maria Nunes'
tp101
a(S'100000018094293'
S'Harman Singh'
tp102
a(S'1641020324'
S'Yasmin Ali'
tp103
a(S'100000673361702'
S'Divya Dawar'
tp104
a(S'538030399'
S'Parul Srivastava'
tp105
a(S'1740141059'
S'Mugdha Jain'
tp106
a(S'100001409460768'
S'Gm Aparna'
tp107
a(S'100000185175318'
S'Shailja Sp'
tp108
asS'id'
p109
S'1440033458'
p110
sS'name'
p111
S'Juhi Vajpayee'
p112
s.