(dp1
S'friends'
p2
(lp3
(S'1443341392'
S'Satyacharan Gupta'
tp4
a(S'100006819335671'
S'Rakesh Kumar'
tp5
a(S'100007811646409'
S'Monika Sharma'
tp6
asS'id'
p7
S'1443341392'
p8
sS'name'
p9
S'Satyacharan Gupta'
p10
s.