(dp1
S'friends'
p2
(lp3
(S'100002571844907'
S'Om Prakash Jaiswal'
tp4
a(S'1747728642'
S'Rajashree Pradhan'
tp5
a(S'1821175827'
S'Santosh Kevin Kerketta'
tp6
a(S'100004978351590'
S'Ashutosh Verma'
tp7
a(S'100004988430905'
S'Nancy Singh'
tp8
a(S'1236226023'
S'Ashwani Choudhary'
tp9
a(S'100004754460848'
S'Ajay Kumar'
tp10
a(S'100001740337682'
S'Mukesh Kumar Singh'
tp11
a(S'1485313098'
S'\\u0905\\u091c\\u092f \\u0915\\u0941\\u092e\\u093e\\u0930 \\u091d\\u093e'
tp12
a(S'100000329783607'
S'Syed Ali'
tp13
a(S'100002883276670'
S'Sumit Sinha'
tp14
a(S'100004040500730'
S'Santosh Singh'
tp15
a(S'100001951076248'
S'Mritunjay Dubey'
tp16
a(S'100000627789892'
S'Ambesh Kumar'
tp17
a(S'100001571469046'
S'Niti Dwivedi'
tp18
a(S'100004939574411'
S'\\u0938\\u0902\\u091c\\u0940\\u0935 \\u0930\\u0902\\u091c\\u0928'
tp19
a(S'100002373124785'
S'Alok Sinha'
tp20
a(S'1507702708'
S'Junaid Siddiqui'
tp21
a(S'100001593039696'
S'Sumit Thakur'
tp22
a(S'100003407169175'
S'Gaurav Dutt'
tp23
a(S'100005672195395'
S'Dharmendra Kumar'
tp24
a(S'1708284815'
S'Sriniwas Bhardwaj'
tp25
a(S'100000254296117'
S'Prodyot Pal'
tp26
a(S'100000468003038'
S'Kaushal Bhargava'
tp27
a(S'100004080318145'
S'Jaskan Tudu'
tp28
a(S'100002104998303'
S'Kundan Das'
tp29
a(S'100000616716054'
S'Cfa Sanjay Agarwal'
tp30
a(S'1506442868'
S'Syed Ali'
tp31
a(S'100002217091063'
S'Vijay Kumar'
tp32
a(S'100000941712097'
S'Amit Sinha'
tp33
a(S'100002542065706'
S'Anil Kumar'
tp34
a(S'100001139433247'
S'Vijay Kumar'
tp35
a(S'100001508348294'
S'Deepak Kumar'
tp36
a(S'100002365948353'
S'Rahul Singh'
tp37
a(S'720897133'
S'Rajesh Kumar'
tp38
a(S'100002003218870'
S'Piyush Kapoor'
tp39
a(S'100002480060335'
S'Swati Sinha'
tp40
a(S'100005264220035'
S'Rahul Saha'
tp41
a(S'100002456548280'
S'Manish Kumar'
tp42
a(S'100003521504794'
S'Kapil Santraj Mittal'
tp43
a(S'100004934163089'
S'Priya Bhattacharjee'
tp44
a(S'100006298835381'
S'\\u0906\\u092a\\u0915\\u093e \\u0935\\u093f\\u0936\\u093e\\u0932'
tp45
a(S'100001449685245'
S'Ajay Sethy'
tp46
a(S'100003407364995'
S'Pradip Mishra'
tp47
a(S'100000207941069'
S'Amrendra Kumar Munna'
tp48
a(S'100001817942921'
S'Sudipta Datta'
tp49
a(S'1025854617'
S'Kumud Ranjan'
tp50
a(S'100000729450594'
S'Deepak Kumar'
tp51
a(S'100003773585643'
S'Susweta Singh'
tp52
a(S'1594959093'
S'Bharat Thakur'
tp53
a(S'100000112732384'
S'Namit Ranjan'
tp54
a(S'100000263830324'
S'Dinesh Kumar'
tp55
a(S'100000054510954'
S'Kumud Ranjan'
tp56
a(S'100002160228842'
S'Emmanuel Ashish'
tp57
a(S'100006130987549'
S'Sshekhar Burnwal'
tp58
a(S'100001828076934'
S'Rajeev Ranjan'
tp59
a(S'100000006937605'
S'Ni\\u00f1a Farres'
tp60
a(S'100006581917806'
S'Sabhaati Mahato'
tp61
a(S'100005190332909'
S'Munni Kumari'
tp62
a(S'100006661021225'
S'Saloni Soni Sonal'
tp63
a(S'100005737478049'
S'Natwar Jha'
tp64
a(S'100001332777210'
S'Paritosh Das'
tp65
a(S'100003333125425'
S'Sonia Paswan'
tp66
a(S'100002773650154'
S'Maya Hansda'
tp67
a(S'100002434314851'
S'Chanda Sinha'
tp68
a(S'100002640662905'
S'Ram Nath'
tp69
a(S'100002457111314'
S'Shashi Sharma'
tp70
a(S'100000221106665'
S'Santosh Sharma'
tp71
a(S'100001842897218'
S'Sarfraz Ahmad'
tp72
a(S'100003908831333'
S'Chandan Chouhan'
tp73
a(S'100001366128605'
S'Vishwajeet Gupta'
tp74
a(S'1515841495'
S'Deepak Kumar Rungta'
tp75
a(S'100002994685496'
S'Mani Kant'
tp76
a(S'100004791092302'
S'Rajesh Mehra'
tp77
a(S'613313672'
S'Vikas Singhaniya'
tp78
a(S'100005855553347'
S'Alok Kumar Sinha'
tp79
a(S'100003095973804'
S'Ephraim Minz'
tp80
a(S'100004482369789'
S'Isidor Dilip Minz'
tp81
a(S'1443292840'
S'Amit Tripathi'
tp82
a(S'100003882407197'
S'Kanchan Dubey'
tp83
a(S'100002330657209'
S'Lima Sunep'
tp84
a(S'100003232038177'
S'Ramlin Patil'
tp85
a(S'100000691126660'
S'Thats Kamlesh Singh'
tp86
a(S'100001105348289'
S'CA Chirag Goyal'
tp87
a(S'100001720449835'
S'Kamlesh Kumar'
tp88
a(S'100000494080745'
S'Nitin Kumar'
tp89
a(S'100004344668313'
S'Pankaj Shrivastava'
tp90
a(S'100003893860023'
S'Anshu Garg'
tp91
a(S'100003360286206'
S'Satish Kumar Gupta'
tp92
a(S'100002618878026'
S'Vipin Kumar'
tp93
a(S'1751535763'
S'Sameer Suman'
tp94
a(S'1182588963'
S'Pramod Jha'
tp95
a(S'100000831264869'
S'Anish Kumar'
tp96
a(S'100001381684380'
S'Ca Manish Sharma'
tp97
a(S'100003564850966'
S'Kuldeep Sharma'
tp98
a(S'100001304810863'
S'Suresh Yadav'
tp99
a(S'100003657265375'
S'Akash Raj'
tp100
a(S'100003131991672'
S'Reshma Kumari'
tp101
a(S'683916715'
S'Ujjwal Ritesh Kachhap'
tp102
asS'id'
p103
S'1445692417'
p104
sS'name'
p105
S'Abhay Kumar'
p106
s.