(dp1
S'friends'
p2
(lp3
(S'534389427'
S'Risheek Raj Srivastava'
tp4
a(S'100002304122536'
S'Udit Perfecto Vij'
tp5
a(S'1050296424'
S'Madhusudan Cm'
tp6
a(S'664954725'
S'Udyan Khurana'
tp7
a(S'581121123'
S'Vandana Aggarwal'
tp8
a(S'1002413866'
S'Khare Ojas'
tp9
a(S'100001300381895'
S'Kavya Rathaur'
tp10
a(S'100003561302289'
S'Sahil Virk'
tp11
a(S'100001873041319'
S'Sadiah Zahoor'
tp12
a(S'100003064206752'
S'Shakti Singh Arya'
tp13
a(S'1800137713'
S'Shubham Pandey'
tp14
a(S'1080670438'
S'Alisha George'
tp15
a(S'1745587305'
S'Sambit Mohanty'
tp16
a(S'619569090'
S'Abhishek Gupta'
tp17
a(S'100000022453365'
S'Shreya Bhardwaj'
tp18
a(S'100003922651589'
S'Yashika Ranjan'
tp19
a(S'638459416'
S'Harsimran Taneja'
tp20
a(S'100002891063084'
S'Reesa Bora'
tp21
a(S'1610689273'
S'Ritika Gupta'
tp22
a(S'100002366359875'
S'Joel EL Calvin'
tp23
a(S'100000161530861'
S'Victor Washington'
tp24
a(S'100002594005480'
S'Suchismita Panda'
tp25
a(S'100000366220553'
S'Rahul Singh'
tp26
a(S'1394318656'
S'Yagyank Chadha'
tp27
a(S'1034469130'
S'Mohit Brady Rakyan'
tp28
a(S'1311579527'
S'Dhruv Chhabra'
tp29
a(S'100001612472537'
S'Nimisha Pahuja'
tp30
a(S'100003863341050'
S'Praphul Robert'
tp31
a(S'654136492'
S'Konpal Kaur'
tp32
a(S'800208256'
S'Manas Dimri'
tp33
a(S'1528010711'
S'Shweta Sogani'
tp34
a(S'100005910943610'
S'Megha Reddy'
tp35
a(S'1627732975'
S'Susan Abraham'
tp36
a(S'651443267'
S'Pranav Mani Sharma'
tp37
a(S'618581715'
S'Ananya Diwa'
tp38
a(S'1330175129'
S'Adnah Bright'
tp39
a(S'100000964298959'
S'Shreya Subramaniam'
tp40
a(S'100000001898263'
S'Antony Joseph'
tp41
a(S'100003313820725'
S'Oshin Nair'
tp42
a(S'1520255835'
S'Noel Thomas John'
tp43
a(S'1138389617'
p44
S'Nidhi Mathew'
tp45
a(S'100000341996027'
S'Merlyn Maria Antony'
tp46
a(S'100001120867282'
S'Abhinav Jha'
tp47
a(S'100000102652717'
S'Debobroto Sensharma'
tp48
a(S'1532942726'
S'Rohan Grover'
tp49
a(S'1627385259'
S'Anithasree Athiyaman'
tp50
a(S'100000744500685'
S'Rabin Jacob'
tp51
a(S'1121119327'
S'Mansimran Singh'
tp52
a(S'100006609936754'
S'Jordan Muriel'
tp53
a(S'1067409573'
S'Abhishek Chugh'
tp54
a(S'100002595375059'
S'Amy Binny Philip'
tp55
a(S'1794540197'
p56
S'Rohan Gera'
tp57
a(S'100001113972053'
S'Aranyak Saikia'
tp58
a(S'1433994034'
S'Siddharth Chakravortty'
tp59
a(S'100000970274289'
S'Rishu Goel'
tp60
a(S'100000927240270'
S'Lovely Grover'
tp61
a(S'100002063255184'
S'Manika Tomar'
tp62
a(S'1801430121'
S'Merin J Komban'
tp63
a(S'100001788072871'
S'Nitin Pradhan'
tp64
a(S'100000997383613'
S'Prakhar Gupta'
tp65
a(S'1292891398'
S'Imairaa Adlakha'
tp66
a(S'100005207763406'
S'Monica Goyal'
tp67
a(S'638064350'
S'Vibhor Garg'
tp68
a(S'639934572'
S'Suraj Kohli'
tp69
a(S'1062326342'
S'Arpit Sidana'
tp70
a(S'1018857597'
S'Rajat Philip'
tp71
a(S'100000077319294'
S'Shilpa Pauly'
tp72
a(S'1669071468'
S'Mallika Shekhar'
tp73
a(S'100000450300737'
S'Sumeet Goyal'
tp74
a(S'1337460254'
S'Mitali Poovayya'
tp75
a(S'100001730700195'
S'Viren Kumar'
tp76
a(S'100005314450807'
S'Rajesh Aggarwal'
tp77
a(S'100001925521356'
S'Nitin Varshney'
tp78
a(S'100003946359089'
S'Rajpal Luhaniwal'
tp79
a(S'100006410076288'
S'Diksha Goyal'
tp80
a(S'1297493288'
S'Ishita Mathur'
tp81
a(S'1226733086'
S'Siddhant Joshi'
tp82
a(S'100002987819159'
S'Jahnavi Nannapaneni'
tp83
a(S'100001870622001'
S'Avijit Jaiswal'
tp84
a(S'100002668160889'
S'Sijo Abraham'
tp85
a(S'1565548330'
S'Akshay Ranganathan'
tp86
a(S'1348504075'
S'Benoy Stephen'
tp87
a(S'100006496600296'
S'Kopal Kapoor'
tp88
a(S'600392012'
S'Dhruv Khandelwal'
tp89
a(S'525819598'
S'Shreshta Venkataramanan'
tp90
a(S'100001816047972'
S'Abhinav Baruah'
tp91
a(S'100003099852364'
S'Anu Joseph'
tp92
a(S'100001534816738'
S'Soumyajit Kar'
tp93
a(S'100003134333265'
S'Amal David'
tp94
a(S'100000851343314'
S'Ludhiya Johnson'
tp95
a(S'100000162931192'
S'Rishabh Dev'
tp96
a(S'100000582133696'
S'Sunil Sharma'
tp97
a(S'100002874033227'
S'Anu Jose'
tp98
a(S'100002463465293'
S'Gn Mishra'
tp99
a(S'100005711914380'
S'Megha Gupta'
tp100
a(S'100000365673627'
S'Sukrit Virmani'
tp101
a(S'638354751'
S'Pulkit Verma'
tp102
a(S'1178259401'
S'Hari Apte'
tp103
a(S'763210624'
S'Srishti Agrawal'
tp104
a(S'100000622956548'
S'Gagan Mahajan'
tp105
a(S'100001769547979'
p106
S'Mohit Vashisth'
tp107
a(S'1693736628'
S'Saurabh Banga'
tp108
a(S'100000601214455'
S'Tony Alex'
tp109
a(S'100003976476706'
S'Maheep Tripathi'
tp110
a(S'100000208160907'
S'Shrey Goyal'
tp111
a(S'100002767176465'
S'Udit Daima'
tp112
a(S'1300628039'
S'Anubhav Agarwal'
tp113
a(S'100000215305266'
S'Abhishek Malhotra'
tp114
a(S'100001443879171'
S'Dheeraj Chawla'
tp115
a(S'100002108553980'
S'Yash Agarwal'
tp116
a(S'1404375728'
S'Edgar Elizeche'
tp117
a(S'1710704405'
S'Akhil Binny Philip'
tp118
a(S'100005585194357'
S'Ranajit Roy'
tp119
a(S'1843579484'
S'Prince Wadhwa'
tp120
a(S'100000821751848'
S'Angela Massey'
tp121
a(S'100001171958828'
S'Basit Malik'
tp122
a(S'100000071004578'
S'Nalin Aggarwal'
tp123
a(S'618766798'
S'Aarti Anand'
tp124
a(S'1645640382'
p125
S'Arjoonn Sharma'
tp126
a(S'100000332472637'
S'Sambodhi Sarkar'
tp127
a(S'100000391842182'
S'Akhil Soni'
tp128
a(S'100001875954887'
S'Shivangi Saklani'
tp129
a(S'100000658380793'
S'Rohan Joy'
tp130
a(S'1229525174'
S'Sachit Tandon'
tp131
a(S'100004791462268'
S'Dhiru Yadav'
tp132
a(S'100001232725104'
S'Rohan Yunas'
tp133
a(S'606079750'
S'Sagar Singh'
tp134
a(S'100000169334300'
S'Jayant Istefanus Dharamjit'
tp135
a(S'100000158311599'
S'Ashmeet Singh'
tp136
a(S'100003947290896'
S'Ayushi Solanki'
tp137
a(S'1735735603'
S'Sangbarta Chakraborty'
tp138
a(S'1046298660'
S'Rohan Mital'
tp139
a(S'1315494687'
S'Shubhit Garg'
tp140
a(S'100001434646203'
S'Vikram Singh'
tp141
a(S'716401582'
S'Rajas Saroy'
tp142
a(S'1158480793'
S'Abraham Mathew'
tp143
a(S'100006289052020'
S'Ankit Sheokand'
tp144
a(S'100000844630178'
S'Vishal Kumar'
tp145
a(S'100001403158707'
S'Daisy Mowke'
tp146
a(S'100005219734863'
S'Ayush Goel'
tp147
a(S'100004078954159'
S'Arshia Jacob'
tp148
a(S'100003804879148'
S'Nikita Gupta'
tp149
a(S'100004350031614'
S'Robin John'
tp150
a(S'620142915'
S'Vanshika Baoni'
tp151
a(S'1370735684'
S'Ateesh Gupta'
tp152
a(S'100000278045946'
S'Aditya Shailaj'
tp153
a(S'1426724363'
p154
S'Josy John'
tp155
a(S'100000929002125'
S'Maitreyee Rudola'
tp156
a(S'1133012258'
S'Saurabh Gupta'
tp157
a(S'100000774423334'
S'Vaibhav Singh'
tp158
a(S'100000618851639'
S'Prashant Kumar'
tp159
a(S'1390090809'
S'Oshima Tathagat'
tp160
a(S'703523145'
S'Madhavi Jha'
tp161
a(S'100001967701673'
p162
S'Gabriel Gulati'
tp163
a(S'100003584006938'
S'Reshma George Palackan'
tp164
a(S'830677377'
S'Alvina Vincent'
tp165
a(S'1636386248'
S'Shourya Awasthi'
tp166
a(S'568505556'
S'Arnav Gupta'
tp167
a(S'100003941929312'
S'Rosemary Thomas'
tp168
a(S'1814506762'
S'Nandil Bhatia'
tp169
a(S'100006842013679'
S'Tanya Sharma'
tp170
a(S'100004552329354'
S'Ayushi Kathayat'
tp171
a(S'100008301583145'
S'Anuradha Aggarwal'
tp172
a(S'725576649'
S'Divyanshu Sharma'
tp173
a(S'1186942377'
S'Adit Goel'
tp174
a(S'100002141116678'
S'Siddhartha Ganguly'
tp175
a(S'100004137877663'
S'Sohan Biswas'
tp176
a(S'100001061251918'
S'Rishabh Rawat'
tp177
a(S'100001290814869'
S'Shantav Garg'
tp178
a(S'1624092635'
S'Akash Verma'
tp179
a(S'100000542497746'
S'Aniket Dikshit'
tp180
a(S'1330896285'
S'Geeth Arora'
tp181
a(S'1074234383'
S'Shayeree Chakraborty'
tp182
a(S'100002254477229'
S'Deekshita Saikia'
tp183
a(S'100002391288281'
S'Darshanam Jude Lama'
tp184
a(S'100000696156700'
S'Gloria Joseph'
tp185
a(S'1760217864'
S'Girish Chander Singh'
tp186
a(S'100001213531104'
S'Shubham Tripathi'
tp187
a(S'100001714661377'
S'Jaison C Koshy'
tp188
a(S'100004133859892'
S'Sanju Sebastian'
tp189
a(S'100002000013123'
S'Sanjeev Golla'
tp190
a(S'100001378112808'
S'Navneet Goyal'
tp191
a(S'100001384296866'
S'Joslin Maria Thomas'
tp192
a(S'100001155687477'
S'Himanshu Chaudhary'
tp193
a(S'1138402888'
S'Raghav Piyush Mittal'
tp194
a(S'1031452186'
S'Vibhas Bhatnagar'
tp195
a(S'100004236704238'
S'Pragati Mishra'
tp196
a(S'100002439950400'
S'Avantika Paul'
tp197
a(S'100006817267890'
S'Nikhil Pathak'
tp198
a(S'100001886092483'
S'Akshay Thomas'
tp199
a(S'1173176116'
S'Suhasni Srivastava'
tp200
a(S'100000679358869'
S'Nikit Agarwal'
tp201
a(S'1685387762'
p202
S'Jibin Joy'
tp203
a(S'762416418'
S'Zubin Bhatnagar'
tp204
a(S'1016657033'
S'Anushka Baoni'
tp205
asS'id'
p206
S'1449146414'
p207
sS'name'
p208
S'Pulkit Aggarwal'
p209
s.