(dp1
S'friends'
p2
(lp3
(S'100000019183326'
S'Glen Waller'
tp4
a(S'100001114886188'
S'Neelima Sathe'
tp5
a(S'1267487954'
S'Wasiem Spacyguy'
tp6
a(S'550858368'
S'Nelson Rodrigues'
tp7
a(S'1329264288'
S'Mohi Somji'
tp8
a(S'1219994875'
S'Mutaheera Zakir Ahmed'
tp9
a(S'805112644'
S'Sylvan Valladares'
tp10
a(S'100000246902742'
S'Oswald Jacob'
tp11
a(S'696347670'
S'Julian Rego'
tp12
a(S'100000587952395'
S'Nilima Bhopatkar'
tp13
a(S'1127370424'
S'Sandeep Nambiar'
tp14
a(S'100000566755447'
S'Mallappa Shankarappa'
tp15
a(S'100006149462369'
S'Munir Karmali'
tp16
a(S'1634540528'
S'Kalpana Gopinath'
tp17
a(S'100000893168864'
S"Linus D'Lima"
tp18
a(S'522554059'
S'Kishwar Firoz'
tp19
a(S'1744828605'
S'Greg Cardoz'
tp20
a(S'100000164722760'
S'Lloyd Maumkel'
tp21
a(S'698322283'
S'Gulnaz Kazani'
tp22
a(S'100001400646538'
S'Eustace Gonzalves'
tp23
a(S'569994637'
S"Bryce D'Silva"
tp24
a(S'1326233658'
S'Seema Pokharkar'
tp25
a(S'636200978'
S'Zarnagin Zulfikarali Ahmed'
tp26
a(S'61302656'
S'Ameera Karmali'
tp27
a(S'792605461'
S'Arshiya Nizar Lokhandwala'
tp28
a(S'586444226'
S'Lubna Tanveer Ahmed'
tp29
a(S'759515400'
S'Fahim Semy'
tp30
a(S'819739311'
S'Denzil Dominic Lobo'
tp31
a(S'100000420459482'
S'Sudha Khare'
tp32
a(S'1302956095'
S'Rajesh Joshi'
tp33
a(S'1428131124'
S'Usha Nagarajan'
tp34
a(S'100000159318961'
S'Hashmat Lalljee'
tp35
a(S'100000542281988'
S'Siddhartha Sarkar'
tp36
a(S'1306828976'
S'Nushrat Naushad Namavati'
tp37
a(S'535860852'
S'Munira Daniel'
tp38
a(S'100000790549552'
S'Arthur Rego'
tp39
a(S'100000164783630'
S'Sandhya Bhutkar'
tp40
a(S'1052532292'
S'Riaz Karmali'
tp41
a(S'1451088766'
S'Sunil Sunder Rao'
tp42
a(S'662072551'
S'Nadia Mohd Iqbal'
tp43
a(S'1025867387'
S'Aseem Karmali'
tp44
a(S'100000113594464'
S'Abida Karmali'
tp45
a(S'100000271116990'
S'Rajeev Manerikar'
tp46
a(S'100000652262845'
S'Tanveer Ahmed'
tp47
a(S'100000315147740'
S'Abhay Patil'
tp48
a(S'658313363'
S'Kenneth Lobo'
tp49
a(S'580749525'
S'Allen Creado'
tp50
a(S'1290781807'
S'Dominic Mathews'
tp51
a(S'1498237941'
S'Trevor Athaide'
tp52
a(S'1027400444'
S'Firoz Noorani'
tp53
a(S'682555354'
S'Amaan Namavati'
tp54
a(S'652694888'
S'Yogesh Vora'
tp55
a(S'677560944'
S'Jerry Alves'
tp56
a(S'705578504'
S'Asif Karmali'
tp57
a(S'1526183698'
S'Zahid Mazgoanwala'
tp58
a(S'100000534505283'
S'Zakir Ahmed'
tp59
a(S'100004590220400'
S'Nawazuddin Qureshi'
tp60
a(S'535662686'
S'Gerard Viegas'
tp61
a(S'1306018868'
S'Rehmat Ahmed'
tp62
a(S'763695001'
S'Shama Semy'
tp63
a(S'1006685352'
S'Lakshmi S Krishnan'
tp64
a(S'521874089'
S'Firoz Bhamani'
tp65
a(S'708650923'
S'Arif Girniwala'
tp66
a(S'566284268'
S'Darryl Nunes'
tp67
a(S'1035719728'
S'Muhammad Yasin Khan'
tp68
a(S'100000289404112'
S'Agnelo Pereira'
tp69
a(S'100000440635606'
S'Pradnya Gupte'
tp70
a(S'100000570930333'
S'Nishanth Joel'
tp71
a(S'733068446'
S'Sabina Lakhani'
tp72
a(S'1548968181'
S'Ayaan Karmali'
tp73
a(S'100000377035029'
S'Varsha Sant'
tp74
a(S'623990361'
S'Anil Lobo'
tp75
a(S'1474682339'
S'Zain Karmali'
tp76
a(S'100000494392825'
S'Jasmine Arif Nensey'
tp77
a(S'792180028'
S'Mubin Merchant'
tp78
a(S'1525594356'
S'Kishore Thakur'
tp79
a(S'1075757564'
S'Rufina Ramodiya Karmali'
tp80
a(S'1623579689'
S'Girish V Shah'
tp81
a(S'100000227406398'
S'Ian Valladares'
tp82
a(S'1835620098'
S'Vijaya Bright'
tp83
a(S'611994278'
S'Lawrie Dsouza'
tp84
a(S'1004068006'
S'William Rodrigues'
tp85
a(S'583442752'
S'Nigel De Sales'
tp86
a(S'1520408535'
S'Nicholas Mascarenhas'
tp87
a(S'204500726'
S'Aliya Karmali'
tp88
a(S'100000353943780'
S'Usha Anantharaman'
tp89
a(S'1095591599'
S'Colin Rebello'
tp90
a(S'632812309'
S'Vrinda Awasthi Misra'
tp91
a(S'781354157'
S'Arvind Bhide'
tp92
a(S'1655946149'
S'Imtiaz Merchant'
tp93
a(S'100000095966740'
S'Dexter Newton'
tp94
a(S'100000481803818'
S'Shashi Nair'
tp95
a(S'100000327439872'
S'Ashok Patel'
tp96
a(S'100000584157299'
S'Zayaan Karmali'
tp97
a(S'752950164'
S"Mackenzie D'Silva"
tp98
a(S'791640356'
S'Zulfikarali Riaz Ahmed'
tp99
a(S'1232087989'
S'Sajid A Karmali'
tp100
a(S'504058870'
S'Sahana Sarkar'
tp101
a(S'1146584310'
S'Sumaiya Karmali'
tp102
a(S'708820977'
S'Nadeem Karmali'
tp103
asS'id'
p104
S'1461183579'
p105
sS'name'
p106
S'Haider Karmali'
p107
s.