(dp1
S'name'
p2
S'Shyam Benupani'
p3
sS'current_class'
p4
S'india'
p5
sS'home_class'
p6
Vnew delhi, delhi, india
p7
sS'home_text'
p8
VNew Delhi, India\u000aHometown
p9
sS'current_link'
p10
Vhttps://www.facebook.com/l.php?u=https%3A%2F%2Fwww.bing.com%2Fmaps%2Fdefault.aspx%3Fv%3D2%26pc%3DFACEBK%26mid%3D8100%26where1%3D18.975000641097%252C%2B72.825622558594%26name%3DMumbai%252C%2BMaharashtra%252C%2BIndia%26mkt%3Den-IN&h=CAQHjMTLw&s=1
p11
sS'home_link'
p12
Vhttps://www.facebook.com/l.php?u=https%3A%2F%2Fwww.bing.com%2Fmaps%2Fdefault.aspx%3Fv%3D2%26pc%3DFACEBK%26mid%3D8100%26where1%3D28.613900916609%252C%2B77.207794189453%26name%3DNew%2BDelhi%252C%2BIndia%26mkt%3Den-IN&h=IAQEVj1PL&s=1
p13
sS'current_text'
p14
VMumbai, Maharashtra, India\u000aCurrent City
p15
sS'friends'
p16
(lp17
(S'100000657754220'
S'Sumarlin Lesmana Lesmana'
tp18
a(S'1021182822'
S'Indraneel Chattopadhyay'
tp19
a(S'100002410240997'
S'Sanjay Sah'
tp20
a(S'1077164967'
S'Mitali Madhusmita'
tp21
a(S'1122257204'
S'Rama Kumar'
tp22
a(S'702506242'
S'Salil Gupta'
tp23
a(S'633035181'
S'Ketan Singh'
tp24
a(S'100001297546045'
S'Aditya Joe'
tp25
a(S'1656909542'
S'Binod Kumar Singh'
tp26
a(S'1464366406'
S'Krishna Dixit'
tp27
a(S'5744345'
S'Ravi Kiran'
tp28
a(S'100002244798938'
S'Richa Khoda'
tp29
a(S'1209321011'
S'Kumud C P Patnaik'
tp30
a(S'834637519'
S'Hari Rao'
tp31
a(S'100002125983950'
S'Lal Chand'
tp32
a(S'100002160999282'
S'Priya Sabharwal'
tp33
a(S'732377918'
S'Satish Kumar Gupta'
tp34
a(S'100000604118818'
S'Amar Veer Singh'
tp35
a(S'1613414529'
S'Vivek Batra'
tp36
a(S'100001705789820'
S'Kl Maheshwari'
tp37
a(S'1064547969'
S'Amitabh Kumar'
tp38
a(S'1444395128'
S'Kamal Dhawan'
tp39
a(S'100001584586028'
S'Rajendra Prasad B B'
tp40
a(S'100000463313475'
S'Anil P. Chaware'
tp41
a(S'1776911915'
S'Ashish Verma'
tp42
a(S'1729609599'
S'Reddy Rv'
tp43
a(S'100003197504030'
S'Aniruddha Das'
tp44
a(S'832764617'
S'Dheeraj Bhatnagar'
tp45
a(S'100004049701395'
S'Bala Krishna'
tp46
a(S'1424004499'
S'Sanjeev Hota'
tp47
a(S'1467570542'
S'Suman Darsi'
tp48
a(S'1079610427'
S'Jai Ranga'
tp49
a(S'100004279236040'
S'Jayakumar Balivada'
tp50
a(S'100002417773596'
S'Sumana Sen'
tp51
a(S'100000527592866'
S'Ranjan Kumar'
tp52
a(S'100000861852332'
S'Satish Goyal'
tp53
a(S'100001827912101'
S'Rao Ranvijay Singh'
tp54
a(S'100003129090537'
S'Anuradha Bhatia'
tp55
a(S'567708456'
S'Shishir Srivastava'
tp56
a(S'652998347'
S'Chandrajit Singh'
tp57
a(S'1581316661'
S'Konda Ramesh'
tp58
a(S'100000612035361'
S'Nemi Chand Jain'
tp59
a(S'100000074970310'
S'Deven Bharti'
tp60
a(S'1039160443'
S'Akundi Lakshmi'
tp61
a(S'1044641886'
S'Krishna Kishore Jasthi'
tp62
a(S'100001043469629'
S'Dee Loyi'
tp63
a(S'100000843344258'
S'Bhupendra Shah'
tp64
a(S'1015676253'
S'Joe Sebastian'
tp65
a(S'100001138999026'
S'Lal Ratnakar Singh'
tp66
a(S'100000288644734'
S'Fateh Singh Sirowa'
tp67
a(S'100000492836497'
S'Davy Prasad'
tp68
a(S'100001310847202'
S'Jaspreet Kaur'
tp69
a(S'100001979433943'
S'RK Bajaj'
tp70
a(S'100000406556352'
S'Adhir Bar'
tp71
a(S'100002275479652'
S'Suresh Kumar'
tp72
a(S'1468440651'
S'Deepak Sanchety'
tp73
a(S'100002773790504'
S'Ravindra Jain'
tp74
a(S'100001639502544'
S'Shiv Sharma'
tp75
a(S'1658827438'
S'Shravan Kumar'
tp76
a(S'731987354'
S'Rajiv Nabar'
tp77
a(S'537499342'
S'Om Prakash Kakralia'
tp78
a(S'521666889'
S'Mithi Bhushan'
tp79
a(S'1229738065'
S'Nandita Biswal'
tp80
a(S'1810204972'
S'Kumar Vs'
tp81
a(S'687967046'
S'Shelley Jindal'
tp82
a(S'1683375211'
S'Ajith Kumar Varma'
tp83
a(S'824637019'
S'Basanta Rajkumar'
tp84
a(S'100000101389419'
S'Jeppu Krishna Rao'
tp85
a(S'678300234'
S'Rajesh Shenava'
tp86
a(S'100002439236109'
S'Kumar Shyam'
tp87
a(S'100002145293772'
S'Jatinder Naurath'
tp88
a(S'100003090474923'
S'Faizullah Qasmi'
tp89
a(S'100003838329553'
S'Tara Rana'
tp90
a(S'1180930569'
S'Amit Singh'
tp91
a(S'100002607984412'
S'Renga Raj'
tp92
a(S'1605216153'
S'Vinod Kumar Pandey'
tp93
a(S'100000378435446'
S'Vibha Bhalla'
tp94
a(S'100001367880842'
S'Bhupender Singh'
tp95
a(S'100005629440113'
S'Krishnakumar TP'
tp96
a(S'100001035681330'
S'Om Prakash Meena'
tp97
a(S'655809884'
S'Ravichandran Ramasamy'
tp98
a(S'100000315953083'
S'Mona Mohanty'
tp99
a(S'100000669490617'
S'Niranjan Tripathy'
tp100
a(S'100000280941938'
S'Vidyasagar Patil'
tp101
a(S'1486491918'
S'Sanjay Shivam'
tp102
a(S'100000983331976'
S'Ratneshwar Prasad'
tp103
a(S'780190706'
S'Ram Mohan Tiwari'
tp104
a(S'100002779621951'
S'DrDipak Ripote'
tp105
a(S'1256844376'
S'Sharat Sarangi'
tp106
a(S'1533476602'
S'Manoj Kumar'
tp107
a(S'100000805110387'
S'Mukesh B Mehta'
tp108
a(S'100003906879166'
S'Ashok D Suri'
tp109
a(S'100000094640701'
S'Dinesh Singh'
tp110
a(S'100000869589559'
S'Romita Arora Sidana'
tp111
a(S'1577889574'
S'Ajay Pandey'
tp112
a(S'1020914771'
S'Rajat Bansal'
tp113
a(S'100004150861976'
S'Tilokchand Ostwal'
tp114
a(S'514907211'
S'Meda Shyam'
tp115
a(S'1263593128'
S'Kalyan Chand'
tp116
a(S'100000968208349'
S'Shankari Parameswaran'
tp117
a(S'1598071299'
S'Durgesh Sumrott'
tp118
a(S'1161766982'
S'Girish Chandorkar'
tp119
a(S'1627283743'
S'Prabodh Saxena'
tp120
a(S'1577439466'
S'Pankaj Kr'
tp121
a(S'100000653884006'
S'Gc Srivastava'
tp122
a(S'100003349328215'
S'Suresh Panwar'
tp123
a(S'1569571220'
S'Naval Kapoor'
tp124
a(S'100000438945724'
S'Sharadchandra Joshi'
tp125
a(S'1747707469'
S'Krishna Kumar Jaiswal'
tp126
a(S'100002599667258'
S'Sanjay Rak'
tp127
a(S'1668155431'
S'Mahesh Kumar'
tp128
a(S'1624575361'
S'Gopal Kamal'
tp129
a(S'1010480447'
S'Raja Sekhar Reddy'
tp130
a(S'1489680635'
S'Niraj N. Kumar'
tp131
a(S'100001971080197'
S'Niraj Bansal'
tp132
a(S'1330698488'
S'Ravi Inder Gill'
tp133
a(S'100000055052127'
S'Sunil Kumar Singh'
tp134
a(S'100003781085775'
S'Vijayakumar Menon'
tp135
a(S'100001208554380'
S'Ratan Kumar Singh'
tp136
a(S'100000661325471'
S'Bishwanath Jha'
tp137
a(S'752608367'
S'Kapil Mohan'
tp138
a(S'100000097491563'
S'Trailokya Jena'
tp139
a(S'762124319'
S'Puneet Narula'
tp140
a(S'100000901437387'
S'Sudhakara Rao Dirisam'
tp141
a(S'100005677154373'
S'Chacha ChandraRam'
tp142
a(S'100000058954423'
S'Savita Krishna'
tp143
a(S'100005988122059'
S'Abhijeet Kumar'
tp144
a(S'750462361'
S'Mala Paropkari'
tp145
a(S'738539735'
S'Deepak Tralshawala'
tp146
a(S'100004069515717'
S'Dimple Mehta'
tp147
a(S'1472344034'
S'Kc Badhok'
tp148
a(S'1478602987'
S'Samuel Darse'
tp149
a(S'751948236'
S'Sunil Gupta'
tp150
a(S'763599001'
S'Anoop Negi'
tp151
a(S'532158800'
S'Shrawan Kumar Acharya'
tp152
a(S'100000670415055'
S'Prakash H Adnur'
tp153
a(S'559448822'
S'Abhimanyu Nagpal'
tp154
a(S'100002998826601'
S'Vijay Babu'
tp155
a(S'100001415927655'
S'Dinesh Patwari'
tp156
a(S'100000626024450'
S'Kishore Vyawahare'
tp157
a(S'100001279991070'
S'Bharat Pandya'
tp158
a(S'573355858'
S'Dinesh Patwari'
tp159
a(S'1003793720'
S'Paramjeet Singh'
tp160
a(S'100001779123714'
S'Simran Sood'
tp161
a(S'100000123298035'
S'Pradip Kumar Das'
tp162
a(S'100001614028305'
S'Pooja Joshi'
tp163
a(S'1513459365'
S'Hanuman Misrimal Jain'
tp164
a(S'687787688'
S'Aseeim Agarwal'
tp165
a(S'100002125183731'
S'Anand Kumar'
tp166
a(S'576902581'
S'Nina Singh'
tp167
a(S'100000280374252'
S'Anand Upadhyay'
tp168
a(S'844052942'
S'Ajit Kumar Jain'
tp169
a(S'1490490599'
S'Rahul Navin'
tp170
a(S'797241958'
S'Sumedha Verma Ojha'
tp171
a(S'100002460257377'
S'DrRamesh Kumar'
tp172
a(S'1356523648'
S'Subashree Anantkrishnan'
tp173
a(S'100001838326861'
S'Pranab Kumar Das'
tp174
a(S'1407826336'
S'P Soma Shekar Reddy'
tp175
a(S'704998225'
S'Rajeev Harit'
tp176
a(S'1340746858'
S'Urvashi Saxena'
tp177
a(S'517669950'
S'Sanjay Bhatia'
tp178
a(S'651585224'
S'Prashant Gupta'
tp179
a(S'100002221931926'
S'Sunita Singh'
tp180
a(S'100000671967433'
S'Anurag Prasad'
tp181
a(S'100000509470026'
S'Rajib Hota'
tp182
a(S'1397272935'
S'Prashant Thakur'
tp183
a(S'100001281592312'
S'Suresh Panwar'
tp184
a(S'100001377654673'
S'Dharm Vir Singh'
tp185
a(S'100000652928882'
S'Anurradaa S Goyal'
tp186
a(S'1595192653'
S'Sibichen Mathew'
tp187
a(S'1697689808'
S'Ashok Kumar Khandelwal'
tp188
a(S'100001629824720'
S'KP Singh'
tp189
a(S'1066380906'
S'Chirania Sudheer'
tp190
a(S'1066682756'
S'Rashmi Panse-Nazirkar'
tp191
a(S'1742638436'
S'Narasimhappa Muttuluri'
tp192
a(S'100000060572105'
S'Zora Klar'
tp193
a(S'1568611356'
S'Sandeep Dahiya'
tp194
a(S'100000026720178'
S'Milind Gunjal'
tp195
a(S'100001507493654'
S'Ips Bindra'
tp196
a(S'100002684404511'
S'Ramesh Venkataramaiah'
tp197
a(S'574502956'
S'Samir Tekriwal'
tp198
a(S'100001257168623'
S'Hareshwar Sharma'
tp199
a(S'100001369974012'
S'Sujata Keshkamat'
tp200
a(S'1726491855'
S'Ashwani Kumar'
tp201
a(S'1280276712'
S'Jayaram Raipura'
tp202
a(S'1673116225'
S'Byomkesh Panda'
tp203
a(S'100000428966758'
S'Kalika Singh'
tp204
a(S'100002840383583'
S'Kaushal Sharma'
tp205
a(S'100001183672494'
S'Sridhar Tnc'
tp206
a(S'1325319960'
S'Brahma Prakash Gaur'
tp207
a(S'100002162427455'
S'Niranjan Kouli'
tp208
a(S'724163872'
S'Sanjiv Singh'
tp209
a(S'100005403307015'
S'Upendra Singh'
tp210
a(S'100000439076209'
S'Basant Naik'
tp211
a(S'1486899920'
S'Amrendra Kumar'
tp212
a(S'100008137950555'
S'Sunita Kumar'
tp213
a(S'100000173795301'
S'Pawan Parmar Singh'
tp214
a(S'100002447500771'
S'Swati Joshi'
tp215
a(S'100000087174575'
S'Promila Bhardwaj'
tp216
a(S'100000367094526'
S'Jairaj Kumar'
tp217
a(S'1098401759'
S'Mahendra Varshney'
tp218
a(S'664489993'
S'Shishir Agarwal'
tp219
a(S'647378301'
S'Ashutosh Rajhans'
tp220
a(S'648551536'
S'Munesh Kumar'
tp221
a(S'100001622109631'
S'Parashivaiah Kullaiah'
tp222
a(S'1582472935'
S'Vatsalya Saxena'
tp223
a(S'1529093381'
S'Artabandhu Patra'
tp224
a(S'687012987'
S'Kapil Mohan'
tp225
a(S'1587991248'
S'Virendra Ojha'
tp226
a(S'100002490915709'
S'Raj Cit'
tp227
a(S'100003795622109'
S'Sriram Singh'
tp228
a(S'100000126657856'
S'Md Mohsin Alam'
tp229
a(S'819468699'
S'Sanjay Agrawal'
tp230
a(S'839654303'
S'Poonam Khaira Sidhu'
tp231
a(S'100000479264011'
S'Satinder Rana'
tp232
a(S'1785805523'
S'Abha Singh'
tp233
a(S'100000561184612'
S'Romita Arora'
tp234
a(S'1061611391'
S'Peeyush Sonkar'
tp235
a(S'100001222463738'
S'Indira Bhargava'
tp236
a(S'714737180'
S'Anil Rajwade'
tp237
a(S'1031367179'
S'Mahendra Pratap Taneja'
tp238
a(S'553727082'
S'Asha Mehra'
tp239
a(S'100002048344874'
S'Sonali Sinha'
tp240
a(S'100001776240766'
S'Pramod Kumar'
tp241
a(S'517511689'
S'Arvind Mishra'
tp242
a(S'100001135849908'
S'Diptasshri Dassharma'
tp243
a(S'1225126470'
S'Dhirendra Mishra'
tp244
a(S'100006368712305'
S'Sandeep Brar'
tp245
a(S'100001640588201'
S'Priyanka Nikam'
tp246
a(S'575689596'
S'Chittaranjan Sahu'
tp247
a(S'100001540656483'
S'Muktesh Chander'
tp248
a(S'100000453333534'
S'Jalaj Kakkar'
tp249
a(S'613702523'
S'Rupinder Kaur'
tp250
a(S'100002440574586'
S'Girish Kumar Maheshwari'
tp251
a(S'1222959180'
S'Suresh Yadav'
tp252
a(S'1508636113'
S'Sunita Billa'
tp253
a(S'100001271567856'
S'Subrata Sarkar'
tp254
a(S'673830812'
S'Chetan W. Bhende'
tp255
a(S'1331446515'
S'Bharat Malhan'
tp256
a(S'849635082'
S'Rajul Awasthi'
tp257
a(S'1534454850'
S'Priyanka Batra'
tp258
a(S'1099761825'
S'Anil Rajwade'
tp259
a(S'1019736270'
S'Pravin Varma'
tp260
a(S'100000463136550'
S'Devi Prasad Uppuleti'
tp261
a(S'1078694847'
S'Lakshmi Hande Puri'
tp262
a(S'100001150111688'
S'Savita Jain'
tp263
a(S'100000591004974'
S'Nikhil Choudhary'
tp264
a(S'100003803764428'
S'Rakesh Goyal'
tp265
a(S'100007428815701'
S'Pritam Singh'
tp266
a(S'100002948738000'
S'Vibhu Saini'
tp267
a(S'738339999'
S'Pathlavath Peerya'
tp268
a(S'100001288694173'
S'Chandra Prasad'
tp269
a(S'607082340'
S'Hukum C Jain'
tp270
a(S'100000468823739'
S'BV Gopinath'
tp271
a(S'100001482584784'
S'Prashant Bhushan'
tp272
a(S'816969061'
S'Anshu Prakash'
tp273
a(S'100002116154677'
S'Sujit Kumar'
tp274
a(S'100000820762320'
S'Jk Mishra'
tp275
a(S'100003481929424'
S'Anushree Roy'
tp276
a(S'1281622114'
S'Santosh Kumar'
tp277
a(S'100002578214773'
S'Jagjeevan Rao Kokkiligadda'
tp278
a(S'710321996'
S'Dilip Sharma'
tp279
a(S'1608699390'
S'Amrita Misra'
tp280
a(S'100002624229511'
S'Malyadri Sriram'
tp281
a(S'1517470020'
S'Manoj Kumar Singh'
tp282
a(S'100003333825935'
S'Ramji Sinha'
tp283
a(S'1029035216'
S'Shailendra Handa'
tp284
a(S'1717844169'
S'Krinwant Sahay'
tp285
a(S'100000980607480'
S'Suresh Satapathy'
tp286
a(S'100001335320737'
S'Lalit Pandey'
tp287
a(S'1599631281'
S'Shyamsundar Keshkamat'
tp288
a(S'100000461286330'
S'Neena Singh'
tp289
a(S'590249185'
S'Vikram Batra'
tp290
a(S'1323877850'
S'Rakesh Mishra'
tp291
a(S'1834815139'
S'Mahabir Jaglan'
tp292
a(S'756199384'
S'Navneet Soni'
tp293
a(S'100002231132691'
S'Bhagchand Meena'
tp294
a(S'1428332344'
S'Laxmi Narayan Pant'
tp295
a(S'1632931953'
S'Mudit Nagpal'
tp296
a(S'100000656268819'
S'Shashi Kapila'
tp297
a(S'100002855810219'
S'Riya Mohanty'
tp298
a(S'100006264370602'
S'Malika Singh'
tp299
a(S'1415598660'
S'Sunil Ojha'
tp300
a(S'1261973857'
S'Anshu Kumar'
tp301
a(S'1123064846'
S'Sriharsha Mohapatra'
tp302
a(S'724897972'
S'Aditya Kumar Jain'
tp303
a(S'1345662977'
S'Ananth Rupanagudi'
tp304
a(S'1791320987'
S'Daya Shanker'
tp305
a(S'100001238804568'
S'Medisetti Tirumala Kumar'
tp306
a(S'100005860832403'
S'Raghubir S Upadhyay'
tp307
a(S'100008278140972'
S'Snehal Shah'
tp308
a(S'100005624472251'
S'Preeta Harit'
tp309
a(S'1590096191'
S'Ajay Chauhan'
tp310
a(S'100003046965572'
S'Rajan Singla'
tp311
a(S'1140524850'
S'Sanjeev Singh'
tp312
a(S'713170827'
S'Shahid Khan'
tp313
a(S'100000057129034'
S'Saroj Kumar Tripathy'
tp314
a(S'100006013922645'
S'Digvijai Kumar'
tp315
a(S'1052821370'
S'Ajay Kumar'
tp316
a(S'521888440'
S'Rohit Kumar Singh'
tp317
a(S'100000981876788'
S'Dharm Veer Singh'
tp318
a(S'1548605393'
S'Satish Sharma'
tp319
a(S'100000485648447'
S'Reshma Reddy'
tp320
a(S'747103283'
S'Rohas Nagpal'
tp321
a(S'1201064635'
S'Vinod K Tripathi'
tp322
a(S'1409801730'
S'Albert Jodhimani'
tp323
a(S'100000214736820'
S'Subhash Nagpal'
tp324
a(S'100002633900373'
S'Laxman Das'
tp325
a(S'1418482657'
S'Santosh Kumar Yadav'
tp326
a(S'1715518367'
S'Diptasshre K Das Sharma'
tp327
a(S'100000176512618'
S'Rajeswara Rao'
tp328
a(S'100001878584069'
S'Ranjit Kishore Mishra'
tp329
a(S'100003792054442'
S'Ram Niwas Poonia'
tp330
a(S'1014527879'
S'Anadee Nath Misshra'
tp331
a(S'1122046493'
S'Gopinathan Pai'
tp332
a(S'100007126321908'
S'Brajesh Kumar Singh'
tp333
a(S'1156017995'
S'Sushil Madhuk'
tp334
a(S'1114457433'
S'Avinash Mishra'
tp335
a(S'1393880668'
S'Wasim Haque'
tp336
a(S'100000370264497'
S'Ashok Gautam'
tp337
a(S'549536534'
S'Rajan Bahadur'
tp338
a(S'1451963160'
S'Jagdeep Goel'
tp339
a(S'611314392'
S'Anupama Saksena'
tp340
a(S'100001826473798'
S'Abhay Kumar'
tp341
a(S'1590454554'
S'Sanghmitra Acharya'
tp342
a(S'100000619491617'
S'Milind Bhusari'
tp343
a(S'1200725895'
S'Seema Sharma'
tp344
a(S'1735645389'
S'Neena Kumar'
tp345
a(S'100002240108419'
S'Saroj Bala'
tp346
a(S'1573729708'
S'Chittaranjan Dash'
tp347
a(S'598079555'
S'Apurva Joshi'
tp348
a(S'1016325388'
S'Mohan Kumar Singhania'
tp349
a(S'1685150236'
S'Pathik Shah'
tp350
a(S'100001928448691'
S'Anita Benupani'
tp351
a(S'100001032613899'
S'SwagatKumar Routray'
tp352
a(S'1818756885'
S'Karunakara Rao Dasari'
tp353
a(S'100000033686602'
S'Shambhavi Bhushan'
tp354
a(S'1696466548'
S'Vilas Shardul'
tp355
a(S'100000394166644'
S'Veerappalam Mahalingam'
tp356
a(S'100002448528845'
S'Archana Choudhary'
tp357
a(S'751636725'
S'Vinod Pn'
tp358
a(S'1011548334'
S'Surendra Kumar'
tp359
a(S'100001915617608'
S'Nand Lal'
tp360
a(S'852935248'
S'Amol Kirtane'
tp361
a(S'100001626874587'
S'Rama Das'
tp362
a(S'100002475103716'
S'Avinash Kumar'
tp363
a(S'1626159715'
S'Anurag Sahay'
tp364
a(S'100001973577072'
S'Anil Misra'
tp365
a(S'100001014087635'
S'Udit Ratna'
tp366
a(S'100001472013189'
S'K K Venkatesh Venkatesh'
tp367
a(S'549359950'
S'Sushama Gahlot'
tp368
a(S'1069321080'
S'Melattur Vishwanathan Bhanumathi'
tp369
a(S'1466015771'
S'Jasdeep Singh'
tp370
a(S'1090457076'
S'Susie Varghese'
tp371
a(S'1492941831'
S'Sidhartha Pradhan'
tp372
a(S'1725917829'
S'Manoranjan Panigrahy'
tp373
a(S'100000637453107'
S'Sishir Sinha'
tp374
a(S'100000001180862'
S'Vikram Sankhala'
tp375
a(S'729990414'
S'Sk Singh'
tp376
a(S'525929005'
S'Uma Singh'
tp377
a(S'100001314423423'
S'Dinesh Vyavahare'
tp378
a(S'100007424647737'
S'Nilima Mansukhani'
tp379
a(S'100002134108607'
S'Yogendra Kumar Singh'
tp380
a(S'1207452020'
S'Tejinder Singh'
tp381
a(S'537129008'
S'Brajindar Mohan Singh'
tp382
a(S'789468621'
S'Arun S Bhatnagar'
tp383
a(S'1607921652'
S'Shri Prakash Dubey'
tp384
a(S'729859750'
S'Krishna Mohan Prasad'
tp385
a(S'100001216211173'
S'Anil Kumar'
tp386
a(S'1082145714'
S'Shantanu Ghosh'
tp387
a(S'100000765933706'
S'Shanta Sujata'
tp388
a(S'100002071908191'
S'Jaya Singh Chauhan'
tp389
a(S'1501090036'
S'Surinder Jit Singh'
tp390
a(S'100000012660872'
S'Srinivasulu Hanumanthgari'
tp391
a(S'100000049587637'
S'Surinder Jit Singh'
tp392
a(S'100007251662419'
S'Srinivas Danda'
tp393
a(S'1135088042'
S'Pradip Ahire'
tp394
a(S'535669097'
S'Aravind Putta'
tp395
a(S'544448003'
S'Ajay Mankotia'
tp396
a(S'713682778'
S'Karan Bir Singh Sidhu'
tp397
a(S'100001167068627'
S'Yogender Chaudhry'
tp398
a(S'1037131183'
S'Vijay Kumar'
tp399
a(S'1287318712'
S'Naresh Balodia'
tp400
a(S'1029713428'
S'Sandip Garg'
tp401
a(S'100001275327786'
S'Rajneesh Arvind'
tp402
a(S'1545349799'
S'Munindra Mohan Das'
tp403
a(S'100000040647675'
S'C R Sekhar Reddy'
tp404
a(S'1325143421'
S'Rangnath Jha'
tp405
a(S'100001985923971'
S'Anuradha Mookerjee'
tp406
a(S'100000892003127'
S'Jamil Ahmad'
tp407
a(S'100000374605623'
S'Zainab Be'
tp408
a(S'100002147831769'
S'Arushi Benupani'
tp409
a(S'555812484'
S'Sanjay Bahadur'
tp410
a(S'1112834612'
S'Rabi Narayan Dash'
tp411
a(S'659157254'
S'Rajiva Ranjan Singh'
tp412
a(S'100000040033177'
S'Ashok Sawhney'
tp413
a(S'1497690573'
S'Sanjeev Sharma'
tp414
a(S'100007228744949'
S'Shahid Ansari'
tp415
a(S'1213292358'
S'Anand Baiwar'
tp416
a(S'100000051174510'
S'Suresh Battini'
tp417
a(S'100000024741026'
S'Bandana Biswal'
tp418
a(S'100002904670562'
S'Satish Goyal'
tp419
a(S'100000698052295'
S'Vaddadi Appala Raju'
tp420
a(S'1057808456'
S'Ramesh Narain Parbat'
tp421
a(S'100000162130222'
S'Rajiv Singh'
tp422
a(S'550139175'
S'Sangeeta Gupta'
tp423
a(S'100001351045194'
S'Manoj Kothari'
tp424
a(S'100002936369125'
S'Ashok Kumar Satapathy'
tp425
a(S'1253084175'
S'Vairamani Alagappan'
tp426
a(S'100000826295855'
S'Nilesh Patel'
tp427
a(S'100000952644888'
S'Rajamani Sathiaseelan'
tp428
a(S'100007614305005'
S'Darzakhum Songate'
tp429
a(S'100000633777683'
S'Syed Naiyer Ali Najmi'
tp430
a(S'1830879466'
S'Radhakrishna Sreepada'
tp431
a(S'566448852'
S'Debjyoti Das'
tp432
a(S'100002185936341'
S'Mithilesh Kumar'
tp433
a(S'100002526725241'
S'Shubham Singh Khuswah'
tp434
a(S'100006360313926'
S'Quadir Alam'
tp435
a(S'100001974228037'
S'Nishi Srivastava'
tp436
a(S'100001412480916'
S'Radha Raman Pathak'
tp437
a(S'100006432957934'
S'Nadeem Saif'
tp438
a(S'100000820547488'
S'CR Sahu'
tp439
a(S'1780400986'
S'Murali Krishnamurthy'
tp440
a(S'100001638368590'
S'Manoj Pal Singh'
tp441
a(S'100004050878532'
S'Ratnesh Sahay'
tp442
a(S'100003823499085'
S'Rakesh Bhaskar'
tp443
a(S'1814690969'
S'Jagtar Singh'
tp444
a(S'100002090366240'
S'Krishan Mahajan'
tp445
a(S'100001249132013'
S'Sandip Pradhan'
tp446
a(S'100001130414357'
S'Swatantra Kumar'
tp447
a(S'100000423148631'
S'Devesh Vasavada'
tp448
a(S'100001789637600'
S'Sarat Malik'
tp449
a(S'550054349'
S'Mandira R. Singh'
tp450
a(S'100004098997403'
S'Srinivasan HR'
tp451
a(S'100006578172705'
S'Sataynarayan Vaisnav'
tp452
a(S'100003003270589'
S'Varaprasad Padmaraj'
tp453
a(S'100005210773103'
S'Devadasan Pn'
tp454
a(S'1800791604'
S'Ashok Kumar Handa'
tp455
a(S'100002118817124'
S'Alok Kumar'
tp456
a(S'100003172005882'
S'Umesh Chandra Pandey'
tp457
a(S'100006188142440'
S'Jeevan Vaishnav'
tp458
a(S'530680358'
S'Suresh Prabhu'
tp459
a(S'1740431871'
S'Dipak Desai'
tp460
a(S'100001402748195'
S'Shesh Gautam'
tp461
a(S'537393668'
S'Rabender Singh Mathoda'
tp462
a(S'100000947493819'
S'Ramana Babu K'
tp463
a(S'608818324'
S'Gagarin Mishr'
tp464
a(S'100000128142406'
S'Jayant Kumar'
tp465
a(S'100000004920842'
S'Pramod Chandra Mody'
tp466
a(S'100001572862793'
S'Krishan Kanwat'
tp467
a(S'1565960126'
S'Bhavna Chohda Yashroy'
tp468
a(S'100005893629411'
S'Natubhai Patel'
tp469
a(S'1609951241'
S'Vidhu Shekher Singh'
tp470
a(S'572793560'
S'Zakir Thomas'
tp471
a(S'100005132075956'
S'Santanu Saikia'
tp472
a(S'100000593772952'
S'Shyamsundar Keshkamat'
tp473
a(S'1261705541'
S'Sabihur Rahman'
tp474
a(S'100004045540143'
S'Chhedi Lal'
tp475
a(S'1637676219'
S'Shafiq R Malik'
tp476
a(S'1216443641'
S'Niranjan Tripathy'
tp477
a(S'100002534081125'
S'Sanjana Joshi'
tp478
a(S'1013367677'
S'Anandarajan Vee'
tp479
a(S'780843935'
S'Ashish Abrol'
tp480
a(S'807279924'
S'Shahin Sharma'
tp481
a(S'100000579845436'
S'Bishnu Sarangi'
tp482
a(S'100001043915438'
S'Jyoti Kumari'
tp483
a(S'1438047944'
S'Amrish Bedi'
tp484
a(S'1079453739'
S'Karun K Ojha'
tp485
a(S'100000316006534'
S'Yogesh Verma'
tp486
a(S'100000813233702'
S'Jasbir Chouhan'
tp487
a(S'100002020612984'
S'Chandraprakash Saroj'
tp488
a(S'100003625876964'
S'Benu Pani'
tp489
a(S'1288876382'
S'Jagadish Irs'
tp490
a(S'100002278956874'
S'Shashi Prasad'
tp491
a(S'100003078973241'
S'Seetharaman Ramasastry'
tp492
a(S'100001963035825'
S'Gm Doss'
tp493
a(S'100001285322160'
S'Sarat Dash'
tp494
a(S'100001217762913'
S'Ram Phool Meena'
tp495
a(S'100001934147403'
S'Prabodh Seth'
tp496
a(S'1340474143'
S'Prasad Reddy'
tp497
a(S'1435202395'
S'Kamlesh Vikamsey'
tp498
a(S'100001285621510'
S'Amardeep Rana'
tp499
a(S'633209247'
S'Vineet Agrawal'
tp500
a(S'1742761483'
S'Sanjay Kumar'
tp501
a(S'100004519093127'
S'Girish Pande'
tp502
a(S'100000193360681'
S'Chandra Sekhar Dash'
tp503
a(S'100004684922051'
S'Girish Sharma'
tp504
a(S'1567385476'
S'Yagya Dutt Sharma'
tp505
a(S'1827947545'
S'Rakesh Kumar Paliwal'
tp506
a(S'738245834'
S'Abhay Damle'
tp507
a(S'1710761905'
S'Ashok Kumar Tripathi'
tp508
a(S'100000328975078'
S'LK Agarwal'
tp509
a(S'1136147044'
S'Anand Kishore'
tp510
a(S'625135916'
S'Girish N Pande'
tp511
a(S'100004234239253'
S'Kamlesh Chandra Varshney'
tp512
a(S'100002414536204'
S'Gangadhar Belagali'
tp513
a(S'100003292445195'
S'Avinash Tejpal'
tp514
a(S'1110282033'
S'Lekha Kumar'
tp515
a(S'100003867079745'
S'Narottam Mishra'
tp516
a(S'100001438657973'
S'Debashis Chanda'
tp517
a(S'546631509'
S'Ashok Mittal'
tp518
a(S'766719488'
S'Ajay Srivastava'
tp519
a(S'734608651'
S'Anadee Nath Misshra'
tp520
a(S'1140287493'
S'Sanjeev K Abrol'
tp521
a(S'100001180201201'
S'Uday Kumaran'
tp522
a(S'100001356223146'
S'Rajeev Soham'
tp523
a(S'100000894122094'
S'Ramashray Prasad'
tp524
a(S'100000481764816'
S'Prakash Shetty'
tp525
a(S'765175353'
S'Arjun Prasad'
tp526
a(S'100000216930960'
S'Rupinder Pannu Brar'
tp527
a(S'1428115478'
S'Jayant Diddi'
tp528
a(S'1519226193'
S'Sanjay Gangwar'
tp529
a(S'100000069949033'
S'Rama Das'
tp530
a(S'557919759'
S'Rakesh Bhaskar'
tp531
a(S'100000671656072'
S'Pradeep Sharma'
tp532
a(S'1427071599'
S'Ashok Bal'
tp533
a(S'100000546766803'
S'Shashidhar Shet'
tp534
asS'id'
p535
S'1496400927'
p536
s.