(dp1
S'name'
p2
S'Sanjeev Sharma'
p3
sS'current_class'
p4
S'india'
p5
sS'home_class'
p6
Vtikamgarh, madhya pradesh 472001, india
p7
sS'home_text'
p8
VTikamgarh, India\u000aHometown
p9
sS'current_link'
p10
Vhttps://www.facebook.com/l.php?u=https%3A%2F%2Fwww.bing.com%2Fmaps%2Fdefault.aspx%3Fv%3D2%26pc%3DFACEBK%26mid%3D8100%26where1%3D28.613900916609%252C%2B77.207794189453%26name%3DNew%2BDelhi%252C%2BIndia%26mkt%3Den-IN&h=oAQHkbS3i&s=1
p11
sS'home_link'
p12
Vhttps://www.facebook.com/l.php?u=https%3A%2F%2Fwww.bing.com%2Fmaps%2Fdefault.aspx%3Fv%3D2%26pc%3DFACEBK%26mid%3D8100%26where1%3D24.740801101743%252C%2B78.831024169922%26name%3DTikamgarh%252C%2BIndia%26mkt%3Den-IN&h=HAQHkLeOx&s=1
p13
sS'current_text'
p14
VNew Delhi, India\u000aCurrent City
p15
sS'friends'
p16
(lp17
(S'592113985'
S'M.p. Lohia'
tp18
a(S'1500335325'
S'Pascal Saint-Amans'
tp19
a(S'1670092655'
S'Sushovan Banerjee'
tp20
a(S'1089286833'
S'Duvvuri Krishna Srinivas'
tp21
a(S'100003119312061'
S'Adarsh Sharma'
tp22
a(S'702506242'
S'Salil Gupta'
tp23
a(S'100001287046167'
S'Arvind Kumar Mishra'
tp24
a(S'1817954706'
S'Adhya Sharma'
tp25
a(S'1464366406'
S'Krishna Dixit'
tp26
a(S'100001288936765'
S'Mahesh Chandra Gupta'
tp27
a(S'811880679'
S'Ajaya Gupta'
tp28
a(S'100007740760079'
S'Tina Lackner'
tp29
a(S'1209321011'
S'Kumud C P Patnaik'
tp30
a(S'100001904876257'
S'Anusha Khurana'
tp31
a(S'100002456887599'
S'Mithilesh Roy'
tp32
a(S'100006313929082'
S'Sudhir Chandra'
tp33
a(S'100001342398504'
S'Arvind Jain'
tp34
a(S'1750729783'
S'Sathia Jeeva Krishnan'
tp35
a(S'100003910423747'
S'Ashok Tripathi'
tp36
a(S'1244454241'
S'Sanjeev Sabharwal'
tp37
a(S'511105033'
S'Gregor Rohlje'
tp38
a(S'100000604118818'
S'Amar Veer Singh'
tp39
a(S'1613414529'
S'Vivek Batra'
tp40
a(S'792360542'
S'Navneet Manohar'
tp41
a(S'629207129'
S'Asiye \\u00d6zt\\u00fcrk'
tp42
a(S'100001889555502'
S'Mk Jain'
tp43
a(S'1064547969'
S'Amitabh Kumar'
tp44
a(S'100000906354533'
S'Deepa Mittal'
tp45
a(S'749964265'
S'Nilimesh Baruah'
tp46
a(S'100003117594522'
S'Jai Gangwar'
tp47
a(S'100000873776404'
S'Nirmal Singh Tomar'
tp48
a(S'100001306475529'
S'Sanjiv Chaudhary'
tp49
a(S'1086324865'
S'Ned Shelton'
tp50
a(S'100000463313475'
S'Anil P. Chaware'
tp51
a(S'1631916878'
S'Rakhi Bharti'
tp52
a(S'100000423148631'
S'Devesh Vasavada'
tp53
a(S'675763206'
S'Arvind Gupta'
tp54
a(S'678921450'
S'Mini Verma'
tp55
a(S'100001752095024'
S'Anil Shrivastava'
tp56
a(S'832764617'
S'Dheeraj Bhatnagar'
tp57
a(S'100005681471821'
S'Veerendra Sharma'
tp58
a(S'100002535078166'
S'Cumhur Inan Bilen'
tp59
a(S'1485640640'
S'Jata Shankar Mishra'
tp60
a(S'1248193190'
S'Nina Dhumal'
tp61
a(S'1740521643'
S'Charanjeet Singh Gulati'
tp62
a(S'100001913690977'
S'Anuj Sharma'
tp63
a(S'100000094937225'
S'Balvir Singh Sikarwar'
tp64
a(S'100001496497124'
S'Kapil Garg'
tp65
a(S'100001449885880'
S'Mukesh Sharma'
tp66
a(S'100000274748170'
S'Rajiv Gupta'
tp67
a(S'1050354982'
S'Meera Pramodh'
tp68
a(S'100003457132813'
S'Kushwah Rns'
tp69
a(S'100001320439477'
S'Shrawan Lal Sharma'
tp70
a(S'1058475900'
S'Anup Kumar Dubey'
tp71
a(S'100000417199565'
S'Gangadhar Panda'
tp72
a(S'585376909'
S'Anjali Lavania'
tp73
a(S'1482215901'
S'Suhas Tambe'
tp74
a(S'100001448555634'
S'Gs Singh'
tp75
a(S'652998347'
S'Chandrajit Singh'
tp76
a(S'100000173845531'
S'Kamal Singhi'
tp77
a(S'1039160443'
S'Akundi Lakshmi'
tp78
a(S'100003753932312'
S'Rakesh Saxena'
tp79
a(S'1032529064'
S'Maitreyee Kr'
tp80
a(S'100000820762320'
S'Jk Mishra'
tp81
a(S'100000578125159'
S'Devansh Mishra'
tp82
a(S'527955256'
S'Maren Freudenberg'
tp83
a(S'100002529618295'
S'Arun Pradhan'
tp84
a(S'100000971931545'
S'Subhash Verma'
tp85
a(S'1782787144'
S'Jinesh Kumar Samaiya'
tp86
a(S'1015676253'
S'Joe Sebastian'
tp87
a(S'100001138999026'
S'Lal Ratnakar Singh'
tp88
a(S'100001422345767'
S'Sukesh Jain'
tp89
a(S'634260258'
S'Francesca Vitale'
tp90
a(S'100001399261177'
S'Surendra Dashore'
tp91
a(S'1816204186'
S'Bharat Asarsa'
tp92
a(S'100000820720346'
S'Chandra Pal Singh Sengar'
tp93
a(S'100003375438621'
S'Advik Sharma'
tp94
a(S'100000041674155'
S'Alaka Nanda-dash'
tp95
a(S'100002283655503'
S'Girish Dave'
tp96
a(S'100000605060456'
S'Rajeev Kumar'
tp97
a(S'100000406556352'
S'Adhir Bar'
tp98
a(S'1468440651'
S'Deepak Sanchety'
tp99
a(S'100002425358680'
S'Ritoo Sharma'
tp100
a(S'36811840'
S'Clara Brandi'
tp101
a(S'661881936'
S'Mayank Sharma'
tp102
a(S'1069711363'
S'Deepak Garg'
tp103
a(S'100000173471258'
S'Pallav Sharma'
tp104
a(S'1537017795'
S'Julia Sm\\u00f8rrebr\\u00f8d'
tp105
a(S'100001973577072'
S'Anil Misra'
tp106
a(S'100003815684367'
S'Smita Pant'
tp107
a(S'1361925689'
S'Meenakshi J Goswami'
tp108
a(S'683012311'
S'Isabel Vogler'
tp109
a(S'1354941772'
S'Parag Jhaveri'
tp110
a(S'100002619829490'
S'Ankit Sharma'
tp111
a(S'687967046'
S'Shelley Jindal'
tp112
a(S'1683375211'
S'Ajith Kumar Varma'
tp113
a(S'824637019'
S'Basanta Rajkumar'
tp114
a(S'100001607297622'
S'Ajay Shankar Dubey'
tp115
a(S'100002345741943'
S'Vineet Mittal'
tp116
a(S'100003117448393'
S'Priyanka Tomar'
tp117
a(S'1653871916'
S'Wini Purwanti'
tp118
a(S'668654924'
S'Abeid Kasaizi'
tp119
a(S'597857923'
S'Yatish Jasani'
tp120
a(S'1176095596'
S'Sanjay Sahay'
tp121
a(S'100006076206850'
S'Mitsaa Delhi'
tp122
a(S'1605216153'
S'Vinod Kumar Pandey'
tp123
a(S'100001397614251'
S'Vikram Mittal'
tp124
a(S'1198687838'
S'Siddharth Sharma'
tp125
a(S'1844649784'
S'Sudhir Singh Bhadauria'
tp126
a(S'100001035681330'
S'Om Prakash Meena'
tp127
a(S'712327550'
S'Xiaohui Ma'
tp128
a(S'655809884'
S'Ravichandran Ramasamy'
tp129
a(S'100000623794199'
S'Sanjay Sharma'
tp130
a(S'729237970'
S'Sumant Srivastava'
tp131
a(S'652213650'
S'Anne Hilger'
tp132
a(S'100002879498836'
S'Mamta Kuldeep Mishra'
tp133
a(S'100000047061469'
S'Shashi Agarwal'
tp134
a(S'100001979433943'
S'RK Bajaj'
tp135
a(S'1486491918'
S'Sanjay Shivam'
tp136
a(S'100000983331976'
S'Ratneshwar Prasad'
tp137
a(S'819267785'
S'Boris Vormann'
tp138
a(S'100007564053553'
S'Ramesh Khaitan'
tp139
a(S'1533476602'
S'Manoj Kumar'
tp140
a(S'100003906879166'
S'Ashok D Suri'
tp141
a(S'100000094640701'
S'Dinesh Singh'
tp142
a(S'100000059904398'
S'Nandita Kanchan'
tp143
a(S'100002672940718'
S'Neeraj Khera'
tp144
a(S'721852632'
S'Monica Bhatia'
tp145
a(S'1577889574'
S'Ajay Pandey'
tp146
a(S'1020914771'
S'Rajat Bansal'
tp147
a(S'100004150861976'
S'Tilokchand Ostwal'
tp148
a(S'544933790'
S'Jeremy Maddison'
tp149
a(S'1359523723'
S'Geetha Ravichandran'
tp150
a(S'100007561291924'
S'Rajendra Mishra'
tp151
a(S'1263593128'
S'Kalyan Chand'
tp152
a(S'1405039'
S'Jakob Leonhard'
tp153
a(S'1315705511'
S'Anil Gautam'
tp154
a(S'100002221931926'
S'Sunita Singh'
tp155
a(S'1199840074'
S'Shharat Sharma'
tp156
a(S'1750905531'
S'Ramalingam Kumaraswamy'
tp157
a(S'553278767'
S'Barbara Ender-Rochowansky'
tp158
a(S'100000653884006'
S'Gc Srivastava'
tp159
a(S'100000886855790'
S'Rajesh Shrivastava'
tp160
a(S'100000549503467'
S'Manmohan Singh Raghuwanshi'
tp161
a(S'100001573443346'
S'Rajeev Sharma'
tp162
a(S'1747707469'
S'Krishna Kumar Jaiswal'
tp163
a(S'100004139167575'
S'Anil Kumar Lahoti'
tp164
a(S'100007544587062'
S'Pradeep Kumar'
tp165
a(S'100000896905605'
S'Nisheeth Saxena'
tp166
a(S'1834375247'
S'Ashwani Kumar Mahajan'
tp167
a(S'1668155431'
S'Mahesh Kumar'
tp168
a(S'738984739'
S'Batsala Jha'
tp169
a(S'100000430139071'
S'Patnala Sudhakar'
tp170
a(S'1040277860'
S'Nrusingh Swain'
tp171
a(S'1026800719'
S'Javed Akhtar'
tp172
a(S'1208368857'
S'Suchismita Palai'
tp173
a(S'1167289660'
S'Sunita Bainsla'
tp174
a(S'100001054174920'
S'Salma Abdullah S'
tp175
a(S'706158479'
S'Soumya Vinayan'
tp176
a(S'100000901437387'
S'Sudhakara Rao Dirisam'
tp177
a(S'662633310'
S'Jahanzeb Akhtar'
tp178
a(S'1144756532'
S'Mukesh Butani'
tp179
a(S'1625125903'
S'H\\u00ebm\\u00e4 Chh\\u00e4bl\\u00e4n\\u00ef'
tp180
a(S'100000978082922'
S'Srishti Sharma Umekar'
tp181
a(S'1327132855'
S'Nilimesh Baruah'
tp182
a(S'100001401215628'
S'Samuel Darse'
tp183
a(S'100002458720773'
S'Nilesh Agrawal'
tp184
a(S'1478602987'
S'Samuel Darse'
tp185
a(S'100000370264497'
S'Ashok Gautam'
tp186
a(S'100000244373505'
S'Sudhir Sharma'
tp187
a(S'1139914932'
S'Yogendra Kumar Khanduja'
tp188
a(S'100000315980027'
S'Sunil Tiwari'
tp189
a(S'100002100331976'
S'Sanjay Channa'
tp190
a(S'100000764867592'
S'Richard Gallacher'
tp191
a(S'1216435107'
S'Rajeev Ranade'
tp192
a(S'100000085840646'
S'Naftal Nsemwa'
tp193
a(S'572647969'
S'Kedia Rajeshkumar'
tp194
a(S'100003172005882'
S'Umesh Chandra Pandey'
tp195
a(S'100000428292907'
S'Shubhi Narendra Singh'
tp196
a(S'721098309'
S'Jo Dempsey'
tp197
a(S'1469757964'
S'Ramesh Veeraraghavan'
tp198
a(S'1488496956'
S'Stoffel Kralle'
tp199
a(S'1417471466'
S'Krishnendra Meena'
tp200
a(S'1005336247'
S'Amitabh Shukla'
tp201
a(S'100001279991070'
S'Bharat Pandya'
tp202
a(S'100000031899095'
S'Jayasankar Neelakantan'
tp203
a(S'573355858'
S'Dinesh Patwari'
tp204
a(S'1203764443'
S'An Ja'
tp205
a(S'1003793720'
S'Paramjeet Singh'
tp206
a(S'1204911357'
S'Vivekanand Reddy'
tp207
a(S'690690489'
S'Kathrin Kaestle'
tp208
a(S'1545382248'
S'Hein Dijksterhuis'
tp209
a(S'100002125183731'
S'Anand Kumar'
tp210
a(S'100000280374252'
S'Anand Upadhyay'
tp211
a(S'1062241364'
S'Anurag Goyal'
tp212
a(S'844052942'
S'Ajit Kumar Jain'
tp213
a(S'1490490599'
S'Rahul Navin'
tp214
a(S'797241958'
S'Sumedha Verma Ojha'
tp215
a(S'100002408178023'
S'Prakash Chandra Jain'
tp216
a(S'100003071612100'
S'D Sonjay Sarwate'
tp217
a(S'1785181319'
S'Pradeep Michael Lal'
tp218
a(S'100006311773086'
S'Ravidatt Kushwah'
tp219
a(S'675001642'
S'Anja Vera'
tp220
a(S'100004500001638'
S'M D Mishra Anand'
tp221
a(S'100001710796142'
S'Mamta Sharma'
tp222
a(S'719077841'
S'Hakan G\\u00fcrsoy'
tp223
a(S'100000509470026'
S'Rajib Hota'
tp224
a(S'1636426881'
S'Sanjeev Valimbe'
tp225
a(S'100000778275790'
S'Cm Maheshwari'
tp226
a(S'100000191276966'
S'Anil Khare'
tp227
a(S'100000652928882'
S'Anurradaa S Goyal'
tp228
a(S'100000865959453'
S'Satish Jain'
tp229
a(S'584318508'
S'Sandeep Chaturvedi'
tp230
a(S'1697689808'
S'Ashok Kumar Khandelwal'
tp231
a(S'100001933886038'
S'Amendra Poras'
tp232
a(S'100002610024253'
S'Narender Chand'
tp233
a(S'100001549926398'
S'Dapindra Singh Chawla'
tp234
a(S'100001308900397'
S'Sandeep Jain'
tp235
a(S'574502956'
S'Samir Tekriwal'
tp236
a(S'100001257168623'
S'Hareshwar Sharma'
tp237
a(S'826084828'
S'Ashima Neb'
tp238
a(S'100002445394252'
S'Jayesh Kumaar Gupta'
tp239
a(S'1521353284'
S'Manoneet Dalal'
tp240
a(S'100004731008583'
S'Shilpi Sharma'
tp241
a(S'779453419'
S'Rashmin Sanghvi'
tp242
a(S'1010480447'
S'Raja Sekhar Reddy'
tp243
a(S'717269784'
S'Rajeev Malhotra'
tp244
a(S'552631905'
S'Rajiv Monga'
tp245
a(S'1018065028'
S'Naveen Chandra'
tp246
a(S'1325319960'
S'Brahma Prakash Gaur'
tp247
a(S'672565461'
S'Arunabh Khatua'
tp248
a(S'724163872'
S'Sanjiv Singh'
tp249
a(S'1035124219'
S'Fred George'
tp250
a(S'1486899920'
S'Amrendra Kumar'
tp251
a(S'564406619'
S'Priyank Sharma'
tp252
a(S'100002447500771'
S'Swati Joshi'
tp253
a(S'100000192455286'
S'Lovish Kumar'
tp254
a(S'1188262451'
S'Sourabh Agrawal'
tp255
a(S'1411667751'
S'Mohamed Nady'
tp256
a(S'1470420576'
S'Raj Kumar'
tp257
a(S'1772561662'
S'Govind Lal'
tp258
a(S'1444084231'
S'Ram Singh'
tp259
a(S'100003956596951'
S'Ruchi Sharma'
tp260
a(S'674872077'
S'Anurag Bajpai'
tp261
a(S'100002979067155'
S'Jami Suresh Kumar'
tp262
a(S'1718605201'
S'Divyanshi Mishra'
tp263
a(S'100002903544532'
S'Rajiv Prakash Saxena'
tp264
a(S'517102085'
S'Antonio Grimaldo Monroy'
tp265
a(S'1582472935'
S'Vatsalya Saxena'
tp266
a(S'1382821865'
S'Kuntal Dave'
tp267
a(S'1587991248'
S'Virendra Ojha'
tp268
a(S'1337089289'
S'Nandakumar Veeramani'
tp269
a(S'1434425645'
S'Kuldeep Mishra'
tp270
a(S'1075103179'
S'Anish Thacker'
tp271
a(S'100001532683918'
S'Madan K Jain'
tp272
a(S'100003365628336'
S'Manoj Patawari'
tp273
a(S'839654303'
S'Poonam Khaira Sidhu'
tp274
a(S'100000479264011'
S'Satinder Rana'
tp275
a(S'568915185'
S'Rainer Hepberger'
tp276
a(S'1134712015'
S'Bernard Damsma'
tp277
a(S'100000107628946'
S'Bhim Singh'
tp278
a(S'1624575361'
S'Gopal Kamal'
tp279
a(S'100000561184612'
S'Romita Arora'
tp280
a(S'253000008'
S'Svenja Flechtner'
tp281
a(S'100006488290351'
S'Sanjay Musalgaonkar'
tp282
a(S'100002064343401'
S'Manju Chowdhury'
tp283
a(S'1284244781'
S'Nsizwa Dlamini'
tp284
a(S'1844480005'
S'Octavio Amador'
tp285
a(S'1012531012'
S'Vesna R. Ah\\u010din'
tp286
a(S'100001837927397'
S'Ajay Kumar Singh'
tp287
a(S'585887557'
S'Michael Koemm'
tp288
a(S'1658842751'
S'Manoj Singhania'
tp289
a(S'1496400927'
S'Shyam Benupani'
tp290
a(S'517511689'
S'Arvind Mishra'
tp291
a(S'100000606164639'
S'Devendra N Sharma'
tp292
a(S'1844194497'
S'Satya Prasant P'
tp293
a(S'100000007034370'
S'Upendra Vasishth Iofs Ndc'
tp294
a(S'100001519544307'
S'Devendra Kapoor'
tp295
a(S'100005246171203'
S'Sudhir Kumar Saxena'
tp296
a(S'100001941860324'
S'Bhaskar Goswami'
tp297
a(S'1548114214'
S'Arvind Kumar Dwivedi'
tp298
a(S'754303554'
S'Shubham Sharma'
tp299
a(S'100002599783985'
S'Anant Jain'
tp300
a(S'1767414678'
S'Sushil Kumar'
tp301
a(S'1205814760'
S'Sanjiv Shankar'
tp302
a(S'706883475'
S'Riaz Thingna'
tp303
a(S'1105334973'
S'Surendra Singh'
tp304
a(S'1222959180'
S'Suresh Yadav'
tp305
a(S'100007920994544'
S'Sanjay Kumar Mishra'
tp306
a(S'100003399317299'
S'Shambhunath Kataruka'
tp307
a(S'100004972231748'
S'Devendra Dandotiya'
tp308
a(S'849635082'
S'Rajul Awasthi'
tp309
a(S'100002412535747'
S'Ashutosh Shrivastava'
tp310
a(S'557842694'
S'Raffaele Rafa Russo'
tp311
a(S'100001367663769'
S'Jerry Zhang'
tp312
a(S'1093791166'
S'Rahmi Yuliastri'
tp313
a(S'1400845361'
S'Neeraj Sachan'
tp314
a(S'1484520200'
S'Sunil Chander Sharma'
tp315
a(S'1052958592'
S'Adarsh Modi'
tp316
a(S'100003803764428'
S'Rakesh Goyal'
tp317
a(S'100001722238483'
S'Pratima Sharma'
tp318
a(S'100000354452975'
S'Olga Foltyn'
tp319
a(S'773174354'
S'Jagmohan Gupta'
tp320
a(S'100000468823739'
S'BV Gopinath'
tp321
a(S'100001508408643'
S'Sudhir Chaturvedi'
tp322
a(S'778589573'
S'Kanu Verma Kumar'
tp323
a(S'1291851729'
S'Henal Kakkad'
tp324
a(S'100002773214265'
S'Vimal Kumar Gupta'
tp325
a(S'1470984793'
S'Devi Sharan Singh'
tp326
a(S'100001179548600'
S'Sumant Jha Sumant'
tp327
a(S'100002116154677'
S'Sujit Kumar'
tp328
a(S'100000049150078'
S'Rajkumar Gupta'
tp329
a(S'100002663590003'
S'Sanat Jain'
tp330
a(S'1281622114'
S'Santosh Kumar'
tp331
a(S'100000641654302'
S'Vijay Gupta'
tp332
a(S'742683814'
S'Samir Gandhi'
tp333
a(S'100000172419470'
S'Harish Bisht'
tp334
a(S'100001648200454'
S'Devansh Mishra'
tp335
a(S'100002891269746'
S'Mahesh Sharma'
tp336
a(S'100006999545515'
S'Kanojia Anil'
tp337
a(S'542883036'
S'Sandra Huber'
tp338
a(S'1029035216'
S'Shailendra Handa'
tp339
a(S'100000513844668'
S'Atul Khare'
tp340
a(S'100001335320737'
S'Lalit Pandey'
tp341
a(S'1698174809'
S'Avinash Mishra'
tp342
a(S'631959133'
S'Reshma Lakhani'
tp343
a(S'100002967249106'
S'Avvari Sreenivasa Rao'
tp344
a(S'1599631281'
S'Shyamsundar Keshkamat'
tp345
a(S'832524370'
S'Sangeeta Goel'
tp346
a(S'100000073848107'
S'Vinod Tripathi'
tp347
a(S'587017768'
S'Sanjeev Jain'
tp348
a(S'590249185'
S'Vikram Batra'
tp349
a(S'100001128999127'
S'Pradeep Agrawal'
tp350
a(S'1685323455'
S'Yamanapalli Sreenivasulu'
tp351
a(S'100002658338529'
S'Shiva Sunit Sharma'
tp352
a(S'1428332344'
S'Laxmi Narayan Pant'
tp353
a(S'681909898'
S'Roopam Kapoor'
tp354
a(S'1632931953'
S'Mudit Nagpal'
tp355
a(S'100000022598374'
S'Ali Akbar'
tp356
a(S'1501818926'
S'Bharat Bandhu'
tp357
a(S'506507544'
S'Katharina Knappe'
tp358
a(S'1587016216'
S'Gargi Kaushik'
tp359
a(S'100002513415036'
S'Munnasingh Tomar'
tp360
a(S'1415598660'
S'Sunil Ojha'
tp361
a(S'100000526418044'
S'Girraj Goyal'
tp362
a(S'753617338'
S'Alejandra Carmona'
tp363
a(S'1345662977'
S'Ananth Rupanagudi'
tp364
a(S'1424920022'
S'Sudesh Garg'
tp365
a(S'100001238804568'
S'Medisetti Tirumala Kumar'
tp366
a(S'100000966276746'
S'Rudinei Toneto Junior'
tp367
a(S'1478741085'
S'Michael Landesmann'
tp368
a(S'664489993'
S'Shishir Agarwal'
tp369
a(S'100002242343422'
S'Vijay Kumar Gupta'
tp370
a(S'100002967611684'
S'Brijesh Gupta'
tp371
a(S'100001328838562'
S'Rakesh Bhadoria'
tp372
a(S'1140524850'
S'Sanjeev Singh'
tp373
a(S'100002954934118'
S'Mayank Agrawal'
tp374
a(S'100000150831103'
S'Ritesh Parmar'
tp375
a(S'100001150836375'
S'Sandeep Puri'
tp376
a(S'100000141114586'
S'Rakesh Alshi'
tp377
a(S'100002990439571'
S'Vishram Sharma'
tp378
a(S'100004555028305'
S'Dinesh Agrawal'
tp379
a(S'1155789927'
S'Bhanavi Sharma'
tp380
a(S'1052821370'
S'Ajay Kumar'
tp381
a(S'100003755371882'
S'Deepak Rastogi'
tp382
a(S'1548605393'
S'Satish Sharma'
tp383
a(S'100000701560736'
S'Amitabh Khare'
tp384
a(S'100000199263836'
S'Ravindra Bangar'
tp385
a(S'1318214834'
S'Franco Falzon'
tp386
a(S'100000214736820'
S'Subhash Nagpal'
tp387
a(S'1683665350'
S'Bhuvnesh Kulshrestha'
tp388
a(S'738245834'
S'Abhay Damle'
tp389
a(S'100000035345552'
S'Bhanavi Sharma'
tp390
a(S'100002992618588'
S'Girish Verma'
tp391
a(S'1403033056'
S'Narayan Prasad Bhagat'
tp392
a(S'1014527879'
S'Anadee Nath Misshra'
tp393
a(S'1730270635'
S'Deepak Sharma'
tp394
a(S'1805816120'
S'Rajiv Agarwal'
tp395
a(S'100001890872046'
S'Pomela Prasad'
tp396
a(S'100000188065291'
S'Dinesh D K Sharma'
tp397
a(S'731057544'
S'Nivedita Biswas'
tp398
a(S'100000497619912'
S'Atul Gupta'
tp399
a(S'100000597515082'
S'Mrinal Anil Jangley'
tp400
a(S'100007251662419'
S'Srinivas Danda'
tp401
a(S'100001467654936'
S'Vipin Aggarwal'
tp402
a(S'1609927202'
S'Sanjay Puri'
tp403
a(S'100000504969457'
S'Anoop Shrivastava'
tp404
a(S'751948236'
S'Sunil Gupta'
tp405
a(S'1142494637'
S'Padmakshan Mundachalil'
tp406
a(S'100001959628836'
S'Alpana Saksena'
tp407
a(S'1451963160'
S'Jagdeep Goel'
tp408
a(S'100000063640240'
S'Sudhindra Kumar Jain'
tp409
a(S'1730536029'
S'Sunil Maheshwari'
tp410
a(S'100000648995536'
S'Rajinder Sondh'
tp411
a(S'823488501'
S'Sobhan Kar'
tp412
a(S'1742911317'
S'Elamurugu Govindarajan'
tp413
a(S'100002143757740'
S'Ramesh Danday'
tp414
a(S'100000181677308'
S'Ajab Singh'
tp415
a(S'669042657'
S'Sanjay Kumar'
tp416
a(S'100000035288462'
S'Himanshu Shekhar Sinha'
tp417
a(S'1700089266'
S'Manoj Kumar'
tp418
a(S'100000619491617'
S'Milind Bhusari'
tp419
a(S'100003282009642'
S'Bala Subramanian'
tp420
a(S'100008085484485'
S'Rekha Sharma'
tp421
a(S'1226064696'
S'Esthy Putri Muryanti'
tp422
a(S'1199750818'
S'Leonardo Silaban'
tp423
a(S'669938260'
S'Bhooma Veeravalli'
tp424
a(S'1573729708'
S'Chittaranjan Dash'
tp425
a(S'1139807176'
S'Manish Sareen'
tp426
a(S'1368681930'
S'Rajiv Kumar Misra'
tp427
a(S'626755720'
S'Lea Zeppenfeld'
tp428
a(S'1818756885'
S'Karunakara Rao Dasari'
tp429
a(S'100006885430533'
S'Rajendra Dixit'
tp430
a(S'1696466548'
S'Vilas Shardul'
tp431
a(S'664770807'
S'Nawosah Rajeev'
tp432
a(S'1751390301'
S'Deepali Chandra'
tp433
a(S'751636725'
S'Vinod Pn'
tp434
a(S'1789895039'
S'Milap Jain'
tp435
a(S'522382697'
S'Susmita Srivastava'
tp436
a(S'1057239845'
S'Sanjay Kumar'
tp437
a(S'1715040585'
S'K Syama Prasad'
tp438
a(S'1717361512'
S'Purushottam Tripuri'
tp439
a(S'720015586'
S'Ingo Tessmer'
tp440
a(S'100001626874587'
S'Rama Das'
tp441
a(S'634182299'
S'K\\u00e4rt Kelder'
tp442
a(S'100001376847169'
S'Rakesh Chauhan'
tp443
a(S'1652151714'
S'Kishore Saxena'
tp444
a(S'100006879691039'
S'Akhilesh Kumar Gaur'
tp445
a(S'551670765'
S'Esra K\\u00fcc\\u00fck'
tp446
a(S'1214349165'
S'Prateek Somawanshi'
tp447
a(S'100004034085857'
S'Usha Sharma'
tp448
a(S'100000664440798'
S'Chandramohan Singh Rawat'
tp449
a(S'641443081'
S'Sashi Tulsiyan'
tp450
a(S'1732459828'
S'Malathi R. Sridharan'
tp451
a(S'100000039872124'
S'Shantam Bose'
tp452
a(S'788704707'
S'Gre Gor'
tp453
a(S'1725917829'
S'Manoranjan Panigrahy'
tp454
a(S'903640227'
S'Nesreen Neso'
tp455
a(S'100000001180862'
S'Vikram Sankhala'
tp456
a(S'100004482074335'
S'Ritoo Sharma'
tp457
a(S'100001852731672'
S'Manas Mondal'
tp458
a(S'729990414'
S'Sk Singh'
tp459
a(S'1033098215'
S'Alok Ojha'
tp460
a(S'1436661416'
S'Ashok K Pandey'
tp461
a(S'833104423'
S'Shishir Jha'
tp462
a(S'100002134108607'
S'Yogendra Kumar Singh'
tp463
a(S'100003724397902'
S'Satyam Kumar Mishra'
tp464
a(S'100000380046532'
S'Anil Dwivedi'
tp465
a(S'537129008'
S'Brajindar Mohan Singh'
tp466
a(S'789468621'
S'Arun S Bhatnagar'
tp467
a(S'100001093978037'
S'Mitsdelhi Delhi'
tp468
a(S'714943879'
S'Ajay Srivastava'
tp469
a(S'100000073371453'
S'Sanjay Sanghvi'
tp470
a(S'746746857'
S'Kesang Yangzom Sherpa'
tp471
a(S'1196840293'
S'Ajay Mitkar'
tp472
a(S'100001216211173'
S'Anil Kumar'
tp473
a(S'1082145714'
S'Shantanu Ghosh'
tp474
a(S'100002840383583'
S'Kaushal Sharma'
tp475
a(S'100000012660872'
S'Srinivasulu Hanumanthgari'
tp476
a(S'100000109224139'
S'Ulhas Trimal'
tp477
a(S'782648995'
S'Ravi Agrawal'
tp478
a(S'644049682'
S'Virendra Singh'
tp479
a(S'100002880583574'
S'Anil Saxena'
tp480
a(S'1844281226'
S'Kashyap Shah'
tp481
a(S'100000189343290'
S'Anil Talreja'
tp482
a(S'1649992059'
S'Sanjeev Kalra'
tp483
a(S'745125436'
S'Katlego Moilwa'
tp484
a(S'100006754038540'
S'Rajesh Kumar Gupta'
tp485
a(S'100003478226246'
S'Ally Mohamedy'
tp486
a(S'1004011442'
S'Shivani Singh'
tp487
a(S'610415044'
S'PK Sinha'
tp488
a(S'577444397'
S'Ashok Goyal'
tp489
a(S'1287318712'
S'Naresh Balodia'
tp490
a(S'1029713428'
S'Sandip Garg'
tp491
a(S'1353224251'
S'Sumit Bhardwaj'
tp492
a(S'1730477517'
S'Sanjay Kumar'
tp493
a(S'100000555701210'
S'Narsimha Charya'
tp494
a(S'555812484'
S'Sanjay Bahadur'
tp495
a(S'1112834612'
S'Rabi Narayan Dash'
tp496
a(S'100003823499085'
S'Rakesh Bhaskar'
tp497
a(S'100002470412352'
S'Mahima Sharma'
tp498
a(S'1239647144'
S'Dhirendra Rana'
tp499
a(S'100001753234280'
S'Om Agarwal'
tp500
a(S'1342807662'
S'Ashok Kumar Gupta'
tp501
a(S'100000241477250'
S'Danish Kohli'
tp502
a(S'100000698052295'
S'Vaddadi Appala Raju'
tp503
a(S'1057808456'
S'Ramesh Narain Parbat'
tp504
a(S'100000465003055'
S'Aman Preet Passy'
tp505
a(S'100000538775462'
S'Manvendra Goyal'
tp506
a(S'100002706333581'
S'Arvind Tiwari'
tp507
a(S'100002996716533'
S'Mohd Imtiyaz Qureshi'
tp508
a(S'100001301695605'
S'Daphney Gomez'
tp509
a(S'604641205'
S'Mitil Chokshi'
tp510
a(S'100003579384252'
S'Rajendra Kumar Shrivastava'
tp511
a(S'1604244730'
S'Nirmalya Choudhury'
tp512
a(S'100000243015667'
S'Anita Sharma'
tp513
a(S'756185872'
S'Varun Khurana'
tp514
a(S'584968767'
S'Max Muensterteicher'
tp515
a(S'100000129734016'
S'Royal Blue'
tp516
a(S'1207083488'
S'Nawal K Srivastava'
tp517
a(S'100000175766149'
S'Anna Niesing'
tp518
a(S'100002838767294'
S'Pradeep Kumar Bhagwani'
tp519
a(S'672708161'
S'Salil Dave'
tp520
a(S'1476220701'
S'Boris Gnoth'
tp521
a(S'1808361050'
S'Monroe Olsen'
tp522
a(S'100000731025624'
S'Yagyesh Raghuvanshi'
tp523
a(S'1496460610'
S'Ashok K Manchanda'
tp524
a(S'1066806180'
S'Amit Mohan Govil'
tp525
a(S'100000792074884'
S'Sudeep Vyas'
tp526
a(S'581201525'
S'Robert Desax'
tp527
a(S'1326600297'
S'Prakash Chandra'
tp528
a(S'100001541662144'
S'Arjun Singh Tomar'
tp529
a(S'100002589146080'
S'Om Hari Sharma'
tp530
a(S'1432717585'
S'Chandra Mohan Maheshwari'
tp531
a(S'100002109356281'
S'Rohit Raman'
tp532
a(S'100001130414357'
S'Swatantra Kumar'
tp533
a(S'564520522'
S'Ankita Srivastava'
tp534
a(S'1357338127'
S'Venkateshwar Rao'
tp535
a(S'100000686963927'
S'Mahendra Singh Dandotia'
tp536
a(S'100000450150558'
S'Kj Singh'
tp537
a(S'669030087'
S'Eric Mehta'
tp538
a(S'1455229897'
S'Sunil Kumar Singh'
tp539
a(S'100001356858660'
S'Pramod Upmanyu'
tp540
a(S'100005210773103'
S'Devadasan Pn'
tp541
a(S'540830405'
S"Amy O'Donnell Roberti"
tp542
a(S'550804180'
S'Mukul Jain'
tp543
a(S'100000161349333'
S'Mukesh Verma'
tp544
a(S'1072331042'
S'Vijay Kumar'
tp545
a(S'100000350971475'
S'Kaushal S Kushwah'
tp546
a(S'100001707596233'
S'Shivmurti Vishwakarma'
tp547
a(S'100000128142406'
S'Jayant Kumar'
tp548
a(S'557115826'
S'Raghavendra Sharma'
tp549
a(S'1271913489'
S'Katharina Landesmann'
tp550
a(S'100002867506804'
S'Shomita Biswas'
tp551
a(S'100001575733195'
S'Prem Prakash Arora'
tp552
a(S'1609951241'
S'Vidhu Shekher Singh'
tp553
a(S'100000330572316'
S'Yadappa Kori'
tp554
a(S'100005132075956'
S'Santanu Saikia'
tp555
a(S'749133437'
S'Yogesh Verma'
tp556
a(S'1261705541'
S'Sabihur Rahman'
tp557
a(S'1684311967'
S'Ravindra Verma'
tp558
a(S'100004083229519'
S'Vinod Wahi'
tp559
a(S'100004941549344'
S'Anil Tyagi'
tp560
a(S'100000012420899'
S'A Sreenivasa Rao'
tp561
a(S'100001043915438'
S'Jyoti Kumari'
tp562
a(S'100001765506225'
S'Pankaj Adhwaryu'
tp563
a(S'1438047944'
S'Amrish Bedi'
tp564
a(S'100000838547680'
S'Pradeep Nayak'
tp565
a(S'100000356774927'
S'Subhas Mishra'
tp566
a(S'1079453739'
S'Karun K Ojha'
tp567
a(S'100000316006534'
S'Yogesh Verma'
tp568
a(S'100008058609767'
S'Sp Singh'
tp569
a(S'100001137692988'
S'Anil Tyagi'
tp570
a(S'100000583186193'
S'Rituraj Kaushik'
tp571
a(S'574248029'
S'Bababaidyanath Mishra'
tp572
a(S'707279394'
S'Mahua Sarkar'
tp573
a(S'100002020612984'
S'Chandraprakash Saroj'
tp574
a(S'1721614661'
S'Chandra Prakash'
tp575
a(S'100003625876964'
S'Benu Pani'
tp576
a(S'534107892'
S'Amrapalli Das'
tp577
a(S'100001552300361'
S'Suresh Singh Kushwah'
tp578
a(S'1668777333'
S'Sangam Srivastava'
tp579
a(S'1255907636'
S'Regine Mehl'
tp580
a(S'1711076561'
S'Sanjay Punglia'
tp581
a(S'1340474143'
S'Prasad Reddy'
tp582
a(S'633209247'
S'Vineet Agrawal'
tp583
a(S'100001484205123'
S'Rajesh Ranjan Prasad'
tp584
a(S'1567385476'
S'Yagya Dutt Sharma'
tp585
a(S'100001956117610'
S'Subhakant Sahu'
tp586
a(S'1710761905'
S'Ashok Kumar Tripathi'
tp587
a(S'607370474'
S'Frederike Hassels'
tp588
a(S'100000328975078'
S'LK Agarwal'
tp589
a(S'1360100614'
S'Nav Ratan Soni'
tp590
a(S'100004595641605'
S'Pradeep Ashtputre'
tp591
a(S'100004372327266'
S'Sanjeev Bhatia Rattan'
tp592
a(S'100000054951559'
S'Arvind Sharma'
tp593
a(S'543760762'
S'Anand Kumar Kedia'
tp594
a(S'625135916'
S'Girish N Pande'
tp595
a(S'100004234239253'
S'Kamlesh Chandra Varshney'
tp596
a(S'100000408949872'
S'Rakesh Nangia'
tp597
a(S'100005256547695'
S'Krishna B Shukla'
tp598
a(S'503954457'
S'Fran Troeger'
tp599
a(S'100001146215940'
S'Navin Jain'
tp600
a(S'100002192770829'
S'Satoshi Ohuchi'
tp601
a(S'100001090850212'
S'Sunit Sharma'
tp602
a(S'1653537392'
S'Navneet Goel'
tp603
a(S'100006868353807'
S'Ramesh Khaitan'
tp604
a(S'100003523707425'
S'Rahul Khare'
tp605
a(S'100001356223146'
S'Rajeev Soham'
tp606
a(S'1230185483'
S'Mohamed Mohsen'
tp607
a(S'100000971073220'
S'Sushil Sharma'
tp608
a(S'100003463179349'
S'Pradip Sharma'
tp609
a(S'100000216930960'
S'Rupinder Pannu Brar'
tp610
a(S'585330679'
S'Ahmad Ismail'
tp611
a(S'100000026070228'
S'Vivek Mishra'
tp612
a(S'100000172030402'
S'Vivek Sharma'
tp613
a(S'686828266'
S'Tarun Seem'
tp614
a(S'1597324840'
S'Emily Ronteltap'
tp615
a(S'537755790'
S'Carolin Bender'
tp616
a(S'1649589649'
S'Mithileshwar Thakur'
tp617
a(S'557919759'
S'Rakesh Bhaskar'
tp618
a(S'100000520821721'
S'Kopparla Narayana Murthy'
tp619
a(S'100000473114927'
S'Pandian Irs'
tp620
a(S'685272523'
S'Franz Koppensteiner'
tp621
a(S'1807491195'
S'Nageshwar Rao'
tp622
a(S'1427071599'
S'Ashok Bal'
tp623
a(S'100001778524857'
S'Vivek Vajpayee'
tp624
a(S'1062541387'
S'Rajgopal Sharma'
tp625
a(S'734052683'
S'Rajeev Mehta'
tp626
a(S'100000092053598'
S'Malvika Bar'
tp627
asS'id'
p628
S'1497690573'
p629
s.