(dp1
S'friends'
p2
(lp3
(S'77803098'
S'Bill Weber'
tp4
a(S'94200696'
p5
S'Barry Anoia'
tp6
a(S'518547854'
S'Oscar Casillas Bl\\u00e1zquez'
tp7
a(S'512240984'
S'Kirt Barnett'
tp8
a(S'535316333'
S'Drake Tsui'
tp9
a(S'535941427'
S'Wesley Philip Lantz'
tp10
a(S'531962216'
p11
S"'Carsten Meow"
tp12
a(S'537403134'
S'Jonan Wong'
tp13
a(S'63603118'
S'Michelle Bilotta'
tp14
a(S'5512371'
S'Michael Lutin'
tp15
a(S'31100762'
S'Nathan John'
tp16
a(S'220302489'
S'Sean H'
tp17
a(S'12619225'
S'Jor Jan'
tp18
a(S'538246769'
S'Jamie Stevens'
tp19
a(S'515224189'
p20
S'Chris Hipson'
tp21
a(S'1264708135'
p22
S'Saiket Talukdar'
tp23
a(S'507903549'
S'Stuart Johnson'
tp24
a(S'432645'
S'Bryce Yahata'
tp25
a(S'516718411'
S'Missy Mellott'
tp26
a(S'542545047'
S'Herbert Bilberry Jr.'
tp27
a(S'506838081'
p28
S'Tim Tyrant Cox'
tp29
a(S'518503862'
S'Shelly Davis'
tp30
a(S'528641897'
S'Marc Levenson'
tp31
a(S'502061910'
p32
S'Frank Willey'
tp33
a(S'13722575'
S'Dan Janik'
tp34
a(S'504725342'
S'Diz Mantle'
tp35
a(S'14211406'
S'Alan Tresnicky'
tp36
a(S'508203103'
S'Matthew McEvoy'
tp37
a(S'508888665'
S'James Whitney'
tp38
a(S'97000202'
p39
S'William Cheok'
tp40
a(S'512865848'
S'Shaun Currie'
tp41
a(S'515024409'
S'Jessica Kelley'
tp42
a(S'542753431'
S'Benoit Galarneau'
tp43
a(S'513183743'
S'Ross Walker'
tp44
a(S'502588122'
S'Michael Albanese'
tp45
a(S'509139551'
p46
S'Dexter Fraser'
tp47
a(S'501657118'
p48
S'Anthony Bartholomew'
tp49
a(S'509797454'
p50
S"'Travis S. Farmer"
tp51
a(S'525890040'
S'Isaac Kumia'
tp52
a(S'519795844'
p53
S'Henry Wentzel'
tp54
a(S'528785135'
S'Chris Bugbee'
tp55
a(S'515458121'
p56
S'Marcus Pegues'
tp57
a(S'535172641'
S'Fran Evans Miller'
tp58
a(S'515151183'
S'James Phillips'
tp59
a(S'507633987'
S'Cory James Dugger'
tp60
a(S'502102898'
S'Chris Walters'
tp61
a(S'17126504'
S'Bam Obob'
tp62
a(S'7101656'
S'Harry Nagendra'
tp63
a(S'513010869'
S'Willie Lee Rivers Jr.'
tp64
a(S'501381796'
S'Christopher J Dorrough'
tp65
a(S'540066983'
S'Rick Mellenberger'
tp66
a(S'11807342'
S'Blake Bowen'
tp67
a(S'515560887'
S'Ace Nocturnal'
tp68
a(S'530999098'
S'Andrew R Cook Sr'
tp69
a(S'535319460'
S'Teron Rochester'
tp70
a(S'17212777'
S'Joey Suvy'
tp71
a(S'542319413'
S'Melanie Blagg'
tp72
a(S'529799957'
S'Conrad Lavelle Mezick'
tp73
a(S'501972587'
S'Corey Kelly'
tp74
a(S'5738026'
S'Juliette Ebner'
tp75
a(S'502715347'
S'Chris Kratos Izumi'
tp76
a(S'157701610'
S'Emanuel Webb'
tp77
a(S'505876715'
S'Tezz Owens'
tp78
a(S'50303008'
S'Dezzy Ray Dunn'
tp79
a(S'515746230'
p80
S'James Arnold'
tp81
a(S'511258198'
p82
S'Briana Elliott'
tp83
a(S'533045984'
S'Ender Nova'
tp84
a(S'11805423'
S'Andre K Hargrove'
tp85
a(S'539107634'
S'Rodney Shc Fung'
tp86
a(S'541961027'
S'Bryan Robbins'
tp87
a(S'504412214'
S'Charles Phillips'
tp88
a(S'24702940'
S'Kelvin K-Love Britt'
tp89
a(S'513769335'
S'Robert J C.'
tp90
a(S'504579679'
S'Mel Lafferty'
tp91
a(S'45505722'
p92
S'Katie Mn'
tp93
a(S'508914577'
S'Ben Common'
tp94
a(S'529385714'
p95
S'Jeremy Bliesener'
tp96
a(S'507635485'
p97
S'Scotty Kiech'
tp98
a(S'504935533'
S'Anthony Ray Sewell'
tp99
a(S'515095075'
S'Travis Crawford'
tp100
a(S'518624991'
p101
S'Emmanuel Jermaine Shepard'
tp102
a(S'77802556'
S'Brian Miller'
tp103
a(S'505668704'
p104
S'Daniel Kelly'
tp105
a(S'531214192'
S'Tony McFarland'
tp106
a(S'55402876'
S'Ethan Parsons'
tp107
a(S'13706426'
S'Richard Land'
tp108
a(S'523702130'
S'Eric William Novinson'
tp109
a(S'298900031'
p110
S'Lindsey Napier Jr.'
tp111
a(S'505359860'
p112
S'Kevin A. Rausch'
tp113
a(S'514223401'
p114
S'Kerri Anderson'
tp115
a(S'23306399'
p116
S'Jimmy Brooks'
tp117
a(S'517919232'
p118
S'Cheryl Seasons Heart'
tp119
a(S'502293699'
p120
S'Brad Benjamin'
tp121
a(S'501812518'
S'Wade Daul'
tp122
a(S'543055078'
S'Haidar Omar'
tp123
a(S'514022485'
S'Joel Giroux'
tp124
a(S'513871037'
p125
S'Wilson Jonathan'
tp126
a(S'528847733'
p127
S'Philip Michaud'
tp128
a(S'48703677'
S'Luke Greenleaf'
tp129
a(S'78804117'
p130
S'Todd Frobish'
tp131
asS'id'
p132
S'1518606905'
p133
sS'name'
p134
S"'Jenna Lyn Sinclair"
p135
s.