(dp1
S'friends'
p2
(lp3
(S'643812766'
S'Koichi Osamura'
tp4
a(S'790524443'
S'Sherry Souktia'
tp5
a(S'557905418'
p6
S'Chhayankdhar Singh Rathore'
tp7
a(S'588890506'
S'Larys Morissette'
tp8
a(S'506598567'
S'Z\\u00fcleyka Cherry'
tp9
a(S'100000464209457'
S'Eduardo Sugimoto'
tp10
a(S'100000616485095'
S'PJ Paulo Prado'
tp11
a(S'100001479577049'
S'Juu Marques'
tp12
a(S'558311137'
S'Yasmin Tassoulas'
tp13
a(S'1310284324'
S'\\u9f8d\\u4e4b\\u4ecb \\u30ae\\u30fc\\u30c9'
tp14
a(S'100001970473569'
S'Alan Rocha'
tp15
a(S'100002163483433'
S'Job Fel\\u00edcio Borba'
tp16
a(S'1588982858'
S'Jade Morgado'
tp17
a(S'1515535398'
S'Samuel Giacomazzi'
tp18
a(S'100001606044168'
S'Edn\\u00e9ia Ferreira'
tp19
a(S'547328601'
S'Ana Clara Hanae'
tp20
a(S'1127798800'
S'Kak\\u00e1 Souza'
tp21
a(S'100000160619456'
S'Sonia Maiumi Kubo'
tp22
a(S'1573471390'
S'Yukari Shibuya'
tp23
a(S'100000352156317'
S'Alessandra Asato'
tp24
a(S'100005170235524'
S'\\u7530\\u4e2d\\u6e29\\u5b50'
tp25
a(S'100000299376654'
S'Mijoo Kim'
tp26
a(S'100004526774637'
S'Yamashina Camila Mami'
tp27
a(S'100000099015496'
S'Lucas Kato'
tp28
a(S'100001968685659'
S'Camila Vilela Hatanaka'
tp29
a(S'742577109'
S'Xinbei Yap'
tp30
a(S'100000341259375'
S'Douglas Picelli'
tp31
a(S'100001223769131'
S'Vivian Medina'
tp32
a(S'100000698512693'
S'Louise Marsura'
tp33
a(S'100000395137428'
S'Beatriz Lacerda'
tp34
a(S'100001527167694'
p35
S'Denna Takashia'
tp36
a(S'1557672209'
S'Michelle Miyu So'
tp37
a(S'100003494877145'
p38
S'Yuuki Sean Kubota'
tp39
a(S'100006178295076'
S'Koichi Tsuchida'
tp40
a(S'673626832'
S'Thiago Ferreira'
tp41
a(S'1103946734'
S'Diana Maia'
tp42
a(S'100002565352964'
S'Ray Cacah Miguel'
tp43
a(S'1769935226'
S'Ananda Cassie'
tp44
a(S'1828160119'
S'Nick Peck'
tp45
a(S'100004920943941'
S'J\\u00e9ssica Mira'
tp46
a(S'100002625914587'
S'Ayane  Araki'
tp47
a(S'100003078177049'
S'\\uc774\\uc0c1\\uc544'
tp48
a(S'100001748999249'
S'Bruna Viana'
tp49
a(S'657171708'
S'Marilia Gabriela'
tp50
a(S'100000683649286'
S'Fangyu Cai'
tp51
a(S'100000362543540'
S'Lihao Chen'
tp52
a(S'100003351667779'
S'Jo\\u00e3o Barbosa'
tp53
a(S'100006061475515'
S'\\u9ad8\\u826f \\u30a2\\u30ad\\u30f3'
tp54
a(S'1004095213'
S'Victor Haynes'
tp55
a(S'100003288596728'
S'Jose Rocha'
tp56
a(S'1485090067'
S'Nadav Eliyahu Karon'
tp57
a(S'623726710'
p58
S'Sanya Rajpal'
tp59
a(S'100000228313222'
S'Man-Hsuan Lo'
tp60
a(S'100002692530680'
p61
S'Swati Raj'
tp62
a(S'100000916870878'
S'Giselle Romanoff Pessoa'
tp63
a(S'100003335155168'
S'Samirahtkr Freitas'
tp64
a(S'1342990273'
S'Ana Ricci'
tp65
a(S'1636864564'
S'Giballin Gilberto'
tp66
a(S'100000153875681'
S'\\u9023\\u570b\\u9f0e'
tp67
a(S'100000397445856'
p68
S'Natsumi Nakazawa'
tp69
a(S'100000517216573'
S'Paola Bellucci Ortolan'
tp70
a(S'100000408758479'
S'Danyllo Ferreira'
tp71
a(S'1677822896'
S'Eder Kambara'
tp72
a(S'677694138'
S'James Cimino'
tp73
a(S'663754749'
p74
S'Daiki Ideta'
tp75
a(S'100000388283899'
S'Leandro Barroso'
tp76
a(S'761698913'
p77
S'Ifty Har-gil'
tp78
a(S'1048231960'
p79
S'Lawrence Tsao'
tp80
a(S'100001840215575'
S'Juan Reis Lopes'
tp81
a(S'100002156400086'
S'Leticya Sim\\u00f5es'
tp82
a(S'100000594820591'
S'Bruno Vaz'
tp83
a(S'100005521423716'
S'\\u4eca\\u897f\\u82f1\\u96c4'
tp84
a(S'100004468593750'
S'Natali Pupim'
tp85
a(S'100004480719625'
p86
S'Patricia Mace'
tp87
a(S'100000270591296'
S"Hellige Sant'Anna"
tp88
a(S'100003371588164'
S'\\ubbfc\\uc9c0\\uc560'
tp89
a(S'100001648307523'
S'\\u305f\\u304b\\u3089 \\u306f\\u3044\\u3055'
tp90
a(S'100001835030821'
S'Silvia Lima'
tp91
a(S'100001401613380'
S'Priscila Nakayama'
tp92
a(S'1790031628'
p93
S'Frances Collins'
tp94
a(S'100002513432793'
p95
S'Katherine  Reysner'
tp96
a(S'843225433'
S'Kazuyo Hashimoto'
tp97
a(S'514570993'
p98
S'Tushita Arora'
tp99
a(S'100000513133644'
S'Tom Kawakami'
tp100
a(S'100001402066562'
S'Pati Hondinha'
tp101
a(S'100001427655490'
S'Beto de Jesus'
tp102
a(S'100000586575721'
S'Leonor Vale'
tp103
a(S'1070705802'
p104
S'Rene Estrada Espinoza'
tp105
a(S'1025597963'
S'Luna Ester'
tp106
a(S'100002711689001'
S'Cia Revolucionaria Triangulo Rosa'
tp107
a(S'1835336416'
S'Carolina Mello'
tp108
a(S'100005044920315'
S'Dorfa Lima'
tp109
a(S'100003666840653'
p110
S'Masahiro Nishimura'
tp111
a(S'583664080'
S'Junior Hideo Menezes'
tp112
a(S'100002162540661'
S'Lucas Koiti Shiozawa'
tp113
a(S'100000123277146'
S"Honey Sant'Anna"
tp114
a(S'1294180265'
S'Marquinhos Bueno'
tp115
a(S'100000647288296'
S'Brendon Kelly'
tp116
a(S'1158472913'
S'Tania Th\\u00e9odorou'
tp117
a(S'701606350'
p118
S'Ashima Mehra'
tp119
asS'id'
p120
S'1527561547'
p121
sS'name'
p122
S'Ian Nick'
p123
s.