(dp1
S'current_text'
p2
VChandigarh, India\u000aCurrent City
p3
sS'name'
p4
S'Rakesh Verma'
p5
sS'current_class'
p6
S'india'
p7
sS'friends'
p8
(lp9
(S'100006165581803'
S'Raju Singh'
tp10
a(S'1527878489'
S'Rakesh Verma'
tp11
a(S'100001499086229'
S'Gaurav Verma'
tp12
a(S'100008307285739'
S'Aryan Aryan'
tp13
a(S'100006224731150'
S'Yash Pal'
tp14
a(S'100004646894388'
S'Sunny Rawat'
tp15
a(S'1133360534'
S'Suresh Kumar'
tp16
a(S'100004033138121'
S'Sukhwinder Singh'
tp17
a(S'100006222102748'
S'Raju Singh'
tp18
a(S'100008183916227'
S'Venkata Swamy Sura'
tp19
asS'id'
p20
S'1527878489'
p21
sS'current_link'
p22
Vhttps://www.facebook.com/l.php?u=https%3A%2F%2Fwww.bing.com%2Fmaps%2Fdefault.aspx%3Fv%3D2%26pc%3DFACEBK%26mid%3D8100%26where1%3D30.737200794688%252C%2B76.786193847656%26name%3DChandigarh%252C%2BIndia%26mkt%3Den-IN&h=DAQGD8sWl&s=1
p23
s.