(dp1
S'friends'
p2
(lp3
(S'690651101'
S'Sandeep Nanduri'
tp4
a(S'100001167068627'
S'Yogender Chaudhry'
tp5
a(S'693670801'
S'Devi Gopinath'
tp6
a(S'1029713428'
S'Sandip Garg'
tp7
a(S'1258968343'
S'Jaya Kamana'
tp8
a(S'100002439205953'
S'Dinesh Jain'
tp9
a(S'598411161'
S'Josephine Suji Elamurugu'
tp10
a(S'100001960843317'
S'Rekha Sharma'
tp11
a(S'100000465080545'
S'Praveen Kumar'
tp12
a(S'100001638522312'
S'Priyanka Yadav'
tp13
a(S'100001351577425'
S'Ashok Vardhan'
tp14
a(S'685714165'
S'Mayank Pandey'
tp15
a(S'834637519'
S'Hari Rao'
tp16
a(S'1412508321'
S'Ketan Jain'
tp17
a(S'100003148372148'
S'Sasi Kala'
tp18
a(S'100002920572909'
S'Sridhar Chiruvolu'
tp19
a(S'1433601619'
S'Deepthi Bollineni'
tp20
a(S'1847119897'
S'Swapna Gaddipati'
tp21
a(S'100000430854063'
S'Radhikeswari Mangam'
tp22
a(S'832668944'
S'Bhaskara Puranam'
tp23
a(S'100000566414066'
S'Madhu Reddy'
tp24
a(S'100002007568882'
S'Amshu Abhyuday'
tp25
a(S'1315253573'
S'Pamula S Venkata'
tp26
a(S'1274108619'
S'Meher Lakshmi Konatam'
tp27
a(S'1253242351'
S'Sirisha Kusuma B'
tp28
a(S'1608807193'
S'Aaki Singh'
tp29
a(S'100002408820335'
S'Gaurav Sharma'
tp30
a(S'1014691770'
S'Rajeswari Roshan'
tp31
a(S'744408747'
S'Manu J. Vettickan'
tp32
a(S'812633966'
S'Sunil Ranote'
tp33
a(S'100001629674819'
S'Appalaraju Sanaboyina'
tp34
a(S'100002420434783'
S'Seema Bhagchandra Meena'
tp35
a(S'100001238804568'
p36
S'Medisetti Tirumala Kumar'
tp37
a(S'100002065526332'
S'Shraddha Nichal-Bobde'
tp38
a(S'532389894'
S'Uppu Krishna Mohan'
tp39
a(S'1683027248'
S'Lakshmi Andaluri'
tp40
a(S'612626591'
S'Jyotsna Patnaik'
tp41
a(S'529360729'
S'Debashis Chakraborty'
tp42
a(S'100003810781076'
S'Santhosh Bala'
tp43
a(S'100000338272557'
S'Nooli Venkata Ramana Murty'
tp44
a(S'100000533289724'
S'Sreedevi Anantha'
tp45
a(S'100000709453398'
S'Jyothi Rmayi'
tp46
a(S'100000315212232'
S'Tarun Rathi'
tp47
a(S'100005593147711'
S'Narsimha Raju'
tp48
a(S'1044641886'
S'Krishna Kishore Jasthi'
tp49
a(S'1244710618'
S'Amala Chirumamilla'
tp50
a(S'100001964045788'
S'Sunayana Chouhan'
tp51
a(S'100001277901879'
S'Ramesh Reddy'
tp52
a(S'100001233763545'
S'Sabiha Rizvi'
tp53
a(S'1766557411'
S'Siva Sankar'
tp54
a(S'100000493514592'
S'Shailesh Balkawade'
tp55
a(S'1758024820'
S'Vivek Sharma'
tp56
a(S'100001504483472'
S'Sanjusha Kuncha'
tp57
a(S'831667221'
S'Mayank Mishra'
tp58
a(S'581756095'
S'Vivek Kumar Upadhyay'
tp59
a(S'100001242557866'
S'Anirudh Singh'
tp60
a(S'100000057315867'
S'Padi Tatung'
tp61
a(S'708808583'
S'Mritunjaya Sharma'
tp62
a(S'614212026'
S'Kothari Indrajit'
tp63
a(S'100001589585539'
S'Sreehareeni Mookambikeyan'
tp64
a(S'100000474797106'
S'Shuchita Singh'
tp65
a(S'100000013942465'
S'Vasudeva Reddy Dontireddy'
tp66
a(S'720751101'
S'Bhaskar Venkata Eranki'
tp67
a(S'1391426004'
S'Richa Dayal'
tp68
a(S'100000486091859'
S'Sasikanth Bharadwaj'
tp69
a(S'100000591585233'
S'Leela Meenakshi'
tp70
a(S'755158338'
S'Nicholas Lambert'
tp71
a(S'100002518000423'
S'Yadagiri Badicala'
tp72
a(S'715155969'
S'Padmapani Bora'
tp73
a(S'100006807906721'
S'Madhu Panchadi'
tp74
a(S'100001016565710'
S'Rachana Singh'
tp75
a(S'100000377899790'
S'Deepthi Pamula'
tp76
a(S'100001239219408'
S'Sreelatha Chalasani'
tp77
a(S'100000164560387'
S'Sagar Esther'
tp78
a(S'1469887492'
S'Subbu Ayyanki'
tp79
a(S'1367351830'
S'Santosh Kumar'
tp80
a(S'100000405043117'
S'Kamal Yadav'
tp81
a(S'100000021491652'
S'Jawahar Jagarapu'
tp82
a(S'1563830113'
S'Shilpa Mehta'
tp83
a(S'100001399925740'
S'Mayank Tomar'
tp84
a(S'1725649102'
S'Durga Prasad D'
tp85
a(S'100002193641933'
S'Raghuram Addepalli'
tp86
a(S'1516436435'
S'Sibhi Chakravarthy'
tp87
a(S'1129594435'
S'Murali Mohan Reddy'
tp88
a(S'100001200511970'
S'Simerpreet Kaur Devgan'
tp89
a(S'100001963035825'
S'Gm Doss'
tp90
a(S'100001205019077'
S'Venkatesh Bandaru'
tp91
a(S'100000561901527'
p92
S'Anjani Pandey'
tp93
a(S'655809884'
S'Ravichandran Ramasamy'
tp94
a(S'1022124082'
S'Sasi Attili'
tp95
a(S'1096594372'
S'Ratinder Sidhu Sandhu'
tp96
a(S'100000424655254'
S'Anuradha Satish Solanki'
tp97
a(S'1111120633'
S'Prasanthi Annasamudram'
tp98
a(S'1420700708'
S'Ramesh Reddy'
tp99
a(S'1437247393'
S'Shashank M Deogadkar'
tp100
a(S'1311729516'
S'Vamsi Andra'
tp101
a(S'1846489856'
S'Radhika Shetty'
tp102
a(S'1047041292'
S'Hari Davuluru'
tp103
a(S'514454812'
S'Uodal Raj'
tp104
a(S'1118080761'
S'Mangtinlen Haokip'
tp105
a(S'100003232961555'
S'Rahul Chowdary Paladugula'
tp106
a(S'100001233011970'
S'Sudheer Buddiga'
tp107
a(S'100000731728443'
S'Sai Akella'
tp108
a(S'1519855161'
S'Madhavi Pothireddi'
tp109
a(S'1579317430'
S'Digvijai Kumar Chaudhary'
tp110
a(S'541105649'
S'Anurag Chaudhary'
tp111
a(S'100000219096727'
S'Ramani Aparna Kone'
tp112
a(S'100000724227723'
S'Namrata Vrishni'
tp113
a(S'551783830'
S'Swapna Devireddy'
tp114
a(S'100002382979597'
S'Kvs Choudary'
tp115
a(S'100000204549709'
S'Murali Adari'
tp116
a(S'672875267'
p117
S'Sanyam Suresh Joshi'
tp118
a(S'100002911974792'
S'Drramesh Babu Thesensitive'
tp119
a(S'100000631166013'
S'Niteen Yeola'
tp120
a(S'1771840003'
S'Vimalraj Periyagounden'
tp121
a(S'1184988241'
S'Jagan Mohan'
tp122
a(S'1622834297'
S'Chandrika Villuri'
tp123
a(S'100000333495365'
S'Sireesha Eranki'
tp124
asS'id'
p125
S'1535739214'
p126
sS'name'
p127
S'Aparnav Aparna'
p128
s.