(dp1
S'friends'
p2
(lp3
(S'501726181'
S'Praveen Achary'
tp4
a(S'1356401362'
S'Thrall-x Eric Choiselat'
tp5
a(S'100000090958100'
S'Ga\\u0161per Changes Pavli\\u010d'
tp6
a(S'1425772348'
S'Ginka Uchkova'
tp7
a(S'100001486036051'
S'Prakash Jajoria'
tp8
a(S'100001387753696'
S'Jenn Martinello II'
tp9
a(S'554729303'
S'Kristoffer Ljungberg'
tp10
a(S'100000142378074'
S'Adina Butar'
tp11
a(S'100002097247918'
S'Jordan Hubbard'
tp12
a(S'100001340661909'
S'Rameez Shaikh'
tp13
a(S'100000441157111'
S'Electrance India'
tp14
a(S'1178260895'
S'Umesh N Chandoulia'
tp15
a(S'100001403401228'
S'Vannya Garg'
tp16
a(S'100000036334727'
S'Dhruv Vijay'
tp17
a(S'100000185951221'
S'KusHagra SeTh'
tp18
a(S'1646706959'
S'Eric Gabriel'
tp19
a(S'100002511458274'
S'Mittal Patel'
tp20
a(S'1076225091'
S'Preethi Suresh'
tp21
a(S'100003023158721'
S'Sunset Trance'
tp22
a(S'728256180'
S'Neeraj Nicks Bheeman'
tp23
a(S'100000748267944'
S'Matteo Wojciechowski'
tp24
a(S'1157564971'
S'Kuchiki Afroman Masharia'
tp25
a(S'100002745374864'
S'Tineke Van der Zwan'
tp26
a(S'610335881'
S'Gareth Weston'
tp27
a(S'511995571'
S'Nicola Gala'
tp28
a(S'1423787295'
S'Canalla Van Buuren'
tp29
a(S'100003293035606'
S'Nigel Milevoj'
tp30
a(S'506833490'
S'Alex Humberstone'
tp31
a(S'100001395613029'
S'Alex Wackii'
tp32
a(S'1111406134'
S'Piyush Bhatnagar'
tp33
a(S'100001350663586'
S'Hiroki Nagamine'
tp34
a(S'100001632970514'
S'Codi'
tp35
a(S'613661392'
S'Joonatan Rinne'
tp36
a(S'100000069985840'
S'Jai Lakshmi Kashyap'
tp37
a(S'100000768454373'
S'Farhad Mahdavi'
tp38
a(S'751892645'
S'Mayur Narvekar'
tp39
a(S'100001169528289'
S'Parth Taneja'
tp40
a(S'1172950877'
S'Paromita Phulwaria'
tp41
a(S'1507321462'
S'Kamil Mokrzanowski'
tp42
a(S'1216943682'
S'Christopher Constantine'
tp43
a(S'620501907'
S'Pradeep Trance'
tp44
a(S'533873614'
S'Mihir Snow Flakes'
tp45
a(S'100001235966365'
S'Chandrima Roy'
tp46
a(S'100002040984315'
S'TranzLift Trance'
tp47
a(S'100007451881829'
S'Tonny Nesse'
tp48
a(S'1346121182'
S'Emese Csatos'
tp49
a(S'100003766920347'
S'Ashkan Sh'
tp50
a(S'1077807874'
S'Guy Alexander'
tp51
a(S'857580789'
S'Allan Morrow'
tp52
a(S'100001212976692'
S'Akshath K.m'
tp53
a(S'100000256050118'
S'Mohsin Abbasi'
tp54
a(S'100000645291483'
S'J\\u00f3zsef \\u00c1d\\u00e1m'
tp55
a(S'519605159'
S'Ahmed Romel'
tp56
a(S'634015991'
S'Mostfa Mohamed'
tp57
a(S'657131844'
S'Santosh Kumar Yalala'
tp58
a(S'100001110357110'
S'Mitanshi Chandolia'
tp59
a(S'100001816406939'
S'Nrg Dancerecords'
tp60
a(S'100002367164530'
S'Yash Vora'
tp61
a(S'1457780622'
S'Vishesh Jajoria'
tp62
a(S'697891019'
S'Gagan Gandhi'
tp63
a(S'100003550032186'
S'Honey Tandon'
tp64
a(S'508093545'
S'Gaurav Kauldhar'
tp65
a(S'1468428494'
S'Banasar Kattussery'
tp66
a(S'100001097014023'
S'Chris Tsk'
tp67
a(S'100000772118819'
S'Suraj Singh Parmar'
tp68
a(S'1622959494'
S'Gaggs Taneja'
tp69
a(S'100000826805612'
S'Satyendra Kanojia'
tp70
a(S'724266660'
S'Ishan Sain'
tp71
a(S'100000880182569'
S'Shashank Tyagi'
tp72
a(S'694105623'
S'Sharma Nikhil'
tp73
a(S'586770821'
S'Jskrn Singh'
tp74
a(S'557342636'
S'Sonal Gianchandani'
tp75
a(S'100006254558325'
S'Brett Elysium'
tp76
a(S'587475514'
S'Hazem Beltagui'
tp77
a(S'100005284140180'
S'Emanuele Congeddu'
tp78
a(S'1605721810'
S'Nidhi Saxena'
tp79
a(S'100000543785934'
S'Himanshu Sharma Hny'
tp80
a(S'528859617'
S'Kamal Jajoria'
tp81
a(S'100000058492100'
S'Shubham Patial'
tp82
a(S'1095038819'
S'Kiran M Sajeev'
tp83
a(S'778552572'
S'Sachin Thakar'
tp84
a(S'569612232'
S'Jay Flora'
tp85
a(S'553397573'
S'Stalvart John'
tp86
a(S'694056002'
S'Janette Hoogstraten'
tp87
a(S'1175889986'
S'Julian Wess'
tp88
a(S'520707196'
S'Vishal Gharat'
tp89
a(S'1631682320'
S'Anup'
tp90
a(S'100000118449954'
S'Andreas Theo'
tp91
a(S'100001046934408'
S'Rober Estigma'
tp92
a(S'100001763241878'
S'Abhishek Yesugade Aftermorning'
tp93
a(S'100000945868356'
S'Hassen Trancer'
tp94
a(S'1654044834'
S'Scott Pugh Voxy P'
tp95
a(S'1257152760'
S'Sambhav Chawla'
tp96
a(S'738146578'
S'Leon Russell Joseph'
tp97
a(S'1640946877'
S'Greenage Fernandes'
tp98
a(S'100000620915265'
S'Abhishek CV'
tp99
a(S'658017571'
S'Vipul Angirish'
tp100
a(S'100007126029610'
S'Aditya Singh'
tp101
a(S'100000343117183'
S'Pallavi Vaidya'
tp102
asS'id'
p103
S'1537588336'
p104
sS'name'
p105
S'Ayush Jajoria'
p106
s.