(dp1
S'friends'
p2
(lp3
(S'100005171925603'
S'Tariq Khan'
tp4
a(S'100005082279475'
S'Ali Noori'
tp5
a(S'100002157681057'
S'Rawaha Obaid'
tp6
a(S'100000968551910'
S'\\u062d\\u06a9\\u0645\\u062a \\u0635\\u0627\\u0641\\u06cc'
tp7
a(S'100001972288748'
S'Sunny Bhai'
tp8
a(S'100003720597466'
S'Ankit Rana'
tp9
a(S'100001617364289'
S'Genral Din Mohammad Jurat'
tp10
a(S'100004263011517'
S'Elyas Umarzai'
tp11
a(S'100006897541969'
S'Shokor Sadat'
tp12
a(S'100001774188353'
S'Narqes Herati'
tp13
a(S'100001963647988'
S'Eng Masood Temory'
tp14
a(S'100005892428811'
S'Abdul Kadeem'
tp15
a(S'100006538893558'
S'Rosie Nogueras'
tp16
a(S'1601362524'
S'Naveedullah Yousufzai'
tp17
a(S'100001459055955'
S'Shabana Jan'
tp18
a(S'100002237330162'
S'Mohib Shindandi'
tp19
a(S'100003498699584'
S'\\u0645\\u062c\\u064a\\u0628 \\u0627\\u0644\\u0631\\u062d\\u0645\\u0646 \\u0639\\u0645\\u0631'
tp20
a(S'100000712416269'
S'Raiza Ignacio Crisostomo'
tp21
a(S'100003522894678'
S'Syed Ghazi'
tp22
a(S'1301018939'
S'Faheem Safi'
tp23
a(S'100008305100664'
S'Sosan Akbery'
tp24
a(S'100005203447390'
S'Inayat Jameel'
tp25
a(S'100007427160428'
S'\\u0645\\u062d\\u0645\\u062f \\u0641\\u0643\\u0648\\u0631\\u064a'
tp26
a(S'100004465085831'
S'Melina Sh'
tp27
a(S'100001760473474'
S'Zahid Ullah Safi'
tp28
a(S'100007025353934'
S'Ataurahman Habibzay'
tp29
a(S'100003668235490'
S'Raza Ullah'
tp30
a(S'1414842566'
S'Shafiullah Habibzai'
tp31
a(S'100007713721085'
S'\\u0633\\u06cc\\u062f\\u062e\\u0644\\u06cc\\u0644 \\u0645\\u0639\\u0635\\u0648\\u0645\\u06cc'
tp32
a(S'100003089818234'
S'\\u0627\\u062d\\u0645\\u062f \\u0627\\u0644\\u062f\\u0631\\u06cc\\u0646\\u0648\\u0631\\u064a'
tp33
a(S'100003085337594'
S'Shahid Safi'
tp34
a(S'100004672537357'
S'Tayyaba Naz'
tp35
a(S'100002242977773'
S'Nazdar Mehabadi'
tp36
a(S'100001521106378'
S'Roya Hussaini'
tp37
a(S'100004015756351'
S'\\u0628\\u0649 \\u0648\\u0633\\u0647 \\u067e\\u0634\\u062a\\u0648\\u0646'
tp38
a(S'100003074472377'
S'Ahmad Rashid Hakimzada'
tp39
a(S'100007961490871'
S'\\u0633\\u062a\\u0648\\u0645\\u0627\\u0646\\u06cc \\u0647\\u06cc\\u0644\\u06cc'
tp40
a(S'100002041869842'
S'\\u06a9\\u0646\\u062f\\u0647\\u0627\\u0631 \\u06a9\\u0646\\u062f\\u0647\\u0627\\u0631'
tp41
a(S'100003307997541'
S'Abdullah Bahar Safi'
tp42
a(S'100002199129528'
S'Hamzh Kanaan'
tp43
a(S'100006514986638'
S'Muhammad Aabid'
tp44
a(S'100005389022428'
S'Karimullah Shahidi'
tp45
a(S'100000556431709'
S'Naqibullah Hemat'
tp46
a(S'100002072427616'
S'\\u0643\\u0627\\u0645\\u0631\\u0627\\u0646 \\u062c\\u0648\\u0647\\u062f\\u0631\\u064a'
tp47
a(S'100002305133383'
S'Dokhtar Harati Afghan'
tp48
a(S'100002244891990'
S'Yahya Saif'
tp49
a(S'100005420232879'
S'Djebli Amina'
tp50
a(S'100003698185785'
S'Nadir Khan Popalzai'
tp51
a(S'100002056686047'
S'\\u0627\\u062d\\u0645\\u062f \\u0627\\u0628\\u062f\\u0627\\u0644'
tp52
a(S'100007542936069'
S'\\u0627\\u0645\\u0627\\u0645 \\u0627\\u0644\\u062f\\u06cc\\u0646 \\u0639\\u0638\\u06cc\\u0645\\u06cc'
tp53
a(S'100000302735882'
S'Friba Hashimi'
tp54
a(S'100002347097314'
S'Muhammad Pasoon'
tp55
a(S'100000615526065'
S'U\\u0144\\u012bq\\u0171\\u00ea D\\u016fkh\\u0165ar\\u00e5k'
tp56
a(S'100003310503873'
S'Abid Ullah'
tp57
a(S'100007055734850'
S'Miyad Dalir'
tp58
a(S'100006225194477'
S'Mohammad Rasool'
tp59
a(S'100002273503783'
S'Sara Omaid'
tp60
a(S'100001761895193'
S'Sardarali Khan Alkozi'
tp61
a(S'100003641051534'
S'Asma Tanha'
tp62
a(S'100002117721346'
S'Fardin Ghelai'
tp63
a(S'100002322979320'
S'Yahya Khan Abbasi'
tp64
a(S'100002239800038'
S'Lima Aziz'
tp65
a(S'100001958074118'
S'Sulaiman Qayumi'
tp66
a(S'100000781362025'
S'\\u0632\\u0643\\u0631\\u064a\\u0627 \\u0627\\u0644\\u0635\\u0627\\u0641\\u064a'
tp67
a(S'100004016064716'
S'Hangama Sidiq'
tp68
a(S'100002657655462'
S'Love Rihena'
tp69
a(S'100005816371192'
S'Zia Ur Rahman Haqyar'
tp70
a(S'100000713714720'
S'Maria Deseree Leelin'
tp71
a(S'100000393871032'
S'Haseena Afghan'
tp72
a(S'100004154887201'
S'\\u0627\\u0628\\u0648 \\u0641\\u064a\\u0635\\u0644 \\u0643\\u0627\\u0628\\u0644\\u064a'
tp73
a(S'100000221638407'
S'Nelofar Stanikzai'
tp74
a(S'100007826952104'
S'Omar Fazli'
tp75
a(S'100008381047113'
S'Obidullah Habibzai'
tp76
a(S'100001400640136'
S'Fatima Khan Kakar'
tp77
a(S'100006167372900'
S'Amirsha Kamaly'
tp78
a(S'100004357840944'
S'\\u0635\\u0627\\u064a\\u0645\\u0647 \\u0628\\u063a\\u0644\\u0627\\u0646\\u064a'
tp79
a(S'100000298349075'
S'\\u0633\\u06cc\\u0641 \\u0635\\u0627\\u0631\\u0645 \\u0627\\u0644\\u0635\\u0627\\u0641\\u06cc'
tp80
a(S'100005329330719'
S'Salah Khan'
tp81
a(S'100007711483744'
S'Musaarman Wafa'
tp82
a(S'100004440841018'
S'\\u0633\\u067e\\u0648\\u0698\\u0645\\u06cc \\u062c\\u0644\\u0627\\u0644 \\u0622\\u0628\\u0627\\u062f\\u06cc'
tp83
a(S'100000438725358'
S'\\u0639\\u0627\\u064a\\u0634\\u0647 \\u0627\\u0633\\u0644\\u0627\\u0645'
tp84
a(S'100000584328515'
S'Nooria Barakzai'
tp85
a(S'100002041465011'
S'Zaher Aqtash'
tp86
a(S'100006730533828'
S'Masihsafi Safi'
tp87
a(S'100008037939514'
S'\\u0639\\u0628\\u062f\\u0627\\u0644\\u0633\\u062a\\u0627\\u0631 \\u0632\\u0645\\u0627\\u0646'
tp88
a(S'100001669458041'
S'Zia Qayumi'
tp89
a(S'100005916884369'
S'Abrahem Safi'
tp90
a(S'100002339430051'
S'Sami Andiwall'
tp91
a(S'100003312510498'
S'Hamid Safi'
tp92
a(S'100000643752019'
S'Sergio Emata'
tp93
a(S'100005883461585'
S'Khalid Pardis'
tp94
a(S'100005256613291'
S'Shoib Habib'
tp95
a(S'100006672456757'
S'Muhib Minawal'
tp96
a(S'100003656361969'
S'Faiz Wahdat'
tp97
a(S'100008305351111'
S'Jaber Khan'
tp98
a(S'100001413418842'
S'Bh\\u00f6xz Vhina'
tp99
a(S'100001949756955'
S'Mursal Naaz'
tp100
a(S'1399482414'
S'Eissa Wahdat'
tp101
a(S'100003339151433'
S'Farzan Anwari'
tp102
a(S'100001019286296'
S'\\u0639\\u0628\\u062f\\u0627\\u0644\\u0631\\u0627\\u0632\\u0642 \\u0635\\u0627\\u0641\\u06cc'
tp103
a(S'100003485925643'
S'\\u0646\\u0627\\u0635\\u062d \\u0627\\u0641\\u063a\\u0627\\u0646'
tp104
a(S'100006587282353'
S'\\u062d\\u0633\\u064a\\u0646 \\u0627\\u0644\\u0645\\u0644\\u0643'
tp105
a(S'100002012586675'
S'Homa Hamedi'
tp106
a(S'100008283197027'
S'Ataurahmaan Safi'
tp107
a(S'100000634614010'
S'Sharifullah Zeerak'
tp108
a(S'100005194721771'
S'Yasin Safi'
tp109
a(S'100002543306978'
S'Di VA'
tp110
a(S'100004211704264'
S'Yousuf Shahzad'
tp111
a(S'100008255730903'
S'Romalyn Nogueras'
tp112
a(S'100004903443477'
S'Mo May Zaa'
tp113
a(S'100006190542220'
S'Omarkhattab Almohammadie'
tp114
a(S'100007910922160'
S'Ashab Ullah Safi'
tp115
a(S'100000547267457'
S'Waseq Ullah Mahmoodzai'
tp116
a(S'100002649722336'
S'Muhammad Safi'
tp117
a(S'100008107004691'
S'Eufemia Paez'
tp118
a(S'100001636985740'
S'Seema Syad'
tp119
a(S'100006160003006'
S'Qadir Zamani'
tp120
a(S'100003225791669'
S'Omid Ahmadi'
tp121
a(S'100005813079702'
S'Syed Rimsha'
tp122
a(S'100001935826368'
S'Saeed Mamond'
tp123
a(S'100001293960158'
S'Ezatullah Zwab'
tp124
a(S'100004920967784'
S'Sarbaz Khan'
tp125
a(S'100006694609118'
S'\\u0627\\u0628\\u0631\\u0627\\u0647\\u06cc\\u0645 \\u0645\\u0648\\u0644\\u0627\\u0646\\u0627'
tp126
a(S'100002623350429'
S'Samlan Khan'
tp127
a(S'100003021712659'
S'Rohullah Omran'
tp128
a(S'100000586889195'
S'Nasratullah Safi'
tp129
a(S'100005079480217'
S'\\u0641\\u0631\\u0634\\u062a\\u0647 \\u0627\\u0632 \\u06a9\\u0627\\u0628\\u0644\\u0633\\u062a\\u0627\\u0646'
tp130
a(S'100002950001419'
S'M Hanif Hanif Zain'
tp131
a(S'100002404735050'
S'Abdullah Begzada'
tp132
a(S'100004275422885'
S'Rezwan Danishwar'
tp133
a(S'100008334665995'
S'Tayyab Safi'
tp134
a(S'100004889222154'
S'Ahmad Latify'
tp135
a(S'656771916'
S'Hamza Nooristani'
tp136
a(S'100005010217883'
S'Ubaidullah Anwar'
tp137
a(S'100007830725198'
S'Enam Kunari'
tp138
a(S'100006783127476'
S'Princess Jaylinda M. Manatad'
tp139
a(S'100002298665615'
S'Abdullah Kurangali'
tp140
a(S'100001569603003'
S'Latif Qayumi'
tp141
a(S'100004448412951'
S'Niz Mir'
tp142
a(S'100005816282877'
S'Habib Saif'
tp143
a(S'100003163345690'
S'Mohammad Akram Khpalwak'
tp144
a(S'100003990451609'
S'Farhanaz Naz'
tp145
a(S'100000389336230'
S'Inam Adil'
tp146
a(S'100003376479628'
S'Sayyed Ul Abrar'
tp147
a(S'100001975359824'
S'Ahmad Habib'
tp148
a(S'100001052491794'
S'Mirwais Omari'
tp149
a(S'100006618667556'
S'Jabar Farahi'
tp150
a(S'100004764584571'
S'Hamza Zain Safi'
tp151
a(S'746283282'
S'Khalid Hatam'
tp152
a(S'100002640701159'
S'Musa Safi'
tp153
a(S'100002385652301'
S'Sedra Khaleel'
tp154
a(S'100008116262283'
S'\\u0633\\u067e\\u06cc\\u0646\\u0647 \\u0635\\u0627\\u0641\\u06cd'
tp155
a(S'100001563682902'
S'Swat Wadi Janat'
tp156
a(S'100000821107607'
S'Hanif Zain'
tp157
a(S'100001621879517'
S'Zabiullah Wror'
tp158
a(S'100000954570898'
S'Abid Zaman'
tp159
a(S'100002213229057'
S'Zarii Khanomii'
tp160
a(S'100001672136598'
S'Abdulaziz Afgani'
tp161
a(S'100007559588464'
S'Sajeela Shaheen'
tp162
a(S'100006096571397'
S'\\u0647\\u062f\\u0627\\u06cc\\u062a \\u0627\\u0644\\u0644\\u0647 \\u0645\\u062a\\u0642\\u06cc'
tp163
a(S'100004804569135'
S'Akmal Khan'
tp164
a(S'100002534783797'
S'Syed Jamal'
tp165
a(S'100004112681423'
S'Tahir Khan Himat'
tp166
a(S'100002724259905'
S'Frishta Noori'
tp167
a(S'100005953394461'
S'Khodadad Taiman'
tp168
a(S'100008193662731'
S'Amran Seeb'
tp169
a(S'100003977361743'
S'Love Afghanistan'
tp170
a(S'100008184633041'
S'Masal Khan Sawdai'
tp171
a(S'100007750716752'
S'Sohela Parween'
tp172
a(S'100000625964133'
S'Mubeen Zazai'
tp173
a(S'670663038'
S'Sayyed Ul Abrar Khan'
tp174
a(S'784348254'
S'Jawaid Kotwal'
tp175
a(S'100008150114681'
S'Edelos Paez'
tp176
a(S'100001804452183'
S'Abdul Wasey Begzada'
tp177
a(S'100004508382132'
S'Shahid Umarzi'
tp178
a(S'631775341'
S'Izatullah Ghairat Safi'
tp179
a(S'100005495734001'
S'Rose Iligan'
tp180
a(S'100005080598948'
S'Salam Ayoobi'
tp181
a(S'100007979861259'
S'Mohammad Ismail Mahmoodzai'
tp182
a(S'100003577721550'
S'Mohammad Hadi Halimi'
tp183
a(S'100003849724309'
S'Ahmad Khan Safi'
tp184
a(S'100007449541679'
S'Haidar Safi'
tp185
a(S'100005179961070'
S'Salahuddin Baher'
tp186
a(S'100007722246686'
S'Jennifer Balina'
tp187
a(S'100007437722850'
S'Zaheer Safi'
tp188
a(S'100003649631034'
S'Anwar Khan'
tp189
a(S'100003090228541'
S'Maria Espa\\u00f1ola'
tp190
a(S'100004799800186'
S'Anait Safi'
tp191
a(S'100001471678622'
S'Mirwais Momand'
tp192
a(S'100001418960262'
S'Mujtaba Eraj'
tp193
a(S'100004218732861'
S'Lima Azizi'
tp194
a(S'100004579934555'
S'Jawad Hussain'
tp195
a(S'100001781119961'
S'Tayyab Qayyumi'
tp196
a(S'100003281855915'
S'Mn Wafa'
tp197
a(S'100006348792199'
S'Shgofa Muhamadi'
tp198
a(S'100002328043058'
S'Meena Sahil'
tp199
a(S'100006427233578'
S'Fareed Shagiwal'
tp200
a(S'100002622520629'
S'Shoaib Kakar'
tp201
a(S'100000484106224'
S'Hk Kabuli'
tp202
a(S'100002715789136'
S'Aziz Begzada'
tp203
a(S'100001184920344'
S'Gemma Miranda'
tp204
a(S'100005146961217'
S'Mustaqeem Amin'
tp205
a(S'100003147994178'
S'Sadullah Almuhammadie'
tp206
a(S'100000763675403'
S'Mk Khan'
tp207
a(S'100006919354563'
S'Jaenith Salvacion'
tp208
a(S'100007579363534'
S'Rafiullah Safi'
tp209
a(S'1029025171'
S'Saima Kazmi'
tp210
a(S'100004059551899'
S'Arif Kochai'
tp211
a(S'100000225506517'
S'Hamed Ahsas'
tp212
a(S'100003026807033'
S'Shababu Salafia'
tp213
a(S'100002392107250'
S'Musa Safi'
tp214
a(S'100001009164341'
S'Sharif Shahab'
tp215
a(S'100002760996842'
S'Amin Haqpal'
tp216
a(S'100001723273215'
S'Najeebullah Hatam'
tp217
a(S'100007395341453'
S'Heidar Ali'
tp218
a(S'100002199734872'
S'Farman Khan'
tp219
a(S'100002615047683'
S'Atiq Sohail'
tp220
a(S'100001883381972'
S'Ubaid Wali'
tp221
a(S'1187733454'
S'Nabiullah Safi'
tp222
a(S'100001905596177'
S'Abdullah Begzada'
tp223
a(S'100004105089137'
S'Faryal Zidi'
tp224
a(S'100007373347117'
S'Firus Mohammadi'
tp225
a(S'100002990434311'
S'Hafiza Jamali'
tp226
a(S'100003365962860'
S'Haseeb Hamid'
tp227
a(S'100000708159418'
S'Asim Asimi'
tp228
a(S'100005621221942'
S'Tamana Afghan'
tp229
a(S'100001876252765'
S'Zainab Durrani'
tp230
a(S'100002933878704'
S'Irfan Safi'
tp231
a(S'100003466967065'
S'Haji Jamal Qadeer'
tp232
a(S'100005623502746'
S'\\u0628\\u0646\\u062f\\u06cc \\u06af\\u0644 \\u062e\\u0627\\u06a9\\u0633\\u0627\\u0631'
tp233
a(S'100001454687307'
S'Anna Marie Zablan Ambag'
tp234
a(S'100005785302027'
S'Karim Sapi'
tp235
a(S'1554512238'
S'Ahmad Farid Karimi'
tp236
a(S'100006654246835'
S'Abdul Qadir Latify'
tp237
a(S'100001640372974'
S'Ahmad Tayyab'
tp238
a(S'100002060951628'
S'Walizad Mohammad Elham'
tp239
a(S'100003510668040'
S'\\u0627\\u064a\\u0648\\u0628 \\u0635\\u0627\\u0641\\u064a'
tp240
a(S'100006745422065'
S'Tamana Naz'
tp241
a(S'100007598580583'
S'Qari Hairan'
tp242
a(S'100000749432358'
S'Dr-Dawood Monib Shinwari'
tp243
a(S'100001930243617'
S'\\u0632\\u0631\\u0648 \\u062c\\u0627\\u0646\\u0647'
tp244
a(S'100003645590493'
S'\\u062f.\\u0623\\u0628\\u0648 \\u0639\\u0645\\u0631 \\u0633\\u064a\\u062f\\u062d\\u0628\\u064a\\u0628 \\u0627\\u0644\\u0627\\u0641\\u063a\\u0627\\u0646\\u064a'
tp245
a(S'100004551461142'
S'Noorzia Khann'
tp246
a(S'100004884331086'
S'Mursal Safa'
tp247
a(S'100006864822082'
S'\\u09ac\\u09be\\u09b8\\u09a8\\u09cd\\u09a4\\u09c0 \\u09aa\\u09b0\\u09c0'
tp248
a(S'100003364028127'
S'Ihsanullah Madani'
tp249
a(S'100005578890072'
S'M Ibrahim Sail'
tp250
a(S'100004422004945'
S'Fulad Afghan'
tp251
a(S'100002031533433'
S'Wa Fa'
tp252
a(S'100002334597035'
S'Zeba Vafai'
tp253
a(S'100003497590677'
S'Shafiqullah Mushfiq'
tp254
a(S'100007502616857'
S'\\u0628\\u062f\\u0631 \\u063a\\u0628\\u0627\\u0634 \\u0627\\u0644\\u0634\\u0645\\u0631\\u064a'
tp255
a(S'100003501384582'
S'Abdulrahman Wafa'
tp256
a(S'100004760502011'
S'Mustafa Sadaat'
tp257
a(S'100002035850836'
S'\\u062c\\u0627\\u0646 \\u0627\\u063a\\u0627 \\u0635\\u0627\\u0641\\u06cc'
tp258
a(S'100000884659937'
S'Aminullah Wakeel'
tp259
a(S'100001946805334'
S'Mirwais Momand'
tp260
a(S'100001810787105'
S'Ahmad Safi'
tp261
a(S'100006259500572'
S'\\u0627\\u0644\\u0647\\u0627\\u0645 \\u0627\\u0644\\u062f\\u06cc\\u0646 \\u0647\\u0644\\u0627\\u0644'
tp262
a(S'100008235100119'
S'Amran Seeb'
tp263
a(S'100004410818797'
S'Kadiatou Barry'
tp264
a(S'100002444633095'
S'\\u0645\\u0644\\u06cc \\u0642\\u0647\\u0631\\u0645\\u0627\\u0646\\u0627\\u0646 \\u0627\\u0641\\u063a\\u0627\\u0646\\u0633\\u062a\\u0627\\u0646'
tp265
a(S'100001701092011'
S'Dawood Dawoodpacha'
tp266
a(S'100005767422751'
S'\\u0639\\u0628\\u062f\\u0627\\u0644\\u0631\\u0624\\u0641 \\u0627\\u062d\\u0645\\u062f \\u0645\\u062f\\u0646\\u0649'
tp267
a(S'100003801904375'
S'Jezella Atame'
tp268
a(S'100004471183464'
S'Abdulbasir Akif'
tp269
a(S'732867131'
S'Edris Hamra'
tp270
a(S'100008237795599'
S'Ahmad Latef'
tp271
a(S'100005108011913'
S'Zunaira Shahid'
tp272
a(S'100006531608466'
S'Abdulsattarzaman Zaman'
tp273
a(S'100002567113795'
S'Khpalwak Safi'
tp274
a(S'100002207143716'
S'Sharifullah Zeerak Safi'
tp275
a(S'100008197870575'
S'Hayat Ullah Safi'
tp276
a(S'100002580721284'
S'Wali Ullah Amin Safi'
tp277
a(S'100003135905614'
S'Aziz Safi'
tp278
a(S'100002384846380'
S'Nadi Rice'
tp279
a(S'100002217553653'
S'Wadan Afghanistan'
tp280
a(S'100000736797081'
S'Sheerin Shaida'
tp281
a(S'100004162685782'
S'Samantha Celine M Grims'
tp282
a(S'100001706184912'
S'Sadaf Nadai'
tp283
a(S'100007412885309'
S'Waliullah Safi'
tp284
a(S'100004322406149'
S'Safi Haqyar'
tp285
a(S'100006673003472'
S'Khushbo Ahmadi'
tp286
a(S'100000527384269'
S'Tahir Wahdat'
tp287
a(S'100004841070894'
S'\\u0646\\u062c\\u064a\\u0628 \\u0633\\u0644\\u064a\\u0645'
tp288
a(S'100008323606862'
S'Elizabeth Paez'
tp289
a(S'100003762514228'
S'Hamid Ullah Shinwari'
tp290
a(S'100005127125112'
S'Maricel Mirafuentes'
tp291
a(S'563779463'
S'Matiullah Abid'
tp292
a(S'100002723552340'
S'Arazoo Yagana'
tp293
a(S'100002648978141'
S'\\u064a\\u0627\\u0633\\u0631 \\u0645\\u062d\\u0645\\u062f \\u0622\\u064a\\u0627\\u0632 \\u0628\\u0634\\u0631\\u0632\\u064a'
tp294
a(S'100004379890852'
S'Naseem Zafari'
tp295
a(S'100004153752982'
S'Rahim Safi'
tp296
a(S'100001687919077'
S'\\u0633\\u0627\\u062d\\u0644 \\u0635\\u0627\\u0641\\u06cc'
tp297
a(S'100001627934427'
S'\\u0645\\u0633\\u06a9\\u0627 \\u0627\\u0645\\u0627\\u0646 \\u0633\\u0627\\u067e\\u06cd'
tp298
a(S'100002493143291'
S'Salahudin Hussaini'
tp299
a(S'100002692917469'
S'Wiki Afghan'
tp300
a(S'100005191055152'
S'Shelly Nurfadilah'
tp301
a(S'100001077628854'
S'K Khan Yousofi'
tp302
a(S'100002169432823'
S'Malika Helmandi'
tp303
a(S'100000204971221'
S'Qanoni Azim'
tp304
a(S'100002426862444'
S'Princes Aila'
tp305
a(S'100001428879065'
S'Zahra Mohammadi'
tp306
a(S'100000932389639'
S'Zia Ullah'
tp307
a(S'100004598132888'
S'Samira Rahimi'
tp308
a(S'100006670122703'
S'\\u0645\\u062d\\u0645\\u062f \\u0635\\u0627\\u0641\\u064a'
tp309
a(S'100007980274015'
S'Sami UrRahman'
tp310
a(S'100002575464384'
S'Zabih Totakhil'
tp311
a(S'100000841207531'
S'Muhammad Ayaz Bashar Zai'
tp312
a(S'100005277660610'
S'Hamid Wahdat'
tp313
a(S'100002082546248'
S'Freba Sabor'
tp314
a(S'100003882969287'
S'Basmena Khkola'
tp315
a(S'100003953377895'
S'\\u0627\\u062d\\u0645\\u062f \\u0648\\u0644\\u064a'
tp316
a(S'100001585897370'
S'Mohammad Imran Malikzi'
tp317
a(S'100004059291882'
S'Yaqoob Safi Khan'
tp318
a(S'100003799903335'
S'Lawrence Leelin'
tp319
a(S'100002540166753'
S'Noor Zada'
tp320
a(S'100005591858100'
S'Salman Khan'
tp321
a(S'100001629156578'
S'Sumaya Feda'
tp322
a(S'100003634954381'
S'\\u0635\\u0627\\u0639\\u0642\\u0629 \\u0627\\u0644\\u062d\\u0642'
tp323
a(S'100001248297335'
S'Shafiqa Haidary'
tp324
a(S'100005021253898'
S'Kausar Ali'
tp325
a(S'100001830417933'
S'Muhammad Shafi Khaliqy'
tp326
a(S'100007748793330'
S'Safi Khan'
tp327
a(S'100004566091597'
S'Rich Love'
tp328
a(S'100008158717206'
S'Mutahida Pakhton Pakhton'
tp329
a(S'100002000607662'
S'Abdulaziz Qayumi'
tp330
a(S'100007320843190'
S'Sanaullah Walizada Sadiqi'
tp331
a(S'100001856942342'
S'Mehwish Shafiq'
tp332
a(S'100000066829058'
S'Vida Rahimi'
tp333
a(S'100003139024868'
S'Nelofar Tanha'
tp334
a(S'100001607933460'
S'\\u0641.\\u0631 \\u0634\\u06cc\\u0631\\u0632\\u0627\\u062f'
tp335
a(S'100008250671264'
S'\\u0639\\u0628\\u062f\\u0627\\u0644\\u0628\\u0635\\u06cc\\u0631 \\u0632\\u062f\\u0631\\u0627\\u0646'
tp336
a(S'100004881519167'
S'\\u0645\\u062d\\u0628\\u0648\\u0628 \\u062f\\u0627\\u0648\\u062f\\u06cc'
tp337
a(S'100004801086723'
S'M Siddiq Saif'
tp338
a(S'100003758607210'
S'Samina M Grims'
tp339
a(S'100001749026089'
S'Aminulhaq Safi'
tp340
a(S'100004692491438'
S'Nasher Ghurzang'
tp341
a(S'100006341504297'
S'John Soon'
tp342
a(S'100002104367939'
S'Sana Khan'
tp343
a(S'100001005864231'
S'Mirza Ali'
tp344
a(S'100007561021693'
S'Imam Udeen'
tp345
a(S'100003747036851'
S'Gull Parna'
tp346
a(S'100002343760453'
S'Fatima Naz'
tp347
a(S'100003360827871'
S'Irfan Khan'
tp348
a(S'100002214956232'
S'Rashid Nawab'
tp349
a(S'100000905824372'
S'Abdurrahman Qayumi'
tp350
a(S'100004292641263'
S'Ishaq Sahil'
tp351
a(S'100001829995240'
S'Zia Ur Rahman Safi'
tp352
a(S'100005941717687'
S'Zia Hafizi'
tp353
a(S'100005889037938'
S'\\u0636\\u0631\\u0628.\\u0627\\u0644\\u0645\\u0642\\u0644\\u062f\\u064a\\u0646 \\u0628\\u0633\\u064a\\u0641.\\u0627\\u0644\\u0645\\u0642\\u0644\\u062f\\u064a\\u0646'
tp354
a(S'100003971117230'
S'Dancel Leelin'
tp355
a(S'100008149032461'
S'\\u062d\\u0641\\u064a\\u0638 \\u0627\\u0644\\u0644\\u0647 \\u0627\\u0644\\u0627\\u0641\\u063a\\u0627\\u0646\\u064a'
tp356
a(S'100004031866507'
S'Nayab Gul'
tp357
a(S'100007713300594'
S'Ibrahim Wafa'
tp358
a(S'100000569857401'
S'Mohammad Rafee Okhowat'
tp359
a(S'100000885436496'
S'\\u062c\\u0627\\u063a\\u0648\\u0631\\u06cc\\u0627\\u0646 \\u062c\\u0627\\u063a\\u0648\\u0631\\u06cc\\u0627\\u0646'
tp360
a(S'100004096444131'
S'Misken Mina Misken'
tp361
a(S'100000180491297'
S'Danica M. Leelin'
tp362
a(S'100006456961425'
S'M\\u00e9ll F\\u00e0tii'
tp363
a(S'100003191805001'
S'Highstandard Pipe'
tp364
a(S'1214381161'
S'Hatam Zahid'
tp365
a(S'100004739465259'
S'Obaid Kunary'
tp366
a(S'100005534375086'
S'Babu Jan'
tp367
a(S'100003131126505'
S'\\u0647\\u062f\\u0627\\u064a\\u062a \\u0627\\u0644\\u0631\\u062d\\u0645\\u0646 \\u0635\\u0627\\u0641\\u064a'
tp368
a(S'100000464922545'
S'Obaidullah Hussam'
tp369
a(S'1203936014'
S'Zafar Safi Karimi'
tp370
a(S'100001479852453'
S'Eng Nasir Ahmad'
tp371
a(S'100003082700453'
S'Naqibtalha Safi'
tp372
a(S'100008221277159'
S'Jalil Ahmad'
tp373
a(S'100000913638958'
S'Ahmadshah Tsoukiwal'
tp374
a(S'100002601379638'
S'Saba Nooristani'
tp375
a(S'100007830491879'
S'Inayat Safi Saqib'
tp376
a(S'100000636810651'
S'\\u0623\\u0628\\u0648 \\u0639\\u0628\\u062f\\u0627\\u0644\\u0631\\u062d\\u0645\\u0646 \\u0639\\u0628\\u062f\\u0627\\u0644\\u0642\\u0627\\u062f\\u0631 \\u0635\\u0627\\u0641\\u0649'
tp377
a(S'100000774984729'
S'Siti Aminah'
tp378
a(S'100002085311776'
S'Mena Mangal'
tp379
a(S'100005584421659'
S'Samiullah Safi'
tp380
a(S'100003662628202'
S'Nasir Baghlani'
tp381
a(S'100005632201653'
S'Zrahnef Neiblot'
tp382
a(S'100004190829820'
S'Nasrin Gharany'
tp383
a(S'100003467806333'
S'Shakir Shakirkonari'
tp384
a(S'100003061034492'
S'Arif Rahman Hadawal'
tp385
a(S'100007778178320'
S'Jeffry Rivadenera'
tp386
a(S'100001235601567'
S'Baheer Lalpurwal'
tp387
a(S'100002141138731'
S'Khalil Qayumi'
tp388
a(S'100001112376209'
S'Darlington Chisom Nwogu'
tp389
a(S'100003577812380'
S'Serveen Sultani'
tp390
a(S'100001725242858'
S'Salma Shazi'
tp391
a(S'100007588294332'
S'Irfan Ullah Shams Safi'
tp392
a(S'100005464214610'
S'Staish Zendagi'
tp393
a(S'100004033975844'
S'Ahmad Khan Pokhton'
tp394
a(S'100002414466511'
S'Zia Rahman'
tp395
a(S'100002201693740'
S'Asil Khan Babakarkhil'
tp396
a(S'100003198382790'
S'Amir Atta Safi'
tp397
a(S'100007684801278'
S'Rahila Asifi'
tp398
a(S'100002531827006'
S'Moosa Safi'
tp399
a(S'100001586416089'
S'Elizabeth Marcial Bautista'
tp400
a(S'100002035298881'
S'Peshawar Pakhtonkhwa'
tp401
a(S'100006700800185'
S'Lashibah Jeroso'
tp402
a(S'100006966780011'
S'Naser Taiman'
tp403
a(S'100005333977885'
S'Samantha Telugu'
tp404
a(S'100007785270033'
S'Haji Sami'
tp405
a(S'100006038137102'
S'Marilou Duhaylungsod Garganian'
tp406
a(S'100002287842392'
S'Naveed Latify'
tp407
a(S'100004784010416'
S'Wale Safi'
tp408
a(S'100004696953010'
S'Mircel Marcelo'
tp409
a(S'100007969417800'
S'Musa Shahzad'
tp410
a(S'100007088316053'
S'Rafi Safi Safi'
tp411
a(S'100005864741043'
S'Mutia Sriyani'
tp412
a(S'100000551602765'
S'Suhrab Ansari'
tp413
a(S'100001813407936'
S'Basira Shirzay'
tp414
a(S'100003192609905'
S'Nasima Paktiawala'
tp415
a(S'100002239305843'
S'Shabnam Sahar'
tp416
a(S'100006481774024'
S'Wali Safi'
tp417
a(S'100000556798820'
S'Salma Noor'
tp418
a(S'100001716518893'
S'Said Ahmad Safi'
tp419
a(S'100006209684329'
S'Arifa Omarloor Bashir'
tp420
a(S'100002263818081'
S'Bilal Ahmad Latify'
tp421
a(S'100001796806692'
S'Mujeeb Rahman'
tp422
a(S'100001753882971'
S'Sonia Herati'
tp423
a(S'100004604645843'
S'Niloofar Ahmadi'
tp424
a(S'100002240560762'
S'\\u0634\\u0631\\u0631 \\u0633\\u0627\\u067e\\u064a'
tp425
a(S'100005335331623'
S'Wdo Pk'
tp426
a(S'100002881928677'
S'\\u062f\\u0648\\u0633\\u062a\\u062f\\u0627\\u0631 \\u0627\\u0644\\u0644\\u0647'
tp427
a(S'100002289513345'
S'Diana Alejandra'
tp428
a(S'1508910976'
S'Gul Zar'
tp429
a(S'100007541829268'
S'Mohammad Hosin Intazar'
tp430
a(S'100001941034876'
S'\\u0623\\u0628\\u0648\\u0633\\u0639\\u064a\\u062f \\u062a\\u0631\\u0627\\u0628'
tp431
a(S'1131747084'
S'Ikram Ullah Daudzai'
tp432
a(S'100000322934279'
S'Ihsan Hussaini'
tp433
a(S'1277439985'
S'Khatera Asahaqzai'
tp434
a(S'100002696550919'
S'Frozan Wafa'
tp435
a(S'100002935740793'
S'Cecilia Atuahene'
tp436
a(S'100003953945473'
S'Abdul Wali Qayumi'
tp437
a(S'100000754417650'
S'Ibrahim Safi'
tp438
a(S'100005645493437'
S'Zainullah Adrimzai'
tp439
a(S'1764618884'
S'Abdul Basir Miakhail'
tp440
a(S'100008166069769'
S'Ismail Sham'
tp441
a(S'100003685135955'
S'Sh Honey'
tp442
a(S'100003156421645'
S'Jamaat Ul Tabligh'
tp443
a(S'100002467634221'
S'Sania Shah'
tp444
a(S'100005827062020'
S'Jean Gialem'
tp445
a(S'100002543708624'
S'Arash Khan'
tp446
a(S'100002893316236'
S'Shabnam Shams'
tp447
a(S'100001961104610'
S'Obaidullah Kharotai'
tp448
a(S'100008154122146'
S'Ataullah Safi'
tp449
a(S'100002521849645'
S'Abdullah Saidy'
tp450
a(S'100003679987049'
S'Hilmee Rineesh'
tp451
a(S'100001041303644'
S'Zia Ur Rahman Safi'
tp452
a(S'100003087487693'
S'M\\u00eb\\u0144\\u00e5 B\\u00e2h\\u00e5r'
tp453
a(S'100004130646781'
S'Saud Basit'
tp454
a(S'100005957012825'
S'Maricel Samina Grims'
tp455
a(S'100003829914828'
S'\\u0627\\u0633\\u062a\\u0627\\u062f \\u0645\\u062d\\u0645\\u062f \\u0639\\u0627\\u0631\\u0641 \\u0635\\u062f\\u0627\\u0642\\u062a'
tp456
a(S'100001508592069'
S'Shakir Roshan Naaz'
tp457
a(S'100000842186782'
S'\\u0633\\u0639\\u064a\\u062f\\u0627\\u0644\\u0644\\u0647 \\u0639\\u0628\\u062f \\u0627\\u0644\\u0631\\u0632\\u0627\\u0642 \\u0628\\u0634\\u0631\\u0632\\u064a'
tp458
a(S'100002018013697'
S'Halima Sadat'
tp459
a(S'100004223681636'
S'Zia Amran'
tp460
a(S'100003524457662'
S'Q Hafizullah Safi'
tp461
a(S'100004545043596'
S'Namat Qurban'
tp462
a(S'100000562802975'
S'\\u0639\\u0645\\u0631 \\u0633\\u064a\\u062f\\u062d\\u0628\\u064a\\u0628 \\u0627\\u0644\\u0635\\u0627\\u0641\\u064a'
tp463
a(S'100003936642137'
S'Subhanullah Ashkar'
tp464
a(S'100002736119065'
S'Homa Ansar'
tp465
a(S'100001631532312'
S'Sharifullah Shahab'
tp466
a(S'100001059957174'
S'Nida Nagari'
tp467
a(S'100001385130918'
S'Ashiq Safi'
tp468
a(S'100001127656485'
S'Abu Sulaiman Kaker'
tp469
a(S'100004943374721'
S'Abdullah Safi'
tp470
a(S'100008054195563'
S'Amin Ullah'
tp471
a(S'100007744356632'
S'Hazrat Din Saafi'
tp472
a(S'100000451515088'
S'\\u0636\\u064a\\u0627\\u0621 \\u0635\\u0627\\u0641\\u064a'
tp473
a(S'100008291611136'
S'Enayat Safi'
tp474
a(S'100006521582898'
S'\\u0647\\u0645\\u0627\\u06cc\\u0648\\u0646 \\u0627\\u0646\\u0648\\u0631\\u06cc'
tp475
a(S'100002150602951'
S'Nelofar Neazi'
tp476
a(S'100001345890680'
S'Mubeen Zazai'
tp477
a(S'100004053806563'
S'Enam Safi'
tp478
a(S'100003922048054'
S'Gul Pacha Haydari'
tp479
a(S'100002487728969'
S'Roohullah Noori'
tp480
a(S'100002343983270'
S'Manbelle Aquaranian'
tp481
a(S'100001868970771'
S'\\u0623\\u0628\\u0648 \\u0625\\u0628\\u0631\\u0627\\u0647\\u064a\\u0645 \\u0627\\u0644\\u0633\\u0644\\u0637\\u0627\\u0646\\u064a'
tp482
a(S'100007033688108'
S'Basit Safi'
tp483
a(S'100001554073282'
S'Lina Stoman'
tp484
a(S'100004934074436'
S'Tayyab Basharzi'
tp485
a(S'100001363105788'
S'Nabiullah Safi'
tp486
a(S'100004301825379'
S'Abdulbasir Akif'
tp487
a(S'100006595897495'
S'Musa Shahzad'
tp488
a(S'100002064441763'
S'Mna Muhammad Nazir Khan'
tp489
a(S'100004514411726'
S'Shahid Umarzi'
tp490
a(S'100006605621196'
S'Abdul Rashid Amarkhil'
tp491
a(S'100002067009968'
S'Saraj Oriakhil'
tp492
a(S'100005955581492'
S'M Yasir Khan'
tp493
a(S'100003132734912'
S'Murtaza Hamid'
tp494
a(S'100001669527039'
S'Aminulhaq Safi'
tp495
a(S'100002920746790'
S'Abdulrahman Khaksar'
tp496
a(S'1099503319'
S'Muhammad Hussain'
tp497
a(S'100005198529832'
S'Nahida Safi'
tp498
a(S'100000728370067'
S'Saeed Khan'
tp499
a(S'100001724394947'
S'Bowraacom Bowra'
tp500
a(S'100002076611763'
S'Ehsan Ahmadi'
tp501
a(S'100007396543864'
S'\\u0633\\u0639\\u062f \\u0627\\u0644\\u062e\\u0637\\u064a\\u0628'
tp502
a(S'100002854228345'
S'Khatera Saba'
tp503
a(S'100002113206022'
S'Naila Naaz'
tp504
a(S'100004743393351'
S'Elyas Umarzai'
tp505
a(S'100004374542793'
S'Jerlyn Paduala Ocero'
tp506
a(S'100003490997183'
S'Sharifullah Fazli'
tp507
a(S'100007430654176'
S'Rafiq Khan'
tp508
a(S'100005240593331'
S'Imdad Saif'
tp509
a(S'100000087929243'
S'Yalda Sultan'
tp510
a(S'100002306710736'
S'Sanaullah Shinwari'
tp511
a(S'758898855'
S'Nooristani Nooristani'
tp512
a(S'100008198708368'
S'Qasim Kunari'
tp513
a(S'100004029085654'
S'\\u062a\\u0631\\u0627\\u0646\\u0647 \\u0645\\u0648\\u0633\\u0648\\u06cc'
tp514
a(S'100007760262733'
S'Zakir Haji'
tp515
a(S'1395180114'
S'Iqbal Ismail'
tp516
a(S'100007125364281'
S'Jumekhan Haidari'
tp517
a(S'100004347074566'
S'Ahmad Ullah Saif'
tp518
a(S'100002544564948'
S'Noor Roshan'
tp519
a(S'100005518606316'
S'Hadayat Khan'
tp520
a(S'100005690283036'
S'Abdulbasit Abdulaziz'
tp521
a(S'100005612588630'
S'Ubaid Jamal'
tp522
a(S'100000414842385'
S'Faisal Nazarkhel'
tp523
a(S'100000292620056'
S'Zohra Dedar'
tp524
a(S'100007023964758'
S'Salman Khan'
tp525
a(S'100002767440687'
S'Nida Zain'
tp526
a(S'1820170408'
S'Wahid Hassan Zadah'
tp527
a(S'100008225141864'
S'Maryam Wafa'
tp528
a(S'100002526931539'
S'Ishaq Safi'
tp529
a(S'100003277724512'
S'Ramzia Sajed'
tp530
a(S'100005699945604'
S'Aubidullah Osmani'
tp531
a(S'100002246528984'
S'\\u062d\\u0628\\u064a\\u0628 \\u0627\\u0644\\u0644\\u0647 \\u0645\\u0644\\u0646\\u0643'
tp532
a(S'100006465739555'
S'Meraj Jalali'
tp533
a(S'100005305600642'
S'Setara Anwery'
tp534
a(S'100003824462146'
S'Krizhiana Emata'
tp535
a(S'100000686468843'
S'Ghurzang Safi'
tp536
a(S'100001424799463'
S'Abdullah Saeed'
tp537
a(S'100008373875614'
S'Maryam Safi'
tp538
a(S'100005428483677'
S'Shahid Ebrahimi'
tp539
a(S'100002656807907'
S'Abdul Qudoos'
tp540
a(S'100006467231075'
S'Ahmad Zia Barakzai'
tp541
a(S'100002161726287'
S'Muneeb Hammasi'
tp542
a(S'100001327135145'
S'Maria Bashir'
tp543
a(S'100002368534705'
S'Yahyar Dostyar'
tp544
a(S'100005768287506'
S'Mary Rose Duhaylungsod Garganian'
tp545
a(S'100005788591363'
S'Said Wali'
tp546
a(S'100007377190157'
S'Kaleem Hemmat'
tp547
a(S'100005636531263'
S'Donya Sadeqi'
tp548
a(S'100006953910623'
S'Taher Wafa'
tp549
a(S'100003654737585'
S'Kharen Joy Mena'
tp550
a(S'100002791177310'
S'Sadiq Safi'
tp551
a(S'100006431386414'
S'Sharif Khan'
tp552
a(S'100005112970990'
S'Aapi Afg'
tp553
a(S'100004782970166'
S'Zarghon Shah Babakarkhil'
tp554
a(S'100003937627795'
S'Naqibullah Jalalzai'
tp555
a(S'100003542455940'
S'Lima Nooristani'
tp556
a(S'100006549185108'
S'Farman Safi'
tp557
a(S'100004026824789'
S'\\u062d\\u0642\\u064a\\u0627\\u0631 \\u0632\\u0631\\u0645\\u062a\\u064a \\u0645\\u0648\\u062d\\u062f'
tp558
a(S'100001081028310'
S'Wali Hatam'
tp559
a(S'100007760498153'
S'\\u062f\\u0627\\u0648\\u062f \\u06a9\\u0645\\u0627\\u0644\\u06cc'
tp560
a(S'100001953196429'
S'Inayatullah Salarzai'
tp561
a(S'100002083175277'
S'Abdullah Khan Safi Wahdat'
tp562
a(S'100005612311522'
S'Jamal Sapi'
tp563
a(S'100004554724872'
S'All Safi'
tp564
a(S'100002562501130'
S'Naser Hotak'
tp565
a(S'100007119306492'
S'Said Rahman'
tp566
a(S'100004309146072'
S'Nida Jan Ahmadi'
tp567
a(S'100003811831104'
S'Qamaruddin Qamar'
tp568
a(S'827564446'
S'Basir Ahmad Wahab'
tp569
a(S'100005091304607'
S'Latifa Azizi'
tp570
a(S'100003383906711'
S'Kandahar Newss'
tp571
a(S'100005763703828'
S'Habibullah Saif'
tp572
a(S'100007539761102'
S'Rafiullah Safi'
tp573
a(S'100004801301687'
S'Elham Gholamy'
tp574
a(S'100008263710784'
S'Jinagil Canuday'
tp575
a(S'100001565790169'
S'Zarlasht Parwani'
tp576
a(S'100000348569152'
S'Rumaika Saleem'
tp577
a(S'100001728031960'
S'Khalida Pashtun'
tp578
a(S'100004833934097'
S'Celine Grims'
tp579
a(S'100005292577841'
S'\\u0639\\u0644\\u0627\\u0645\\u062a \\u0647\\u0627\\u06cc \\u0634\\u06cc\\u0637\\u0627\\u0646 \\u067e\\u0631\\u0633\\u062a\\u06cc'
tp580
a(S'100003843450277'
S'Mashal Afzali'
tp581
a(S'100004092795888'
S'Najeeburahman Safi'
tp582
a(S'100008218785378'
S'Mohammad Rezaye'
tp583
a(S'100005739887195'
S'Abdulatif Alfazli'
tp584
a(S'100003634197542'
S'\\u0643\\u0641\\u0627\\u064a\\u0629 \\u0627\\u0644\\u0644\\u0647 \\u0627\\u0644\\u0635\\u0627\\u0641\\u064a'
tp585
a(S'100005901511312'
S'Yaqoub Khaksar'
tp586
a(S'100005520752384'
S'Islami Book'
tp587
a(S'100004976281578'
S'Jamsheed Malikzi'
tp588
a(S'100002152899366'
S'Abdul Wali Sadiq'
tp589
a(S'100000986998802'
S'Sharifa Alizada'
tp590
a(S'100003218162577'
S'Abdul Basir'
tp591
a(S'100001692834907'
S'Saima Khan'
tp592
a(S'100007741205715'
S'Ihsanullah Safi'
tp593
a(S'100003570996080'
S'\\u063a\\u0627\\u0632\\u0649 \\u062e\\u0631\\u0627\\u0633\\u0627\\u0646\\u064a'
tp594
a(S'100002224163073'
S'Amin Safi'
tp595
a(S'100001371805567'
S'Mari'
tp596
a(S'100003357732037'
S'Hikmatullah Qazi'
tp597
a(S'100005966551574'
S'Yaqoob Shahzad'
tp598
a(S'100005447377052'
S'Najiba Dilbar'
tp599
a(S'100001593013055'
S'Deyanaa Wardak'
tp600
a(S'100003159119258'
S'\\u0627\\u0641\\u063a\\u0627\\u0646\\u0633\\u062a\\u0627\\u0646 \\u0633\\u0648\\u067e\\u0631 \\u0644\\u06cc\\u06ab'
tp601
a(S'100004404219523'
S'\\u0641\\u0627\\u062a\\u062d \\u0635\\u0627\\u0641\\u064a'
tp602
a(S'100003276114304'
S'Sadiqullah Safi'
tp603
a(S'100006438981014'
S'Beverly A Canuday'
tp604
a(S'100008231718734'
S'\\u0634\\u0639\\u064a\\u0628 \\u06a9\\u0627\\u06a9\\u0691'
tp605
a(S'100002459255851'
S'An-an Nabas'
tp606
a(S'100003631308434'
S'Ikram Safi'
tp607
a(S'100007736587860'
S'Khatara Bamyani'
tp608
a(S'100001116121056'
S'Samiullah Pashadwal'
tp609
a(S'100000630992990'
S'Muskhan Khan'
tp610
a(S'100003384153973'
S'Katib Shah Katib'
tp611
a(S'100004052546944'
S'\\u0645\\u062d\\u0645\\u062f \\u0623\\u062d\\u0645\\u062f'
tp612
a(S'100000343928438'
S'Niamatullah Safi'
tp613
a(S'100002275797213'
S'Abdullah Noori'
tp614
a(S'100000370696523'
S'Saeed Ahmed'
tp615
a(S'100005353323096'
S'Danny Lee'
tp616
a(S'100002376710324'
S'Qazi Ibrahim Himmat'
tp617
a(S'100002012211479'
S'Inayat Khan'
tp618
a(S'100004957501621'
S'Celine M Grims'
tp619
a(S'100003406339299'
S'Maria Doyola'
tp620
a(S'100001850014013'
S'Lima Sahar'
tp621
a(S'100002917541175'
S'Abdulhameed Hemat'
tp622
a(S'100006606901464'
S'Rosie Nogueras'
tp623
a(S'100007841736642'
S'Saida Jan Ibrahimkhil'
tp624
a(S'100007565760705'
S'Amin Safi'
tp625
a(S'100004699110142'
S'Mansoor Himat'
tp626
a(S'100004411413594'
S'Ismailshahzad Safi'
tp627
a(S'100001235316117'
S'King Khan'
tp628
a(S'100001867806458'
S'Saeed Khan'
tp629
a(S'100007287461127'
S'Ali Noori'
tp630
a(S'100006053857953'
S'Masehullah Hozife'
tp631
a(S'100003818678753'
S'\\u062d\\u0628\\u064a\\u0628 \\u0627\\u0644\\u0644\\u0647'
tp632
a(S'100003905622570'
S'Ahmad Madani'
tp633
a(S'100003925801692'
S'Saeedullah Saddat'
tp634
a(S'682658313'
S'Shahab Hilal'
tp635
asS'id'
p636
S'1553413930'
p637
sS'name'
p638
S'Inayat Lutfi'
p639
s.