(dp1
S'friends'
p2
(lp3
(S'100002302642013'
S'Malik Shahzad'
tp4
a(S'100008279926049'
S'Aadi Farooqi'
tp5
a(S'100006658810407'
S'Salma Nazir'
tp6
a(S'1559580456'
p7
S'Zahra Mukhtar'
tp8
a(S'100005990116563'
S'Kabhi Kabhi'
tp9
asS'id'
p10
g7
sS'name'
p11
S'Zahra Mukhtar'
p12
s.