(dp1
S'name'
p2
S'Ajay Pandey'
p3
sS'current_class'
p4
S'india'
p5
sS'home_class'
p6
Vranchi, jharkhand, india
p7
sS'home_text'
p8
VRanchi, Jharkhand\u000aHometown
p9
sS'current_link'
p10
Vhttps://www.facebook.com/l.php?u=https%3A%2F%2Fwww.bing.com%2Fmaps%2Fdefault.aspx%3Fv%3D2%26pc%3DFACEBK%26mid%3D8100%26where1%3D18.975000641097%252C%2B72.825622558594%26name%3DMumbai%252C%2BMaharashtra%252C%2BIndia%26mkt%3Den-IN&h=qAQH1Cyv0&s=1
p11
sS'home_link'
p12
Vhttps://www.facebook.com/l.php?u=https%3A%2F%2Fwww.bing.com%2Fmaps%2Fdefault.aspx%3Fv%3D2%26pc%3DFACEBK%26mid%3D8100%26where1%3D23.350000744252%252C%2B85.329437255859%26name%3DRanchi%252C%2BJharkhand%26mkt%3Den-IN&h=QAQFsB5tp&s=1
p13
sS'current_text'
p14
VMumbai, Maharashtra, India\u000aCurrent City
p15
sS'friends'
p16
(lp17
(S'100003194341528'
S'Ashok Kumar Singh'
tp18
a(S'100001183567996'
S'Manisha Mehta'
tp19
a(S'1654179530'
S'Ranjay Pandey'
tp20
a(S'740067369'
S'Aditya Mishra'
tp21
a(S'1650321121'
S'Prashant Pandey'
tp22
a(S'100001049258026'
S'Indranil Banerjee'
tp23
a(S'100006223773635'
S'Mishra Jitendra'
tp24
a(S'1045308055'
S'Praveen Kishore'
tp25
a(S'712634890'
S'Rajesh Bajaj'
tp26
a(S'1401160327'
S'Senthilvelavan Boominathan'
tp27
a(S'100000290138748'
S'Sundeep Nayak'
tp28
a(S'100004146013986'
S'Shyam Narayan Mahto'
tp29
a(S'100001904876257'
S'Anusha Khurana'
tp30
a(S'100001247655343'
S'Bhanudas Pingale'
tp31
a(S'1063880543'
S'Vijay Bahadur Verma'
tp32
a(S'100001320514941'
S'Maninder Anand'
tp33
a(S'1035139423'
S'Om Prakash'
tp34
a(S'100001405496269'
S'Agni Mitra'
tp35
a(S'727426839'
S'Mrityunjay Kumar Baranwal'
tp36
a(S'100006556719057'
S'Rohit Raj'
tp37
a(S'100000721954359'
S'Ysudhakara Sharma'
tp38
a(S'718883507'
S'Sanjeev Sharma'
tp39
a(S'1656279273'
S'Ajay Shekhar'
tp40
a(S'100000463313475'
S'Anil P. Chaware'
tp41
a(S'100002204526160'
S'Anupma Pandey'
tp42
a(S'100003830582019'
S'Vaibhav Shrivastava'
tp43
a(S'100000797758051'
S'Vijay Prakash Srivastav'
tp44
a(S'100003385361042'
S'Ritwik Pandey'
tp45
a(S'1740505055'
S'Subhashish Nath'
tp46
a(S'1023601167'
S'Gopal Krishna Dwivedi'
tp47
a(S'100004078883706'
S'Amit Shivsai'
tp48
a(S'100002454243774'
S'Dholak Rangila'
tp49
a(S'100003539407806'
S'Deepak Kumar'
tp50
a(S'100000619300708'
S'Deba Sonowal'
tp51
a(S'100000017149125'
S'Anurag Dubey'
tp52
a(S'100000605713174'
S'Prakash Sinha'
tp53
a(S'100000497547598'
S'Dev Prakash Meena'
tp54
a(S'1349805220'
S'Parrag Jaiin Nainutia'
tp55
a(S'563316773'
S'Harekrushna Panda'
tp56
a(S'790963873'
S'Sagar Mehta'
tp57
a(S'100001015305440'
S'Jainendra Kumar'
tp58
a(S'100000078385532'
S'Sanjay Kumar Khare'
tp59
a(S'1027542765'
S'Siddharth Jain'
tp60
a(S'100001291134450'
S'Ramji Rao Lella'
tp61
a(S'671916216'
S'Hemendra Khatana'
tp62
a(S'711807510'
S'Priyadarshika Srivastava'
tp63
a(S'1703935025'
S'Dnyaneshwar Patil'
tp64
a(S'731493408'
S'Akshay Deshmukh'
tp65
a(S'100001073812757'
S'Sanjay Nayak'
tp66
a(S'100001766525522'
S'Brajesh Mishra'
tp67
a(S'100007283165550'
S'Kirti Tripathy'
tp68
a(S'100000656941882'
S'Rakesh Dwivedi'
tp69
a(S'725786812'
S'Gaurav Shukla'
tp70
a(S'708808583'
S'Mritunjaya Sharma'
tp71
a(S'100000087739868'
S'Pawan Kumar Tiwari'
tp72
a(S'100003139813985'
S'Neelima Pandey'
tp73
a(S'100000623024315'
S'Saroj Ayush'
tp74
a(S'100001218971480'
S'Praful N Anju Patel'
tp75
a(S'100003656644046'
S'Vinod Pandey'
tp76
a(S'100000260524993'
S'Tasupalli Shyamala'
tp77
a(S'1763023729'
S'DrAshok Tiwari'
tp78
a(S'1741297180'
S'Ajay Dhoke'
tp79
a(S'100001053591699'
S'Dipika Goyal'
tp80
a(S'1603132651'
S'Rajesh Kumar'
tp81
a(S'100001979976416'
S'Pathak Binay Kumar'
tp82
a(S'1338292496'
S'Alok Mishra'
tp83
a(S'599547716'
S'Neha Thakur'
tp84
a(S'553604571'
S'Vivek Prasad'
tp85
a(S'633909595'
S'Ankush Kapoor'
tp86
a(S'599532820'
S'Ravindra Kumar'
tp87
a(S'100000405043117'
S'Kamal Yadav'
tp88
a(S'1327636083'
S'Abhineet Shukla'
tp89
a(S'100001632618883'
S'Ranu Sahu'
tp90
a(S'100001483554017'
S'Sunil Kumar Pandey'
tp91
a(S'1589762581'
S'Lalit Dehiya'
tp92
a(S'1507707591'
S'Dharmendra Pratap Singh'
tp93
a(S'1605216153'
S'Vinod Kumar Pandey'
tp94
a(S'100008150732074'
S'Tamanna Alam'
tp95
a(S'100000378435446'
S'Vibha Bhalla'
tp96
a(S'1342515884'
S'Manish Thakur'
tp97
a(S'100000240028901'
S'Hari Singh Rawat'
tp98
a(S'100000597677575'
S'Pratap Sharma'
tp99
a(S'1646349474'
S'Atul Singh'
tp100
a(S'100002334587962'
S'Raj Kumar Gupta'
tp101
a(S'100000647556818'
S'Sanjay Gupta'
tp102
a(S'1128561348'
S'Sushil Kumar'
tp103
a(S'100000315953083'
S'Mona Mohanty'
tp104
a(S'1438391535'
S'Arun Monga'
tp105
a(S'100003241760882'
S'Balakrishnan Nallusamy'
tp106
a(S'100001546443220'
S'Rajesh Jaju'
tp107
a(S'100000037520401'
S'Akhilendra Yadav'
tp108
a(S'100001561538636'
S'Narinder Kumar Budhiraja'
tp109
a(S'1599365334'
S'Mridula Sanchety'
tp110
a(S'1486491918'
S'Sanjay Shivam'
tp111
a(S'100002805786852'
S'Shashwat Prakash'
tp112
a(S'100002975868058'
S'Preeti Vishnoi'
tp113
a(S'100007428815701'
S'Pritam Singh'
tp114
a(S'753721368'
S'Ankesh Samkalp'
tp115
a(S'553219147'
S'Sanjay Sinha'
tp116
a(S'1177194441'
S'Sarbari Chowdhury'
tp117
a(S'100008290300109'
S'Muthukumara Samy'
tp118
a(S'1417767463'
S'Renuka Jaingupta'
tp119
a(S'1161766982'
S'Girish Chandorkar'
tp120
a(S'607181672'
S'Arun Mahesh Babu'
tp121
a(S'100004042215823'
S'Sweta Priyadarsi'
tp122
a(S'100003242506214'
S'Sanjay Sharan Mishra'
tp123
a(S'100000558473082'
S'Vinayak Trivedi'
tp124
a(S'100000622865306'
S'Narendra Kumar'
tp125
a(S'100003171563092'
S'Vijay Shrivastav'
tp126
a(S'100000006265063'
S'Jagdish Lakhani'
tp127
a(S'565673289'
S'Rajni Rani Roy'
tp128
a(S'100000052680823'
S'Nita Sinha'
tp129
a(S'100005002592577'
S'Kamal Kishore Prasad'
tp130
a(S'1040277860'
S'Nrusingh Swain'
tp131
a(S'572306295'
S'Sunil Suri'
tp132
a(S'1241898173'
S'Sunil Kumar'
tp133
a(S'100000752659624'
S'Brijesh Singhania'
tp134
a(S'1476545627'
S'Priya Ranjan Ghosh'
tp135
a(S'1537115457'
S'Umesh Mishra'
tp136
a(S'100002023077293'
S'\\u0e2a\\u0e34\\u0e07\\u0e2b\\u0e4c\\u0e0a\\u0e31\\u0e22 \\u0e18\\u0e23\\u0e23\\u0e21\\u0e19\\u0e34\\u0e15\\u0e22\\u0e4c'
tp137
a(S'100000097491563'
S'Trailokya Jena'
tp138
a(S'1532139990'
S'Anshu Shukla Pandey'
tp139
a(S'100000901437387'
S'Sudhakara Rao Dirisam'
tp140
a(S'100001748255616'
S'Gunjan Gupta'
tp141
a(S'100005988122059'
S'Abhijeet Kumar'
tp142
a(S'100000404422187'
S'Sanjay Kumar Chaurasia'
tp143
a(S'100007411174959'
S'Vinita Tiwari'
tp144
a(S'100001461143561'
S'Rashmi Mishra'
tp145
a(S'1472344034'
S'Kc Badhok'
tp146
a(S'1542945829'
S'Shanteshwar Swami'
tp147
a(S'100000564743275'
S'Supriya Rao'
tp148
a(S'1141334461'
S'Barchaswa Mandal'
tp149
a(S'100003514650059'
S'Neeraj Kushwaha'
tp150
a(S'724163872'
S'Sanjiv Singh'
tp151
a(S'100001869194272'
S'Soreithem Raingam'
tp152
a(S'1594727522'
S'Vivek Bhasin'
tp153
a(S'100000409450032'
S'Ashwani Taneja'
tp154
a(S'100000988951106'
S'Amit Kumar Sharma Irs'
tp155
a(S'1563463598'
S'Manish Mohan'
tp156
a(S'100000031899095'
S'Jayasankar Neelakantan'
tp157
a(S'1674207270'
S'Viswanath Ganapathy'
tp158
a(S'100001779123714'
S'Simran Sood'
tp159
a(S'1505645628'
S'Pravir Dahiya'
tp160
a(S'100002455147570'
S'Manjunath Sullolli'
tp161
a(S'597533957'
S'Suprotik Ghose'
tp162
a(S'1694216577'
S'Lalit Bishnoi'
tp163
a(S'100002574662998'
S'Ram Prakash'
tp164
a(S'1347084678'
S'Chandu Tashildar'
tp165
a(S'1490490599'
S'Rahul Navin'
tp166
a(S'100001432627606'
S'Dr-Divya Krishna'
tp167
a(S'100000420414821'
S'Ca Haren Shah'
tp168
a(S'1407826336'
S'P Soma Shekar Reddy'
tp169
a(S'1340746858'
S'Urvashi Saxena'
tp170
a(S'1230763711'
S'Uday Shankar Jha'
tp171
a(S'525712879'
S'Kranti Yadav'
tp172
a(S'100003267239359'
S'Shankar Lal Verma'
tp173
a(S'100000791602108'
S'Satish Tiwary'
tp174
a(S'100002898120039'
S'Indra Pratap Singh'
tp175
a(S'520264856'
S'Sanjeev Sinha'
tp176
a(S'656171918'
S'Prashant Ranjan'
tp177
a(S'100002611225301'
S'Jayant Tripathi'
tp178
a(S'1126283667'
S'Rajeev Gupta'
tp179
a(S'100001993983164'
S'Upendra Verma'
tp180
a(S'100000169340713'
S'Jitender Kumar'
tp181
a(S'1697689808'
S'Ashok Kumar Khandelwal'
tp182
a(S'1073581842'
S'Rajesh Hemrajani'
tp183
a(S'100001486486178'
S'Jitendra Shukla'
tp184
a(S'100001197297634'
S'Ashok Kumar Mitra'
tp185
a(S'561431554'
S'Sudhanshu Dhar Mishra'
tp186
a(S'1129594435'
S'Murali Mohan Reddy'
tp187
a(S'650892849'
S'Anurag Satydeo'
tp188
a(S'100003865517571'
S'Awinash Singh'
tp189
a(S'1726491855'
S'Ashwani Kumar'
tp190
a(S'100000362282748'
S'Dinesh Bisen'
tp191
a(S'1063637304'
S'Prabhakar Verma'
tp192
a(S'100001055326336'
S'Ayaz Kohli'
tp193
a(S'100000839894746'
S'Gaurav Singh'
tp194
a(S'1379745728'
S'Ashok Kardam'
tp195
a(S'100000124267063'
S'Bachababu Choubey'
tp196
a(S'100000293441289'
S'Awinash Kumar'
tp197
a(S'1003261709'
S'Mamta Singh'
tp198
a(S'100000394234831'
S'Rajesh Bhoot'
tp199
a(S'612273653'
S'Rama K Govindaraju'
tp200
a(S'634363514'
S'Asish Tripathy'
tp201
a(S'100001576630201'
S'Mohit Chawla'
tp202
a(S'100002282024301'
S'Narendra Yadav'
tp203
a(S'774324212'
S'Avi Prakash Sinha'
tp204
a(S'1140098233'
S'Sourav Daspatnaik'
tp205
a(S'100000259009890'
S'Shankar Gupta'
tp206
a(S'1175862860'
S'Satish Ramamurthy'
tp207
a(S'647378301'
S'Ashutosh Rajhans'
tp208
a(S'100000984780961'
S'Shrikant Ambastha'
tp209
a(S'100001183773802'
S'Nagendra Yadav'
tp210
a(S'1582472935'
S'Vatsalya Saxena'
tp211
a(S'596321182'
S'Rupesh Agrawal'
tp212
a(S'1587991248'
S'Virendra Ojha'
tp213
a(S'100003597548043'
S'Dinesh Singh Negi'
tp214
a(S'819468699'
S'Sanjay Agrawal'
tp215
a(S'776624772'
S'Srinivas Uriti'
tp216
a(S'1785805523'
S'Abha Singh'
tp217
a(S'100001568747170'
S'Mahender Bishnoi'
tp218
a(S'100000783996210'
S'Ram Kishore'
tp219
a(S'508294074'
S'Neha Garg Misra'
tp220
a(S'100001235033326'
S'Sumnesh Joshi'
tp221
a(S'100001272842831'
S'Abhishek Gramin'
tp222
a(S'1554401779'
S'Awanish Sharan'
tp223
a(S'1542167963'
S'Mohit Jain'
tp224
a(S'100001695441489'
S'Subhranil Mukherjee'
tp225
a(S'100001713910273'
S'Pallavi Akurathi Ias'
tp226
a(S'100000654218266'
S'Kavita Sharma'
tp227
a(S'514454812'
S'Uodal Raj'
tp228
a(S'571202678'
S'Deepak Hilori'
tp229
a(S'100003714682739'
S'Mona Goyal'
tp230
a(S'588233659'
S'Parul Sharma'
tp231
a(S'623204462'
S'M Karthi Keyan'
tp232
a(S'100001550272378'
S'Vikash Shankar'
tp233
a(S'1286208105'
S'Pramod Anand Misra'
tp234
a(S'1667769308'
S'Shailendra Shrivastava'
tp235
a(S'1844194497'
S'Satya Prasant P'
tp236
a(S'100001740020695'
S'Vishwas Gite'
tp237
a(S'1093426958'
S'Deepak Tiwari'
tp238
a(S'100000237878339'
S'Vinod Sharma'
tp239
a(S'525278876'
S'Shirish Kumar'
tp240
a(S'681818101'
S'Hari Vr'
tp241
a(S'100001083277075'
S'Antrip Sood'
tp242
a(S'100001056508061'
S'Ravinder Taneja'
tp243
a(S'1526050852'
S'Rupak Banerjee'
tp244
a(S'1079950134'
S'Manu Malik'
tp245
a(S'1236829682'
S'Premanand Jothy'
tp246
a(S'100001944026171'
S'Pramod Kumar Yadav'
tp247
a(S'100001820383066'
S'Suman Kumar'
tp248
a(S'100004391580554'
S'Athikho Obou'
tp249
a(S'100000841110344'
S'Manu Chaurasia'
tp250
a(S'1052958592'
S'Adarsh Modi'
tp251
a(S'1836406822'
S'Arindam Mitra'
tp252
a(S'100000107757587'
S'Vijay Kumar'
tp253
a(S'607082340'
S'Hukum C Jain'
tp254
a(S'679908006'
S'Ravi Kiran K'
tp255
a(S'1766106525'
S'Sarita Kumari'
tp256
a(S'100000443972896'
S'Jitendra Kumar Pandey'
tp257
a(S'100000587382744'
S'Deepi Agrawal'
tp258
a(S'1362651245'
S'Manoj Choudhary'
tp259
a(S'100000016542553'
S'DrJaya Shrivastava'
tp260
a(S'100001906542220'
S'Subashri Murugesan'
tp261
a(S'1485983322'
S'Rajiva Lochan Singh'
tp262
a(S'100002116154677'
S'Sujit Kumar'
tp263
a(S'1064739424'
S'Ramprasad Badana'
tp264
a(S'100002439840386'
S'Vishnu Kumar'
tp265
a(S'1098616890'
S'Praduymn Kumar Tripathi'
tp266
a(S'1803199067'
S'Sunil Bothra'
tp267
a(S'1328183571'
S'Dharmendra Pratap Singh'
tp268
a(S'100000812713383'
S'Rakesh Verma'
tp269
a(S'633894249'
S'Srinivas Kumar Badugu'
tp270
a(S'100001505441130'
S'Dileepkumar Pandey'
tp271
a(S'574396714'
S'Narmadeshwar Lal'
tp272
a(S'100000191860927'
S'Jaya Singh Panda'
tp273
a(S'1608699390'
S'Amrita Misra'
tp274
a(S'1721828981'
S'Saurabh Kant Shukla'
tp275
a(S'807232699'
S'Sudhakar Namdeo Shinde'
tp276
a(S'1029035216'
S'Shailendra Handa'
tp277
a(S'722030600'
S'Aishwarya Sahay'
tp278
a(S'817088956'
S'Kumar Raajesh'
tp279
a(S'1422971233'
S'Ajit Uchoi'
tp280
a(S'1306673178'
S'Sridhar Babu Addanki'
tp281
a(S'672792890'
S'Vinay Kumar Singh'
tp282
a(S'100001298964729'
S'Amitbhanu Pandey'
tp283
a(S'100004064599317'
S'Smarajit Banerjee'
tp284
a(S'100000357179139'
S'Akhil Tyagi'
tp285
a(S'100001805821831'
S'Prithvipal Singh Kanawat'
tp286
a(S'1442770746'
S'Shailendra Sharma'
tp287
a(S'1144473785'
S'Sanjeev Saily'
tp288
a(S'755570696'
S'Vinay Pratap Singh'
tp289
a(S'1132834264'
S'Senthil Avoodai'
tp290
a(S'849020607'
S'Neelabh Jha'
tp291
a(S'100001420750293'
S'Parvej Patel'
tp292
a(S'100002021120555'
S'Siddu Sajjan'
tp293
a(S'590153464'
S'Rolee Agarwal'
tp294
a(S'612704316'
S'Abhinav Gupta'
tp295
a(S'579408403'
S'Tarun Kochhar'
tp296
a(S'1260979602'
S'Heera Lal'
tp297
a(S'100002448101049'
S'Richa Rastogi Gupta'
tp298
a(S'100000197785575'
S'Vikas Garg'
tp299
a(S'100001883304311'
S'Kumud Jha'
tp300
a(S'100001638337993'
S'Kiran Rai'
tp301
a(S'100002638820216'
S'Aruna Singh'
tp302
a(S'1719836961'
S'Shailesh Tiwari'
tp303
a(S'100000759077890'
S'Sameer Srivastava'
tp304
a(S'100000654589478'
S'Hitesh Varma'
tp305
a(S'100003894843363'
S'Mahesh Chandra'
tp306
a(S'1017731794'
S'Rajendra Kumar Agrawal'
tp307
a(S'716384027'
S'Purushottam Kumar'
tp308
a(S'100002368030293'
S'SentiTula Pongen'
tp309
a(S'100000981876788'
S'Dharm Veer Singh'
tp310
a(S'1548605393'
S'Satish Sharma'
tp311
a(S'100000566687622'
S'Alok Tiwari'
tp312
a(S'100003876463494'
S'Kumud Jha'
tp313
a(S'1409801730'
S'Albert Jodhimani'
tp314
a(S'100001887173146'
S'S Selva Murugan'
tp315
a(S'100001538507941'
S'Shankar Pandey'
tp316
a(S'100001198230607'
S'Ashish Kumar'
tp317
a(S'600504874'
S'Rahul Kumar'
tp318
a(S'1294206173'
S'Samir Garg'
tp319
a(S'1496555685'
S'Ann Kapthuama Kale'
tp320
a(S'100000584449021'
S'Vinay Misra'
tp321
a(S'1458937655'
S'Mukesh Ranjan Das'
tp322
a(S'100002201848490'
S'Kamesh Shukla'
tp323
a(S'608931464'
S'Ranjai Singh Rathore'
tp324
a(S'1156017995'
S'Sushil Madhuk'
tp325
a(S'1798614558'
S'Prashant Gadekar'
tp326
a(S'100004710690710'
S'TN Choubey'
tp327
a(S'100002310790580'
S'Subhash Dhar'
tp328
a(S'100002239378115'
S'Novel Roy'
tp329
a(S'630814929'
S'Prabhushankar T Gunalan'
tp330
a(S'100001914177234'
S'Shagufta Jabeen'
tp331
a(S'100002553444314'
S'Robindro Huidrom Singh'
tp332
a(S'100002851022306'
S'Swati Chopra'
tp333
a(S'100006187896179'
S'Ashish Sharma'
tp334
a(S'1003328340'
S'Ashish Chandra'
tp335
a(S'100004308630150'
S'Akbar Abu'
tp336
a(S'100002977358277'
S'Sunny Mishra'
tp337
a(S'1553109036'
S'CA Sanjay Agarwal'
tp338
a(S'100008362273628'
S'Payal Kamat'
tp339
a(S'823488501'
S'Sobhan Kar'
tp340
a(S'637927920'
S'Aindra Misra'
tp341
a(S'100002306256656'
S'Anupam Arsh'
tp342
a(S'100001620558620'
S'Aman Choudhary'
tp343
a(S'765719795'
S'Ajay Kumar Jha'
tp344
a(S'100001792576151'
S'Sundar Rajan'
tp345
a(S'100002283207130'
S'Krishna Kumar Singh'
tp346
a(S'100000883661889'
S'Anil Dhaka'
tp347
a(S'100002238902787'
S'Anurag Agrawal'
tp348
a(S'100000723219230'
S'Gaurav Dwivedi'
tp349
a(S'100000728716516'
S'Ajay Modi'
tp350
a(S'554240967'
S'Vijay Kumar Jain'
tp351
a(S'1128641877'
S'Mayank Sharma'
tp352
a(S'763960071'
S'Ashish Heliwal'
tp353
a(S'605881885'
S'Suresh Singh'
tp354
a(S'100001703127105'
S'Sanjeeva Kumar Singh'
tp355
a(S'1096594372'
S'Ratinder Sidhu Sandhu'
tp356
a(S'100001285624092'
S'Poonam Shukla'
tp357
a(S'100003693260181'
S'Abdul Mannan'
tp358
a(S'1717361512'
S'Purushottam Tripuri'
tp359
a(S'100001130530033'
S'Shivi Prasad Madhukar'
tp360
a(S'100002371523312'
S'Narendra Dukiya'
tp361
a(S'1466015771'
S'Jasdeep Singh'
tp362
a(S'1090457076'
S'Susie Varghese'
tp363
a(S'1391808613'
S'Girindra Singh'
tp364
a(S'100000001180862'
S'Vikram Sankhala'
tp365
a(S'1128754458'
S'Mahesh Jiwade'
tp366
a(S'100003932798994'
S'Prerna Pandey'
tp367
a(S'100002128707548'
S'Padma Lotus'
tp368
a(S'1311446659'
S'Sant Mantri'
tp369
a(S'100000091470995'
S'Ajay Batra'
tp370
a(S'1587043193'
S'Raj Rajendresh'
tp371
a(S'548479272'
S'Devyani Khobragade'
tp372
a(S'100001064182586'
S'Anand Saxena'
tp373
a(S'100004255689932'
S'Rajendra Pratap Singh'
tp374
a(S'789468621'
S'Arun S Bhatnagar'
tp375
a(S'100002396484078'
S'Ramakrishna Bandi'
tp376
a(S'779538710'
S'Daljeet Singh'
tp377
a(S'100006091536066'
S'Ratan Singh'
tp378
a(S'100005772793545'
S'Sushant Kumar'
tp379
a(S'1203880674'
S'Anoop Kumar Sharma'
tp380
a(S'1135299941'
S'Shivendra Gupta'
tp381
a(S'1082145714'
S'Shantanu Ghosh'
tp382
a(S'650309016'
S'Deepankar Mehrotra'
tp383
a(S'100004629791485'
S'Ashutosh Dubey'
tp384
a(S'100002071908191'
S'Jaya Singh Chauhan'
tp385
a(S'1120786918'
S'Dinesh Kumar Yadav'
tp386
a(S'100001639502544'
S'Shiv Sharma'
tp387
a(S'100000564105731'
S'Devendra Prasad'
tp388
a(S'100001972897608'
S'Umesh Bharti'
tp389
a(S'100000073338354'
S'Sachindra Singh'
tp390
a(S'100002009700233'
S'Ramesh Kumar Choudhary'
tp391
a(S'100001115832999'
S'Arun Kumar Singh'
tp392
a(S'100000932485684'
S'Deepa Ganiger'
tp393
a(S'1092004237'
S'Ram Tiwari'
tp394
a(S'100006754038540'
S'Rajesh Kumar Gupta'
tp395
a(S'100000677270182'
S'Gurjit Gandhi'
tp396
a(S'661236943'
S'Partha Sarathy B C'
tp397
a(S'610415044'
S'PK Sinha'
tp398
a(S'1287318712'
S'Naresh Balodia'
tp399
a(S'100000055052127'
S'Sunil Kumar Singh'
tp400
a(S'573122485'
S'Satya Pal Kumar'
tp401
a(S'1564281673'
S'Gaurav Shah'
tp402
a(S'1325143421'
S'Rangnath Jha'
tp403
a(S'100001985923971'
S'Anuradha Mookerjee'
tp404
a(S'100003135843698'
S'Avinash Kumar'
tp405
a(S'1034282055'
S'Abhinay Kumbhar'
tp406
a(S'687108530'
S'Sunil Arora'
tp407
a(S'100000742041174'
S'Pallavi Singh'
tp408
a(S'1680911501'
S'Ajay Banka'
tp409
a(S'100003130766859'
S'Saloni Barsia'
tp410
a(S'100001120930467'
S'Rajesh Pandey'
tp411
a(S'100000051174510'
S'Suresh Battini'
tp412
a(S'1623427993'
S'Prafulla Mishra'
tp413
a(S'1833495679'
S'Hemant Jain'
tp414
a(S'100002904670562'
S'Satish Goyal'
tp415
a(S'100001791104774'
S'Subodh Sharma'
tp416
a(S'708558175'
S'Jagdish Saran'
tp417
a(S'100001291650581'
S'Sanjay Kumar Khatri'
tp418
a(S'1460437931'
S'Somnath Wajale'
tp419
a(S'100006326071474'
S'Ishita Pandey'
tp420
a(S'100003848103301'
S'Smita Misra'
tp421
a(S'615632175'
S'Prasenjit Singh'
tp422
a(S'1021592749'
S'Ajay Lamba'
tp423
a(S'100002515381848'
S'Sunil Verma'
tp424
a(S'1254223937'
S'Syed Ashraf'
tp425
a(S'758098112'
S'Saji Philip'
tp426
a(S'1683795255'
S'Renga Rajan Irs'
tp427
a(S'100002485014466'
S'Priyanka Patel'
tp428
a(S'100000481806974'
S'Keshaw Kumar'
tp429
a(S'815923344'
S'Aseem Chandra'
tp430
a(S'100001998203107'
S'Shailesh Singh'
tp431
a(S'100000639846578'
S'Siva Sankaran'
tp432
a(S'100001917054892'
S'Atul Kumar'
tp433
a(S'100000947849045'
S'Rohit Mahajan'
tp434
a(S'1587073178'
S'Sudeep Kaur'
tp435
a(S'100000326640603'
S'Vikas Singh'
tp436
a(S'1066806180'
S'Amit Mohan Govil'
tp437
a(S'1024624863'
S'Ramnik Singh'
tp438
a(S'1370521402'
S'Gurjeet Budhraja'
tp439
a(S'100001654128180'
S'Yogendra Gaiha'
tp440
a(S'100000877304257'
S'Surender Kumar'
tp441
a(S'100001001434000'
S'Mohammed Asghar'
tp442
a(S'100002954292316'
S'Ashok Dubey'
tp443
a(S'1277236948'
S'Ansuman Pattnaik'
tp444
a(S'100003181553492'
S'Umed Singh'
tp445
a(S'719291458'
S'Mathivanan Sa'
tp446
a(S'1130435278'
S'Inder Solanki'
tp447
a(S'100001257924385'
S'Rajiv Singh'
tp448
a(S'100003146891733'
S'Vijay Pandey'
tp449
a(S'713847701'
S'Anish Suri'
tp450
a(S'100003322324091'
S'Sunil Ara'
tp451
a(S'100006540936627'
S'Dhananjay Pandey'
tp452
a(S'662831250'
S'Harish Chandra Roy'
tp453
a(S'1354428230'
S'Rajeev Ranjan Irs'
tp454
a(S'100000495854480'
S'Ravi Shankar'
tp455
a(S'100001219083285'
S'Sangeeta Alphonso'
tp456
a(S'100001216597401'
S'Nasir Ali'
tp457
a(S'1179310494'
S'Vikas Sangwan'
tp458
a(S'1280227687'
S'Paul Joseph'
tp459
a(S'100003913351885'
S'Neha Choudhary'
tp460
a(S'100000520659567'
S'Amit Jain'
tp461
a(S'100000955314756'
S'Rinku Kumari'
tp462
a(S'100000940978529'
S'Anees Cherkunnath'
tp463
a(S'599706956'
S'Smarak Swain'
tp464
a(S'1549235328'
S'Alok Kumar Tripathi'
tp465
a(S'1819096330'
S'A Plus Editing'
tp466
a(S'100000094276195'
S'Ranjan Sharma'
tp467
a(S'100002162427455'
S'Niranjan Kouli'
tp468
a(S'821843851'
S'Nirupama Kotru'
tp469
a(S'100001005674073'
S'Kiran Pasi'
tp470
a(S'1079453739'
S'Karun K Ojha'
tp471
a(S'100000316006534'
S'Yogesh Verma'
tp472
a(S'100004858635438'
S'Robin Kumar'
tp473
a(S'542983143'
S'Sudiksha Sehra'
tp474
a(S'557216910'
S'JD Pati'
tp475
a(S'100000238448130'
S'Ajit Kumar Singh'
tp476
a(S'100001866832751'
S'Santosh Navalur'
tp477
a(S'100001192058136'
S'Sanjiv Kumar'
tp478
a(S'100002278956874'
S'Shashi Prasad'
tp479
a(S'100002620738744'
S'Ranjana Singh'
tp480
a(S'669060702'
S'Amaninder Singh Dhindsa'
tp481
a(S'1232738597'
S'Binaya Srikanta Pradhan'
tp482
a(S'100000814396159'
S'Brindha Devarajan'
tp483
a(S'100002904005145'
S'Mrinal Singh'
tp484
a(S'1027984938'
S'George Jenner'
tp485
a(S'100000846079151'
S'Preeti Jain'
tp486
a(S'1052804787'
S'Bhaskar Vemuri'
tp487
a(S'713324832'
S'Satish Arora'
tp488
a(S'100004684922051'
S'Girish Sharma'
tp489
a(S'100001347226621'
S'Anant Aashish'
tp490
a(S'738245834'
S'Abhay Damle'
tp491
a(S'100000903885223'
S'\\u092e\\u0923\\u093f\\u0930\\u093e\\u092e\\u0928\\u094d \\u0930\\u093e\\u092e'
tp492
a(S'625135916'
S'Girish N Pande'
tp493
a(S'100001148893403'
S'Neha Nitin Tyagi'
tp494
a(S'1480530641'
S'Sree Kar'
tp495
a(S'100003074524630'
S'Sanjeev Reddy'
tp496
a(S'100000477841995'
S'Vivek Ojha'
tp497
a(S'100002628310148'
S'Vivek Wadekar'
tp498
a(S'100001706412014'
S'Karthic Inba'
tp499
a(S'1561527446'
S'Vinod Sharma'
tp500
a(S'713337067'
S'Santosh Gupte'
tp501
a(S'100001881081837'
S'Shivani Dogra'
tp502
a(S'100000148427421'
S'Narendra Babu'
tp503
a(S'100000591004974'
S'Nikhil Choudhary'
tp504
a(S'1336997450'
S'Hari Narayan'
tp505
a(S'1545048226'
S'Serbjeet Prasad'
tp506
a(S'100007507265998'
S'Khushboo Chaudhari'
tp507
a(S'1137571482'
S'Uma Shankar Dhyani'
tp508
a(S'100000631166013'
S'Niteen Yeola'
tp509
a(S'1750297465'
S'Pramila Kishore'
tp510
a(S'1551284046'
S'Bharat Bhushan'
tp511
a(S'100006451360487'
S'Mukeshkumar Bhamoo'
tp512
a(S'100001077579472'
S'Shubhanjan Das'
tp513
a(S'100001631903251'
S'Jyoti Shah'
tp514
a(S'1811860103'
S'Srinivas Goka'
tp515
a(S'100001529474678'
S'Durga Lal Meena'
tp516
a(S'100003073232633'
S'Awanish Tiwari'
tp517
a(S'100003698464259'
S'Shivam Shaurya'
tp518
a(S'702506242'
S'Salil Gupta'
tp519
a(S'100004671583763'
S'Abhishek Kumar'
tp520
a(S'564780179'
S'Deepti Chandola'
tp521
a(S'100000925880178'
S'Kailashpati Mishra'
tp522
a(S'1656909542'
S'Binod Kumar Singh'
tp523
a(S'645820459'
S'Saurav Shah'
tp524
a(S'718523325'
S'Subhash Misra'
tp525
a(S'100000292299487'
S'Monika Singh'
tp526
a(S'574963598'
S'Sanjay Bhoosreddy'
tp527
a(S'100001864403148'
S'Ajay Kumar'
tp528
a(S'613347122'
S'Vinay Kumar Singh'
tp529
a(S'834637519'
S'Hari Rao'
tp530
a(S'100001350622076'
S'Rakesh Ranjan'
tp531
a(S'692756653'
S'Ashwin Rao'
tp532
a(S'100003148983144'
S'Saurabh Dubey'
tp533
a(S'1720582307'
S'Raghuveer Yadav'
tp534
a(S'1064547969'
S'Amitabh Kumar'
tp535
a(S'100002700348635'
S'Ashutosh Pande'
tp536
a(S'1329464009'
S'Kumar Ajay Singh'
tp537
a(S'100000251271527'
S'Dilip Garhwal'
tp538
a(S'100001592752264'
S'Ramesh Reddy Avula'
tp539
a(S'100000123914075'
S'Sanjay Bharati'
tp540
a(S'1569806988'
S'Basavaraj Hiremath'
tp541
a(S'100002785442761'
S'Neelima Igbv Ias'
tp542
a(S'100005756164876'
S'ChandanKrishna Mukherjee'
tp543
a(S'1169799802'
S'Debashis Chakravarty'
tp544
a(S'1848624235'
S'Ajeeta Babu'
tp545
a(S'1031224060'
S'Ashwani Kumar Singal'
tp546
a(S'1543617186'
S'Vishvas Sapkal'
tp547
a(S'1740521643'
S'Charanjeet Singh Gulati'
tp548
a(S'100006511399259'
S'Akhil Lal'
tp549
a(S'100001531584557'
S'Suganthi Bose'
tp550
a(S'100001586464149'
S'Poonam Pandey'
tp551
a(S'100000739387034'
S'Sahil Bansal'
tp552
a(S'596534026'
S'Anindita Ghosh'
tp553
a(S'1107802857'
S'Amol Kamat'
tp554
a(S'100000861852332'
S'Satish Goyal'
tp555
a(S'1099389609'
S'Sanjoy Dubey'
tp556
a(S'100000827333278'
S'Thakur Singh Mapwal'
tp557
a(S'100002017187946'
S'Aseem Sharma'
tp558
a(S'100002071589267'
S'Rajiv Chavan'
tp559
a(S'100003048545567'
S'Rajesh Nambiar'
tp560
a(S'100007973199055'
S'Vijaya Bharati'
tp561
a(S'567708456'
S'Shishir Srivastava'
tp562
a(S'1072194092'
S'Vikram Bhushan'
tp563
a(S'1769154866'
S'Asanta Kumar Sabui'
tp564
a(S'100001498831778'
S'Diptiman Gupta'
tp565
a(S'100000820762320'
S'Jk Mishra'
tp566
a(S'1340015065'
S'Krishna G Goyal'
tp567
a(S'574609226'
S'Mukul Swaroop'
tp568
a(S'100000155045209'
S'Belarhalli Guru Prasad'
tp569
a(S'100003901280873'
S'\\u0930\\u093e\\u091c\\u0940\\u0935 \\u0915\\u0941\\u092e\\u093e\\u0930 \\u0936\\u094d\\u0930\\u0940\\u0935\\u093e\\u0938\\u094d\\u0924\\u0935'
tp570
a(S'703981609'
S'Shailendra Mishra'
tp571
a(S'1568984362'
S'Waseem Rehman'
tp572
a(S'100003620878045'
S'Pawan Dhanuka'
tp573
a(S'100002441605512'
S'Pranab Kumar Mishra'
tp574
a(S'100002452939857'
S'Jawwad Khan'
tp575
a(S'1825837949'
S'Umesh Chandra Mishra'
tp576
a(S'100002027891376'
S'Anup Kumar Hemrom'
tp577
a(S'100000605060456'
S'Rajeev Kumar'
tp578
a(S'100001440568053'
S'Swaroop Bhardwas'
tp579
a(S'586449721'
S'Kamal Kumar'
tp580
a(S'627791732'
S'Vinod Kumar'
tp581
a(S'665993618'
S'Subhass Dubey'
tp582
a(S'100000498072238'
S'Akhtar Hussain Irs'
tp583
a(S'100004038572115'
S'Dinesh Sinha'
tp584
a(S'100003865522538'
S'Vikas Garg'
tp585
a(S'1810204972'
S'Kumar Vs'
tp586
a(S'100001244501364'
S'Sanket Bhondve'
tp587
a(S'583364739'
S'Nupur Prasad'
tp588
a(S'767279757'
S'Tariq Aziz'
tp589
a(S'100002791070405'
S'Anuj Kumar'
tp590
a(S'1285004256'
S'Vaibhav Shrivastava'
tp591
a(S'1717027375'
S'Ashok Gautam'
tp592
a(S'100005210773103'
S'Devadasan Pn'
tp593
a(S'1207885708'
S'Ankur Alya'
tp594
a(S'100001095069212'
S'Amit Kumar Kushawaha'
tp595
a(S'100003628712663'
S'Manoj Doshi'
tp596
a(S'527082408'
S'Sandeep Saboo'
tp597
a(S'547827781'
S'Ari Singh'
tp598
a(S'1037131183'
S'Vijay Kumar'
tp599
a(S'1739185022'
S'Pranay Kumar'
tp600
a(S'100002437194878'
S'Sambit Tripathy'
tp601
a(S'100000686009244'
S'D.d. Mangal'
tp602
a(S'100004934376819'
S'Sudheesh Prince'
tp603
a(S'100002018169512'
S'Ravishanker Chaurasia'
tp604
a(S'637120839'
S'Monika Rana'
tp605
a(S'787317457'
S'Sanjay Budhwar'
tp606
a(S'100000983331976'
S'Ratneshwar Prasad'
tp607
a(S'100002779621951'
S'DrDipak Ripote'
tp608
a(S'1484495268'
S'Anurag Srivastava'
tp609
a(S'100002023082911'
S'Dinkar Naik'
tp610
a(S'100000287018960'
S'Dhirendra Pandey'
tp611
a(S'100003906879166'
S'Ashok D Suri'
tp612
a(S'542542187'
S'Abhinav Deshmukh'
tp613
a(S'1645473850'
S'Surendra Sehra'
tp614
a(S'1587753908'
S'Subhadip Sen'
tp615
a(S'100000554569068'
S'Prabhu Ns'
tp616
a(S'1546865934'
S'Prakash Nath Barnwal'
tp617
a(S'1577439466'
S'Pankaj Kr'
tp618
a(S'100001388899190'
S'Jyoti Ojha'
tp619
a(S'100000150927069'
S'Akhil Agarwal'
tp620
a(S'1400707971'
S'Santosh Kumar Singh'
tp621
a(S'1789790443'
S'Amar Singh'
tp622
a(S'1569571220'
S'Naval Kapoor'
tp623
a(S'100000621081453'
S'Alok Singh'
tp624
a(S'100003728467229'
S'Drjpn Palia'
tp625
a(S'100006127681166'
S'SN Raju'
tp626
a(S'1390070166'
S'Parichay Saxena'
tp627
a(S'1668155431'
S'Mahesh Kumar'
tp628
a(S'1127584277'
S'Vijay Manvatkar'
tp629
a(S'1414785125'
S'Gangadhar Panda'
tp630
a(S'100001971080197'
S'Niraj Bansal'
tp631
a(S'100002382761995'
S'Tsewang Tharchin'
tp632
a(S'100000466593665'
S'Vipin Mangal'
tp633
a(S'100000799080258'
S'Ravi Shanakar'
tp634
a(S'741529381'
S'Rekha Singh'
tp635
a(S'1622109478'
S'Prakash Mohan'
tp636
a(S'1609951241'
S'Vidhu Shekher Singh'
tp637
a(S'100002386904504'
S'Ifs Rachit Raj'
tp638
a(S'100001168644050'
S'Abhishek Anand'
tp639
a(S'684587176'
S'Rana Deepak Singh'
tp640
a(S'100000830033738'
S'Neelesh B Sokey'
tp641
a(S'100003554828190'
S'Delhi Celebrates'
tp642
a(S'100000080242762'
S'Anand Hanumanthappa'
tp643
a(S'574647373'
S'Divya Bajpai'
tp644
a(S'100000670415055'
S'Prakash H Adnur'
tp645
a(S'100002308361820'
S'Uma Shankar'
tp646
a(S'1626159715'
S'Anurag Sahay'
tp647
a(S'100000096895242'
S'Ashutosh Kumar'
tp648
a(S'1592649476'
S'Ajay Singh'
tp649
a(S'100002212108670'
S'Kiran Patel'
tp650
a(S'100000396114388'
S'Ahmad Fareed'
tp651
a(S'1016125598'
S'Anandvir Singh'
tp652
a(S'1390384839'
S'Vedanshu Tripathi'
tp653
a(S'100000401521195'
S'Ashwani Dhall'
tp654
a(S'100000545254762'
S'Shashi Dhar'
tp655
a(S'585759307'
S'Motilal Shete'
tp656
a(S'1612246867'
S'Jaideep Ahuja'
tp657
a(S'100000043005391'
S'Manoj Gupta'
tp658
a(S'1211917167'
S'Leyaqat Ali Aafaqui'
tp659
a(S'100002097275009'
S'Jaya Maurya'
tp660
a(S'100002276504783'
S'Sathish Kumar Shanmugam'
tp661
a(S'1718155575'
S'Kshitij K. Verma'
tp662
a(S'100002075502341'
S'Mayank Sharma'
tp663
a(S'1560667102'
S'Ashutosh Singh'
tp664
a(S'100001838326861'
S'Pranab Kumar Das'
tp665
a(S'100001279005165'
S'Yashvendra Singh'
tp666
a(S'100000422958323'
S'Rajan Muthiah'
tp667
a(S'571401469'
S'Athikho Obou'
tp668
a(S'704998225'
S'Rajeev Harit'
tp669
a(S'1581945804'
S'Navdeep Rinwa'
tp670
a(S'100001444630359'
S'Rajeev Singh'
tp671
a(S'793776854'
S'Alpesh Parmar'
tp672
a(S'100001124851295'
S'Arshdeep Singh Ifs'
tp673
a(S'1288285549'
S'Nisha Goswami'
tp674
a(S'561958136'
S'Vikas Singh'
tp675
a(S'1128754456'
S'Ishu Sindhu'
tp676
a(S'100001628624304'
S'Manish Tiwary'
tp677
a(S'1595192653'
S'Sibichen Mathew'
tp678
a(S'733157769'
S'Munish Bhatia'
tp679
a(S'100000789495972'
S'Rajiv Srivastava'
tp680
a(S'100003107704061'
S'Nallathambi Rathinam'
tp681
a(S'100000627596041'
S'Biswajit Maitra'
tp682
a(S'100001519915460'
S'Lily Mishra-pandey'
tp683
a(S'100002335566012'
S'Aparajita Pandey'
tp684
a(S'1580183682'
S'Nilay Prakash'
tp685
a(S'747851307'
S'Annie Varma'
tp686
a(S'606723454'
S'Subhasis Ojha'
tp687
a(S'100006156040415'
S'Radha Kishan'
tp688
a(S'100001503728258'
S'Babli Parveen'
tp689
a(S'100005690014373'
S'Shravan Meena'
tp690
a(S'100002730870447'
S'Shailesh Sinha'
tp691
a(S'1120697074'
S'Rakesh Gupta'
tp692
a(S'100005403307015'
S'Upendra Singh'
tp693
a(S'1047828270'
S'Devinder Kalyan'
tp694
a(S'1619570868'
S'Virendar Bhatia'
tp695
a(S'100000092911172'
S'Nidhi Mittal'
tp696
a(S'100000586401610'
S'Arivazhagan Thiyagarajan'
tp697
a(S'1636059292'
S'Anjan Lahiri'
tp698
a(S'100001653402756'
S'Prince Bhatia'
tp699
a(S'100003795622109'
S'Sriram Singh'
tp700
a(S'100003167041883'
S'Navin Pandey'
tp701
a(S'100000219568656'
S'Poonam Khatana'
tp702
a(S'1838715279'
S'Chandrakant Raipat'
tp703
a(S'736790194'
S'Sushil Kumar'
tp704
a(S'100002331942991'
S'Bhikhu Patel Patel'
tp705
a(S'100000386802415'
S'Rajendra Singh Shekhawat'
tp706
a(S'100001726804562'
S'Leena Srivastava'
tp707
a(S'100002055715382'
S'Surendra Kumar'
tp708
a(S'1557559720'
S'Avaneesh Tiwari'
tp709
a(S'1208539979'
S'Ragu Ram K'
tp710
a(S'677096378'
S'Anu Singla'
tp711
a(S'606623828'
S'Sangha Ojha'
tp712
a(S'1420890721'
S'Om Prakash Kant'
tp713
a(S'100007190644426'
S'Gunjan Sinha'
tp714
a(S'1068319668'
S'Anita Misra'
tp715
a(S'100000526416262'
S'Umakant Singh'
tp716
a(S'100003005743121'
S'Sudhir Kumar Sharma'
tp717
a(S'700683627'
S'Mainak Dhar'
tp718
a(S'1061611391'
S'Peeyush Sonkar'
tp719
a(S'1535546033'
S'Ashwani Vinayak'
tp720
a(S'100001249132013'
S'Sandip Pradhan'
tp721
a(S'1115496790'
S'Amrita Ranjan'
tp722
a(S'1496400927'
S'Shyam Benupani'
tp723
a(S'100002452701299'
S'Debojit B Bora'
tp724
a(S'1681881372'
S'Puneeta Bedi'
tp725
a(S'100000557808963'
S'Rajat Singh'
tp726
a(S'712708963'
S'Jagdish Singh'
tp727
a(S'610997244'
S'Parvez Mohaimen'
tp728
a(S'100001941860324'
S'Bhaskar Goswami'
tp729
a(S'1259986722'
S'Subrat Swain'
tp730
a(S'634699730'
S'Kamlesh Makwana'
tp731
a(S'650853319'
S'Anurag Srivastava'
tp732
a(S'100001370610506'
S'Praveen Verma'
tp733
a(S'100006531010342'
S'Pankaj Pandey'
tp734
a(S'621279088'
S'Avikal Manu'
tp735
a(S'100001147636202'
S'Ranbir Biswas'
tp736
a(S'100000662154579'
S'Sandip Mishra'
tp737
a(S'100005567116081'
S'Vipin Singh'
tp738
a(S'600788407'
S'Krishna Bhaskar'
tp739
a(S'614908009'
S'Puneet Mohan'
tp740
a(S'1045908562'
S'Raja Sekar'
tp741
a(S'1366787464'
S'Ajit Pal Singh Daia'
tp742
a(S'100000542568369'
S'Indrajit Mukherjee'
tp743
a(S'1594655583'
S'Ajai Pratap Singh'
tp744
a(S'100002354299340'
S'Ajay Pandey'
tp745
a(S'1483194321'
S'Khadga Basnet'
tp746
a(S'1294678317'
S'Sreelekha V Saraswathy'
tp747
a(S'1484520200'
S'Sunil Chander Sharma'
tp748
a(S'1745483154'
S'Prafulla Prusty'
tp749
a(S'100003172154966'
S'Sangeeta Yadav'
tp750
a(S'1234507026'
S'Amaresh Singh'
tp751
a(S'1558351272'
S'Prem Prakash Khurana'
tp752
a(S'100002289796368'
S'Rahul Singh'
tp753
a(S'1515078548'
S'Snigdha Pandey'
tp754
a(S'100003275108216'
S'Sunil Jangid'
tp755
a(S'690041773'
S'Hemant Kohli'
tp756
a(S'816969061'
S'Anshu Prakash'
tp757
a(S'733622506'
S'Saurabh Gautam'
tp758
a(S'1294925331'
S'Arun Savanur'
tp759
a(S'662882332'
S'Vikram Mago'
tp760
a(S'100000632321650'
S'Dilip Singh'
tp761
a(S'1586949418'
S'Sanjay Kishore'
tp762
a(S'610654571'
S'Saumitra Mohan'
tp763
a(S'100001576532737'
S'Ashim Kumar Chakraborty'
tp764
a(S'100000938730927'
S'Vandita Jain'
tp765
a(S'794577987'
S'Anurag Choubey'
tp766
a(S'100000520595637'
S'Neeraj Kapoor'
tp767
a(S'1316277695'
S'Rajeev Benjwal'
tp768
a(S'100004195001962'
S'Pavan Kumar'
tp769
a(S'1340474143'
S'Prasad Reddy'
tp770
a(S'633899569'
S'Azad Singh'
tp771
a(S'100002921784706'
S'Sanjay Sharma'
tp772
a(S'739357548'
S'Jaydeep Roy'
tp773
a(S'100001344426089'
S'Shashank Dwivedi'
tp774
a(S'755827531'
S'Abhinav Agrawal'
tp775
a(S'100005294017806'
S'DrShalini Rathore'
tp776
a(S'100000708442022'
S'Sanjay Dhingra'
tp777
a(S'1634395939'
S'Krishan Kumar Mittal'
tp778
a(S'100007383491652'
S'Narendra Tomar'
tp779
a(S'100000656268819'
S'Shashi Kapila'
tp780
a(S'679224640'
S'Anant Shankar'
tp781
a(S'100000030860714'
S'Ashutosh Kumar Sinha'
tp782
a(S'1001844085'
S'Rohit Raj'
tp783
a(S'1288209924'
S'Ravi Chandra Pd Sinha'
tp784
a(S'722377993'
S'B Mohan Kumar'
tp785
a(S'100001238804568'
S'Medisetti Tirumala Kumar'
tp786
a(S'100001428901629'
S'Vishwesh Roy'
tp787
a(S'593317153'
S'Vijay Kumar'
tp788
a(S'100007498541525'
S'Sheena Choudhry'
tp789
a(S'100002635480963'
S'Jagan Singh'
tp790
a(S'1140524850'
S'Sanjeev Singh'
tp791
a(S'100000150831103'
S'Ritesh Parmar'
tp792
a(S'567963876'
S'Seema Sahay'
tp793
a(S'1376457439'
S'Bhanwar Singh Ratnoo'
tp794
a(S'1052821370'
S'Ajay Kumar'
tp795
a(S'100000948178962'
S'Alok Singh'
tp796
a(S'100008333078465'
S'Punita Kumari'
tp797
a(S'1201064635'
S'Vinod K Tripathi'
tp798
a(S'100002480995218'
S'Pankaj Verma'
tp799
a(S'1102542273'
S'Sujeet Singh'
tp800
a(S'100002633900373'
S'Laxman Das'
tp801
a(S'1306461552'
S'Tim Jones'
tp802
a(S'100003177124330'
S'Sanjay Prasad'
tp803
a(S'100001393078007'
S'Murali Rambha'
tp804
a(S'1250937506'
S'Pradip Bauri'
tp805
a(S'517706687'
S'Lalit Mohan Jindal'
tp806
a(S'616906350'
S'Rohit Dev'
tp807
a(S'573032079'
S'Shravan Gotru'
tp808
a(S'670831562'
S'Bhaskar Bose'
tp809
a(S'100002917142118'
S'Purushottam Kashyap'
tp810
a(S'1277613671'
S'Vipul Gupta'
tp811
a(S'1409795991'
S'Hemant Sarangi'
tp812
a(S'1084230916'
S'Rajesh Kumar'
tp813
a(S'100001445227133'
S'Pravin Kumar'
tp814
a(S'1281698369'
S'Vikram Gaur'
tp815
a(S'1114457433'
S'Avinash Mishra'
tp816
a(S'100000011065564'
S'Davesh Sahay Srivastava'
tp817
a(S'652738436'
S'Arvindhakshan RS'
tp818
a(S'100000458811940'
S'Dinesh Ratnoo'
tp819
a(S'1393880668'
S'Wasim Haque'
tp820
a(S'751948236'
S'Sunil Gupta'
tp821
a(S'100001959628836'
S'Alpana Saksena'
tp822
a(S'1430724783'
S'Rp Shahi'
tp823
a(S'1334506780'
S'C V Raghu Kumar'
tp824
a(S'100001204123452'
S'Sushma Pandey-Mishra'
tp825
a(S'773649540'
S'Janardhan Sanathan'
tp826
a(S'100005232762652'
S'Grp Singh'
tp827
a(S'100000419431443'
S'Nitin Kondalwade-patil'
tp828
a(S'100003340117449'
S'Divya Dubey'
tp829
a(S'1735645389'
S'Neena Kumar'
tp830
a(S'100001634433673'
S'Atul Pandey'
tp831
a(S'542768722'
S'Jainendra Singh Kandhari'
tp832
a(S'1643905180'
S'Shramdeep Sinha'
tp833
a(S'100003483310867'
S'Gsd Babu'
tp834
a(S'538653987'
S'Sumit Kaur'
tp835
a(S'100008141473201'
S'Ashok Singh'
tp836
a(S'758779909'
S'Rajesh Shukla'
tp837
a(S'100001294886639'
S'Mamta Priyadarshi'
tp838
a(S'1818756885'
S'Karunakara Rao Dasari'
tp839
a(S'594639254'
S'Yashwant Kumar'
tp840
a(S'100001465980802'
S'Saurabh Suman'
tp841
a(S'100005972080036'
S'Shubham Banerjee'
tp842
a(S'100003590709989'
S'Rama Bharadwaj'
tp843
a(S'100002942879255'
S'Jainath Verma'
tp844
a(S'1797366940'
S'Santosh Kumar Jain'
tp845
a(S'100002198064357'
S'Shiva Pandey'
tp846
a(S'100003270978971'
S'Lakhan Kumar'
tp847
a(S'534787137'
S'Arvind Prakash'
tp848
a(S'100004055191913'
S'Bitosa Ranchi'
tp849
a(S'585234412'
S'Pramod Nikalje'
tp850
a(S'100002235777083'
S'Vishnu Kumar Garg'
tp851
a(S'100003967613426'
S'Subhash Das'
tp852
a(S'100001109600237'
S'Wahidul Hasan'
tp853
a(S'100000071808940'
S'Banita Naorem'
tp854
a(S'787709759'
S'Alka Vyas'
tp855
a(S'574420269'
S'Kumar Ankur'
tp856
a(S'100001852731672'
S'Manas Mondal'
tp857
a(S'1480860812'
S'Sanyogita Nagpal'
tp858
a(S'1033098215'
S'Alok Ojha'
tp859
a(S'100001314423423'
S'Dinesh Vyavahare'
tp860
a(S'1675863888'
S'Dheeraj Jain'
tp861
a(S'100001269401304'
S'Nimit Goyal'
tp862
a(S'100000759429041'
S'Manish Kumar'
tp863
a(S'100000368246052'
S'Mukhtar Mohsin Ips'
tp864
a(S'1607921652'
S'Shri Prakash Dubey'
tp865
a(S'100001494058150'
S'Sakkira Begum'
tp866
a(S'100006755941331'
S'Ganesh Saha'
tp867
a(S'100001216211173'
S'Anil Kumar'
tp868
a(S'1361510792'
S'Srinivas Gurazada'
tp869
a(S'553267215'
S'Nidhi Srivastava'
tp870
a(S'100000786407444'
S'Manish Godara'
tp871
a(S'1159609630'
S'Shrikant G Awachar'
tp872
a(S'100000899134715'
S'Pankaj Pal'
tp873
a(S'100002655683811'
S'Mohan Choubey'
tp874
a(S'100000522987389'
S'Manoj Pangarkar'
tp875
a(S'1098714421'
S'Indramohan Chaudhary'
tp876
a(S'100000783220449'
S'Animesh Tiwari'
tp877
a(S'100000744498396'
S'Abhishek Mlshra'
tp878
a(S'639275751'
S'Nila Mohanan'
tp879
a(S'100000120010118'
S'Bhupendra Anant'
tp880
a(S'100001209110521'
S'Manish Agrawal'
tp881
a(S'1029713428'
S'Sandip Garg'
tp882
a(S'100001905607186'
S'Sanjay Sinha'
tp883
a(S'522674706'
S'Sujeet Katiyar'
tp884
a(S'100000082695503'
S'Deepak Kumar Bangar'
tp885
a(S'1189245549'
S'Vaishali Malhotra'
tp886
a(S'100001919157172'
S'Anand Sharma'
tp887
a(S'100006492995018'
S'Vinayak Lal Mehta'
tp888
a(S'100001350115423'
S'Chandip Singh'
tp889
a(S'1718166703'
S'Piyush Dosi'
tp890
a(S'1370554854'
S'Oma Sharma'
tp891
a(S'1314607942'
S'Ajay Bhandoola'
tp892
a(S'1588608635'
S'Narsingh Kumar Khalkho'
tp893
a(S'1497690573'
S'Sanjeev Sharma'
tp894
a(S'100004052777408'
S'V.k. Meena'
tp895
a(S'700384565'
S'Karnan RV'
tp896
a(S'579350414'
S'Om Prakash Mishra'
tp897
a(S'100000027040377'
S'Amaresh K Tiwari'
tp898
a(S'1781508411'
S'Sukumar Choudhary'
tp899
a(S'100002562555245'
S'Peeyush Kumar'
tp900
a(S'539449834'
S'Anurag Shukla'
tp901
a(S'100000511607091'
S'Manish Prasad'
tp902
a(S'1040515272'
S'John Briganti'
tp903
a(S'1024514415'
S'Deepak Kedia'
tp904
a(S'1261947050'
S'Rana Chakravarty'
tp905
a(S'100003356334760'
S'Siva Kumar Irs'
tp906
a(S'1285373882'
S'Nishit Kumar'
tp907
a(S'100002050475968'
S'Nisha Misra'
tp908
a(S'100001488980810'
S'Santosh Kumar'
tp909
a(S'1752536446'
S'Pankaj Gupta'
tp910
a(S'100007614305005'
S'Darzakhum Songate'
tp911
a(S'100000396428616'
S'Vandan Jhaveri'
tp912
a(S'100000633777683'
S'Syed Naiyer Ali Najmi'
tp913
a(S'100000889425770'
S'Abdul Qayum Siddique'
tp914
a(S'688072801'
S'Sameer Sharma'
tp915
a(S'100002293368362'
S'Monika Yadav'
tp916
a(S'1351275734'
S'Prem Chandra Maurya'
tp917
a(S'100000693128233'
S'Amaresh Mishra'
tp918
a(S'565849818'
S'Rashmie Kumar'
tp919
a(S'100003470306136'
S'Sadhna Sharma'
tp920
a(S'1427913667'
S'Meeta Singh'
tp921
a(S'100000640662944'
S'Manish Munna Bhai Phd'
tp922
a(S'593597097'
S'Tapas Kumar Saha'
tp923
a(S'1111564440'
S'Saurabh Deshpande'
tp924
a(S'601463147'
S'Amit Jain'
tp925
a(S'1140693202'
S'Prakhar Viplava Gupta'
tp926
a(S'100000206791592'
S'Shuchim Trehan'
tp927
a(S'1435194398'
S'Chandu Ias'
tp928
a(S'100000302858619'
S'Anand Prakash'
tp929
a(S'100001130414357'
S'Swatantra Kumar'
tp930
a(S'100001306841339'
S'Saumya A Pandey'
tp931
a(S'730625378'
S'Siddhartha Shankar Panda'
tp932
a(S'649666520'
S'Anurag Tewari'
tp933
a(S'572470284'
S'Prakash Narayan Shukla'
tp934
a(S'1423751930'
S'Sagar Singh'
tp935
a(S'100002118817124'
S'Alok Kumar'
tp936
a(S'831667221'
S'Mayank Mishra'
tp937
a(S'100005636881756'
S'Swapnil Joshi'
tp938
a(S'813405386'
S'Hemraj Bairwa'
tp939
a(S'1798945337'
S'Arastu Upadhyay'
tp940
a(S'1297468538'
S'Sanjit Ghosh'
tp941
a(S'1111474255'
S'Deepan Bhadran'
tp942
a(S'100001589346698'
S'Nakul Prasad Singh'
tp943
a(S'1706167399'
S'Anand Swaroop'
tp944
a(S'1432287602'
S'Seju P Kuruvilla'
tp945
a(S'100007564053553'
S'Ramesh Khaitan'
tp946
a(S'1293111796'
S'Anubhav Agrawal'
tp947
a(S'100007854991805'
S'Sat Paul'
tp948
a(S'100001701783597'
S'Nishikant Deshmukh'
tp949
a(S'1610393746'
S'Ratnesh Kumar'
tp950
a(S'100002700811459'
S'Sumit Dwivedi'
tp951
a(S'572793560'
S'Zakir Thomas'
tp952
a(S'717934055'
S'Prasanth Nair'
tp953
a(S'100001034433806'
S'Neeraj Gupta'
tp954
a(S'100000593772952'
S'Shyamsundar Keshkamat'
tp955
a(S'100000452666058'
S'Vikas Verma'
tp956
a(S'100000471405003'
S'Vinod Pawar'
tp957
a(S'100001043915438'
S'Jyoti Kumari'
tp958
a(S'1812701170'
S'Sanjay Srivastava'
tp959
a(S'100003332584471'
S'Ratnesh Kumar Dubey'
tp960
a(S'1029608125'
S'Ramya Swaroop'
tp961
a(S'508524832'
S'Puneet Walia'
tp962
a(S'100000619491617'
S'Milind Bhusari'
tp963
a(S'100001118472566'
S'Prem Prakash Lakkar'
tp964
a(S'100004781139226'
S'Ajay Pandey'
tp965
a(S'634194336'
S'Parmaditya Manu'
tp966
a(S'1463778013'
S'K.n. Kumar'
tp967
a(S'1318088791'
S'Sunil K Himatsingka'
tp968
a(S'1435202395'
S'Kamlesh Vikamsey'
tp969
a(S'100001285621510'
S'Amardeep Rana'
tp970
a(S'633209247'
S'Vineet Agrawal'
tp971
a(S'1742761483'
S'Sanjay Kumar'
tp972
a(S'100007224339914'
S'Nidhi Priyadarshi'
tp973
a(S'100002566114138'
S'Anjula Kumari'
tp974
a(S'1567385476'
S'Yagya Dutt Sharma'
tp975
a(S'1420700708'
S'Ramesh Reddy'
tp976
a(S'100000815114786'
S'Sanjay K Jha'
tp977
a(S'100003471229810'
S'Samiksha Tiwari'
tp978
a(S'100000538775462'
S'Manvendra Goyal'
tp979
a(S'543760762'
S'Anand Kumar Kedia'
tp980
a(S'16910415'
S'Parikshit A Advani'
tp981
a(S'100004234239253'
S'Kamlesh Chandra Varshney'
tp982
a(S'100000090266612'
S'Subhash Jha'
tp983
a(S'100000468376540'
S'Yasha Pandey'
tp984
a(S'100002678169288'
S'Saurabh Wagle'
tp985
a(S'100001445926960'
S'Navneet Shanker'
tp986
a(S'546631509'
S'Ashok Mittal'
tp987
a(S'100000542252260'
S'Ahtesham Khan'
tp988
a(S'100001180201201'
S'Uday Kumaran'
tp989
a(S'1062541387'
S'Rajgopal Sharma'
tp990
a(S'100000515320825'
S'Ranjan Kr Mishra'
tp991
a(S'551783830'
S'Swapna Devireddy'
tp992
a(S'100003025499117'
S'Manoj Mishra'
tp993
a(S'1220976909'
S'Amrendra Narayan Singh'
tp994
a(S'100001804579822'
S'Salil Pandey'
tp995
a(S'100001043323891'
S'Rajesh Chandra'
tp996
a(S'1016325388'
S'Mohan Kumar Singhania'
tp997
a(S'100001386756110'
S'Sanjeev Kashyap'
tp998
a(S'595959499'
S'Pavan Beerla'
tp999
a(S'1832532644'
S'Vikram Jeet Duggal'
tp1000
a(S'100000383074542'
S'Samar Nanda'
tp1001
a(S'550969067'
S'Satyendra Mishra'
tp1002
a(S'100001435158274'
S'Vitthal Bhosale Irs'
tp1003
a(S'100000908966572'
S'Samir Pandey'
tp1004
a(S'100002918022338'
S'Sandeep Kumar'
tp1005
a(S'100001128871768'
S'Sanjiva Verma'
tp1006
a(S'100002345265736'
S'Nandeesh Shukla'
tp1007
a(S'1348373108'
S'Apeksha Ojha'
tp1008
a(S'100002410240997'
S'Sanjay Sah'
tp1009
a(S'634084780'
S'Anwar Ali'
tp1010
a(S'1298075739'
S'Kamakhya Singh'
tp1011
a(S'1737208500'
S'Yashwant Bhaskar'
tp1012
a(S'100002147851291'
S'Rambabu Chellappa'
tp1013
a(S'100001398971787'
S'Sudheer Mishra'
tp1014
a(S'1666101696'
S'Nisha Oraon Singhmarr'
tp1015
a(S'1433103467'
S'Vikram Varma'
tp1016
a(S'100000607933547'
S'Hargovind Singh'
tp1017
a(S'100002934874179'
S'Rajiv Singh'
tp1018
a(S'100004796798185'
S'Ashesh Pathak'
tp1019
a(S'1722394214'
S'Sunny Sahay'
tp1020
a(S'732377918'
S'Satish Kumar Gupta'
tp1021
a(S'100001933006848'
S'Kishor Mandal'
tp1022
a(S'100002700901724'
S'Ashvinkumar Patel'
tp1023
a(S'792360542'
S'Navneet Manohar'
tp1024
a(S'100002695326908'
S'Govind Prasad'
tp1025
a(S'576306864'
S'Ojha Kishori'
tp1026
a(S'100000244373505'
S'Sudhir Sharma'
tp1027
a(S'100001442631304'
S'Narendrakumar Vasava'
tp1028
a(S'100000594267574'
S'Kamad Nigam'
tp1029
a(S'100004106953887'
S'Neha Tiwari'
tp1030
a(S'1174412623'
S'Ashok Kumar'
tp1031
a(S'658970467'
S'Jayanta Ray'
tp1032
a(S'1168300445'
S'Amit Ghawate-Patil'
tp1033
a(S'100000602103683'
S'Abhishek Meshram'
tp1034
a(S'100000479264011'
S'Satinder Rana'
tp1035
a(S'100000709231350'
S'Roshan Joharwal'
tp1036
a(S'827206631'
S'Arun Kumar Gurjar'
tp1037
a(S'1058475900'
S'Anup Kumar Dubey'
tp1038
a(S'100000417199565'
S'Gangadhar Panda'
tp1039
a(S'100000105231577'
S'Abhishek Yadav'
tp1040
a(S'652998347'
S'Chandrajit Singh'
tp1041
a(S'685252406'
S'Anubha Sinha'
tp1042
a(S'100001462278912'
S'Manoj Singh'
tp1043
a(S'1044641886'
S'Krishna Kishore Jasthi'
tp1044
a(S'1217904601'
S'Vinita Sharma Bakshi'
tp1045
a(S'100002157147177'
S'Bhuvan Bhushan Yadav'
tp1046
a(S'100001534425037'
S'Ramarao Metta'
tp1047
a(S'1610284957'
S'Vishwanath Bubna'
tp1048
a(S'100001138999026'
S'Lal Ratnakar Singh'
tp1049
a(S'100000687963950'
S'Rahul Raichur'
tp1050
a(S'771385011'
S'Bhanu Pratap Singh'
tp1051
a(S'100000060662113'
S'Sanjeev Jain'
tp1052
a(S'1604792492'
S'Devendra Nath Mishra'
tp1053
a(S'1458094803'
S'Neeharika Singh'
tp1054
a(S'1371736582'
S'Shashi Kajle'
tp1055
a(S'100001296519121'
S'Damodar Sharma'
tp1056
a(S'100002595626025'
S'Tamanna Rajan'
tp1057
a(S'648276508'
S'Kumar Rajiv Ranjan'
tp1058
a(S'100002605379114'
S'Bipin Kumar'
tp1059
a(S'1339729766'
S'Sudha Gupta'
tp1060
a(S'534571365'
S'Chandra Prakash Tripathi'
tp1061
a(S'1069711363'
S'Deepak Garg'
tp1062
a(S'731987354'
S'Rajiv Nabar'
tp1063
a(S'100000924810796'
S'Ram Mohan Singh'
tp1064
a(S'100000681820864'
S'Sunil Ware'
tp1065
a(S'1683375211'
S'Ajith Kumar Varma'
tp1066
a(S'100001259630749'
S'Aravind Agrawal'
tp1067
a(S'100000094222856'
S'CM Jpr'
tp1068
a(S'100000363660589'
S'Talla Ravi'
tp1069
a(S'684875832'
S'Padamvir Singh'
tp1070
a(S'658364520'
S'Brahma Kumar'
tp1071
a(S'1180930569'
S'Amit Singh'
tp1072
a(S'100002607984412'
S'Renga Raj'
tp1073
a(S'585695867'
S'Vaibhav Mehndiratta'
tp1074
a(S'1481915666'
S'Manoj Agarwal'
tp1075
a(S'100001749335608'
S'Akhilesh Gupta Irs'
tp1076
a(S'100002097092090'
S'Alok Jha'
tp1077
a(S'618312923'
S'Anant Sinha'
tp1078
a(S'1631365189'
S'Ambuj Chaubey'
tp1079
a(S'100001467528433'
S'Shilpi Singh'
tp1080
a(S'100003750286759'
S'Kumar Sudhir'
tp1081
a(S'1470571876'
S'Vivek Tiwari'
tp1082
a(S'100001424733642'
S'Vikram Pande'
tp1083
a(S'100001035681330'
S'Om Prakash Meena'
tp1084
a(S'100000602315155'
S'Naman Tripaathy'
tp1085
a(S'100001415609107'
S'Manoj Jha'
tp1086
a(S'100001979433943'
S'RK Bajaj'
tp1087
a(S'590332789'
S'Angam Shaiza'
tp1088
a(S'100000515786426'
S'Anil Talwar'
tp1089
a(S'780190706'
S'Ram Mohan Tiwari'
tp1090
a(S'100001735283196'
S'Onkar Singh Thakur'
tp1091
a(S'1246428984'
S'Gopal Dhal'
tp1092
a(S'100000094640701'
S'Dinesh Singh'
tp1093
a(S'100003699526878'
S'Ajay Pandey'
tp1094
a(S'100000514853636'
S'Namoijam Kheda Varta Singh'
tp1095
a(S'100000590644481'
S'Anurag Sharma'
tp1096
a(S'1850689875'
S'Vikram Joshi'
tp1097
a(S'100000175586748'
S'Suparna Dutta'
tp1098
a(S'1122921476'
S'Chitrangna Singh'
tp1099
a(S'1263593128'
S'Kalyan Chand'
tp1100
a(S'100007354029574'
S'Sagar Manas'
tp1101
a(S'1598071299'
S'Durgesh Sumrott'
tp1102
a(S'100002221931926'
S'Sunita Singh'
tp1103
a(S'100005112911942'
S'Om Prakash'
tp1104
a(S'100004290462619'
S'Surabhi Vinod Sujan'
tp1105
a(S'1417993081'
S'Manohar Krishna Asthana'
tp1106
a(S'100000724802854'
S'Mohan Babu M'
tp1107
a(S'592605908'
S'Muang Tunglut'
tp1108
a(S'100000994850300'
S'Rahul Khanna'
tp1109
a(S'1484327744'
S'Yogesh Bedi'
tp1110
a(S'1527511274'
S'Ashutosh Shukla'
tp1111
a(S'100000685930159'
S'Richa Mishra'
tp1112
a(S'1489680635'
S'Niraj N. Kumar'
tp1113
a(S'742099446'
S'Vivek Anand Perampurna'
tp1114
a(S'1641793063'
S'Akhilesh Chaurasia'
tp1115
a(S'100003110567096'
S'Sanket Lagad'
tp1116
a(S'1268243548'
S'Rahul Dhawan'
tp1117
a(S'1126580272'
S'Puneet Kumar'
tp1118
a(S'1039632983'
S'Anugraha Das'
tp1119
a(S'1112134285'
S'Pankaj Srivastava'
tp1120
a(S'100000298128292'
S'Shaitan Sangwa'
tp1121
a(S'100004611843225'
S'G P Praveen Reddy'
tp1122
a(S'750462361'
S'Mala Paropkari'
tp1123
a(S'1554637083'
S'Gurusharan Singh'
tp1124
a(S'1469539088'
S'Rohit Anand'
tp1125
a(S'1588441303'
S'Ananthappan Selvaraj'
tp1126
a(S'100000080866318'
S'Deepak Sharma'
tp1127
a(S'100000370264497'
S'Ashok Gautam'
tp1128
a(S'653773433'
S'Swapna Pandey'
tp1129
a(S'100001397974468'
S'David Z. Chawngthu'
tp1130
a(S'1169153477'
S'Gurmeet Singh'
tp1131
a(S'100003792031304'
S"Steven Lawrence D'souza"
tp1132
a(S'1141190014'
S'Ravi Gupta'
tp1133
a(S'100001451085404'
S'Om Prakash Meena'
tp1134
a(S'100008255551291'
S'Rashmi Sharan'
tp1135
a(S'1005336247'
S'Amitabh Shukla'
tp1136
a(S'100001815913136'
S'Shailesh Jakhotiya'
tp1137
a(S'100004150963625'
S'Malti Pandey'
tp1138
a(S'543098401'
S'Nisheeth Yadav'
tp1139
a(S'1003793720'
S'Paramjeet Singh'
tp1140
a(S'100001296017510'
S'Mukesh Raval'
tp1141
a(S'100001547872214'
S'Narsi Reddy'
tp1142
a(S'100005565372786'
S'Vidyottama Pandey'
tp1143
a(S'100005920925534'
S'Jitender Pruthi'
tp1144
a(S'100000649822501'
S'Moody Aparna Sinha'
tp1145
a(S'746937802'
S'Nitin Tiwari'
tp1146
a(S'100001053166589'
S'Rajeev Chaurasiya'
tp1147
a(S'100006341563079'
S'Ashutosh Mishra'
tp1148
a(S'100000847292311'
S'Pratap Banerjee'
tp1149
a(S'100003753219620'
S'Radha Krishna'
tp1150
a(S'100002635514521'
S'Harishankar Kumar Lal'
tp1151
a(S'100001082884654'
S'Saurabh Singh'
tp1152
a(S'100005786648008'
S'Roshni Khanna'
tp1153
a(S'100000465826350'
S'Purnesh Gururani'
tp1154
a(S'675601471'
S'Geetika Srivastava'
tp1155
a(S'552251192'
S'Yadav Manharsinh L'
tp1156
a(S'847272279'
S'Sunil Kolte'
tp1157
a(S'100000353166111'
S'Anurag Vardhan'
tp1158
a(S'1341042952'
S'Rajiv Ashar'
tp1159
a(S'1043417605'
S'Amandeep Singh Kapoor'
tp1160
a(S'100001467104570'
S'Sudhanshu Rai'
tp1161
a(S'100001610308009'
S'Vivek Bhaskar'
tp1162
a(S'751653766'
S'Ravindra Kumar'
tp1163
a(S'100000622953348'
S'Kkm Nambiar'
tp1164
a(S'1568611356'
S'Sandeep Dahiya'
tp1165
a(S'100000710676751'
S'Atul Sharma'
tp1166
a(S'100001507493654'
S'Ips Bindra'
tp1167
a(S'574502956'
S'Samir Tekriwal'
tp1168
a(S'100001340556627'
S'Anant Gyani'
tp1169
a(S'100001695077670'
S'Ajay Mishra'
tp1170
a(S'100000598421251'
S'Sanjay Pal'
tp1171
a(S'100003810409971'
S'Ajay Kumar Ips'
tp1172
a(S'100003018866560'
S'Raj Sandeep'
tp1173
a(S'696420627'
S'Gautam Wahi'
tp1174
a(S'100002852850892'
S'Alok Singh'
tp1175
a(S'100004634263303'
S'Ashish Kumar'
tp1176
a(S'100005915464400'
S'Lo Lool Ol'
tp1177
a(S'1077648772'
S'Madhav Deshmukh'
tp1178
a(S'100000428966758'
S'Kalika Singh'
tp1179
a(S'100002420434783'
S'Seema Bhagchandra Meena'
tp1180
a(S'1325319960'
S'Brahma Prakash Gaur'
tp1181
a(S'100000136211965'
S'Sandeep Gupta'
tp1182
a(S'1152817369'
S'Bijay Manjul'
tp1183
a(S'100000464842439'
S'Mekathoti Dayasagar'
tp1184
a(S'100000717015591'
S'Mukesh Ranjan'
tp1185
a(S'100002447500771'
S'Swati Joshi'
tp1186
a(S'100001178842891'
S'Jaya Kishore'
tp1187
a(S'100000398175728'
S'Nambi Krishnaswami'
tp1188
a(S'723023349'
S'Ritesh Misra'
tp1189
a(S'100003458541669'
S'Lok Nath Tiwari'
tp1190
a(S'753533249'
S'P. Vinay Kumar'
tp1191
a(S'100000437705712'
S'Arun Rana'
tp1192
a(S'100003327206491'
S'Sanjay Sinha'
tp1193
a(S'100004604979092'
S'Edwin Bermoy'
tp1194
a(S'100005210345611'
S'Vitthal Dhole'
tp1195
a(S'1067189523'
S'Prakash Kumar'
tp1196
a(S'682655864'
S'Abhijeet Chandra'
tp1197
a(S'564179803'
S'R Mutyala Raju'
tp1198
a(S'1529093381'
S'Artabandhu Patra'
tp1199
a(S'1346035339'
S'Mamta Bansal'
tp1200
a(S'100000229714953'
S'Kiran Anuj'
tp1201
a(S'100000126657856'
S'Md Mohsin Alam'
tp1202
a(S'100001700408528'
S'Akhilesh Pandey'
tp1203
a(S'1441454060'
S'Dinesh Sawkmie'
tp1204
a(S'1573809477'
S'Manoj Tiwari'
tp1205
a(S'799138135'
S'Shefali Swaroop'
tp1206
a(S'1315449163'
S'Mukesh Meshram'
tp1207
a(S'100001846930623'
S'Chandra Mohan'
tp1208
a(S'100001102196304'
S'Prabhu Mishra'
tp1209
a(S'100000695314196'
S'Mohit Mrinal'
tp1210
a(S'100003516890985'
S'Arak Singh'
tp1211
a(S'1311729516'
S'Vamsi Andra'
tp1212
a(S'100002362658663'
S'Selvaganesh Puvaneswaran'
tp1213
a(S'730752573'
S'Prakash Pathade'
tp1214
a(S'698913920'
S'Atul Tyagi'
tp1215
a(S'100002180307025'
S'Gorakh Nath Tiwari'
tp1216
a(S'100000185122539'
S'Sushil Gaikwad'
tp1217
a(S'100003521350211'
S'Vishal S. Pandey'
tp1218
a(S'1072567178'
S'Hemant Shah'
tp1219
a(S'1722685501'
S'Ajeet Manwani'
tp1220
a(S'100006749400186'
S'Sindhu Suman'
tp1221
a(S'517511689'
S'Arvind Mishra'
tp1222
a(S'100000502271302'
S'Banibrata Datta'
tp1223
a(S'100000606164639'
S'Devendra N Sharma'
tp1224
a(S'709943626'
S'Hari Om Gandhi Ahmedabad'
tp1225
a(S'100001394412690'
S'Neha Bedi'
tp1226
a(S'1616935229'
S'Keerthi Jathish'
tp1227
a(S'634003628'
S'Vijaya Krishna Ramisetti'
tp1228
a(S'100006740472416'
S'Virendra Pratap'
tp1229
a(S'100006738942049'
S'Divya Agrawal'
tp1230
a(S'719873137'
S'Rajiv Kapoor'
tp1231
a(S'100004930387991'
S'Db Singh'
tp1232
a(S'100003363140562'
S'Prity Jayswal'
tp1233
a(S'1222959180'
S'Suresh Yadav'
tp1234
a(S'583857089'
S'Niraj Kumar'
tp1235
a(S'100001170553869'
S'Amit Dahiya'
tp1236
a(S'100002378543907'
S'Waseem Hamid'
tp1237
a(S'100000484437546'
S'Akhileshwar Singh'
tp1238
a(S'100002628980822'
S'Ritu Raj Gupta'
tp1239
a(S'100002622486141'
S'Vinti Sandhir Nayar'
tp1240
a(S'100003219245383'
S'Priti Labh'
tp1241
a(S'100000159486283'
S'Ashok Jha'
tp1242
a(S'738339999'
S'Pathlavath Peerya'
tp1243
a(S'100001357280241'
S'Shobhit Jain'
tp1244
a(S'100001482584784'
S'Prashant Bhushan'
tp1245
a(S'1061764312'
S'Manish Mishra'
tp1246
a(S'100005336346156'
S'Kavita Singh'
tp1247
a(S'1765507298'
S'Umesh Phade'
tp1248
a(S'1084654494'
S'Dago Tshering'
tp1249
a(S'839654303'
S'Poonam Khaira Sidhu'
tp1250
a(S'1281622114'
S'Santosh Kumar'
tp1251
a(S'100002149528145'
S'Sasikumar Kothandapani'
tp1252
a(S'558104628'
S'Anil Anand'
tp1253
a(S'536020276'
S'Vishwas Munde'
tp1254
a(S'100002624229511'
S'Malyadri Sriram'
tp1255
a(S'100006014223298'
S'Chanchal Biswas'
tp1256
a(S'100006601778137'
S'Ashish Gaikwad'
tp1257
a(S'100003986136094'
S'Satish Kumar'
tp1258
a(S'100001335320737'
S'Lalit Pandey'
tp1259
a(S'647294596'
S'Devina Kumar'
tp1260
a(S'100003722020760'
S'Vikash Singh'
tp1261
a(S'100003299319235'
S'Kamal Sharma'
tp1262
a(S'1323877850'
S'Rakesh Mishra'
tp1263
a(S'648570984'
S'Shaifali G Singh'
tp1264
a(S'534028665'
S'Geoffrey Ningthoujam'
tp1265
a(S'1632931953'
S'Mudit Nagpal'
tp1266
a(S'1111385492'
S'Sunil Gautam'
tp1267
a(S'1592435991'
S'Gautam Mandal'
tp1268
a(S'100001821343010'
S'Pradeep Kumar'
tp1269
a(S'1415598660'
S'Sunil Ojha'
tp1270
a(S'1696374758'
S'Sunny Mahajan'
tp1271
a(S'100002871000924'
S'Murari Mohan Verma'
tp1272
a(S'100004277310471'
S'Rajeev Mishra'
tp1273
a(S'1345662977'
S'Ananth Rupanagudi'
tp1274
a(S'100006756852557'
S'Gopaljee Jha'
tp1275
a(S'100001195820781'
S'Devendra Patel'
tp1276
a(S'100000025192489'
S'Pritam Singh'
tp1277
a(S'1070118399'
S'Aditya Wadekar'
tp1278
a(S'100000696296577'
S'Parvez Battiwalla'
tp1279
a(S'744478729'
S'Rajeev Harit'
tp1280
a(S'1236010229'
S'Sharad Chauhan'
tp1281
a(S'1049480453'
S'Rajkr Ghosh'
tp1282
a(S'1179039857'
S'Poovannan Subramani'
tp1283
a(S'100000169850620'
S'Amar Agarwal'
tp1284
a(S'1271753039'
S'Prajna Paramita'
tp1285
a(S'1134819072'
S'Kamaljyothi Katta'
tp1286
a(S'1019416740'
S'Tribhuwan Anand'
tp1287
a(S'100003720047776'
S'Sangeeta Rani'
tp1288
a(S'1251675189'
S'Munish Kr Gupta'
tp1289
a(S'1069434527'
S'Dschool Almn'
tp1290
a(S'100000237168662'
S'Anurag Tripathi'
tp1291
a(S'789144298'
S'Amit Dua'
tp1292
a(S'568602703'
S'Muzaffar Hussain'
tp1293
a(S'100007060597644'
S'Shrayshi Sharma'
tp1294
a(S'100002403728447'
S'Sameer Kakar'
tp1295
a(S'697396776'
S'Ajit Verma'
tp1296
a(S'704501379'
S'Tushar Deshpande'
tp1297
a(S'100006470265081'
S'Hkelyyboy Van'
tp1298
a(S'100001090545437'
S'Sardar Meena'
tp1299
a(S'1702267362'
S'Shiv Kumar Rai'
tp1300
a(S'100000004973558'
S'Sanjay Gupta'
tp1301
a(S'100000111411312'
S'Amit Dhaka'
tp1302
a(S'1534302555'
S'Vivek Mishra'
tp1303
a(S'1309953960'
S'Sumir Mehta'
tp1304
a(S'100001602422307'
S'Gaurav Tiwari'
tp1305
a(S'1606025332'
S'Sanjeev Kumar'
tp1306
a(S'1067642576'
S'Parag Mital'
tp1307
a(S'632641046'
S'Divya Shivram'
tp1308
a(S'100003772957529'
S'Sachin Pipaliya'
tp1309
a(S'549536534'
S'Rajan Bahadur'
tp1310
a(S'100003867810741'
S'Ramanjaneyulu Buggappagari'
tp1311
a(S'1525513145'
S'Raj Kumar'
tp1312
a(S'1131034285'
S'Mukesh Thakwani'
tp1313
a(S'100002692796118'
S'Aloka Kumari'
tp1314
a(S'708814696'
S'Dheeraj Pandey'
tp1315
a(S'721846582'
S'Santosh Kumar'
tp1316
a(S'100003529546964'
S'Shailendra Yadav'
tp1317
a(S'100000035288462'
S'Himanshu Shekhar Sinha'
tp1318
a(S'100000726768523'
S'Amit Telang'
tp1319
a(S'100000134262963'
S'Sandeep Rathod'
tp1320
a(S'1671021209'
S'Praful Nanda'
tp1321
a(S'522718302'
S'Asheesh Singh'
tp1322
a(S'585239683'
S'Pritee Chaudhary'
tp1323
a(S'1573729708'
S'Chittaranjan Dash'
tp1324
a(S'1748110104'
S'Narinder Pal Singh'
tp1325
a(S'100002542089661'
S'Takhat Singh Ranawat'
tp1326
a(S'1789976261'
S'Pranay Sinha'
tp1327
a(S'1041211328'
S'Puja Jindal'
tp1328
a(S'728852194'
S'Joydeep Sarkar'
tp1329
a(S'100000885260377'
S'Ankit Singh'
tp1330
a(S'100000632924388'
S'Gaurav Dudeja'
tp1331
a(S'100002327952214'
S'Sanjeev Agarwal'
tp1332
a(S'100000392782535'
S'Ashutosh Sharma'
tp1333
a(S'100002448528845'
S'Archana Choudhary'
tp1334
a(S'100001266176810'
S'Aditya Kushwaha'
tp1335
a(S'1011548334'
S'Surendra Kumar'
tp1336
a(S'100001075493472'
S'Rajesh Agarwal'
tp1337
a(S'828799599'
S'Shubhrata Verma Prakash'
tp1338
a(S'1063864939'
S'Benny Joseph'
tp1339
a(S'100003893101277'
S'Kumar Bijoy'
tp1340
a(S'852935248'
S'Amol Kirtane'
tp1341
a(S'628835223'
S'Shivani Bansal'
tp1342
a(S'100002870226408'
S'Shantam Kapur'
tp1343
a(S'753814135'
S'Arif Sheikh'
tp1344
a(S'100001637344388'
S'Nakul Kachwaha'
tp1345
a(S'100001039860304'
S'Debashish Bose'
tp1346
a(S'100007712198117'
S'Sumita Pandey'
tp1347
a(S'100006546369167'
S'Virendta Singh Gusain'
tp1348
a(S'100000001912960'
S'Laxman Singh'
tp1349
a(S'1613897718'
S'Amit Hitkari'
tp1350
a(S'1547126059'
S'Ajey Ojha'
tp1351
a(S'100000279363330'
S'Vikas Irs'
tp1352
a(S'1142347195'
S'Shashank Shekhar'
tp1353
a(S'1606085395'
S'Awadhesh Kumar'
tp1354
a(S'525929005'
S'Uma Singh'
tp1355
a(S'100000028646043'
S'Madhu Sudan'
tp1356
a(S'100008161029890'
S'Vishnu Pathak'
tp1357
a(S'1025416387'
S'Monisha Chaudhary'
tp1358
a(S'1642086280'
S'Suraj Bhan Nain'
tp1359
a(S'1148740567'
S'Tarun Kushwaha'
tp1360
a(S'100002447540983'
S'Sarha Kolkata'
tp1361
a(S'100000708335179'
S'Alok Srivastava'
tp1362
a(S'100003197812146'
S'Jitendra Jaiswal'
tp1363
a(S'100000354685859'
S'Upayan Chakraborty'
tp1364
a(S'100002788918480'
S'Anjali Sharma'
tp1365
a(S'100001210110192'
S'Meena Arvind'
tp1366
a(S'1565435455'
S'Ripunjay Prasad Singh'
tp1367
a(S'1136704414'
S'Md Shadab Ahmed'
tp1368
a(S'563166750'
S'Rajesh Lala'
tp1369
a(S'100007251662419'
S'Srinivas Danda'
tp1370
a(S'100001401035924'
S'Jeevanlal Lavidiya'
tp1371
a(S'100001175144313'
S'Arvind Ks'
tp1372
a(S'100000744766431'
S'Binod Kumar'
tp1373
a(S'100003789231403'
S'Alok Mishra'
tp1374
a(S'532720206'
S'Anindya Misra'
tp1375
a(S'1046960795'
S'Swatantra Singh'
tp1376
a(S'100001526408147'
S'Parvez Alam Ansari'
tp1377
a(S'100002247932573'
S'Vijay Kumar'
tp1378
a(S'1545349799'
S'Munindra Mohan Das'
tp1379
a(S'1085090391'
S'Vishal Nair'
tp1380
a(S'100000477616788'
S'Gopinath Rajamanickkam'
tp1381
a(S'100000555701210'
S'Narsimha Charya'
tp1382
a(S'555812484'
S'Sanjay Bahadur'
tp1383
a(S'634234727'
S'Appu Joseph Jose'
tp1384
a(S'1112834612'
S'Rabi Narayan Dash'
tp1385
a(S'100004044245596'
S'Nicky Raj'
tp1386
a(S'1725492789'
S'Rs Chhabi'
tp1387
a(S'1139626913'
S'Nirmal Soren'
tp1388
a(S'1036036287'
S'Arkaja Das'
tp1389
a(S'675685884'
S'Amit Singal'
tp1390
a(S'723768118'
S'John Hagelin'
tp1391
a(S'100000854317180'
S'Rajeshwar Yadav'
tp1392
a(S'100000698052295'
S'Vaddadi Appala Raju'
tp1393
a(S'1057808456'
S'Ramesh Narain Parbat'
tp1394
a(S'100008286491886'
S'Arti Singh Rathore'
tp1395
a(S'100001125250863'
S'Vaibhav Pagare'
tp1396
a(S'550139175'
S'Sangeeta Gupta'
tp1397
a(S'100003359187395'
S'Subramanian Chandrasekhar'
tp1398
a(S'100000465003055'
S'Aman Preet Passy'
tp1399
a(S'100002595977487'
S'Sharad Bhushan Rai'
tp1400
a(S'100004555681614'
S'Dileep Kumar Shukla'
tp1401
a(S'1145910844'
S'Pravash Pandey'
tp1402
a(S'100000107271594'
S'Sanjiv Kumar Ganeriwala'
tp1403
a(S'1294811900'
S'Naren Jangpangi'
tp1404
a(S'100000826295855'
S'Nilesh Patel'
tp1405
a(S'100008252985055'
S'Oliva Olarte'
tp1406
a(S'708147891'
S'Ramesh Swamy'
tp1407
a(S'100002998796596'
S'Rakesh Pandey'
tp1408
a(S'1234673492'
S'Usha Khatri'
tp1409
a(S'560492947'
S'Anoop Singh'
tp1410
a(S'100001217567223'
S'Maimun Alam'
tp1411
a(S'100001868402956'
S'Kumar Shantanu'
tp1412
a(S'575010678'
S'Eyas Ahamed'
tp1413
a(S'100001962504967'
S'Kailash Kumar'
tp1414
a(S'100001012482782'
S'Subodh Sinha'
tp1415
a(S'100002440143710'
S'Arzoo Garodia'
tp1416
a(S'100001150937087'
S'Naresh Penumaka'
tp1417
a(S'100000731025624'
S'Yagyesh Raghuvanshi'
tp1418
a(S'100000353481800'
S'Gorakh Kalunge'
tp1419
a(S'1316079800'
S'Samiratmaj Mishra'
tp1420
a(S'100000267111964'
S'Alok Khatri'
tp1421
a(S'100007512666060'
S'Hardeep Singh Puri'
tp1422
a(S'100002520923144'
S'Manoj Kumar Singh'
tp1423
a(S'100002226352698'
S'SK Nayyar'
tp1424
a(S'100003041447264'
S'Rama Dwivedi'
tp1425
a(S'1159073945'
S'Prashant Burde'
tp1426
a(S'532529486'
S'Vivek Kumar'
tp1427
a(S'100003663673456'
S'Uttam Kumar'
tp1428
a(S'1540694505'
S'Aastha Lakshmi'
tp1429
a(S'634024867'
S'Krishna Deo Prasad Sahu'
tp1430
a(S'1455229897'
S'Sunil Kumar Singh'
tp1431
a(S'1128570682'
S'Sonmoni Borah'
tp1432
a(S'678106256'
S'Ritika Bhatia'
tp1433
a(S'699604192'
S'Harjeet Singh'
tp1434
a(S'100001494772154'
S'Goutam Mani'
tp1435
a(S'100000714726486'
S'Goutam Mani'
tp1436
a(S'1122336447'
S'Maya Jaju Maheshwari'
tp1437
a(S'100000048088826'
S'Ajay Kumar Dubey'
tp1438
a(S'100002000540225'
S'Anup Kumar Jha'
tp1439
a(S'1391916980'
S'Gaurav Kanaujia'
tp1440
a(S'100000947493819'
S'Ramana Babu K'
tp1441
a(S'100002289650218'
S'Dilip Kumar'
tp1442
a(S'100003639747932'
S'Abhay Tewari'
tp1443
a(S'100000049285123'
S'Bhupendra Singh Rao'
tp1444
a(S'100002896480899'
S'Mukesh Kumar Mantu'
tp1445
a(S'100001687154472'
S'Avijit Ojha'
tp1446
a(S'1170307990'
S'Sunil Jain'
tp1447
a(S'100000376869001'
S'Niraj Kumar Garg'
tp1448
a(S'100000214783777'
S'Ab Pa'
tp1449
a(S'780843935'
S'Ashish Abrol'
tp1450
a(S'100001016565710'
S'Rachana Singh'
tp1451
a(S'100000595431851'
S'Ranjan Chakhaiyar'
tp1452
a(S'538578370'
S'Indranil Dutta'
tp1453
a(S'1194584317'
S'Kurma Rao M'
tp1454
a(S'1438047944'
S'Amrish Bedi'
tp1455
a(S'100001031269885'
S'Surender Pal'
tp1456
a(S'100000711058277'
S'Harshit Bari'
tp1457
a(S'100000813233702'
S'Jasbir Chouhan'
tp1458
a(S'100002578214773'
S'Jagjeevan Rao Kokkiligadda'
tp1459
a(S'100006597039354'
S'Rakesh Kumar Singh'
tp1460
a(S'100003227305111'
S'Sandeep Rana'
tp1461
a(S'100001963035825'
S'Gm Doss'
tp1462
a(S'100000007963640'
S'Aseem Kumar'
tp1463
a(S'844266811'
S'Himanshu Tambe'
tp1464
a(S'100001484205123'
S'Rajesh Ranjan Prasad'
tp1465
a(S'1686256474'
S'Umesh Agarwal'
tp1466
a(S'100001125469286'
S'Risha Pandey'
tp1467
a(S'1185675983'
S'Devak Saha'
tp1468
a(S'100002540061811'
S'Ujjwal Kumar Sinha'
tp1469
a(S'100003292445195'
S'Avinash Tejpal'
tp1470
a(S'1578939453'
S'Suman Kumar Pandey'
tp1471
a(S'100007618920993'
S'Lalu Prasad Yadav'
tp1472
a(S'100003117288496'
S'Dharambir Singh'
tp1473
a(S'100001438657973'
S'Debashis Chanda'
tp1474
a(S'100000945963714'
S'Vanraj Dodiya'
tp1475
a(S'1432985261'
S'Kunal Satyarthi'
tp1476
a(S'1513565389'
S'Uma Shankar Vidyarthi'
tp1477
a(S'825870827'
S'Sandeep Raj'
tp1478
a(S'1088921332'
S'Sangram R Gaikwad'
tp1479
a(S'100001663233336'
S'Shukracharya Jadhav Irs'
tp1480
a(S'100001250923545'
S'\\u0930\\u093e\\u0923\\u093e \\u0930\\u093e\\u091c \\u0915\\u0947. \\u0938\\u093f\\u0902\\u0939'
tp1481
a(S'100001589293047'
S'Naveen Bafna'
tp1482
a(S'1800017582'
S'Arun Bagaria'
tp1483
a(S'100001368989004'
S'Harish Guliani'
tp1484
a(S'686828266'
S'Tarun Seem'
tp1485
a(S'100000647808553'
S'Dhiraj Gajbhiye'
tp1486
a(S'100000473114927'
S'Pandian Irs'
tp1487
a(S'1302563249'
S'B John Tlangtinkhuma'
tp1488
a(S'100006806341300'
S'Saurabh Tiwary'
tp1489
a(S'100000671656072'
S'Pradeep Sharma'
tp1490
a(S'100000571307850'
S'Swati Ratna'
tp1491
a(S'534989453'
S'Anil Dua'
tp1492
a(S'1186952857'
S'Dheeraj Garg'
tp1493
a(S'1509669228'
S'Indu Shekhar Mishra'
tp1494
a(S'5744345'
S'Ravi Kiran'
tp1495
a(S'562612520'
S'Arun Kumar'
tp1496
a(S'1023390876'
S'Rajesh Naroli Dang Meena'
tp1497
a(S'625348728'
S'Devpreet Singh'
tp1498
a(S'100004084127718'
S'Anant Srikar'
tp1499
a(S'1464366406'
S'Krishna Dixit'
tp1500
a(S'100001542495821'
S'Neeraj Kumar Chanchal'
tp1501
a(S'1540817373'
S'Sonia Singh'
tp1502
a(S'1024341439'
S'Vinay Sinha'
tp1503
a(S'221400003'
S'Saikrishna Budamgunta'
tp1504
a(S'715232363'
S'Khan Akramul Jabbar'
tp1505
a(S'579498763'
S'Goldy Babu'
tp1506
a(S'693129647'
S'Nikhil Zaveri'
tp1507
a(S'1128453173'
S'Santosh Bhattarai'
tp1508
a(S'1015062777'
S'Anurag Srivastava'
tp1509
a(S'100000552415906'
S'Sumit Dasgupta'
tp1510
a(S'100002125983950'
S'Lal Chand'
tp1511
a(S'100000141415521'
S'Sumit Pant'
tp1512
a(S'100006950113499'
S'Satya Prakash Tiwari'
tp1513
a(S'100002060997717'
S'Nishant Sharma'
tp1514
a(S'100000904518741'
S'Saroj Kumar Thakur'
tp1515
a(S'783632852'
S'Anil Peer'
tp1516
a(S'1615659486'
S'Ratnesh Kumar'
tp1517
a(S'1112381646'
S'Deepak Ahuja'
tp1518
a(S'1116928203'
S'Mukesh Bindal'
tp1519
a(S'577999639'
S'Sonam Chombay'
tp1520
a(S'574093524'
S'Akanksha Ojha'
tp1521
a(S'100001198160332'
S'Ranjeeta Ojha'
tp1522
a(S'716140774'
S'Rahul R Pillai'
tp1523
a(S'100001182626917'
S'Ram Bilash Meena'
tp1524
a(S'1319251001'
S'Nikita Bedi Pandey'
tp1525
a(S'100001017093812'
S'Tarkeshwar Mishra'
tp1526
a(S'100000031492255'
S'Samanjoy Mukherjee'
tp1527
a(S'678921450'
S'Mini Verma'
tp1528
a(S'1435347523'
S'Amal Garg'
tp1529
a(S'100000493529242'
S'Rvnd Kumar'
tp1530
a(S'100000466751116'
S'Manjunath Bhajantri'
tp1531
a(S'680863872'
S'Chandra Shekhar Sharma'
tp1532
a(S'1467570542'
S'Suman Darsi'
tp1533
a(S'100001257873968'
S'Kabila Haridoss'
tp1534
a(S'1706095617'
S'Alok Deepak'
tp1535
a(S'100003088703270'
S'Jitendra Kumar'
tp1536
a(S'1577679478'
S'Shantanu Tiwari'
tp1537
a(S'1264722351'
S'Sandeep Gupta'
tp1538
a(S'100002591205114'
S'Mohmmed Mofizur Rahman'
tp1539
a(S'100000622322645'
S'Ritu Sahay'
tp1540
a(S'627089234'
S'Ajay Kumar'
tp1541
a(S'100001351453369'
S'Akhand Pratap Singh'
tp1542
a(S'1567560171'
S'Amol Khairnar'
tp1543
a(S'100002707191338'
S'\\u0935\\u093f\\u091c\\u092f \\u0915\\u0941\\u092e\\u093e\\u0930 \\u0938\\u094b\\u0928\\u0940 \\u092d\\u093e.\\u0930\\u093e.\\u0938\\u0947.'
tp1544
a(S'643517912'
S'Praveen Kumar Singh'
tp1545
a(S'100001368424797'
S'Dhruv Sanchety'
tp1546
a(S'100001628468153'
S'Meenakshi Malhotra Pandey'
tp1547
a(S'1816688467'
S'Dheeraj Shukla'
tp1548
a(S'1365831835'
S'Rohit Ratan'
tp1549
a(S'100002049133751'
S'Daljit Kaur'
tp1550
a(S'1015524411'
S'Dinesh Abusaria'
tp1551
a(S'100003463189628'
S'Tamishra Patnaik'
tp1552
a(S'571340994'
S'Deepak Kumar'
tp1553
a(S'1391421351'
S'Sanjana Kumar'
tp1554
a(S'1468440651'
S'Deepak Sanchety'
tp1555
a(S'633344211'
S'Sony Akhouri'
tp1556
a(S'1127464298'
S'Janmejaya Khanduri'
tp1557
a(S'1658827438'
S'Shravan Kumar'
tp1558
a(S'1321142593'
S'Arvind Maskara'
tp1559
a(S'539989105'
S'Amit Saini'
tp1560
a(S'710321996'
S'Dilip Sharma'
tp1561
a(S'100003822470791'
S'Nidhi Vohra'
tp1562
a(S'100001126387969'
S'Ashish Kumar Singh'
tp1563
a(S'100000599228847'
S'Avadhesh Kumar'
tp1564
a(S'100001654338029'
S'Ajit Kumar Singh'
tp1565
a(S'824637019'
S'Basanta Rajkumar'
tp1566
a(S'1163891574'
S'Sujit Bangar'
tp1567
a(S'1529645079'
S'Arvind Choudhary'
tp1568
a(S'1600325514'
S'Shrish Kumar Das'
tp1569
a(S'100006638138788'
S'Abdul Alim Ansari'
tp1570
a(S'793738432'
S'Dharmendra Herma'
tp1571
a(S'100002404875108'
S'Pammy Jashnani'
tp1572
a(S'100001162664475'
S'Shishir Dhamija'
tp1573
a(S'733015724'
S'Peeyush Samariya'
tp1574
a(S'1092755282'
S'Sridhar Eswaran'
tp1575
a(S'683729530'
S'Rajesh Srivastava'
tp1576
a(S'1082104496'
S'Suman Malik Joshi'
tp1577
a(S'690537447'
S'Ashok Haralalka'
tp1578
a(S'100004139975717'
S'Rajanish Singh'
tp1579
a(S'740988464'
S'Vivek Raj Singh Kukrele'
tp1580
a(S'809403698'
S'Manoj Puri'
tp1581
a(S'100000649508168'
S'Ramanathan Ramakrishnan'
tp1582
a(S'655809884'
S'Ravichandran Ramasamy'
tp1583
a(S'1158078997'
S'Suraj Bhan Garhwal'
tp1584
a(S'706883001'
S'Raman Garg Irs'
tp1585
a(S'752106498'
S'Abhishek Dixit'
tp1586
a(S'100000503505585'
S'Rishi Bisen'
tp1587
a(S'1573717254'
S'Sabyasachi Choubey'
tp1588
a(S'100002741432619'
S'Manoj Singh'
tp1589
a(S'100003767680437'
S'Mahesh KM'
tp1590
a(S'1191040615'
S'Manish Gupta'
tp1591
a(S'1533476602'
S'Manoj Kumar'
tp1592
a(S'100001384850733'
S'Nidhi Sharma'
tp1593
a(S'1782047535'
S'Devapriya Choudhury'
tp1594
a(S'100001511042301'
S'Pankaj Singh'
tp1595
a(S'100004150861976'
S'Tilokchand Ostwal'
tp1596
a(S'100005714047962'
S'Guddu Singh'
tp1597
a(S'100008051974956'
S'Manoj Tiwari Baba'
tp1598
a(S'1353427847'
S'Sumitra Banerji'
tp1599
a(S'100001022679926'
S'Atanu Chatterjee'
tp1600
a(S'100001563312948'
S'Yogesh Nilkanth Warkad'
tp1601
a(S'668616905'
S'Shashank Ojha'
tp1602
a(S'1391456133'
S'Sumeet Misra'
tp1603
a(S'100000531626054'
S'Anil Kumar Das'
tp1604
a(S'100000653884006'
S'Gc Srivastava'
tp1605
a(S'1564164103'
S'Anil Kumar'
tp1606
a(S'100001600998855'
S'Sibin Kovoor'
tp1607
a(S'100007544587062'
S'Pradeep Kumar'
tp1608
a(S'1565960126'
S'Bhavna Chohda Yashroy'
tp1609
a(S'1624575361'
S'Gopal Kamal'
tp1610
a(S'100000413256550'
S'Satish Kumar'
tp1611
a(S'672014883'
S'Tripti Lochan'
tp1612
a(S'100001505174245'
S'Melanz Esteban Olarte'
tp1613
a(S'100002948670088'
S'Sanjeev Choudhary'
tp1614
a(S'100003039255276'
S'Rajesh Pandey'
tp1615
a(S'100002640589967'
S'Binod Singh'
tp1616
a(S'100003818923169'
S'Dibakar Chatterjee'
tp1617
a(S'1505204831'
S'Meena Tiwari'
tp1618
a(S'1639665255'
S'Satish Chandra Jha'
tp1619
a(S'100001156700740'
S'Rajnish Sharma'
tp1620
a(S'661207914'
S'Shailendra Singh'
tp1621
a(S'1588385337'
S'Sanjay K Jha'
tp1622
a(S'759424765'
S'Gulshan Raj'
tp1623
a(S'100001595743750'
S'Asit Mishra'
tp1624
a(S'100000630453046'
S'Basant Garg'
tp1625
a(S'100001972224003'
S'Abhishek Dubey'
tp1626
a(S'738539735'
S'Deepak Tralshawala'
tp1627
a(S'1478602987'
S'Samuel Darse'
tp1628
a(S'100000392089235'
S'Sarthak Sharma'
tp1629
a(S'708075110'
S'Pankaj Singh'
tp1630
a(S'1418005428'
S'Namita K. Ravi'
tp1631
a(S'100000573762969'
S'Rajeev Mohan'
tp1632
a(S'1281220633'
S'Hardeep Batra'
tp1633
a(S'508336331'
S'Miraj D Shah'
tp1634
a(S'702236125'
S'Venu Gopal'
tp1635
a(S'708554395'
S'Sanjeev Kumar'
tp1636
a(S'100001279991070'
S'Bharat Pandya'
tp1637
a(S'100008097554152'
S'Shaurya Shashwat Shukla'
tp1638
a(S'573355858'
S'Dinesh Patwari'
tp1639
a(S'1029353247'
S'Rup Krishen Baqaya'
tp1640
a(S'732518699'
S'Abhay Srivastava'
tp1641
a(S'100003455246879'
S'Namrata Singh'
tp1642
a(S'100000412407039'
S'Varun Kumar Pandey'
tp1643
a(S'100002730890253'
S'Kanhayajee Choube'
tp1644
a(S'100000280374252'
S'Anand Upadhyay'
tp1645
a(S'1062241364'
S'Anurag Goyal'
tp1646
a(S'844052942'
S'Ajit Kumar Jain'
tp1647
a(S'797241958'
S'Sumedha Verma Ojha'
tp1648
a(S'1571427246'
S'Suhani Mishra Shivrayan'
tp1649
a(S'595914432'
S'Atul Kulshrestha'
tp1650
a(S'1124023489'
S'Ruchika Jain'
tp1651
a(S'100000874251035'
S'Shambhu Nath Tripathi'
tp1652
a(S'1738498636'
S'Kalyanam Srinivasan'
tp1653
a(S'648542075'
S'Swaroop Mannava'
tp1654
a(S'1547842985'
S'Harsimran Singh Phd'
tp1655
a(S'100000671967433'
S'Anurag Prasad'
tp1656
a(S'1397272935'
S'Prashant Thakur'
tp1657
a(S'1562461548'
S'Himanshu Trivedi'
tp1658
a(S'100001377654673'
S'Dharm Vir Singh'
tp1659
a(S'100000652928882'
S'Anurradaa S Goyal'
tp1660
a(S'1334147498'
S'Rajneesh Yadav'
tp1661
a(S'100001103675379'
S'Ram Krishn Kedia'
tp1662
a(S'100007070345569'
S'Om Prakash'
tp1663
a(S'100000930507403'
S'Prasoon Kabra'
tp1664
a(S'554863952'
S'G.Shanker Phani Kishore'
tp1665
a(S'780052401'
S'Vinod Bahade'
tp1666
a(S'1212607316'
S'Sheel Asheesh'
tp1667
a(S'683789761'
S'Shailendra Kumar'
tp1668
a(S'1535225196'
S'Sujit Chowdhury'
tp1669
a(S'1064440639'
S'Anupama Anand'
tp1670
a(S'100005278329059'
S'Sanjay Shrivastava'
tp1671
a(S'100000820408064'
S'Rajesh Kumar'
tp1672
a(S'100000067847489'
S'Neeraj Chaubey'
tp1673
a(S'658397480'
S'Firoz Ahmad'
tp1674
a(S'1655358972'
S'Ashish Pandey'
tp1675
a(S'100000573132788'
S'Shailendrasing Rajput'
tp1676
a(S'100002416506339'
S'Shikha Rajput'
tp1677
a(S'749733336'
S'DrZenia Gupta'
tp1678
a(S'732764721'
S'Sarma Tekumalla'
tp1679
a(S'100003104076455'
S'Shubhi Mishra'
tp1680
a(S'793799265'
S'Mohan Deep'
tp1681
a(S'100002300286092'
S'Rajendra Meena'
tp1682
a(S'100001602304993'
S'Swarna Kumar'
tp1683
a(S'548448437'
S'Amitabha Samanta'
tp1684
a(S'100000727801171'
S'Satyapal Singh Meena'
tp1685
a(S'586416617'
S'Reuben Mathew Jacob'
tp1686
a(S'689730842'
S'Punit Singh'
tp1687
a(S'100000562714108'
S'Narender Suhag'
tp1688
a(S'1772561662'
S'Govind Lal'
tp1689
a(S'100000185677892'
S'Pitambar Das'
tp1690
a(S'100001709423307'
S'Anju Pandey'
tp1691
a(S'1708487572'
S'Abhishek Agarwal'
tp1692
a(S'100003303006487'
S'Sanjay Kumar Singh'
tp1693
a(S'100001369974012'
S'Sujata Keshkamat'
tp1694
a(S'100000492420114'
S'Rajat Nanda'
tp1695
a(S'1206332223'
S'Srujani Mohanty'
tp1696
a(S'1209456896'
S'Vivek Kumar Mishra'
tp1697
a(S'1655298042'
S'Rajesh Mahajan'
tp1698
a(S'100000107628946'
S'Bhim Singh'
tp1699
a(S'100003988507621'
S'Ravi Ranjan'
tp1700
a(S'1713440107'
S'Manchak Ipper'
tp1701
a(S'100002272308103'
S'Anuj Kumar Pandey'
tp1702
a(S'100000546695583'
S'Gaurav Mittal'
tp1703
a(S'725814343'
S'Kunal Kumar'
tp1704
a(S'100000805833543'
S'Anshu Agrawal'
tp1705
a(S'100001776240766'
S'Pramod Kumar'
tp1706
a(S'1292688629'
S'Neeraj Kumar'
tp1707
a(S'624997379'
S'Rahul Maheshwari'
tp1708
a(S'100000589744541'
S'Sandeep Rajani'
tp1709
a(S'702528691'
S'Manju Thakur'
tp1710
a(S'100000236173352'
S'Karni Dan'
tp1711
a(S'100003274059214'
S'Riya Singhania'
tp1712
a(S'1205814760'
S'Sanjiv Shankar'
tp1713
a(S'100000490652618'
S'Shivendra Singh'
tp1714
a(S'1781407009'
S'Praween K Singh'
tp1715
a(S'100001670891587'
S'Ajay Dutta'
tp1716
a(S'100000256148184'
S'Nethrapal Irs'
tp1717
a(S'100000117499908'
S'Abhay Gupta'
tp1718
a(S'1508636113'
S'Sunita Billa'
tp1719
a(S'608350731'
S'Kumar Onkareshwar'
tp1720
a(S'100003276717065'
S'Pankaj Kumar'
tp1721
a(S'100002176908744'
S'Abhishek Kumar'
tp1722
a(S'1331446515'
S'Bharat Malhan'
tp1723
a(S'100000719374224'
S'Umme Fardina Adil'
tp1724
a(S'849635082'
S'Rajul Awasthi'
tp1725
a(S'1821247928'
S'CA Harmit Singh'
tp1726
a(S'520164800'
S'Pradeep Kumar'
tp1727
a(S'100000701957785'
S'Sunil Kumar Singh'
tp1728
a(S'1588269386'
S'Ajay Chandra'
tp1729
a(S'585239914'
S'Jiss K Varkey'
tp1730
a(S'100000535234024'
S'Vivekanand Jha'
tp1731
a(S'100001520925524'
S'Sohail Malik Ansari'
tp1732
a(S'100001151078869'
S'Bhagwati Singh Bareth'
tp1733
a(S'100001408805664'
S'Kaushal Kishore'
tp1734
a(S'1470984793'
S'Devi Sharan Singh'
tp1735
a(S'100007456895671'
S'Manoj Makwana'
tp1736
a(S'100000120457212'
S'Samir Sinha'
tp1737
a(S'1466904178'
S'Pramod Kumar Upadhyay'
tp1738
a(S'100003481929424'
S'Anushree Roy'
tp1739
a(S'527844022'
S'Praveen Shekhar'
tp1740
a(S'100001147171893'
S'Koushlendra Tewari'
tp1741
a(S'100001461146701'
S'Ajay Kumar'
tp1742
a(S'594466992'
S'Shobha Basu'
tp1743
a(S'100004770847081'
S'Saumya Krishna'
tp1744
a(S'100003553837302'
S'Anand Mohan'
tp1745
a(S'100000118221896'
S'Pankaj Prakash'
tp1746
a(S'547510861'
S'Paresh Johri'
tp1747
a(S'1510782848'
S'Suresh Agrawal'
tp1748
a(S'1403245601'
S'Rituparn Namdeo'
tp1749
a(S'100003297807327'
S'Priyanka Durbey'
tp1750
a(S'1599631281'
S'Shyamsundar Keshkamat'
tp1751
a(S'1126411903'
S'Pradipta Guha'
tp1752
a(S'590249185'
S'Vikram Batra'
tp1753
a(S'1009712369'
S'Sanjay Kumar'
tp1754
a(S'100000416535958'
S'Arudheer Pandey'
tp1755
a(S'1242679713'
S'Sanjay Choubey'
tp1756
a(S'1428332344'
S'Laxmi Narayan Pant'
tp1757
a(S'1405425633'
S'Vikramjit Singh'
tp1758
a(S'100001479148924'
S'Navin Tiwari'
tp1759
a(S'100001534048345'
S'Bal Krishna'
tp1760
a(S'1700367100'
S'Vinod Tanwani'
tp1761
a(S'100001218898444'
S'Girish Dave'
tp1762
a(S'1082777280'
S'Manoj Johri'
tp1763
a(S'1240275445'
S'Mehul Shah'
tp1764
a(S'100005543791583'
S'Madhu Ranjan Gupta'
tp1765
a(S'1050230666'
S'Abhishek Anand'
tp1766
a(S'100002788266795'
S'Ashwat Prakash'
tp1767
a(S'1424920022'
S'Sudesh Garg'
tp1768
a(S'1791320987'
S'Daya Shanker'
tp1769
a(S'100000277958312'
S'Vikram S Sharma'
tp1770
a(S'100003299227102'
S'Ajay Kumar'
tp1771
a(S'100001419100356'
S'DrVenkatesh Shimoga'
tp1772
a(S'703621333'
S'Rajeev Harit'
tp1773
a(S'1635701184'
S'Ashish Deharia'
tp1774
a(S'713170827'
S'Shahid Khan'
tp1775
a(S'1088988583'
S'Vinod Tiwari'
tp1776
a(S'100006552122545'
S'Yella Chinna'
tp1777
a(S'100003033576991'
S'Omprakash Charan'
tp1778
a(S'573117170'
S'Vachaspati Tripathi'
tp1779
a(S'100002937951529'
S'Ashwin Fulekar'
tp1780
a(S'100001137999504'
S'Abinash Chandra'
tp1781
a(S'1470785623'
S'Sunil KumarJha'
tp1782
a(S'100001806237098'
S'Gunjan Prasad'
tp1783
a(S'556938750'
S'Rajat Saxena'
tp1784
a(S'100005229421148'
S'Samrat Rahi'
tp1785
a(S'1534861018'
S'Siddhartha Das'
tp1786
a(S'1273664299'
S'Fidaur Rahman'
tp1787
a(S'100001935747186'
S'Kalpesh Rupavatiya'
tp1788
a(S'100004320465265'
S'Mritunjay Madhav'
tp1789
a(S'100002134267667'
S'Amit Bobde'
tp1790
a(S'1622945413'
S'Kishan Vyas'
tp1791
a(S'1014527879'
S'Anadee Nath Misshra'
tp1792
a(S'100001643628091'
S'Manju Mishra'
tp1793
a(S'100005205634053'
S'DrSushmita Tiwari'
tp1794
a(S'100000328975078'
S'LK Agarwal'
tp1795
a(S'100004691823108'
S'\\u092d\\u0945\\u0902\\u0935\\u0930 \\u0932\\u093e\\u0932'
tp1796
a(S'100000990808279'
S'Manoj Mehar'
tp1797
a(S'100007126321908'
S'Brajesh Kumar Singh'
tp1798
a(S'100001363935335'
S'Siva Sesha Kumar'
tp1799
a(S'100000639529572'
S'Ravi Babu'
tp1800
a(S'731057544'
S'Nivedita Biswas'
tp1801
a(S'100001954752651'
S'Vishwanath Mishra'
tp1802
a(S'1428355589'
S'Shibaji Basu'
tp1803
a(S'100000313409092'
S'Khushboo Pandey Shukla'
tp1804
a(S'531783746'
S'Vimal Anand'
tp1805
a(S'100002020612984'
S'Chandraprakash Saroj'
tp1806
a(S'100002649427737'
S'Poonam Pandey'
tp1807
a(S'1134646513'
S'Dayainder Singh Sidhu'
tp1808
a(S'691468130'
S'Prabhat Mahapatra'
tp1809
a(S'100000217215339'
S'Rajpreet Kalha'
tp1810
a(S'100003779713642'
S'Neeraj Kumar Srivastava'
tp1811
a(S'575977432'
S'Rahul Negi'
tp1812
a(S'1502426396'
S'Sandeep Banerjee'
tp1813
a(S'100001174323243'
S'Sunil Sourabh'
tp1814
a(S'100000801612030'
S'Chandra Shekhar Singh'
tp1815
a(S'1462488668'
S'Devendra Gupta Deven'
tp1816
a(S'100000930035616'
S'Ramachandrudu Ias'
tp1817
a(S'712909411'
S'Rajiv Ojha'
tp1818
a(S'1216435107'
S'Rajeev Ranade'
tp1819
a(S'100001584586028'
S'Rajendra Prasad B B'
tp1820
a(S'100000264490376'
S'Govind Manish'
tp1821
a(S'100000026821339'
S'Salman Khan'
tp1822
a(S'100000771644632'
S'Rajiv Rai'
tp1823
a(S'100000633614011'
S'Lalit Pandey'
tp1824
a(S'1515297302'
S'Vipul Waghmare'
tp1825
a(S'100000424655254'
S'Anuradha Satish Solanki'
tp1826
a(S'572647969'
S'Kedia Rajeshkumar'
tp1827
a(S'100000006093439'
S'Seema Tripathi'
tp1828
a(S'100003172005882'
S'Umesh Chandra Pandey'
tp1829
a(S'100006762610524'
S'Pradeep Arya'
tp1830
a(S'1093744377'
S'Bipin Nair'
tp1831
a(S'704582193'
S'Kunal Madhukar'
tp1832
a(S'717657784'
S'Viv Nangia'
tp1833
a(S'100000561901527'
S'Anjani Pandey'
tp1834
a(S'100000060037672'
S'Rajan Kumar'
tp1835
a(S'100000039872124'
S'Shantam Bose'
tp1836
a(S'100003340985244'
S'Swapnil R Kapadnis'
tp1837
a(S'1579317430'
S'Digvijai Kumar Chaudhary'
tp1838
a(S'1609149548'
S'Kuckoo Mishra'
tp1839
a(S'100003616344268'
S'Kanak Singh'
tp1840
a(S'562981106'
S'Mamta Kochar'
tp1841
a(S'100000015900244'
S'Neeraj Manchanda'
tp1842
a(S'1372024833'
S'Smita Singh'
tp1843
a(S'100001764926444'
S'Madhuri Pandey'
tp1844
a(S'652924929'
S'Shashi Bhushan Shukla'
tp1845
a(S'100000007112731'
S'Dipak Kumar Sinha'
tp1846
a(S'1489600753'
S'Raghunath Bharti'
tp1847
a(S'100000722515936'
S'Sanjiv Kumar'
tp1848
a(S'100000107287189'
S'Sanjay Sharma'
tp1849
a(S'1346719576'
S'Neeva Jain'
tp1850
a(S'1218107595'
S'Arun C. Bharat'
tp1851
a(S'100000719548716'
S'Sonali Paul'
tp1852
a(S'512229714'
S'Joydeep Mukherjee'
tp1853
a(S'604742695'
S'Gyaneshwar Singh'
tp1854
a(S'1497626184'
S'Rajneesh Singh Aptitude Mentor'
tp1855
a(S'100002594010610'
S'Rakesh Kumar'
tp1856
a(S'594425838'
S'Amlan Duttchoudhury'
tp1857
a(S'1634979694'
S'Anil Khatri'
tp1858
a(S'100000573847199'
S'Deepika Tangadkar'
tp1859
a(S'1635756965'
S'Potharaju Ravindra'
tp1860
a(S'694267424'
S'Alok Malviya'
tp1861
a(S'1013810633'
S'Rajeev Kumar'
tp1862
a(S'100001487537865'
S'Netralal Pandey'
tp1863
a(S'100001275327786'
S'Rajneesh Arvind'
tp1864
a(S'100000298188170'
S'Vikash Mishra'
tp1865
a(S'100007477775392'
S'Rajat Raj'
tp1866
a(S'1325190196'
S'Rajeev P Singh'
tp1867
a(S'1226750708'
S'Rajesh Marigowda'
tp1868
a(S'1505863443'
S'Shyam Gandhi'
tp1869
a(S'1094824496'
S'Mukesh Kumar Pal'
tp1870
a(S'1666673065'
S'Girish Iyengar'
tp1871
a(S'1213292358'
S'Anand Baiwar'
tp1872
a(S'1091584292'
S'Makarand Khetmalis'
tp1873
a(S'100000993909768'
S'Abhishek Singh'
tp1874
a(S'1128777736'
S'Ranjan K Neog'
tp1875
a(S'569120395'
S'Sankar Ramamoorthy'
tp1876
a(S'100001227316082'
S'Vimal Kumar'
tp1877
a(S'1275308632'
S'Neeraj Kumar Sharma'
tp1878
a(S'100000987796279'
S'Ravi Kumar Symbolised Man'
tp1879
a(S'100002571958867'
S'Nagarajan Padmanaban'
tp1880
a(S'591908153'
S'Vivek Kumar'
tp1881
a(S'1465966631'
S'Sunil Bajpai'
tp1882
a(S'100001564914704'
S'Saritamishra Kolhe'
tp1883
a(S'100002588226238'
S'Ishtiyaque Ahmed'
tp1884
a(S'100002185936341'
S'Mithilesh Kumar'
tp1885
a(S'743979218'
S'Abhishek Bhagotia'
tp1886
a(S'554529072'
S'Anchipaka Suneel'
tp1887
a(S'100000130914516'
S'Sridhar Dora'
tp1888
a(S'100000090897950'
S'Vidya Kishore'
tp1889
a(S'100008008778919'
S'Mayank Pandey'
tp1890
a(S'100000476255444'
S'Saurabh Bhagat'
tp1891
a(S'100000278632765'
S'Magpen R Bhutia'
tp1892
a(S'100001715766806'
S'Amrendra Mishra'
tp1893
a(S'100000881632487'
S'Sujit Kumar'
tp1894
a(S'1506104522'
S'Kitto Zhimomi'
tp1895
a(S'100000994783378'
S'Shailendra Kumar'
tp1896
a(S'100003029733659'
S'Suresh Lacheta'
tp1897
a(S'100000472318130'
S'Kumar Saurav'
tp1898
a(S'100000425170764'
S'Parul Ashish Singh'
tp1899
a(S'1133584296'
S'Ashima Deepankar'
tp1900
a(S'100007600413200'
S'John George'
tp1901
a(S'700387027'
S'Mandeep Panwar'
tp1902
a(S'100000423148631'
S'Devesh Vasavada'
tp1903
a(S'100004584454564'
S'Shubham Tiwary'
tp1904
a(S'1525831233'
S'Tajinder Pal Singh'
tp1905
a(S'661770196'
S'Dhananjay Kumar'
tp1906
a(S'100007388257538'
S'Pramod Goel'
tp1907
a(S'1478007865'
S'Aseem Minz'
tp1908
a(S'100000128142406'
S'Jayant Kumar'
tp1909
a(S'1071195329'
S'Abhinav Bohare'
tp1910
a(S'100005887743476'
S'Pramita Mukherjee'
tp1911
a(S'100001688106793'
S'Satya Narayan Kalanauria'
tp1912
a(S'100000781570298'
S'Mayank Priyadarshi'
tp1913
a(S'1094412515'
S'Pankaj Prakash'
tp1914
a(S'1021804187'
S'Yuvraj Singh'
tp1915
a(S'749133437'
S'Yogesh Verma'
tp1916
a(S'100001525676854'
S'Samarendra Sinha'
tp1917
a(S'705003987'
S'Tushar Dhawal Singh'
tp1918
a(S'100002143757740'
S'Ramesh Danday'
tp1919
a(S'100000071078846'
S'Dinesh Sharma'
tp1920
a(S'100001210482211'
S'Mitesh Jain'
tp1921
a(S'579931239'
S'Rajveer Singh'
tp1922
a(S'100002093703786'
S'Ranjana Pandey'
tp1923
a(S'100000296042736'
S'Saravana Kumaran'
tp1924
a(S'100001533261335'
S'Sanjay Tripathy'
tp1925
a(S'100002046439093'
S'Arun Kumar'
tp1926
a(S'100001254324801'
S'Mayank Chauhan'
tp1927
a(S'100000126952270'
S'Niven Chaturvedi'
tp1928
a(S'658987106'
S'Harinder Ahluwalia'
tp1929
a(S'100002765707464'
S'Sunil Sinha'
tp1930
a(S'753141562'
S'Varnali Deka'
tp1931
a(S'1729957290'
S'Altaf Hussain'
tp1932
a(S'802784895'
S'Surabhi Sharma'
tp1933
a(S'100007120837250'
S'Vijay A Kulange'
tp1934
a(S'100001445166446'
S'Indra Vikram Singh Parihar'
tp1935
a(S'100001217762913'
S'Ram Phool Meena'
tp1936
a(S'100001212716592'
S'Rajesh Sharma'
tp1937
a(S'100002927680043'
S'Vyavhar Singh Chahal'
tp1938
a(S'1831607955'
S'Parvez Naikwadi'
tp1939
a(S'582475089'
S'Swapnil Mishra'
tp1940
a(S'100001956117610'
S'Subhakant Sahu'
tp1941
a(S'100001383182211'
S'Padma Kant Jha'
tp1942
a(S'100000239628950'
S'Sudhanshu Shekhar'
tp1943
a(S'100000238923601'
S'Siddharth Meena'
tp1944
a(S'100006378792237'
S'Sharvan Singh'
tp1945
a(S'100002078887119'
S'Aman Walia'
tp1946
a(S'100000456279571'
S'Prem Prakash'
tp1947
a(S'1713680720'
S'Madhukar Pandey'
tp1948
a(S'100005001187846'
S'Rakesh Kumar Choudhary'
tp1949
a(S'1110282033'
S'Lekha Kumar'
tp1950
a(S'100002416446482'
S'Omprakash Singh'
tp1951
a(S'100003867079745'
S'Narottam Mishra'
tp1952
a(S'1643259489'
S'Varsha Ojha'
tp1953
a(S'100000600049341'
S'J Sriram Ifs'
tp1954
a(S'1032736858'
S'Dinesh Kumar A S'
tp1955
a(S'100000214695551'
S'Komal Jogpal'
tp1956
a(S'100003062107219'
S'Rakesh Shankar'
tp1957
a(S'100001610817311'
S'Raj Priy Singh'
tp1958
a(S'766719488'
S'Ajay Srivastava'
tp1959
a(S'734608651'
S'Anadee Nath Misshra'
tp1960
a(S'100002009505556'
S'Arvind Kumar'
tp1961
a(S'100001710402512'
S'Mrignayani Pandey'
tp1962
a(S'100000895470083'
S'Ravindra Tripathi'
tp1963
a(S'650317592'
S'Ujjwal Bhaskar'
tp1964
a(S'715308446'
S'Simranjeet Singh'
tp1965
a(S'1268415419'
S'Sangeeta Singh'
tp1966
a(S'100002580347687'
S'Sita Ram Meena'
tp1967
a(S'100000450150558'
S'Kj Singh'
tp1968
a(S'100000216930960'
S'Rupinder Pannu Brar'
tp1969
a(S'100002913679974'
S'Asha Mishra'
tp1970
a(S'100001658709339'
S'Anita Ifs'
tp1971
a(S'1459954530'
S'Shantanu Dhamija'
tp1972
a(S'1376680016'
S'Samir Agarwal'
tp1973
a(S'1217394910'
S'Bijay Ketan Upadhyaya'
tp1974
a(S'1427071599'
S'Ashok Bal'
tp1975
a(S'1006741620'
S'Narasimha Raju'
tp1976
asS'id'
p1977
S'1577889574'
p1978
s.