(dp1
S'friends'
p2
(lp3
(S'100008319979060'
S'Pawan Jadhav'
tp4
a(S'100001272801954'
S'NiiKhiil PaTiil'
tp5
a(S'1585156090'
S'Swati Verma'
tp6
a(S'100008348957111'
S'Dilip Mishra'
tp7
asS'id'
p8
S'1585156090'
p9
sS'name'
p10
S'Swati Verma'
p11
s.