(dp1
S'friends'
p2
(lp3
(S'100003097122070'
S'Vijay Choudhary'
tp4
a(S'100001701524864'
S'Deepak Kumar'
tp5
a(S'1459101149'
S'Shashi Kant Pandey'
tp6
a(S'100000774353608'
S'Vinod Agrawal'
tp7
a(S'1110282033'
S'Lekha Kumar'
tp8
a(S'100000213652545'
S'Gopal Prasad Choudhary'
tp9
a(S'100000523522630'
S'Rajiv Mittal'
tp10
a(S'580961591'
S'Ravindra Sanghai'
tp11
a(S'100000637453107'
S'Sishir Sinha'
tp12
a(S'100000909832070'
S'Sanjay Choudhary'
tp13
a(S'803902698'
S'Vishal Choudhary'
tp14
a(S'1465252463'
S'Seema Dokania Agrawal'
tp15
a(S'100000517150731'
S'Manish Jawanpuria'
tp16
a(S'1342228423'
S'Anand Kumar Agrawal'
tp17
a(S'100001567050257'
S'Uttam Naredi'
tp18
a(S'674169459'
S'Manish Khandelwal'
tp19
a(S'522998987'
S'Shanker Dutt'
tp20
a(S'1162083153'
S'Ram Sewak Sharma'
tp21
a(S'100003450448021'
S'Sunil Kumar Rungta'
tp22
a(S'100000601190476'
S'Pradeep Naredi'
tp23
a(S'100000894699607'
S'Bharat Singhania'
tp24
a(S'100001534070545'
S'Deoki Nandan Agrawal'
tp25
a(S'100002405037305'
S'Indu Gupta'
tp26
a(S'1517470020'
S'Manoj Kumar Singh'
tp27
a(S'100002449994259'
S'Chartered Pariwar'
tp28
a(S'1332540950'
S'Anup Sanghai'
tp29
a(S'1016325388'
p30
S'Mohan Kumar Singhania'
tp31
a(S'100001482584784'
S'Prashant Bhushan'
tp32
a(S'100002163188044'
S'Moni Sandilya'
tp33
a(S'672323744'
S'Abhishek Khowala'
tp34
a(S'100000245703985'
S'Kailash Singhania'
tp35
a(S'100003693189418'
S'Sajjan Naredi'
tp36
a(S'585988766'
S'Atul Bheda'
tp37
a(S'774065390'
S'Sugandh Jalan'
tp38
a(S'100002448528845'
S'Archana Choudhary'
tp39
a(S'100001514330782'
S'Budh Gupta'
tp40
a(S'1064547969'
S'Amitabh Kumar'
tp41
a(S'1489728459'
S'Anand Harnathka'
tp42
asS'id'
p43
S'1593663907'
p44
sS'name'
p45
S'Arun Khowala'
p46
s.