(dp1
S'friends'
p2
(lp3
(S'654103766'
S'Rohan Jain'
tp4
a(S'100000942131504'
S'Saurav Arora'
tp5
a(S'774418757'
S'Arjun Mehta'
tp6
a(S'100000530739174'
S'Sahil Dhingra'
tp7
a(S'1804569118'
S'Sahib Singh Brara'
tp8
a(S'1409457222'
S'Aakritee Raj'
tp9
a(S'784324664'
S'Mehma J. Singh'
tp10
a(S'100000309745083'
S'Nikhil Sehgal'
tp11
a(S'100002349454763'
S'Shradha Joshi'
tp12
a(S'500291330'
S'Radhika Bhalla'
tp13
a(S'1349889173'
S'Udaykaran Khatra'
tp14
a(S'1842794991'
S'Kartik Sahdev'
tp15
a(S'1535896236'
S'Sartaj Sandhu'
tp16
a(S'837277557'
S'Kartik Marwaha'
tp17
a(S'625169456'
S'Rohan Garg'
tp18
a(S'100004141302771'
S'Gopi Khalsa'
tp19
a(S'728571569'
S'Anek Singh Brar'
tp20
a(S'631721402'
S'Seerat Batth'
tp21
a(S'1251393803'
S'Charanjeet Singh'
tp22
a(S'716067838'
S'Seerat Brar'
tp23
a(S'545879413'
S'Tripesh Sakhuja'
tp24
a(S'508933492'
S'Ishu Wadhawan'
tp25
a(S'100000176741642'
S'Kashish Madan'
tp26
a(S'100002557423575'
S'Sharad Chawla'
tp27
a(S'538707582'
S'Ruigi Marquez'
tp28
a(S'1545841126'
S'Maneeisha Sharma'
tp29
a(S'100000074636228'
S'Sahiba Ahluwalia'
tp30
a(S'100000507603341'
S'Brahmjot Gill'
tp31
a(S'100007247521358'
S'Ananya Shrivastav'
tp32
a(S'1201788114'
S'Aditya Chawla'
tp33
a(S'100002342027472'
S'Namrata PS Chahal'
tp34
a(S'100001331354365'
S'Mallika Vadhera'
tp35
a(S'824365550'
S'Mithat Singh'
tp36
a(S'1798451300'
S'Nandan Kapoor'
tp37
a(S'1582201162'
S'Pratap Singh Gill'
tp38
a(S'1777046134'
S'Gurashish Juneja'
tp39
a(S'1404792292'
S'Gauri Gill'
tp40
a(S'100006476533190'
S'Manoj Keshri'
tp41
a(S'100003335547836'
S'Raghav Trehan'
tp42
a(S'1046842667'
S'Anna Dewan'
tp43
a(S'1317167451'
S'Damini Goswamy'
tp44
a(S'100001359066891'
S'Sandeep Sandy'
tp45
a(S'1464701816'
S'Aseem Kaushal'
tp46
a(S'704697858'
S'Mannat Chandail'
tp47
a(S'100001336124221'
S'Sukhsandesh Singh Chahal'
tp48
a(S'1383512817'
p49
S'Harshvardhan Jain'
tp50
a(S'701159309'
S'Ranveer Singh Battu'
tp51
a(S'1520431431'
S'Mansukh Singh'
tp52
a(S'1634430574'
S'Pawini Sharma'
tp53
a(S'100001663664885'
S'Raman Arora'
tp54
a(S'1715562112'
S'Gurmehar Sekhon'
tp55
a(S'1355511379'
S'Shady Arun'
tp56
a(S'1629126661'
S'Tanu Priya'
tp57
a(S'100001944369675'
S'Sikander Singh'
tp58
a(S'576210909'
S'Kusum Kd'
tp59
a(S'1532973907'
p60
S'Anupama Sharma'
tp61
a(S'1152183797'
S'Siddharth Bhatia'
tp62
a(S'100002479902431'
S'Anu Vinod Sharma'
tp63
a(S'100001994444099'
S'Naomi Dewan'
tp64
a(S'1659290559'
S'Nikhil Mehtani'
tp65
a(S'883225695'
S'Rajan Rajput'
tp66
a(S'100000154685564'
S'Anahita Sachdev'
tp67
a(S'1726193122'
S'Akanksha Mahajan'
tp68
a(S'669376663'
S'Rhea Khanna'
tp69
a(S'515679964'
S'Javin Sant'
tp70
a(S'717041265'
S'Bani Seth'
tp71
a(S'100002434497612'
S'Shivam Verma'
tp72
a(S'100001252602347'
S'Shreya Sood'
tp73
a(S'1654552749'
S'Harsh Mangat'
tp74
a(S'573622559'
S'Paras Bajaj'
tp75
a(S'735636518'
S'Vinay Arora'
tp76
a(S'100001733759147'
S'Gaurav Pathak'
tp77
a(S'503061877'
S'Sandeep Agnihotri'
tp78
a(S'623330579'
S'DK Singh'
tp79
a(S'541992242'
S'Nilesh Batra'
tp80
a(S'678920137'
S'Saanya Ojha'
tp81
a(S'1526046550'
S'Lovena Goswami'
tp82
a(S'557297021'
S'Jaiveer Singh Brar'
tp83
a(S'100001990556694'
S'Devam Verma'
tp84
a(S'1612658862'
S'Kunwar Sandhu'
tp85
a(S'100000017567148'
S"Sonakshi 'Sandy' Chowdhry"
tp86
a(S'100000722529762'
p87
S'Tanya Sharma'
tp88
a(S'1790487036'
S'Parika Kamra'
tp89
a(S'100000006653159'
S'Jeneesha Singh'
tp90
a(S'652516305'
S'Arzoo Sandhu'
tp91
a(S'1259755123'
S'Shaurya Rajour'
tp92
a(S'100000037542663'
S'Riya Thukral'
tp93
a(S'1468425172'
S'Sahiba Khurana'
tp94
a(S'1320309830'
p95
S'Aarush Sood'
tp96
a(S'100001433990408'
S'Prakul Chhabra'
tp97
a(S'502502390'
S'Mehak Rampal'
tp98
a(S'100003264283136'
S'Savera Sinner Khara'
tp99
a(S'1493478333'
S'Siddharth Rajour'
tp100
a(S'1241434206'
p101
S'Agrima Ahluwalia'
tp102
a(S'1629807665'
S'Puneet Brar'
tp103
a(S'100001566169192'
S'Bhavya Aggarwal'
tp104
a(S'515830019'
S'Harmehar Singh Kang'
tp105
a(S'1202798613'
S'Yash Swami'
tp106
a(S'100002481418587'
S'Simrat Panesar'
tp107
asS'id'
p108
S'1611615033'
p109
sS'name'
p110
S'Arjun Dewan'
p111
s.