(dp1
S'friends'
p2
(lp3
(S'796140532'
S'Parizad Porus Mandviwala'
tp4
a(S'100000238777029'
S'Chef Mukul'
tp5
a(S'100000423562026'
S'Ajay Kumar'
tp6
a(S'578044127'
S'Ramanand S Prabhu Dessai'
tp7
a(S'100000174773240'
S'Himani Pant'
tp8
a(S'1467090277'
S'Ambika Philip'
tp9
a(S'100002504363291'
S'Sunil Kumar'
tp10
a(S'506551635'
S'Dilpreet Singh'
tp11
a(S'100000816425939'
S'Shona Sweetie'
tp12
a(S'100001415906095'
S'Rita Khanna'
tp13
a(S'1134434901'
S'NL NL'
tp14
a(S'665249808'
S'Saurabh Khanna'
tp15
a(S'1457131728'
S'Shiva Kumar'
tp16
a(S'100000567139408'
S'Chinmay Biswal'
tp17
a(S'100000247260518'
S'Neeraj Batra'
tp18
a(S'1520540229'
S'Deepak Dwivedi'
tp19
a(S'100006491942154'
S'Lucky Malhotra'
tp20
a(S'577416979'
S'Bikramjeet Kanwarpal'
tp21
a(S'663252029'
S'Janet Miranda'
tp22
a(S'100000549367201'
S'Anil Kumar'
tp23
a(S'100005169729395'
S'Goapartylovers Infoo'
tp24
a(S'100000347092110'
S'Anisha Anil Paiguinkar'
tp25
a(S'573922588'
S'Amit Tripathi'
tp26
a(S'100005235193945'
S'Usha Khosla'
tp27
a(S'561495722'
S'Moneywadhwa Singh'
tp28
a(S'1384934243'
S'Chaitanya Hiray'
tp29
a(S'100002520496706'
S'Kshitij Pandey'
tp30
a(S'1412942013'
S'Sovan Kumar'
tp31
a(S'100000134371971'
S'Sudipta Roy'
tp32
a(S'100002101592994'
S'Chef Tam Raymajhi'
tp33
a(S'100000465115182'
S'Tanima Mitra'
tp34
a(S'100001154334923'
S'Megha Gulati'
tp35
a(S'1512448394'
S'Abhishek Jain'
tp36
a(S'1704619804'
p37
S'Raunaq Khanna'
tp38
a(S'1154772306'
S'Harinder Singh'
tp39
a(S'100003509620110'
S'Omprakash Anand'
tp40
a(S'100000306740493'
S'Minesh Narvekar'
tp41
a(S'758434967'
S"Colin D'Cruz"
tp42
a(S'741920751'
S'Vikram Aditya Singh'
tp43
a(S'100001490433726'
S'Vijay Kumar Batra'
tp44
a(S'636551825'
S'Sumit Datta'
tp45
a(S'593622336'
S'Johnson Chandy'
tp46
a(S'100002321632357'
S'Vicky Uday'
tp47
a(S'751858065'
S'Georgi Thomas'
tp48
a(S'1198984311'
S'Cunal Ranjan'
tp49
a(S'1136483920'
S'Syed Haider Abbas'
tp50
a(S'1466979635'
S'Ashish Kumar Sharma'
tp51
a(S'100000634801876'
S'Praveen Reddy'
tp52
a(S'669022651'
S'Reginaldo Dsouza'
tp53
a(S'100001735437433'
S'Vikas Bhatt'
tp54
a(S'1247566069'
S'Naveen Sharma'
tp55
a(S'623686586'
S'Vibhav Singh'
tp56
a(S'100001590819965'
S'Vishwanath Shelke'
tp57
a(S'100000660686979'
S'Manoj Pramanik'
tp58
a(S'100000264795363'
S'Prashant Tyagi'
tp59
a(S'100002132493581'
S'Piyush Bhindwar'
tp60
a(S'100001319300392'
S'Prabhat Kumar'
tp61
a(S'744871216'
S'Prakhar Tandon'
tp62
a(S'1024247734'
S'Manjit Singh'
tp63
a(S'698441698'
S'Smriti Ojha'
tp64
a(S'1518920501'
S'Megha Sharma'
tp65
a(S'100000244148245'
S'Nisha Agarwal'
tp66
a(S'608397476'
S'Sunil Goa'
tp67
a(S'715465671'
S'Emmanuel Antao'
tp68
a(S'1477650208'
S'Alok Gairola'
tp69
a(S'100001924271811'
S'Ajay Chauhan'
tp70
a(S'542113219'
S'Piyush Tandon'
tp71
a(S'100001880777987'
S'Tania Romanova'
tp72
a(S'522528133'
S'Binny Dhadwal'
tp73
a(S'100001324196429'
S'Krishna Goswami'
tp74
a(S'1541253689'
S'Arpita Mishra'
tp75
a(S'100000636690923'
S'B Vijay Kumar'
tp76
a(S'100003857750839'
S'Harsha Chowdary'
tp77
a(S'572738091'
S'Kdj Tony'
tp78
a(S'100000826095165'
S'Anthony Alexander'
tp79
a(S'100000893968593'
S'Sebastian Paul Dias'
tp80
a(S'610787342'
S'Ashwin Bhat'
tp81
a(S'815914700'
S'Khushboo Khosla'
tp82
a(S'716667337'
S'Sawan Kumar'
tp83
a(S'100000120874704'
S'John Pereira'
tp84
a(S'1283925417'
S'Manpreet Singh Lamba'
tp85
a(S'1112721393'
S'Sumedha Pant Batra'
tp86
a(S'1741014248'
S'Queenie Fernandes E Mascarenhas'
tp87
a(S'100002983087393'
S'Mediawaves Goa'
tp88
a(S'544450851'
S'Abbas Naqvi'
tp89
a(S'1363012916'
S'Richa N. Brojobasi'
tp90
a(S'535866923'
S'Dennis George'
tp91
a(S'100003862096115'
S'Prakash Singh'
tp92
a(S'1021010821'
S'Neha Budhiraja Kohli'
tp93
a(S'1218394500'
S'Shubhra Khandelwal'
tp94
a(S'590312732'
S'Saida Babu'
tp95
a(S'100000686658934'
S'Pooja Kamat'
tp96
a(S'100004688949766'
S'Rajeev Upadhyay'
tp97
a(S'1187885957'
S'Abhishek Tandon'
tp98
a(S'555936649'
S'Sushil Jain'
tp99
a(S'100001992096066'
S'RaviSharma SeniorFaculty IihmDelhi'
tp100
a(S'100002204088184'
S'Naveen Pandey'
tp101
a(S'527150736'
S'Alasdair Davidson'
tp102
a(S'544232710'
S'Ashish Deva'
tp103
a(S'581640799'
S'Nischint Pathania'
tp104
asS'id'
p105
S'1637784669'
p106
sS'name'
p107
S'Udit Batra'
p108
s.