(dp1
S'friends'
p2
(lp3
(S'100004576783690'
S'\\u0633\\u0627\\u062d\\u0644 \\u0645\\u062d\\u0628\\u062a'
tp4
a(S'100001196852801'
S'\\u0645\\u0627\\u062c\\u062f \\u0633\\u0631\\u0648\\u0631'
tp5
a(S'1670225431'
S'Najib Mayar'
tp6
a(S'100008050418984'
S'\\u062e\\u0628\\u0631 \\u0639\\u0627\\u062c\\u0644'
tp7
a(S'100003091128177'
S'Nasir Khan'
tp8
asS'id'
p9
S'1670225431'
p10
sS'name'
p11
S'Najib Mayar'
p12
s.