(dp1
S'name'
p2
S'Byomkesh Panda'
p3
sS'current_class'
p4
S'india'
p5
sS'home_class'
p6
Vbhubaneshwar, odisha, india
p7
sS'home_text'
p8
VBhubaneshwar, Orissa, India\u000aHometown
p9
sS'current_link'
p10
Vhttps://www.facebook.com/l.php?u=https%3A%2F%2Fwww.bing.com%2Fmaps%2Fdefault.aspx%3Fv%3D2%26pc%3DFACEBK%26mid%3D8100%26where1%3D21.170000579914%252C%2B72.829742431641%26name%3DSurat%252C%2BGujarat%26mkt%3Den-IN&h=uAQGoVgsk&s=1
p11
sS'home_link'
p12
Vhttps://www.facebook.com/l.php?u=https%3A%2F%2Fwww.bing.com%2Fmaps%2Fdefault.aspx%3Fv%3D2%26pc%3DFACEBK%26mid%3D8100%26where1%3D20.233300594568%252C%2B85.832061767578%26name%3DBhubaneshwar%252C%2BOrissa%252C%2BIndia%26mkt%3Den-IN&h=WAQF60_Fb&s=1
p13
sS'current_text'
p14
VSurat, Gujarat\u000aCurrent City
p15
sS'friends'
p16
(lp17
sS'id'
p18
S'1673116225'
p19
s.