(dp1
S'friends'
p2
(lp3
(S'644906350'
S'Sneha Jacob'
tp4
a(S'100000862826484'
S'Varun C Biradar'
tp5
a(S'624480334'
S'Pratibha Nair'
tp6
a(S'597933121'
p7
S'Abel Thayil'
tp8
a(S'100000112051729'
S'Srivas Seshadri'
tp9
a(S'1824102451'
S'Adish Siddapur Matada'
tp10
a(S'1099004671'
S'Shreya Naha'
tp11
a(S'592953797'
S'Aditya Cherukumudi'
tp12
a(S'614197015'
S'Shishir Sugutur'
tp13
a(S'510377331'
S'Sartaj Tanweer'
tp14
a(S'100001207262792'
S'Avishek Biswas'
tp15
a(S'100000604698493'
S'Pooja Yadav'
tp16
a(S'596703995'
S'Aditya Raj'
tp17
a(S'1303472068'
S'Shubhang Goswami'
tp18
a(S'100000226538005'
S'Gautham Jayakumar'
tp19
a(S'100000999719044'
S'Oindrilla Roy'
tp20
a(S'645535887'
S'Pooja Nayak'
tp21
a(S'622289889'
S'Ashesh Gupta'
tp22
a(S'100000790200789'
S'Jayanth YP'
tp23
a(S'622323511'
S'Kabeeb Sivaprasad'
tp24
a(S'100000597399629'
S'Prakruthi Mk'
tp25
a(S'638498310'
S'Sankalp Oberoi'
tp26
a(S'1496056959'
S'Rahul Chawla'
tp27
a(S'623890044'
S'Varun Vijay Lakhani'
tp28
a(S'100001451378321'
S'Rajath Reddy'
tp29
a(S'679717717'
p30
S'Abhishek Venkatesh'
tp31
a(S'100002224237233'
S'Cibi Pragadeesh'
tp32
a(S'1353688100'
S'Shubhendu Shankar'
tp33
a(S'511614727'
S'Rajathy Gerlyn Henry'
tp34
a(S'100000187344739'
S'Siddhu Rao'
tp35
a(S'100000325804132'
S'Akshay Gaikwad'
tp36
a(S'1347732018'
S'Abhijay Giri'
tp37
a(S'592845041'
S'John Raphael'
tp38
a(S'1279114618'
S'Arjun Raja'
tp39
a(S'100001551856002'
S'Dharmanshu Johar'
tp40
a(S'100007313016075'
S'Neha Marla'
tp41
a(S'100000214031199'
S'Cleatus Alexander'
tp42
a(S'100001321277192'
S'Prafful Um'
tp43
a(S'1193042987'
S'Rakshith S Ponnathpur'
tp44
a(S'1456306737'
S'Siddhant Sinha'
tp45
a(S'601208203'
S'Deepti Gopinath'
tp46
a(S'100000333427447'
S'Prashanth Tk'
tp47
a(S'100001721766679'
S'Subham Nandy'
tp48
a(S'100000538053285'
S'Rishab Nagaraj'
tp49
a(S'100000129424911'
S'Vivek Chettiar'
tp50
a(S'1083253019'
S'Shyamkrishnan Padmanabhan'
tp51
a(S'100002355002384'
S'Shashank Kemminje'
tp52
a(S'1298612199'
S'Rohit Nagraj'
tp53
a(S'1396107603'
S'Abhilash Varier'
tp54
a(S'100002352512680'
S'Srinivasa Dg'
tp55
a(S'1021416242'
S'Mehul Layabout Sinha'
tp56
a(S'1212118481'
S'Tushar Kanakagiri'
tp57
a(S'100002449133186'
S'Ashwin Hegde'
tp58
a(S'513126500'
S'Janani Rajkumar'
tp59
a(S'1551461988'
S'Tanmay Chinchore'
tp60
a(S'100000561639219'
S'Sushma M Swamy'
tp61
a(S'100003612213658'
S'Kiran KN'
tp62
a(S'1511626133'
S'Aditya Venkat'
tp63
a(S'643685754'
S'Nikhil Shenoy'
tp64
a(S'100000161175912'
S'Mihir Gadgil'
tp65
a(S'536514483'
S'Nishmita Ravindranath'
tp66
a(S'635572890'
S'Rajiv Shankar'
tp67
a(S'1013254976'
S'Sachin Umashankar'
tp68
a(S'570675481'
S'Sukanya Pati'
tp69
a(S'100001525596922'
S'Suraj Manjesh'
tp70
a(S'587567938'
S'Rajeev Rambhatla'
tp71
a(S'671140231'
S'Akshat R Runwal'
tp72
a(S'100000927408245'
S'Priyanka Mohan'
tp73
a(S'541463705'
S'Angad Bal'
tp74
a(S'100003762244396'
S'Shubham Ghosh'
tp75
a(S'609930454'
S'Tanya Kapool'
tp76
a(S'1667312476'
S'Mukul Singh Dhoni'
tp77
a(S'585827573'
S'Siddharth Singh'
tp78
a(S'554381514'
S'Yash Chhabria'
tp79
a(S'644275820'
S'Owais Sy\\u00ebd'
tp80
a(S'1781127131'
S'Kushal Kempaiah'
tp81
a(S'594118403'
S'Archana Subramanian'
tp82
a(S'1289847580'
S'Shruti Shinde'
tp83
a(S'591973360'
S'Anjali Jha'
tp84
a(S'100000551254640'
S'Shriya P Balaji'
tp85
a(S'1769034925'
S'Raksheet Bhat'
tp86
a(S'528736952'
S'Roohi Huma'
tp87
a(S'100000004991860'
S'Samiksha Manjunath'
tp88
a(S'1573812649'
S'Sagar Deshpande'
tp89
a(S'100000433433091'
S'Nithin Bala'
tp90
a(S'1024224452'
S'Rishikesh V Hiremath'
tp91
a(S'1304347828'
S'Shrirag Kodoor'
tp92
a(S'100003405543966'
S'Pankaj Kanyal'
tp93
a(S'509925565'
S'Aditya Goel'
tp94
a(S'100006773793405'
S'Radheshyam Kumar'
tp95
a(S'544061587'
p96
S'Devanshi Nemani'
tp97
a(S'1363036567'
S'Skanda Kumar'
tp98
a(S'639564148'
S'Deepak Dilipkumar'
tp99
a(S'670825192'
S'Ashima Raizada'
tp100
a(S'1386198711'
S'Sidharth Sarawgi'
tp101
a(S'509063110'
S'Noel Henry'
tp102
a(S'1680405430'
S'Thomas Mohan'
tp103
a(S'598543961'
S'Vedant Kashyap'
tp104
a(S'624395620'
S'Yash Vardhan Kanoi'
tp105
a(S'638974260'
S'Sumedha Khandelwal'
tp106
asS'id'
p107
S'1675887360'
p108
sS'name'
p109
S'Sanil Rao'
p110
s.