(dp1
S'friends'
p2
(lp3
(S'100000274618266'
S'Kartikeya Raj'
tp4
a(S'1190295470'
S'Apoorv Pratap Singh'
tp5
a(S'100002972762668'
S'Zeal Entertainm\\u00e9nt'
tp6
a(S'100003897764771'
S'Poonam Jindal'
tp7
a(S'785372364'
S'Shikharr Chandra'
tp8
a(S'1003109842'
S'Sudarshan Banga'
tp9
a(S'1142329231'
S'Nazuk Sahi'
tp10
a(S'1716561304'
S'Devanshu Saxena'
tp11
a(S'1077327183'
S'Shantanu Gangwar'
tp12
a(S'641933618'
S'Asha Singha'
tp13
a(S'100000466586840'
S'Digvijay Singh'
tp14
a(S'606739334'
S'Akshara Shrivastava'
tp15
a(S'100001245761105'
S'Ronit Shastri'
tp16
a(S'100002564264900'
S'Brianna Lee'
tp17
a(S'785543795'
S'Gauri Punekar'
tp18
a(S'100001138903328'
S'Mayank Singh'
tp19
a(S'100000401682367'
S'Samridhi Uniyal'
tp20
a(S'100003761320620'
S'Ayushi Sharma'
tp21
a(S'100000189521327'
S'Yadvi Maheshwari'
tp22
a(S'100000212793482'
S'Michael Singha'
tp23
a(S'100000503739687'
S'Rahul Jain'
tp24
a(S'100001620636250'
S'Abhijeet Bhasker'
tp25
a(S'1684471451'
S'Vipul Sejwal'
tp26
a(S'100001682506379'
S'Naman Suyal'
tp27
a(S'739558090'
S'Shubham Agrawal'
tp28
a(S'1654489212'
S'Neha Agrawal'
tp29
a(S'100000045311740'
S'Gauri Bhatnagar'
tp30
a(S'100005851031583'
S'Abhineet Sain'
tp31
a(S'100003986030034'
S'Shweta Jha'
tp32
a(S'100000457997764'
S'Ishan Sharma'
tp33
a(S'100001563593979'
S'Mayank Cy'
tp34
a(S'1821222278'
S'Aniket Chatterjee'
tp35
a(S'100001877088745'
S'Raviteja Varma'
tp36
a(S'1018706376'
S'Rakshit Madaan'
tp37
a(S'100001155236909'
S'Akshay Kumar Upadhyay'
tp38
a(S'1021344484'
S'Ashutosh Dwivedi'
tp39
a(S'100000832032011'
S'Hammad Khalid'
tp40
a(S'1031452186'
S'Vibhas Bhatnagar'
tp41
a(S'100003994146747'
S'Abhinandan Sain'
tp42
a(S'100003231842110'
S'Jeevan Chauhan'
tp43
a(S'577846921'
S'Arushi Painuly'
tp44
a(S'100000997383613'
S'Prakhar Gupta'
tp45
a(S'100001124554780'
S'Saurabh Verma'
tp46
a(S'100003818844569'
S'Deepali Dips'
tp47
a(S'100001393383187'
S'Garvit Rajput'
tp48
a(S'531372768'
S'Revaanta Dasgupta'
tp49
a(S'100001559331557'
S'Vineet Dash'
tp50
a(S'100000055252120'
S'Sangeet Basu Biswas'
tp51
a(S'100000436776764'
S'Stuti Bhatia'
tp52
a(S'100001187877392'
S'Akhil Singh'
tp53
a(S'100000924090304'
S'Moinak Das'
tp54
a(S'100000993213329'
S'Arushi Agarwal'
tp55
a(S'100000619565386'
S'Srishti Srivastava'
tp56
a(S'787641036'
S'Aadya Saxena'
tp57
a(S'100000948252314'
S'Anshika Gupta'
tp58
a(S'100000803846310'
S'Manish Johaan Verma'
tp59
a(S'100003748390091'
S'Abhishek Jain'
tp60
a(S'100001728083684'
S'Dhruv Sharma'
tp61
a(S'100001823177071'
S'Aditya Jindal'
tp62
a(S'1509982978'
S'Rajoshree Maitra'
tp63
a(S'100000261100343'
S'Mayank Gupta'
tp64
a(S'1268386564'
S'Saloni Khanna'
tp65
a(S'100000233066653'
S'Sakshi Sharma'
tp66
a(S'100001164180085'
S'Shivam Kumar'
tp67
a(S'100000109766116'
S'Vishal Priyanka Dash'
tp68
a(S'100000168248136'
S'Mudit Aggarwal'
tp69
a(S'749949026'
S'Prachi Bhagotra'
tp70
a(S'100001628963095'
S'Sarthak Gaur'
tp71
a(S'100003301119118'
S'Zaara Khan'
tp72
a(S'743233444'
S'Tanya Mohindra'
tp73
a(S'100000547837891'
S'Tarang Agarwal'
tp74
a(S'100003976476706'
S'Maheep Tripathi'
tp75
a(S'100000073179389'
S'Shailesh Jha'
tp76
a(S'1538246707'
S'Harshit Ratna'
tp77
a(S'100002108553980'
S'Yash Agarwal'
tp78
a(S'100000007620899'
S'Karthikeyan Subramanian'
tp79
a(S'640448148'
S'Digvijay Singh Kushwaha'
tp80
a(S'1421325694'
S'Tushar Raj Verma'
tp81
a(S'1635660587'
S'Shubhankar Diptiman'
tp82
a(S'1208423696'
S'Saurabh Verma'
tp83
a(S'100001167237319'
S'Anirudh Pratap Singh'
tp84
a(S'520857359'
S'Praguni Mukherjee'
tp85
a(S'100001821410696'
S'Mayank Sachdeva'
tp86
a(S'1229525174'
S'Sachit Tandon'
tp87
a(S'1845054457'
S'Gaurav Daga'
tp88
a(S'100000072606949'
S'Aakarsh Goel'
tp89
a(S'1082767098'
S'Soumya Sharma'
tp90
a(S'100001262292288'
S'Kanika Hans'
tp91
a(S'100000496073199'
S'Saurabh Mishra'
tp92
a(S'1168848997'
S'Madhav Nagi'
tp93
a(S'1806245650'
S'Devyanshu Gupta'
tp94
a(S'1027538638'
S'Anurag Kumar'
tp95
a(S'100000400065816'
S'Krishna Dwypayan'
tp96
a(S'1046298660'
S'Rohan Mital'
tp97
a(S'100000260765173'
S'Ajay James'
tp98
a(S'1153165365'
S'Aakshi Ajmani'
tp99
a(S'100001405825993'
S'Hardik Singh Negi'
tp100
a(S'100000844630178'
S'Vishal Kumar'
tp101
a(S'1032313130'
S'Rakshit Jain'
tp102
a(S'591014070'
S'Akshay Sethi'
tp103
a(S'1406601057'
S'Yash Kumar'
tp104
a(S'100000106484602'
S'Pulkit Rastogi'
tp105
a(S'1842903716'
S'Vasudevan Kalahasthy'
tp106
a(S'1370735684'
S'Ateesh Gupta'
tp107
a(S'100001254876735'
S'Shashank Shekhar'
tp108
a(S'100000226416447'
S'Jalaj Singh'
tp109
a(S'1097226490'
S'Saim Naidu'
tp110
a(S'1505422934'
S'Sohum Wahi'
tp111
a(S'100002462223660'
S'Shubham Tyagi'
tp112
a(S'100000719474419'
S'Abhinav Moona'
tp113
a(S'100000634611741'
S'Aashi Bhat'
tp114
a(S'1838777506'
S'Vaibhav Agarwal'
tp115
a(S'100000134823510'
S'Arjun Kumar'
tp116
a(S'100000472782442'
S'Varun Grover'
tp117
a(S'578403358'
S'Mehak Srivastava'
tp118
a(S'1506015524'
S'Aditya Kohli'
tp119
a(S'100000162458310'
S'Abhay Kanoo'
tp120
a(S'100000881933708'
S'Lisha Bhati'
tp121
a(S'100002311209612'
S'Ruhi Choudhary'
tp122
a(S'100000410760831'
S'Sonal Garg'
tp123
a(S'763129514'
S'Nikita Malhotra'
tp124
a(S'100000751706791'
S'Renu Gupta'
tp125
a(S'589598024'
S'Alok Banga'
tp126
a(S'1644812404'
S'Dhruv Tyagi'
tp127
a(S'1466289758'
S'Prasannajeet Khandekar'
tp128
a(S'711352610'
S'Nikunj Muglani'
tp129
a(S'705015813'
S'Mridul Kumra'
tp130
a(S'100004024255639'
S'Sagar Sharma'
tp131
a(S'1713289733'
S'Suyash Srijan'
tp132
a(S'586225214'
S'Anmol Sahi'
tp133
a(S'100000217399396'
S'Vidur Sharma'
tp134
a(S'100002729601005'
S'Sameer Khan'
tp135
a(S'100000597301218'
S'Vidhi Jain'
tp136
a(S'100000943329552'
S'Darshika Singh'
tp137
a(S'702459111'
S'Vidur Sharma'
tp138
a(S'100000007867804'
S'Pranav Taneja'
tp139
a(S'808709625'
S'Anil Banga'
tp140
a(S'762416418'
S'Zubin Bhatnagar'
tp141
a(S'841578619'
S'Arjit Mehra'
tp142
a(S'100001257981007'
S'Sumit Chauhan'
tp143
a(S'1050296424'
S'Madhusudan Cm'
tp144
a(S'1346448034'
S'Vinayak Sharma'
tp145
a(S'768009860'
S'Aditya Vikram Jhunjhunwalla'
tp146
a(S'100000218782328'
S'Naman Gupta'
tp147
a(S'100001750051014'
S'Aditya Sharma'
tp148
a(S'1076891444'
S'Kunaal Gera'
tp149
a(S'100001349842484'
S'Anant Veer Singh'
tp150
a(S'1796172412'
S'Meenakshi Chauhan'
tp151
a(S'1514603916'
S'Jaskirat Singh'
tp152
a(S'100006592443151'
S'Palak Gupta'
tp153
a(S'784388955'
S'Aman Garg'
tp154
a(S'100001322483931'
S'N.k. Aditya'
tp155
a(S'100000391183427'
S'Anirudh Deshpande'
tp156
a(S'100000294596307'
S'Atul Vasisht'
tp157
a(S'1143229153'
S'Nupur Jain'
tp158
a(S'100001070362365'
S'Sidhaarth Chopra'
tp159
a(S'100001083021564'
S'Kunal Choubey'
tp160
a(S'100003269684402'
S'Vishwajeet Chattopadhyay'
tp161
a(S'100001102386881'
S'Brajesh Choubey'
tp162
a(S'1770962256'
S'Rimsha Saleem'
tp163
a(S'100001447613076'
S'Shubham Shukla'
tp164
a(S'517659622'
S'Sachet Koul'
tp165
a(S'100002495014090'
S'Diksha Verma'
tp166
a(S'1342427903'
S'Neil Choudhary'
tp167
a(S'1269325201'
S'Sakshi Bansal'
tp168
a(S'1520255835'
S'Noel Thomas John'
tp169
a(S'725950758'
S'Siddharth Joshi'
tp170
a(S'1149739827'
S'Vansh Sahni'
tp171
a(S'100001336441605'
S'Shubham Rawat'
tp172
a(S'1432244156'
S'Abhishek Agrawal'
tp173
a(S'100000970274289'
S'Rishu Goel'
tp174
a(S'1142962948'
S'Abhimanyu Kapuria'
tp175
a(S'1565711806'
S'Guljyot Mann'
tp176
a(S'1303495750'
S'Ishprita Jasuja'
tp177
a(S'644078759'
S'Poulomi Roy'
tp178
a(S'100003844025742'
S'Akshay Sharma'
tp179
a(S'1640059336'
S'Aarushi Lakhera'
tp180
a(S'100002030820673'
S'Ashisha Agarwal'
tp181
a(S'100004202495774'
S'Sneha Ghosh'
tp182
a(S'743575802'
S'Sushant Suri'
tp183
a(S'100000985328283'
S'Neelansh Srivastava'
tp184
a(S'100000918611797'
S'Bhawanshu Singh'
tp185
a(S'1088535399'
S'Kashika Kapur'
tp186
a(S'100002426511633'
S'Tanmay Majumdar'
tp187
a(S'534067090'
S'Rahil Blaggan'
tp188
a(S'557676582'
S'Mahi Grover'
tp189
a(S'1315494687'
S'Shubhit Garg'
tp190
a(S'100000130874605'
S'Siddhartha Gandhi'
tp191
a(S'1266117360'
S'Amish Popli'
tp192
a(S'1445992181'
S'Sugandha Sharan'
tp193
a(S'726763486'
S'Renin Raphael'
tp194
a(S'1061219801'
S'Manas Chugh'
tp195
a(S'100000956838656'
S'Tauqeer Khan'
tp196
a(S'1234370053'
S'Ankeitaa Arora'
tp197
a(S'100000878112958'
S'Leena Banga'
tp198
a(S'100001644947499'
S'Shagun Chauhan'
tp199
a(S'100003942793828'
S'Rahul Verma'
tp200
a(S'100000833281600'
S'Arushi Sood'
tp201
a(S'565100484'
S'Yash Jain'
tp202
a(S'1356440453'
S'Romit Walia'
tp203
a(S'100000669729333'
S'Vaibhav Srivastava'
tp204
a(S'100000545144137'
S'Arvindan Ke'
tp205
a(S'1028151457'
S'Kriti Datta'
tp206
a(S'100000829717023'
S'Rajdeep Singh'
tp207
a(S'100000485539793'
S'Aman Taneja'
tp208
a(S'100000365050491'
S'Tushar Jain'
tp209
a(S'100000066066755'
S'Ujjwal Dutta'
tp210
a(S'100000652710555'
S'Shivangi Khanna'
tp211
a(S'100001344237045'
S'Rishabh Jain'
tp212
a(S'100002141816112'
S'Navolina Majumdar'
tp213
a(S'100000503236245'
S'Harshit Tyagi'
tp214
a(S'100000496295908'
S'Janak Vyas'
tp215
a(S'809819711'
S'Anirudh Mondal'
tp216
a(S'1217158405'
S'Manav Dhall'
tp217
a(S'100006188618117'
S'Neha Sharma'
tp218
a(S'757769634'
S'Shameek Vats'
tp219
a(S'100000261226918'
S'Vishal Dash'
tp220
a(S'1704111404'
S'Anirudh Garg'
tp221
a(S'100000599404853'
S'Alex David'
tp222
a(S'100000385673798'
S'Divyanshu Jha'
tp223
a(S'820513235'
S'Akshit Mehta'
tp224
a(S'100000453289114'
S'Varnica Kanoo'
tp225
a(S'1840455868'
S'Ayushi Singh'
tp226
a(S'610428148'
S'Arpit Mundra'
tp227
a(S'1503847223'
S'Rishabh Banga'
tp228
a(S'100001462047669'
S'Milly Richerd'
tp229
a(S'1775186583'
S'Guncha Khanna'
tp230
a(S'596889155'
S'Kushagra Talwar'
tp231
a(S'100000975262317'
S'Navneet Arora'
tp232
a(S'1163085086'
S'Diksha Singh'
tp233
a(S'100001109505416'
S'Siddharth Gupta'
tp234
a(S'1687145305'
S'Tanishq Kumar'
tp235
a(S'100000442158171'
S'Devang Jain'
tp236
a(S'1544232617'
S'Shanya Gupta'
tp237
a(S'100000609851714'
S'Abhinav Singhal'
tp238
a(S'100000031490960'
S'Shobhit Arora'
tp239
a(S'1598007942'
S'Raghav Jhamb'
tp240
a(S'100000542497746'
S'Aniket Dikshit'
tp241
a(S'100001526150540'
S"'Sana Bajaj'"
tp242
a(S'1268853843'
S'Kanchi Gupta'
tp243
a(S'100001147862477'
S'Shivani Verma'
tp244
a(S'1032655704'
S'Tanmay Majumdar'
tp245
a(S'100000581861205'
S'Vatsla Bhatia'
tp246
a(S'100001480953693'
S'Geetanjli Banga'
tp247
a(S'100000783804859'
S'Suhasini Lyngstad'
tp248
a(S'1466298325'
S'Palak Katyal'
tp249
a(S'1184178946'
S'Shantanu Wali'
tp250
a(S'678168783'
S'Lixin Alex'
tp251
a(S'1423670766'
S'Arindam Chugh'
tp252
a(S'1518674488'
S'Rushil Sharma'
tp253
a(S'100000088662774'
S'Manu Kalia'
tp254
a(S'1311432285'
S'Samrat Malik'
tp255
a(S'100003928571510'
S'Shivansh Kishore'
tp256
a(S'1424048323'
S'Aayushi Gupta'
tp257
a(S'1158319173'
S'Abhinav Pratap Srivastava'
tp258
a(S'100001223959794'
S'Ragini Verma'
tp259
a(S'100001160422553'
S'Vandit Bhayana'
tp260
a(S'800423068'
S'Radhika Chugh'
tp261
a(S'1269549491'
S'Prem Sharma'
tp262
a(S'1176028580'
S'Shireen Hoda'
tp263
a(S'638354751'
S'Pulkit Verma'
tp264
a(S'100000027942807'
S'Sonali Tyagi'
tp265
a(S'100002344654427'
S'Ashish Verma'
tp266
a(S'100006655113140'
S'Jatin Bhutani'
tp267
a(S'664954725'
S'Udyan Khurana'
tp268
a(S'1416875101'
S'Shaun Kapoor'
tp269
a(S'100001730215871'
S'Sarita Bhagotra'
tp270
a(S'1785708981'
S'Ranit Goyal'
tp271
a(S'100000551225490'
S'Shivam V\\u00e9rma'
tp272
a(S'100000635405272'
S'Ishan Gautam'
tp273
a(S'100001022374147'
S'Nishant Singh'
tp274
a(S'1467325983'
S'Nishant Malik'
tp275
a(S'1242217159'
S'Mayank Dev'
tp276
a(S'100000978742862'
S'Raj Malhotra'
tp277
a(S'100000421956624'
S'Ritwik Sengupta'
tp278
a(S'100000842147533'
S'Gaurav Chadha'
tp279
a(S'100000496592331'
S'Nidhi Pushkar'
tp280
a(S'1394318656'
S'Yagyank Chadha'
tp281
a(S'100002577660743'
S'Umair Nabeel'
tp282
a(S'1483763048'
S'Sankshipti Sharma'
tp283
a(S'100001269279823'
S'Tina Khanna'
tp284
a(S'100001338310323'
S'Arushi Bhambri'
tp285
a(S'1680866141'
S'Akhil S Nair'
tp286
a(S'1108269516'
S'Ankit Chugh'
tp287
a(S'100000569745963'
S'Khushboo Gupta'
tp288
a(S'100000502601165'
p289
S'Pranay Kapur'
tp290
a(S'1439734396'
S'Tarun Arora'
tp291
a(S'100001008514357'
S'Rahul Rana'
tp292
a(S'725611030'
S'Kainat Chaudhary'
tp293
a(S'651443267'
S'Pranav Mani Sharma'
tp294
a(S'1056067185'
S'Palash Rastogi'
tp295
a(S'100004257392012'
S'Jatin T Joseph'
tp296
a(S'100000664900657'
S'Apoorv Singh'
tp297
a(S'637084280'
S'Rohan Iyer'
tp298
a(S'100000094297621'
S'Samerth Malhotra'
tp299
a(S'100000595057496'
S'Alex David'
tp300
a(S'786594329'
S'Meghna Bansal'
tp301
a(S'100000166156725'
S'Mukul Jain'
tp302
a(S'1577710292'
S'Aradhya Tripathi'
tp303
a(S'100000086327091'
S'Rohan P. Singh'
tp304
a(S'100001423127493'
S'Dp Ka'
tp305
a(S'1062326342'
S'Arpit Sidana'
tp306
a(S'100000871857781'
S'Rahul Arora'
tp307
a(S'100000980187360'
S'Jammula Shrujan'
tp308
a(S'709760442'
S'Nivritti Aga'
tp309
a(S'1163966707'
S'Rajan Khurana'
tp310
a(S'100001131703438'
S'Amol Dave'
tp311
a(S'100000537390358'
S'Niladri Sanyal'
tp312
a(S'100000940833918'
S'Swapnil Mone'
tp313
a(S'591809415'
S'Ashish Bindal'
tp314
a(S'1135571945'
S'Shivang Singh'
tp315
a(S'100000175286591'
S'Siddharth Gandhi'
tp316
a(S'598190607'
S'Arjun Gupta'
tp317
a(S'100003682942179'
S'Jatin Jalandra'
tp318
a(S'100001013335706'
S'Krishna Dhall'
tp319
a(S'100000366845275'
S'Shubhakar Gupta'
tp320
a(S'1559953998'
S'Sidhyansh Saxena'
tp321
a(S'100000365673627'
S'Sukrit Virmani'
tp322
a(S'100000850696221'
S'Sudarshan Kumar'
tp323
a(S'100000975128659'
S'Nitika Khera'
tp324
a(S'100001206379132'
S'Sehr Gupta'
tp325
a(S'1138263019'
S'Abhishek Nambiar'
tp326
a(S'1768618667'
S'Shirin Hakhoo'
tp327
a(S'100002058738080'
S'Seema Rohilla'
tp328
a(S'1523647657'
S'Devansh Agarwal'
tp329
a(S'100000135158951'
S'Raveena Naidu'
tp330
a(S'1010840471'
S'Sana Nagi'
tp331
a(S'1262304191'
S'Soumya Johri'
tp332
a(S'100001767992170'
S'Piyush Joshi'
tp333
a(S'100000247027761'
S'Amy Khurana'
tp334
a(S'721521927'
S'Raghav Sood'
tp335
a(S'1425761445'
S'Vihaan Pathak'
tp336
a(S'100000642310538'
S'Ish Tyaq'
tp337
a(S'100000392956265'
S'Manika Moona'
tp338
a(S'100001759844087'
S'Aditya Jindal'
tp339
a(S'100000259104708'
S'Riddhi Sharma'
tp340
a(S'664247455'
S'Pragya Kushwaha'
tp341
a(S'803902836'
S'Anshul Goyal'
tp342
a(S'100000991183247'
S'Avishkar Gupta'
tp343
a(S'100000013539906'
S'Vishal Arvind'
tp344
a(S'1074150813'
S'Aaditya Kapoor'
tp345
a(S'100003690491906'
S'Prasoon Chauhan'
tp346
a(S'650488685'
S'Anurag Das'
tp347
a(S'1457472740'
S'Aishwarya Deopujari'
tp348
a(S'666031312'
S'Shreya Bhalla'
tp349
a(S'831131169'
S'Raveenaa Singh'
tp350
a(S'100004483993345'
S'Priyanka Gupta'
tp351
a(S'100000471371000'
S'Shivank Mittal'
tp352
a(S'712997342'
S'Mahesh Pillai'
tp353
a(S'100002447416668'
S'Aditya Garg'
tp354
a(S'100004116911998'
S'Udit Verma'
tp355
a(S'100002994064019'
S'Priyanka Tuli'
tp356
a(S'1273046340'
S'Aditya Gupta'
tp357
a(S'100000549043925'
S'Akshay Sharma'
tp358
a(S'502750660'
S'Neha Gupta Patwardhan'
tp359
a(S'100001944845709'
S'Kunal Rathi'
tp360
a(S'100000521742386'
S'Aakash Sharma'
tp361
a(S'100000965914527'
S'Vivek Gupta'
tp362
a(S'100000219815920'
S'Pankaj Sharma'
tp363
a(S'1091698034'
S'Snigdha Gupta'
tp364
a(S'100002028695465'
S'Rahul Verma'
tp365
a(S'1296858058'
S'Nimish Warikoo'
tp366
a(S'1317879530'
S'Lavneesh Dheer Chauhan'
tp367
a(S'534005396'
S'Antra Ahuja'
tp368
a(S'1805456120'
S'Kritarth Kamthan'
tp369
a(S'598757257'
S'Siddharth S Kumar'
tp370
a(S'100000471912362'
S'Divit Chopra'
tp371
a(S'537987762'
S'Akhil Mathur'
tp372
a(S'100001458124986'
S'Mayank Gupta'
tp373
a(S'618991470'
S'Tathagata Sen Gupta'
tp374
a(S'1065420716'
S'Sukriti Tiwari'
tp375
a(S'1670425102'
S'Yugvir Singh Parmar'
tp376
a(S'100001143308242'
S'Yuvraj Singh'
tp377
a(S'761669789'
S'Shubhral Agrawal'
tp378
a(S'739828924'
S'Isha Agrawal'
tp379
a(S'1188503627'
S'Srishti Sindhu'
tp380
a(S'100000408658145'
S'Dhruv Garg'
tp381
a(S'1839115940'
S'Bhushan Mansharamani'
tp382
a(S'1495953534'
S'Sabyasachi Shivkumar'
tp383
a(S'100000898232842'
S'Lakshya Vir Nagar'
tp384
a(S'100002453172004'
S'Sunita Gupta'
tp385
a(S'1580782672'
S'Harsh Hora'
tp386
a(S'100000943745903'
S'Moomal Rathore'
tp387
a(S'1511227768'
S'Shivangi Seth'
tp388
a(S'100004154504031'
S'Chaitanya Jalandra'
tp389
a(S'100000476256633'
S'Aishwarya Ganapathy'
tp390
a(S'100000683234794'
S'Shivesh Pandey'
tp391
a(S'1330896285'
S'Geeth Arora'
tp392
a(S'100000533065623'
S'Gaurav Anand'
tp393
a(S'100000304665044'
S'Satyapriya S Siddhartha'
tp394
a(S'100005396644636'
S'Aliya Khanna'
tp395
a(S'1518642140'
S'Sakshi Sipani'
tp396
a(S'1373676355'
S'Akshay Soni'
tp397
a(S'1280534522'
S'Nikhil Narayanan'
tp398
a(S'100001233852083'
S'Aniruddh Singh'
tp399
a(S'1642206799'
S'Konark Raj Singh Khokhar'
tp400
a(S'100000950419365'
S'Disha Dhir'
tp401
a(S'1107283138'
S'Ishita Gupta'
tp402
a(S'100001303003401'
S'Apoorv Bhambri'
tp403
a(S'100000354786038'
S'Ruchi Goyal'
tp404
a(S'1762601765'
S'Himanshu Thakur'
tp405
a(S'771008557'
S'Anurag Chauhan'
tp406
a(S'100000321066983'
S'Anand Shukla'
tp407
a(S'100001550509766'
S'Shivankit Sharma'
tp408
a(S'100000178086286'
S'Omer Khan'
tp409
a(S'100000427131180'
S'Ankur Das'
tp410
a(S'100001402875170'
S'Sara Dazarenia'
tp411
a(S'100004063085147'
S'Priya Hudda'
tp412
a(S'1816338953'
S'Mehul Gupta'
tp413
a(S'100002128222340'
S'Rahul Verma'
tp414
a(S'568797159'
S'Parth Chopra'
tp415
a(S'702679051'
S'Sakshi Garg'
tp416
a(S'1002256353'
S'Abhilasha Mallick'
tp417
a(S'1022753022'
S'Ratika Singh'
tp418
a(S'1069736278'
S'Aakriti Sehgal'
tp419
a(S'1449146414'
S'Pulkit Aggarwal'
tp420
a(S'1539824284'
S'Saloni Ravi Kumar'
tp421
a(S'1272507426'
S'Yash Khemka'
tp422
a(S'100000185156596'
S'Pranav Sharma'
tp423
a(S'635479229'
S'Aanvi Goel'
tp424
a(S'100001311711563'
S'Mayank Sharma'
tp425
a(S'100000012083057'
S'Himanshu Sharma'
tp426
a(S'100001458896155'
S'Raveena Sharma'
tp427
a(S'1794540197'
S'Rohan Gera'
tp428
a(S'597133073'
S'Sashank Krishnan'
tp429
a(S'100000100627160'
S'Rohan Malhotra'
tp430
a(S'100000372752314'
S'Harshitha Puligadda'
tp431
a(S'100000011058785'
S'Tarash Tejwani'
tp432
a(S'1420090083'
S'Shruti Rawal'
tp433
a(S'100000606314466'
S'Sagar Srivastava'
tp434
a(S'100000175015944'
S'Umang Sharma'
tp435
a(S'1022024773'
S'Jatin Sharma'
tp436
a(S'1443242680'
S'Ambar Laad'
tp437
a(S'1392327604'
S'Garima Gambhir'
tp438
a(S'1605827322'
S'Yuven Suri'
tp439
a(S'665545266'
S'Sarvesh Sadhoo'
tp440
a(S'100000536650624'
S'Aditya Solomon'
tp441
a(S'1233955812'
S'Aayushi Aggarwal'
tp442
a(S'100000872484316'
S'Trishala Arora'
tp443
a(S'100002979425083'
S'Arpita Ghosh'
tp444
a(S'100000086421481'
S'Ishita Mahajan'
tp445
a(S'100003640371113'
S'Akshay Kapoor'
tp446
a(S'1418621570'
S'Chitrarth Garg'
tp447
a(S'1464921673'
S'Fazil Nadeem Hussain'
tp448
a(S'1148090259'
S'Praneeth Rao'
tp449
a(S'100000449711983'
S'Shubhankar Agarwal'
tp450
a(S'100000289037277'
S'Saurabh Kumaar'
tp451
a(S'100000029041048'
S'Nishant Sharma'
tp452
a(S'100000731204270'
S'Naina Agarwal'
tp453
a(S'100000000766119'
S'Shikhar Kesarwani'
tp454
a(S'100001211334801'
S'Megha Sharma'
tp455
a(S'100004102724671'
S'Mayank Budhiraja'
tp456
a(S'1059192882'
S'Kartik Gupta'
tp457
a(S'100000569100378'
S'Ashwin Angiah'
tp458
a(S'777264652'
S'Sanya Jha'
tp459
a(S'100000906147492'
S'Siddhant Wadhawan'
tp460
a(S'100001833122268'
S'Suraj Thapa'
tp461
a(S'1306428965'
S'Snigdha Sachdev'
tp462
a(S'100000897373152'
S'Kuldeep Kumar'
tp463
a(S'1283120389'
S'Anushka De'
tp464
a(S'100000973023645'
S'Akshay Garg'
tp465
a(S'100000402335790'
S'Atul Anand Sinha'
tp466
a(S'100002515916340'
S'Sana Malik'
tp467
a(S'100000919967809'
S'Kushagra Singh'
tp468
a(S'100004311940242'
S'Shanaya Kapoor'
tp469
a(S'100003321362895'
S'Sunita Hans'
tp470
a(S'533627174'
S'Aish Warya'
tp471
a(S'100001021758845'
S'Pushkar Nagar'
tp472
a(S'100000101091290'
S'Anupam Mishra'
tp473
a(S'100000784060252'
S'Shiv Pasricha'
tp474
a(S'1333680362'
S'Palash Gupta'
tp475
a(S'1359628253'
S'Ashu Ajmera'
tp476
a(S'1349905313'
S'Kshitij Rana'
tp477
a(S'1790141728'
S'Robin Singh'
tp478
a(S'1468637369'
S'Srishti Srivastava'
tp479
a(S'1760277195'
S'Pradeep Singh'
tp480
a(S'1056834635'
S'Piyush Bhatia'
tp481
a(S'100000638983378'
S'Rishabh Ratanpal'
tp482
a(S'100001089452493'
S'Ratul Banerjee'
tp483
a(S'1377673430'
S'Devanshu Malhotra'
tp484
a(S'1497223586'
S'Akash Inani'
tp485
a(S'785963255'
S'ShAshank GuPta'
tp486
a(S'100001573772258'
S'Siddhant Wadhawan'
tp487
a(S'1351344806'
S'Ashpreet Singh'
tp488
a(S'100001086720225'
S'Siddhant Wadhawan'
tp489
a(S'100002304122536'
S'Udit Perfecto Vij'
tp490
a(S'620278823'
S'Gauri T Gururaj'
tp491
a(S'100003737867986'
S'Isha Soni'
tp492
a(S'620151957'
S'Aanchal Sood'
tp493
a(S'1801807111'
S'Ankit Pannu'
tp494
a(S'100000844405961'
S'Yash Gupta'
tp495
a(S'734999304'
S'Deven Sharma'
tp496
a(S'100000675765230'
S'Anshul Garg'
tp497
a(S'100001017207864'
S'Dhruv Gupta'
tp498
a(S'100001260082497'
S'Aarushi Saha'
tp499
a(S'1153778061'
S'Sidhant Sabikhi'
tp500
a(S'100000679475210'
S'Palak Gupta'
tp501
a(S'100000911294031'
S'Kalyani Abhyankar'
tp502
a(S'100006543975532'
S'Sagar Sharma'
tp503
a(S'1436612572'
S'Shivin Agarwal'
tp504
a(S'100002611842532'
S'Raghav Sood'
tp505
a(S'1693436865'
S'Moulshree Mittal'
tp506
a(S'1770446057'
S'Jatin Girotra'
tp507
a(S'725576649'
S'Divyanshu Sharma'
tp508
a(S'1186942377'
S'Adit Goel'
tp509
a(S'1765345624'
S'Vikhyat Ahlawat'
tp510
a(S'100004521093375'
S'Sagar Agarwal'
tp511
a(S'1756886663'
S'Salim Khan'
tp512
a(S'100000568910534'
S'Shalini Chauhan'
tp513
a(S'100000586613118'
S'\\u00c7h\\u00e0u\\u00d0h\\u00e0r\\u00ff Shikh\\u00e0 P\\u00e0v\\u00e0\\u00d0i\\u00e0'
tp514
a(S'663556498'
S'Manasi Wali'
tp515
a(S'100000353712453'
S'Karan Nayyar'
tp516
a(S'1434224421'
S'Gaurii Verma'
tp517
a(S'891675067'
S'Mega Gupta'
tp518
a(S'712332189'
S'Shruti Srivastava'
tp519
a(S'100002856303079'
S'Bhomika Soni'
tp520
a(S'1526937623'
S'Daksh Makin'
tp521
a(S'100000285630193'
S'Shivani Gupta'
tp522
a(S'100000006009951'
S'Vibhor Ahlawat'
tp523
a(S'100000958574853'
S'Ayush Ranjan'
tp524
a(S'1847103699'
S'Anmol Dixit'
tp525
a(S'1074738747'
S'Sumit Singh'
tp526
a(S'100001974367117'
S'Vansh Lakhina'
tp527
a(S'100000221558045'
S'Prasanna Punekar'
tp528
asS'id'
p529
S'1693736628'
p530
sS'name'
p531
S'Saurabh Banga'
p532
s.