(dp1
S'friends'
p2
(lp3
(S'639425072'
S'Lisa Britt'
tp4
a(S'63103078'
S'Jimmy Powell'
tp5
a(S'24410046'
S'Harry Robinson'
tp6
a(S'100000113398820'
S'Verunka Ma\\u0161kov\\u00e1'
tp7
a(S'1239127297'
S'Jennifer Flanigan Scheuvront'
tp8
a(S'607528826'
S'Mikael L\\u00f6nn'
tp9
a(S'1538070670'
S'Marie Hubbard'
tp10
a(S'708911258'
S'Marc MacLaughlin'
tp11
a(S'754171389'
S'Elina Yavrian'
tp12
a(S'1313870348'
S'Anna Pratis'
tp13
a(S'731468510'
S'Michelle Wadwell'
tp14
a(S'598911178'
S'Robert Sanoshy'
tp15
a(S'591011695'
S'Linda Lavigne'
tp16
a(S'1080471764'
S'Lily White'
tp17
a(S'100000006304581'
S'Janette Booth'
tp18
a(S'591294164'
S'Sharon Valdez'
tp19
a(S'542183311'
S'Patrick Van Holle'
tp20
a(S'100000111180435'
S'Genevieve Jones'
tp21
a(S'633220406'
S'Tracey Prinsloo'
tp22
a(S'570432745'
S'Marie Tes Medenilla Gangcuangco'
tp23
a(S'1815624589'
S'Ljiljana Petrov'
tp24
a(S'766623359'
S'Diego Andres'
tp25
a(S'100004277741537'
S'Heather Busse'
tp26
a(S'617302946'
S'Ian Thomas'
tp27
a(S'100000341356314'
S'Chris Hawthorne'
tp28
a(S'573305031'
S'Laurie Thomas'
tp29
a(S'524078448'
S'Esam Tahrir'
tp30
a(S'502803162'
S'Josh Faigan'
tp31
a(S'760767564'
S'Sophie Ven'
tp32
a(S'718810558'
S'Yuraima Hernandez'
tp33
a(S'715537250'
S'Jay Dee'
tp34
a(S'100000286937592'
S'Jennivieve Castro'
tp35
a(S'590216458'
S'Belletty Lim'
tp36
a(S'100002030803289'
S'Erd\\u00e9m Akdal'
tp37
a(S'765444571'
S'Marlise Bester'
tp38
a(S'594947185'
S'Cheryl Byram'
tp39
a(S'100000744896392'
S'Tamara Cone'
tp40
a(S'616436710'
S'Karen Govender'
tp41
a(S'557435461'
S'James Jackson'
tp42
a(S'100001496965894'
S'Michael Tellefsen'
tp43
a(S'666211192'
S'Maya Mowilos'
tp44
a(S'100001914489843'
S'Ifha Setiawan'
tp45
a(S'603521541'
S'Marcia S. Rush'
tp46
a(S'100001172940651'
S'Henry Li'
tp47
a(S'1351202285'
S'Goh Lily'
tp48
a(S'563806098'
S'Lisa Assaritti'
tp49
a(S'121504944'
S'Patrick Daines-Allen'
tp50
a(S'716063455'
S'Gavin McCormack'
tp51
a(S'100001219931549'
S'Lizzie Bennet'
tp52
a(S'705711909'
S"'Yessica Escalona"
tp53
a(S'593926693'
S'Cathy Gallant-Rutti'
tp54
a(S'1799844486'
S'Virginie Gea'
tp55
a(S'639578662'
S'Alessandra Gdi'
tp56
a(S'1369064133'
S'Laura Burchfield'
tp57
a(S'775555432'
S'Rhonda Scott Mosley'
tp58
a(S'100000257114661'
S'Vicki Owenby'
tp59
a(S'100003739251354'
S'Milica Novakovi\\u0107'
tp60
a(S'100002990670177'
S'Maria Fernanda Bergonci'
tp61
a(S'23506142'
S'Lacey Meszaros'
tp62
a(S'84101733'
S'Kaitlyn Walsh'
tp63
a(S'532400190'
S'Amanda Black'
tp64
a(S'621989263'
S'Isabel Chang'
tp65
a(S'1359282229'
S'Netty Jones'
tp66
a(S'100002397814374'
S'Nacho Giuliani'
tp67
a(S'100000137005301'
S'Cheri Parra'
tp68
a(S'699827967'
S'John Lim'
tp69
a(S'719254812'
S"Stephanie Marie Rene'e Geer"
tp70
a(S'1174234698'
S'Rod Braido'
tp71
a(S'100002951030007'
S'Pierre Venidict Cuison'
tp72
a(S'634000441'
S'Mirella De Roode'
tp73
a(S'580667705'
S'Lea Kopra'
tp74
a(S'100000790550739'
S'Moln\\u00e1r Gabriella'
tp75
a(S'649444878'
S'Steven Mounts'
tp76
a(S'100000630177035'
S'Cindy Covill'
tp77
a(S'683483890'
S'Nicole Pulgar Navarrete'
tp78
a(S'707624083'
S'Neil Lahlou'
tp79
a(S'838609484'
S'Piia Liuha'
tp80
a(S'677788373'
S'Barney Tan Qing Long'
tp81
a(S'100000087778353'
S"'Alexander Popovic"
tp82
a(S'1154863650'
S'Barbara Small'
tp83
a(S'100004401127245'
S'V\\u00f4 T\\u1ef1 Nh\\u00e2n T\\u00e2m'
tp84
a(S'585731162'
S'Shaun Sullivan'
tp85
a(S'100000244753726'
S'Cristobal Lorca'
tp86
a(S'1355990190'
S'Mar\\u00eda Eugenia Vergara Bravo'
tp87
a(S'630015030'
S'Kristel Durand'
tp88
a(S'727991445'
S'Heather Davis'
tp89
a(S'591246869'
S'Elaine Gothchick Hicks'
tp90
a(S'100000499622453'
S'Violet Sun'
tp91
a(S'512824887'
S'Helen Christie'
tp92
a(S'100001616733318'
S'MariLou Masiara'
tp93
a(S'723740492'
S'Dolores Lenz'
tp94
a(S'100000465376133'
S'\\u8a60\\u752f'
tp95
a(S'814370883'
S'Brooke Gibbs'
tp96
a(S'100000865593474'
S'Bonnie McDonald'
tp97
a(S'694052892'
S'Xrysa Shelob Lefay'
tp98
a(S'1640753775'
S'Paul Fowler'
tp99
a(S'100003491736852'
S'Andres Cordero'
tp100
a(S'682019198'
S'Donna Cimafranca'
tp101
a(S'1285077595'
S'Martina Kinzer'
tp102
a(S'531342694'
S'Courtney Stern'
tp103
a(S'512422750'
S'James Sprite'
tp104
a(S'100003482970979'
S'Tha\\u00ef Monnot'
tp105
a(S'100001055235557'
S'Wan Hafiz Wan Hamid'
tp106
a(S'100000210152806'
S'Nicole Erickson'
tp107
a(S'4945627'
S'Melissa Johnson'
tp108
a(S'714375805'
S'Karen Chow'
tp109
a(S'699713649'
S'Connie Slagle'
tp110
a(S'100000127999364'
S'Tony Frantz'
tp111
a(S'721938826'
S'Jean-Christian Glaude'
tp112
a(S'100001466363259'
S'Tracey Delozier'
tp113
a(S'100002335163202'
S'Savannah Griffin'
tp114
a(S'527731502'
S'Travis Snyder'
tp115
a(S'518430652'
S'Becky Britton'
tp116
a(S'550442437'
S'Lisa Viscusi'
tp117
a(S'755508359'
S'Mauro Taranto'
tp118
a(S'100000044499683'
S'Barbara S. Jackson'
tp119
a(S'100000795572041'
S'Jeanette Blanchard'
tp120
a(S'510275634'
S'Jay MacEachern'
tp121
a(S'100003997557054'
S'Sofy Mendible'
tp122
a(S'540353687'
S'Rachel Charters'
tp123
a(S'100001327386628'
S'Lorraine Swinford'
tp124
a(S'839078685'
S'Greg Lenz'
tp125
a(S'682564214'
S'Sheryl Lynn Aitken'
tp126
a(S'1000922345'
S'Andrew Smith'
tp127
a(S'1211949163'
S'Sally Ann Pearson'
tp128
a(S'590696038'
S'James Kurokawa'
tp129
a(S'801254935'
S'Marella Stanshall'
tp130
a(S'618263066'
S'Juliette Mai'
tp131
a(S'1049878368'
S'Lynette Haynes'
tp132
a(S'1370937853'
S'Devin Klinchuch'
tp133
a(S'63800128'
S'Mandee Schorr Crider'
tp134
a(S'510204415'
S'Martin J. Book'
tp135
a(S'618652977'
S'Steven Kind'
tp136
a(S'100003698823510'
S'Erin Casey'
tp137
a(S'588576257'
S'Mimi Katz'
tp138
a(S'562375082'
S'Arturo Asturias'
tp139
a(S'579427022'
S'Henrique Diniz'
tp140
a(S'625878878'
S'Juan Jose Martinez'
tp141
a(S'100000228646030'
S'\\u6797\\u8466\\u573b'
tp142
a(S'533008644'
S'Judy Patrick'
tp143
a(S'845550155'
S'Olivia Adler'
tp144
a(S'100003351736374'
S'Elena Mihailova'
tp145
a(S'100000206764947'
S'Ruth Van Etten'
tp146
a(S'100002929886481'
S'Olga Taranova'
tp147
a(S'835589094'
S'Yunus D\\u00fczyurt'
tp148
a(S'1003016587'
S'Lumi Catstyle'
tp149
a(S'516501803'
S'Aretta Chau'
tp150
a(S'842237626'
S'Syn Palmer'
tp151
a(S'100000351703235'
S'Nancy Farkas'
tp152
a(S'593288610'
S'Rhonda Gabor'
tp153
a(S'1518530043'
S'Viviane Mortier'
tp154
a(S'100003474654626'
S'Farah Slaja'
tp155
a(S'100004148766745'
S'Bixler HKing'
tp156
a(S'660782824'
S'Lottie Williamson'
tp157
a(S'616409530'
S'Jenny Martyn-Clark'
tp158
a(S'100001566520600'
S'Bryan Campbell'
tp159
a(S'1442797347'
S'Terri Heinzeroth'
tp160
a(S'793216191'
S'Mj Dignity'
tp161
a(S'1118477035'
S'Sebastian Hoover Pandji'
tp162
a(S'1605276133'
S'Kevin Ejlert Kristensen'
tp163
a(S'523179124'
S'Giles Kat Birmingham'
tp164
a(S'729661201'
S'TM Lutas'
tp165
a(S'839940340'
S'Trond-Inge Sleire'
tp166
a(S'535782235'
S'David Jug McShane'
tp167
a(S'555347663'
S'Karen Hemming'
tp168
a(S'100001268647040'
S'Lily Cross'
tp169
a(S'649135719'
S'Andrew H'
tp170
a(S'1131400840'
S'Kristin Salg\\u00f3ov\\u00e1'
tp171
a(S'602171281'
S'Jen Watson-Dexter'
tp172
a(S'100002408582332'
S'Nyta Widyawati'
tp173
a(S'637504542'
S'Willy Kartawijaya'
tp174
a(S'100002224250442'
S'Mandy Rudloff'
tp175
a(S'574292662'
S'Terence Joe'
tp176
a(S'598025611'
S'Christine Breshers'
tp177
a(S'766449820'
S'Mihaela Blue'
tp178
a(S'607977490'
S'Radhruin van Ronald'
tp179
a(S'768574667'
S'Debra Daisey'
tp180
a(S'100002445904817'
S'Angelines Pastor Saenz'
tp181
a(S'515071938'
S'Reem Khaled'
tp182
a(S'551763814'
S'Rich Hughf'
tp183
a(S'100001715312129'
S'J\\u00e9zus Krisztus'
tp184
a(S'100002289271199'
S'Celine Wolfvelde'
tp185
a(S'588814409'
S'Barbara Recabarren Quiroga'
tp186
a(S'509801765'
S'Brynn Hooper'
tp187
a(S'566762602'
S'Jessica Sin'
tp188
a(S'738660750'
S'Kim Murray Leonard'
tp189
a(S'100001399894157'
S'Jamie Sue'
tp190
a(S'1634581007'
S'Bonnie Burdic'
tp191
a(S'627235070'
S'Dorothy Martinac'
tp192
a(S'738353055'
S'Ian Cawley'
tp193
a(S'683866188'
S'Strat Man'
tp194
a(S'2907150'
S'Mandy Burton'
tp195
a(S'588820951'
S'Joanna Molyneux-Killik Nee Holland'
tp196
a(S'1681928166'
S'Feasable Mike'
tp197
a(S'605525580'
S'Heather Williams'
tp198
a(S'100003378625895'
S'Mariangela Birardi'
tp199
a(S'517971190'
S'Cowboyy Caviar'
tp200
a(S'503182004'
S'Joe Wang'
tp201
a(S'1201685994'
S'Patty Hildebrand Trejo'
tp202
a(S'1591113831'
S'Vuggie Bugayon Carillo'
tp203
a(S'100001045699078'
S'Velvet Soap'
tp204
a(S'100005773711000'
S'Chelito Reca'
tp205
a(S'787448671'
S'Joseph Lockwood'
tp206
a(S'1434100654'
S'Sandra Luss'
tp207
a(S'681626162'
S'Alvin Goh'
tp208
a(S'644287129'
S'Barbara Berman Cott'
tp209
a(S'1144205166'
S'Kristina Dodolic'
tp210
a(S'801949480'
S'Guadalupe Morales'
tp211
a(S'100003340361353'
S'Susan Tural'
tp212
a(S'645887260'
S'Will C. Wannamaker'
tp213
a(S'683042661'
S'Vicki Babchin'
tp214
a(S'1618063984'
S'Pimvard Falcon'
tp215
a(S'511937305'
S'Caroline K\\u00e4rnefelt'
tp216
a(S'1126878977'
S'Edna Goodwin'
tp217
a(S'100000620896808'
S'Petra Gro\\u00df'
tp218
a(S'747470733'
S'PJ Curr'
tp219
a(S'1155502647'
S'Janice Babb Herron'
tp220
a(S'1221446831'
S'Phyllis Cole'
tp221
a(S'604037199'
S'David Seyferth'
tp222
a(S'597342924'
S'Heidi Botha Goddard'
tp223
a(S'576864371'
S'Bojana Storman'
tp224
a(S'1422070688'
S'Sharma Haley'
tp225
a(S'523770216'
S'Yesmara Rodriguez'
tp226
a(S'100001135637301'
S'Anastasia Li'
tp227
a(S'100002452769260'
S'Kris Tormaschy'
tp228
a(S'552396176'
S'Kristine Sumstad Fields'
tp229
a(S'100000478543995'
S'Jennifer Beaty Marick'
tp230
a(S'676732599'
S'Chin Nigel'
tp231
a(S'100000814762750'
S'Aldea Cristina'
tp232
a(S'645653578'
S'Micke Gustavsson'
tp233
a(S'640036352'
S'Jack Smith'
tp234
a(S'572921090'
S'Karrie Oliver'
tp235
a(S'807775367'
S'Deanna Lynn Tripodo'
tp236
a(S'570419786'
S'Monsta Ferret'
tp237
a(S'100001326271542'
S'Sarah Sara'
tp238
a(S'100007826616854'
S'Merna Abdaalla'
tp239
a(S'676208858'
S'Agnes Chan'
tp240
a(S'100001355190788'
S'\\u062d\\u0633\\u0627\\u0646 \\u0634\\u062d\\u0631\\u0648\\u0631'
tp241
a(S'100003139884414'
S'Mafra Puente'
tp242
a(S'547311129'
S'Dayannas Summers'
tp243
a(S'829133957'
S'Chris Arabatzis'
tp244
a(S'100000953426615'
S'Jenniffer Parra Marcano'
tp245
a(S'685355974'
S'Ball Jullatat'
tp246
a(S'785275505'
S'Brad M'
tp247
a(S'100000061126174'
S'Wann Kam-arj'
tp248
a(S'581638956'
S'Ella Hadi'
tp249
a(S'825629688'
S'Josh Smith'
tp250
a(S'646485324'
S'Corn Ball'
tp251
a(S'1477292793'
S'Cathy Sciara'
tp252
a(S'1151678843'
S'Kenny Chumsky'
tp253
a(S'643341152'
S'Barry VanGiesen'
tp254
a(S'510248770'
S'Helene Liu'
tp255
a(S'605197533'
S'Chris Dexter'
tp256
a(S'100000915526234'
S'Bolton Troy'
tp257
a(S'763898916'
S'Paul Liu'
tp258
a(S'518455813'
S'Thomas Kelley'
tp259
a(S'1407024522'
S'Charlotte Link'
tp260
a(S'574567148'
S'Tina Laakso'
tp261
a(S'1717155158'
S'Tarah Campbell'
tp262
a(S'735113943'
S'Topher McIntyre'
tp263
a(S'703240535'
S'Hansen Virgantara'
tp264
a(S'100000764163241'
S'Gavin Keith'
tp265
a(S'659530772'
S'Verlin Courtney'
tp266
a(S'745115462'
S'Nancy Williams'
tp267
a(S'1786822856'
S'Lynn Brown'
tp268
a(S'1070182540'
S'Monet Scannell'
tp269
a(S'100001350093858'
S'Beverley Warren'
tp270
a(S'1427139555'
S'Hanny Sol\\u00eds'
tp271
a(S'100002740982170'
S'\\u0647\\u064a\\u0648\\u0645\\u0647 \\u0627\\u0644\\u0639\\u0633\\u0648\\u0644\\u0647'
tp272
a(S'1225984403'
S'James Burroughs'
tp273
a(S'833549484'
S'Alison Meakin'
tp274
a(S'100000094261155'
S'Sara Borghi'
tp275
a(S'834797855'
S'Vener Policarpio'
tp276
a(S'555859066'
S'Jaret Segovia'
tp277
a(S'1130607144'
S'Turgay K\\u00fcbra Bekta\\u015f'
tp278
a(S'1361336894'
S'Solange Salaberry Hern\\u00e0ndez'
tp279
a(S'100000158423405'
S"'Carel Moreau"
tp280
a(S'100000847400967'
S'Sharon Jackson'
tp281
a(S'1422405131'
S'Linda Hunt'
tp282
a(S'100000528733140'
S'Micha\\u00ebl Biehler'
tp283
a(S'1410333941'
S'Jona Briones'
tp284
a(S'657569783'
S'Iv\\u00e1n Sandoval'
tp285
a(S'587288537'
S'Dondi Cortes'
tp286
a(S'100003810844205'
S'Dulcesa Elena'
tp287
a(S'1143053653'
S'Matt Trott'
tp288
a(S'788128234'
S'Sibel \\u00f6zt\\u00fcrk'
tp289
a(S'633935081'
S'Veronica Bl\\u00e5'
tp290
a(S'745163900'
S'Nadia Nanouche Lambert'
tp291
a(S'744888516'
S'Ian Mc'
tp292
a(S'674589922'
S'Sara Snyder'
tp293
a(S'100000023217448'
S'Pearly Pretties'
tp294
a(S'100000191650405'
S'Zanelle Lz'
tp295
a(S'100000652425038'
S'Loretta Mitchell'
tp296
a(S'529618020'
S'Erica Mahar'
tp297
a(S'100000761327015'
S'Donald Cone'
tp298
a(S'642313395'
S'Hagen Penny'
tp299
a(S'641538164'
S'Lilla P SaLint'
tp300
a(S'63703958'
S'Kelly Allison'
tp301
a(S'729273382'
S'Kathy Blackstock'
tp302
a(S'856269398'
S'Sahara Fernandez'
tp303
a(S'528164552'
S'David Lundgren'
tp304
a(S'622815638'
S'Lorraine Moriarty'
tp305
a(S'100000407712475'
S'Theresa Wiggins'
tp306
a(S'1330014932'
S'Marisa Fraga Puente'
tp307
a(S'100001637760895'
S'Bonnie Baulther'
tp308
a(S'781063984'
S'Sole Garzzoni'
tp309
a(S'100000357075219'
S'Fengxia Cao'
tp310
a(S'622079018'
S'Robert Lu'
tp311
a(S'699249766'
S'Matt Besancon'
tp312
a(S'710785673'
S'Jonathan Michael Allen Conard'
tp313
a(S'100000410133754'
S'Ryszard Kuriata'
tp314
a(S'534688172'
S'Armando Diaz'
tp315
a(S'100001395237344'
S'Arno Claes'
tp316
a(S'596074482'
S'Stewart Asbury'
tp317
a(S'1391424160'
S'Celina Carroll McCoy'
tp318
a(S'1231059522'
S'Marsha Miller Cook'
tp319
a(S'100003784316333'
S'Lily Ana'
tp320
a(S'677448693'
S'Jacob Golden'
tp321
a(S'579168684'
S'Paul Chastain'
tp322
a(S'511568053'
S'Dennis Daley'
tp323
a(S'1000175275'
S'Massimiliano Neroni'
tp324
a(S'565917830'
S'Christa Kadena'
tp325
a(S'779896382'
S'Remy Makon'
tp326
a(S'100003100675672'
S'Pierre Bonnemoy'
tp327
a(S'781384478'
S'Katerina Gialini'
tp328
a(S'100003272446914'
S'Pablo Carcamo'
tp329
a(S'771840407'
S'Jo Ann Smith'
tp330
a(S'100000965742920'
S'Apostolia Avramoglou'
tp331
a(S'100000871045057'
S'Margarida Po\\u00e7as'
tp332
a(S'100000575051358'
S'Irina Chugada'
tp333
a(S'554641526'
S'George Chiu'
tp334
a(S'697727871'
S'Marc\\u00ebllo Aditya Yossy Soejitno'
tp335
a(S'786412374'
S'Paul L Murray'
tp336
a(S'737089487'
S'Lisa Platts'
tp337
a(S'100005745792627'
S'Ann McCoy'
tp338
a(S'18723435'
S'Laura Hernandez'
tp339
a(S'505200048'
S'Melissa Kunefke Foote'
tp340
a(S'100000621365568'
S'Svitlana Golub'
tp341
a(S'631261040'
S'Della Mccauley-Wilson'
tp342
a(S'1663878091'
S'\\u674e\\u4ea8\\u5229'
tp343
a(S'525280801'
S'Kevin Allen'
tp344
a(S'612226099'
S'Peter Kell'
tp345
a(S'672435980'
S'Levent Benzer'
tp346
a(S'1794066325'
S'Damayanti Sarsidi'
tp347
a(S'645873231'
S'ZelonTang Labyrinth'
tp348
a(S'42405107'
S'Drew Williams'
tp349
a(S'1398858940'
S'Ellie Cadwallader White'
tp350
a(S'649593073'
S'Renee Rush'
tp351
a(S'550389523'
S'TanizZ Pimsamarn'
tp352
a(S'1680353595'
S'Bervic Carillo'
tp353
a(S'100000953782603'
S'ALex MOreno'
tp354
a(S'605696880'
S'Angela Ptolomey'
tp355
a(S'1488913708'
S'Tiffanie Davis'
tp356
a(S'100001211787743'
S'Ramesh Kumar'
tp357
a(S'672767671'
S'Johan Arve'
tp358
a(S'509406185'
S'Timothy Mahoney'
tp359
a(S'1364206701'
S'Leslie McDonald Davenport'
tp360
a(S'591640231'
S'Bahaa El-Din Kamel'
tp361
a(S'503126127'
S'Krista Lee'
tp362
a(S'100004829643888'
S'Ailish McGovern'
tp363
a(S'1719142112'
S'Carolina Pacheco'
tp364
a(S'1378261236'
S'Bob Lord'
tp365
a(S'1407215229'
S'Kevin Stern'
tp366
a(S'1791593439'
S'Glenice Barnes'
tp367
a(S'100002988328007'
S'Bonnibell Truely'
tp368
a(S'630040933'
S'Mi Laurin'
tp369
a(S'520648868'
S'Sean Redican'
tp370
a(S'1813961725'
S'Alice James'
tp371
a(S'1606345470'
S'Jackie Whiteside'
tp372
a(S'1318393044'
S'Ferracchiato Maria Rita'
tp373
a(S'100001392006217'
S'Constantinos Axarlis'
tp374
a(S'100004975809510'
S'Mercedes Monroy Duarte'
tp375
a(S'755634681'
S'Michelle Seidemann'
tp376
a(S'10055833'
S'Linh Do'
tp377
a(S'771577993'
S'Regina Filangy'
tp378
a(S'1485970724'
S'Flavia Celidonio'
tp379
a(S'1148937252'
S'Roxane Pourjouer'
tp380
a(S'100003661347329'
S'Barbara Ankowska'
tp381
a(S'1554728928'
S'Zoe Smith'
tp382
a(S'581302419'
S'Rita Baeselen'
tp383
a(S'643068115'
S'Courtney Dery'
tp384
a(S'670553472'
S'Kirsty Bates'
tp385
a(S'529038191'
S'Joshua Hartsell'
tp386
a(S'726926563'
S'Leanne Rebecca Mulligan'
tp387
a(S'528089679'
S'Little Possum'
tp388
a(S'100002939395499'
S'Svetlana Zorlu'
tp389
a(S'753969281'
S'Dean Caplin'
tp390
a(S'763540745'
S'Othman ALedwan'
tp391
a(S'613609170'
S'Jodi Darko'
tp392
a(S'722199939'
S'Teresa Mazzuca Gonzalez'
tp393
a(S'100000212314915'
S'Dustin Hale'
tp394
a(S'500248942'
S'Ryan Nagengast'
tp395
a(S'1010124583'
S'Brandon Breimayer'
tp396
a(S'100000721281847'
S'Josh Manke'
tp397
a(S'1010337745'
S'Rennel Ramos'
tp398
a(S'100000701131265'
S'Veneta Dimova'
tp399
a(S'613063707'
S'Lana Putterman'
tp400
a(S'708182676'
S'Crystal Pacholko'
tp401
a(S'535604327'
S'Barbara Peckham'
tp402
a(S'1418015900'
S'Leilani Nonies'
tp403
a(S'751738899'
S'Yip Ka Lung'
tp404
a(S'745817222'
S'Dalia Ruiz'
tp405
a(S'100003749727487'
S'Meggy Phillips'
tp406
a(S'100004605853003'
S'Yakelin Turboil Carrer'
tp407
a(S'100003498126814'
S'Aissa Assila'
tp408
a(S'100000331992963'
S'Priscilla Labalette'
tp409
a(S'774497753'
S'Meng Yang'
tp410
a(S'100004302033493'
S'Anna Gunnars'
tp411
a(S'1415516099'
S'Krista GamingOnly'
tp412
a(S'562356647'
S'Mosah Yahsha'
tp413
a(S'574212804'
S'Jana Gross'
tp414
a(S'551432530'
S'Marwa Abounaja'
tp415
a(S'100000138937366'
S'Kata Ke\\u010dan'
tp416
a(S'100002601646753'
S'Natnicha Pomthong'
tp417
a(S'1204438576'
S'Mary Lee'
tp418
a(S'504433946'
S'Malika Ramey'
tp419
a(S'100000742044378'
S'Derek Preston Busse'
tp420
a(S'1579013013'
S'Suli Kundra Eva'
tp421
a(S'1698954158'
S'Debi Broadie'
tp422
a(S'1412486802'
S'Tanja Teofilovic'
tp423
a(S'716005245'
S'Jeff Wyatt'
tp424
a(S'732797813'
S'Stein Aas-Haga'
tp425
a(S'731780305'
S'Shannon Skye McKinnon'
tp426
a(S'636970420'
S'Dave Wing'
tp427
a(S'100004530212547'
S'To Sam Ja'
tp428
a(S'1572446617'
S'Tanya Lee Brown Bogard'
tp429
a(S'777190117'
S'Esmeralda King'
tp430
a(S'100000158416071'
S'Aidaras Zvinklys'
tp431
a(S'1029539054'
S'Robert Fleeman Jr'
tp432
a(S'100000021109626'
S'Tami Clinard Brooks'
tp433
a(S'1290062876'
S'Danny White Jr'
tp434
a(S'100000322874441'
S'Andreea Andreea'
tp435
a(S'1257250649'
S'Charren Tsai'
tp436
a(S'618190756'
S'Mark Richard Milton'
tp437
a(S'699154638'
S'Regulus De Leo'
tp438
a(S'655472364'
S'Rayden Ozy'
tp439
a(S'100000490419185'
S'Angelica Armstrong'
tp440
a(S'513069810'
S'Navek Ynohtna'
tp441
a(S'592284428'
S'Susan Kell'
tp442
a(S'100002894849131'
S'Miiss Shanda'
tp443
a(S'677375902'
S'Sasha Dawnn'
tp444
a(S'1269715448'
S'Luis Rodr\\u00edguez'
tp445
a(S'1379590682'
S'Maarja Ivask'
tp446
a(S'514833829'
S'Samantha Long Keasler'
tp447
a(S'1519876390'
S'Jay Fletcher'
tp448
a(S'795649147'
S'Jenniffer Dayana Parra Barazarte'
tp449
a(S'625292560'
S'Shanon Wahoff'
tp450
a(S'590021798'
S'Wryan Rutledge'
tp451
a(S'100001975236005'
S'Reflexoes Atualidades'
tp452
a(S'1452695288'
S'Christophe Chapuy'
tp453
a(S'100003226025279'
S'Sandy Anderson Blanchette'
tp454
a(S'695145209'
S'David Salty Richards'
tp455
a(S'673680738'
S'Jennifer Harrington'
tp456
a(S'40106286'
S'Thorsten Fiege'
tp457
a(S'587409437'
S'Melanie Gavaghan'
tp458
a(S'1283976192'
S'Ely Vicario'
tp459
a(S'834107369'
S'Keven Neagle'
tp460
a(S'635634419'
S'Minh Huynh'
tp461
a(S'100000078635435'
S'Teresa Poon'
tp462
a(S'626350297'
S'Mitzy Eden'
tp463
a(S'1211295918'
S'Carol Westley'
tp464
a(S'729610223'
S'Snoogins Mcbaarfaight'
tp465
a(S'515661682'
S'Prinne Porpik'
tp466
a(S'100002692982956'
S'Punkin Doodle'
tp467
a(S'42405516'
S'E J Covington Wildie'
tp468
a(S'525557280'
S'Pauline Goh'
tp469
a(S'845319576'
S'Alyson Fox'
tp470
a(S'1073470067'
S'Garrett Clinard'
tp471
a(S'784837528'
S'Fong Sanook'
tp472
a(S'770852969'
S'Nicholas Yan'
tp473
a(S'568127939'
S'Alva Adore'
tp474
a(S'712077735'
S'Christine Solomon'
tp475
a(S'507712437'
S'Ashley Silvas'
tp476
a(S'781168998'
S'Rose Bartolata Morales'
tp477
a(S'100004717601861'
S'Fatime Agayeva'
tp478
a(S'100000992769463'
S'Angie Thompson'
tp479
a(S'100000475304111'
S'Jo Hess'
tp480
a(S'100003676401946'
S'Lee Mcdermid'
tp481
a(S'663039133'
S'Thomas Teez Lamb'
tp482
a(S'541481375'
S'Aleksandra Knox'
tp483
a(S'670556790'
S'Emilie Slade Nyman'
tp484
a(S'100000867109367'
S'Antonio Giacalone'
tp485
a(S'598821787'
S'Neil Lewis'
tp486
a(S'683399134'
S'Anna-Karin Alexandersson'
tp487
a(S'624701623'
S'Dayana Ishak'
tp488
a(S'744610826'
S'David Phillipowsky'
tp489
a(S'723522539'
S'Cravin Morehead'
tp490
a(S'567301667'
S'Joel Pilgrim'
tp491
a(S'173200336'
S'Heather Dwyer'
tp492
a(S'100001042491052'
S'Bea Huber'
tp493
a(S'1066396331'
S'Sewar Nael Gharra'
tp494
a(S'640762913'
S'Rebecca Revelette'
tp495
a(S'100002558534830'
S'Christiane Guillon'
tp496
a(S'502930262'
S'Rosbe Nava'
tp497
a(S'755909181'
S'Estel Quercy'
tp498
a(S'100000301149727'
S'Millissa Fuchs'
tp499
a(S'1039783792'
S'Sheri Birinci'
tp500
a(S'762887785'
S'Richard H-w'
tp501
asS'id'
p502
S'1697805734'
p503
sS'name'
p504
S'Anodyne Alice'
p505
s.