(dp1
S'friends'
p2
(lp3
(S'100008187720755'
S'Tr Sreejith'
tp4
a(S'100006408129079'
S'Abdulmanaf Bin Yousef'
tp5
a(S'1702731398'
S'Althaf Majeed'
tp6
a(S'100008300690178'
S'Bhagat Singh'
tp7
a(S'100008230834030'
S'Karma Tshering Dorji'
tp8
a(S'100007372713045'
S'Ryan Singh'
tp9
asS'id'
p10
S'1702731398'
p11
sS'name'
p12
S'Althaf Majeed'
p13
s.