(dp1
S'friends'
p2
(lp3
(S'1026800719'
S'Javed Akhtar'
tp4
a(S'100001238804568'
S'Medisetti Tirumala Kumar'
tp5
a(S'612033215'
S'Mamta Govil'
tp6
a(S'100001562385706'
S'Jyotsna Devi'
tp7
a(S'732472797'
S'Alka Bhargava Singh'
tp8
a(S'780190706'
S'Ram Mohan Tiwari'
tp9
a(S'525984697'
S'Radhika Krishna'
tp10
a(S'625135916'
S'Girish N Pande'
tp11
a(S'1051683795'
S'Sangita Bajpai'
tp12
a(S'1532139990'
S'Anshu Shukla Pandey'
tp13
a(S'836586235'
S'Ritu Rastogi'
tp14
a(S'601547229'
S'Sandeep Saxena'
tp15
a(S'708065305'
S'Dhirendra Ojha'
tp16
a(S'1650355142'
S'Tulika Das'
tp17
a(S'677055152'
S'Bawre Nain'
tp18
a(S'1140524850'
S'Sanjeev Singh'
tp19
a(S'681575500'
S'Vasundhara Agarwal'
tp20
a(S'615632175'
S'Prasenjit Singh'
tp21
a(S'845428359'
S'Sanjeet Singh'
tp22
a(S'100001654338029'
S'Ajit Kumar Singh'
tp23
a(S'735129880'
S'Deepali Bahadur'
tp24
a(S'1089962432'
S'Shivi Shukla'
tp25
a(S'100000639697118'
S'Anuradha Gupta Agarwal'
tp26
a(S'684104354'
S'Asit Singh'
tp27
a(S'1123353585'
S'Archana Ranjan'
tp28
a(S'1736259042'
S'Usha Gupta'
tp29
a(S'600197005'
S'Pradeep Singh Gautam'
tp30
a(S'538653987'
S'Sumit Kaur'
tp31
a(S'678921450'
S'Mini Verma'
tp32
a(S'1003793720'
S'Paramjeet Singh'
tp33
a(S'734608651'
S'Anadee Nath Misshra'
tp34
a(S'619814505'
S'Bhanu Pande'
tp35
a(S'1016325388'
S'Mohan Kumar Singhania'
tp36
a(S'553517776'
S'Jyotsna Bhatnagar'
tp37
a(S'1497690573'
S'Sanjeev Sharma'
tp38
a(S'100001130414357'
S'Swatantra Kumar'
tp39
a(S'1029713428'
S'Sandip Garg'
tp40
a(S'613347122'
S'Vinay Kumar Singh'
tp41
a(S'1288876382'
S'Jagadish Irs'
tp42
a(S'724163872'
S'Sanjiv Singh'
tp43
a(S'1044641886'
S'Krishna Kishore Jasthi'
tp44
a(S'686927970'
S'Rati Misra'
tp45
a(S'1052958592'
S'Adarsh Modi'
tp46
a(S'673959810'
S'Gargi Sharma'
tp47
a(S'626953132'
S'Vinita Chaturvedi Johorey'
tp48
a(S'100002985790277'
S'Juhie Singh'
tp49
a(S'1148740567'
S'Tarun Kushwaha'
tp50
a(S'672792890'
S'Vinay Kumar Singh'
tp51
a(S'789468621'
S'Arun S Bhatnagar'
tp52
a(S'1137571482'
S'Uma Shankar Dhyani'
tp53
a(S'749133437'
S'Yogesh Verma'
tp54
a(S'1216435107'
S'Rajeev Ranade'
tp55
a(S'1323877850'
S'Rakesh Mishra'
tp56
a(S'670772796'
S'Paramita M. Biswas'
tp57
a(S'1480785869'
S'Navita Arjun Vohra'
tp58
a(S'676219542'
S'Tanuja Rastogi Farsaiya'
tp59
a(S'100006091536066'
S'Ratan Singh'
tp60
a(S'100001963035825'
S'Gm Doss'
tp61
a(S'594579238'
S'Namita Asthana'
tp62
a(S'588740037'
S'Seema Massand'
tp63
a(S'561431554'
S'Sudhanshu Dhar Mishra'
tp64
a(S'1785805523'
S'Abha Singh'
tp65
a(S'100002072601628'
S'Tina Jaggia'
tp66
a(S'100002448528845'
S'Archana Choudhary'
tp67
a(S'100004519093127'
S'Girish Pande'
tp68
a(S'100000315953083'
S'Mona Mohanty'
tp69
a(S'597854076'
S'Anuj Sharma'
tp70
a(S'705187420'
S'Anurag Mohan'
tp71
a(S'1400002997'
S'Seema Raza Singh'
tp72
a(S'1465966631'
S'Sunil Bajpai'
tp73
a(S'779048464'
S'Belu Sinha'
tp74
a(S'100002111275711'
S'Reema Husain'
tp75
a(S'1567385476'
S'Yagya Dutt Sharma'
tp76
a(S'100000591004974'
S'Nikhil Choudhary'
tp77
a(S'566448852'
S'Debjyoti Das'
tp78
a(S'590153464'
S'Rolee Agarwal'
tp79
a(S'1351275734'
S'Prem Chandra Maurya'
tp80
a(S'100000159486283'
S'Ashok Jha'
tp81
a(S'100000280374252'
S'Anand Upadhyay'
tp82
a(S'1039773853'
S'Tanuja Singh Misra'
tp83
asS'id'
p84
S'1751390301'
p85
sS'name'
p86
S'Deepali Chandra'
p87
s.