(dp1
S'friends'
p2
(lp3
(S'100002465032401'
S'Ashwin Peethambaran'
tp4
a(S'560782853'
S'Kartick Sharma'
tp5
a(S'533110106'
S'Anupam Thapa'
tp6
a(S'100002034586284'
S'Deepak Garg'
tp7
a(S'659915726'
S'Surabhi Sharma'
tp8
a(S'100003905915502'
S'Muskan Aggarwal'
tp9
a(S'557905418'
p10
S'Chhayankdhar Singh Rathore'
tp11
a(S'753357939'
S'Gumnam Godara'
tp12
a(S'784999168'
S'Suruchi Kandoi'
tp13
a(S'100001455641155'
S'Nishant Rastogi Kancer'
tp14
a(S'783599761'
S'Paras Dawar'
tp15
a(S'1049487025'
S'Nikhil Jain'
tp16
a(S'715788134'
S'Aman Bansal'
tp17
a(S'668172897'
S'Ekita Gupta'
tp18
a(S'611019050'
S'Rhythmm Grover'
tp19
a(S'548906799'
S'Anubhav Goel'
tp20
a(S'592061142'
S'Bhavya Shukla'
tp21
a(S'1846249501'
S'Parvesh Sharma'
tp22
a(S'100000372380379'
S'Tushar Sharma'
tp23
a(S'730285180'
S'Mrinal Ram'
tp24
a(S'693143639'
p25
S'Nishita Gupta'
tp26
a(S'1400230175'
S'Harshit Chadha'
tp27
a(S'100001749062211'
S'Kajol Nandi'
tp28
a(S'647584679'
S"Raghav 'Roalts' Apoorv"
tp29
a(S'663768770'
S'Kunal Malik'
tp30
a(S'1050503428'
S'Ashish Sethi'
tp31
a(S'727715614'
S'Pallavi Seth'
tp32
a(S'1216291603'
S'Vinayak Sood'
tp33
a(S'715964568'
S'Divyangna Verma'
tp34
a(S'668978248'
S'Psyched Nish'
tp35
a(S'1264460029'
S'Charul Rohatgi Mahendru'
tp36
a(S'100002535177442'
S'Abhishek Kaushik'
tp37
a(S'549371176'
S'Ankit Kapoor'
tp38
a(S'1132014214'
S'Arpita Bhattacharya'
tp39
a(S'718766526'
S'Aseem Aggarwal'
tp40
a(S'1006470414'
S'Shashwat Bahl'
tp41
a(S'100000646954251'
S'Lucas Yonzon'
tp42
a(S'1056953556'
S'Ayush Bansal'
tp43
a(S'627870407'
p44
S'Mahvish Khan'
tp45
a(S'1640943562'
S'John Rozario'
tp46
a(S'669154137'
S'Naveen Vashisht'
tp47
a(S'1053985420'
S'Amorita Goel'
tp48
a(S'583237350'
S'Suman Chandla'
tp49
a(S'531826515'
S'Nitish Gupta'
tp50
a(S'598764212'
S'Mayank Tokas'
tp51
a(S'663545100'
S'Vinayak Khatri'
tp52
a(S'592787200'
S'Monica S. Yadav'
tp53
a(S'549239668'
S'Akshay Awasthi'
tp54
a(S'540210521'
S'Aditya Kiran Kakati'
tp55
a(S'843789524'
S'Shivam Khanna'
tp56
a(S'100003789354738'
S'Prince Rahi'
tp57
a(S'548732787'
S'Shreyasi Ranjan'
tp58
a(S'1025157453'
S'Abhishek Gupta'
tp59
a(S'693663233'
S'Krishna Beura'
tp60
a(S'100000252357817'
S'Sagar Dang'
tp61
a(S'726135019'
S'Tanish Seth'
tp62
a(S'532421364'
S'Vinayak Gupta'
tp63
a(S'684025630'
S'Nitesh Jain'
tp64
a(S'100002423424783'
S'Garvit Jain'
tp65
a(S'549623658'
S'Pulkit Bansal'
tp66
a(S'829959718'
S'Pushkar Mehta'
tp67
a(S'582761632'
S'Narender Goyal'
tp68
a(S'1060642857'
S'Surbhi Baid'
tp69
a(S'548989975'
S'Fagun Mittal'
tp70
a(S'592557164'
p71
S'Pranav Shivani Hasija'
tp72
a(S'565166260'
p73
S'Suyash Gabriel'
tp74
a(S'100002317532421'
S'Sandeep Sharma'
tp75
a(S'100000462738327'
p76
S'Krishan Bishnoi'
tp77
a(S'1057709579'
S'Rohit Job Zachariah'
tp78
a(S'100001721793100'
S'Aiya Eddie'
tp79
a(S'1724573955'
S'Ashish Singh'
tp80
a(S'645900249'
S'Shitij Jain'
tp81
a(S'1044945581'
S'Stuti Chopra'
tp82
a(S'548711535'
S'Aman Prasad'
tp83
a(S'100002215728108'
S'Sagar Khatri'
tp84
a(S'582818728'
S'Siddharth Rajpal'
tp85
a(S'709046094'
p86
S'Praveen Jose'
tp87
a(S'100000119740544'
S'Swati Bhutiani'
tp88
a(S'678103269'
S'Yash Chandarana'
tp89
a(S'702434658'
S'Oauchitya Vashisht'
tp90
a(S'1022663492'
S'Amol Verma'
tp91
a(S'100000633649402'
p92
S'George Joseph'
tp93
a(S'749003769'
p94
S'Abhinav Agrawal'
tp95
a(S'100002723086510'
S'Sakshi Upadhyay'
tp96
a(S'663703467'
S'Ishaan Sarin'
tp97
a(S'623636094'
S'Jaspreet Marwah'
tp98
a(S'615985100'
S'Asim Ali'
tp99
a(S'648500839'
S'Tulika Kataria'
tp100
a(S'692658159'
S'Anmol Sethi'
tp101
a(S'532317443'
S'Rishabh Jain'
tp102
a(S'100005050116020'
S'Mamta Vani'
tp103
a(S'100000500336367'
p104
S'Prerna Pratham Singh'
tp105
a(S'661841566'
S'Madhumita Pandey'
tp106
a(S'518351306'
S'Saloni Taneja'
tp107
a(S'846450313'
S'Varun Goyal'
tp108
a(S'644950958'
S'Udit Bhargava'
tp109
a(S'100004650663526'
S'Anil Singh'
tp110
a(S'100005112493760'
S'Mohit Sharma'
tp111
a(S'542758301'
S'Kanika Aggarwal'
tp112
a(S'100002331853477'
S'Pooja Jha'
tp113
asS'id'
p114
S'1759526941'
p115
sS'name'
p116
S'Ankur Gupta'
p117
s.