(dp1
S'friends'
p2
(lp3
(S'580324478'
S'Jimmy Moses'
tp4
a(S'694053666'
S'RiChail Saraiya'
tp5
a(S'1759166231'
S'Mannoj Sharma'
tp6
a(S'100000991643032'
S'Payal Patel'
tp7
a(S'100000618582799'
S'Ashu Joshi'
tp8
a(S'100000896060233'
S'Sudipta Sen'
tp9
a(S'1055012167'
S'Niharika Ravia'
tp10
a(S'100000642125605'
S'Mohit Chandaliya'
tp11
a(S'1298585717'
S'Amit Singh Thakur'
tp12
a(S'100000818354555'
S'Komal Kohli'
tp13
a(S'100001032579998'
S'Prasad Dighe'
tp14
a(S'100001435759443'
S'Kunal Kapurs'
tp15
a(S'819465363'
S'Mankaran Singh'
tp16
a(S'100001260033791'
S'Variya Umang'
tp17
a(S'100000770224721'
S'Polly Quah'
tp18
a(S'526311282'
S'Amit Chadha'
tp19
a(S'100000545353425'
S'Anil Datta'
tp20
a(S'683887159'
S'Sanjana Jon'
tp21
a(S'579400468'
S'Mayank Dewani'
tp22
a(S'100000938916687'
S'Kiran Agrawal'
tp23
a(S'100001290228465'
S'Jagdish Padhiar'
tp24
a(S'841784028'
S'Ashish Sompura'
tp25
a(S'100000155275767'
S'Sanjaysinh Gohil'
tp26
a(S'100000122040548'
S'Asif Sheikh'
tp27
a(S'1459644749'
S'Shadab Waseem'
tp28
a(S'100000974603148'
S'Shammendra Kumar Shand'
tp29
a(S'515640181'
S'Sandeep Kumar Tyagi'
tp30
a(S'100001030174078'
S'Vedika Oberai'
tp31
a(S'1360114966'
S'Lopsang Dokpatsang MrNewyork Champ'
tp32
a(S'1151554474'
S'Hariram Chaudhary'
tp33
a(S'100000223921841'
S'Rdhevents Delhi'
tp34
a(S'558581744'
S'Suneet Goenka'
tp35
a(S'1270535370'
S'Bharulata Kamble'
tp36
a(S'100000149682838'
S'Pankaj Karn'
tp37
a(S'100001214046391'
S'Reshma Kapoor'
tp38
a(S'509579931'
S'Sonia Tugnait'
tp39
a(S'608158021'
S'Rakesh Paul'
tp40
a(S'100000766772457'
S'Shilpi Sharma'
tp41
a(S'1460890433'
S'Amit Behl'
tp42
a(S'1014161462'
S'Adarsh Saxena'
tp43
a(S'1222883062'
S'Devendra Shivaji Jadhav'
tp44
a(S'1647144598'
S'Sanjay Pande'
tp45
a(S'1347469548'
S'Manish Shah'
tp46
a(S'614568653'
S'Jayant Deshmukh'
tp47
a(S'690449368'
S'Sanjay Pandey'
tp48
a(S'1149970676'
S'Rachit Bedi'
tp49
a(S'100001203751889'
S'Girish Sagar'
tp50
a(S'808129654'
S'Sachin Kamble'
tp51
a(S'661334578'
S'Prabha Iyer'
tp52
a(S'628330971'
S'Anirudh Punj'
tp53
a(S'591065657'
S'Jaikishan Kalawapudi'
tp54
a(S'718909124'
S'Vivek Rishi'
tp55
a(S'1370543433'
S'Mehul Nandu'
tp56
a(S'100000312182241'
S'Amanpreet Chopra'
tp57
a(S'587597686'
S'Rajat Agrawal'
tp58
a(S'610010542'
S'Jia Qureshi'
tp59
a(S'1024002205'
S'Moin Shamsi'
tp60
a(S'1823553607'
S'Veena Kapoor'
tp61
a(S'100000286496255'
S'Farha Maniyar'
tp62
a(S'100000946502026'
S'Arindam Banerjee'
tp63
a(S'1145362030'
S'Ena Singh'
tp64
a(S'100000593709220'
S'Dipak Bhavsar'
tp65
a(S'100001022387634'
S'Vishal Raj Singh'
tp66
a(S'719941340'
S'Neha Badaskar-Mane'
tp67
a(S'1653168131'
S'Rajesh Patel'
tp68
a(S'1418018883'
S'Bhushan Gawande'
tp69
a(S'100000730231316'
S'Ketan Patel'
tp70
a(S'555153822'
S'Dipankar Kashyap'
tp71
a(S'1112776653'
S'Manoj Sharma'
tp72
a(S'1656020431'
S'Smita Walia Bhardwaj'
tp73
a(S'100000440502041'
S'Vijayant Goswami'
tp74
a(S'532307080'
S'Dhruv Trivedi'
tp75
a(S'1313148032'
S'Dev Agarwal'
tp76
a(S'693407243'
S'Sandeep Nandlal Sagar'
tp77
a(S'100000605330941'
S'Mahesh Gulabani'
tp78
a(S'1408326817'
S'Sangeeta Jain'
tp79
a(S'1674545355'
S'Sarthak Awasthi'
tp80
a(S'1312843851'
S'Zainab Haji Vapiwala'
tp81
a(S'100001283494641'
S'Jay GB Patel'
tp82
a(S'100000513786738'
S'Maninee Patil'
tp83
a(S'100000820514266'
S'Noor Kaur'
tp84
a(S'1209421333'
S'Prithvijit Debnath'
tp85
a(S'640407864'
S'Niraj Raaz Podel'
tp86
a(S'1262750492'
S'Akash Madnani'
tp87
a(S'1250158512'
S'Sanket Kumar'
tp88
a(S'514940883'
S'Rtr Amrendra Singh'
tp89
a(S'556677956'
S'Charu Shah'
tp90
a(S'1005877467'
S'Shruti Marathe'
tp91
a(S'100000445893004'
S'Deepak Yadav'
tp92
a(S'1132958776'
S'Amit Mehta'
tp93
a(S'683970168'
S'Chandrika Kanabar'
tp94
a(S'100001723353506'
S'Kalpana Kumar'
tp95
a(S'1775967154'
S"'Kuldipsinh Zala"
tp96
a(S'100000482624978'
S'Rj Gupta'
tp97
a(S'1625956506'
S'Armaan Khan'
tp98
a(S'1663587203'
S'Vivek Choudhary'
tp99
a(S'816088305'
S'Hemant Dixit'
tp100
a(S'729606664'
S'Amit Vashisth'
tp101
a(S'1072982720'
S'Sandeep G Roy'
tp102
a(S'1347611569'
S'Arrti Khaittan'
tp103
a(S'1470131257'
S'Sanjay Panchal'
tp104
a(S'1459067221'
S'Nimmi Dixit'
tp105
a(S'1575987541'
S'Love Maheshwari'
tp106
a(S'100000831232172'
S'Rajesh Pardasani'
tp107
a(S'1141445216'
S'Saleem Mohammed'
tp108
a(S'100000291086503'
S'Mohammed Saber'
tp109
a(S'1659146683'
S'Sukhwant Kalsi'
tp110
a(S'100000203045251'
S'Sahanah Sahanahuk'
tp111
a(S'715440291'
S'Jaydip Parikh'
tp112
a(S'665532222'
S'Brendina Davy-Malik'
tp113
a(S'608184194'
S'Sunil Vaghela'
tp114
a(S'1315997364'
S'Romi Sharma'
tp115
a(S'611136413'
S'Abhishek Mishra'
tp116
a(S'865200376'
S'Hina Logde'
tp117
a(S'100000185880739'
S'Banwari Taneja'
tp118
a(S'100000731946736'
S'Ankit Mogha'
tp119
a(S'694921982'
S'Naveen Soni'
tp120
a(S'1679921509'
S'Shailesh Kotian'
tp121
a(S'100000703362538'
S'Shailesh Panchal'
tp122
a(S'100000019597395'
S'Rajiv Singh Durgvanshi'
tp123
a(S'1236828790'
S'Gagan Rahi'
tp124
a(S'622952141'
S'Gaurav Goswami'
tp125
a(S'1574971052'
S'Zubin Zalak'
tp126
a(S'1268059659'
S'Bhavishya Chugh'
tp127
a(S'830244203'
S'Ashu Panjwani'
tp128
a(S'1650403521'
S'Rahul Swargam'
tp129
a(S'531198796'
S'Hitesh H Sompuraa'
tp130
a(S'100001180023693'
S'Satya Bhatt'
tp131
a(S'100001203069944'
S'Jit Patel'
tp132
a(S'100000979562473'
S'Milan Davda'
tp133
a(S'100000006816080'
S"Vivek 'Vickz' Kl"
tp134
a(S'525233780'
S'Mohit Gupta'
tp135
a(S'100000205810903'
S'Sharon Pinto Dsilva'
tp136
a(S'100001080760359'
S'Kumud Chaudhary'
tp137
a(S'100000371908466'
S'Hirock Saumitra'
tp138
a(S'100001288906977'
S'Dinesh Kushwaha'
tp139
a(S'591627964'
S'Richa Dubey Panchariya'
tp140
a(S'1079049663'
S'Satish Ranjan Michael'
tp141
a(S'629625472'
S'Mann Balachauria'
tp142
a(S'1053863001'
S'Mallishka Rao'
tp143
a(S'733432053'
S'\\u0642\\u0627\\u0626\\u062f \\u062c\\u0648\\u0647\\u0631 \\u062d\\u0627\\u062c\\u064a'
tp144
a(S'1509581080'
S'Sanket Sule'
tp145
a(S'100000959385472'
S'Kaushal Acharya'
tp146
a(S'1167743998'
S'Sahifur Rahman'
tp147
a(S'100001032718171'
S'Cintaa India'
tp148
a(S'1561543051'
S'Mimi Priya'
tp149
a(S'620615943'
S'Kaaya Nair'
tp150
a(S'687659251'
S'Nilang Rindani'
tp151
a(S'1302701762'
S'Shiva Kumar'
tp152
a(S'1791245543'
S'Rohit K Grover'
tp153
a(S'754166585'
S'Jovaria Salma'
tp154
a(S'600089587'
S'Ameya Vidya-Suresh Naik'
tp155
a(S'100000357610566'
S'Devang Patel'
tp156
a(S'100000603078507'
S'Shankar Sahney'
tp157
a(S'1440620244'
S'Kavita Arora'
tp158
a(S'100001040053667'
S'Kavita Singh'
tp159
a(S'602878914'
S'Janardhan Athri'
tp160
a(S'555820925'
S'Rajeev Kohli'
tp161
a(S'575765183'
S'Sushil Ramesh Khatri'
tp162
a(S'655068272'
S'Henna Rai'
tp163
a(S'100001277523500'
S'Aakash Chhachhi'
tp164
a(S'1791120266'
S'Hemali Sejpal'
tp165
a(S'1242274060'
S'Ubaid Memon'
tp166
a(S'717176507'
S'Bhavik Dwivedi'
tp167
a(S'1150749652'
S'Sharmistha Barua Bobby'
tp168
a(S'640952744'
S'Kartik Sharma'
tp169
a(S'1647459230'
S'Sheetal Chaudhary'
tp170
a(S'583381740'
S'Shailender Kaushik'
tp171
a(S'100000118085795'
S'Amir Tadwalkar'
tp172
a(S'100001497511444'
S'Kumar Sahu'
tp173
a(S'100000228466309'
S'Neeraj Singh'
tp174
a(S'1601036161'
S'Parvez Opai'
tp175
a(S'1629708283'
S'Aniiket Saha'
tp176
a(S'1117013499'
S'Nafey Ali Khan'
tp177
a(S'1263092345'
S'Jeetendra Vyas Fashionpfotographer'
tp178
a(S'805843878'
S'Aashish Vyas'
tp179
a(S'100000553221185'
S'Laila Pannda'
tp180
a(S'1601402424'
S'Tulika Dutta'
tp181
a(S'100001058093606'
S'Mohit Ramani'
tp182
a(S'100000864990522'
S'Ali Feather'
tp183
a(S'1123110972'
S'Sannidhya Pagare'
tp184
a(S'1055109877'
S'Sandeep Birring'
tp185
a(S'1279266588'
S'Ankur Mittal'
tp186
a(S'665383050'
S'Nittin Bedi'
tp187
a(S'100000888510312'
S'Sarah Khan'
tp188
a(S'1761471591'
S'Rahul Tiwari'
tp189
a(S'1346121888'
S'Dev Khubnani'
tp190
a(S'701498448'
S'Shivani Sopori'
tp191
a(S'100000610516196'
S'Singer Shivangi Sharma'
tp192
a(S'100000463882088'
S'Deepika Midha Gosain'
tp193
a(S'753421377'
S'Hricha Thakur'
tp194
a(S'100000683903632'
S'Syed Farhat'
tp195
a(S'1574950773'
S'Rajan Ahuja'
tp196
a(S'1349101545'
S'Sumit Rai'
tp197
a(S'100000798417413'
S'Girish Solanki'
tp198
a(S'1766956607'
S'Runvijay Mh'
tp199
a(S'1841065275'
S'Pradnyaa Sumathi Shetty'
tp200
a(S'100000532470333'
S'Delnaaz Irani'
tp201
a(S'100000312302789'
S'Meditation Ashram'
tp202
a(S'787811131'
S'Trushal Gaikwad'
tp203
a(S'1393446569'
S'Salim Raza'
tp204
a(S'100000315837832'
S'Aslam Ali Khan'
tp205
a(S'798354695'
S'Jigna Thakkar'
tp206
a(S'602381038'
S'Shoaeb Kasmani'
tp207
a(S'100000279862813'
S'Ritesh Dalal'
tp208
a(S'1369855057'
S'Rahul SemKes Saxena'
tp209
a(S'1030930757'
S'Badshah Singh Saluja'
tp210
a(S'1050719461'
S'Suvir Misra'
tp211
a(S'100000035010089'
S'Renu Vaswani'
tp212
a(S'1344319304'
S'Kajal Singh'
tp213
a(S'1776360865'
S'Narendra Pahade'
tp214
a(S'1045303185'
S'Manish Ramawat'
tp215
a(S'694845638'
S'Avdhut Purohit'
tp216
a(S'100000562045746'
S'Ravinder Rajput'
tp217
a(S'1319589643'
S'Varun Kumar'
tp218
a(S'100000658571709'
S'Savita Lakhanpal-Sharma'
tp219
a(S'100001308743284'
S'Akhilendra Verma'
tp220
a(S'574850619'
S'Paras Singh Minhas'
tp221
a(S'1822856664'
S'Punit Rai'
tp222
a(S'559413509'
S'Samir Jagot'
tp223
a(S'1245864758'
S'Ashish Mehta'
tp224
a(S'100001432813634'
S'Chander Rohra'
tp225
a(S'1251760253'
S'Irshad Khan'
tp226
a(S'642847919'
S'Kel A Goyal'
tp227
a(S'1228651052'
S'Raaja Bherwani'
tp228
a(S'100000122328541'
S'Nishikant Dixit'
tp229
a(S'640082657'
S'Sanjay Jha Mastan'
tp230
a(S'100000740986357'
S'Sunita Chohda'
tp231
a(S'556923960'
S'Pramod Kumar Mathur'
tp232
a(S'1165903097'
S'Deepak Jayesh Kakaiya'
tp233
a(S'632389495'
S'Abhishek Mehta'
tp234
a(S'1456994008'
S'Shivam Dua'
tp235
a(S'1030256009'
S'Pankaj Chandel'
tp236
a(S'100000281466981'
S'Jagdish Chandra Vyas'
tp237
a(S'522453668'
S'Hiren Thakar AntzEvents'
tp238
a(S'100000010629379'
S'Ekta Sharma'
tp239
a(S'749308905'
S'Saurabh Shukla'
tp240
a(S'100000947811451'
S'Rustam Chhabra'
tp241
a(S'1057754271'
S'Vipin Chahal'
tp242
a(S'554398370'
S'Vishal Motwani'
tp243
a(S'100000510230069'
S'Nisarg Shah'
tp244
a(S'1377613213'
S'Tejendra Sinh Chudasama'
tp245
a(S'100000298445612'
S'Sudhir Shukla'
tp246
a(S'805888958'
S'Rajiv G Mehta'
tp247
a(S'705041377'
S'Divyaansh Dutt'
tp248
a(S'1184314012'
S'Architect-Chintan Virani'
tp249
a(S'1566581366'
S'Jeet Mohan Babbar'
tp250
a(S'577197410'
S'Rohit Pramar'
tp251
a(S'1299899161'
S'Jigar Rajgor'
tp252
a(S'100000973043075'
S'Sanjeev Kumar'
tp253
a(S'757684187'
S'Zareen Khan'
tp254
a(S'100000097861446'
S'Prafful M Rawal'
tp255
a(S'717771410'
S'Mamta Majumdar Mongia'
tp256
a(S'100000958002974'
S'Ankkit Malviyaa'
tp257
a(S'1226869294'
S'Rima Sen'
tp258
a(S'1439706818'
S'Ankur Kapoor'
tp259
a(S'596153403'
S'Aadi Sharma'
tp260
a(S'100000917113374'
S'Waynew Raao'
tp261
a(S'100000811903512'
S'Nandita Prakash'
tp262
a(S'1213577313'
S'Viren Nagre'
tp263
a(S'100000281818003'
S'Baanee Sharad'
tp264
a(S'1148180532'
S'Shahrukh Askari'
tp265
a(S'560467900'
S'Nick Sah'
tp266
a(S'100000125117198'
S'Vinayak Sharma'
tp267
a(S'1553955629'
S'Ishan Lakhina'
tp268
a(S'718090855'
S'Munisha Khatwani'
tp269
a(S'657703411'
S'Keshava Prasad'
tp270
a(S'1671320111'
S'Moh Yasir Javed'
tp271
a(S'1109775342'
p272
S'Arun Bali'
tp273
a(S'530975516'
S'Parag Thakkar'
tp274
a(S'1016718668'
S'Saurabh Agarwal'
tp275
a(S'1318686340'
S'Ujjaini Mukherjee'
tp276
a(S'100001010690320'
S'Anees Ahmed'
tp277
a(S'100000743882788'
S'Meinal Shwet Sinha'
tp278
a(S'100000992694520'
S'Dilip Joshi'
tp279
a(S'100001306082593'
S'John MJ'
tp280
a(S'100000574710398'
S'Salil Verghese'
tp281
a(S'1467862008'
S'Shiraz Henry'
tp282
a(S'1263702361'
S'Killol Bhatt'
tp283
a(S'1254391756'
S'Eshaan Sahney'
tp284
a(S'1355919615'
S'Shamlal Puri'
tp285
a(S'100000048373209'
S'Sheetal Rathod'
tp286
a(S'100000527175711'
S'CA Dhirendra Bhartiya'
tp287
a(S'1359129077'
S'Pandit Manuj Dutt'
tp288
a(S'1586389078'
S'Sakeena Imran Shaikh'
tp289
a(S'1137910440'
S'Hitesh Soni'
tp290
a(S'1192945148'
S'Atul Gandani'
tp291
a(S'790834162'
S'Baseem Ahmed'
tp292
a(S'100000990918197'
S'Vishnu Script'
tp293
a(S'100000105503906'
S'Rahul Sharma'
tp294
a(S'1271460901'
S'Squarez Pro'
tp295
a(S'100001134507572'
S'Seema Sharma Samani'
tp296
a(S'1822553382'
S'Jay Trivedi'
tp297
a(S'1407914720'
S'JyotishAcharya Bhrighushree Monica Anand'
tp298
a(S'1490043370'
S'Hari Saraswat'
tp299
a(S'556255353'
S'Rina Thanki'
tp300
a(S'1119665147'
S'Aacharya Kamal Nandlal'
tp301
a(S'100000042429388'
S'Rajeev Khandelwal'
tp302
a(S'100000282806089'
S'Geet Tiwari'
tp303
a(S'585506591'
S'Chandan Indoria'
tp304
a(S'100001504787235'
S'Seema Bagga'
tp305
a(S'1773954525'
S'Neha Srivastva'
tp306
a(S'100001363339664'
S'Varsha Chaumal'
tp307
a(S'1656900264'
S'Abhiraj Abhi'
tp308
a(S'561585684'
S'Samarth Saxena'
tp309
a(S'100000428027618'
S'Raunaq Sachdeva'
tp310
a(S'100000061020146'
S'Deep Kohli'
tp311
a(S'817400315'
S'Yogi Mirchandani'
tp312
a(S'100000473509626'
S'Siddharth Iyer'
tp313
a(S'100000942518735'
S'Dinesh Panchal'
tp314
a(S'100000501520817'
S'Navi Brar'
tp315
a(S'617795627'
S'Reema Jayant Jyoti Welling'
tp316
a(S'1755735990'
S'Deepak B Daryani'
tp317
a(S'100000374402232'
S'Ramki Bhamidipati'
tp318
a(S'746186447'
S'Karuna Samtani'
tp319
a(S'1043949233'
S'Astrologer Sushil Kumaar Singh'
tp320
a(S'100000955182791'
S'Vasundhara Abhinetri'
tp321
a(S'100000567397609'
S'Deepak Ashar'
tp322
a(S'1577190633'
S'Kevin Boss Patel'
tp323
a(S'100000926621941'
S'Ravi Parmar'
tp324
a(S'100000838133348'
S'Syead Abbas Patel'
tp325
a(S'100001299065515'
S'Prabhu Dayal Meena'
tp326
a(S'566710283'
S'Parag S. Patwa'
tp327
a(S'702729268'
S'Sanjay Goda'
tp328
a(S'841646648'
S'Riviera Casting House'
tp329
a(S'1598481500'
S'Amish Tanna'
tp330
a(S'597225272'
S'Rajesh Sadhwani'
tp331
a(S'1848386848'
S'Rajk Purohit'
tp332
a(S'100001008673736'
S'Siddesh Kapadi'
tp333
a(S'545051654'
S'Rajesh Ranshinge'
tp334
a(S'100000094697344'
S'Prithwis Chowdhury'
tp335
a(S'1540724249'
S'Monica Bedi'
tp336
a(S'585695559'
S'Anand Rahurikar'
tp337
a(S'100001184531876'
S'Abbaas Hierapurwala'
tp338
a(S'100000495498295'
S'Sanjay Maheshwari'
tp339
a(S'1281677653'
S'Deepak Gurbani'
tp340
a(S'100000437462714'
S'Vineet Shah'
tp341
a(S'100000537984307'
S'Vivek Singh'
tp342
a(S'100001082252606'
S'Santan Varshney'
tp343
a(S'1363041818'
S'Sandeep Sanghvi'
tp344
a(S'680027329'
S'Imraan Ibraheem'
tp345
a(S'100000079497715'
S'Prashant Rajkumar Rajgarhia'
tp346
a(S'656931093'
S'Ajay Walia'
tp347
a(S'1506297924'
S'Arif Qureshi'
tp348
a(S'1154852085'
S'Shruti Darshana'
tp349
a(S'1081700164'
S'Nishank Verma'
tp350
a(S'1353427966'
S'Mayank Bhorkar'
tp351
a(S'773883135'
S'Asif Shaikh'
tp352
a(S'1467820488'
S'Garg Bhoomika'
tp353
a(S'1841154448'
S'Kumar Sanjay Kherwal'
tp354
a(S'1267376500'
S'Deepak Bagga'
tp355
a(S'1465732791'
S'Pradeep Sarangadharan'
tp356
a(S'100001320016117'
S'Chirag Shah'
tp357
a(S'1199904645'
S'Guru Walia'
tp358
a(S'100000404806288'
S'Adi Ahmed'
tp359
a(S'1569273552'
S'Maan Saab'
tp360
a(S'611467643'
S'Danish Khan'
tp361
a(S'1102502666'
S'Monik Soni'
tp362
a(S'587335856'
S'Navin Anand'
tp363
a(S'1168304239'
S'Pranay Dave'
tp364
a(S'538489490'
S'Palvi Gala'
tp365
a(S'616956593'
S'Deepak Virwani'
tp366
a(S'100001152272245'
S'Vinnay R Anand H'
tp367
a(S'100001486043134'
S'Piyush Sanghavi'
tp368
a(S'637788611'
S'Reshmi Chhabra'
tp369
a(S'720342233'
S'Rajveer Singh'
tp370
a(S'100001085059307'
S'Amit Bhatt'
tp371
a(S'1022676785'
S'Vandana Choradia'
tp372
a(S'100000307120731'
S'Nitin Sharma'
tp373
a(S'1314922497'
S'Sheikh Pervez Usmani'
tp374
a(S'534936445'
S'Naja Ali'
tp375
a(S'1300264480'
S'Ketan Vora'
tp376
a(S'1032007521'
S'Sanjay Mishra'
tp377
a(S'100000629952214'
S'MahavirSingh Quotes'
tp378
a(S'1207147735'
S'Sunil Upadhyay'
tp379
a(S'1608498509'
S'Narendra Singh'
tp380
a(S'1033940616'
S'Bunty Rathore'
tp381
a(S'1803301988'
S'Romi Jain'
tp382
a(S'1735897373'
S'Krishnakant Choudhary'
tp383
a(S'100000128877658'
S'Ranju P Kulkarni'
tp384
a(S'693821667'
S'Jayrajsinh Chavda'
tp385
a(S'1312135301'
S'Surendra Pal Singh'
tp386
a(S'100000248315281'
S'Asha Savanur'
tp387
a(S'100000105923764'
S'Kapadia Sonu'
tp388
a(S'1307794101'
S'Neel Lahiri'
tp389
a(S'100000638230583'
S'Krishan K Khadaria'
tp390
a(S'100000186294828'
S'Priyank Dubey'
tp391
a(S'100000294761865'
S'Prakash Shanbhag'
tp392
a(S'851730483'
S'Mayank Sharma'
tp393
a(S'644058297'
S'Raisa Esmail'
tp394
a(S'100000366995149'
S'Bindiya Patel'
tp395
a(S'100000585429049'
S'Minakshi Kataria'
tp396
a(S'100000937904148'
S'Himmat Singh Negi'
tp397
a(S'100000604520488'
S'Anjali Kapoor'
tp398
a(S'100000728005062'
S'Priti Singhania'
tp399
a(S'1426535402'
S'Manu Goel'
tp400
a(S'100000306876144'
S'Namrata Sethi'
tp401
a(S'518027114'
S'Rakshit Kumar Singh'
tp402
a(S'868760343'
S'Keshav Anand'
tp403
a(S'100000430431486'
S'Adesh Kumar'
tp404
a(S'804371461'
S'Parineeta Malhotra'
tp405
a(S'1292911780'
S'Rajesh Patil'
tp406
a(S'1652146439'
S'Vipul B Unadkat'
tp407
a(S'1207879567'
S'Raman Kumar Jangwal'
tp408
a(S'666938652'
S'Sanjay Soni'
tp409
a(S'100001067231310'
S'Ashutosh Kaushik'
tp410
a(S'536490619'
S'Shruti Shrivastava'
tp411
a(S'611624102'
S'Mala Shetty'
tp412
a(S'100000148760032'
S'Rohit Daid'
tp413
a(S'726475588'
S'Pallab Bose'
tp414
a(S'100000558535664'
S'Ravi Sharma'
tp415
a(S'1560635229'
S'Rohit Chauhan'
tp416
a(S'567034285'
S'Deepak Kalra'
tp417
a(S'1280715332'
S'Raza Siddiqui'
tp418
a(S'100001182762173'
S'Faraaz Kazi'
tp419
a(S'100000419686223'
S'Ashwani Singh'
tp420
a(S'100000524414680'
S'Aakriti Khanna'
tp421
a(S'100000051620805'
S'Narendra Rajpal'
tp422
a(S'100000446537677'
S'Sanjay Dutt'
tp423
a(S'100001193311436'
S'Parag Bhati'
tp424
a(S'100000925117341'
S'Tanishq Tyagi'
tp425
a(S'1673466247'
S'Kumud J C Barot'
tp426
a(S'731168853'
S'Lokesh Agarwal'
tp427
a(S'1403192246'
S'Maulik Sonpar'
tp428
a(S'567399743'
S'Suparna Chakravarty'
tp429
a(S'560629505'
S'Bhavana Balsaver'
tp430
a(S'730755459'
S'Debashish Sahay'
tp431
a(S'533682406'
S'Nuvendra Singh'
tp432
a(S'1260728291'
S'Globalmedia Mumbai'
tp433
a(S'1222854238'
S'Mukesh Mittal'
tp434
a(S'100000923803865'
S'Neeraj Nigam'
tp435
a(S'100001198314320'
S'Sheikh Yasir'
tp436
a(S'1652800258'
S'Imran Khan'
tp437
a(S'514884357'
S'Hiten Paintal'
tp438
a(S'100000526627710'
S'Jyoti Varma Pancholi'
tp439
a(S'100001468161646'
S'Pawan Manchanda'
tp440
a(S'1398360333'
S'Jay Saumik Joshi'
tp441
a(S'633535599'
S'Hari Ramasubramanian'
tp442
a(S'1338456598'
S'Jeetender Singh'
tp443
a(S'1507659650'
S'Gargey Patel'
tp444
a(S'653612086'
S'Palak Smehta'
tp445
a(S'1744192807'
S'Raj Chaudary'
tp446
a(S'533089564'
S'Chika Kharsani'
tp447
a(S'100000239004657'
S'Shaneghani Siddiqui'
tp448
a(S'506752868'
S'Sandeep Kadbet'
tp449
a(S'100000436898458'
S'Puneet Joshi'
tp450
a(S'569614821'
S'Meena Goculdas'
tp451
a(S'582232326'
S'Ankit Srivastava'
tp452
a(S'1168625945'
S'Wali Khan Wardag'
tp453
a(S'784044013'
S'Raman Amarvadi'
tp454
a(S'651060283'
S'Megha Bajaj'
tp455
a(S'1526186996'
S'Tauqeer Zaidi'
tp456
a(S'100001354267407'
S'Devendra Rathore'
tp457
a(S'100000612688021'
S'Harindersingh Bhooie'
tp458
a(S'100001008356439'
S'Kunjbihari Nayak'
tp459
a(S'100000819421357'
S'Pankaj Subhedar'
tp460
a(S'100000606888577'
S'Pradnya Sawant Tanna'
tp461
a(S'100000988925310'
S'Mohd Dayem'
tp462
a(S'100000520947044'
S'Vijay Tank'
tp463
a(S'1659781412'
S'Richa Kulshrestha'
tp464
a(S'100000996761191'
S'Jatinder Arora'
tp465
a(S'615348695'
S'Sunil Huske'
tp466
a(S'100000509722145'
S'Kavita Mathur'
tp467
a(S'505322811'
S'Sanjana Sharma'
tp468
a(S'701367715'
S'Shashank Sawant'
tp469
a(S'100001544191949'
S'Archie Malik'
tp470
a(S'1411869387'
S'Sukesh Shah'
tp471
a(S'1702350634'
S'Sarita Devi'
tp472
a(S'1499744120'
S'Viprav Khatri'
tp473
a(S'100001018310701'
S'Rakesh Chandak'
tp474
a(S'702779991'
S'Deepika Mundra Saboo'
tp475
a(S'1093392758'
S'Aajay Soni'
tp476
a(S'1503467009'
S'Sooraj Thapar'
tp477
a(S'100001350093710'
S'Vishal Gor'
tp478
a(S'556496675'
S'Karan Kapoor'
tp479
a(S'1310782212'
S'Nakul Vadher'
tp480
a(S'100001040543875'
S'Sunny Sinha'
tp481
a(S'100001050663644'
S'Hemangini Jhaveri'
tp482
a(S'1350762131'
S'Amit Talwar'
tp483
a(S'100000257208513'
S'Pankaj Mahajan'
tp484
a(S'100000146506925'
S'Avijit Chakrovorty'
tp485
a(S'100000973874284'
S'Sumati Iyengar'
tp486
a(S'100000245728470'
S'Shourya Nidhi'
tp487
a(S'1360650097'
S'Hussain Bandukwala'
tp488
a(S'1407777596'
S'Vineet Wason'
tp489
a(S'100000029442672'
S'Sankalp Gulati'
tp490
a(S'546933755'
S'Jinesh Doshi'
tp491
a(S'615830059'
S'Manesh Khullar'
tp492
a(S'1175690064'
S'Shuchi Chopra'
tp493
a(S'100000876155230'
S'Madhavv C Deochakke'
tp494
a(S'1285584745'
S'Chirag Thakkar'
tp495
a(S'731908815'
S'Mehul Mangilal Mehta'
tp496
a(S'100001209564183'
S'Chronicle Ias'
tp497
a(S'100001086661979'
S'Rajinder Pushkarna'
tp498
a(S'1175600825'
S'Khyati Shah'
tp499
a(S'100000584408887'
S'Raju Vaid'
tp500
a(S'100000816251286'
S'Ashok Kumar'
tp501
a(S'1561765873'
S'Madhu Sawhney'
tp502
a(S'100000878104153'
S'Dinesh Dada'
tp503
a(S'100001082089909'
S'Varindavan Poshak Shingar'
tp504
a(S'100000412863335'
S'Harsh Tyagi'
tp505
a(S'569197992'
S'Sizzle Up'
tp506
a(S'732859531'
S'Prem Jhangiani'
tp507
a(S'1084417407'
S'Dinesh Sharma'
tp508
a(S'1381416385'
S'Uday Pratap Singh'
tp509
a(S'767895276'
S'Rushabh J Patel'
tp510
a(S'583202418'
S'Shilpa Jadhav'
tp511
a(S'100000514773820'
S'Debamita Nag'
tp512
a(S'1521202331'
S'Ulhas Shinde'
tp513
a(S'100000459526471'
S'Madhuchhanda Bhowmik'
tp514
a(S'100000290072394'
S'Niharika Anand'
tp515
a(S'728946953'
S'Pinakin Padia'
tp516
a(S'1558601342'
S'\\u010e\\u0155 Darshil'
tp517
a(S'1388022003'
S'Param Grewal'
tp518
a(S'600659182'
S'Jitender Pawar'
tp519
a(S'100000603441281'
S'Mukund Negandhi'
tp520
a(S'100000029010042'
S'Amit Sarkar'
tp521
a(S'500042777'
S'Mayur Shah'
tp522
a(S'592377066'
S'Rajen Anant Doshi'
tp523
a(S'1031023272'
S'Maria Irshad'
tp524
a(S'1562024202'
S'Aditya Srivastava'
tp525
a(S'100000589022288'
S'Deevya Jivani'
tp526
a(S'100000762602780'
S'Musafir Kanchwala'
tp527
a(S'596161517'
S'Randeep Hooda'
tp528
a(S'100000516978447'
S'Hetal Shah'
tp529
a(S'1038593887'
S'Milaan Parmar'
tp530
a(S'100001329254685'
S'Vishal Manyal'
tp531
a(S'100000062232455'
S'Zunaid Bux'
tp532
a(S'768716411'
S'Renjith Nair'
tp533
a(S'100000462664231'
S'Jassy Paul'
tp534
a(S'670901419'
S'Lokiish Todi'
tp535
a(S'100000385302667'
S'Isudan Gadhvi'
tp536
a(S'766604368'
S'Anushree Tandale'
tp537
a(S'678097021'
S'Mohit Tandon'
tp538
a(S'100000538992574'
S'Harish Gajjar'
tp539
a(S'500056647'
S'Ashish Kaila'
tp540
a(S'539392166'
S'Varun Chaturvedi'
tp541
a(S'538758408'
S'Bob Brahmbhatt'
tp542
a(S'656464809'
S'Hardik Raval'
tp543
a(S'626591741'
S'Mustafa E Harnesswala'
tp544
a(S'100001356190415'
S'Ved Prakash Ved'
tp545
a(S'1781034788'
S'Thakkar Prashant'
tp546
a(S'1028602926'
S'Directory Bollywoo D'
tp547
a(S'785824514'
S'Utpal Nath'
tp548
a(S'100001285543313'
S'Raj Rajput'
tp549
a(S'581643220'
S'Vipul Shah'
tp550
a(S'100000145367556'
S'Rima Kotecha'
tp551
a(S'1125668667'
S'Paritosh D Pandya'
tp552
a(S'100000270071389'
S'Pro-mod Singh'
tp553
a(S'752233914'
S'Maushmi Udeshi'
tp554
a(S'574964533'
S'ViShal TriPathi'
tp555
a(S'100000331340079'
S'Vijay Shah'
tp556
a(S'810585485'
S'Vineet Malhotra'
tp557
a(S'100000208597201'
S'Raghbir Singh'
tp558
a(S'828313606'
S'Rahul Bhasin'
tp559
a(S'1169374201'
S'Samarth Chaturvedi'
tp560
a(S'100000262072898'
S'Mukul Anand'
tp561
a(S'772943604'
S'Kunickaa Sadanand'
tp562
a(S'1214949493'
S'Navin Batra'
tp563
a(S'732843643'
S'Rahul Datta'
tp564
a(S'100001540701285'
S'Reena Roy'
tp565
a(S'1340569284'
S'Vivek Sharma'
tp566
a(S'100000095967404'
S'Qtp India'
tp567
a(S'595265590'
S'Odie Khan'
tp568
a(S'100000579895441'
S'Ashutosh Bora'
tp569
a(S'548804691'
S'Om Rathore'
tp570
a(S'100001485284601'
S'Mir Mosharaf Hossain'
tp571
a(S'100001175796509'
S'Kaajal Puri'
tp572
a(S'1651201214'
S'Monish Nagpal'
tp573
a(S'100000727548912'
S'Karan Rajput'
tp574
a(S'100000190339152'
S'Anjanaa Virmani'
tp575
a(S'787174325'
S'Nikhil Rasiklal'
tp576
a(S'641106064'
S'Rahul Nagpal'
tp577
a(S'556755576'
S'Roshan Panjabi'
tp578
a(S'1815570773'
S'Deepti Mayuri Sabah'
tp579
a(S'1197497291'
S'Mohammed Owais Batliwala'
tp580
a(S'1092578525'
S'Pradeep Awasthi'
tp581
a(S'100000134195112'
S'Jags Trading'
tp582
a(S'1523915680'
S'Eliza Dey'
tp583
a(S'1511027266'
S'Rahil Khan'
tp584
a(S'1828560873'
S'Farman Sayyed'
tp585
a(S'1144094028'
S'Yajur Gupta'
tp586
a(S'1052426379'
S'Gopal Pathak'
tp587
a(S'1035546917'
S'Charan Jeet Singh Heera'
tp588
a(S'100000466893884'
S'Irindeep Singh Bhatia'
tp589
a(S'590697974'
S'Deepak Upadhyay'
tp590
a(S'100000830690586'
S'Larissa Totskaya'
tp591
a(S'1289855207'
S'Goldy Brar'
tp592
a(S'100001355665005'
S'Nikhil Gupta'
tp593
a(S'100001281035013'
S'Dheeraj Celebrity-manager'
tp594
a(S'795188075'
S'Jeet Thakur'
tp595
a(S'714434552'
S'Goldie Kohli'
tp596
a(S'100000825853993'
S'Dina Das'
tp597
a(S'100001182406752'
S'Shamim Sayeed'
tp598
a(S'744907354'
S'Tracy Dsouza'
tp599
a(S'529864476'
S'Ramanna Madhawan'
tp600
a(S'1491746139'
S'Gopikanta Ghosh'
tp601
a(S'549531662'
S'Pankaj Sinha'
tp602
a(S'100001271805972'
S'Vishu Vaishali'
tp603
a(S'714785326'
S'Syed Mairaj Ahmad'
tp604
a(S'100000204651239'
S'Intezaar Rizvi'
tp605
a(S'1178552803'
S'Narender Negi'
tp606
a(S'621143623'
S'Shiv Dhawan'
tp607
a(S'100001368005760'
S'Ankita Todaria'
tp608
a(S'853105572'
S'Anirudh Madan'
tp609
a(S'561051253'
S'Sumit Mehrra'
tp610
a(S'100000200804712'
S'Wasi\\u00e8 Jeelani'
tp611
a(S'100000903665686'
S'Jigar Sonawala'
tp612
a(S'100001379285807'
S'Ghanshyam Doyal'
tp613
a(S'100000939646726'
S'Danish Khan'
tp614
a(S'628690303'
S'Satya Is'
tp615
a(S'1108503692'
S'Deepa Billorey'
tp616
a(S'1212723597'
S'Sanjana Jon'
tp617
a(S'100000131786665'
S'Sudhanshu Vyas'
tp618
a(S'1025534886'
S'Iqbal Azad'
tp619
a(S'100000476660261'
S'Ayt Khan'
tp620
a(S'704490187'
S'Sahil Sodhi'
tp621
a(S'651688711'
S'Jyoti Bassi'
tp622
a(S'1472354202'
S'Pooja Saxena'
tp623
a(S'100000460297952'
S'Khurafati Nitin'
tp624
a(S'1130408128'
S'Vipul Bonde'
tp625
a(S'1464117942'
S'Reetu Bhalla'
tp626
a(S'1800406511'
S'Mithlesh Kumar'
tp627
a(S'1515048971'
S'Pind Da Munda'
tp628
a(S'771940756'
S'Sachin Sanghvi'
tp629
a(S'100000761101512'
S'Arshad Ansari'
tp630
a(S'1663650834'
S'Praveen Raj Singh'
tp631
a(S'1411111063'
S'Sumit Patil'
tp632
a(S'1546307063'
S'Kareena Mankani'
tp633
a(S'1354046629'
S'Nanni Singh'
tp634
a(S'711005731'
S'Amit Lohiya'
tp635
a(S'1657516082'
S'Sharma Sharma'
tp636
a(S'672559262'
S'Hardik Dedhia'
tp637
a(S'1328625870'
S'Naveen Kamboj'
tp638
a(S'100000396163575'
S'Ishank Pahwa'
tp639
a(S'100001134781870'
S'B Lite At Aastha'
tp640
a(S'100000090752395'
S'Sreya Basu'
tp641
a(S'100000096375140'
S'Pd Hifi'
tp642
a(S'689106615'
S'Sanjay Goradia'
tp643
a(S'664174580'
S'Ankur Vora'
tp644
a(S'817570690'
S'Soumyadipta Banerjee'
tp645
a(S'100000051014305'
S'Monica Sharma'
tp646
a(S'521067810'
S'Sarb Gill Shahkoti'
tp647
a(S'1115906609'
S'Sanjeev Mehra'
tp648
a(S'1491477410'
S'Dhaval Dave'
tp649
a(S'100000226284953'
S'Anil Nagrath'
tp650
a(S'1822036396'
S'Ekta Kapoor'
tp651
a(S'100000218226949'
S'Vedika Raay'
tp652
a(S'100000036724540'
S'Jay Motwani'
tp653
a(S'1368910975'
S'Priyanka Sharma'
tp654
a(S'749130519'
S'Himanshu Jh'
tp655
a(S'100000155481352'
S'Jaswant Kaur'
tp656
a(S'1479837407'
S'Bunty M. Desai'
tp657
a(S'556086922'
S'Hanif Patni'
tp658
a(S'1613051487'
S'Renuka Sharma'
tp659
a(S'100001645056280'
S'Sunny Reddy'
tp660
a(S'1713251914'
S'Vishal Om Prakash'
tp661
a(S'100000173080509'
S'Chandan Kachhawa'
tp662
a(S'652327132'
S'K Himaanshu Shukla'
tp663
a(S'1358505618'
S'Javed Sameer'
tp664
a(S'1067226938'
S'Bharadwaj Advika'
tp665
a(S'1714206966'
S'Manish Bhandari'
tp666
a(S'721815037'
S'Rina Jain'
tp667
a(S'100000497005099'
S'Kalpesh Chhadwa'
tp668
a(S'100000285387996'
S'Keyur Asarawala'
tp669
a(S'1282864425'
S'Sadiya Khan'
tp670
a(S'100001215141605'
S'Haresh Mistry'
tp671
a(S'728392516'
S'Sumit Singh Malik'
tp672
a(S'876395152'
S'Raviprakash Singh'
tp673
a(S'1281225473'
S'Rahul Nisar'
tp674
a(S'100001162574169'
S'Khalid Hashmi'
tp675
a(S'513102140'
S'Manan Pancholi'
tp676
a(S'1602667002'
S'Deepti Chadha'
tp677
a(S'1820824675'
S'Tushar Deshpande'
tp678
a(S'1254410728'
S'Vijay Kumar Santuka'
tp679
a(S'624660342'
S'Sandeep Agrawal'
tp680
a(S'514089106'
S'Zeshan Sheikh'
tp681
a(S'1583046806'
S'Jatin Sarna'
tp682
a(S'1372267133'
S'Nishant Navin'
tp683
a(S'100000114832938'
S'Harleen Kohli Singer'
tp684
a(S'632344195'
S'Samir Arora'
tp685
a(S'780103791'
S'Tania Gupta'
tp686
a(S'1039215497'
S'Akruti S Chavhaan'
tp687
a(S'100000295036640'
S'Dhruvkamal Karelia'
tp688
a(S'722279175'
S'Mukesh Mallick'
tp689
a(S'100000621261573'
S'Parth Upadhyay'
tp690
a(S'100001252024097'
S'Jigna Thakkar'
tp691
a(S'761416208'
S'Chands Bruce Patel'
tp692
a(S'1258104301'
S'Mukund Negandhi'
tp693
a(S'551297576'
S'Prakash Sp'
tp694
a(S'100000531212956'
S'Satrangi Capital'
tp695
a(S'100001065706409'
S'Monick Patel'
tp696
a(S'100000524750212'
S'Vikas Ramkumar Aggarwal'
tp697
a(S'100000439762396'
S'Jaysen Gosai'
tp698
a(S'100000457946563'
S'Vilas Pandit'
tp699
a(S'1077342827'
S'\\u0926\\u093f\\u0928\\u0947\\u0936 \\u091a\\u094c\\u0939\\u093e\\u0928 \\u0905\\u0936\\u094d\\u0915'
tp700
a(S'1069129024'
S'Abhishek Aggarwal'
tp701
a(S'100000647651861'
S'Vinod Acharya'
tp702
a(S'1417314596'
S'Alark Desai'
tp703
a(S'100000096857735'
S'Chander Kripalani'
tp704
a(S'100000463350965'
S'Nitin Vora'
tp705
a(S'715481148'
S'Umar Raza Khan'
tp706
a(S'1584276762'
S'Sannjay Singh'
tp707
a(S'1034989932'
S'Zafar Irshad'
tp708
a(S'625637141'
S'Robbie Singh Sandhu'
tp709
a(S'1463290908'
S'Noman Kibria'
tp710
a(S'100000634380452'
S'DrArun G. Desai'
tp711
a(S'1061195246'
S'Punit Parwal'
tp712
a(S'100000700617614'
S'Rajneesh Parihar'
tp713
a(S'100000503374243'
S'Meghraj Bhati'
tp714
a(S'740223721'
S'Kingshuk  Das Gupta'
tp715
a(S'1849943339'
S'Gurmukh Rana'
tp716
a(S'1545552605'
S'Ketu Shah'
tp717
a(S'100000255667426'
S'Moumita Dey Choudhury'
tp718
a(S'1541142828'
S'Allen Patel'
tp719
a(S'728601209'
S'Shweta Bangaloree'
tp720
a(S'1211302840'
S'Manmeet Singh'
tp721
a(S'100000530287382'
S'Gulrez Siddiqui'
tp722
a(S'100001199150956'
S'Kevi Rwt'
tp723
a(S'100000071788377'
S'Cadet J Surya'
tp724
a(S'100000591995559'
S'Tina Shah'
tp725
a(S'670310580'
S'Rushad Rana'
tp726
a(S'1001997677'
S'Abhinav Upadhyay'
tp727
a(S'1000389865'
S'Paresh Doshi'
tp728
a(S'100000546773140'
S'Pratap Sachdeo'
tp729
a(S'731048374'
S'Sanjay Punjabi'
tp730
a(S'100000247509962'
S'Sameer Chandan'
tp731
a(S'1042883211'
S'Seema Rawal'
tp732
a(S'1297833272'
S'Ankita Mani Tripathi'
tp733
a(S'100000623979685'
S'Praleta Mukherjee'
tp734
a(S'100000496323160'
S'Bobby Sheikh Filmmaker'
tp735
a(S'100000213296057'
S'Hemant Brahmbhatt'
tp736
a(S'1839313021'
S'Jitendra Patel'
tp737
a(S'100000881511677'
S'Piash Istiaq'
tp738
a(S'100000915943734'
S'Ashok Agrawal'
tp739
a(S'100000706775057'
S'Touching Lives Being You'
tp740
a(S'100001063072766'
S'Satnam Kaur Thind'
tp741
a(S'659226169'
S'Saad Raza Khan'
tp742
a(S'617567989'
S'Nazish Rahman'
tp743
a(S'1095520663'
S'Sanjay Vaswani'
tp744
a(S'1207176375'
S'Sandeep Anand'
tp745
a(S'1663710649'
S'Shantanu M Anand'
tp746
a(S'1274088669'
S'Sable Ralowal'
tp747
a(S'1074018317'
S'Tarachand Wanvari'
tp748
a(S'1481059461'
S'Hitesh Kaneria'
tp749
a(S'100001051571159'
S'Rakesh Sankhala'
tp750
a(S'1185931525'
S'Sanjay Sharma Baba'
tp751
a(S'519003406'
S"Arshad G Moh'd"
tp752
a(S'1404011609'
S'Mutal Rahim'
tp753
a(S'100000092881222'
S'Harry Sidhu'
tp754
a(S'1409874998'
S'Devendra Panchal'
tp755
a(S'702708234'
S'Gagan Bhardwaj'
tp756
a(S'550842191'
S'Jyotiee Balani'
tp757
a(S'1207490014'
S'Imtiaz Rokadia'
tp758
a(S'1596210978'
S'Sanjay Amar'
tp759
a(S'1196380609'
S'Meghna Walia'
tp760
a(S'1273172724'
S'Hitesh Bhatt'
tp761
a(S'753146564'
S'Vikas Bhujbal'
tp762
a(S'814245233'
S'Tushar Narwani'
tp763
a(S'100000044421994'
S'Rahul Raj'
tp764
a(S'1498170824'
S'Gurpreet Singh Rajpal'
tp765
a(S'786335194'
S'Ajay Vadhvani'
tp766
a(S'100001042248139'
S'Sushant Kadam'
tp767
a(S'100000693327650'
S'Aaliya Kashyap'
tp768
a(S'643514767'
S'Rajesh S Naidu'
tp769
a(S'1301089315'
S'Jyotishi Abhiruchi'
tp770
a(S'1608678797'
S'Megha Sriram'
tp771
a(S'100000688753607'
S'Kishor Bhanushali'
tp772
a(S'683724332'
S'Dharmista Duggal Handa'
tp773
a(S'1450494631'
S'Tripathy Kush'
tp774
a(S'631372654'
S'Tanushri Kaul'
tp775
a(S'785242455'
S'Divyabh Aryan'
tp776
a(S'100001234117876'
S'Manish Kumar'
tp777
a(S'100001513361064'
S'Murali Visvanathan'
tp778
a(S'1039336156'
S'Mickey Sharma'
tp779
a(S'100000459308301'
S'Uday Dahia'
tp780
a(S'1553478513'
S'Vaibhav Rawte'
tp781
a(S'570228518'
S'Arsh JaiKrishan'
tp782
a(S'100000689535303'
S'Alpesh Dhakan'
tp783
a(S'100000293880147'
S'Abhishek Raj'
tp784
a(S'1140998362'
S'Ankit Singh Gehlot'
tp785
a(S'759773981'
S'MOhit Lalwani'
tp786
a(S'1713386143'
S'Sam Alphons Gill'
tp787
a(S'549232507'
S'Rita Chhachhi'
tp788
a(S'100000570245307'
S'Ranjit Singh Bains'
tp789
a(S'678871965'
S'Sanjeev Singh Pal'
tp790
a(S'745434889'
S'Hardik Shah'
tp791
a(S'100000553795996'
S'Shashi B. Sudan'
tp792
a(S'588067322'
S'Akshath Shetty'
tp793
a(S'100000028824098'
S'Amit Sharma'
tp794
a(S'782743372'
S'Supriya Vani'
tp795
a(S'1553247692'
S'Kawal Wadhwa'
tp796
a(S'100000376130548'
S'Neeraj Nigam'
tp797
a(S'100001529479233'
S'Pawan Kumar Video-Editor'
tp798
a(S'722568015'
S'Kamal Pruthi Arora'
tp799
a(S'1548347938'
S'Priyansh Rajda'
tp800
a(S'817699720'
S'Dharmesh K Lakhani'
tp801
a(S'1410503814'
S'Sanjay B Jain'
tp802
a(S'550917536'
S'Dilpreet Sethi'
tp803
a(S'1089870529'
S'Pankaj Rungta'
tp804
a(S'100001510124151'
S'Eshwar Padia'
tp805
a(S'1622225581'
S'Pankaj Madaan'
tp806
a(S'100000477550689'
S'Harsha Rajwani Dookayka'
tp807
a(S'529569467'
S'Himanshu Tandon'
tp808
a(S'100000015041037'
S'Jogendra Chaudhary'
tp809
a(S'664036484'
p810
S'Sajid Anwer'
tp811
a(S'773399338'
S'Nikhil Soni'
tp812
a(S'1553821647'
S'Divya Pal'
tp813
a(S'100000065134674'
S'Rajyanna Mukherjee'
tp814
a(S'1208866257'
S'Raminder Malik'
tp815
a(S'642983548'
S'Ranjana Bhardwaj'
tp816
a(S'609804248'
S'Ashish Verma'
tp817
a(S'1545021445'
S'Morris Lazarus'
tp818
a(S'100000456783390'
S'Joydeep Chowdhury'
tp819
a(S'715956110'
S'Sukesh Mandlik'
tp820
a(S'529050399'
S'Rohit Raikwar'
tp821
a(S'100000495181101'
S'Arya Gupta'
tp822
a(S'1302823404'
S'Ramesh Shah'
tp823
a(S'731178593'
S'Sangita Sanjay Modi'
tp824
a(S'1711824970'
S'DrSumangal Arora'
tp825
a(S'100000769623486'
S'Charu Sharma'
tp826
a(S'1249947780'
S'Ubaid Atique'
tp827
a(S'1822897323'
S'Vishram Vekaria'
tp828
a(S'648046042'
S'Naman M Bhutra'
tp829
a(S'100000397665498'
S'Deepak Pandit Astrologer'
tp830
a(S'1563638982'
S'Sana Shaikh'
tp831
a(S'803299570'
S'Raj Singh'
tp832
a(S'1116627031'
S'Apurv Sharma'
tp833
a(S'100001286940259'
S'Jignesh Nanda'
tp834
a(S'1809456059'
S'Sanjeev Sharma'
tp835
a(S'610059530'
S'Devanand Nair'
tp836
a(S'100000819823237'
S'Karmic Filmz'
tp837
a(S'100000716514656'
S'Vikrant Sharma'
tp838
a(S'1372080027'
S'Jacob Kurian'
tp839
a(S'1307582683'
S'Ketan Thakker'
tp840
a(S'100000701087123'
S'Shaiju Mathew'
tp841
a(S'100000526707150'
S'Lakhbir Kaur'
tp842
a(S'1268901631'
S'Shaiju Mathew'
tp843
a(S'100000897724533'
S'Brijesh Kumar'
tp844
a(S'1469033816'
S'Syed Idrees Bukhari'
tp845
a(S'1027362784'
S'Jaideep Tambe'
tp846
a(S'100000446378393'
S'Paurav Kamdar'
tp847
a(S'1727606093'
S'Prashant Dassani'
tp848
a(S'664415438'
S'Piyush Bhageria'
tp849
a(S'100001258844389'
S'Srijit Roy'
tp850
a(S'100000797897968'
p851
S'Kuldeep Singh'
tp852
a(S'1097601379'
S'Jyoti Bhatia Gupta'
tp853
a(S'100001016136554'
S'Payal Patel'
tp854
a(S'100000150127318'
S'Harish Rao'
tp855
a(S'100000013791126'
S'Anu Dudeja'
tp856
a(S'1411177284'
S'CA Tejas Andharia'
tp857
a(S'100000281902793'
S'Mayank Mehta'
tp858
a(S'100000179314788'
S'Tarun Ghosh'
tp859
a(S'1522667753'
S'Harmeet Kaur'
tp860
a(S'100000251800860'
S'Vishal Kumar'
tp861
a(S'100000971864106'
S'Vishal Dutt'
tp862
a(S'638975844'
S'Satish Kaushik'
tp863
a(S'568363014'
S'Rohin Khoshu'
tp864
a(S'1590413823'
S'Sylvester Rodrigues'
tp865
a(S'1811515931'
S'Parvez Mohamed Khatri'
tp866
a(S'729294284'
S'Indraneel Gupta'
tp867
a(S'1319079080'
S'Meenakshi Sharma'
tp868
a(S'673601046'
S'Sumit Grover'
tp869
a(S'1367543404'
S'Avinash Bhondwe'
tp870
a(S'664203033'
S'Nirav Vachhani'
tp871
a(S'579126275'
S'Taiseer Mohammed'
tp872
a(S'100001050393617'
S'Maann Singh Deep'
tp873
a(S'722090491'
S'Paridhi Singh'
tp874
a(S'585233074'
S'Girish Wankhede'
tp875
a(S'1215316502'
S'Alok Tiwary'
tp876
a(S'1588053072'
S'Shamaas Nawab Siddiqui'
tp877
a(S'100000504175586'
S'Mahesh Khandelwal'
tp878
a(S'100000713590518'
S'Raj Sharma'
tp879
a(S'100001240033848'
S'Vijay Jhaveri'
tp880
a(S'100000973716771'
S'Dipen Kankal'
tp881
a(S'100000203222130'
S'Dileep Kessani'
tp882
a(S'100000797807830'
S'Rtn Soumesh Pati'
tp883
a(S'533017585'
S'Ameya Aurangabadkar'
tp884
a(S'634351559'
S'Simii Chatarjee Anushka'
tp885
a(S'1709218275'
S'Ulfa Adiladia'
tp886
a(S'100000867893820'
S'Kirit Patel'
tp887
a(S'534231021'
S'Ekjute Mumbai'
tp888
a(S'100001395391724'
S'Surveen Chawla'
tp889
a(S'636371033'
S'Sanjay Chhel'
tp890
a(S'1802506709'
S'Pravesh Sunker'
tp891
a(S'544355711'
S'Amit Das'
tp892
a(S'1578613652'
S'Amatya Goradia'
tp893
a(S'575933263'
S'Sanjay S Ingle'
tp894
a(S'767373139'
S'Alps Thakkar'
tp895
a(S'779528932'
S'Dheeraj Dixit'
tp896
a(S'553266200'
S'Vandana Brahmbhatt'
tp897
a(S'522708132'
S'Virat Bhavsar'
tp898
a(S'681554060'
S'Ajay Chandhok'
tp899
a(S'1273880409'
S'Ankita Purohit'
tp900
a(S'100000273926020'
S'Saurabh Jaiswal'
tp901
a(S'100001130587425'
S'Dorothy Vincent'
tp902
a(S'1276661525'
S'Manit Kaur Anand'
tp903
a(S'724600933'
S'Ketan Lagoo'
tp904
a(S'100000088946205'
S'Aman Sharma'
tp905
a(S'799528503'
S'Rajiv Upadhyay'
tp906
a(S'1691359723'
S'Ravi Kumar'
tp907
a(S'689466861'
S'Rima Melwani'
tp908
a(S'10504998'
S'Manan Patel'
tp909
a(S'572366869'
S'Rony Elavia'
tp910
a(S'100000353926153'
S'Vaibhav Suhane'
tp911
a(S'1230134170'
S'Mukesh Hariawala'
tp912
a(S'1043534360'
S'Saumya Joshi Raval'
tp913
a(S'100000092225626'
S'Sanchit Jain'
tp914
a(S'100000693120017'
S'Suhass Ramesh Jadhav'
tp915
a(S'1516885170'
S'Vinod Harisingani'
tp916
a(S'100000995040925'
S'Nisha Rajput'
tp917
a(S'100001193084143'
S'Tiku Talsania'
tp918
a(S'631364587'
S'Naresh Astrologer'
tp919
a(S'1259761883'
S'Mera Tanjin'
tp920
a(S'100000985167029'
S'Keyur Solanki'
tp921
a(S'1557919265'
S'Ranjeet Karnal'
tp922
a(S'570993505'
S'Darshan V. Jariwalla'
tp923
a(S'100001092737712'
S'Aradhana Bedi'
tp924
a(S'1133574979'
S'Saahil Raj Garg'
tp925
a(S'1408806264'
S'Priyanka Dubey Arun'
tp926
a(S'1159234303'
S'Naishadh Purani'
tp927
a(S'761360423'
S'Saurabh Singh'
tp928
a(S'1330897831'
S'Dushyant Rana'
tp929
a(S'100000139771014'
S'Ricky Riks'
tp930
a(S'1005865704'
S'Vinay Malu'
tp931
a(S'100000343087083'
S'Sangeeta Patel'
tp932
a(S'589664953'
S'Naresh Kadian'
tp933
a(S'100000685976173'
S'Mahipal Chande'
tp934
a(S'694739584'
S'Tahera Syed'
tp935
a(S'679003028'
S'Robin Gupta'
tp936
a(S'561840672'
S'Neena Dhanak'
tp937
a(S'537318792'
S'Anant Rai'
tp938
a(S'590721231'
S'Bunty Walia'
tp939
a(S'692763350'
S'Bharat Kamuvani'
tp940
a(S'1132044612'
S'Gurmmit Gulati'
tp941
a(S'544941205'
S'Panchali Chakraverty'
tp942
a(S'694830694'
S'Gaurav Soni'
tp943
a(S'1272098657'
S'Rahul Daksh'
tp944
a(S'100000070154781'
S'Loving Sanjana'
tp945
a(S'1406720848'
S'Madhu Jha'
tp946
a(S'1820525327'
S'Prashant Mittal'
tp947
a(S'100000739345876'
S'PaYal GuPta'
tp948
a(S'100001168180029'
S'Jeetu Samrat'
tp949
a(S'1028318790'
S'Sarita Chadha'
tp950
a(S'1098841291'
S'Parikshitt Sai'
tp951
a(S'100000959757368'
S'Vijaysinh Padhiyar'
tp952
a(S'100001032307446'
S'Sangeet Shukla'
tp953
a(S'100000058698350'
S'Naimish Kapadia'
tp954
a(S'638807194'
S'Dhiraj Khambra'
tp955
a(S'100000476748205'
S'Ayub Khan'
tp956
a(S'100000136651689'
S'Jyoti Rajput'
tp957
a(S'1598692558'
S'Vishal Sampat'
tp958
a(S'1397838841'
S'Robin Gomes'
tp959
a(S'100001291251320'
S'Amanda Sodhi'
tp960
a(S'100001000252441'
S'Sameer Sagar'
tp961
a(S'731280251'
S'Fahad Fahim Siddiqui'
tp962
a(S'100000748483232'
S'Ruchi Sawant'
tp963
a(S'569997938'
S'Inder Gill'
tp964
a(S'1531104322'
S'Kalpana Chandrakant Mane'
tp965
a(S'675848898'
S'RaHul SriVastava'
tp966
a(S'1730430686'
S'Manish Ahuja'
tp967
a(S'606093770'
S'Devesh Sharma'
tp968
a(S'1593980639'
S'Dhiraj Pagarani'
tp969
a(S'100000461726715'
S'Ekktaa Bpsingh'
tp970
a(S'1560522791'
S'Chandan Prasad'
tp971
a(S'579384872'
S'Sounak Mukhopadhyay'
tp972
a(S'525138608'
S'Natkhat Rajesh'
tp973
a(S'783294010'
S'Vibhoo Mehra'
tp974
a(S'100000886071319'
S'Abhhijeet Rane'
tp975
a(S'546506878'
S'Krizma Kumar'
tp976
a(S'695296509'
S'Prasoon Vyas'
tp977
a(S'100001195126353'
S'Dilshad Panday'
tp978
a(S'1522274219'
S'Piki Samtani'
tp979
a(S'579950011'
S'Ashish Dharia'
tp980
a(S'533240810'
S'Girijesh Kumar'
tp981
a(S'1112227783'
S'Tushar Prem Borkar'
tp982
a(S'100001366386247'
S'Shilpz Aurora'
tp983
a(S'729292314'
S'Anil Kumar Jeengar'
tp984
a(S'100001283371394'
p985
S'Rang Vidushak'
tp986
a(S'1726285170'
S'Rajeev Bajwa'
tp987
a(S'573241418'
S'Puneet Sira'
tp988
a(S'713677319'
S'Vipul Raj'
tp989
a(S'100000019991773'
S'Shalini Tandan'
tp990
a(S'1323900237'
S'Umesh Chandra Gaur'
tp991
a(S'1816187281'
S'Bhaskar Rao'
tp992
a(S'100000442184064'
S'Devang Sampat'
tp993
a(S'100001108822493'
S'Jai Mehta'
tp994
a(S'100000026688589'
S'Deepak Yadav'
tp995
a(S'526021042'
S'Kartikey Karoth'
tp996
a(S'100000339017169'
S'Tarsem Antil'
tp997
a(S'1008249411'
S'Sandeep Kulshrestha'
tp998
a(S'704320803'
S'Jeegar Shah'
tp999
a(S'1690842178'
S'Ankurita Guleria'
tp1000
a(S'824865516'
S'Yatin Sangoi'
tp1001
a(S'1789879515'
S'Febah Martin'
tp1002
a(S'100000994338294'
S'Bhavesh J. Shah'
tp1003
a(S'1263793458'
S'Darshana Bhave'
tp1004
a(S'100000848590799'
S'Ashutosh Sharma'
tp1005
a(S'1623081208'
S'Haider Husain'
tp1006
a(S'100001364015230'
S'Ravinder Pal Singh Gandhi'
tp1007
a(S'100001055807160'
S'Zakir Husain Suthar'
tp1008
a(S'594721885'
S'Sumeet Kundhiya'
tp1009
a(S'1106356643'
S'Illuminati Mitanshu'
tp1010
a(S'1238643444'
S'Rachna Aubeeluck'
tp1011
a(S'1721851042'
S'Jyotish Bhai Forex'
tp1012
a(S'100000027425792'
S'Tina Vajpai'
tp1013
a(S'500435035'
S'Ju Saahiba'
tp1014
a(S'591020038'
S'Suparn Kalra'
tp1015
a(S'100000387381350'
S'Dhruv Sharma'
tp1016
a(S'100001489143039'
S'Sp S. Dhamija'
tp1017
a(S'100001429105147'
S'Namo Gurjari Namostute'
tp1018
a(S'1507104988'
S'Tanveer Zaidi'
tp1019
a(S'100000193097193'
S'Adish Jain'
tp1020
a(S'623125173'
S'Irfan Karimi'
tp1021
a(S'100000636720421'
S'Ravindra Singh'
tp1022
a(S'1037707679'
S'Sarosh Patel'
tp1023
a(S'613825185'
S'Taher Cutleriwala'
tp1024
a(S'100000616291288'
S'Inderjeet Bedi'
tp1025
a(S'1835343519'
S'Gautam Mantravadi'
tp1026
a(S'100000953544395'
S'\\u0938\\u094d\\u0935\\u092a\\u094d\\u0928\\u0940\\u0932 \\u0930\\u093e\\u0938\\u094d\\u0924\\u0947'
tp1027
a(S'100000890910618'
S'Prabhat Haruray'
tp1028
a(S'100000550484744'
S'Swapneil Tiwari'
tp1029
a(S'826074687'
p1030
S'Jagdish Italiya'
tp1031
a(S'100001001432325'
S'AdBoys Themusicdon'
tp1032
a(S'1239547282'
S'Meera Goswami'
tp1033
a(S'100000722023948'
S'Bhavesh Bhanushali'
tp1034
a(S'100000558241777'
S'Deepak Thakur'
tp1035
a(S'1079354369'
S'Dhruv Khurana'
tp1036
a(S'667221134'
S'Madhuri Pithadiya'
tp1037
a(S'100000038539621'
S'Dev Joshi'
tp1038
a(S'100000822906662'
S'Sufiyan Khan Animator'
tp1039
a(S'1667280275'
S'Bharat Jain'
tp1040
a(S'569949166'
S'Sameer Inamdar'
tp1041
a(S'100000082701286'
S'Manpreet Kapoor'
tp1042
a(S'581607517'
S'Avadh Amin'
tp1043
a(S'657542555'
S'Anshul Chawla'
tp1044
a(S'622896582'
S'Homi Wadia'
tp1045
a(S'658205825'
S'Mansi Majeji Sharma'
tp1046
a(S'100001154137819'
S'Nabil Baig'
tp1047
a(S'629112984'
S'Ashish Bahl'
tp1048
a(S'544960519'
S'Rishi Bhuchar'
tp1049
a(S'100000655033558'
S'Jigar Makwana'
tp1050
a(S'100000414543393'
S'Saayak Chakraborty'
tp1051
a(S'100000469272260'
S'Lokesh Bagani'
tp1052
a(S'632898810'
S'Piyush Jaiswal'
tp1053
a(S'1250677126'
S'Mayuri Kiran Jhaveri'
tp1054
a(S'685328778'
S'Dharmishtha Dagia'
tp1055
a(S'13755355'
S'Siddharth Sanghi'
tp1056
a(S'100001012355711'
S'Manan Oza'
tp1057
a(S'1395454300'
S'Anil Chipte'
tp1058
a(S'100000698214173'
S'Sanjeev Kumar Tomar'
tp1059
a(S'100000253606956'
S'Ruchika Jain'
tp1060
a(S'100001432343787'
S'Jaypalsinh Zala'
tp1061
a(S'675936681'
S'Shagun Singhal'
tp1062
a(S'1200638589'
S'Vivek Bhatnagar'
tp1063
a(S'684702684'
S'Mayur Dhanawde'
tp1064
a(S'1372434339'
S'Amjad Habibb'
tp1065
a(S'1508605035'
S'Manoj Jain'
tp1066
a(S'100000558283165'
S'Arun Upadhyay'
tp1067
a(S'653284699'
S'Rajesh Parikh'
tp1068
a(S'100000259441411'
S'Jigar Desai'
tp1069
a(S'100000483291104'
S'Filmtonic Entertainement'
tp1070
a(S'685898966'
S'Neeraj Sharma'
tp1071
a(S'1842294813'
S'Kamlesh Dubey'
tp1072
a(S'100000446174079'
S'Prearena Raina'
tp1073
a(S'1768616960'
S'Kunal Sinha'
tp1074
a(S'100000935485340'
S'Himanshu Shah'
tp1075
a(S'1670184940'
S'Jitendra Sharma'
tp1076
a(S'100000556868117'
S'Vijeta Sunda'
tp1077
a(S'696848398'
S'Sumit Tyagi'
tp1078
a(S'516371961'
S'Sangeeta Vishwanath'
tp1079
a(S'100000028159573'
S'Natraaz Kumar'
tp1080
a(S'1540838474'
S'Naavneet Multani'
tp1081
a(S'779755829'
S'Asma Al Shamsi'
tp1082
a(S'100000775275206'
S'Suren Marwaha'
tp1083
a(S'100000502422598'
S'Sayandeep Banerjee'
tp1084
a(S'1797358229'
S'Mahananda Moy Banerji'
tp1085
a(S'504946306'
S'Hozefa Khairulla'
tp1086
a(S'718951921'
S'Nikhat Shaikh'
tp1087
a(S'1005469438'
S'Rahul Mishr'
tp1088
a(S'1022062753'
S'Yashasvi Anand'
tp1089
a(S'100000952339781'
S'Amarpal Singh Sachdeva'
tp1090
a(S'100000929625820'
S'Soumya Mehar'
tp1091
a(S'100001830161445'
S'Nirlep Singh'
tp1092
a(S'1408360942'
S'Sunil Prem Vyas'
tp1093
a(S'100001416826959'
S'Duafilmandmusicco Mumbai'
tp1094
a(S'1301997209'
S'Mayuri Patel'
tp1095
a(S'613122806'
S'Hem Njersy'
tp1096
a(S'100001552164294'
S'Smita Dinesh Kumar'
tp1097
a(S'1325267106'
S'Manuj Nagpal'
tp1098
a(S'1419903634'
S'Gunjan Ashudeep Singh'
tp1099
a(S'100000350690452'
S'Jaineeraj Rajpurohit'
tp1100
a(S'100000329596406'
S'Sanjay Raina'
tp1101
a(S'688083147'
S'Asiff Sheikh'
tp1102
a(S'100001079978881'
S'Tesu Dongre'
tp1103
a(S'1224063215'
S'Jigna Shah'
tp1104
a(S'1811830211'
S'Parth Kumar'
tp1105
a(S'100000624573226'
S'Vijay Shastri'
tp1106
a(S'100000332950691'
S'Syed Abbas Rizvi'
tp1107
a(S'100000646441444'
S'Sunitha Nathan'
tp1108
a(S'722643295'
S'Satindar Singh Bedi'
tp1109
a(S'770812590'
S'Anil Paul'
tp1110
a(S'100000546847880'
S'DrFirdaus Dekhaiya'
tp1111
a(S'100000818126818'
S'Vicky Zingo'
tp1112
a(S'700207174'
S'LifOo Lathyf'
tp1113
a(S'100000159010717'
S'Abhijit Jgd'
tp1114
a(S'1775985548'
S'Hiren Mehta'
tp1115
a(S'1625005056'
S'Sunny Kaur'
tp1116
a(S'1565917030'
S'Tabz Muhammed Iqbal'
tp1117
a(S'1644960074'
S'Saurabh Agarwal'
tp1118
a(S'1851625971'
S'Sunil Udasi'
tp1119
a(S'503674490'
S'Saif Shujaat Haider'
tp1120
a(S'651103968'
S'Prateek Jain'
tp1121
a(S'590210032'
S'Mandar Mehta'
tp1122
a(S'100000257696341'
S'Pratap Shewkani'
tp1123
a(S'1067840438'
S'Manak Chand Baid'
tp1124
a(S'1814015398'
S'Priyanka Shrivastava Sinha'
tp1125
a(S'701986670'
S'Dheeraj Bafna'
tp1126
a(S'100000874848966'
S'Shalabh Khandelwal'
tp1127
a(S'100000834112231'
p1128
S'Babli Srivastava'
tp1129
a(S'686882576'
S'Satyen K. Bordoloi'
tp1130
a(S'544725559'
S'Vinta Nanda'
tp1131
a(S'100000458381788'
S'Ibam Squarpantz Uniquakz'
tp1132
a(S'100000073302326'
S'Chital Manish Gandhi'
tp1133
a(S'1690269834'
S'Hardik Thakker'
tp1134
a(S'574417179'
S'Jehangir Vakil'
tp1135
a(S'100000343012474'
S'Deepak Gode'
tp1136
a(S'1272755652'
S'Kashmeera Dedhia'
tp1137
a(S'1338326063'
S'Ankur Manchanda'
tp1138
a(S'1490502229'
S'Sudhanshu Verma'
tp1139
a(S'1641531737'
S'Naresh Kumar Sharma'
tp1140
a(S'543833928'
S'V Abhishek Khare'
tp1141
a(S'631150061'
S'Pammi Somal'
tp1142
a(S'100000773905907'
S'Pandit Gaurav Gautam'
tp1143
a(S'100000653419862'
S'Kamlesh Patel'
tp1144
a(S'100000749600857'
S'Vijay Shah'
tp1145
a(S'100001289614801'
S'Adesh Kharya'
tp1146
a(S'100000140508233'
S'Nobel Prize'
tp1147
a(S'100000601000757'
S'Amit Sam'
tp1148
a(S'100001147118669'
S'Omey Bhanushali'
tp1149
a(S'651803069'
S'Anil Kumar Anand'
tp1150
a(S'100000869599936'
S'Garg Aman'
tp1151
a(S'1419859087'
S'Piyush Sharda'
tp1152
a(S'675572468'
S'Chaudhary Vineet Kajla'
tp1153
a(S'1129532877'
S'Kulbir Mayall'
tp1154
a(S'100000025310194'
S'Lakshman Shewkani'
tp1155
a(S'1383858474'
S'Meenakshi Vyas'
tp1156
a(S'1264634359'
S'Joydeep Biswas'
tp1157
a(S'1525402530'
S'Bhavesh Garala'
tp1158
a(S'1094836498'
S'Raja Purohitt'
tp1159
a(S'100000599365060'
S'Rupesh Pednekar'
tp1160
a(S'777419600'
S'Sharad Shah'
tp1161
a(S'100000329474964'
S'Mahesh Shanbhag'
tp1162
a(S'1827190234'
S'Dhawal Dhamija'
tp1163
a(S'1102501529'
S'Ajay Deshmukh'
tp1164
a(S'671800924'
S'Sumit Kaul'
tp1165
a(S'559139346'
S'Sonia Sood Mehta'
tp1166
a(S'1183308946'
S'Kamal Jain'
tp1167
a(S'1465353085'
S'Atharvan Dhavala'
tp1168
a(S'100000787446891'
S'Rohit Doshi'
tp1169
a(S'690302857'
S'Sunil Kumar Sirij'
tp1170
a(S'637065664'
S'Rajinder Gupta'
tp1171
a(S'1322839778'
S'Mohit Wadhwa'
tp1172
a(S'1045101643'
S'Sumeet Jhamb'
tp1173
a(S'525322016'
S'Pankaj Prakash'
tp1174
a(S'100000112454640'
S'Raj Srivastava'
tp1175
a(S'100000788317131'
S'Love Tandon'
tp1176
a(S'100000591414976'
S'Sangeeta Saxena'
tp1177
a(S'532535642'
S'Rajesh Joshi'
tp1178
a(S'722591868'
S'Vishal Chaturvedi'
tp1179
a(S'527966823'
S'Sanjeev Pancholi'
tp1180
a(S'1512620928'
S'Anahita Kshirsagar'
tp1181
a(S'1084234066'
S'Jalaj Awasthi'
tp1182
a(S'634937918'
S'Lavina Dhanwaney Ramnani'
tp1183
a(S'100000408190256'
S'Nikita Daharwal'
tp1184
a(S'627965945'
S'Malkit Bharj'
tp1185
a(S'100000596440741'
S'Mihir Thakkar'
tp1186
a(S'1298388958'
S'Sanjeev Khanna'
tp1187
a(S'1201153330'
S'Ameeta Nangia'
tp1188
a(S'100000159428604'
S'Falguni Davda'
tp1189
a(S'1228868015'
S'Minnie Singhal'
tp1190
a(S'734700547'
S'Hiren Govind Shewani'
tp1191
a(S'100000525686269'
S'Jomin Nyokir Kara'
tp1192
a(S'1100756989'
S'Sarika Nanda'
tp1193
a(S'100000007170223'
S'Safal Bhandare'
tp1194
a(S'763754825'
S'Aliasgar Kalolwala'
tp1195
a(S'1649353383'
S'Shivani Gosain'
tp1196
a(S'1710568428'
S'Panchsheel Jain'
tp1197
a(S'655308778'
S'Vivek Rastogi'
tp1198
a(S'1142892665'
S'Nihita Parikh'
tp1199
a(S'707911140'
S'Saumyy Shivhare'
tp1200
a(S'1323567894'
S'Rajesh Goyal'
tp1201
a(S'569397354'
S'Amit Singh'
tp1202
a(S'557622884'
S'Gautam Mukerjea'
tp1203
a(S'585390217'
S'Raymon Kakar'
tp1204
a(S'724955105'
S'Anjum Rizvi'
tp1205
a(S'1011862640'
S'Pradeep Sawant'
tp1206
a(S'571833241'
S'Sangeet C Kaushik'
tp1207
a(S'1275701535'
S'Rani La-Croix'
tp1208
a(S'1502199610'
S'Zia R. Khan'
tp1209
a(S'1815646907'
S'Devanshi Srivastav'
tp1210
a(S'587533261'
S'Rita Mathew Palamattom'
tp1211
a(S'100001294460708'
S'Vinayak Turde'
tp1212
a(S'633425391'
S'Anil Khanna'
tp1213
a(S'788916843'
S'Ananth Mahadevan'
tp1214
a(S'100001591206054'
S'Ssuman Basu'
tp1215
a(S'1288767090'
S'Mahesh Kulkarni'
tp1216
a(S'1005945805'
S'Rajendra Jain'
tp1217
a(S'746817637'
S'Ronak Chokhany'
tp1218
a(S'668792007'
S'Charanpreet Singh'
tp1219
a(S'1274417564'
S'Atish Thakor'
tp1220
a(S'1653040815'
S'Gautam Tandon'
tp1221
a(S'667181359'
S'Saiaastha Grover'
tp1222
a(S'100000287635816'
S'Ketki Joshi'
tp1223
a(S'610931577'
S'Anil Mehta'
tp1224
a(S'100000848465279'
S'Hardik Patel'
tp1225
a(S'100001110434289'
S'Amit Agarwal'
tp1226
a(S'100000561750925'
S'Palash Muchhal'
tp1227
a(S'1349897513'
S'Rehan Shaikh'
tp1228
a(S'1096031529'
S'Rajesh Latkar'
tp1229
a(S'100001047256864'
S'Alisha Gujral'
tp1230
a(S'699672853'
S'Nitten Nair'
tp1231
a(S'100000352546935'
S'Abhishek Kashyap'
tp1232
a(S'1278597255'
S'Manjaree Singh'
tp1233
a(S'680750916'
S'Maneesh Saxena'
tp1234
a(S'100000035547513'
S'Shailesh Panchal'
tp1235
a(S'657225701'
S'Raul Brady'
tp1236
a(S'1847290395'
S'Mayank Rawal'
tp1237
a(S'100000720072576'
S'Rahul Khaire'
tp1238
a(S'100000212460224'
S'Moin Aziz'
tp1239
a(S'100000095992323'
S'Deepti Jain'
tp1240
a(S'1116730234'
S'Kiran Panjabi'
tp1241
a(S'1816965600'
S'Prashant P Pandya'
tp1242
a(S'538477169'
S'Shams W Syed'
tp1243
a(S'1083943302'
S'Amit Chhibber'
tp1244
a(S'750355148'
S'Surinder Bhatia'
tp1245
a(S'1355109613'
S'Zameer H Pathan'
tp1246
a(S'1081243120'
S'Ali Abbasi'
tp1247
a(S'100000197871349'
S'Sushant Jethani'
tp1248
a(S'100000895652503'
S'Arora DrSanjay'
tp1249
a(S'1301094032'
S'Uttam Nayak'
tp1250
a(S'1134781417'
S'Nikhil R. Agrawal'
tp1251
a(S'100000560514747'
S'Leena Uppal Jaggi'
tp1252
a(S'1346507425'
S'Diwaker Deepak'
tp1253
a(S'707758056'
S'Tejas Panchal'
tp1254
a(S'1779328501'
S'Vikas Chaturvedi'
tp1255
a(S'100000215539570'
S'Raaj Khilnani'
tp1256
a(S'544933693'
S'Shweta Ji'
tp1257
a(S'565157365'
S'Sirohi Vivek'
tp1258
a(S'100000239772700'
S'Karan Khobragade'
tp1259
a(S'100000371501068'
S'Khanna Nonu'
tp1260
a(S'100000547475727'
S'Mukund Parmar'
tp1261
a(S'1796983775'
S'Aslam Shaikh'
tp1262
a(S'100000081265022'
S'K Shyam Agerwal'
tp1263
a(S'561651108'
S'Shobhita Thakur'
tp1264
a(S'1556559157'
S'Sunil Vishrani'
tp1265
a(S'552018392'
S'Deepak Preenja'
tp1266
a(S'515053976'
S'Mohammed Reza Fallah'
tp1267
a(S'100001276653678'
S'Prachi Mehra'
tp1268
a(S'665253497'
S'Pankaj Kumar'
tp1269
a(S'100000314497196'
S'Nachiket A. Dave'
tp1270
a(S'1594138166'
S'Siddharth Wable'
tp1271
a(S'100000628425425'
S'Srikant Vippagunta'
tp1272
a(S'100001272541325'
S'Falguni Gohokar'
tp1273
a(S'100000680989778'
S'Kavisha Arora'
tp1274
a(S'1525801867'
S'Ishaan Sheth'
tp1275
a(S'516506973'
S'Girish Mansharamani'
tp1276
a(S'1610327966'
S'Nishant R Vaatsyayan'
tp1277
a(S'1297416877'
S'Tarun Banker'
tp1278
a(S'549701788'
S'Goldie Jain'
tp1279
a(S'672975949'
S'Akshay Anand'
tp1280
a(S'100000743155645'
S'Fayyaz Ahmed Khan Bhati'
tp1281
a(S'100000684068119'
S'Ansh Bhatnagar'
tp1282
a(S'1308657691'
S'Arun Saxena'
tp1283
a(S'100001686369970'
S'Lambe Afroz'
tp1284
a(S'1851954324'
S'Rajiv Dhammi'
tp1285
a(S'1285342989'
S'Lloyd Mascarenhas'
tp1286
a(S'1239064497'
S'Krrishna Aggarwal'
tp1287
a(S'100000082891040'
S'Harish Chander Sansi'
tp1288
a(S'1579157427'
S'Rachna Pakai'
tp1289
a(S'643446789'
S'Urich Kamath'
tp1290
a(S'1557588465'
S'Dhruv JD'
tp1291
a(S'603115861'
S'Neeraj Sood'
tp1292
a(S'1228284980'
S'Surendra Doria'
tp1293
a(S'100000757567234'
S'Pankaj Amita Titoria'
tp1294
a(S'1026307809'
S'Shuvendu Gupta'
tp1295
a(S'816904866'
S'Dhaval Bhatt'
tp1296
a(S'1248925147'
S'Manoj Gandani'
tp1297
a(S'1163816055'
S'Mannat Singh'
tp1298
a(S'592873386'
S'Swapnil Ajgaonkar'
tp1299
a(S'1217320954'
S'Vidhi Parikh'
tp1300
a(S'1445647613'
S'Vinod Rohera'
tp1301
a(S'100001231600571'
S'Katty Oberoi'
tp1302
a(S'677360451'
S'\\u0906\\u0936\\u0940\\u0930\\u094d\\u0935\\u091a\\u0928 \\u0938\\u0902\\u092a\\u093e\\u0926\\u0915'
tp1303
a(S'100000535639054'
S'Rajan Nadaan'
tp1304
a(S'100000344539073'
S'Jaymin Sanghavi'
tp1305
a(S'1380080253'
S'Vina Rahim Igirisa'
tp1306
a(S'1032019588'
S'Shreya Jain'
tp1307
a(S'1542631684'
S'Chirag Sachdeva'
tp1308
a(S'100000695769498'
S'Manish Gupta'
tp1309
a(S'571166366'
S'Sunil Uke'
tp1310
a(S'1121847649'
S'Anand Vijay'
tp1311
a(S'100000893584589'
S'Pavan Vyas'
tp1312
a(S'663751864'
S'Adnan Usmani'
tp1313
a(S'574760519'
S'Viveka Kalkhandey'
tp1314
a(S'1710772570'
S'Shweta Sharma'
tp1315
a(S'100000607571914'
S'Shomu Mitra'
tp1316
a(S'100000191172439'
S'Sheetal Jena'
tp1317
a(S'100000936338393'
S'Priya Rockera'
tp1318
a(S'100000143794363'
S'Sanjeev Verma'
tp1319
a(S'655539491'
S'Reema Debnath'
tp1320
a(S'100000240926322'
S'Shivam Kishanchandani'
tp1321
a(S'752745855'
S'Anuj Vashisht'
tp1322
a(S'1316521203'
S'Mukesh Sharma'
tp1323
a(S'1274247895'
S'Mohammed Anis Ur Rahman'
tp1324
a(S'621738579'
S'Puneet Mehta'
tp1325
a(S'1201533131'
S'Rajeev Asrani'
tp1326
a(S'1349503166'
S'Deepak Govind Naik'
tp1327
a(S'520187035'
S'Keyrun Rao'
tp1328
a(S'590531752'
S'Arpit Vageria'
tp1329
a(S'100000353503216'
S'Melcon Nixon Teixeira'
tp1330
a(S'1607451784'
S'Simranpreet Kaur'
tp1331
a(S'1341604888'
S'Jaywant Wadkar'
tp1332
a(S'1198510513'
S'Dhruv Sufi'
tp1333
a(S'703872513'
S'Hemal Doshi'
tp1334
a(S'1140850850'
S'Deepak Dhingra'
tp1335
a(S'751338409'
S'Bhavik Shah'
tp1336
a(S'1030436330'
S'Saloni Hanslas'
tp1337
a(S'1081608179'
S'Mihir Amrutkar'
tp1338
a(S'100001011048416'
S'Sarika Desai'
tp1339
a(S'100001114660104'
S'DrShailesh R Deshpande'
tp1340
a(S'1540722522'
S'Anuraag Khanna'
tp1341
a(S'756001164'
S'Amit Shankar Mathur'
tp1342
a(S'683905193'
S'Rajbir S Vohra'
tp1343
a(S'1821166261'
S'Vinit Kumar Jain'
tp1344
a(S'665149411'
S'Asma Ali'
tp1345
a(S'1671277731'
S'Aman Sharma'
tp1346
a(S'100000961364893'
S'Minal Karpe'
tp1347
a(S'100000304793778'
S'Shikha Sharma'
tp1348
a(S'576776362'
S'Aaradhna Uppal'
tp1349
a(S'664192843'
S'Neerraj Rc Gohil'
tp1350
a(S'533575871'
S'Vijay Kumar'
tp1351
a(S'1340214171'
S'Bhakti Khilnani'
tp1352
a(S'100000285165682'
S'Akanksha Tagotra'
tp1353
a(S'1316538954'
S'Rohit Sagar'
tp1354
a(S'100000121373980'
S'Bhagyashree Varma'
tp1355
a(S'100000472664465'
S'Ali Ashraf'
tp1356
a(S'587109747'
S"'Bhavin Chhatbar'"
tp1357
a(S'1735624110'
S'Goldy Basra'
tp1358
a(S'1545034604'
S'Vijay Dubey'
tp1359
a(S'1421627911'
S'Raju Bhatt'
tp1360
a(S'1694007559'
S'Ramesh Huria'
tp1361
a(S'100000187692730'
S'Aasif Khan'
tp1362
a(S'100000537207626'
S'Divya Sachdeva'
tp1363
a(S'1373074333'
S'Ravi A Vazir'
tp1364
a(S'718312980'
S'Arif Shirgaonkar'
tp1365
a(S'100000211353043'
S'Harshal Shah'
tp1366
a(S'1523081001'
S'Ramshankar Tasildar'
tp1367
a(S'1400441456'
S'R.k. Gupta'
tp1368
a(S'1492772211'
S'Salil Dalal'
tp1369
a(S'100000668694008'
S'Abhishek Sharma'
tp1370
a(S'100000103864292'
S'Virender Singh Chauhan'
tp1371
a(S'1401618974'
S'Harish Bhatia'
tp1372
a(S'1095423177'
S'Ajit Mestry'
tp1373
a(S'794924302'
S'Parul Chawla'
tp1374
a(S'618696165'
S'Manit Happy Sharma'
tp1375
a(S'100000149426126'
S'Rajeev Sharma'
tp1376
a(S'100000422198069'
S'Jagrut Ramani'
tp1377
a(S'100000696741266'
p1378
S'Ananth Narayan Mahadevan'
tp1379
a(S'759424038'
S'Neenu Arora'
tp1380
a(S'100000113389945'
S'Surinder Kumar'
tp1381
a(S'1398055328'
S'Sohail Khan'
tp1382
a(S'100000127251470'
S'Amit Kalyankar'
tp1383
a(S'1780055403'
S'Neel Sen'
tp1384
a(S'1158332328'
S'Ashok Gugale'
tp1385
a(S'1087065673'
S'Iqbal Niyazi'
tp1386
a(S'100001559708113'
S'Anita Pawar'
tp1387
a(S'100000423795971'
S'Immortal Vicky'
tp1388
a(S'100000745905824'
S'Syed Azam'
tp1389
a(S'100000225860515'
S'Arpit Joshi'
tp1390
a(S'1323523199'
S'Jagruti S Shah'
tp1391
a(S'1648821567'
p1392
S'Nikhar Leena'
tp1393
a(S'1449339408'
S'Seema Thakur'
tp1394
a(S'1564283749'
S'Shoeb Khan'
tp1395
a(S'1114803827'
S'Sohail Khan'
tp1396
a(S'100000807191881'
S'Aarti Singhal'
tp1397
a(S'1468940259'
S'Sanket V Kawle'
tp1398
a(S'785089907'
S'Dinesh Gupta'
tp1399
a(S'1474701865'
S'Roshni Karan Khanna'
tp1400
a(S'100000720710996'
S'Vishal Sharma'
tp1401
a(S'555535114'
S'Parth Sharma'
tp1402
a(S'100000367252899'
S'Rohit Kapoor'
tp1403
a(S'100001357866696'
S'Jignesh Patel'
tp1404
a(S'100000135257082'
S'Seema Shelat'
tp1405
a(S'1599858578'
S'Shubalaxmi J Acharya'
tp1406
a(S'100001510062786'
S'Rajesh Padha'
tp1407
a(S'1639590675'
S'Ragesh B Asthanaa'
tp1408
a(S'596352518'
S'Gauravpreet Singh'
tp1409
a(S'100000953875460'
S'Lata Parmar'
tp1410
a(S'771450808'
S'Narendra Jetley'
tp1411
a(S'674414680'
S'Pramod Moutho'
tp1412
a(S'100000961171286'
S'Hirenn Majmudar'
tp1413
a(S'503876841'
S'Gurteshwar Grewal Kmh'
tp1414
a(S'1288602351'
S'Manish Choudhary'
tp1415
a(S'743130033'
S'Anju Nandha Soni'
tp1416
a(S'633516413'
S'Rrheaa Marwah'
tp1417
a(S'1362520775'
S'Satinder Shah Singh'
tp1418
a(S'1563590990'
S'Ravi Thali\\u00e5'
tp1419
a(S'100000021669915'
S'Kevin Mehta'
tp1420
a(S'1836552508'
S'Farzana Khan'
tp1421
a(S'100000761316049'
S'Yogita Yash Rawat'
tp1422
a(S'100000179029792'
S'Shikha Singh'
tp1423
a(S'100001084901369'
S'Rakesh Singh Gautam'
tp1424
a(S'723237930'
S'Harsh Wardhan Dave'
tp1425
a(S'1102274369'
S'Ranjeet Jha'
tp1426
a(S'756799740'
S'Arvind Shandilya'
tp1427
a(S'1283422738'
S'Imtiyaz Qureshi'
tp1428
a(S'1715274545'
S'Subodh Vinzanekar'
tp1429
a(S'668591996'
S'Abhinav Juneja'
tp1430
a(S'1632233649'
S'Jyoti Ojha'
tp1431
a(S'100000596024666'
S'Vijay Jagad'
tp1432
a(S'100000512180664'
S'Narender Singh Bisht'
tp1433
a(S'100001363459261'
S'Amar Banerjee'
tp1434
a(S'100001313239885'
S'Shrijit Marwah'
tp1435
a(S'1397138579'
S'Archit Gupta'
tp1436
a(S'100000713535798'
S'Keetu ShAh'
tp1437
a(S'824809921'
S'Manish Jain'
tp1438
a(S'531828137'
S'Ranvir Sharda'
tp1439
a(S'1839688262'
S'Neha Singh'
tp1440
a(S'100000294995077'
S'Deepak Patel'
tp1441
a(S'100000107269672'
S'Govind Pandey'
tp1442
a(S'100000009420770'
S'Saurav Pandya'
tp1443
a(S'100000554161609'
S'Mayank Narang'
tp1444
a(S'1237560412'
S'Nikhil Mirchandani'
tp1445
a(S'1532756538'
S'Saahibjeet Singh'
tp1446
a(S'1136263306'
S'Salim Lalany'
tp1447
a(S'708537373'
S'Vicky Tiwari'
tp1448
a(S'100001287301104'
S'\\u092a\\u0941\\u0928\\u0940\\u0924 \\u0915\\u0941\\u092e\\u093e\\u0930 \\u0938\\u093f\\u0939\\u0901 \\u092d\\u093e\\u0901\\u0924\\u0942'
tp1449
a(S'1833010308'
S'Dwaipayan Chakraborty'
tp1450
a(S'1021033656'
S'Deepak Shivdasani'
tp1451
a(S'1122805610'
S'Meghna Arora'
tp1452
a(S'100000999343651'
S'Manisha Malaviya Khare'
tp1453
a(S'1294806236'
S'Zohra Javed'
tp1454
a(S'100000579108579'
S'Sagar A. Varia'
tp1455
a(S'100000193744898'
S'Purvi Dave'
tp1456
a(S'100000440414063'
S'Taniya Aurora'
tp1457
a(S'100001414024122'
S'Komal Mehta'
tp1458
a(S'100000950204557'
S'Piyush Gopal'
tp1459
a(S'1413350426'
S'Pooja Desai'
tp1460
a(S'100000825354895'
S'Nakul Patel'
tp1461
a(S'742278820'
S'Nitin Mahawar'
tp1462
a(S'524543160'
S'Karan Suji'
tp1463
a(S'847539920'
S'Shekhar Ramesh Mishra'
tp1464
a(S'100000164690305'
S'Gaurav Shah'
tp1465
a(S'544601102'
S'Vishal Bhardwaj Hns'
tp1466
a(S'100001042991256'
S'Naveen Rao'
tp1467
a(S'100000068343237'
S'Naren Singh'
tp1468
a(S'1686342353'
S'Kavya Dhimant Vyas'
tp1469
a(S'1167613899'
S'Ansh Paayan Sinha'
tp1470
a(S'100001017918616'
S'Ajitpal Singh'
tp1471
a(S'100001236963257'
S'Samar Bhadauriya'
tp1472
a(S'100000739874721'
S'Manav Jethani'
tp1473
a(S'100001436208415'
S'Rajbir Kaur Comedian'
tp1474
a(S'1472108044'
S'Gaurav P Kakkar'
tp1475
a(S'649215791'
S'Amar Vora'
tp1476
a(S'100000613154474'
S'Kamal N Singh'
tp1477
a(S'758435958'
S'Ekta Singh'
tp1478
a(S'689793973'
S'Deejay Harsh Allahbadi'
tp1479
a(S'100001484793389'
S'Ali Khan'
tp1480
a(S'523210532'
S'Vipin Handa'
tp1481
a(S'100001057280509'
S'Aushi Shah'
tp1482
a(S'1262903052'
S'Abir Sengupta'
tp1483
a(S'1839913926'
S'Pushkar Bhalani'
tp1484
a(S'1087396274'
S'Padmini Haldankar'
tp1485
a(S'100000589525857'
S'Sameera Sheikh'
tp1486
a(S'100000507079201'
S'Abhisek Bajaj'
tp1487
a(S'100001297374551'
S'Rekha Sanjay Parihar'
tp1488
a(S'754527700'
S'Hussain Lokhandwala'
tp1489
a(S'679827384'
S'Hema Agarwal'
tp1490
a(S'536233228'
S'Nazneen Batliwalla'
tp1491
a(S'684482719'
S'Prashnt Pranel Badheka'
tp1492
a(S'1587154947'
S'Naveen Yadav'
tp1493
a(S'100000069008128'
S'Monalisa Biswas'
tp1494
a(S'100000077520976'
S'Javed Hasan'
tp1495
a(S'100000733688134'
S'Saurabh Jn Rohila'
tp1496
a(S'100001043841790'
S'Happy Josh'
tp1497
a(S'100000160339003'
S'Ashish Rajput'
tp1498
a(S'1562514316'
S'Anurag Singhal'
tp1499
a(S'1468293302'
S'Sabiha Sajid'
tp1500
a(S'878635363'
S'Farahjaan Sheikh Aziz'
tp1501
a(S'1203580264'
S'Minhaj Ahmed'
tp1502
a(S'100000110485736'
S'Manish Kapadia'
tp1503
a(S'1011941443'
S'Vishvesh Dave'
tp1504
a(S'625580650'
S'Mona Kapoor'
tp1505
a(S'558802425'
S'Rajiv Gupta'
tp1506
a(S'1123748576'
S'Mickey Zaveri'
tp1507
a(S'1632458651'
S'Arvind Marchande'
tp1508
a(S'100000233044331'
S'Jayprakash Raval'
tp1509
a(S'100000269721128'
S'Paritosh Gorasia'
tp1510
a(S'1626442231'
S'K King Singh'
tp1511
a(S'778759633'
S'Sandeep AAnand'
tp1512
a(S'100000908570413'
S'Bhavin Joshi'
tp1513
a(S'758221397'
S'Jay Vasavada'
tp1514
a(S'1351712603'
S'Trushita Shah'
tp1515
a(S'100000155620100'
S'Avtar Singh Balle Balle'
tp1516
a(S'100000918842907'
S'Anmol Singh'
tp1517
a(S'1418764139'
S'Amit Jain'
tp1518
a(S'100000018016687'
S'Vyom Sharma'
tp1519
a(S'765185857'
S'Vinit Tanna'
tp1520
a(S'585962268'
S'Mala Chugh'
tp1521
a(S'100001264384986'
S'Kohli Gurbir'
tp1522
a(S'100001011369110'
S'Sunil Choudhary'
tp1523
a(S'582516220'
S'Jiten A Soni'
tp1524
a(S'534156015'
S'Sarangi Soni'
tp1525
a(S'1067616539'
S'Yuvraj Bhandari'
tp1526
a(S'100000552415906'
S'Sumit Dasgupta'
tp1527
a(S'1518924977'
S'Rritesh Sinha'
tp1528
a(S'1374105952'
S'Pankaj Trivedi'
tp1529
a(S'100000575326354'
S'Jolly Bansal'
tp1530
a(S'509018034'
S'Mira Misra Kaushik'
tp1531
a(S'100000037113592'
S'Alok Mohit'
tp1532
a(S'1111411331'
S'Samara Shahbuddin'
tp1533
a(S'531873799'
S'Vibha Bhatnagar'
tp1534
a(S'506218723'
S'Anil Garg'
tp1535
a(S'529607462'
S'Vikash Dassani'
tp1536
a(S'100001178318729'
S'Sandeep Thakur'
tp1537
a(S'721726723'
S'Sudhir Seth'
tp1538
a(S'757356247'
S'Prakash Pra'
tp1539
a(S'100000328860552'
S'Harsh Shah'
tp1540
a(S'100001162463170'
S'Rakesh Mohan'
tp1541
a(S'695378485'
S'Gaurav Kaundilya'
tp1542
a(S'100001489575242'
S'Mi Hir'
tp1543
a(S'100001234385711'
S'Harshad Patel'
tp1544
a(S'1805426407'
S'Javed Panwala'
tp1545
a(S'763475624'
S'Shivani Mathur'
tp1546
a(S'1389596002'
S'Yogesh Joshi'
tp1547
a(S'100000282708363'
S'Ram Ji'
tp1548
a(S'621639387'
S'Justin John'
tp1549
a(S'100000420541529'
S'Hemali Karpe'
tp1550
a(S'100000703181114'
S'Shabbu Agilant'
tp1551
a(S'1383853956'
S'Vinay Salimath'
tp1552
a(S'1484593236'
S'Ruchika Richi'
tp1553
a(S'566508966'
S'Puneet Jha'
tp1554
a(S'100000425563709'
S'Firdaus Mevawalla'
tp1555
a(S'643885443'
S'Srivinay Salian'
tp1556
a(S'100000950023087'
S'Jhanvi Patel'
tp1557
a(S'1403682717'
S'Vinay Patankar'
tp1558
a(S'628670515'
S'Sahil Verma'
tp1559
a(S'1128369756'
S'Atul Mathur'
tp1560
a(S'58501876'
S'Nirmal Patel'
tp1561
a(S'100000625272916'
S'Abhishek Parulkar'
tp1562
a(S'664288523'
S'Divya Khandal'
tp1563
a(S'649975176'
S'Vivek V Aggarwal'
tp1564
a(S'565320091'
S'Sudarshana Mitra'
tp1565
a(S'1457175402'
S'Radhika Sethi'
tp1566
a(S'1226195813'
S'Pinak Shukla'
tp1567
a(S'100000894907350'
S'Mona Arora'
tp1568
a(S'834544660'
S'Dhami Kohli'
tp1569
a(S'607026428'
S'Chetan Warrier'
tp1570
a(S'1821643104'
S'Hitendra J. Agrawal'
tp1571
a(S'526351311'
S'Rajesh Trivedi'
tp1572
a(S'100001130108859'
S'Girish Dev'
tp1573
a(S'679972740'
S'Mitesh N. Bhatt'
tp1574
a(S'100000817880569'
S'Nitika Deep'
tp1575
a(S'1359424298'
S'Vikram Mittal'
tp1576
a(S'1265635694'
S'Anil Mattoo'
tp1577
a(S'1406335842'
S'Puja Sharma'
tp1578
a(S'1187230982'
S'Reva Nashine'
tp1579
a(S'1061907268'
S'Vivek Chandra Kureel'
tp1580
a(S'535989315'
S'Kunal Singhal'
tp1581
a(S'100001025984711'
S'Juhi Parmar'
tp1582
a(S'583504503'
S'Sham Mashalkar'
tp1583
a(S'1071324129'
S'Sanjeev Kashyap'
tp1584
a(S'708021069'
S'Nishant Gehlot'
tp1585
a(S'559468522'
S'Manish Joshi'
tp1586
a(S'587110183'
S'Kiren Shrivastav'
tp1587
a(S'1150667891'
S'Aaishneell Neelam Gupta'
tp1588
a(S'100000986178943'
S'Vivek Gupta'
tp1589
a(S'100001208618100'
S'Umer Shah'
tp1590
a(S'100000710231453'
S'Vaibhav Gupta'
tp1591
a(S'809038971'
S'Kabir Bhatti'
tp1592
a(S'100000506188094'
S'Shallu Bhasin'
tp1593
a(S'100000556982621'
S'Shakira Khan'
tp1594
a(S'677707254'
S'Chander Sharma'
tp1595
a(S'648145747'
S'Monaz Mevawala'
tp1596
a(S'1413463054'
S'Apurba Sengupta'
tp1597
a(S'1297550757'
S'Shalya Kachwaha Saini'
tp1598
a(S'706069781'
S'Kamal Kishore'
tp1599
a(S'696014076'
S'Kenneth Jacob'
tp1600
a(S'1329820270'
S'Ajita Italiya'
tp1601
a(S'1831936698'
S'Yatin Khanna'
tp1602
a(S'528612354'
S'Vinay Sardesai'
tp1603
a(S'1204564088'
S'Assad Khan'
tp1604
a(S'1738408052'
S'Aacharya Abhiruchi G'
tp1605
a(S'751246965'
S'Sumit Saxena'
tp1606
a(S'100000369134589'
S'Gagan Pradeep'
tp1607
a(S'1231033053'
S'Amarjit Kang'
tp1608
a(S'718394208'
S'Ketan Shah'
tp1609
a(S'100000616104267'
S'Chand Seth'
tp1610
a(S'1615697113'
S'Prathmesh Yuvaraj Varadkar'
tp1611
a(S'100001215619365'
S'Patel Nayan'
tp1612
a(S'100000483706840'
S'Prasanto K Das'
tp1613
a(S'100000777544302'
S'Rby Khn'
tp1614
a(S'665137929'
S'Karan Joshi'
tp1615
a(S'100000173583110'
S'Shruti Mittal'
tp1616
a(S'100000634629573'
S'Vikram Saigal'
tp1617
a(S'100000571280711'
S'Bharat Kumar Chawda'
tp1618
a(S'564838193'
S'Jaidev Chakravorty'
tp1619
a(S'618724857'
S'Bharat Labadiya'
tp1620
a(S'100000555216074'
S'Tony Sachdev'
tp1621
a(S'100000005063596'
S'Rajesh Kumar Gupta'
tp1622
a(S'682876848'
S'Ravi Tyagi'
tp1623
a(S'100000433523054'
S'Hiren Neel'
tp1624
a(S'1359693340'
S'Avdhoot Kirpekar'
tp1625
a(S'1702735787'
S'Mayur Mehra'
tp1626
a(S'590579388'
S'Nabil Virani'
tp1627
a(S'1707476536'
S'Hitesh Walia'
tp1628
a(S'1318722528'
S'Dhrunad Kamle'
tp1629
a(S'744737021'
S'Gharms Dhuck'
tp1630
a(S'525797026'
S'Arpana Priyadarshini'
tp1631
a(S'572933210'
S'Sukant Bishoyi'
tp1632
a(S'546736597'
S'Manish Agrawal'
tp1633
a(S'591810860'
S'Aishveryaa Nidhi'
tp1634
a(S'1583749059'
S'Rohan Tuli'
tp1635
a(S'1074672159'
S'Bhaskar Sharma'
tp1636
a(S'662466188'
S'Ohh So Saurabh'
tp1637
a(S'1061811641'
S'Kazim Mirza'
tp1638
a(S'100001233993364'
S'Priyadarshini Singh Anand'
tp1639
a(S'670886752'
S'Vivek Agnihotri'
tp1640
a(S'1837643000'
S'Vaibhav Rakhe'
tp1641
a(S'100000864857157'
S'Chunnu M Mehra'
tp1642
a(S'1450054926'
S'Manu Chobe'
tp1643
a(S'829680076'
S'Neesha Sivaadasani'
tp1644
a(S'1029038340'
S'Kushmendra Sharmaa'
tp1645
a(S'100000780578630'
S'Prakash Modi'
tp1646
a(S'635096981'
S'Deepak Singh'
tp1647
a(S'100000028514590'
S'Krishna Gattiegorla Yadav'
tp1648
a(S'100001363538229'
S'Arun Gemini'
tp1649
a(S'100000620606708'
S'Nitin Bedi'
tp1650
a(S'100000441686416'
S'Gautam Ailani'
tp1651
a(S'723724433'
S'Anubhav Thapar'
tp1652
a(S'1330207960'
S'Hemant Divecha'
tp1653
a(S'1358075025'
S'Alfiya Khan'
tp1654
a(S'1156437279'
S'Sam Glisten'
tp1655
a(S'1446803012'
S'Mreenal Deshraj'
tp1656
a(S'1206978229'
S'Dolly Sidhu'
tp1657
a(S'100000123580729'
S'Biplab Chatterjee'
tp1658
a(S'1640029361'
S'Ritesh Sinha'
tp1659
a(S'100000575989038'
S'Swati Gupta'
tp1660
a(S'1422712308'
S'Microlight Flyer'
tp1661
a(S'584302101'
S'Sushma Kaul'
tp1662
a(S'603597393'
S'Pareen Mehta'
tp1663
a(S'1305248878'
S'Kaushik Chheda'
tp1664
a(S'1179986910'
S'Ayaz Khan'
tp1665
a(S'100001260791654'
S'Sunil Kumar'
tp1666
a(S'1709880280'
S'Malay Manglik'
tp1667
a(S'1494235198'
S'Siddhartha R Kedare'
tp1668
a(S'1633043280'
S'Umesh Jain'
tp1669
a(S'540235177'
S'Bhuvan Nagpal'
tp1670
a(S'1313616092'
S'Ashwin Variya'
tp1671
a(S'1154197689'
S'Ranjit Singh Chadha'
tp1672
a(S'589279537'
S'Amit Agrawal'
tp1673
a(S'566955663'
S'Aarti Parekh'
tp1674
a(S'593407128'
S'Sagar Kapoor'
tp1675
a(S'100001054767513'
S'Amit Gupta'
tp1676
a(S'100001494661854'
S'Mahendra Jain'
tp1677
a(S'528558133'
S'Deepu Paul'
tp1678
a(S'100000884589522'
S'Shagun Patel'
tp1679
a(S'1335274047'
S'Resham Thakkar'
tp1680
a(S'100000211683304'
S'Rajnish Sahota'
tp1681
a(S'614951217'
S'Samar Singh'
tp1682
a(S'635212440'
S'Akimbo India'
tp1683
a(S'100000271314361'
S'Nagachandrika Manyam K'
tp1684
a(S'550931060'
S'Prashant Chauhan'
tp1685
a(S'100000160251525'
S'Farokh Daruwala'
tp1686
a(S'100000648433414'
S'Nitin Sharma'
tp1687
a(S'860265116'
S'Mitesh Shah'
tp1688
a(S'1263185573'
S'Amal Shah'
tp1689
a(S'733090437'
S'Hrithikesh Sharma'
tp1690
a(S'100000684416971'
S'Sameera Khan'
tp1691
a(S'1245131187'
S'Nikhil Tyagi'
tp1692
a(S'100000747456678'
S'Shulbha Singh'
tp1693
a(S'100001487542648'
S'Shankar Bose'
tp1694
a(S'100000662348262'
S'Purushotam Mulani'
tp1695
a(S'751015326'
S'Vinay Pathak'
tp1696
a(S'1607110144'
S'Rajesh Jais'
tp1697
a(S'783459809'
S'Karan Saluja'
tp1698
a(S'1479657027'
S'Priyanshi Joshi'
tp1699
a(S'678904679'
S'Aashi Thakuur'
tp1700
a(S'100001143877305'
S'Dhara Jani'
tp1701
a(S'580753379'
S'Firoze Shakir'
tp1702
a(S'1532341998'
S'Amaresh Shanker'
tp1703
a(S'1095213144'
S'Vikas Pathak'
tp1704
a(S'1255780994'
S'Dev Sharma'
tp1705
a(S'1253683972'
S'Mushtaq Pasha'
tp1706
a(S'543075804'
S'Jigar Vaid'
tp1707
a(S'813730293'
S'Mita Mitu'
tp1708
a(S'1342456589'
S'Pulin Awasthi'
tp1709
a(S'537035961'
S'Kinjal Shah'
tp1710
a(S'1109230363'
S'Saee Barve'
tp1711
a(S'702172920'
S'D-lion Kishan Batavia'
tp1712
a(S'100000175219972'
S'Kamlesh Mota'
tp1713
a(S'100000026748187'
S'Harvinder Mankkar'
tp1714
a(S'1720211748'
S'Janu Tibrewal'
tp1715
a(S'769304530'
S'Sunny Bansal \\u0a74'
tp1716
a(S'1579609020'
S'Rakhee Agrahari'
tp1717
a(S'517633496'
S'Savita Jhingan'
tp1718
a(S'1415198664'
S'Tanya Arora'
tp1719
a(S'1525960969'
S'Uday V Antani'
tp1720
a(S'1047030855'
S'Baba Sehgal'
tp1721
a(S'1623484893'
S'Neil Jagle'
tp1722
a(S'1166089795'
S'Shraddha Gandhi'
tp1723
a(S'797325525'
S'Samin Raza'
tp1724
a(S'764454678'
S'Oye Hoye Priyanka'
tp1725
a(S'1478241812'
S'Tejas Padia'
tp1726
a(S'100001389176127'
S'Elizbat Malkis'
tp1727
a(S'537919484'
S'Vikram Singh'
tp1728
a(S'100000427279668'
S'Rahul Gandhi'
tp1729
a(S'703025589'
S'Vrajesh Hirjee'
tp1730
a(S'100000097011266'
S'Ashutosh Kaushik'
tp1731
a(S'1673903708'
S'Vanita Shah'
tp1732
a(S'1607052441'
S'Vineet Singh'
tp1733
a(S'643623072'
S'Jignesh Patel'
tp1734
a(S'100000122025452'
S'Kishore Chowdhary'
tp1735
a(S'1089703385'
S'Prabal Pushpendra Dwivedi'
tp1736
a(S'1132663156'
S'Sakshi Arora'
tp1737
a(S'1332685258'
S'Arif S Kazi'
tp1738
a(S'100001075796860'
S'Ramit Bedi'
tp1739
a(S'616495094'
S'Nidhi Bisht'
tp1740
a(S'608497410'
S'Narmal Gharu'
tp1741
a(S'507583465'
S'Ajinkya Parakh'
tp1742
a(S'782183120'
S'Ashutosh Deshmukh'
tp1743
a(S'508949013'
S'Radia Choudhury'
tp1744
a(S'100000492573454'
S'Kushal Bhanushali'
tp1745
a(S'100000748064817'
S'Richa Nirwan'
tp1746
a(S'713199240'
S'Aakanksha Matthews'
tp1747
a(S'100000034272295'
S'Mrukansh Jaiswal'
tp1748
a(S'1440502494'
S'Nishith Joshi'
tp1749
a(S'1481995281'
S'Mansoor Ali'
tp1750
a(S'100001178064585'
S'Milan Malkiya'
tp1751
a(S'100000204256850'
S'Divyakant Vora'
tp1752
a(S'1840865065'
S'Neeraj Pal'
tp1753
a(S'652750762'
S'Manish Shah'
tp1754
a(S'1300900943'
S'Nikhil Shukla'
tp1755
a(S'100001251648645'
S'Shwetal Paul'
tp1756
a(S'1348117144'
S'Collin Mascarenhas'
tp1757
a(S'100000693700120'
S'Pushpak A. Jain'
tp1758
a(S'100000137641697'
S'Raju Srivastava'
tp1759
a(S'1178124097'
S'Nick Seth'
tp1760
a(S'683802243'
S'Shailesh S. Pithadia'
tp1761
a(S'633211726'
S'Rajeev Sharma'
tp1762
a(S'100000901620910'
S'Raviraj Solanki'
tp1763
a(S'609655714'
S'Shreya Satapathy'
tp1764
a(S'1198710852'
S'Ajaz Shaikh'
tp1765
a(S'1158317013'
S'Shubhang Malik'
tp1766
a(S'1819692696'
S'Ashok Gangwani'
tp1767
a(S'1109191898'
S'Haresh Daftary'
tp1768
a(S'1769997861'
S'Aarushi Kumar'
tp1769
a(S'763669770'
S'Manoj Joshi'
tp1770
a(S'100001038363576'
S'Satyaki Bose'
tp1771
a(S'100000687216491'
S'Oydsteven Gomes'
tp1772
a(S'830469234'
S'Aniruddha Samanta'
tp1773
a(S'100000623209636'
S'Simran Madan'
tp1774
a(S'730712264'
S'Bhupesh Sharma'
tp1775
a(S'100000256891547'
S'Iram Khan'
tp1776
a(S'1536931053'
S'Amit Katoch'
tp1777
a(S'1282537725'
S'Mohak Sule'
tp1778
a(S'100000492364995'
S'Narendra Jiwrajka'
tp1779
a(S'577016632'
S'Lalit Mohan Joshi'
tp1780
a(S'1213536870'
S'Ravi Popat'
tp1781
a(S'538252436'
S'Sachin K Sharma'
tp1782
a(S'575648006'
S'Rashmi Sonia Sharma'
tp1783
a(S'772398295'
S'Bhavna Attri'
tp1784
a(S'1708189232'
S'Pankaj Pawar'
tp1785
a(S'1509442080'
S'Nishant Dave'
tp1786
a(S'100001151591614'
S'Amman Priyadarshi'
tp1787
a(S'100000478427118'
S'Rj Vikram Sharma'
tp1788
a(S'541818658'
S'Abha Maryada Banerjee'
tp1789
a(S'631637717'
S'Deval Nanavati'
tp1790
a(S'100000204891037'
S'Gourav Srivastav'
tp1791
a(S'100000484362057'
S'Dolphin Dubey'
tp1792
a(S'100000083252611'
S'Poonam Singh'
tp1793
a(S'1353203199'
S'Vinod Kothari'
tp1794
a(S'100000625767836'
S'Rakesh Gupta'
tp1795
a(S'100000200268680'
S'Meowfm Mumbai'
tp1796
a(S'1813565344'
S'Neeraj Maheshwari'
tp1797
a(S'1128522257'
S'Deepty Bhadauria'
tp1798
a(S'727213739'
S'Riju Bajaj'
tp1799
a(S'100001003909263'
S'Sonu Malhotra'
tp1800
a(S'843435091'
S'Yogesh Pagare'
tp1801
a(S'1154469784'
S'Vipul Dube'
tp1802
a(S'1112757233'
S'Ashok Tyagi'
tp1803
a(S'633394429'
S'Mohini Biswas'
tp1804
a(S'635106672'
S'Snehadda Fatterpekar'
tp1805
a(S'1370782473'
S'Parmeet Arora'
tp1806
a(S'1456785985'
S'Amreetaa Roy'
tp1807
a(S'100000688928799'
S'Anil Goyal'
tp1808
a(S'1436844142'
S'Cool Cancerian'
tp1809
a(S'1360719774'
S'Sandeep Sharma'
tp1810
a(S'100000166666467'
S'Kay Pahwa'
tp1811
a(S'581721152'
S'Monal Patel'
tp1812
a(S'695400468'
S'Smita Roy'
tp1813
a(S'100000965957315'
S'Jude Vyland'
tp1814
a(S'100000139313783'
S'Naveen Shetty'
tp1815
a(S'592085724'
S'Chinten Shah'
tp1816
a(S'100000471413572'
S'Vishal Puri'
tp1817
a(S'100000562546004'
S'Neeraj Kumar'
tp1818
a(S'1294376043'
S'Jaydeep Vyas'
tp1819
a(S'100000594758071'
S'Shaheen Mohammed'
tp1820
a(S'672335229'
S'Saurabh Sharma'
tp1821
a(S'100000067996799'
S'Bansal Poonam'
tp1822
a(S'100001249492773'
S'Gaurav Tags'
tp1823
a(S'1111524508'
S'Swati S Kaushik'
tp1824
a(S'1302125360'
S'Priya Talwar'
tp1825
a(S'637757736'
S'Rohinton D. Chesun'
tp1826
a(S'753796847'
S'Dhananjay Shinde'
tp1827
a(S'661231671'
S'Kiran K. Pathak'
tp1828
a(S'100000175646182'
S'Prag Mehta'
tp1829
a(S'100000135435499'
S'Hema Malhotra'
tp1830
a(S'100001245158210'
S'Vipul Dhawan'
tp1831
a(S'809149572'
S'Manu Mehta'
tp1832
a(S'551139047'
S'Raunaque Sidana'
tp1833
a(S'713034517'
S'Madhur Mohan'
tp1834
a(S'1409778345'
S'Nnidhi Shaunak Bhatt'
tp1835
a(S'548598464'
S'Razi Rahmani'
tp1836
a(S'100000367909461'
S'Raj Angad Singh'
tp1837
a(S'1488581517'
S'Rajesh Subramanian'
tp1838
a(S'100000210874953'
S'Masti Gaurav Thukral'
tp1839
a(S'778394270'
S'Khurshid Virani'
tp1840
a(S'100000591232832'
S'Nilesh Badheka'
tp1841
a(S'746362103'
S'Juhi Kachhap'
tp1842
a(S'590156969'
S'Abhishek Jain'
tp1843
a(S'861175321'
S'Raja Chaudhary'
tp1844
a(S'100001326726036'
S'Jas Wistanne Louis'
tp1845
a(S'627923563'
S'Sunil Kumar Sharma'
tp1846
a(S'1565463915'
S'Shonali Roychoudhuri'
tp1847
a(S'1569991051'
S'Govind Khatri'
tp1848
a(S'100000148662074'
S'Paresh C. Parekh'
tp1849
a(S'100001281826325'
S'Simran Kaur'
tp1850
a(S'100000911007740'
S'Ashmit Singh'
tp1851
a(S'100001240214878'
S'Neha Sharad'
tp1852
a(S'795373119'
S'Bhawna Sharma'
tp1853
a(S'1506746199'
S'Harpreet Singh Matta'
tp1854
a(S'509542894'
S'Sreyashi Sen'
tp1855
a(S'776262669'
S'Jagruti Shah'
tp1856
a(S'1426989945'
S'Sayed Tahzeeb'
tp1857
a(S'704982730'
S'Harshad Khandare'
tp1858
a(S'563601162'
S'Raaj Rahhi'
tp1859
a(S'100001311666148'
S'Vivek Sharma'
tp1860
a(S'827380512'
S'Durgesh Dhandha'
tp1861
a(S'621484433'
S'Jasmeet Singh'
tp1862
a(S'1248167166'
S'Bharat Kapoor'
tp1863
a(S'719743130'
S'Prosenjit Chakraborty'
tp1864
a(S'100000007110730'
S'Manjit Singh'
tp1865
a(S'764367205'
S'Anuraag Burman RadhaKrshna Devotee'
tp1866
a(S'893280404'
S'Shaveta Puri'
tp1867
a(S'100000718990711'
S'Kishore Sachade'
tp1868
a(S'1382881314'
S'Pramod Kumar Kush'
tp1869
a(S'100001204489192'
S'Natascha R Jain'
tp1870
a(S'100000381732613'
S'Misha Khanna'
tp1871
a(S'656617893'
S'Sarika Antony'
tp1872
a(S'679775620'
S'Jasmeet Nayyar'
tp1873
a(S'100000127327593'
S'Nirvan Sonii'
tp1874
a(S'1424965754'
S'Kumar Manu'
tp1875
a(S'100000668493172'
S'Lakshya Entertenment II'
tp1876
a(S'100001150009141'
S'Kusum Ashok Patel'
tp1877
a(S'100000223414633'
S'Mukesh Gargh'
tp1878
a(S'582449121'
S'Saharssh Bubna'
tp1879
a(S'100001728254077'
S'Isti Uddin'
tp1880
a(S'1230044085'
S'Ryaan Taneja'
tp1881
a(S'100000505386186'
S'Ne\\u015b\\u0125\\u0103 \\u015a\\u0125e\\u0129\\u0137\\u0125'
tp1882
a(S'100000931843212'
S'Dharmendra C Sompura'
tp1883
a(S'803140037'
S'Sikander Rizwan'
tp1884
a(S'1471471234'
S'Tushar Thakkar N'
tp1885
a(S'1633977327'
S'Milin Mehta'
tp1886
a(S'1681265351'
S'Tannmay Pahwa'
tp1887
a(S'1690422015'
S'Ajay Sharma'
tp1888
a(S'100001092376881'
S'Creaking Projectors'
tp1889
a(S'100000610535877'
S'Amit Aaryan'
tp1890
a(S'633731516'
S'Raju Gandhi'
tp1891
a(S'100000696886638'
S'Zinobia Patel'
tp1892
a(S'680354433'
S'Suveera Ambade'
tp1893
a(S'100000181968465'
S'Vishal Khatri'
tp1894
a(S'1039310726'
S'Krutarth Pandya'
tp1895
a(S'1344674610'
S'Varun Bhatia'
tp1896
a(S'100000855192818'
S'Pradip Kantaria'
tp1897
a(S'1556928314'
S'Deepti Gupta'
tp1898
a(S'1644392115'
S'Dpka Joshi'
tp1899
a(S'100000147393032'
S'Pomal Shah'
tp1900
a(S'537053148'
S'Purohit Santosh'
tp1901
a(S'504131617'
S'Yousuf Saeed'
tp1902
a(S'1100940637'
S'Supriya Karnik'
tp1903
a(S'511005494'
S'Shamoly Khera'
tp1904
a(S'1050123868'
S'Haya Sayed Quadri'
tp1905
a(S'1127294345'
S'Pushpanjali Solanki'
tp1906
a(S'100001350878979'
S'Rashpal Kaur'
tp1907
a(S'548525542'
S'Natasha Kishore'
tp1908
a(S'660910335'
S'Rahul Mehta'
tp1909
a(S'100001482009415'
S'Deepak Shah'
tp1910
a(S'1125726935'
S'Hitesh Raval'
tp1911
a(S'1355923670'
S'Aditi Chauhan'
tp1912
a(S'602640798'
S'Diwakar Soni'
tp1913
a(S'558291674'
S'Amit Vaid'
tp1914
a(S'1430221189'
S'Jugal Jethi'
tp1915
a(S'1564714105'
S'Nitin Vakharia'
tp1916
a(S'525290413'
S'Vinay R Jaiswal'
tp1917
a(S'100001200147153'
S'Babi Dutta'
tp1918
a(S'100000512092425'
S'Manav Thakkar'
tp1919
a(S'1508140148'
S'Farri R Thakoor'
tp1920
a(S'100000968917173'
S'Shailesh Nigam'
tp1921
a(S'100000180503275'
S'Husain HD'
tp1922
a(S'732231163'
S'Suraj Naidu'
tp1923
a(S'595558343'
S'Gunjan Pant'
tp1924
a(S'100001361580670'
S'Yogesh Tiwari'
tp1925
a(S'100000021000760'
S'Ruddro Frk'
tp1926
a(S'100000785835133'
S'Vivek Tripathi'
tp1927
a(S'1460002048'
S'N-Jay Sandhu'
tp1928
a(S'1193464216'
S'Manmeet Singh Sodhi'
tp1929
a(S'1064298049'
S'Wasif Ahmed Zubair'
tp1930
a(S'516990975'
S'Imran Aslam'
tp1931
a(S'1603535720'
S'Sheetal Pardeshi'
tp1932
a(S'100001481250794'
S'Abhishek Koundinya'
tp1933
a(S'581210898'
S'Sanjeev Poonia'
tp1934
a(S'622883202'
S'\\u0aaa\\u0acd\\u0ab0\\u0aa3\\u0ab5 \\u0ab8\\u0ac1\\u0ab0\\u0ac7\\u0ab6\\u0a9a\\u0a82\\u0aa6\\u0acd\\u0ab0 \\u0aa8\\u0abe\\u0a97\\u0ab0'
tp1935
a(S'1527850480'
S'Siddharth Kathuria'
tp1936
a(S'1108308498'
S'Sandip Chatterjee'
tp1937
a(S'1533000678'
S'Ranjan Sharma'
tp1938
a(S'1453521726'
S'Yatish Garg'
tp1939
a(S'100000260033180'
S'Mahendra G Bhatnagar'
tp1940
a(S'100001281301224'
S'Raju Dave'
tp1941
a(S'522896133'
S'Surbhi Dayal'
tp1942
a(S'100000103617196'
S'Ashika Devi Reddy'
tp1943
a(S'1501881969'
S'Amy Dsouza'
tp1944
a(S'100000446974759'
S'Avani Patel'
tp1945
a(S'662738061'
S'Khushwant Singh'
tp1946
a(S'100000008526702'
S'Pavan Adnani'
tp1947
a(S'1839430445'
S'Zafar Khan'
tp1948
a(S'609479234'
S'Piyush Roy Verma'
tp1949
a(S'593015408'
S'Khalid Azim'
tp1950
a(S'775864782'
S'Shuchita Chaturvedi'
tp1951
a(S'100000089767597'
S'Abhishek Chaturvedi'
tp1952
a(S'100000688887187'
S'Ashok Gokaldas'
tp1953
a(S'531105051'
S'Rohit Bhatia'
tp1954
a(S'1373596129'
S'Nishma Sanghi'
tp1955
a(S'100001097583345'
S'Apple Orange'
tp1956
a(S'1072066043'
S'Chandan Gupta'
tp1957
a(S'725966292'
S'Ashish Bhavsar'
tp1958
a(S'1559238493'
S'Laxminarayana Kamath'
tp1959
a(S'1358357912'
S'Rajeev Thepra'
tp1960
a(S'100000577816156'
S'Rajeev Gandhi'
tp1961
a(S'612001252'
S'Naushad Ali'
tp1962
a(S'792123043'
S'Amitfragola Kalia'
tp1963
a(S'1223065479'
S'Sandeep Marwah'
tp1964
a(S'100000514016413'
S'Anil Sharma'
tp1965
a(S'100000201867171'
S'Kaushik Borana'
tp1966
a(S'1077135447'
S'Kulbhushan Singh'
tp1967
a(S'853175081'
S'Sameer Kapoor'
tp1968
a(S'721400290'
S'Hardik Goswami'
tp1969
a(S'100000460389495'
S'Rishi Garg'
tp1970
a(S'100000724175693'
S'Pankaj Dixit'
tp1971
a(S'838589673'
S'Gaurav Gupta'
tp1972
a(S'1433785973'
S'Parichaya Walia'
tp1973
a(S'100001343101473'
S'Rajesh Barsewal'
tp1974
a(S'1566423992'
S'Gagan Preet Gill'
tp1975
a(S'100000690008308'
S'Brijesh Sutaria'
tp1976
a(S'701295137'
S'Arya Acharya'
tp1977
a(S'544029260'
S'Aloke Gupta'
tp1978
a(S'1308164827'
S'Danial Saleem'
tp1979
a(S'100000316279011'
S'Sonik Soniks'
tp1980
a(S'631981509'
S'Yash Meghani'
tp1981
a(S'760768183'
S'Dhimant Vyas'
tp1982
a(S'689821062'
S'Vivek Patel'
tp1983
a(S'1354149265'
S'Prashant Ananda Dabholkar'
tp1984
a(S'539830282'
S'Griselda Saldanha'
tp1985
a(S'1363604242'
S'Chintan Shah'
tp1986
a(S'100000832718439'
S'Devang Shah'
tp1987
a(S'100000270371289'
S'Diya Gajera'
tp1988
a(S'1356961712'
S'Danish Ali'
tp1989
a(S'100001676647274'
S'Rakhee Kapoor'
tp1990
a(S'705532046'
S'Deep Gambhir'
tp1991
a(S'532270530'
S'Him-eesh Madaan'
tp1992
a(S'1002360369'
S'Shweta Rathore'
tp1993
a(S'1072506950'
S'Rupal Nagda'
tp1994
a(S'100001513224564'
S'Nikita Singh'
tp1995
a(S'100000061758862'
S'Sumoy Das'
tp1996
a(S'1272067711'
S'Rachhel Isaac'
tp1997
a(S'1840232014'
S'Poorab Kaushik'
tp1998
a(S'100000470614782'
S'Navin Thakur'
tp1999
a(S'1002860413'
S'Hemant Narang'
tp2000
a(S'716220685'
S'Vikrant Srivastava'
tp2001
a(S'100001349766028'
S'Yash Kaushik'
tp2002
asS'id'
p2003
S'1783136400'
p2004
sS'name'
p2005
S'Rakesh Bedi'
p2006
s.