(dp1
S'friends'
p2
(lp3
(S'1790551397'
S'Devyani Kalra'
tp4
a(S'1721739562'
S'Govind Bali'
tp5
a(S'1246027674'
S'Kamayani Chauhan'
tp6
a(S'100000498344815'
S'Kaustubh Bhalerao'
tp7
a(S'100000959767145'
S'Divkaran Singh'
tp8
a(S'100000104359633'
S'Vivek Pandey'
tp9
a(S'100002551211254'
S'Kartik Ohri'
tp10
a(S'100000131714192'
S'Jaideep Singh Randhawa'
tp11
a(S'100000885521940'
S'Ronald Michael'
tp12
a(S'100000075935739'
S'Sudiksha Dhoot'
tp13
a(S'100000888099045'
S'Rahul Chawla'
tp14
a(S'1287792884'
S'Himmat Kahlon'
tp15
a(S'1621990542'
S'Shagun Maini'
tp16
a(S'1681923736'
S'Vikesh Singh'
tp17
a(S'1016035410'
S'Chandra Mouli'
tp18
a(S'1609757134'
S'Nikhil Deshpande'
tp19
a(S'100003074877197'
S'Chetan Kumar'
tp20
a(S'100000604991095'
S'Aldo Short Gunner'
tp21
a(S'1442165389'
S'Akshata Mishra'
tp22
a(S'1846488817'
S'Jatin Sharma'
tp23
a(S'100000066927701'
S'Amit Rautela'
tp24
a(S'1044552857'
S'Karan Murada'
tp25
a(S'1162757846'
S'Amit Kumar Singh'
tp26
a(S'1213424375'
S'Utkarsh Mehta'
tp27
a(S'100001280962421'
S'Bhaskar Deka'
tp28
a(S'100000440480148'
S'Sharun Kanan'
tp29
a(S'100000489543297'
S'Harsh Rajdeo'
tp30
a(S'100000239421229'
S'Kartik Bindra'
tp31
a(S'1036088293'
S'Dheeraj Velicheti'
tp32
a(S'1171754136'
S'Radhika Shourie'
tp33
a(S'100004681238433'
S'Vivek Pandey'
tp34
a(S'100002925982270'
S'Shailendra Slaria'
tp35
a(S'1534594202'
p36
S'Amber Raj'
tp37
a(S'1802363905'
S'Varun Pradhan'
tp38
a(S'100000012779151'
S'Pratyaksh Budhraja'
tp39
a(S'100004446368364'
S'Atharva Adep'
tp40
a(S'1850152070'
S'Aishwarya Thade'
tp41
a(S'1344994341'
S'Shaurya Barthwal'
tp42
a(S'100001337865535'
S'Karan Singh'
tp43
a(S'100000089180606'
S'Vishesh Parashar'
tp44
a(S'1594638022'
S'Tejeshwar Singh Nerwal'
tp45
a(S'1293154679'
S'Neelima Shukla'
tp46
a(S'100000938344278'
S'Shruti Slaria'
tp47
a(S'100001362143780'
S'Abhishek Rana'
tp48
a(S'100006485851595'
S'Sureshwar Shorey'
tp49
a(S'100001783762497'
S'Saumya Singh'
tp50
a(S'100000423655007'
S'Vaibhav Dua'
tp51
a(S'100000514490041'
S'Preet Kaur Sidhu'
tp52
a(S'1742970271'
S'Angadbir Singh'
tp53
a(S'100000104070951'
S'Riyaz Shaikh'
tp54
a(S'100000360449231'
S'Himani Kapoor'
tp55
a(S'1792265932'
S'Abharika Choudhary'
tp56
a(S'100001625656814'
S'Mohit Panjwani'
tp57
a(S'1777344824'
S'Sunil Kumar'
tp58
a(S'100000023366279'
S'Raghav Sethi'
tp59
a(S'1056170815'
S'Prannoy Apache Mengi'
tp60
a(S'1640361727'
S'Nikita Thube'
tp61
a(S'100000004417654'
S'Ashwin Gupta'
tp62
a(S'100001833765416'
S'Narender Singh'
tp63
a(S'100000162045846'
S'Nilesh Singh'
tp64
a(S'100004012939327'
S'Shreshth Malhotra'
tp65
a(S'1177072971'
S'Piyush Choudhary'
tp66
a(S'100001079404514'
S'Shubham Ghildiyal'
tp67
a(S'1462914163'
S'Sourav Malakar'
tp68
a(S'1813237556'
S'Kavya Maini'
tp69
a(S'100000977233750'
p70
S'Aakash Raj'
tp71
a(S'841733703'
S'Raveena Nigam'
tp72
a(S'100004273392478'
S'Baninder Matharu'
tp73
a(S'100001077469914'
S'Abhinav Khanna'
tp74
a(S'1084895171'
S'Jovi Nanda'
tp75
a(S'1527766162'
S'Digvijay Singh Jodha'
tp76
a(S'100000151162654'
S'Jisha Chahar'
tp77
a(S'100001592001193'
S'Ujjawal Singh'
tp78
a(S'1587921722'
S'Maitreyee Kalaskar'
tp79
a(S'1326961604'
S'Eliza Cm'
tp80
a(S'1388237405'
S'Mehar Jauhar'
tp81
a(S'100001086946884'
S'Shaffy Gill'
tp82
a(S'100002986016333'
S'Rushikesh Wandhekar'
tp83
a(S'1584651844'
S'Chellu Subramaniam'
tp84
a(S'1041998314'
S'Sagar Taluja'
tp85
a(S'620613262'
S'Abhinav Bakshi'
tp86
a(S'1005939112'
p87
S'Bilal Khan'
tp88
a(S'1586499641'
S'Karishma Sharma'
tp89
a(S'100000842781686'
S'Taresh Dewan'
tp90
a(S'100000449640525'
S'Rohit Tallur'
tp91
a(S'100002156566429'
S'Kamal Pratap Singh Rana'
tp92
a(S'1135294731'
S'Sakshi Singh'
tp93
a(S'100000462981304'
S'Jaskaran Singh'
tp94
a(S'100002460836196'
S'Hitain Goyal'
tp95
a(S'1633968714'
S'Tanmay Sharma'
tp96
a(S'100002012963078'
S'Mrinal Dutt'
tp97
a(S'536875151'
S'Gaurav Soni'
tp98
a(S'1320309830'
p99
S'Aarush Sood'
tp100
a(S'100000601553402'
S'Akshay Khandelwal'
tp101
a(S'1339848146'
S'Dushyant Moghe'
tp102
a(S'1441907884'
S'Anurag Panthey'
tp103
a(S'1113458184'
S'Karan Shah'
tp104
a(S'100000013079351'
S'Akshay Raj'
tp105
a(S'1564915611'
S'Angad Kahlon'
tp106
a(S'100000293431737'
S'Manan Katoch'
tp107
asS'id'
p108
S'1796206111'
p109
sS'name'
p110
S'Arjun Wadhawan'
p111
s.