(dp1
S'friends'
p2
(lp3
(S'513189354'
S'Anisha Gupta'
tp4
a(S'1002413866'
S'Khare Ojas'
tp5
a(S'100000956504332'
S'Nishita Lobo'
tp6
a(S'100001297681887'
S'Sona Gandhi'
tp7
a(S'1275891379'
S'Rakesh Pandey'
tp8
a(S'557905418'
p9
S'Chhayankdhar Singh Rathore'
tp10
a(S'100000534151656'
S'Charisma Iyer'
tp11
a(S'100001251806798'
S'Archana Ashok'
tp12
a(S'670986555'
S'Kritika Gupta'
tp13
a(S'565376539'
S'Rakhi Thareja'
tp14
a(S'100000782150583'
S'Ayan Acharyya'
tp15
a(S'100002163222164'
S'Shikha Choudhary'
tp16
a(S'1333577326'
S'Manaswita Singh Chauhan'
tp17
a(S'1011023405'
S'Debayan Chakraborty'
tp18
a(S'100000251691799'
S'Madhab Barman'
tp19
a(S'665897391'
S'Jaishri Iyer'
tp20
a(S'706369106'
S'Vikranth HN'
tp21
a(S'674890540'
S'Fergus Cooper'
tp22
a(S'100001049213444'
S'Neha Lawrence'
tp23
a(S'542092920'
S'Rewati Tappu'
tp24
a(S'100000386356650'
S'Shubhi Poddar'
tp25
a(S'1288647077'
S'Bharat Tandon'
tp26
a(S'100000279843706'
S'Ashok Subramanian'
tp27
a(S'1096317682'
S'Venkatesh Manickavachaga'
tp28
a(S'100001182215333'
S'Shalini Dolai'
tp29
a(S'543964326'
S'Vindhya Mishra'
tp30
a(S'593563364'
S'Nadia Pinton'
tp31
a(S'100000193833012'
S'Sumanas Koulagi'
tp32
a(S'1121136052'
S'Aratrika Sengupta'
tp33
a(S'100001129272037'
S'Rocky Chhikara'
tp34
a(S'745717933'
S'Rahul Padia'
tp35
a(S'509477447'
S'Severin Kehrer'
tp36
a(S'752891067'
S'Maan Barua'
tp37
a(S'585398159'
S'Bala Rajan'
tp38
a(S'1646512039'
S'Jyotishman Dasgupta'
tp39
a(S'100000105134126'
S'Shreya R Sahay'
tp40
a(S'1270176672'
S'Shwetha Manoj'
tp41
a(S'586429758'
S'Balaswamy Bolle'
tp42
a(S'100000170895162'
S'Achintya Prahlad'
tp43
a(S'538819467'
S'Ashrita Prasad Kotha'
tp44
a(S'514064398'
S'Ananya Kapoor'
tp45
a(S'683720363'
p46
S'Ishaan Bhatia'
tp47
a(S'100001945300251'
p48
S'Radhey Shyam Yadav'
tp49
a(S'826855289'
S'Shashvata Shukla'
tp50
a(S'850845596'
S'Vanshica Kant'
tp51
a(S'1827739470'
S'Prapti Shah'
tp52
a(S'1143259072'
S'Challenger Mishra'
tp53
a(S'1313507452'
S'Abhijeet Pattanaik'
tp54
a(S'100002563028798'
S'Prachi Shah'
tp55
a(S'1502321401'
S'Sheeba Elizabeth'
tp56
a(S'1010742600'
S'Mallika Dharmani'
tp57
a(S'100006793027854'
S'Ronghuan Zhang'
tp58
a(S'100002816438641'
S'Jyoti Gupta'
tp59
a(S'542853071'
S'Supritha Prodaturi'
tp60
a(S'100001576884081'
S'Mitali Sachdeva'
tp61
a(S'510262263'
S'Kate Alexandra Schofield'
tp62
a(S'599833997'
S'Khursheed Nariman'
tp63
a(S'656116299'
S'Biswanath Ghosh Dastidar'
tp64
a(S'1420658544'
S'Rajshree Vijay'
tp65
a(S'100001336143297'
S'AMit Kumar'
tp66
a(S'525005093'
S'Kriti Makker'
tp67
a(S'100001128688270'
S'Mahesh Arora'
tp68
a(S'100001095133061'
S'Isaac George Varghese'
tp69
a(S'539209722'
S'Prutha Pandya'
tp70
a(S'503649600'
S'Medha Srivastava'
tp71
a(S'684524507'
S'Avani Bansal'
tp72
a(S'1794488678'
S'Juhee Porwal'
tp73
a(S'575046361'
S'Nishwetha Kumar'
tp74
a(S'100000462738327'
p75
S'Krishan Bishnoi'
tp76
a(S'1104169329'
S'Hendrik Kaju'
tp77
a(S'100001459745553'
S'Aditi Patel'
tp78
a(S'684851967'
S'Shraddha Kaur'
tp79
a(S'1793306013'
S'Sukanya Datta'
tp80
a(S'100000582543011'
S'Rahul Anand'
tp81
a(S'100001129818732'
S'Akash David'
tp82
a(S'100000199426727'
S'Krishna Sharma'
tp83
a(S'525445116'
S'Kritika Jetley'
tp84
a(S'588671728'
p85
S'Arnav Das'
tp86
a(S'100000012790220'
S'Bhavya Raj Joshi'
tp87
a(S'100001086105720'
S'Priyanka Verma'
tp88
a(S'1209797253'
S'Sophia Kurian'
tp89
a(S'657845505'
S'Jean-Michel Johnston'
tp90
a(S'1155580925'
S'Nithin Kumar'
tp91
a(S'792230626'
S'Chandrima Majumdar'
tp92
a(S'507744868'
S'Harsh Vardhan Sahni'
tp93
a(S'1044350846'
S'Abhishek Dasgupta'
tp94
a(S'100002512607979'
S'Yukti Batta'
tp95
a(S'551764957'
S'Khushi Vijaykumar'
tp96
a(S'100001211943103'
S'Shaina Dhamija'
tp97
a(S'100000633649402'
S'George Joseph'
tp98
a(S'754039288'
S'Sudakshina Das'
tp99
a(S'100000103339459'
S'Dhruti Babariya'
tp100
a(S'100003017699261'
S'Hem Borker'
tp101
a(S'100000917481013'
S'Damini Sood'
tp102
a(S'100002453771397'
S'Malika Kumar'
tp103
a(S'671247552'
S'Raghav Meattle'
tp104
a(S'100001210885182'
S'Dhaval Gadariya'
tp105
a(S'100001383938048'
S'Rinu George'
tp106
a(S'1272453940'
S'Moni Gupta'
tp107
a(S'100001055712653'
S'Swapnil Jain'
tp108
asS'id'
p109
S'1830608871'
p110
sS'name'
p111
S'Anuradha Ashok'
p112
s.