(dp1
S'friends'
p2
(lp3
(S'100004783570198'
S'Tarun Singh'
tp4
a(S'1837492658'
S'Mukund Marodia'
tp5
a(S'100008138286999'
S'Aman Chhabra'
tp6
asS'id'
p7
S'1837492658'
p8
sS'name'
p9
S'Mukund Marodia'
p10
s.