(dp1
S'friends'
p2
(lp3
(S'100002365080157'
S'Harshinder Singh'
tp4
a(S'100003625499078'
S'Dias Antony Thakidiyel'
tp5
a(S'100001047006907'
S'Rabia Zaman'
tp6
a(S'100004406888965'
S'Zaheen Khan'
tp7
a(S'603625357'
S'Palki Bhattacharyya'
tp8
a(S'100001707456366'
S'Suvir Verma'
tp9
a(S'100000934206915'
S'Hafsa Syed'
tp10
a(S'100002041666369'
S'Manan Kharyal'
tp11
a(S'100004924864524'
S'Diksha Mahajan'
tp12
a(S'100002920196988'
S'Preet Kour'
tp13
a(S'100001212833105'
S'Himanshu Pandita'
tp14
a(S'100001592093947'
S'Syed Yasir Bukhari'
tp15
a(S'100004220857878'
S'Rahul Kahler'
tp16
a(S'1144849228'
S'Kalyani Ramachandran'
tp17
a(S'100000581614662'
S'Abhinav Kumar'
tp18
a(S'100001468433481'
S'Malvika Sharma'
tp19
a(S'100000485952107'
S'Shahwar Hyder Mir'
tp20
a(S'100001783252304'
S'Akshi Sudan'
tp21
a(S'100007554011919'
S'Joshua Roy'
tp22
a(S'1719468009'
S'Umang Dhar'
tp23
a(S'562962973'
S'Saqib Mumtaz'
tp24
a(S'100004061292497'
S'Anjana Joseph'
tp25
a(S'100001499339085'
S'Sanchita Jain'
tp26
a(S'100002940531835'
S'Swati Tomer'
tp27
a(S'100004127982894'
S'Jiyash G Philipose'
tp28
a(S'707912069'
S'Ayush Ranjan'
tp29
a(S'1627732975'
S'Susan Abraham'
tp30
a(S'100003220025172'
S'Rita Gomes'
tp31
a(S'1588251146'
S'Mehak Seth'
tp32
a(S'1545896618'
S'Rushita Jain'
tp33
a(S'100001213661533'
S'Saqib Khan'
tp34
a(S'100007820893562'
S'Shilpa Thakur'
tp35
a(S'100001615378173'
S'Kanad Ghosh'
tp36
a(S'100003489488947'
S'Sh\\u00ebr\\u00efy\\u00e4 S\\u00e4r\\u00eb\\u00eb\\u00f1'
tp37
a(S'100000363873735'
S'Ravinder Kumar'
tp38
a(S'100001417966046'
S'Samandeep Singh'
tp39
a(S'100001256118419'
S'Adnan Kohli'
tp40
a(S'100007470757034'
S'Enakshi Bali'
tp41
a(S'100003775470137'
S'Gaurish Kant Shukla'
tp42
a(S'100002039565227'
S'Shruti Slathia'
tp43
a(S'100001983131919'
S'Daman Singh'
tp44
a(S'100004019761200'
S'Vanshika Sharma'
tp45
a(S'100000037763189'
S'Tejaswita Kaushal'
tp46
a(S'1577517500'
S'Rita Pandya'
tp47
a(S'1328145572'
S'Anurag Banerjee'
tp48
a(S'1018629236'
S'Sulakhni Dandona'
tp49
a(S'1155828229'
S'Maria Kuruvilla'
tp50
a(S'846364779'
S'Janani Ramesh'
tp51
a(S'100001456113250'
S'Kamlesh Jat'
tp52
a(S'100000034086357'
S'Pariksha Arora'
tp53
a(S'100004015101993'
S'Harman Sohi'
tp54
a(S'100005898095361'
S'Sonal Maroo'
tp55
a(S'100000979880835'
S'Ananta Joshi'
tp56
a(S'1263340430'
S'Ananaya Banerjee'
tp57
a(S'100004689307648'
S'Navyug Sethi'
tp58
a(S'581003110'
S'Ann Susan Aleyas'
tp59
a(S'682684522'
S'Anya Thomas'
tp60
a(S'100003559631608'
S'Guddi Jha'
tp61
a(S'100001439348698'
S'Chitrangada Singh'
tp62
a(S'597933121'
S'Abel Thayil'
tp63
a(S'100001401050492'
S'Padamveer Singh'
tp64
a(S'100000487520943'
S'John Jacob'
tp65
a(S'1304161362'
S'Karan Gupta'
tp66
a(S'1676246290'
S'Sumairha Mumtaz'
tp67
a(S'100001465887822'
S'Mehak Khajuria'
tp68
a(S'100003663829100'
S'Divya Kundu'
tp69
a(S'1517776656'
S'Apoorva Mahajan'
tp70
a(S'557630277'
S'Antony Aron'
tp71
a(S'100001323849705'
S'Tavisha Vaid'
tp72
a(S'100002649829933'
S'Ashutosh Khajuria'
tp73
a(S'100001316213851'
S'Akaanksha Sharman'
tp74
a(S'100000640447135'
S'Sarda Singh'
tp75
a(S'100001428010349'
S'Nanakey Kalra'
tp76
a(S'787608967'
S'Suhani Gupta'
tp77
a(S'100001241130100'
S'Fatima Marquez Rey'
tp78
a(S'100001570501588'
S'Kavvita Guppta'
tp79
a(S'100000556159839'
S'Shweta Shukla'
tp80
a(S'100001555378493'
S'Anurag Sharma'
tp81
a(S'864545343'
S'Archishman Pradhan'
tp82
a(S'100001756043621'
S'Palak Gupta Palu'
tp83
a(S'100000834799437'
S'Nausheen Saraf'
tp84
a(S'100000943729453'
S'Shravya Mallavarapu'
tp85
a(S'842574799'
S'Shinjini Kulkarni'
tp86
a(S'100001795846421'
S'Anmol Makroo'
tp87
a(S'100000975309983'
S'Treasa Cm'
tp88
a(S'100004844621154'
S'Ravneet Kour Khalsa'
tp89
a(S'1515990716'
S'Ann Varghese'
tp90
a(S'100002292847726'
S'Mumtaz Ahmed'
tp91
a(S'1406070432'
S'Ira Badyal'
tp92
a(S'100000193294681'
S'Vibhuti Narania'
tp93
a(S'100000082202859'
S'Surabhi Agrawal'
tp94
a(S'652510019'
S'Siddharth Shastri'
tp95
a(S'1517416681'
S'Chinmay Kalaghatgi'
tp96
a(S'1449544447'
S'Tanmaya Kharyal'
tp97
a(S'100003113700341'
S'Dhriti Sharma'
tp98
a(S'100001905783606'
S'Deepak Dabral'
tp99
a(S'1315776291'
S'Tanvi Kotwal'
tp100
a(S'100000040985413'
S'Syed Owais'
tp101
a(S'100002747028510'
S'Nargis Choudhary'
tp102
a(S'100001023265356'
S'Aishwarya Chauhan'
tp103
a(S'100004107336413'
S'Juhi Prasad'
tp104
a(S'100001641160459'
S'Sudhanshu Singh Panwar'
tp105
a(S'1813254810'
S'Roubble Manhas'
tp106
a(S'100001051327461'
S'Shivmauli Singh Jamwal'
tp107
a(S'100004916832959'
S'Harman Kaur'
tp108
a(S'100001007601996'
S'Sinjini Sengupta'
tp109
a(S'100001053821261'
S'Azhar Khan'
tp110
a(S'756639421'
S'Tara Sami Dutt'
tp111
a(S'100001449196439'
S'Rosemary Sebastian'
tp112
a(S'702251169'
S"Leroy Leo D'Souza"
tp113
a(S'100001059005641'
S'Richa Sudathia'
tp114
a(S'100002000013123'
S'Sanjeev Golla'
tp115
a(S'100001593282004'
S'Gudia Bakshi'
tp116
a(S'1026931646'
S'Esha Upadhyay'
tp117
a(S'100002269475926'
S'Shriya Raina'
tp118
a(S'100004243295729'
S'Shubham Vainiwal'
tp119
a(S'100004439314902'
S'Nisha Mehta'
tp120
a(S'100002249160741'
S'Sowju Dimple'
tp121
a(S'100001658236763'
S'Satish Chander'
tp122
a(S'100001294620752'
S'Radiant Angel'
tp123
a(S'100002517772069'
S'Sameer Shah'
tp124
a(S'100001612472537'
S'Nimisha Pahuja'
tp125
a(S'100001244731142'
S'Arshina Singh Chauhan'
tp126
a(S'100000901522760'
S'Vimal Kharyal'
tp127
a(S'100000767077632'
S'Ovais Kohli'
tp128
a(S'100000478284999'
S'SAna Singh'
tp129
a(S'803745827'
S'Avnika Jain'
tp130
a(S'100004069112503'
S'Pallavi Bajpai'
tp131
a(S'100002443623905'
S'Nymphea Noronha'
tp132
a(S'100000914967376'
S'Avleen Kaur'
tp133
a(S'1806463344'
S'Namrata Dutta Mazumdar'
tp134
a(S'100004627920151'
S'Prakriti Bhudwal'
tp135
a(S'100006637870709'
S'Divya Anand'
tp136
a(S'100002454558856'
S'Pragya Singh'
tp137
a(S'1053611725'
S'Aparajit Chandrasekaran'
tp138
a(S'100000069098863'
S'Cyril Thomas'
tp139
a(S'100001597696674'
S'Parikshit Sudan'
tp140
a(S'659585313'
S'Shreyansh Mazumdar'
tp141
a(S'100001276052011'
S'Agrim Saini'
tp142
a(S'100003679384045'
S'Yashasvi R Zutshi'
tp143
a(S'100000717210457'
S'Ankita Mahajan'
tp144
a(S'100000884060110'
S'Jagjyot Singh'
tp145
a(S'100001980583911'
S'Sonali Samotra'
tp146
a(S'100001816047972'
S'Abhinav Baruah'
tp147
a(S'100005026747709'
S'Yogesh Yadav'
tp148
a(S'601055661'
S'Divya Goel'
tp149
a(S'1297493288'
S'Ishita Mathur'
tp150
a(S'100001391951110'
S'Nancy Singh'
tp151
a(S'100001476871657'
S'Jacquelyn Saikia'
tp152
a(S'1253716462'
S'Nobal Mohan'
tp153
a(S'100000016013437'
S'Ipshita Kumar'
tp154
a(S'100003941929312'
S'Rosemary Thomas'
tp155
a(S'100003930636833'
S'Falak Hamid'
tp156
a(S'100000342669203'
S'Maansi Sharma'
tp157
a(S'100000519324182'
S'Jerry T. John'
tp158
a(S'100001204004868'
S'Adnan Kohli'
tp159
a(S'100001039582411'
S'Akhil Kaur'
tp160
a(S'100001745810631'
S'Ankush Sharma'
tp161
a(S'1312204917'
S'Ribhav Pande'
tp162
a(S'1759617989'
S'Ishadrita Lahiri'
tp163
a(S'100001716906894'
S'Kriti Bhalwal'
tp164
a(S'100000093876452'
S'Farkhanda Zahoor'
tp165
a(S'100000028515350'
S'Princy Gray'
tp166
a(S'100000971467365'
S'Arshiya Kapoor'
tp167
a(S'100004618450701'
S'Vaibhav Shukla'
tp168
a(S'637850938'
S'Amrita Saluja'
tp169
a(S'100002994514828'
S'Raju K K Poonch'
tp170
a(S'100002508467047'
S'Bhuvash Jolly'
tp171
a(S'100000953452036'
S'Aishwarya Singh'
tp172
a(S'100001471866987'
S'Neha Sharma'
tp173
a(S'100002334391960'
S'Palak Bamba'
tp174
a(S'1213910048'
S'Sherin James'
tp175
a(S'719336539'
S'Vijaydeep Nagar'
tp176
a(S'100001731416885'
S'Gagandeep Jaggi'
tp177
a(S'100001282212172'
S'Shub Artking'
tp178
a(S'100001840751717'
S'Akanksha Gandotra'
tp179
a(S'100001430854567'
S'Eshaan Gupta'
tp180
a(S'1434980710'
S'Juni Singh'
tp181
a(S'100001255431785'
S'Arshad Aziz'
tp182
a(S'100002949833962'
S'Rekha Gupte'
tp183
a(S'100001541085260'
S'Rashi Mahajan'
tp184
a(S'741597739'
S'Therene Mari Arbon Quijano'
tp185
a(S'726530819'
S'Nitin Jude Magima'
tp186
a(S'1355597047'
S'Surbhi Puri'
tp187
a(S'657791471'
S'Romila Kalha'
tp188
a(S'100000593254449'
S'Parichay Mazumdar'
tp189
a(S'511483794'
S'Ahona Palchoudhuri'
tp190
a(S'100001367366355'
S'Pankaj Meena'
tp191
a(S'100001827677330'
S'Surbhi Chadha'
tp192
a(S'100003283624916'
S'Akanksha Meena'
tp193
a(S'100004107162628'
S'Priyanka Hangloo'
tp194
a(S'100002287504872'
S'Saumya Silori'
tp195
a(S'1615018224'
S'Mahasweta Bagchi'
tp196
a(S'100000929002125'
S'Maitreyee Rudola'
tp197
a(S'100002734546767'
S'Somya Ohri'
tp198
a(S'1400236094'
S'Ridhima Gupta'
tp199
a(S'100001675181178'
S'Tariq Aziz'
tp200
a(S'100001082286066'
S'Sherry Peter'
tp201
a(S'100000002250800'
S'Mani P Poonch'
tp202
a(S'100001171624426'
S'Stephanian Stephania'
tp203
a(S'1700758721'
S'Angad Yuvraj'
tp204
a(S'1319134637'
S'Ishan Taneja'
tp205
a(S'100002255096509'
S'Akshita Goyal'
tp206
a(S'1022814043'
S'Gayas Eapen'
tp207
a(S'1812069090'
S'Urvashi Kapoor'
tp208
a(S'1074234383'
S'Shayeree Chakraborty'
tp209
a(S'100001726361041'
S'Mathew Nelledath'
tp210
a(S'100000090961767'
S'Dhwanii Gupta'
tp211
a(S'100002683615339'
S'Surbhi Bali'
tp212
a(S'100001216884216'
S'Shivani Gupta'
tp213
a(S'100000469582050'
S'Hardika Khajuria'
tp214
a(S'100004034423986'
S'Ankur David Barrow'
tp215
a(S'100004606053755'
S'Vaibhav Srivastava'
tp216
a(S'1145261849'
S'Henry Gomes'
tp217
a(S'100003999481419'
S'Nikita Gandotra'
tp218
a(S'100005198764552'
S'Benny Abraham'
tp219
a(S'100007931106029'
S'Kajol Slathia'
tp220
a(S'1472075522'
S'Shatakshi Sharma'
tp221
a(S'100001241111957'
S'Christopher Xalxo'
tp222
a(S'100003873197617'
S'\\u00cbshm\\u00ea\\u00ebt S\\u00fcd\\u00e5\\u00f1'
tp223
a(S'100002792441757'
S'Nimran Jeet Kour Sudan'
tp224
a(S'742091493'
S'Sriram Chandramouli'
tp225
a(S'1108930817'
S'Paridhi Rustogi'
tp226
a(S'100001808056872'
S'Kawal Jeet Singh Khalsa'
tp227
a(S'100001099736396'
S'Bhavya Kohli'
tp228
a(S'100000255474808'
S'Mayurika Gupta'
tp229
a(S'100002315815728'
S'Nivedita Sahni'
tp230
a(S'100001499519217'
S'Nikhil Puri'
tp231
a(S'1286239621'
S'Indu Nair'
tp232
a(S'100001781181832'
S'Tarun Kapoor'
tp233
a(S'100001543683349'
S'Tanvi Mahajan'
tp234
a(S'1311004759'
S'Shambhavi Saxena'
tp235
a(S'100002262728766'
S'Sania Sudan'
tp236
a(S'100000645261994'
S'Avneet Kour'
tp237
a(S'100001185135580'
S'Shilpa Suri'
tp238
a(S'100000057527153'
S'Manasij Pal Chowdhury'
tp239
a(S'1831033125'
S'Vrinda Aggarwal'
tp240
a(S'100002057621986'
S'Megha Gupta'
tp241
a(S'100000891052545'
S'Aqsa Ishtiaq'
tp242
a(S'100000891147813'
S'Gurtej Singh'
tp243
a(S'1643777755'
S'Isha Srivastava'
tp244
a(S'100001781710610'
S'Inzamam Ul Hamid'
tp245
a(S'100002653388184'
S'Abhishek Seth'
tp246
a(S'100001819756550'
S'Anupam Ghai'
tp247
a(S'100002572389930'
S'Dipesh Kapil'
tp248
a(S'1645640382'
S'Arjoonn Sharma'
tp249
a(S'100000964959210'
S'Gargi Malhotra'
tp250
a(S'100001748466343'
S'Ravneet Kaur'
tp251
a(S'100003062567767'
S'Prabjyot Kour'
tp252
a(S'1019804907'
S'Mrittunjoy Guha Majumdar'
tp253
a(S'100000102652717'
S'Debobroto Sensharma'
tp254
a(S'1200724395'
S'Shruti Lal'
tp255
a(S'100000934188551'
S'Varunesh Chandra'
tp256
a(S'100002886663879'
S'Preethish Raja'
tp257
a(S'100002506824405'
S'Samridhi Bhargav'
tp258
a(S'1809210907'
S'Syed Jaasirah Syedain'
tp259
a(S'1617829041'
S'Chandana Lekha'
tp260
a(S'100001210155312'
S'Arshad Aziz'
tp261
a(S'100000948904026'
S'Soorya James'
tp262
a(S'100001281668822'
S'Renu Susan'
tp263
a(S'1670814886'
S'Kriti Rastogi'
tp264
a(S'1128783597'
S'Iruvanthika Chowdhary'
tp265
a(S'100002679478660'
S'Nitesh K. Mahlawat'
tp266
a(S'100000401572709'
S'Megha Amla Gandotra'
tp267
a(S'100002534448098'
S'Vikas Bhati'
tp268
a(S'716673406'
S'Malvika Srivastava'
tp269
a(S'100000050921608'
S'Shubham Ruhela'
tp270
a(S'100000913162175'
S'Vatsala Pant'
tp271
a(S'100001031261426'
S'Aarushi Sharma'
tp272
a(S'100001230851788'
S'Khyati Bhatnagar'
tp273
a(S'100001867507711'
S'Leah Chrestien'
tp274
a(S'1710704405'
S'Akhil Binny Philip'
tp275
a(S'100001402914996'
S'Abha Raj'
tp276
a(S'100001211575551'
S'Manvi Jain'
tp277
a(S'100001931645399'
S'Meenu Bhasin'
tp278
a(S'100001619848581'
S'Amiit Singh'
tp279
a(S'100004137877663'
S'Sohan Biswas'
tp280
a(S'100003861039085'
S'Suman Meet Kour'
tp281
a(S'100000996704030'
S'Ashwin Singh'
tp282
a(S'100001193960233'
S'Himakshi Gupta'
tp283
a(S'100000692032276'
S'Aatif Bandey'
tp284
a(S'100000118635473'
S'Harvinder Singh'
tp285
a(S'100000931853823'
S'Ananya Pramod'
tp286
a(S'100000428277911'
S'Karan Singh Dutta'
tp287
a(S'100000722529762'
S'Tanya Sharma'
tp288
a(S'100000272325539'
S'Tapsi Akhoon'
tp289
a(S'100001449885920'
S'Saguna Guleria'
tp290
a(S'1173176116'
S'Suhasni Srivastava'
tp291
a(S'100001688867982'
S'Pankaj Veer Singh'
tp292
a(S'100000550718924'
S'Ekta Shaikh'
tp293
a(S'100002661646872'
S'Aaliya Sharma'
tp294
a(S'100000217046328'
S'Shiju Sebastian'
tp295
a(S'100002208710541'
S'Neha Joshi'
tp296
a(S'100004122223178'
S'Rahul Dev'
tp297
a(S'100005211853945'
S'House Arrest'
tp298
a(S'100002660655416'
S'Prakhar Srivastava'
tp299
a(S'100001905422749'
S'Aman Jyot Singh'
tp300
a(S'100003186050112'
S'Sharma Shriya'
tp301
a(S'100002200782195'
S'Priya Arora'
tp302
a(S'1311944544'
S'Avleen Sahni'
tp303
a(S'100002258654820'
S'Inder Preet'
tp304
a(S'100001368516432'
S'Uzma Kohli'
tp305
a(S'100002400197112'
S'Aashima Mahajan'
tp306
a(S'100000982557466'
S'Polina Singh Kala'
tp307
a(S'100003163586889'
S'Areesa Peerzada'
tp308
a(S'100000833465621'
S'Sp Singh'
tp309
a(S'100003916788637'
S'Gupta Anubha'
tp310
a(S'1449547944'
S'Anisha Angelina Victor'
tp311
a(S'100001496123410'
S'Varun Shukla'
tp312
a(S'100003670816812'
S'Swati Nigam'
tp313
a(S'100001157590329'
S'Shreeya Mahajan'
tp314
a(S'1636386248'
S'Shourya Awasthi'
tp315
a(S'100000402742611'
S'Maninder Pal Singh'
tp316
a(S'100002128132729'
S'Paras Suri'
tp317
a(S'1590060184'
S'Purba Chatterjee'
tp318
a(S'1129119922'
S'Ashwin Lingaiah'
tp319
a(S'100000067600638'
S'Mihir Kumar'
tp320
a(S'100001031021487'
S'Natasha Jamwal'
tp321
a(S'100001274517708'
S'Idrees Sheikh'
tp322
a(S'100001703958525'
S'Gandhi Study Circle'
tp323
a(S'100001092647891'
S'Tanya Sudan'
tp324
a(S'100000386479802'
S'Prince Srivastava'
tp325
a(S'100000304849132'
S'Anoothi Kumar'
tp326
a(S'587458540'
S'Baazla Kakroo'
tp327
a(S'100000829750608'
S'Balbir Jaggi'
tp328
a(S'1453626384'
S'GurJot Singh Khalsa'
tp329
a(S'523801572'
S'Jahnavi Sen'
tp330
a(S'100003259861746'
S'Enakshi Bali'
tp331
a(S'100002268246070'
S'Harish Sharma'
tp332
a(S'100002452919191'
S'Avneet Kaur'
tp333
a(S'1524765835'
S'Sameer Gardner'
tp334
a(S'100001881956159'
S'Ankita Bhasin'
tp335
a(S'100002940600676'
S'Ssanjy Guptaa'
tp336
a(S'1726855238'
S'Ridhima Bhasin'
tp337
a(S'100000721593854'
S'Shiwani Bhan'
tp338
a(S'100000626641836'
S'Ashish Gupta'
tp339
a(S'536106143'
S'Chaitra Sreeshaila'
tp340
a(S'100000073551879'
S'Vedika Sumbli'
tp341
a(S'100003672196803'
S'Eshita Sharma'
tp342
a(S'100005469193718'
S'Keshav Desai'
tp343
a(S'100000704428434'
S'Shuaib Mir'
tp344
a(S'1170256889'
S'Ikshek Misri'
tp345
a(S'100001388652860'
S'Jai Deep Arora'
tp346
a(S'573625462'
S'Preet Kaur'
tp347
a(S'100000601214455'
S'Tony Alex'
tp348
a(S'100001056363378'
S'Himani Khajuria'
tp349
a(S'100000132832201'
S'Says Ali'
tp350
a(S'814714869'
S'Rabiya Syed'
tp351
a(S'596146831'
S'Karen Grace Soans'
tp352
a(S'100001452162855'
S'Nipun Bhalla'
tp353
a(S'100001696084560'
S'Priya Gupta'
tp354
a(S'100001259695281'
S'Aseem Sharma'
tp355
a(S'100003248115814'
S'Salini Johnson'
tp356
a(S'548344709'
S'Raghav Dahuja'
tp357
a(S'100000960701994'
S'Harman Singh'
tp358
a(S'100003134333265'
S'Amal David'
tp359
a(S'100004040742358'
S'Aditendra Singh Chandel'
tp360
a(S'100008342672012'
S'Sarvanta Yadav'
tp361
a(S'599618946'
S'Nivruti Tagotra'
tp362
a(S'604361905'
S'Akshit Goyal'
tp363
a(S'100001095133061'
S'Isaac George Varghese'
tp364
a(S'100000079823327'
S'Tanya Mumtaz'
tp365
a(S'100004727527874'
S'Sadhia Mumtaz'
tp366
a(S'100005276614224'
S"Stephen's Compliments"
tp367
a(S'100001171958828'
S'Basit Malik'
tp368
a(S'1067409573'
S'Abhishek Chugh'
tp369
a(S'100000283094344'
S'Inzar Talib'
tp370
a(S'100002183306082'
S'Priya Seht'
tp371
a(S'1321244392'
S'Aranya Sahay'
tp372
a(S'100002566273225'
S'Puneet Kour'
tp373
a(S'100000622956548'
S'Gagan Mahajan'
tp374
a(S'100000462738327'
S'Krishan Bishnoi'
tp375
a(S'100000377533313'
S'Aashima Mahajan'
tp376
a(S'100003804879148'
S'Nikita Gupta'
tp377
a(S'100004078954159'
S'Arshia Jacob'
tp378
a(S'100001037285203'
S'Bhavna Gupta'
tp379
a(S'100001542965769'
S'Priya Gupta'
tp380
a(S'100000574560210'
S'Incia Anand'
tp381
a(S'100004989547636'
S'Aanchal Tiwari'
tp382
a(S'1802139119'
S'Shreya Chawla'
tp383
a(S'100003584006938'
S'Reshma George Palackan'
tp384
a(S'100001521422995'
S'Aakriti Sudan'
tp385
a(S'100003958593364'
S'Peunika Marwaha'
tp386
a(S'100000920060123'
S'Shreya Sharma'
tp387
a(S'100001576727066'
S'Urvashi Kapoor'
tp388
a(S'100001122235529'
S'L\\u00e4v\\u00e1n\\u00fd\\u00e5 Sh\\u00e2rma'
tp389
a(S'1353259712'
S'Sangeeth Sugathan'
tp390
a(S'679547040'
S'Soumya Sankar'
tp391
a(S'100003184171598'
S'Jijo KP'
tp392
a(S'1805479675'
S'Zinnia Kour'
tp393
a(S'100002514595082'
S'Niles Mondal'
tp394
a(S'100000552442927'
S'Ayushi Bhushan'
tp395
a(S'100000516108252'
S'Amitpal Singh'
tp396
a(S'1146322752'
S'Paloma Bhattacharjee'
tp397
a(S'100000721218809'
S'Sadhvi Mahajan'
tp398
a(S'100001623697547'
S'Ria Sawhney'
tp399
a(S'100001186042548'
S'Vatsala Pant'
tp400
a(S'1050790505'
S'Pankhuri Tandon'
tp401
a(S'100001250319647'
S'Simple Rajrah'
tp402
a(S'100001067493895'
S'Malika Kapoor'
tp403
a(S'1795473437'
S'Akhila Betsy George'
tp404
a(S'100000977829585'
S'Dhanraj Karel'
tp405
a(S'1363945375'
S'Rahul Jain'
tp406
a(S'100003694076717'
S'Shreya Gupta'
tp407
a(S'100001610165268'
S'Prince Tandon'
tp408
a(S'1818112130'
S'Natrang Jammu'
tp409
a(S'100001230656311'
S'Jhanvi Gupta'
tp410
a(S'1214006418'
S'Tandon Ashok'
tp411
a(S'100005527274238'
S'Supriya Sharma'
tp412
a(S'100000955489648'
S'Jeny Yaldo'
tp413
a(S'100000153509135'
S'Yasir Ahmed'
tp414
a(S'100002900517696'
S'Oshine Puri'
tp415
a(S'100004062064774'
S'Shipra Abrol'
tp416
a(S'100001678473320'
S'Shreya Gupta'
tp417
a(S'735158638'
S'Shalin Jose'
tp418
a(S'100001758190884'
S'Pulkit Gupta'
tp419
a(S'751256223'
S'Rubina Alangh'
tp420
a(S'620065181'
S'Saumya Sethia'
tp421
a(S'647584679'
S"Raghav 'Roalts' Apoorv"
tp422
a(S'1704108955'
S'Rashika Gupta'
tp423
a(S'100003038951439'
S'Rohit Kumar'
tp424
a(S'100000729759879'
S'Jeffrey Mathews'
tp425
a(S'100001210788859'
S'Ishita Mengi'
tp426
a(S'1209843165'
S'Krishna Vaidyanathan'
tp427
a(S'100004621331701'
S'Addy Puri'
tp428
a(S'100001925683610'
S'Richard Abraham'
tp429
a(S'1837541693'
S'Gopika Singh Ju Dev'
tp430
a(S'100006031832490'
S'Sachin Dipake'
tp431
a(S'1337460254'
S'Mitali Poovayya'
tp432
a(S'100000587218428'
S'Singh Veet'
tp433
a(S'100005399383992'
S'Anu Jaggi'
tp434
a(S'100007862252893'
S'Manan Oberoi'
tp435
a(S'100006591756191'
S'Sumedha Ghai'
tp436
a(S'592846511'
S'Steffi Cherian'
tp437
a(S'100001203251212'
S'Vikramjeetsingh Veer'
tp438
a(S'100001477561920'
S'Ayushi Puri'
tp439
asS'id'
p440
S'1838943911'
p441
sS'name'
p442
S'Harman Kour'
p443
s.