(dp1
S'name'
p2
S'Ajay Saini'
p3
sS'current_class'
p4
S'india'
p5
sS'home_text'
p6
VHasanpur Lohari, Uttar Pradesh, India\u000aHometown
p7
sS'current_link'
p8
Vhttps://www.facebook.com/l.php?u=https%3A%2F%2Fwww.bing.com%2Fmaps%2Fdefault.aspx%3Fv%3D2%26pc%3DFACEBK%26mid%3D8100%26where1%3D30.316700868289%252C%2B78.033142089844%26name%3DDehra%2BDun%252C%2BIndia%26mkt%3Den-IN&h=WAQF60_Fb&s=1
p9
sS'home_link'
p10
Vhttps://www.facebook.com/l.php?u=https%3A%2F%2Fwww.bing.com%2Fmaps%2Fdefault.aspx%3Fv%3D2%26pc%3DFACEBK%26mid%3D8100%26where1%3D29.59689996228%252C%2B77.478332519531%26name%3DHasanpur%2BLohari%252C%2BUttar%2BPradesh%252C%2BIndia%26mkt%3Den-IN&h=JAQFA2xRi&s=1
p11
sS'current_text'
p12
VDehra Dun, India\u000aCurrent City
p13
sS'friends'
p14
(lp15
(S'100003606751413'
S'Sathish Kumar'
tp16
a(S'100004051514297'
S'Ankit Singh'
tp17
a(S'100004502406905'
S'Satish Singh'
tp18
a(S'100005850221464'
S'P.k. Chaudhary'
tp19
a(S'100007512692519'
S'Suraj Tiwari'
tp20
a(S'100002833049127'
S'Rajesh Saini'
tp21
a(S'100005028728840'
S'Muskan Khan'
tp22
a(S'100005911951984'
S'Rajesh Kumar Yadav G'
tp23
a(S'100006185672537'
S'Man Singh'
tp24
a(S'503519329'
S'Ajay Saini'
tp25
a(S'100008388756732'
S'Virat Educationmission'
tp26
a(S'100008168673219'
S'Khan Dawakhana'
tp27
a(S'100004005713140'
S'Aarti Saini'
tp28
asS'id'
p29
S'503519329'
p30
s.