(dp1
S'name'
p2
S'Anshul Gupta'
p3
sS'current_class'
p4
S'india'
p5
sS'home_class'
p6
Vgurgaon, haryana, india
p7
sS'home_text'
p8
VGurgaon, Haryana\u000aHometown
p9
sS'current_link'
p10
Vhttps://www.facebook.com/l.php?u=https%3A%2F%2Fwww.bing.com%2Fmaps%2Fdefault.aspx%3Fv%3D2%26pc%3DFACEBK%26mid%3D8100%26where1%3D40.716700385409%252C%2B-74.001159667969%26name%3DNew%2BYork%252C%2BNew%2BYork%26mkt%3Den-IN&h=bAQEmLiSX&s=1
p11
sS'home_link'
p12
Vhttps://www.facebook.com/l.php?u=https%3A%2F%2Fwww.bing.com%2Fmaps%2Fdefault.aspx%3Fv%3D2%26pc%3DFACEBK%26mid%3D8100%26where1%3D28.469999907198%252C%2B77.029266357422%26name%3DGurgaon%252C%2BHaryana%26mkt%3Den-IN&h=cAQHQZMnE&s=1
p13
sS'current_text'
p14
VNew York, New York\u000aCurrent City since August, 2013
p15
sS'friends'
p16
(lp17
(S'100007878639523'
S'Jennifer Hern\\u00e1ndez'
tp18
a(S'504914861'
S'Anshul Gupta'
tp19
a(S'100004117068877'
S'Ajit Kumar'
tp20
asS'id'
p21
S'504914861'
p22
s.