(dp1
S'friends'
p2
(lp3
(S'1321110991'
S'Aman Mattoo'
tp4
a(S'531881133'
S'Rohit Bellara'
tp5
a(S'100000479960623'
S'Mustafa Kantawala'
tp6
a(S'1220116556'
S'Saket Rao'
tp7
a(S'1401265557'
S'Danish Shaikh'
tp8
a(S'1165702001'
S'Soni Kukreja'
tp9
a(S'718850316'
S'Kavita Daryanani'
tp10
a(S'1565387648'
S'Amanjot Singh'
tp11
a(S'1317669088'
S'Sarth Desai'
tp12
a(S'628256349'
S'Zainab Hafizji'
tp13
a(S'100000135290895'
S'Raghav Anand'
tp14
a(S'100005020805709'
S'Sophie Grace'
tp15
a(S'1371454202'
S'Abhay Chopra'
tp16
a(S'1521581647'
S'Shantanu Sonone'
tp17
a(S'100004979799773'
S'Sakshi Chandani'
tp18
a(S'100000690185612'
S'Aritra Majumdar'
tp19
a(S'1032874082'
S'Rustom Jhaveri'
tp20
a(S'1289749599'
S'Devika Purandare'
tp21
a(S'100000539325846'
S'Akhil Abrol'
tp22
a(S'633934361'
S'Jasmira Anjikar'
tp23
a(S'1409792371'
S'Simran Chandani'
tp24
a(S'1352708345'
S'Hrishi Baney'
tp25
a(S'1669071468'
S'Mallika Shekhar'
tp26
a(S'622803572'
S'Mahesh Asrani'
tp27
a(S'1102886831'
S'Sharan Wadhwa'
tp28
a(S'1644200059'
S'Kkhushi Suratwala'
tp29
a(S'1367744275'
S'Rishabh Trehan'
tp30
a(S'100001456111028'
S'Arushi Pasricha'
tp31
a(S'731577075'
S'Akshay Shand'
tp32
a(S'100000166321988'
S'Muzamil Aziz'
tp33
a(S'100000898607617'
S'Damini Gupta'
tp34
a(S'761428734'
S'Namrata Bhatia'
tp35
a(S'518871959'
S'Lavesh Bhatia'
tp36
a(S'1409252058'
S'Niyati Purandare'
tp37
a(S'517808847'
S'Reshma Bhatia'
tp38
a(S'100000615106419'
S'Vasundhara Vaswani'
tp39
a(S'1308044305'
S'Venkat Kc'
tp40
a(S'1803478016'
S'Karan Pratap Shah'
tp41
a(S'1814610795'
S'Karan Gondhale'
tp42
a(S'100002536161543'
S'Sunil Bhatia'
tp43
a(S'737913293'
S'Mitali Dandekar'
tp44
a(S'610344736'
S'Likhit Ail'
tp45
a(S'722208149'
S'Rahul George'
tp46
a(S'100001906365443'
S'Daksh Sharma'
tp47
a(S'100007931521878'
S'Mayur Sonawane'
tp48
a(S'1246186480'
S'Meghana Chandani'
tp49
a(S'1095410771'
S'Laveshaa Vaswani'
tp50
a(S'100000938611148'
S'Aditya Rudrakar'
tp51
a(S'1144357049'
p52
S'Saurish Savant'
tp53
a(S'100000792070499'
S'Yuvraj Dang'
tp54
a(S'100001843780674'
S'Rahul Parmar'
tp55
a(S'568626833'
S'Aanchal Sapra'
tp56
a(S'1391023486'
S'Arjun Cheema'
tp57
a(S'1153224340'
S'Hrishikesh Pawar'
tp58
a(S'734863988'
S'Kushal Mehra'
tp59
a(S'1271586451'
S'Saikishore Red-dy'
tp60
a(S'631010094'
S'Zain Ahmed'
tp61
a(S'1163572049'
S'Tirath Singh Mokha'
tp62
a(S'641763410'
S'Shivani Kher'
tp63
a(S'1289326246'
S'Kainush Surty'
tp64
a(S'1580148536'
S'Yash Nath'
tp65
a(S'1733450616'
S'Kunal Kharat'
tp66
a(S'100003473709505'
S'Soheb Somji'
tp67
a(S'100001025718082'
S'Misha Nathani'
tp68
a(S'1321953055'
S'Ashish Chandani'
tp69
a(S'717820909'
S'Mehak Philip'
tp70
a(S'1381224872'
S'Mukesh Tolani'
tp71
a(S'100000003627233'
S'Aishwarya Mishra'
tp72
a(S'641118822'
S'Karishma Bhatia Vaswani'
tp73
a(S'100000017653924'
S'Aditya Machado'
tp74
a(S'790219538'
S'Siddharth Karkee'
tp75
a(S'551739957'
S'Mark Jarvis'
tp76
a(S'756099808'
S'Vineet Alurkar'
tp77
a(S'100001630126316'
S'Mukund Bhatia'
tp78
a(S'1386649614'
S'Sunaiinaa Arora'
tp79
a(S'704072626'
S'Manisha Moorjani'
tp80
a(S'100000504355453'
S'Arjun Bansal'
tp81
a(S'1427829901'
S'Divyang Baldota'
tp82
a(S'100000677117510'
S'Varun Krishnaswami'
tp83
a(S'100002035366037'
S'Smriti Thakur'
tp84
a(S'1102126311'
S'Vaishnavi Rao'
tp85
a(S'558287402'
S'Angad Virdi'
tp86
a(S'600685646'
S'Sanam Vaswani'
tp87
a(S'1574871727'
S'Sudarshan Vaswani'
tp88
a(S'1293170460'
S'Rishab Sadarangani'
tp89
a(S'100000253429921'
S'Rishabh Kukreja'
tp90
a(S'515692269'
S'Salima Khan'
tp91
a(S'612567778'
S'Priya Wilson'
tp92
a(S'100000894315653'
S'Aunkan Mandal'
tp93
a(S'100000605623117'
S'Nisha Chawla'
tp94
a(S'100003400837497'
S'Sana Kumar'
tp95
a(S'672915573'
S'Karan Thadaney'
tp96
a(S'685863552'
S'Kriti Marwah'
tp97
a(S'509950979'
S'Nitesh Shewani'
tp98
a(S'634540920'
S'Karvin King'
tp99
a(S'1804303800'
S'Sunny Godhwani'
tp100
a(S'556425447'
S'Anshuk Sharma'
tp101
a(S'684375966'
S'Sanah Sabherwal'
tp102
a(S'819935036'
S'Khodu Irani'
tp103
a(S'1631900934'
S'Kavit Thakkar'
tp104
asS'id'
p105
S'509089330'
p106
sS'name'
p107
S'Aakash Bhatia'
p108
s.