(dp1
S'home_link'
p2
Vhttps://www.facebook.com/l.php?u=https%3A%2F%2Fwww.bing.com%2Fmaps%2Fdefault.aspx%3Fv%3D2%26pc%3DFACEBK%26mid%3D8100%26where1%3D27.033300767291%252C%2B88.265533447266%26name%3DDarjeeling%26mkt%3Den-IN&h=6AQHWjr0r&s=1
p3
sS'name'
p4
S'Harsh Prakash'
p5
sS'current_class'
p6
S'india'
p7
sS'home_text'
p8
VDarjeeling\u000aHometown
p9
sS'home_class'
p10
Vdarjeeling, west bengal, india
p11
sS'friends'
p12
(lp13
(S'510693315'
p14
S'Harsh Prakash'
tp15
asS'id'
p16
g14
s.