(dp1
S'name'
p2
S'Mahrukh Khan'
p3
sS'current_class'
p4
S'pakistan'
p5
sS'home_class'
p6
Vkarachi, pakistan
p7
sS'home_text'
p8
VKarachi, Pakistan\u000aHometown
p9
sS'current_link'
p10
Vhttps://www.facebook.com/l.php?u=https%3A%2F%2Fwww.bing.com%2Fmaps%2Fdefault.aspx%3Fv%3D2%26pc%3DFACEBK%26mid%3D8100%26where1%3D31.549700669186%252C%2B74.343109130859%26name%3DLahore%252C%2BPakistan%26mkt%3Den-IN&h=eAQG6t3jS&s=1
p11
sS'home_link'
p12
Vhttps://www.facebook.com/l.php?u=https%3A%2F%2Fwww.bing.com%2Fmaps%2Fdefault.aspx%3Fv%3D2%26pc%3DFACEBK%26mid%3D8100%26where1%3D24.859999933159%252C%2B67.009735107422%26name%3DKarachi%252C%2BPakistan%26mkt%3Den-IN&h=aAQEOkmmA&s=1
p13
sS'current_text'
p14
VLahore, Pakistan\u000aCurrent City
p15
sS'friends'
p16
(lp17
(S'100003675400944'
S'Shah Afridi'
tp18
a(S'524280449'
p19
S'Mahrukh Khan'
tp20
a(S'100002178043595'
S'Fawwad Khan'
tp21
asS'id'
p22
g19
s.