(dp1
S'friends'
p2
(lp3
(S'1531176490'
S'Chuneet Bansal'
tp4
a(S'1385164347'
S'Ashima Bhatnagar'
tp5
a(S'692553319'
S'Raghav Minocha'
tp6
a(S'100002185462273'
S'Ankit Marda'
tp7
a(S'1432385629'
S'Kushal Dalal'
tp8
a(S'703532803'
S'Gurveen Ghai'
tp9
a(S'1165162079'
p10
S'Umang Daga'
tp11
a(S'1294777146'
S'Kanika Malhotra'
tp12
a(S'598108394'
S'Dhruv Bhasin'
tp13
a(S'1537658973'
S'Naman Gupta'
tp14
a(S'100002646468659'
S'Prem Chander P'
tp15
a(S'1034165323'
S'Siddharth Seth'
tp16
a(S'100003959722031'
p17
S'Ashvatth Verma'
tp18
a(S'649752671'
S'Apoorvee Sawhney'
tp19
a(S'543912558'
S'Asees Bhasin'
tp20
a(S'548034386'
S'Ishaan Bhasin'
tp21
a(S'100000388826228'
S'Ayushmaan Datta'
tp22
a(S'100001248105634'
S'Nikhil Agarwal'
tp23
a(S'633575085'
S'Khyati Goel'
tp24
a(S'593461755'
S'Arjan Puri'
tp25
a(S'1309128676'
p26
S'Anshika Gupta'
tp27
a(S'507813131'
S'Uday Veer Wadhwa'
tp28
a(S'1043505935'
S'Pranav Sahni'
tp29
a(S'1227765539'
S'Akash Pattanayak'
tp30
a(S'1202518656'
S'Ridhi Verma'
tp31
a(S'575917723'
S'Kabir Sial'
tp32
a(S'100002428198544'
p33
S'Aashish Mohanka'
tp34
a(S'1207952486'
S'Vidushi Chadha'
tp35
a(S'718105779'
S'Madhav Sareen'
tp36
a(S'655632145'
S'Rushil Kapoor'
tp37
a(S'100000976081862'
S'Ayushi Gupta'
tp38
a(S'681237024'
S'Shiven Vikram'
tp39
a(S'100005635115308'
S'Arushi Arushi'
tp40
a(S'1045707521'
S'Yash Bajaj'
tp41
a(S'100000951392127'
S'Aastha Chadha'
tp42
a(S'651003805'
S'Shrey Gupta'
tp43
a(S'1472623691'
S'Gayatri Sabharwal'
tp44
a(S'1060178780'
S'Ajay Sabharwal'
tp45
a(S'100001796002732'
p46
S'Nikita Nagpal'
tp47
a(S'1361957660'
S'Perkriti Malhotra'
tp48
a(S'1842821390'
S'Anusha Jain'
tp49
a(S'1089879904'
S'Priyamvada Aggarwal'
tp50
a(S'733170298'
p51
S'Sanuj Shah'
tp52
a(S'560691912'
p53
S'Vaishali Bajaj'
tp54
a(S'1357990771'
p55
S'Arushi Jindal'
tp56
a(S'100003710891129'
S'Pallavi Gupta'
tp57
a(S'1258927439'
S'Mihir Rao'
tp58
a(S'570945014'
S'Dhruv Bathla'
tp59
a(S'826285334'
S'Dhruv Maheshwari'
tp60
a(S'889000053'
S'Hassaan Ejaz'
tp61
a(S'1374604468'
S'Ananya Varma'
tp62
a(S'1573544243'
S'Aditi Gupta'
tp63
a(S'100000888772452'
S'Ayushi Agnihotri'
tp64
a(S'639661956'
S'Urvi Agarwal'
tp65
a(S'1717464332'
p66
S'Varun Garg'
tp67
a(S'592496795'
S'Ishan Khurana'
tp68
a(S'100000121069678'
S'Aditi Agarwal'
tp69
a(S'1613750030'
S'Junaid Aamir'
tp70
a(S'1022396295'
S'Karan Gupta'
tp71
a(S'1384163982'
S'Abhishek Singh'
tp72
a(S'100002712503757'
S'Meghna Saravanan'
tp73
a(S'524357040'
S'Stuti Gupta'
tp74
a(S'100003652611427'
S'Aishwarya Kumar'
tp75
a(S'889005315'
S'Laavanye Bahl'
tp76
a(S'593239672'
S'Pranay Nath Lekhi'
tp77
a(S'764499874'
S'Aditi Mehra'
tp78
a(S'1500178470'
S'Ridhima Bahl'
tp79
a(S'655030461'
S'Pooja Gupta'
tp80
a(S'688498569'
p81
S'Manik Garg'
tp82
a(S'100002206101626'
S'Tanya Bansal'
tp83
a(S'100000464461072'
S'Harshi Kher'
tp84
a(S'1528325396'
S'Vyush Gupta'
tp85
a(S'1067807574'
p86
S'Jyotsna Mahajan'
tp87
a(S'706903804'
S'Pranav Obhrai'
tp88
a(S'1295363380'
p89
S'Vedita Agarwal'
tp90
a(S'1092924090'
p91
S'Divyat Rungta'
tp92
a(S'1566618093'
S'Sarah Nayar'
tp93
a(S'100001632071555'
S'Radha Bhola'
tp94
a(S'576730021'
S'Paresh Pandey'
tp95
a(S'1016040745'
S'Yuv Vir Khosla'
tp96
a(S'1468997798'
S'Aditya Sabu'
tp97
a(S'1634524359'
p98
S'Aashita Jindal'
tp99
a(S'100001426974214'
S'Anuj Goyal'
tp100
a(S'827865645'
S'Pranav Singh Aggarwal'
tp101
a(S'100006679503867'
S'Medhavi Malik'
tp102
a(S'100001544839387'
S'Bhumika Gupta'
tp103
a(S'1122247131'
p104
S'Bhavya Aggarwal'
tp105
a(S'100000699761054'
S'Aneesh Rai'
tp106
a(S'100000409506607'
S'Sidhant Gupta'
tp107
a(S'1029467159'
S'Medha Gupta'
tp108
a(S'100006158112798'
p109
S'Sanchit Goyal'
tp110
a(S'100001447946654'
S'D Hemanshi'
tp111
a(S'1427724152'
S'Priyanka Bhageria'
tp112
a(S'100001638669424'
S'Aayush Kedia'
tp113
a(S'689785713'
S'Samiha Nayar'
tp114
a(S'1346126000'
S'Srishti Bhalla'
tp115
a(S'1537032131'
S'Swati Malik'
tp116
a(S'1684598595'
S'Aakash Bhalothia'
tp117
a(S'627391855'
S'Mansoor Khalid'
tp118
a(S'100000643385367'
S'Shreyaansh Ahuja'
tp119
asS'id'
p120
S'524661642'
p121
sS'name'
p122
S'Vishvesh Varma'
p123
s.