(dp1
S'friends'
p2
(lp3
(S'6715819'
S'Jeremy Royce'
tp4
a(S'565343750'
S'Michael Bravin'
tp5
a(S'676102429'
S'Gabrielle Weiss'
tp6
a(S'1253515035'
S'Clay Pruitt'
tp7
a(S'649140058'
S'Jorge Villela'
tp8
a(S'1394741192'
S'Campbell Hair'
tp9
a(S'1066890670'
S'Jill Mazursky'
tp10
a(S'500827816'
S'Michael Jost'
tp11
a(S'100004761669808'
S'Malamo Megalos'
tp12
a(S'584290091'
S'Bill Burrows'
tp13
a(S'1080968310'
S'Beau Leon'
tp14
a(S'1038913652'
S'Russell Battelene'
tp15
a(S'704810571'
S'David Herrera'
tp16
a(S'1307971627'
S'Randy Jacobson'
tp17
a(S'7410913'
S'Larry Engel'
tp18
a(S'579380510'
S'Bill Dill'
tp19
a(S'1007672948'
S'Tom Richmond'
tp20
a(S'1409930355'
S'Rob Page'
tp21
a(S'613716585'
S'Robert Levi'
tp22
a(S'1149985907'
S'Pam Cohen'
tp23
a(S'796858956'
S'Meyer Shwarzstein'
tp24
a(S'1008271308'
S'Yuta Okamura'
tp25
a(S'1836040020'
S'Nancy Scanlan'
tp26
a(S'100002770624766'
S'Ali Khalid Jum\\u00e1'
tp27
a(S'1120305098'
S'David Battelene'
tp28
a(S'100002427222284'
S'Marianne Willtorp'
tp29
a(S'831024800'
S'John Douglas'
tp30
a(S'732315991'
S'Haskell Wexler'
tp31
a(S'100000822062372'
S'Adrian Sibley'
tp32
a(S'100000432814071'
S'Hussein Bestana'
tp33
a(S'649023329'
S'Hilary Stewart'
tp34
a(S'1403288147'
S'Stefan Rhys'
tp35
a(S'628983785'
S'Greg Skura'
tp36
a(S'1386367586'
S'Ron Volz'
tp37
a(S'100001645377266'
S'Medoo Soound'
tp38
a(S'1144818544'
S'Mike Fantasia'
tp39
a(S'569197864'
S'Lauren Evans'
tp40
a(S'100007316646288'
S'Aymen AL Ameri'
tp41
a(S'100000468234791'
S'Ali Atia'
tp42
a(S'1196922179'
S'Maria Lampros'
tp43
a(S'736135420'
S'Maria Rinaldi'
tp44
a(S'100000559399073'
S'Venex Watebawa'
tp45
a(S'1723674165'
S'Patricia Itsines Germano'
tp46
a(S'100002850087446'
S'Omid Khald'
tp47
a(S'668967672'
S'Charles F. Peterson'
tp48
a(S'1134730316'
S'Eagle Yoga'
tp49
a(S'1275219056'
S'Jexlee Charles'
tp50
a(S'830441305'
S'Janos Marton'
tp51
a(S'100001419409814'
S'Sajjad Abbas'
tp52
a(S'1153265025'
S'Sharyn Paul Brusie'
tp53
a(S'1619893468'
S'Debbie Baxter'
tp54
a(S'675233046'
S'Ann Ep-Co'
tp55
a(S'1631850725'
S'Siew Cheng'
tp56
a(S'100001667508893'
S'Lori Zaitz'
tp57
a(S'1537024999'
S'Martin Dwyer'
tp58
a(S'1184414954'
S'Dean Odysseus Yacalis'
tp59
a(S'705891743'
S'George Ghines'
tp60
a(S'707558427'
S'Stephanie Palewski Brumbach'
tp61
a(S'1070231392'
S'Jo Wilms'
tp62
a(S'100000453557738'
S'Jire Carreon'
tp63
a(S'667621433'
S'John Samaras'
tp64
a(S'721382994'
S'Chloe King'
tp65
a(S'100001473097937'
S'Jeannie Weiss'
tp66
a(S'1036380055'
S'Grace Talice Lee'
tp67
a(S'610633262'
S'Nanteza Cathy'
tp68
a(S'1045126726'
S'Mark Maguillicuty'
tp69
a(S'1317562941'
S'Gillian Lefkowitz'
tp70
a(S'100001839557074'
p71
S'Rafia Murtaza'
tp72
a(S'513245454'
S'Bernie Tenenbaum'
tp73
a(S'647998212'
S'Joanne Oboyski-Battelene'
tp74
a(S'100000923832173'
S'Liza Zimring'
tp75
a(S'1158491934'
S'Karen Lee Smith'
tp76
a(S'592036779'
S'Mica Bevington'
tp77
a(S'100001729521764'
S'Ahmad AL Zaide'
tp78
a(S'682478021'
S'Mark H. Weingartner'
tp79
a(S'1064606118'
S'Chelo Alvarez-Stehle'
tp80
a(S'100000989783608'
S'Simon Fanthorpe'
tp81
a(S'771236881'
S'Saskia Baron'
tp82
a(S'1151513679'
S'Kaye Armstrong'
tp83
a(S'603119936'
S'SAt Kartar Khalsa'
tp84
a(S'584476174'
S'Sharad Haksar'
tp85
a(S'1104077804'
S'Keri Frazier'
tp86
a(S'1666170705'
S'George Ghiz'
tp87
a(S'1044814510'
S'Yiorgos Vassilandonakis'
tp88
a(S'1204863098'
S'Bruce Ehrmann'
tp89
a(S'1516724656'
S'Jennifer Moses'
tp90
a(S'100001672907392'
S'Marjorie David'
tp91
a(S'1032063346'
S'Frederick Wasser'
tp92
a(S'100003283046223'
S'Saif Hussain'
tp93
a(S'100000359234668'
S'Wareth Kwaish'
tp94
a(S'707450080'
S'Laurie K. Gilbert'
tp95
a(S'1398500946'
S'Lori Ersolmaz'
tp96
a(S'550177635'
S'Steven Fierberg'
tp97
a(S'1837100075'
S'Elliot Jacoby'
tp98
a(S'1058531041'
S'Jolly Grace O. Andruvile'
tp99
a(S'626205884'
S'Joanne Itsines Cirranello'
tp100
a(S'581883848'
S'Kathleen Lyons'
tp101
a(S'670697305'
S'Cliff Latimer'
tp102
a(S'842216357'
S'Seth Gilbert'
tp103
a(S'2527466'
S'Alina Cutrono'
tp104
a(S'643338807'
S'Lisa Jane Deutsch'
tp105
a(S'1050811941'
S'Geoffrey Mark'
tp106
a(S'1440048610'
S'Nick Spark'
tp107
a(S'714968302'
S'Curt Doty'
tp108
a(S'3434668'
S'Chris Cain'
tp109
a(S'820900556'
S'David Brownstein'
tp110
a(S'1820196816'
S'Susan Gilman'
tp111
a(S'546430686'
S'Nancy Schreiber'
tp112
a(S'1753088194'
S'Stephen Hall Lewis'
tp113
a(S'837662163'
S'Ellen Israel Goldberg'
tp114
a(S'100004204803582'
S'Carmen Lynne'
tp115
a(S'801663221'
S'Jenny Leivadarou'
tp116
a(S'513598'
S'Molly Feltner'
tp117
a(S'670348011'
S'Trent Jr'
tp118
a(S'1058926186'
S'Anelisa Garfunkel'
tp119
a(S'428601'
S'Noni Korf'
tp120
a(S'1274580739'
S'Andrew Turman'
tp121
a(S'635397283'
S'Douglas W. Smith'
tp122
a(S'100005924590040'
S'Midge Costin'
tp123
a(S'1265023705'
S'Elaine Leslie'
tp124
asS'id'
p125
S'526934226'
p126
sS'name'
p127
S'Bill Megalos'
p128
s.