(dp1
S'friends'
p2
(lp3
(S'540130367'
S'Sarthak Tuli'
tp4
a(S'1322706858'
S'Kushal Dhillon'
tp5
a(S'100001026788927'
S'Aditya Verma'
tp6
a(S'100001543460156'
S'Kunal Vaid'
tp7
a(S'100000214646443'
S'Kritika Khanna'
tp8
a(S'510132392'
S'Shrey Gupta'
tp9
a(S'564489365'
S'Jayesh Joshi'
tp10
a(S'1754359889'
S'Keshav Malhotra'
tp11
a(S'100001144301688'
S'Divyaj Matpal'
tp12
a(S'618625402'
S'Sumit Dora'
tp13
a(S'1348406983'
S'Nitish Rajput'
tp14
a(S'100000783019165'
S'Madhuri Arora'
tp15
a(S'100000622710420'
S'Sudeep Rana'
tp16
a(S'1518387769'
S'Ankit Animesh'
tp17
a(S'100001578157180'
S'Mavish Abas'
tp18
a(S'1208681661'
S'Shivansh Bhatnagar'
tp19
a(S'100001320529746'
S'Mohit Kadian'
tp20
a(S'1126760149'
S'Inderpreet Singh'
tp21
a(S'601608144'
S'Aditi Arya'
tp22
a(S'1060906173'
S'Rishi Negi'
tp23
a(S'754741222'
S'Arya Vijayan'
tp24
a(S'691691186'
S'Samraat Sharma'
tp25
a(S'100000045865396'
S'Sarthak Yadav'
tp26
a(S'824956247'
S'Anish Vohra'
tp27
a(S'522653131'
S'Satyam Nayyar'
tp28
a(S'826089921'
S'Aman Dev'
tp29
a(S'622761351'
S'Nilisha Singh'
tp30
a(S'100000010159277'
S'Sushant Singh Yadav'
tp31
a(S'1057705644'
S'Ramandeep Malhotra'
tp32
a(S'100000044575279'
S'Amol Agarwal'
tp33
a(S'100001277995070'
S'Anubhav Bhardwaj'
tp34
a(S'697297291'
S'Radhika Nair'
tp35
a(S'597671845'
S'Jatin Cchhabra'
tp36
a(S'100000580346237'
S'Kosha Patel'
tp37
a(S'100000775697983'
S'Yatin Chawla'
tp38
a(S'1188005954'
S'Akhil Brahmandam'
tp39
a(S'566353950'
S'Eshaan Khosla'
tp40
a(S'1040528758'
S'Ritvik Tiwari'
tp41
a(S'1563997220'
S'Anahita Jhunja'
tp42
a(S'530240252'
S'Vikas Jawa'
tp43
a(S'1514414601'
S'Arwal Dhar'
tp44
a(S'705860640'
S'Pallavi Pathania'
tp45
a(S'100003177289782'
S'Chunnu Chaudhary'
tp46
a(S'100000125853930'
S'Akshay Ahuja'
tp47
a(S'807310178'
S'Nikhil Tandon'
tp48
a(S'100000800312116'
S'Mansi Gupta'
tp49
a(S'100001713967409'
S'Ashwin Chauhan'
tp50
a(S'100000660994462'
S'Arnav Dev'
tp51
a(S'1068410058'
S'Deblina Das'
tp52
a(S'1527156388'
S'Harsh Vardhan'
tp53
a(S'100000090173109'
S'Saurabh Chhabra'
tp54
a(S'1624903428'
S'Varun Singh'
tp55
a(S'100002218235945'
S'Supriya Sharma'
tp56
a(S'1365763581'
S'Hamsa Raina'
tp57
a(S'1344302077'
S'Shrutii Mantri'
tp58
a(S'100002009701539'
S'Manish Parashar'
tp59
a(S'100005732320000'
S'Malvika Sharma'
tp60
a(S'531193717'
S'Kartik Sharma'
tp61
a(S'523339881'
S'Prachi Chaudhary'
tp62
a(S'1073035709'
S'Prakash Pandey'
tp63
a(S'100000945004451'
S'Tannaz Sidhu'
tp64
a(S'529947407'
S'Vibhor Gupta'
tp65
a(S'523969047'
S'Mohit Chauhan'
tp66
a(S'100002084613478'
S'Sahil Delu'
tp67
a(S'799498237'
S'Manideepa Shekhar'
tp68
a(S'1016803198'
S'Tisha Ann Joseph'
tp69
a(S'100005844849062'
S'Climb Up'
tp70
a(S'100001169900148'
S'Kaushik Shivam'
tp71
a(S'100004045038426'
S'Sakshi Singh'
tp72
a(S'725860635'
S'Armaan Ali Sayed'
tp73
a(S'1344200409'
S'Tanvi Varshney'
tp74
a(S'100002060687526'
S'Amela Becirovic'
tp75
a(S'100000654275775'
S'Akhil Sharma'
tp76
a(S'100000179950033'
S'Vineeta Abhishek Dhillon'
tp77
a(S'100000174466039'
S'Rishabh Kumar'
tp78
a(S'1059215328'
S'Anchit Kapoor'
tp79
a(S'620887802'
S'Yash Choubey'
tp80
a(S'724776827'
S'Ashna Chhabra'
tp81
a(S'100001267047982'
S'Tushar Chaudhary'
tp82
a(S'672494002'
S'Prerit Chandok'
tp83
a(S'1454210442'
S'Kamna Sen'
tp84
a(S'100001409202651'
S'Radhika Goel'
tp85
a(S'100001314812953'
S'Gaurav Lega'
tp86
a(S'100002823167002'
S'Varuni Chaudhary'
tp87
a(S'714510612'
S'Siddhant Sharma'
tp88
a(S'1332085317'
S'Deepak Rana'
tp89
a(S'577666318'
S'Puneet Yadav'
tp90
a(S'100000736427590'
S'Moksh Amorph Sharma'
tp91
a(S'100004030800469'
S'Kajal Singh'
tp92
a(S'760363833'
S'Priyanka Chugh'
tp93
a(S'1323450236'
S'\\u0905\\u092d\\u093f\\u0937\\u0947\\u0915 \\u092e\\u0932\\u093f\\u0915'
tp94
a(S'596621347'
S'Titiksha Bajaj'
tp95
a(S'1789633686'
S'Varun Gulia'
tp96
a(S'1666057552'
S'Ashish Thakran'
tp97
a(S'100001565952809'
S'Devaang Mehrotra'
tp98
a(S'100000443858422'
S'Aditi Khera'
tp99
a(S'100001043437856'
S'Deven Aswal'
tp100
a(S'100002137455206'
S'Deepak Malhotra'
tp101
a(S'1635876089'
S'Aksh Jayaswal'
tp102
a(S'731551339'
S'Shubham Pratap Singh'
tp103
a(S'1195441633'
S'Shiva Harsh Saikia'
tp104
a(S'781067228'
S'Rushil Dev'
tp105
a(S'100000536237086'
S'Arun Poswal'
tp106
a(S'100006046809764'
S'Kavita Mishra'
tp107
a(S'1645957329'
S'Aakash Thakran'
tp108
a(S'100001185933603'
S'Mayur Bisht'
tp109
a(S'636556048'
S'Anuj Datta'
tp110
a(S'715020584'
S'Dhruv Arora'
tp111
a(S'618578226'
S'Rashim Khanna'
tp112
a(S'1283930688'
S'Ajla Becirovic'
tp113
a(S'1492163139'
S'Varun Sharawat'
tp114
a(S'761793114'
S'Rishabh Lohia'
tp115
a(S'100001067317384'
S'Prabhsharan Singh'
tp116
a(S'611497082'
S'Jitesh Wani'
tp117
a(S'733366910'
S'Saurabh Sharma'
tp118
a(S'100001381290282'
S'Ayushi Malik'
tp119
a(S'1566830393'
S'Maria Paul'
tp120
a(S'651923583'
S'Sanya Arora'
tp121
a(S'100000403891352'
S'Garima Ladwal'
tp122
a(S'100003156729239'
S'Christian Castro Jaimes'
tp123
a(S'1272016175'
S'Raghvendra Singh'
tp124
a(S'722733433'
S'Karan Rana'
tp125
a(S'1346334638'
S'Ankit Aggarwal'
tp126
a(S'1066939556'
S'Aditya Gupta'
tp127
a(S'1738766429'
S'Vineet Dixit'
tp128
a(S'1508704294'
S'Divya Shukla'
tp129
a(S'1690706695'
S'Avinash Sheoran'
tp130
a(S'1805603870'
S'Tanmay Sharma'
tp131
a(S'100000029376752'
S'Sujata THakran'
tp132
a(S'742265313'
S'Akhil Rao'
tp133
a(S'1809926912'
S'Harsh Sharma'
tp134
a(S'100000212466575'
S'Gaurav Kumar'
tp135
a(S'1461458624'
S'Shiven Luthra'
tp136
a(S'100000843492449'
S'Paritosh Vats'
tp137
a(S'100001886308508'
S'Paritosh Dhawan'
tp138
a(S'1305885898'
S'Vivek Chaudhuri'
tp139
a(S'100000194770889'
S'Vipin Tanwar'
tp140
a(S'577620323'
S'Shakti Sangwan'
tp141
a(S'1346181184'
S'Sheldon Philips'
tp142
a(S'100000963394457'
S'Tushar Kalra'
tp143
a(S'1661407120'
S'Parth Yadav'
tp144
a(S'1666896909'
S'Siddharth Sharma'
tp145
a(S'733652056'
S'Karan Jaswal'
tp146
a(S'1249982927'
S'Saikruth Rao'
tp147
a(S'1429622370'
S'Advait Jayant'
tp148
a(S'601005110'
S'Abhishaik Sud'
tp149
a(S'100000035179021'
S'Chinmay Sharma'
tp150
a(S'100003975683209'
S'Jyoti Rao'
tp151
a(S'100000137170324'
S'Mitul Aggarwal'
tp152
a(S'1162402450'
S'Baani Singh'
tp153
a(S'100000770014388'
S'Umesh Tiwari'
tp154
a(S'10105208'
S'Whitney Hollis'
tp155
a(S'100000987388843'
S'Sahil Fattehia'
tp156
a(S'752989604'
S'Pranshu Rathee'
tp157
a(S'100000138142718'
S'Sunny Jaiswal'
tp158
a(S'100002567423027'
S'Sanchita Sharma'
tp159
a(S'100002513067860'
S'Shreya Sangri'
tp160
a(S'100001686462198'
S'Saarthak Ghosh'
tp161
a(S'100000768873511'
S'Shruti Kaushik'
tp162
a(S'100000152396490'
S'Pranshu Singh Yadav'
tp163
a(S'1753070500'
S'Animesh Katiyar'
tp164
a(S'1520777868'
S'Sk Rajawat'
tp165
a(S'1718359818'
S'Tanushree Sharma'
tp166
a(S'100006225846853'
S'Taru Tekriwal'
tp167
a(S'1033052326'
S'Mohit Yadav'
tp168
a(S'510067654'
S'Mathew Paul Vadakkel'
tp169
a(S'1615130218'
S'Harsh Bhardwaj'
tp170
a(S'100002102492035'
S'Sahil Delu'
tp171
a(S'1797897715'
S'Yuvraj Francis'
tp172
a(S'1693437267'
S'Mandeep Kalra'
tp173
a(S'1318413840'
S'Vimarsh Dwivedi'
tp174
a(S'1041927103'
S'Tarushi Ravindra'
tp175
a(S'524140143'
S'Arindum Sharan'
tp176
a(S'100000377186229'
S'Tushar Malik'
tp177
a(S'1243810193'
S'Rajesh Kumar Jena'
tp178
a(S'100002100098767'
S"Sharen D'souza"
tp179
a(S'1660099251'
S'Sandeep Dhanda'
tp180
a(S'1759875312'
S'Rohit Bindal'
tp181
a(S'723578724'
S'Jatin Arora'
tp182
a(S'709347791'
S'Siddarth Sharma'
tp183
a(S'100000902745503'
S'Harsh Siwach'
tp184
a(S'1704619804'
S'Raunaq Khanna'
tp185
a(S'100000544705018'
S'Deepak Kumar'
tp186
a(S'100001232910056'
S'Bhanu Saini'
tp187
a(S'1636691041'
S'Siddhant Kaushik'
tp188
a(S'539448375'
S'Paritosh Dhawan'
tp189
a(S'617783367'
S'Pushi Singh Mudarh'
tp190
a(S'100002181177171'
S'Himanshu Dagar'
tp191
a(S'1467901885'
S'Yuvraj Singh Tyagi'
tp192
a(S'100000162881055'
S'Sonia Panchal'
tp193
a(S'100001218552788'
S'Aman Chaudhary'
tp194
a(S'838275135'
S'Chirag Deswal'
tp195
a(S'1535479330'
S'Yugaastha Saxena'
tp196
a(S'1734579726'
S'Deepanshu Juneja'
tp197
a(S'1666912809'
S'Neha Raval'
tp198
a(S'100000103122403'
S'Maggie Bisht'
tp199
a(S'1589061647'
S'Rohan Singh'
tp200
a(S'1001316862'
S'Karanvir Singh'
tp201
a(S'100000023197777'
S'Shantam Sharma'
tp202
a(S'606061218'
S'Vineet Vashist'
tp203
a(S'1237448500'
S'Alpana Gupta'
tp204
a(S'1076706890'
S'Akshit Chhabra'
tp205
a(S'100000470425120'
S'Innovative Athletes'
tp206
a(S'1678266844'
S'Dron Mahendran'
tp207
a(S'665354720'
S'Mahir Vivek Sood'
tp208
a(S'891920446'
S'Tushar Gupta'
tp209
a(S'100003016867950'
S'Deepak Sharma'
tp210
a(S'100004878974012'
S'Deeksha Upadhyay'
tp211
a(S'1382573139'
S'Utkarsh Priyadarshi'
tp212
a(S'665309538'
S'Ritvik Syal'
tp213
a(S'525030614'
S'Aayush Khare'
tp214
a(S'639683015'
S'Shivam Jha'
tp215
a(S'100000089578911'
S'Dee Bee'
tp216
a(S'100003507495600'
S'Avni Yadav'
tp217
a(S'100001759400569'
S'Tayesha Raghuvanshi'
tp218
a(S'724859011'
S'Alisha Vij'
tp219
a(S'1806772046'
S'Vinayaditya Reddy'
tp220
a(S'100001569426513'
S'Sudhanshu Chakravarty'
tp221
a(S'1282945732'
S'Shamsher Singh'
tp222
a(S'100000771236913'
S'Janani SV'
tp223
a(S'100001166069282'
S'Sachin Yadav'
tp224
a(S'100000951946470'
S'Lakshay Chaudhary'
tp225
a(S'100000305100990'
S'Anshul Tyagi'
tp226
a(S'1645640382'
p227
S'Arjoonn Sharma'
tp228
a(S'697290476'
S'Arihant Sethia'
tp229
a(S'753608209'
S'Cybill Maria Sabu'
tp230
a(S'625543804'
S'Aayush Celly'
tp231
a(S'1224661475'
S'Mikasha Sinha'
tp232
a(S'1348601630'
S'Umesh Malik'
tp233
a(S'1189012542'
S'Jash Gill'
tp234
a(S'670514872'
S'Aman Mittal'
tp235
a(S'100000961351473'
S'Ajay Yadav'
tp236
a(S'1709878215'
S'Aryan Kataria'
tp237
a(S'1032847676'
S'Aditya Varma'
tp238
a(S'1123158250'
S'Divye Gupta'
tp239
a(S'1241681788'
S'Brinda Sharma'
tp240
a(S'1365931656'
S'Kshitij Kasturia'
tp241
a(S'1150747394'
S'Nupur More'
tp242
a(S'100001409313521'
S'Anway Somani'
tp243
a(S'1166564339'
S'Sagar Singh'
tp244
a(S'684614609'
S'Kartikeya Sharma'
tp245
a(S'100000535947638'
S'Prince Saini'
tp246
a(S'1569671728'
S'Akhil Sharma'
tp247
a(S'1389348019'
S'Pallavi Kumar'
tp248
a(S'1051289788'
S'Gaurav Gupta'
tp249
a(S'1727996235'
S'Manish Rawat'
tp250
a(S'100001032351940'
S'Minal Chaudhury'
tp251
a(S'1105805983'
S'Madhav Mathur'
tp252
a(S'1015119675'
S'Bhanu Pratap Singh'
tp253
a(S'763519407'
S'Navneet Mohan'
tp254
a(S'1740327255'
S'Rohit Rao'
tp255
a(S'771985231'
S'Vidur Gupta'
tp256
a(S'100001501620153'
S'Faraaz Kazi'
tp257
a(S'100001509099265'
S'Simran Kaur'
tp258
a(S'536115338'
S'Shubhi Tiwari'
tp259
a(S'1696465085'
S'Prankush Bansal'
tp260
a(S'1356381326'
S'Jai Singh'
tp261
a(S'1843672897'
S'Bharat Yadav'
tp262
a(S'753238031'
S'Sonika Chandok'
tp263
a(S'100000945004587'
S'Rohit Yadav'
tp264
a(S'100004145764270'
S'Namrata Khandelwal'
tp265
a(S'511650846'
S'Jitaksh Khanna'
tp266
a(S'100001349640866'
S'Rajat Kadiyan'
tp267
a(S'1316052235'
S'Surendra Singh Bhati'
tp268
a(S'100000353013716'
S'Virat Singh'
tp269
a(S'847875234'
S'Arjun Dogra'
tp270
a(S'1575387342'
S'Ayush Magow'
tp271
a(S'100003745307217'
S'Dhruv Barman'
tp272
a(S'528022614'
S'Siddharth Marya'
tp273
a(S'100002056969983'
S'Shaurya Saxena'
tp274
a(S'100001026668438'
S'Oxsanna Hellanna Jazzy Zelem'
tp275
a(S'1359874226'
S'Priyanka Bhagat'
tp276
a(S'555694883'
S'Rishaal Rajan'
tp277
a(S'1238368418'
S'Mehnaz Khan'
tp278
a(S'512112803'
S'Rohit Bakshi'
tp279
a(S'1172027929'
S'Mayank Manocha'
tp280
a(S'100000786002257'
S'Neha Pandey'
tp281
a(S'100006256238169'
S'Sarthak Haandizz Bansal'
tp282
a(S'100001245335942'
S'Jennis Fernandez'
tp283
a(S'100001465489881'
S'Mohit Nagpal'
tp284
a(S'662755615'
S'Chaitanya Prakash DhillAn'
tp285
a(S'100001025537780'
S'Sudeep Sharma'
tp286
a(S'100000307770810'
S'LLuv Vaid'
tp287
a(S'795059742'
S'Arjan Sharma'
tp288
a(S'100000069663640'
S'Hargun Kohli'
tp289
a(S'100000940058969'
S'Jatin Ahuja'
tp290
a(S'1695481516'
S'Tavish Ahlawat'
tp291
a(S'510084865'
S'Ravi Kulsreshtha'
tp292
a(S'100002484490195'
S'Purnima Dagar'
tp293
a(S'1608306694'
S'Ayush Gupta'
tp294
a(S'681171675'
S'Puru Malik'
tp295
a(S'100000986515549'
S'Daksh Jaiswal'
tp296
a(S'1249013571'
S'Amber Grover'
tp297
a(S'1012303935'
S'Ahir Gupta'
tp298
a(S'736814616'
S'Manu Babu'
tp299
a(S'659418689'
S'Abhimanyu Kataria'
tp300
a(S'1247336274'
S'Akriti Narula'
tp301
a(S'100001587682456'
S'Sania Khan'
tp302
a(S'1313815784'
S'Varnit Vats'
tp303
a(S'1796719704'
S'Apoorva Somani'
tp304
a(S'1249520381'
S'Senaara Ailawadi'
tp305
a(S'1629579276'
S'Uday Manucha'
tp306
a(S'781612146'
S'Rachit Hooda'
tp307
a(S'719717230'
S'Ayush Dugar'
tp308
a(S'1549302437'
S'Seema Dalal'
tp309
a(S'100000016272569'
S'Mohammad Sanaullah'
tp310
a(S'1287837848'
S'Anushka Jain'
tp311
a(S'100002249859352'
S'Sahil Dahiya'
tp312
a(S'782368677'
S'Sauhard Gupta'
tp313
a(S'500926036'
S'Sehaj Jolly'
tp314
a(S'100000612144200'
S'Kunal Bhambhu'
tp315
a(S'698320035'
S'Kritin Kapoor'
tp316
a(S'696732702'
S'Aeman Inder Singh Narwal'
tp317
a(S'572660164'
S'Prashant Kurup'
tp318
a(S'713916486'
S'Sonali Jaiswal'
tp319
a(S'633331948'
S'Kaushal Raj'
tp320
a(S'509922326'
S'Tanvi Ajmani'
tp321
a(S'1013391423'
S'Suvanya Suhag'
tp322
a(S'673408831'
S'Deepak Dagar'
tp323
a(S'100001674363648'
S'Akash Bachchan'
tp324
a(S'601799275'
S'Rajesh Banyal'
tp325
a(S'1549608467'
S'Raghav Taneja'
tp326
a(S'781968208'
S'Garima Surya Singh'
tp327
a(S'100000502428455'
S'Dushyant Mahajan'
tp328
a(S'1846872201'
S'Shardul Dev Singh'
tp329
a(S'511624386'
S'Vyom Sati'
tp330
a(S'100000670877717'
S'Vasudev Chauhan'
tp331
a(S'100003666490896'
S'Surabhi Mitra'
tp332
a(S'1299815087'
S'Hannah Erwin'
tp333
a(S'100001291204837'
S'Shubham Gupta'
tp334
a(S'100001589592090'
S'Kartik Arora'
tp335
a(S'507419012'
S'Mrinal Sharma'
tp336
a(S'100000887960652'
S'Yashika Nijhawan'
tp337
a(S'1738217395'
S'Varun Kapoor'
tp338
a(S'100000189084963'
S'Simran Nayyar'
tp339
a(S'1352345692'
S'Gazal Juneja'
tp340
a(S'1224973240'
S'Sanjana Bharadwaj'
tp341
a(S'1208829841'
S'Shashank Shekhar'
tp342
a(S'682891030'
S'Saloni Tara'
tp343
a(S'100000265008592'
S'Aditya Pratap'
tp344
a(S'100001201496205'
S'Debasmita Pal'
tp345
a(S'100000751384418'
S'Aprajita Krishna'
tp346
a(S'100001546765760'
S'Shefali Lohia'
tp347
a(S'656337931'
S'Akshay Rao'
tp348
a(S'100004441633901'
S'Thecakeartiste Gurgaon'
tp349
a(S'1406029000'
S'Hemant Gulia'
tp350
a(S'736658725'
S'Ashutosh Dabas'
tp351
a(S'1621759556'
S'Ishan Piplani'
tp352
a(S'564473338'
S'Poorva Nangia'
tp353
a(S'1787722349'
S'Anjali Khanna'
tp354
a(S'632596770'
S'Namita Nair'
tp355
a(S'100001458691741'
S'Bader Talat'
tp356
a(S'100001029233289'
S'Sagar Sardana'
tp357
a(S'100002557318737'
S'Mayank Dahiya'
tp358
a(S'602135398'
S'Nandita Mohan'
tp359
a(S'100001171555297'
S'Rohit Kumar'
tp360
a(S'1453534747'
S'Chirag Kukreja'
tp361
a(S'1296491011'
S'Akash Malik'
tp362
a(S'1228051576'
S'Tushita Dogra'
tp363
a(S'100000617346587'
S'Chandni Saxena'
tp364
a(S'595181849'
S'Srajan Srivastava'
tp365
a(S'703921629'
S'Shubham Mathur'
tp366
a(S'100001797765147'
S'Baljeet Dagar'
tp367
a(S'100001218171784'
S'Gaurav Lega'
tp368
a(S'100005367810092'
S'Pranjuli Tiya Roy'
tp369
a(S'100003098310503'
S'Amit Sehrawat'
tp370
a(S'818458673'
S'Ruchir Goel'
tp371
a(S'1726151797'
S'Tanuj Sharma'
tp372
a(S'1347371126'
S'Eban Hyams'
tp373
a(S'100002037436339'
S'Rohit Gera'
tp374
a(S'100000023894971'
S'Nisha Chandra'
tp375
a(S'1307451698'
S'Abhilasha Guha'
tp376
a(S'1148696503'
S'Abhinav Dhiman'
tp377
a(S'100000141096198'
S'Sanjoli Sirohi'
tp378
a(S'1650852013'
S'Harsh Vardhan Yadav'
tp379
a(S'1322550832'
S'Siddhant Sahu'
tp380
a(S'100000024403508'
S'Yaduraj Singh Chauhan'
tp381
a(S'1496441718'
S'Karan Sud'
tp382
a(S'1773773613'
S'Udaydeep Jindal'
tp383
a(S'100003535720783'
S'Poornima Yadav'
tp384
a(S'100000372791633'
S'Vishwas Khatri'
tp385
a(S'100006289022759'
S'Aditya Gaur'
tp386
a(S'648645353'
S'Samarth Tuli'
tp387
a(S'696869839'
S'Yashasvi Balsavar'
tp388
a(S'535308352'
S'Armaan Shahanshah'
tp389
a(S'100001623761485'
S'Kshitij Nirjar'
tp390
a(S'1448798355'
S'Eshaan Sud'
tp391
a(S'100000883276715'
S'Avni Gupta'
tp392
a(S'100000288631217'
S'Michael Marrion'
tp393
a(S'100000140589995'
S'Sohail Iqbal'
tp394
a(S'1348333804'
S'Satvik Kumar'
tp395
a(S'728030639'
S'Tanya Kathpal'
tp396
a(S'100000012155031'
S'Smriti Nanda'
tp397
a(S'100000967873038'
S'Shivang Saxena'
tp398
a(S'1285978469'
S'Rakshit Shukla'
tp399
a(S'100000549770470'
S'Vinayak Prasad'
tp400
a(S'538592321'
S'Shashank Rathi'
tp401
a(S'100005345466308'
S'Ankit Jaiswal'
tp402
a(S'100002342304757'
S'Paras Sharma'
tp403
a(S'100002240778047'
S'Tanay Jain'
tp404
a(S'1709664785'
S'Pratik Sinha'
tp405
a(S'100000550191493'
S'Shifa Iqbal'
tp406
a(S'656475621'
S'Smrithi Senthilkumar'
tp407
a(S'100002675361178'
S'Lovemesh Yadav'
tp408
a(S'100001034671611'
S'Candy Singh'
tp409
a(S'1415755735'
S'Aishwarya Talluri'
tp410
a(S'100001227585865'
S'Neha Kaushik'
tp411
a(S'1126068052'
S'Vardaan Gupta'
tp412
a(S'1029171052'
S'Karan Jhunja'
tp413
a(S'1491125726'
S'Gagan Sehgal'
tp414
a(S'100001590300179'
S'Anjali Singh'
tp415
a(S'100002723240155'
S'Neha Bhandari'
tp416
a(S'1668945271'
S'Anurag Ghosh'
tp417
a(S'1219133639'
S'Nimish Abrol'
tp418
a(S'807332645'
S'Rahul Yadav'
tp419
a(S'1683465051'
S'Vidit Soni'
tp420
a(S'1520390965'
S'Vipin Yadav'
tp421
a(S'764954055'
S'Samir Bharadwaj'
tp422
a(S'1025143763'
S'Abhinav Yadav'
tp423
a(S'100000798422425'
S'Deepak Sharma'
tp424
a(S'1662819215'
S'Vinay Yadav'
tp425
a(S'1451798324'
S'Mudit Mehrishi'
tp426
a(S'1323130584'
S'Akshit Taragi'
tp427
a(S'100001358796874'
S'Tarun Tokas'
tp428
a(S'667467279'
S'Shivangi Banerjee'
tp429
a(S'1682183442'
S'Akhil Vohra'
tp430
a(S'533163953'
S'Aditya Jha'
tp431
a(S'100000175344672'
S'Surya Vishesh Dutta'
tp432
a(S'1088378343'
S'Aayush Kumar'
tp433
a(S'730925409'
S'Emmanuel James'
tp434
a(S'501504585'
S'Bijon Keswani'
tp435
a(S'561762130'
S'Ashima Bhatnagar'
tp436
a(S'698644458'
S'Richa Arya'
tp437
a(S'1524672056'
S'Sanyogita Kataria'
tp438
a(S'779432234'
S'Sagnik Ghosh'
tp439
a(S'100000042117543'
S'Nitin Sharma'
tp440
a(S'799755304'
S'Namrata Makhijani'
tp441
a(S'100000500421057'
S'Himanshu Sharma'
tp442
a(S'100001662064136'
S'Jatin Chopra'
tp443
a(S'100003708507427'
S'Pooja Singh'
tp444
a(S'728977390'
S'Prateek Sangwan'
tp445
a(S'100001438707550'
S'Rachana Takshak'
tp446
a(S'100000893076665'
S'Prateek Kakkar'
tp447
a(S'100000436238935'
S'Arzoo Anand'
tp448
a(S'772410036'
S'Reuben Jacob'
tp449
a(S'752583135'
S'Souham Biswas'
tp450
a(S'1431938813'
S'Ranvijay Singh Kaliraman'
tp451
a(S'669224860'
S'Deep Rana'
tp452
a(S'636035971'
S'Karishma Nandal'
tp453
a(S'542195268'
S'Parikshit Bawa'
tp454
a(S'1794540197'
S'Rohan Gera'
tp455
a(S'1062845375'
S'Angad Singh'
tp456
a(S'1117944738'
S'Sidharth Arora'
tp457
a(S'1302848255'
S'Varun Bansal'
tp458
a(S'577220124'
S'Pooja Bhagat'
tp459
a(S'100001256029278'
S'Prince Raghav'
tp460
a(S'100000906574714'
S'Abhishek Malhotra'
tp461
a(S'550771106'
S'Shubhankar Mathur'
tp462
a(S'780973987'
S'Madhuvanthi Senthilkumar'
tp463
a(S'100001209377310'
S'Vishesh Malik'
tp464
a(S'100004284514842'
S'Navpreet Singh Gill'
tp465
a(S'1021585502'
S'Mahi Sharma'
tp466
a(S'1066046001'
S'Chhaya Yadav'
tp467
a(S'100001343287663'
S'Anuksha Amla'
tp468
a(S'100000887688045'
S'Nitin Kapil'
tp469
a(S'644084890'
S'Akshay Behara'
tp470
a(S'546128967'
S'Saksham Jinsi'
tp471
a(S'100000456519626'
S'Bharat Yadav'
tp472
a(S'1087120385'
S'Rohan Sadana'
tp473
a(S'100000410738322'
S'SHubham CHaudhary'
tp474
a(S'100000559704952'
S'Khyati Saini'
tp475
a(S'1675124910'
S'Gaurav Nagri'
tp476
a(S'100000037762696'
S'Divij D Jay'
tp477
a(S'1240939751'
S'Akhil Tolani'
tp478
a(S'1084490560'
S'Aarushi Manaktala'
tp479
a(S'100004869096477'
S'Vishesh Singh Malik'
tp480
a(S'1299395924'
S'Neeraja Raju'
tp481
a(S'100000322207536'
S'Shikhar Golash'
tp482
a(S'1154735817'
S'Lovemesh Yadav'
tp483
a(S'100002060870426'
S'Anshul Yadav'
tp484
a(S'633700067'
S'Abhinav Goyal'
tp485
a(S'1696785994'
S'Abhimanyu Malik'
tp486
a(S'642101277'
S'Pratit Rawat'
tp487
a(S'1360809164'
S'Arav Jain'
tp488
a(S'1292359626'
S'Varun Yadav'
tp489
a(S'100000423236260'
S'Nari Kaur'
tp490
a(S'633352832'
S'Divesh Jolly'
tp491
a(S'1062229344'
S'Devesh Mohindroo'
tp492
a(S'610626907'
S'Soven Trehan'
tp493
a(S'100000275401990'
S'Anish Surana'
tp494
a(S'100000247007124'
S'Kritika Vaid'
tp495
a(S'100000724277532'
S'Ankit Grover'
tp496
a(S'697038681'
S'Aman Thakran'
tp497
a(S'1523349870'
S'Karan Nandal'
tp498
a(S'727533255'
S'Bhupender Singh Negi'
tp499
a(S'639932913'
S'Vipluv Chaudhary'
tp500
a(S'100002610721123'
S'Chandramauli Gupta'
tp501
a(S'661450715'
S'Hiteshwar Kochhar'
tp502
a(S'1369788863'
S'Abhishek Dhariwal'
tp503
a(S'511603261'
S'Inder Puri'
tp504
a(S'100001739242378'
S'Anshika Goel'
tp505
a(S'1231635038'
S'Manisha Sahni'
tp506
a(S'1200573617'
S'Trisha Singh'
tp507
a(S'100001184170055'
S'Yugal Jasvir Beniwal'
tp508
a(S'656498664'
S'Suvrat Khiwani'
tp509
a(S'100001269691061'
S'Prachi Bapna'
tp510
a(S'1058724125'
S'Chirantan Ghanekar'
tp511
a(S'100000181865114'
S'Rishabh Thakur'
tp512
a(S'1509341340'
S'Siddhant Bhise'
tp513
a(S'1316301064'
S'Shaurya Muttreja'
tp514
a(S'563570904'
S'Vidushi Jain'
tp515
a(S'1538331406'
S'Varun Singh Ahluwalia'
tp516
a(S'100001731127871'
S'Yogesh Saini'
tp517
a(S'563504491'
S'Harsh Malhotra'
tp518
a(S'100001995700296'
S'Priyanka Choudhary'
tp519
a(S'572435141'
S'Adhish Chhabra'
tp520
a(S'1650798145'
S'Abhijeet Singh'
tp521
a(S'1599151924'
S'Ahmed Dar'
tp522
a(S'100000020514483'
S'Lakshay Sharma'
tp523
a(S'100002086713585'
S'Parthavee Singh'
tp524
a(S'1210921656'
S'Nakul Chowdhary'
tp525
a(S'1051006929'
S'Mudita Yadav'
tp526
a(S'1468207983'
S'Vidhi Arora'
tp527
a(S'1770446057'
S'Jatin Girotra'
tp528
a(S'1471346718'
S'Lakshay Verma'
tp529
a(S'100004360658229'
S'Priya Arora'
tp530
a(S'100001147245166'
S'Vijay Raj'
tp531
a(S'1593215535'
S'Tushar Rana'
tp532
a(S'1490593106'
S'Triveni Mohan Wahi'
tp533
a(S'100001695903374'
S'Dishant Arora'
tp534
a(S'100000027585222'
S'Malaika Nangia'
tp535
a(S'100000118213104'
S'Bharat Bhandari'
tp536
a(S'100000708925409'
S'Aishwarya Nair'
tp537
a(S'100000078210021'
S'Prince Alam'
tp538
a(S'1653474942'
S'Disha Dahiya'
tp539
a(S'1393452092'
S'Ritu Sharma'
tp540
a(S'100000546731349'
S'Manvi Chahar'
tp541
a(S'1664384517'
S'Vaishali Hariramani'
tp542
a(S'100000515899574'
S'Rohit Dagar'
tp543
a(S'1507383172'
S'Rohit Rao'
tp544
a(S'1743166042'
S'Aishwarya Borgohain'
tp545
a(S'100000015772088'
S'Sana Khan'
tp546
a(S'100001807432068'
S'Shreya Ak'
tp547
a(S'100001059493651'
S'Shuvoneel Chakraborty'
tp548
a(S'100001058227577'
S'Raman Krishan'
tp549
a(S'1028296426'
S'Reemo Banerjee'
tp550
a(S'632749023'
S'Aastha Ganjoo'
tp551
a(S'1520958228'
S'Nikita Goyal'
tp552
a(S'100002450968983'
S'Nidhi Chaudhary'
tp553
a(S'751825441'
S'Deeksha Sharma'
tp554
a(S'1256056098'
S'Sarthak Kapoor'
tp555
asS'id'
p556
S'533148969'
p557
sS'name'
p558
S'Rohit Yadav'
p559
s.