(dp1
S'name'
p2
S'Bhavya Bishnoi'
p3
sS'current_class'
p4
S'india'
p5
sS'home_text'
p6
VMandi Adampur, India\u000aHometown
p7
sS'current_link'
p8
Vhttps://www.facebook.com/l.php?u=https%3A%2F%2Fwww.bing.com%2Fmaps%2Fdefault.aspx%3Fv%3D2%26pc%3DFACEBK%26mid%3D8100%26where1%3D28.613900916609%252C%2B77.207794189453%26name%3DNew%2BDelhi%252C%2BIndia%26mkt%3Den-IN&h=8AQFN85pf&s=1
p9
sS'home_link'
p10
Vhttps://www.facebook.com/l.php?u=https%3A%2F%2Fwww.bing.com%2Fmaps%2Fdefault.aspx%3Fv%3D2%26pc%3DFACEBK%26mid%3D8100%26where1%3D29.283100308815%252C%2B75.467834472656%26name%3DMandi%2BAdampur%252C%2BIndia%26mkt%3Den-IN&h=NAQHJDXst&s=1
p11
sS'current_text'
p12
VNew Delhi, India\u000aCurrent City
p13
sS'friends'
p14
(lp15
(S'665863633'
S'Arjun Khajuria'
tp16
a(S'525140593'
S'Nirmal Nandwani'
tp17
a(S'760654251'
S'Sarthak Khandelwal'
tp18
a(S'1163067521'
S'Sonu Dasgupta'
tp19
a(S'1328184761'
S'Tanushree Tangri'
tp20
a(S'519670593'
S'Aoi Watanabe'
tp21
a(S'1080872787'
S'Ojaswi Tagore'
tp22
a(S'523495360'
S'Kriti Bansal'
tp23
a(S'100001166184802'
S'Sidak Kaur'
tp24
a(S'510132392'
S'Shrey Gupta'
tp25
a(S'522850090'
S'Apoorva Bhumesh Avasthi'
tp26
a(S'1526066161'
S'Manoviraj Singh'
tp27
a(S'671507582'
S'Shaun Andrady'
tp28
a(S'653127789'
S'Shohini Dasgupta'
tp29
a(S'1199062612'
S'Nihar Kantipudi'
tp30
a(S'100001271111327'
S'Chander Thapa Raczz'
tp31
a(S'579020982'
S'Nitin Saluja'
tp32
a(S'100001759194922'
S'Varshu Gill'
tp33
a(S'749875261'
S'Christopher Riddick'
tp34
a(S'1466531257'
S'Shiv Tokas'
tp35
a(S'651860901'
S'Uday Bajaj'
tp36
a(S'557295144'
S'Pranav Vikram Shriram'
tp37
a(S'100002665601321'
S'Lse SU Sabbatical Officers'
tp38
a(S'651698763'
S'Pakhi Sen'
tp39
a(S'664036055'
S'Unmukt Chand'
tp40
a(S'759610014'
S'Somya Vardhan Azad'
tp41
a(S'1406483217'
S'Bhagyesh Parna'
tp42
a(S'880490275'
S'Hindpal Ahuja'
tp43
a(S'1817730190'
S'Shreshtha Gupta'
tp44
a(S'560675633'
S'Karan Wahie'
tp45
a(S'680310819'
S'Apoorvi Mittal'
tp46
a(S'785640549'
S'Shivangi Singh'
tp47
a(S'753768930'
S'Divyani Kohli'
tp48
a(S'100001623053952'
S'Ritu Poonia'
tp49
a(S'100000278496979'
S'Anmol Arora'
tp50
a(S'705042387'
S'Aditya Mittal'
tp51
a(S'100000212767975'
S'Ipsitaa Khullar'
tp52
a(S'1654351498'
S'Yogesh Choudhry'
tp53
a(S'752461817'
S'Kratu Narain Beri'
tp54
a(S'533750065'
S'Laura McGlone'
tp55
a(S'510270780'
S'Devika Swarup'
tp56
a(S'572560045'
S'Tarannum Marya'
tp57
a(S'509711128'
S'Preksha Shah'
tp58
a(S'511678865'
S'Bharat Murria'
tp59
a(S'1423481257'
S'Yash Jain'
tp60
a(S'522176795'
S'Lipika Gupta'
tp61
a(S'567580476'
S'Vaishali Bansal'
tp62
a(S'618625277'
S'Ekant Tyagi'
tp63
a(S'100001448188333'
S'Karan Kapur'
tp64
a(S'516644160'
S'Jyotveer Singh'
tp65
a(S'802921257'
S'Devisha Kumari Singh'
tp66
a(S'585130400'
S'Abul Fazal'
tp67
a(S'100000009999135'
S'Jyotica Singh'
tp68
a(S'100005681649023'
S'Anya Ghosh'
tp69
a(S'512638093'
S'Rahul Nariani'
tp70
a(S'772320250'
S'Chandrika Chahar'
tp71
a(S'100001285613480'
S'Madhav Gujral'
tp72
a(S'600136558'
S'Ashvin Lakhwani'
tp73
a(S'553138278'
S'Brinda Ohri'
tp74
a(S'517096546'
S'Surina Kakkar'
tp75
a(S'100002817844375'
S'Siddharth Shihn'
tp76
a(S'518225442'
S'Firdaus Kishwar'
tp77
a(S'1337216308'
S'Ritu Kataria'
tp78
a(S'1075686392'
S'Raghav Sood'
tp79
a(S'100000554021676'
S'Usama Kamaal'
tp80
a(S'501097565'
S'Kabir A. Uppal'
tp81
a(S'516587852'
S'Sakshi Mathur'
tp82
a(S'1259726156'
S'Samarth Singal'
tp83
a(S'100002904863698'
S'Advait Jasoria'
tp84
a(S'757440031'
S'Vir Kullar'
tp85
a(S'608783560'
S'Amar Pandey'
tp86
a(S'705155715'
S'Kabir Rikhy'
tp87
a(S'100003698226212'
S'Divisha Mehta'
tp88
a(S'805674819'
S'Anavi Kajla'
tp89
a(S'508702202'
S'Abhimanyu Mullick'
tp90
a(S'1282056263'
S'Aman Khanna'
tp91
a(S'1068634653'
S'Mukul Kashyap'
tp92
a(S'1098280808'
S'Sugandha Dhawan'
tp93
a(S'546536840'
S'Sharmi Palit'
tp94
a(S'1014191357'
S'Sanna Katyal'
tp95
a(S'718600396'
S'Karthik Nagarajan'
tp96
a(S'1374328215'
S'Yvette VD'
tp97
a(S'1024761848'
S'Ishan Sharma'
tp98
a(S'510830287'
S'Zunaili Malik'
tp99
a(S'502747950'
S'Tara Sandhu'
tp100
a(S'829330572'
S'Anish Ahuja'
tp101
a(S'773970023'
S'Bani Nanda'
tp102
a(S'1657795829'
S'Aakaar Gandhi'
tp103
a(S'639411397'
S'Aman Kapur'
tp104
a(S'1258337117'
S'Arjun Sen'
tp105
a(S'100002083686678'
S'Tamal Dutta'
tp106
a(S'100003954109725'
S'Vaanyasri Goel'
tp107
a(S'37002780'
S'Michael Yap'
tp108
a(S'545581992'
S'Aditi Sarao'
tp109
a(S'512468194'
S'Armaan Sarkar'
tp110
a(S'505693063'
S'Parul Datta'
tp111
a(S'218301052'
S'Suruchi Kataria Chugh'
tp112
a(S'627040284'
S'Pallavi Dixit'
tp113
a(S'100002873196449'
S'Upe Francisca Francisca Sanni'
tp114
a(S'100000851283862'
S'Suvansh Srivastava'
tp115
a(S'515513648'
S'Tiraana Bains'
tp116
a(S'512345293'
S'Anvisha Pai'
tp117
a(S'1621309167'
S'Ekansh Chakravarty'
tp118
a(S'676745076'
S'Mar\\u00eda Paulina Baena'
tp119
a(S'100000818933473'
S'Siddharth Bhargava'
tp120
a(S'100006057008284'
S'Zane M New'
tp121
a(S'636319805'
S'Nishit Agarwal'
tp122
a(S'581952111'
S'Krittika Paul'
tp123
a(S'596182110'
S'Shruti Tantia'
tp124
a(S'516756150'
S'Gaia Giammusso'
tp125
a(S'1417655813'
S'Kritvi Rana'
tp126
a(S'560920582'
S'Damani Bishnoi'
tp127
a(S'794535444'
S'Aadityaa Kapadia'
tp128
a(S'1585622493'
S'Bhavya Sethi'
tp129
a(S'100000069447475'
S'Diksha Kaul'
tp130
a(S'1178215598'
S'Kyra Erika Agarwal'
tp131
a(S'1663686205'
S'Raghav Dutt'
tp132
a(S'897780502'
S'Nikhil Shah'
tp133
a(S'1348883673'
S'Aditya Singh'
tp134
a(S'726115720'
S'Samarth Gupta'
tp135
a(S'1342776798'
S'Sam Monk'
tp136
a(S'507875096'
S'Sumer Singh Malli'
tp137
a(S'1816032366'
S'Gurfateh Singh Pirzada'
tp138
a(S'626250466'
S'Aman Pratap'
tp139
a(S'100000229072943'
S'Asmita Hajra'
tp140
a(S'511440654'
S'Sahil Jain'
tp141
a(S'587976694'
S'Ravish Rawal'
tp142
a(S'100000228788803'
S'Gunbir Singh Chadha'
tp143
a(S'501313456'
S'Gayatri Singh'
tp144
a(S'685675335'
S'Rukmini Kapoor'
tp145
a(S'509382318'
S'Bhavya Narang'
tp146
a(S'517916255'
S'Aditya Tandon'
tp147
a(S'684601156'
S'Karan Harit'
tp148
a(S'745660229'
S'Adhiraj Sirohi'
tp149
a(S'1639770828'
S'Shaurya Vikram'
tp150
a(S'100007029819280'
S'Ridhi Singh'
tp151
a(S'640894332'
S'Gareth Robinson'
tp152
a(S'768850789'
S'Amla Saraf'
tp153
a(S'100000345837207'
S'Kushagra Aniket'
tp154
a(S'100002388518306'
S'Shyla Singh'
tp155
a(S'1626270011'
S'Aditya Narayan'
tp156
a(S'541549262'
S'Karan Chandidas'
tp157
a(S'100003983811006'
S'Urvi Kalra'
tp158
a(S'776236806'
S'Rhea Kumar'
tp159
a(S'507925287'
S'Karan Chaudhary'
tp160
a(S'100001673928565'
S'Aarushi Malhotra'
tp161
a(S'1009576647'
S'Krishnan Puri Sudhir'
tp162
a(S'850845596'
S'Vanshica Kant'
tp163
a(S'517771871'
S'Zayn Lohit'
tp164
a(S'100001206194315'
S'Jaspreet Dhingra'
tp165
a(S'757508490'
S'Ujjwal Sagar'
tp166
a(S'1175700885'
S'Saanya Sarin'
tp167
a(S'1105306837'
S'Navraj Singh'
tp168
a(S'100005323183106'
S'Inderjit Sambha'
tp169
a(S'897565025'
S'Saurabh Bhatia'
tp170
a(S'635111927'
S'Aradhana Dhawan'
tp171
a(S'516345170'
S'Mohammed Ali Mir'
tp172
a(S'670495471'
S'Rishi Patel'
tp173
a(S'507211145'
S'Tania Kohli'
tp174
a(S'1527500534'
S'Utkarsh Gupta'
tp175
a(S'100002256428924'
S'Pooja Sharma'
tp176
a(S'514504545'
S'Kriti Paul-Gera'
tp177
a(S'720138660'
S'Arjun Madhavan'
tp178
a(S'1151592217'
S'Tarini Khurana'
tp179
a(S'617350034'
S'Ishaan Gill'
tp180
a(S'100001245458324'
S'Bhawani Singh Rathore'
tp181
a(S'725615355'
S'Samya Singh'
tp182
a(S'525290244'
S'Usman Trumboo'
tp183
a(S'1072538190'
S'Elangkumaran Jayabarathi'
tp184
a(S'628576768'
S'Sanam Arora'
tp185
a(S'100000377348955'
S'Suchet Vir Singh'
tp186
a(S'677751370'
S'Tom Brand Meaden'
tp187
a(S'100001349796769'
S'Nayana Singh'
tp188
a(S'629171817'
S'Saurav Anand'
tp189
a(S'894475262'
S'Ananya Varma'
tp190
a(S'511460665'
S'Madhur Usgaonkar'
tp191
a(S'530251203'
S'Divya Bajaj'
tp192
a(S'100002861726485'
S'Izmir Bajrami'
tp193
a(S'780685157'
S'Fareeha Mufti'
tp194
a(S'100000356963640'
S'Ayesha Mishra'
tp195
a(S'767492597'
S'Niv Rajendra'
tp196
a(S'1624672523'
S'Yamini Kapoor'
tp197
a(S'514354528'
S'Carol Augustine Benito'
tp198
a(S'841438235'
S'Simar Deol'
tp199
a(S'584880392'
S'Amy Trynka'
tp200
a(S'761042867'
S'Mohammad Shahab Khan'
tp201
a(S'1240350253'
S'Kanika Malhotra'
tp202
a(S'654580690'
S'Maithilee Zaveri'
tp203
a(S'696211211'
S'Kunal Gupta'
tp204
a(S'710654224'
S'Vince Wong'
tp205
a(S'1663696084'
S'Mishaal Shetty'
tp206
a(S'100001458517571'
S'Karan Mann'
tp207
a(S'1019007498'
S'Manit Tuli'
tp208
a(S'722965651'
S'Rohin Dubey'
tp209
a(S'100000506525751'
S'Sarvash Kalra'
tp210
a(S'646965646'
S'Anam Afridi'
tp211
a(S'1413938755'
S'Mahima Singh'
tp212
a(S'579959829'
S'Abhiraj Chadha'
tp213
a(S'594853794'
S'Satyaki Yadav'
tp214
a(S'654782819'
S'Ankrish Kapur'
tp215
a(S'685840522'
S'Cristina Espinal'
tp216
a(S'1045071530'
S'Abhishek Sankritik'
tp217
a(S'100000220691641'
S'Aarzoo Bedi'
tp218
a(S'801904744'
S'Pretika Khanna'
tp219
a(S'677990690'
S'Elsa Mou'
tp220
a(S'701150606'
S'Umang Gupta'
tp221
a(S'100000341197431'
S'Saisha Sethi'
tp222
a(S'504253429'
S'Abhishek Khurana'
tp223
a(S'1271501157'
S'Prakriti Singh'
tp224
a(S'1346437143'
S'Prakhar Baveja'
tp225
a(S'540596245'
S'Abiali Shaikh'
tp226
a(S'1186602452'
S'Vrinda Ahuja'
tp227
a(S'1838316514'
S'Anup Desai'
tp228
a(S'596890680'
S'Kell Ye'
tp229
a(S'1374169422'
S'Ikram Vir Singh'
tp230
a(S'100001453301403'
S'Rhea Daulet-Singh'
tp231
a(S'100001420545302'
S'Ritvik Verma'
tp232
a(S'553579724'
S'Samantha Fergusson'
tp233
a(S'691272011'
S'Lee David Evans'
tp234
a(S'1591393962'
S'Shivam Bakshi'
tp235
a(S'641151097'
S'Holly Brentnall'
tp236
a(S'100000195852884'
S'Deia Puri'
tp237
a(S'538120292'
S'Dhruv Gurwara'
tp238
a(S'1301399167'
S'Aakriti Paul'
tp239
a(S'559602845'
S'Aditya Ranjan'
tp240
a(S'1464864789'
S'Sanzhar Baisakalov'
tp241
a(S'795705227'
S'Rhea Juneja'
tp242
a(S'1782259482'
S'Rishabh Chauhan'
tp243
a(S'561680446'
S'Vanya Lalljee'
tp244
a(S'1593446626'
S'Yash Gaur'
tp245
a(S'539826335'
S'Venayak Saran Gupta'
tp246
a(S'100002337932825'
S'Abhishek Sharma'
tp247
a(S'100000430169110'
S'Nishita Malhotra'
tp248
a(S'721005562'
S'Ajay Yadav'
tp249
a(S'100003154306609'
S'Kartika Ahuja'
tp250
a(S'506931697'
S'Esh Subherwal'
tp251
a(S'718125563'
S'Chaitanya Raoul Ralli'
tp252
a(S'699190997'
S'Suraj Lalvani'
tp253
a(S'621571010'
S'Devaki Handa'
tp254
a(S'511127971'
S'Siddharth Vohra'
tp255
a(S'1252877465'
S'Nihal Dhar'
tp256
a(S'100003185161391'
S'Sakshi Sharma'
tp257
a(S'768725507'
S'Mahima Sharma'
tp258
a(S'694060117'
S'Avinash Rao'
tp259
a(S'845935152'
S'William Clare'
tp260
a(S'1694191454'
S'Vignesh Rajasekaran'
tp261
a(S'1065017180'
S'Ranjini Nair'
tp262
a(S'508461070'
S'Abhay Chadha'
tp263
a(S'100000179046801'
S'Tarini Gupta'
tp264
a(S'100003188670047'
S'Delhicricket Tournaments'
tp265
a(S'100002095836639'
S'Tashwita Pruthi'
tp266
a(S'676716928'
S'Atia Sen'
tp267
a(S'621846676'
S'Armaan Mittal'
tp268
a(S'1316946711'
S'Arushi Sahai'
tp269
a(S'100003088037192'
S'Chetan Chopra'
tp270
a(S'100001224872335'
S"Uzair 'Uzee' Alam"
tp271
a(S'618789622'
S'Tarini Unnikrishnan'
tp272
a(S'1319544880'
S'Pranya Uberoi'
tp273
a(S'1398859138'
S'Ananda Dhar-James'
tp274
a(S'1065574088'
S'Anmol Handa'
tp275
a(S'1619779732'
S'Ksheerja Batra'
tp276
a(S'516451167'
S'Aman Chopra'
tp277
a(S'1197679655'
S'Aakash Bajaj'
tp278
a(S'1181532498'
S'Trisha Chattopadhyay'
tp279
a(S'100000655895169'
S'Tushar Bhajanka'
tp280
a(S'539490626'
S'Sumer Kandhari'
tp281
a(S'576865450'
S'Kshitij Sharan'
tp282
a(S'1490904448'
S'Harsh SheoKand'
tp283
a(S'506953798'
S'Juhi Nanda'
tp284
a(S'517920191'
S'Jai Mittal'
tp285
a(S'1169024837'
S'Ilika Tyagi'
tp286
a(S'538965423'
S'Rachita Oberoi'
tp287
a(S'826763846'
S'Sahisth Chhabra'
tp288
a(S'670075431'
S'Anirudh Nair'
tp289
a(S'100001958488323'
S'Laura Paisley'
tp290
a(S'680451540'
S'Abhilasha Sinha'
tp291
a(S'517912929'
S'Shruti Kumar'
tp292
a(S'717525202'
S'Sachin Khurana'
tp293
a(S'511086086'
S'Sanya Dawar'
tp294
a(S'1569444071'
S'Crash Bandicoot'
tp295
a(S'100006208390513'
S'Kavya Pai'
tp296
a(S'549863134'
S'Rajita Dang'
tp297
a(S'100004081560844'
S'Jasmine Gill'
tp298
a(S'732518490'
S'Zuber Singh'
tp299
a(S'1107467085'
S'Kalyani Vaish'
tp300
a(S'602316137'
S'Shreya Sharma'
tp301
a(S'100004342831479'
S'Sunil Shastri'
tp302
a(S'100003380102388'
S'Rodina Ali'
tp303
a(S'100001881988852'
S'Sanjog Anand'
tp304
a(S'560447048'
S'Seher Noor Mehra'
tp305
a(S'100005461237210'
S'Nandini Chowdhary'
tp306
a(S'695175725'
S'Rhea Khanna'
tp307
a(S'528946252'
S'Harman Singh'
tp308
a(S'1660513335'
S'Sujal Thakkar'
tp309
a(S'691030342'
S'Mohammed Omar'
tp310
a(S'512703701'
S'Madhuri Chowdhury'
tp311
a(S'506801623'
S'Rishabh Gandhi'
tp312
a(S'504217573'
S'Smriti Swarup Aggarwal'
tp313
a(S'772879334'
S'Vrishak Pande'
tp314
a(S'723597451'
S'Troyee Barua'
tp315
a(S'505346707'
S'Sohrab Bhujwala'
tp316
a(S'529071345'
S'Akhila Khanna'
tp317
a(S'1153414899'
S'Taruwar Kohli'
tp318
a(S'533045611'
S'Tanvi Metre'
tp319
a(S'565270564'
S'Tarini Ahuja'
tp320
a(S'565034009'
S'Karan Jaitwani'
tp321
a(S'545190234'
S'Anjali Patel'
tp322
a(S'898365293'
S'Ishan Abraham'
tp323
a(S'887625435'
S'Naeem Ur-rehman'
tp324
a(S'754778711'
S'Sajal Gupta'
tp325
a(S'506919570'
S'Reva Dutta'
tp326
a(S'100001204023379'
S'Prateek Kaushik'
tp327
a(S'783080575'
S'Robert Deegan'
tp328
a(S'511377589'
S'Kartik Kirti'
tp329
a(S'1565564225'
S'Mrinalini Agarwal'
tp330
a(S'508012713'
S'Ishan Lamba'
tp331
a(S'1109838402'
S'Diya Joya Datwani'
tp332
a(S'574430310'
S'Vish Kumar'
tp333
a(S'1008820945'
S'Palaash Bhargava'
tp334
a(S'517909082'
S'Armaan Mullick Alkazi'
tp335
a(S'505723157'
S'Devika Parashar'
tp336
a(S'1526861422'
S'Pragun Jindal'
tp337
a(S'1344437882'
S'Chirag Saluja'
tp338
a(S'662835872'
S'Abhishek Dhawan'
tp339
a(S'100004421671168'
S'Vinayak Vaidyanathan'
tp340
a(S'697728107'
S'Misha Thakrar'
tp341
a(S'606105640'
S'Yashaswini Mittal'
tp342
a(S'739459153'
S'Trishala Devani'
tp343
a(S'1467856859'
S'Prajit Sarkar'
tp344
a(S'516332409'
S'Mehar Atwal'
tp345
a(S'1448494505'
S'Margarida Alpuim'
tp346
a(S'503740886'
S'Rudra Bajpai'
tp347
a(S'560710088'
S'Kamya Chandra'
tp348
a(S'742589584'
S'Sidhanth Chaudhary'
tp349
a(S'100002853894288'
S'Anya Vohra'
tp350
a(S'713787199'
S'Sidharth Mittal'
tp351
a(S'515615905'
S'Kaveri Gupta'
tp352
a(S'550695976'
S'Moein Ahmadi'
tp353
a(S'819592047'
S'Archit Agarwal'
tp354
a(S'591727103'
S'Disha Sukhija'
tp355
a(S'771045141'
S'Aneesha Sharma'
tp356
a(S'1305035454'
S'Roshni Jain'
tp357
a(S'100001947021994'
S'Rohit Sehrawat'
tp358
a(S'100004490281518'
S'Bijender Sharma'
tp359
a(S'886995626'
S'Mayanka Dave Mukherji'
tp360
a(S'502719250'
S'Shreya Roy'
tp361
a(S'720965483'
S'Nadia Singh Bahl'
tp362
a(S'509589579'
S'Rhea Fauve Kohli'
tp363
a(S'1415350699'
S'Max Gumpert'
tp364
a(S'538645513'
S'Riddhi Sonthalia'
tp365
a(S'100002229158748'
S'Radhika Venkat'
tp366
a(S'527735122'
S'Nitya Rajagopal'
tp367
a(S'100002064622834'
S'Omaar Singh'
tp368
a(S'547835060'
S'Aditya Keswani'
tp369
a(S'100001127659691'
S'Sanah Langer'
tp370
a(S'626888472'
S'Vir Singh Anand'
tp371
a(S'100001650773525'
S'Vaibhava Nanda'
tp372
a(S'512421088'
S'Abhinav Bhardwaj'
tp373
a(S'648595155'
S'Dhruv Kalaan'
tp374
a(S'1107191021'
S'Viveka Singh'
tp375
a(S'699986202'
S'Varun Gupta'
tp376
a(S'1791908586'
S'Harshita Yadav'
tp377
a(S'1255658543'
S'Ambika Verma'
tp378
a(S'596956867'
S'Vivan Singh'
tp379
a(S'1407165'
S'Berry Kurland'
tp380
a(S'586901878'
S'Arushi Pandey'
tp381
a(S'1199539251'
S'Medha Sinha'
tp382
a(S'100004918985676'
S'Rohan Day'
tp383
a(S'100003254749908'
S'Siddhant Hira'
tp384
a(S'829708395'
S'Akanksha Kumar'
tp385
a(S'1018528417'
S'Anaqat Kamboj'
tp386
a(S'580495559'
S'Binoy Desai'
tp387
a(S'100001429306846'
S'Kabir Bathla'
tp388
a(S'772975311'
S'Nidhi Gupta'
tp389
a(S'1788300245'
S'Rehan Khan'
tp390
a(S'527214727'
S'Sarah-Mae Nelson'
tp391
a(S'523030351'
S'Sagar Bakhai'
tp392
a(S'502468429'
S'Ishita Chaudhry'
tp393
a(S'664705314'
S'Pallavi Surana'
tp394
a(S'775232999'
S'Sidharth Savant'
tp395
a(S'703261694'
S'Vardaan Arora'
tp396
a(S'100002538386345'
S'Jayashree Srivastava'
tp397
a(S'1339508884'
S'Shubhangani Agrawal'
tp398
a(S'691338791'
S'Srinjoy Banerjee'
tp399
a(S'525832635'
S'Samyukta Santhakumar'
tp400
a(S'1437317304'
S'Keshavam Chaudhri'
tp401
a(S'640587671'
S'Anna Sharma'
tp402
a(S'100001014151520'
S'Mahender Rathi'
tp403
a(S'525467339'
S'Vishesh Sharma'
tp404
a(S'714790432'
S'Mehar Satsangi'
tp405
a(S'100000018530630'
S'Saisha Sarien'
tp406
a(S'1421402520'
S'Prakhar Jain'
tp407
a(S'100003619255891'
S'Kavya Bhagat'
tp408
a(S'854905146'
S'Rohit Agarwal'
tp409
a(S'502731395'
S'Henna Lexie Ahuja'
tp410
a(S'516867667'
S'Arnav Sur'
tp411
a(S'650261738'
S'Amol Bariya-Sousa'
tp412
a(S'1466298325'
S'Palak Katyal'
tp413
a(S'640836112'
S'Aftab Singh'
tp414
a(S'1452774327'
S'Sandhita Chandra'
tp415
a(S'100001748919505'
S'Shruti Srinivas'
tp416
a(S'100001098015970'
S'Eeshan Agarwal'
tp417
a(S'671460098'
S'Saniya Yadav'
tp418
a(S'687205552'
S'Shailika Garg'
tp419
a(S'1653981098'
S'Kabir Khanna'
tp420
a(S'513679316'
S'Sanchit Kumar'
tp421
a(S'697165290'
S'Abhiraj Kohli'
tp422
a(S'649573134'
S'Anirudha Sundaresan'
tp423
a(S'714108289'
S'Tanmay Shanker'
tp424
a(S'572540128'
S'Adit Mehta'
tp425
a(S'740490025'
S'Avichal Jain'
tp426
a(S'1322550832'
S'Siddhant Sahu'
tp427
a(S'852210120'
S'Prajeet Bajpai'
tp428
a(S'100001667766012'
S'Mahaveer Jain Golechha'
tp429
a(S'100000541000818'
S'Vikas Mishra'
tp430
a(S'592111123'
S'Deeya Suzannah Bajaj'
tp431
a(S'693481483'
S'Rhea Handa'
tp432
a(S'700125176'
S'Siddhant Nag'
tp433
a(S'1385404760'
S'Shantanu Roy-Chaudhury'
tp434
a(S'1319907529'
S'Pragam Sharma'
tp435
a(S'684220397'
S'Trishla Chadha'
tp436
a(S'1117179932'
S'Akshay Kapoor'
tp437
a(S'558216940'
S'Aya Rakhimzhanova'
tp438
a(S'567685650'
S'Arushi Kakar'
tp439
a(S'557905418'
S'Chhayankdhar Singh Rathore'
tp440
a(S'511452563'
S'Arjun Singh Jain'
tp441
a(S'516370719'
S'Gurjiv Singh'
tp442
a(S'593926554'
S'Elle B. Green'
tp443
a(S'100004107250644'
S'Stylo Navu'
tp444
a(S'572000366'
S'Rishika Kajaria'
tp445
a(S'512223029'
S'Abhinav Gupta'
tp446
a(S'772920462'
S'Anuraag Majumdar'
tp447
a(S'681230234'
S'Shashank Sunny Arora'
tp448
a(S'100008110652853'
S'Masoom Nathani'
tp449
a(S'887965236'
S'Aleah Ahmad'
tp450
a(S'100000104634316'
S'Gunbir Singh Sekhon'
tp451
a(S'100002466340117'
S'Sanjana Ahuja'
tp452
a(S'594488167'
S'James Kelton'
tp453
a(S'1371330183'
S'Sujay Tyle'
tp454
a(S'1052325571'
S'Hana Chotani'
tp455
a(S'644170795'
S'Leela Raina'
tp456
a(S'622617149'
S'Misha Patel'
tp457
a(S'36911649'
S'Armaan Kirmani'
tp458
a(S'613792007'
S'Ishita Mattoo'
tp459
a(S'629150490'
S'Roopal Alankar Mittal'
tp460
a(S'100001501296766'
S'Sachin Sastri'
tp461
a(S'732301945'
S'Zeni Iqbal'
tp462
a(S'642180169'
S'Kirat Singh'
tp463
a(S'570610081'
S'Ariel Alexander Sousa'
tp464
a(S'516484322'
S'Aditi Naval'
tp465
a(S'506437100'
S'Vipul Gauba'
tp466
a(S'512498727'
S'Kartik Metre'
tp467
a(S'867340704'
S'Ishan Wad'
tp468
a(S'640885106'
S'Jaiveer Singh'
tp469
a(S'500957657'
S'Disha Verma'
tp470
a(S'100001218965512'
S'Udit Todi'
tp471
a(S'598660040'
S'Shivaansh Bansal'
tp472
a(S'524756779'
S'Bambi Bhalla'
tp473
a(S'531828229'
S'Akshay Poonia'
tp474
a(S'100006134470383'
S'Emtiyaz Khan'
tp475
a(S'561685306'
S'Osman Oozeerally'
tp476
a(S'100000032449423'
S'\\u092d\\u093e\\u0908 \\u092a\\u093c\\u0926\\u0940\\u092a \\u0915\\u0932\\u0924\\u0917\\u0921\\u093f\\u092f\\u093e'
tp477
a(S'1503084973'
S'Diya Aggarwal'
tp478
a(S'543978246'
S'Sanjana Suri'
tp479
a(S'509922326'
S'Tanvi Ajmani'
tp480
a(S'500500057'
S'Rohanjit Chaudhry'
tp481
a(S'100005856122389'
S'Aditya Maru'
tp482
a(S'640750169'
S'Chaitanya Bishnoi'
tp483
a(S'100002058578646'
S'Kashish Mudgil'
tp484
a(S'793203360'
S'Abhishek Talwade'
tp485
a(S'832764239'
S'Ranajay Chand'
tp486
a(S'1171881853'
S'Mihika Agarwal'
tp487
a(S'790320017'
S'Suhail Thomas'
tp488
a(S'674542044'
S'Vir Chopra'
tp489
a(S'510786347'
S'Guneesha Sethi'
tp490
a(S'100001702787429'
S'Ishika Godara'
tp491
a(S'100005722631375'
S'Akshat Bhardwaj'
tp492
a(S'611035607'
S'Mihir Samir Verma'
tp493
a(S'726209177'
S'Selman Kaldiroglu'
tp494
a(S'100002066469782'
S'Aditya Malhotra'
tp495
a(S'1009175370'
S'Arjun Yadav'
tp496
a(S'568521130'
S'Thomas Desmoutier'
tp497
a(S'529980257'
S'Sukriti Yadava'
tp498
a(S'600525389'
S'Adil Saxena'
tp499
a(S'1022336779'
S'Milind Gautam'
tp500
a(S'1265175074'
S'Nicole Bhatnagar'
tp501
a(S'508185589'
S'Sudhanshu Agarwal'
tp502
a(S'505008677'
S'Kaavya Bector'
tp503
a(S'563775424'
S'Aman Malik'
tp504
a(S'565095210'
S'Varun Datta'
tp505
a(S'724692282'
S'Kabeer Chatrath'
tp506
a(S'1012242767'
S'Taarini Marwaha'
tp507
a(S'1141874010'
S'Chiara Saldanha'
tp508
a(S'100004680276811'
S'Kriti Rajput'
tp509
a(S'100000244656806'
S'Neel Ghosh'
tp510
a(S'1555172725'
S'Niharika Pendharkar'
tp511
a(S'677948166'
S'Kristyna Pelikanova'
tp512
a(S'530246969'
S'Veer Pahariya'
tp513
a(S'516468740'
S'Roxy Miller'
tp514
a(S'621862610'
S'Chaitanya Raj Singh'
tp515
a(S'1555964381'
S'Robert James Anson'
tp516
a(S'812305108'
S'Naina Bhan'
tp517
a(S'640190836'
S'Shikhil Nangia'
tp518
a(S'531603703'
S'Somya Goenka'
tp519
a(S'1148619403'
S'Kushank Gulati'
tp520
a(S'518211414'
S'Madhav Parmar'
tp521
a(S'515057985'
S'Fateh Singh'
tp522
a(S'867605522'
S'Tanushree Ex'
tp523
a(S'1674690013'
S'Raahat Vikram Singh'
tp524
a(S'100000314312282'
S'Jagrati Goyal'
tp525
a(S'576445576'
S'Akshita Paul'
tp526
a(S'1505709493'
S'Niral Panchal'
tp527
a(S'100000106554127'
S'Tom Prior'
tp528
a(S'525170042'
S'Tamsin Reinsch'
tp529
a(S'600715520'
S'Raag Mathur Ramdev'
tp530
a(S'100002518612452'
S'Chetna Goyal'
tp531
a(S'850094760'
S'Sabhya Talwar'
tp532
a(S'612706071'
S'Madison Layton'
tp533
a(S'751602287'
S'Vaibhav Bhatia'
tp534
a(S'598920951'
S'Rhea Dabas'
tp535
a(S'1596514228'
S'Devika Mallik'
tp536
a(S'1447215884'
S'Shaurav Mehra'
tp537
a(S'513855616'
S'Saahil Nandrajog'
tp538
a(S'545657455'
S'Naina Singh'
tp539
a(S'501338723'
S'Sonali Batra'
tp540
a(S'643602893'
S'Adityasinh Chudasama'
tp541
a(S'1156961494'
S'Palash Tannan'
tp542
a(S'513424252'
S'Srishti Gurwara'
tp543
a(S'1299001503'
S'Rohan Kapur'
tp544
a(S'605757426'
S'Karan Dhingra'
tp545
a(S'570880223'
S'Zohaib Khalid'
tp546
a(S'770800710'
S'Parul Sharma'
tp547
a(S'546840233'
S'Ritvik Handa'
tp548
a(S'1349769046'
S'Neha Jain'
tp549
a(S'539355500'
S'Tulsi Sharma'
tp550
a(S'602060327'
S'Saarthak Aurora'
tp551
a(S'723834214'
S'Rayomand Gilder'
tp552
a(S'100002838220166'
S'Ragini Sachdev'
tp553
a(S'504136179'
S'Ayesha Nageshwaran'
tp554
a(S'723060312'
S'Omar Radhi'
tp555
a(S'100002678218814'
S'Padma Anil Kumar'
tp556
a(S'509159092'
S'Anand Patel'
tp557
a(S'100003477839061'
S'Aamer Baswani'
tp558
a(S'100002025770575'
S'Achintya Chandwani'
tp559
a(S'703289814'
S'Aryaman Rastogi'
tp560
a(S'100003190413853'
S'Manoj Chauhan'
tp561
a(S'1095122418'
S'Aman Sridhar'
tp562
a(S'100000257712237'
S'Tom Young'
tp563
a(S'518565250'
S'Medha Krishna'
tp564
a(S'1285977174'
S'Aahaan Mazumdar'
tp565
a(S'1393920854'
S'Saurabh Roye'
tp566
a(S'100002028882118'
S'Aryaan Ishan'
tp567
a(S'798180098'
S'Manpria Singh'
tp568
a(S'1153131587'
S'Ishaan Bose Verma'
tp569
a(S'647034350'
S'Sarah Omware'
tp570
a(S'720770047'
S'Aditya Bhagat'
tp571
a(S'502758046'
S'Abheeru Chauhan'
tp572
a(S'821152801'
S'Aashna Agarwal'
tp573
a(S'512656495'
S'Saeher Dhameja'
tp574
a(S'100000194970956'
S'Devki Kapur'
tp575
a(S'1138732803'
S'Srivardhan Kejriwal'
tp576
a(S'100007046648949'
S'Charles Fraizer'
tp577
a(S'724147120'
S'Shreshtha Raizada'
tp578
a(S'742311613'
S'Mahi Khanna'
tp579
a(S'580635208'
S'Aniesha Sangal'
tp580
a(S'517673115'
S'Naved Sarna'
tp581
a(S'547180472'
S'Arhana Dhawan'
tp582
a(S'1169421601'
S'Siddharth Joshi'
tp583
a(S'524416572'
S'Sejal Goyal'
tp584
a(S'100001491472824'
S'Divya Jyoti Tirkey'
tp585
a(S'592777030'
S'Siddhant Bery'
tp586
a(S'1360698666'
S'Aditi Sahni'
tp587
a(S'558417792'
S'Tanya Khurana'
tp588
a(S'100000396762966'
S'Yash Saxena'
tp589
a(S'518211983'
S'Arjun Dutt'
tp590
a(S'1232640861'
S'Utkarsh Chaturvedi'
tp591
a(S'500549389'
S'Pranay Manchanda'
tp592
a(S'100000958356087'
S'KayDee Satyanand'
tp593
a(S'605527439'
S'Raoul Mehra'
tp594
a(S'100003106322477'
S'Lse SU Punjab'
tp595
a(S'609532389'
S'Devika Pandey'
tp596
a(S'586068353'
S'Anica Bawa'
tp597
a(S'575266449'
S'Smaran Shantharaju'
tp598
a(S'1475337608'
S'Tushar Jain'
tp599
a(S'772350112'
S'Priyanka Dandwani'
tp600
a(S'682580442'
S'Aarti Thakur'
tp601
a(S'1244654560'
S'Dimple Mohindra'
tp602
a(S'724871734'
S'Tanvi Kapur'
tp603
a(S'100002221662149'
S'Vrinda Kanvinde'
tp604
a(S'511229239'
S'Ashish K Dabasia'
tp605
a(S'723355577'
S'Aditya Gupta'
tp606
a(S'1401098947'
S'Aadya Chawla'
tp607
a(S'685635510'
S'Dilsher Dhaliwal'
tp608
a(S'1590876204'
S'Mohamed Harrath'
tp609
a(S'1247824039'
S'Aditya Saini'
tp610
a(S'100000970285397'
S'Naman Jain'
tp611
a(S'879615331'
S'Varun Malhotra'
tp612
a(S'547660376'
S'Anam Kalsia'
tp613
a(S'509882146'
S'Neel Malde'
tp614
a(S'1005885284'
S'Mrigendra Pandey'
tp615
a(S'512983983'
S'Himanshi Dandona'
tp616
a(S'516628880'
S'Alaiia Gujral'
tp617
a(S'750823988'
S'Tushar Yadav'
tp618
a(S'1780779750'
S'Vrinda Sharma'
tp619
a(S'1068577480'
S'Ishaan Iyer'
tp620
a(S'1470501134'
S'Shrey Kapur'
tp621
a(S'1817093888'
S'Ayan Singh'
tp622
a(S'689785713'
S'Samiha Nayar'
tp623
a(S'560192186'
S'Neil Chakravarty'
tp624
a(S'538200485'
S'Navina Singh'
tp625
a(S'501398320'
S'Sanjana Batra'
tp626
a(S'516051701'
S'Shivaan Sahni'
tp627
a(S'518559572'
S'Saachi Kapoor'
tp628
a(S'553174975'
S'Abhinav Kumar'
tp629
a(S'1206113105'
S'Shoumil Das'
tp630
a(S'838875477'
S'Prashast Thapan'
tp631
a(S'778245289'
S'Anushka Shah'
tp632
a(S'846859308'
S'Talin Mundkur'
tp633
a(S'505381460'
S'Shashvat Pandit'
tp634
a(S'717403106'
S'Tapan Mishra'
tp635
a(S'502976719'
S'Anandita Bishnoi'
tp636
a(S'730230371'
S'Ayushi Narain'
tp637
a(S'1242588978'
S'Utsav Chaudhary'
tp638
a(S'100000872325134'
S'Sagar Agrawal'
tp639
a(S'100000109506019'
S'Akanksha Modgil'
tp640
a(S'676035452'
S'Geenu Wickramaratne'
tp641
a(S'100000348474263'
S'Muskaan Mahendru'
tp642
a(S'1018899423'
S'Akash Mittal'
tp643
a(S'511158270'
S'Shruti Narayanaswamy'
tp644
a(S'506497742'
S'Aditri Tewari'
tp645
a(S'513163060'
S'Varun Vig'
tp646
a(S'868760343'
S'Keshav Anand'
tp647
a(S'1265485585'
S'Aanavi Dewan'
tp648
a(S'651092794'
S'Sankalp Gupta'
tp649
a(S'718196311'
S'Sunny Sarid'
tp650
a(S'685270503'
S'Mahir Singh'
tp651
a(S'100000432906899'
S'Ankita Iggy Niyogi'
tp652
a(S'512587622'
S'Sameer Rohatgi'
tp653
a(S'512084586'
S'Radhika Maloo'
tp654
a(S'568905640'
S'Moeen Mahmood'
tp655
a(S'562220544'
S'Aneesha Malik'
tp656
a(S'1001204715'
S'Vishal Luhana'
tp657
a(S'520894439'
S'Kunal N. Shah'
tp658
a(S'625556485'
S'Madhav Vohra'
tp659
a(S'100000298001165'
S'Shyon Chowdhury'
tp660
a(S'511253408'
S'Mitali Nikore'
tp661
a(S'660175105'
S'Arjun Chadha'
tp662
a(S'1478430688'
S'Ramneek Suri'
tp663
a(S'1517090574'
S'Saachi Verma'
tp664
a(S'671030360'
S'Sharjil Hannan'
tp665
a(S'100000218238491'
S'Upasana Khanna'
tp666
a(S'536001549'
S'Ranajoy Das'
tp667
a(S'669619082'
S'Geetika Pandya'
tp668
a(S'559530192'
S'Radhika Chakraborty'
tp669
a(S'512238870'
S'Avika Saraf'
tp670
a(S'1362435354'
S'Ritvij Basant'
tp671
a(S'682406810'
S'Shraddha Nanavaty'
tp672
a(S'516049300'
S'Uday Berry'
tp673
a(S'625679219'
S'Gurnoor Dhillon'
tp674
a(S'517808545'
S'Ajay Arun'
tp675
a(S'819119416'
S'Shantanu Singh'
tp676
a(S'780960467'
S'Rothin Datta'
tp677
a(S'100006400685455'
S'Shanki Tyagi'
tp678
a(S'740541763'
S'Shubham Goel'
tp679
a(S'657241967'
S'Sharat Bahl'
tp680
a(S'559849090'
S'Taamara Rath'
tp681
a(S'821575446'
S'Shailaja Mallick'
tp682
a(S'100000158993283'
S'Vartika Sharma'
tp683
a(S'507715381'
S'Shreya Gurwara'
tp684
a(S'1218591704'
S'Nimish Jha'
tp685
a(S'1125635467'
S'Komal Kapur Sood'
tp686
a(S'722498981'
S'Nair Rajeswari'
tp687
a(S'686175800'
S'Pooja Thakur'
tp688
a(S'709905593'
S'Shreya Nair'
tp689
a(S'679719048'
S'Advait Luthra'
tp690
a(S'552905494'
S'Utkarsh Gupta'
tp691
a(S'511824666'
S'Janhavi Navlakha'
tp692
a(S'1557591068'
S'Kartikeya Bhargava'
tp693
a(S'1254755525'
S'Mrnalini Rao'
tp694
a(S'1720075239'
S'Aishwarya Ganesh'
tp695
a(S'703786441'
S'Sukanya Deb'
tp696
a(S'682997315'
S'Veselin Karadotchev'
tp697
a(S'100001992767011'
S'Anoushka Gupta'
tp698
a(S'529286395'
S'Vinati Bathla'
tp699
a(S'544611835'
S"Jeets'The Senator'Hanspal"
tp700
a(S'100003059608697'
S'Lisa Wanono-Rahman'
tp701
a(S'1343954339'
S'Arjun Arora'
tp702
a(S'1229446646'
S'Arjun Pratap Bajwa'
tp703
a(S'100001622324903'
S'Simran Nanda'
tp704
a(S'653480931'
S'Dolly Ghuman'
tp705
a(S'709909486'
S'Shivangi Bhatt'
tp706
a(S'599149198'
S'Katha Kapur'
tp707
a(S'1845236352'
S'Delhi StreetFootball'
tp708
a(S'541155586'
S'Muhammad Munib Puri'
tp709
a(S'560122868'
S'Jannat Behl'
tp710
a(S'100001811933790'
S'Jayashree Srivastava'
tp711
a(S'601650127'
S'Roshni Sagar'
tp712
a(S'100003565140209'
S'Satender Bhati Hjc Yuva'
tp713
a(S'1040548654'
S'Shantanu Kishwar'
tp714
a(S'679161569'
S'Kshitiz Rao'
tp715
a(S'1248025551'
S'Nivedita Kutty Vatsa'
tp716
a(S'514889401'
S'Kartik Kumar'
tp717
a(S'712870304'
S'Abhay Chawla'
tp718
a(S'1428091163'
S'Akash Mittal'
tp719
a(S'1015794772'
S'Aniket Mookerjee'
tp720
a(S'1486562212'
S'Sanjana Thimmayya'
tp721
a(S'1168359550'
S'Rubina Gulati'
tp722
a(S'516559789'
S'Raghav Khurana'
tp723
a(S'506258179'
S'Kabir Kessar Manchanda'
tp724
a(S'570945014'
S'Dhruv Bathla'
tp725
a(S'100000113252193'
S'Vicky Srivastava'
tp726
a(S'531356461'
S'Mehak Jain'
tp727
a(S'434037'
S'Arjun Lahiri'
tp728
a(S'575674744'
S'Dilawar Gill'
tp729
a(S'1346300492'
S'Eman Siddiqui'
tp730
a(S'709600304'
S'Marie Shabaya'
tp731
a(S'833879653'
S'Aviral Takkar'
tp732
a(S'100001239048958'
S'Ishwar Chugh'
tp733
a(S'512040778'
S'Akhil Anand'
tp734
a(S'100003317887857'
S'Nakita Niyogi'
tp735
a(S'721890028'
S'Madeleine Traver'
tp736
a(S'1270362517'
S'Pallavi Panigrahi'
tp737
a(S'576596276'
S'Rishabh Kathotia'
tp738
a(S'1651711867'
S'Arjan Bir Singh'
tp739
a(S'517255236'
S'Sanjana Choudhari'
tp740
a(S'100002791326980'
S'Divit Sabharwal'
tp741
a(S'784439770'
S'Hemant Bhatnagar'
tp742
a(S'516574868'
S'Harleen Kaur'
tp743
a(S'502578888'
S'Medha Kapur'
tp744
a(S'1620859838'
S'Pratyush Sinha'
tp745
a(S'1428445527'
S'Piyu Roy-Chaudhury'
tp746
a(S'1039207164'
S'Shuchir Suri'
tp747
a(S'860025696'
S'Aryavir Kumar'
tp748
a(S'660975506'
S'Serena Walia'
tp749
a(S'100001467575404'
S'Riti Walia'
tp750
a(S'100001070691900'
S'Esha Swaroop'
tp751
a(S'646090999'
S'Sushrut Prabhakar'
tp752
a(S'100002167793154'
S'Selin Elitemiz'
tp753
a(S'100001036347867'
S'Pratyush Singh'
tp754
a(S'771470580'
S'Saisha Sethi'
tp755
a(S'100003288168436'
S'Atif Zafar'
tp756
a(S'1018775395'
S'Drishti Palwankar'
tp757
a(S'513206690'
S'Adhiraj Rajpal'
tp758
a(S'601115439'
S'Vedika Sharma'
tp759
a(S'1367503114'
S'Abhishek Arya'
tp760
a(S'651571700'
S'Yatin Nanda'
tp761
a(S'100003700300054'
S'Aanchal Bhayana'
tp762
a(S'782354685'
S'Antaraa Vasudev'
tp763
a(S'723728131'
S'Jitendra Kumar Sharma'
tp764
a(S'505613619'
S'Ishaan Rikhy'
tp765
a(S'1347853417'
S'Vidit Bahri'
tp766
a(S'1400769724'
S'Arunima Mukherjee'
tp767
a(S'710314219'
S'Urvi Singh'
tp768
a(S'701675287'
S'Archit Khurana'
tp769
a(S'508089724'
S'Arjun Kohli'
tp770
a(S'100002750301039'
S'Dev Primlani'
tp771
a(S'751953213'
S'Pradyumn Chandgothia'
tp772
a(S'100001632300754'
S'Vibhor Agarwal'
tp773
a(S'61300670'
S'Sanjana Kashyap Kapoor'
tp774
a(S'1412187139'
S'Aditya Sharma'
tp775
a(S'1436987976'
S'Tanya Gupta'
tp776
a(S'100002225320074'
S'Ameya Somany'
tp777
a(S'1137346865'
S'Nikhil Goyal'
tp778
a(S'536595707'
S'Nipun Sharma'
tp779
a(S'1783607241'
S'Anshuman Wassan'
tp780
a(S'504154820'
S'Vaibhav Bhandari'
tp781
a(S'1387449070'
S'Shambhavi Sahai'
tp782
a(S'100003550898430'
S'Ritvik Awasthi'
tp783
a(S'685551489'
S'Mashal Kadri'
tp784
a(S'559422351'
S'Manik Vasudev'
tp785
a(S'1438724877'
S'Ninad Sadaphal'
tp786
a(S'572036757'
S'Naz Choudhury'
tp787
a(S'1316790163'
S'Akhil Syngal'
tp788
a(S'683565967'
S'Jaiveer Bakshi'
tp789
a(S'638582829'
S'Karan Shetty'
tp790
a(S'516401858'
S'Zain Refaqat Seyid'
tp791
a(S'701915021'
S'Mohsin Rasheed'
tp792
a(S'732735115'
S'Alok Bahri'
tp793
a(S'627075087'
S'Uma Bordoloi Singh'
tp794
a(S'723460143'
S'Arohi Kapoor'
tp795
a(S'732802467'
S'Anushka Baruah'
tp796
a(S'1414083124'
S'Kartikeya Chandra Sen'
tp797
a(S'609786315'
S'Vanshika Choudhary'
tp798
a(S'1534058765'
S'Ankur Ahlawat'
tp799
a(S'511626736'
S'Aanchal Kapoor'
tp800
a(S'507945185'
S'Vinayak Kumar'
tp801
a(S'652855849'
S'Manavi Gaur'
tp802
a(S'100005144884986'
S'Saanya Sehgal'
tp803
a(S'905945159'
S'Ayyushman Mehta'
tp804
a(S'616768427'
S'Bhanushee Malhotra'
tp805
a(S'571236861'
S'Chandini Agarwal'
tp806
a(S'100000125799084'
S'Udit Bery'
tp807
a(S'1426380070'
S'Neilay Shah'
tp808
a(S'633679462'
S'Meghna Mitra'
tp809
a(S'719335295'
S'Yuv Bharat Ram'
tp810
a(S'886440359'
S'Neeraja Narayanasamy'
tp811
a(S'503163849'
S'Raj Khosla'
tp812
a(S'706955432'
S'Vimlendu Jha'
tp813
a(S'100000038310117'
S'Srinjoy Basu'
tp814
a(S'525865083'
S'Reena Gudka'
tp815
a(S'517994746'
S'Varun Dua'
tp816
a(S'1036782067'
S'Shiv Thapar'
tp817
a(S'517995503'
S'Sonakshi Chaudhry'
tp818
a(S'601400166'
S'Panav Khanna'
tp819
a(S'100001400474752'
S'Sashank Srinivasan'
tp820
a(S'656675034'
S'Digvijay Bhatia'
tp821
a(S'546960133'
S'Anthea Cheung'
tp822
a(S'100000923178415'
S'Sharanya Kritika Chandra'
tp823
a(S'639981437'
S'Nayan Srivastava'
tp824
a(S'735678265'
S'Bhaskar Bajpai'
tp825
a(S'806999836'
S'Gursharn Kaur'
tp826
a(S'1098588253'
S'Arshia Marwah'
tp827
a(S'685821977'
S'Keshav Dutt'
tp828
a(S'507661845'
S'Sharad Raghavan'
tp829
a(S'100001490377106'
S'Renuka Bishnoi'
tp830
a(S'541010462'
S'Roma Dasgupta'
tp831
a(S'626906012'
S'Kunal Budhiraja'
tp832
a(S'1385462970'
S'Kunal Gaba'
tp833
a(S'1138402888'
S'Raghav Piyush Mittal'
tp834
a(S'100002207466687'
S'Akhil Batra'
tp835
a(S'100002888076621'
S'Shujahat Ali'
tp836
a(S'1062613897'
S'Seher Tarab Gopal'
tp837
a(S'742095159'
S'Namrata Bagree'
tp838
a(S'509236502'
S'Eeshan Tayal'
tp839
a(S'1569007123'
S'Suhani Chandhok'
tp840
a(S'1179039926'
S'Shantanu Bundela'
tp841
a(S'527190579'
S'Tanya Popli'
tp842
a(S'100000172609868'
S'Ali Sarosh'
tp843
a(S'100003355208999'
S'Manjeet Singh Kalanwali'
tp844
a(S'100006823120417'
S'Sunil Gahlot'
tp845
a(S'661155538'
S'Mallika Chandra'
tp846
a(S'1068797795'
S'Nikita Mahajan'
tp847
a(S'512418181'
S'Dishant Narang'
tp848
a(S'100001986807904'
S'Tara Shriram'
tp849
a(S'1131338936'
S'Samyek Jain'
tp850
a(S'517690410'
S'Nityeshranjan Bohidar'
tp851
a(S'1434764334'
S'Arjun Chauhan'
tp852
a(S'760820197'
S'Aveem Ur Rehman Alvi'
tp853
a(S'591566240'
S'Ayeman Khan'
tp854
a(S'1496347893'
S'Avantika Gupta'
tp855
a(S'517480881'
S'Anand Rai'
tp856
a(S'1647000039'
S'Samyak Jain'
tp857
a(S'583044751'
S'Hortense Badarani'
tp858
a(S'1448365222'
S'Sarojini Sapru'
tp859
a(S'1235420667'
S'Siddharth Jain'
tp860
a(S'506788006'
S'Chandini Ahuja'
tp861
a(S'1348180615'
S'Varisht Raheja'
tp862
a(S'1656331392'
S'Mats Heimes'
tp863
a(S'100001544551584'
S'Ahalya Bahuguna'
tp864
a(S'542191351'
S'Pritika Mathur'
tp865
a(S'100001178833747'
S'Pranavi Khandekar'
tp866
a(S'100003965188088'
S'Johnathan Doe'
tp867
a(S'1631901565'
S'Rajanya Bhandari'
tp868
a(S'760740639'
S'Vritti Chowdhry'
tp869
a(S'100001494368857'
S'Adit Goel'
tp870
a(S'664830226'
S'Sakshi Kirpalaney'
tp871
a(S'1198060172'
S'Anant Sidh'
tp872
a(S'100005334091988'
S'Meher Kaur Rikhy'
tp873
a(S'505157676'
S'Amar Shanghavi'
tp874
a(S'1181895647'
S'Shashvat Somany'
tp875
a(S'865575429'
S'Sachi Gurudanti'
tp876
a(S'100000708555261'
S'Angad Srivastava'
tp877
a(S'100001075843392'
S'Madhav Kaushik'
tp878
a(S'506138898'
S'Gwyn Day'
tp879
a(S'100000304600318'
S'Pranay Raju'
tp880
a(S'100002105860680'
S'Praveen Bishnoi'
tp881
a(S'100002451904398'
S'Pallavi Bansal'
tp882
a(S'634292970'
S'Sahil Wizom Mahajan'
tp883
a(S'514567213'
S'Soumya Chandra'
tp884
a(S'1200626762'
S'Alakh Dayal'
tp885
a(S'100002456589873'
S'Yashika Sharma'
tp886
a(S'1477584547'
S'Ishaan Dang'
tp887
a(S'829519469'
S'Bhavya Dhingra'
tp888
a(S'612495108'
S'Lavanya Keya Khare'
tp889
a(S'723680084'
S'Sukhmani Bakshi'
tp890
a(S'664782753'
S'Rohan Bhasin'
tp891
a(S'100003132062337'
S'Amit Morthala'
tp892
a(S'736068579'
S'Iswarya Sundaralingam'
tp893
a(S'1497408259'
S'Arjan Singh'
tp894
a(S'564014284'
S'Vidush Dwivedi'
tp895
a(S'1107065912'
S'Jamshed Zakir'
tp896
a(S'648847285'
S'Nayanika Kapoor'
tp897
a(S'601907903'
S'Riya Walia'
tp898
a(S'1429092849'
S'Mehar Sawhney'
tp899
a(S'100000058158194'
S'Zubin Mitra'
tp900
a(S'807310178'
S'Nikhil Tandon'
tp901
a(S'649121342'
S'Saachi Khurana'
tp902
a(S'860850653'
S'Qaiser Khan'
tp903
a(S'100001352581871'
S'Abhay Chhabra'
tp904
a(S'651730162'
S'Banda Lamba'
tp905
a(S'723785302'
S'Snigdha Gupta'
tp906
a(S'1344434860'
S'Usman Yousaf'
tp907
a(S'1044858637'
S'Prateek Bakshi'
tp908
a(S'687675594'
S'Samir Madhavan'
tp909
a(S'712034382'
S'Sharad Lumba'
tp910
a(S'1313943210'
S'Pranav Sharma'
tp911
a(S'620098013'
S'Lokesh Chhabra'
tp912
a(S'673358766'
S'Abhishek Jain'
tp913
a(S'501299512'
S'Adhiraj Singh'
tp914
a(S'672544244'
S'Prerna Gupta'
tp915
a(S'100000220740668'
S'Niharika Bijli'
tp916
a(S'659100374'
S'Nishant Singh'
tp917
a(S'518642543'
S'Nikhil Chowdhary'
tp918
a(S'518051754'
S'Aziza Banerjee'
tp919
a(S'1182884785'
S'Katyal Anmol'
tp920
a(S'554521871'
S'Raghav Sarin'
tp921
a(S'709153613'
S'Prateek Mehra'
tp922
a(S'660074849'
S'Meher Deva'
tp923
a(S'516972679'
S'Sohina Malik'
tp924
a(S'658845432'
S'Arush Sachdev'
tp925
a(S'652271866'
S'Karan Arora'
tp926
a(S'716985460'
S'Sarab Singh'
tp927
a(S'788450115'
S'Anirudh Varma'
tp928
a(S'577475095'
S'Suhavini Singh'
tp929
a(S'1198160289'
S'Kunal Chandidas'
tp930
a(S'501432248'
S'Shivangi Sahni'
tp931
a(S'905060397'
S'Manav Sharma'
tp932
a(S'100002174074785'
S'Stuti Sukhani'
tp933
a(S'668787740'
S'Deep Gupta'
tp934
a(S'500485932'
S'Abhay Chattopadhyay'
tp935
a(S'510648308'
S'Ishita Sachdeva'
tp936
a(S'524110880'
S'Bhavya Jain'
tp937
a(S'507078529'
S'Aman Saxena'
tp938
a(S'518780276'
S'Rani Shah'
tp939
a(S'764514082'
S'Gayatri Moodliar'
tp940
a(S'1020230960'
S'Akanksha Marwaha'
tp941
a(S'100003873782489'
S'Rocky Dinesh Chauhan'
tp942
a(S'609566711'
S'Aftab Chitalwala'
tp943
a(S'579162266'
S'Karan Anand'
tp944
a(S'1128235652'
S'Anushka Arora'
tp945
a(S'571210182'
S'Tarini Sundar'
tp946
a(S'523110211'
S'Suki Bkshi'
tp947
a(S'650365404'
S'Lera Nd'
tp948
a(S'640012736'
S'Arushi Anand'
tp949
a(S'100000003504295'
S'Priya Chaudhary'
tp950
a(S'100000978196901'
S'Aditya Raj Jain'
tp951
a(S'587180199'
S'Leia Sinha'
tp952
a(S'547055583'
S'Tarini Nayak'
tp953
a(S'638910427'
S'Nick Kurup'
tp954
a(S'1331606282'
S'Agastya Malhotra'
tp955
a(S'1236536976'
S'Richa Bishnoi'
tp956
a(S'617355898'
S'Niyant Gurwara'
tp957
a(S'747540014'
S'Natalie Arbanian'
tp958
a(S'1345890851'
S'Nikhil Ahuja'
tp959
a(S'505664161'
S'Sahil Maheshwari'
tp960
a(S'591326306'
S'Romik Bose Mitra'
tp961
a(S'100000247866947'
S'Mukul Kumar'
tp962
a(S'1035392195'
S'Dillon Ravikumar'
tp963
a(S'617731252'
S'Varun Singh Hooda'
tp964
a(S'716093166'
S'Rhea Maheshwari'
tp965
a(S'777639714'
S'Sukhmeet Singh'
tp966
a(S'1639227140'
S'Aanand Vardhan'
tp967
a(S'572360653'
S'Sushmita Arora'
tp968
a(S'1039517029'
S'Anirudh Sood'
tp969
a(S'1222658597'
S'Vivaan Misra'
tp970
a(S'854735353'
S'Ananya Modi'
tp971
a(S'506981831'
S'Chandni Aggarwal'
tp972
a(S'518362873'
S'Aman Banerji'
tp973
a(S'609118400'
S'Tan Yung Tsen'
tp974
a(S'1015247864'
S'Sumeet Singh'
tp975
a(S'513487298'
S'Akshat Dwivedi'
tp976
a(S'769120036'
S'Varunica Agrawal'
tp977
a(S'1239248624'
S'Samaksh Gupta'
tp978
a(S'660290975'
S'Anchal Padukone'
tp979
a(S'829645143'
S'Rohan Mehta'
tp980
a(S'507709355'
S'Saumya Chatrath'
tp981
a(S'645538967'
S'Ayushi Kulsreshtha'
tp982
a(S'100003372304500'
S'Divya Chacko'
tp983
a(S'521485373'
S'Zan Gilani'
tp984
a(S'660525713'
S'Alasdair Pennycuick'
tp985
a(S'566982664'
S'Azam Zafar'
tp986
a(S'100002293104331'
S'Aarohi Narain'
tp987
a(S'1534790973'
S'Paramveer Singh Mor'
tp988
a(S'724616536'
S'Natasha Srivastava'
tp989
a(S'1550487679'
S'Arushi Takkar'
tp990
a(S'748235602'
S'Akshay R. Kohli'
tp991
a(S'696382029'
S'LK Sharda'
tp992
a(S'1335888004'
S'Dakshay Yadav'
tp993
a(S'785560277'
S'Naila Grewal'
tp994
a(S'1042735084'
S'Sunandini Seth'
tp995
a(S'100000736191251'
S'Shaan Batra'
tp996
a(S'704546021'
S'Daniela Caulcrick'
tp997
a(S'1278158522'
S'Vincent Wong'
tp998
a(S'587541929'
S"Varun 'Pappi' Thapa"
tp999
a(S'564615370'
S'Suma Balaram'
tp1000
a(S'671465410'
S'Ghobihan Ananth'
tp1001
a(S'517666760'
S'Udai Arora'
tp1002
a(S'100000310070631'
S'Naintara Singh'
tp1003
a(S'1421724128'
S'Arjan Singh'
tp1004
a(S'1016027586'
S'Vishal Raj Bahadur'
tp1005
a(S'562210564'
S'Mitali Shori'
tp1006
a(S'1355502282'
S'Priyanka Patel'
tp1007
a(S'551544893'
S'Priyanka Tampi'
tp1008
a(S'100007036178288'
S'Naina Sharma'
tp1009
a(S'507305528'
S'Kanchan Puri'
tp1010
a(S'642852325'
S'Mrignaina Tikku'
tp1011
a(S'622395345'
S'Jaiwant Singh'
tp1012
a(S'512727683'
S'Vibhor Gupta'
tp1013
a(S'1223636007'
S'Mansi Bana'
tp1014
a(S'1357942185'
S'Ivana Godin'
tp1015
a(S'100002106570329'
S'Rukmini Roy'
tp1016
a(S'1075177336'
S'Zeenat Z Khan'
tp1017
a(S'508878112'
S'Adhiti Gupta'
tp1018
a(S'1288174653'
S'Shuchi Prasad'
tp1019
a(S'743120231'
S'Ayesha Arora'
tp1020
a(S'100005941058853'
S'Sibani Malhotra'
tp1021
a(S'510586687'
S'Priyanka Atal'
tp1022
a(S'612257425'
S'Kriti Chowdhary'
tp1023
a(S'500195215'
S'Paras Nainani'
tp1024
a(S'618578226'
S'Rashim Khanna'
tp1025
a(S'100002048547967'
S'Sanya Kapoor'
tp1026
a(S'623942675'
S'Bishnoi RK'
tp1027
a(S'653947787'
S'Mohan Kumar K'
tp1028
a(S'517120792'
S'Rahil Badhwar'
tp1029
a(S'100001960191286'
S'Harjit Nalwa'
tp1030
a(S'547440499'
S'Gaurav Srivastava'
tp1031
a(S'604448085'
S'Rashi Nayar'
tp1032
a(S'703290374'
S'Abhishek Chadha'
tp1033
a(S'500360824'
S'Pooja Singh'
tp1034
a(S'572005576'
S'Aneesha Dass'
tp1035
a(S'1060483731'
S'Mallika Trivedi'
tp1036
a(S'649753212'
S'Aditi Malhotra'
tp1037
a(S'1358615745'
S'Mahika Chandgothia'
tp1038
a(S'508645437'
S'Zaen Alkazi'
tp1039
a(S'100002798371889'
S'Lsesu Timeless'
tp1040
a(S'777400690'
S'Shivani Thapar'
tp1041
a(S'100001652551476'
S'Nhsf Lse Hindu Soc'
tp1042
a(S'506635028'
S'Himanshu Kalita'
tp1043
a(S'1474587273'
S'Udai Singh'
tp1044
a(S'538850262'
S'Janeya Mehta'
tp1045
a(S'729455409'
S'Parthiv Mehta'
tp1046
a(S'100003730254576'
S'Ava Pilgrim'
tp1047
a(S'1247040546'
S'Sahana Kaul'
tp1048
a(S'1822200140'
S'R Shinta Radianti'
tp1049
a(S'1045922821'
S'Neha Taneja'
tp1050
a(S'100002883112566'
S'Namit Joshi'
tp1051
a(S'100001490943065'
S'Amanpreet Singh Bubber'
tp1052
a(S'1330388983'
S'Sarthak Malhotra'
tp1053
a(S'568956235'
S'Sherine Shah'
tp1054
a(S'587324536'
S'Laura Barrett'
tp1055
a(S'100002509877827'
S'Aditya Nandal'
tp1056
a(S'1403752958'
S'Karun Singh'
tp1057
a(S'608730149'
S'Monisha Arianna Saxena'
tp1058
a(S'1283104855'
S'Udaybir Singh'
tp1059
a(S'1722877575'
S'Arjun Khazanchi'
tp1060
a(S'664458316'
S'Neal Thomson'
tp1061
a(S'680820544'
S'Varun Chakravarthy'
tp1062
a(S'1143944198'
S'Dheeraj Chopra'
tp1063
a(S'511001207'
S'Esha Seth'
tp1064
a(S'515972320'
S'Meghaa Nayyar'
tp1065
a(S'548715222'
S'Dev Punj'
tp1066
a(S'702370971'
S'Rohan Tuteja'
tp1067
a(S'505512429'
S'Amrit Singh Chopra'
tp1068
a(S'1001383273'
S'Tarini Vajpeyi'
tp1069
a(S'674896487'
S'Zara Malik'
tp1070
a(S'100000774798750'
S'Ca Rohit Garg'
tp1071
a(S'1185399976'
S'Suyash Pandey'
tp1072
a(S'506186138'
S'Vaibhav Garg'
tp1073
a(S'1112136349'
S'Tasha Singh'
tp1074
a(S'1658446285'
S'Dhruv Thakur'
tp1075
a(S'1039695183'
S'Zubair Chopra'
tp1076
a(S'1332803655'
S'Yohan Eric'
tp1077
a(S'704730001'
S'Kamlesh Walia'
tp1078
a(S'804135397'
S'Raghav Duta'
tp1079
a(S'1131275403'
S'Nidhi Kulkarni'
tp1080
a(S'626606245'
S'Osman Ur Rehman Khan'
tp1081
a(S'100002401876335'
S'Devender Godara'
tp1082
a(S'100000588747900'
S'Animesh Sharma'
tp1083
a(S'563950625'
S'Nikhil Ranjan Ahuja'
tp1084
a(S'1034190146'
S'Ankita Tobit'
tp1085
a(S'100000069047996'
S'Yasmin Hussain'
tp1086
a(S'668360360'
S'Raghav Puri'
tp1087
a(S'517732370'
S'Raghav Agarwal'
tp1088
a(S'510080298'
S'Vansa Bali'
tp1089
a(S'507885438'
S'Ravi Rughani'
tp1090
a(S'631946214'
S'Niharika Jhunjhunwala'
tp1091
a(S'509821000'
S'Avani Rai'
tp1092
a(S'539882508'
S'Abhinav Nigam'
tp1093
a(S'1482087578'
S'Shikhar Katyal'
tp1094
a(S'648825701'
S'Julian Ranetunge'
tp1095
a(S'536111834'
S'Srayana Sanyal'
tp1096
a(S'588516510'
S'Rishab Raturi'
tp1097
a(S'100000052128167'
S'Vani Gandhi'
tp1098
a(S'715370220'
S'Anika Bhagani'
tp1099
a(S'529712852'
S'Raman Sharma'
tp1100
a(S'580677992'
S'Anjali Marwaha'
tp1101
a(S'634405530'
S'Ashma Kunde'
tp1102
a(S'674992740'
S'Karanvir Duggal'
tp1103
a(S'524157441'
S'Samira Chopra'
tp1104
a(S'546369600'
S'Nishant Rai'
tp1105
a(S'1318413840'
S'Vimarsh Dwivedi'
tp1106
a(S'642941886'
S'Aishani Das'
tp1107
a(S'100004103649039'
S'Rahul Yadav'
tp1108
a(S'100001070529002'
S'Nitesh Lohchab'
tp1109
a(S'100005886041418'
S'Bani Brar'
tp1110
a(S'795310485'
S'Akshay Arora'
tp1111
a(S'688343685'
S'Prathum Saraf'
tp1112
a(S'872960161'
S'Bryan Pereira'
tp1113
a(S'516697835'
S'Tanvi Ghai'
tp1114
a(S'1793185770'
S'Kartik Lal'
tp1115
a(S'1148591491'
S'Chaitanya Godara'
tp1116
a(S'1117675707'
S'Amit Kalay'
tp1117
a(S'100002394350237'
S'Ankita Jain'
tp1118
a(S'758210034'
S'Sehaj Singh'
tp1119
a(S'572045183'
S'Abdul Radhi'
tp1120
a(S'100005333431668'
S'Karan Bhalla'
tp1121
a(S'100000454707918'
S'Aridaman Yadav'
tp1122
a(S'764340327'
S'Saniya Agarwal'
tp1123
a(S'100003517764221'
S'Goldy Rana'
tp1124
a(S'501058087'
S'Anjali Chandrashekar'
tp1125
a(S'517883991'
S'Pradyun Kantipudi'
tp1126
a(S'548054677'
S'Prashant Santchurn'
tp1127
a(S'513198510'
S'Rishabh Jain'
tp1128
a(S'1453944680'
S'Maira Bose'
tp1129
a(S'100000264064944'
S'Esha Mathur'
tp1130
a(S'501174151'
S'Aman Raj Kapoor'
tp1131
a(S'100001927660291'
S'Nandisha Gupta'
tp1132
a(S'561115439'
S'Ishita Jain'
tp1133
a(S'1540570985'
S'Archit Yadav'
tp1134
a(S'1252580784'
S'Shefali Deshpande'
tp1135
a(S'646376875'
S'Seerat Kohli'
tp1136
a(S'703170433'
S'Tanya Saxena'
tp1137
a(S'547927331'
S'Advika Gupta'
tp1138
a(S'48901853'
S'Harsh Batra'
tp1139
a(S'100003743408499'
S'Jasmin Mariya'
tp1140
a(S'697774229'
S'Hassan Khan'
tp1141
a(S'517322623'
S'Raunaq Singh Chandhok'
tp1142
a(S'501000989'
S'Priyamvada Kant'
tp1143
a(S'577484782'
S'Nikunj Gupta'
tp1144
a(S'502595309'
S'Ahilya Kaul'
tp1145
a(S'654137215'
S'Adhiraj Kochar'
tp1146
a(S'822698954'
S'Ipshita Barua'
tp1147
a(S'691250835'
S'Sid Bishnoi'
tp1148
a(S'1344422022'
S'Karishma Nath'
tp1149
a(S'753573537'
S'Aarohi Mittal'
tp1150
a(S'1529490722'
S'Nivi Nefertiti'
tp1151
a(S'560425081'
S'Mridul Chandgothia'
tp1152
a(S'527866054'
S'Apoorv Jain'
tp1153
a(S'726040453'
S'Vipul Swarup'
tp1154
a(S'704948450'
S'Avi Munjal'
tp1155
a(S'510422724'
S'Dan Kearns'
tp1156
a(S'516951093'
S'Shikhar Dhingra'
tp1157
a(S'543170077'
S'Udit Narain Satsangi'
tp1158
a(S'6607684'
S'Nishaant Sondhi'
tp1159
a(S'1001277375'
S'Karni Singh Soni'
tp1160
a(S'602140407'
S'Dhruv Bhatia'
tp1161
a(S'1496888188'
S'Alister Dell'
tp1162
a(S'564110023'
S'Kanhav Anand'
tp1163
a(S'559488614'
S'Anshika Verma'
tp1164
a(S'752155832'
S'Mridul Gupta'
tp1165
a(S'1469827432'
S'Surabhi Bishnoi Swarup'
tp1166
a(S'504914861'
S'Anshul Gupta'
tp1167
a(S'100003347863350'
S'Shreya Bhasin'
tp1168
a(S'523170321'
S'Sahil Narain'
tp1169
a(S'518174473'
S'Saanya Malik'
tp1170
a(S'814735603'
S'Radhika Kapoor'
tp1171
a(S'551652852'
S'Mukul Pasricha'
tp1172
a(S'537902089'
S'Akshat Gopalakrishnan'
tp1173
a(S'1534272589'
S'Zoravar Singh'
tp1174
a(S'503770319'
S'Nikhil Toshniwal'
tp1175
a(S'500468125'
S'Karan Shirgaokar'
tp1176
a(S'516035065'
S'Nehal Poojara'
tp1177
a(S'627456006'
S'Auritro Choudhury'
tp1178
a(S'687185358'
S'Salman Tahir'
tp1179
a(S'516323294'
S'Charita Vig'
tp1180
a(S'1136846897'
S'Sanjana Gill'
tp1181
a(S'586041047'
S'Andy Gregoriou'
tp1182
a(S'1364469885'
S'Gitanjali Vombatkere'
tp1183
a(S'100003028037123'
S'Tara Kapur'
tp1184
a(S'100000172274007'
S'Naveen Dahiya'
tp1185
a(S'1147470854'
S'Sanjana Kapur'
tp1186
a(S'896515316'
S'Arushi Sur'
tp1187
a(S'1142273618'
S'Sagnik Roy'
tp1188
a(S'1127367466'
S'Serena Alam Shah'
tp1189
a(S'627655128'
S'Rohan Bahri'
tp1190
a(S'1324809108'
S'Priyanjali Sarkar'
tp1191
a(S'1462756932'
S'Octavia Gale'
tp1192
a(S'100000526651972'
S'Devaki Uppal'
tp1193
a(S'1143981692'
S'Anchit Jindal'
tp1194
a(S'1614695445'
S'Noora Manchanda'
tp1195
a(S'100000564461648'
S'Samaksh Khatri'
tp1196
a(S'567115170'
S'Dilan Wijesinghe'
tp1197
a(S'778428093'
S'Aryaman Gupta'
tp1198
a(S'566612600'
S'Lalit Pradhan'
tp1199
a(S'570186942'
S'Asad Daud'
tp1200
a(S'1509951348'
S'Kate Laffan'
tp1201
a(S'628260766'
S'Naina Lal'
tp1202
a(S'512683884'
S'Mihir Chattopadhyay'
tp1203
a(S'1670715913'
S'Shivraj Simmo Bhasin'
tp1204
a(S'516561474'
S'Sahil Prakash'
tp1205
a(S'511905592'
S'Jeannie Tse'
tp1206
a(S'100000041591424'
S'Shrivats Agarwal'
tp1207
a(S'661450715'
S'Hiteshwar Kochhar'
tp1208
a(S'730005495'
S'Shranya Gambhir'
tp1209
a(S'1208736191'
S'Akhil Khunger'
tp1210
a(S'652073662'
S'Ahana Bahl'
tp1211
a(S'100004604913407'
S'Manya Kalra'
tp1212
a(S'1491217916'
S'Shreya Bahl'
tp1213
a(S'513592032'
S'Aishwarya Dravid'
tp1214
a(S'1362609663'
S'Asees Chadha'
tp1215
a(S'222300702'
S'Kritarth Saurabh'
tp1216
a(S'512736841'
S'Gurjit Singh'
tp1217
a(S'696355916'
S'Jatin Verma'
tp1218
a(S'514193688'
S'Arnav Sahni'
tp1219
a(S'100000197029209'
S'Ishwinder Singh'
tp1220
a(S'100000365222179'
S'Sunil Kumar'
tp1221
a(S'706007433'
S'Ambar Chowdhry'
tp1222
a(S'1258750090'
S'Radhika Kathpalia'
tp1223
a(S'511470082'
S'Garima Bakshi'
tp1224
a(S'561170536'
S'Siddhant Puri'
tp1225
a(S'100000219790805'
S'Arjun Madan'
tp1226
a(S'512796115'
S'Udayan Prashar'
tp1227
a(S'1299307799'
S'Simar Juneja'
tp1228
a(S'723500234'
S'Divyam Sood'
tp1229
a(S'100000051377345'
S'Vishnu Jain'
tp1230
a(S'1252827510'
S'Prithviraj Dandamudi'
tp1231
a(S'505719549'
S'Tanay Bhimrajka'
tp1232
a(S'100000976058260'
S'Rahul Tsrs'
tp1233
a(S'1205994711'
S'Rizwan Akhtar'
tp1234
a(S'100004065063089'
S'Arnav Gupta'
tp1235
a(S'1717462327'
S'Radhika Kapoor'
tp1236
a(S'729269166'
S'Uday Malik'
tp1237
a(S'100001065373982'
S'Shreya Das Gupta'
tp1238
a(S'540730435'
S'Karan Farar'
tp1239
a(S'628755503'
S'Nikhil Nanda'
tp1240
a(S'790500018'
S'Siddharth Gopakumar'
tp1241
a(S'762525578'
S'Ben Carlton'
tp1242
a(S'515058073'
S'Sakshi Chugh'
tp1243
a(S'100002321898571'
S'Unmisha Singh'
tp1244
a(S'542615092'
S'Shikhar Dogra'
tp1245
a(S'509266929'
S'Ananyaa Ahluwalia'
tp1246
a(S'513313442'
S'Ishan Pal'
tp1247
a(S'560305182'
S'Rajdeep Gahir'
tp1248
a(S'603170049'
S'Kush Srivastava'
tp1249
a(S'504115608'
S'Kabir Nath'
tp1250
a(S'655804413'
S'Dhruv Kharbanda'
tp1251
a(S'595127661'
S'Arav Khanna'
tp1252
a(S'792759585'
S'Ameeq Singh'
tp1253
a(S'100000227407983'
S'Junaid Sheikh'
tp1254
a(S'652582946'
S'Sunaina Kathpalia'
tp1255
a(S'549251661'
S'Aditi Bhowmick'
tp1256
a(S'554575164'
S'Sajan Shah'
tp1257
a(S'887985391'
S'Nakul Asthana'
tp1258
a(S'1631503112'
S'Ravi Rupal'
tp1259
a(S'727731759'
S'Kevin Law'
tp1260
a(S'1045329575'
S'Meghna Prakash'
tp1261
a(S'1521103527'
S'Pawani Gupta'
tp1262
a(S'533527706'
S'Lokinder Singh'
tp1263
a(S'527545967'
S'Daleep Singh Rupra'
tp1264
a(S'1220105996'
S'Medha Nath'
tp1265
a(S'1120147982'
S'Sukant Vyas'
tp1266
a(S'100001235328516'
S'Manavi Gaur'
tp1267
a(S'3431266'
S'Shreya Lamba'
tp1268
a(S'1146860530'
S'Urgyen Joshi'
tp1269
a(S'100001707294247'
S'Avinash Kohli'
tp1270
a(S'511996369'
S'Karma Vivan'
tp1271
a(S'100003923097598'
S'Tresia Karlin'
tp1272
a(S'526876415'
S'Sakshi Anand'
tp1273
a(S'1051574063'
S'Seher Arora'
tp1274
a(S'506544719'
S'Ankit Bahl'
tp1275
a(S'100002622371923'
S'Divya Beri'
tp1276
a(S'516573781'
S'Trisha Gupta'
tp1277
a(S'590255408'
S'Shubhi Arya'
tp1278
a(S'624588056'
S'Harshit Chadha'
tp1279
a(S'590981926'
S'Aman Roy'
tp1280
a(S'100000738586908'
S'Arsh Gulati'
tp1281
a(S'528205973'
S'Siddhi Sonthalia Mittal'
tp1282
a(S'692740766'
S'Chloe Wong'
tp1283
a(S'563050613'
S'Fionn Shiner'
tp1284
a(S'100003251319760'
S'Sneha Kapoor'
tp1285
a(S'1791358201'
S'Tanvi Mohan'
tp1286
a(S'1292030537'
S'Sapna Dimri'
tp1287
a(S'1349482569'
S'Muhammad Irteza Jafri'
tp1288
a(S'738816837'
S'Vidushi Sinha'
tp1289
a(S'1261510576'
S'Pankaj Chipu'
tp1290
a(S'100002933567660'
S'Annoj Inpanathan'
tp1291
a(S'547680186'
S'Swati Utkarshini'
tp1292
a(S'771760696'
S'Shivang Tayal'
tp1293
a(S'580383242'
S'Menisha Virdi'
tp1294
a(S'698325378'
S'Anshuman Bhargava'
tp1295
a(S'651700563'
S'Ruhi Baweja'
tp1296
a(S'100000426859280'
S'Aarush Vohra'
tp1297
a(S'1819438129'
S'Shivin Pahwa'
tp1298
a(S'508392852'
S'Shrey Sanger'
tp1299
a(S'100002724331734'
S'Lsesu Gujarati Soc'
tp1300
a(S'681321984'
S'Ujjwal Bishnoi'
tp1301
a(S'550046659'
S'Prithvi Atwal'
tp1302
a(S'100001107226553'
S'Hriday Bishnoi'
tp1303
a(S'770905322'
S'Devang Seth'
tp1304
a(S'1377584730'
S'Nino Enukidze'
tp1305
a(S'100001578249778'
S'Zubair Warsi'
tp1306
a(S'697423692'
S'Shreya Sen'
tp1307
a(S'517585637'
S'Nikhil Ratti Kapoor'
tp1308
a(S'512617431'
S'Shivani Nirula'
tp1309
a(S'515232445'
S'Suraj Patel'
tp1310
a(S'662495150'
S'N\\u00e4vya Chowdhary'
tp1311
a(S'560025106'
S'Deeva Datt'
tp1312
a(S'669061387'
S'Sandeep Tokas'
tp1313
a(S'100006517503344'
S'Amol Agarwal'
tp1314
a(S'1257641090'
S'Ritika Mazumdar'
tp1315
a(S'100003263143903'
S'Navya Chowdhary'
tp1316
a(S'100004759867210'
S'Sharma Yogi'
tp1317
a(S'593543366'
S'Naetal Singh'
tp1318
a(S'517875697'
S'Drishti Mahajan'
tp1319
a(S'500879920'
S'Arjun Mattoo'
tp1320
a(S'747090789'
S'Shashank Gupta'
tp1321
a(S'100004901135250'
S'Vikram Goswami'
tp1322
a(S'100000230228871'
S'Tarang Gupta'
tp1323
a(S'508773835'
S'Saugaat Chadha'
tp1324
a(S'567235366'
S'Abhishek Gupta'
tp1325
a(S'1171034843'
S'Armand Cheah'
tp1326
a(S'223604038'
S'Vardaan Agarwal'
tp1327
a(S'1404992670'
S'Ishan Banerjee'
tp1328
a(S'515607131'
S'Noor Gupta'
tp1329
a(S'511181276'
S'Raghav Narayan'
tp1330
a(S'500317999'
S'Rajiv Daryanani'
tp1331
a(S'1093579286'
S'Jairaj Arora'
tp1332
a(S'732336459'
S'Dhruv Gopinath'
tp1333
a(S'1224664624'
S'Sean Cox'
tp1334
a(S'591695562'
S'Ira Chakraborty'
tp1335
a(S'770715550'
S'Shardul Sasan'
tp1336
a(S'100005074390717'
S'Saloni Dhir'
tp1337
a(S'788580402'
S'Valeria Bernal'
tp1338
a(S'1421315726'
S'Taarini Shahi'
tp1339
a(S'570611661'
S'Leigh Louise Horan'
tp1340
a(S'839055424'
S'Alejandra Gutierrez'
tp1341
a(S'565254504'
S'Amparo Hofmann-Pinilla'
tp1342
a(S'1268846468'
S'Rishikumar Nadarajah'
tp1343
a(S'1510590681'
S'Vrishak Pande'
tp1344
a(S'897655275'
S'Riday Banerji'
tp1345
a(S'1277192822'
S'Vikrant Kumar'
tp1346
a(S'718641109'
S'Vaibhav Kapoor'
tp1347
a(S'546703865'
S'Kunal Arora'
tp1348
a(S'100000509691564'
S'Ayushi Djr Markus'
tp1349
a(S'777170233'
S'Sahaj Chawla'
tp1350
a(S'1132295386'
S'Devikaa Nanda'
tp1351
a(S'560560610'
S'Carishma Roy'
tp1352
a(S'657120373'
S'Gursakhi Lugani'
tp1353
a(S'1513458195'
S'Advay Tandon'
tp1354
a(S'664540022'
S'Shirina Sawhney'
tp1355
a(S'100001509057855'
S'Ayla Ahmed'
tp1356
a(S'818600713'
S'Neeraj Mashru'
tp1357
a(S'604030399'
S'Suchita Singh Shekhawat'
tp1358
a(S'100006965491400'
S'Harleen Chawla'
tp1359
a(S'512981822'
S'Avani Venkateswaran'
tp1360
a(S'1561991844'
S'Parigya Malhotra'
tp1361
a(S'1202113246'
S'Yashveer Chaudhry'
tp1362
a(S'702355034'
S'Varun Deo'
tp1363
a(S'631660311'
S'Aruja Vashi'
tp1364
a(S'1547877606'
S'Manasvi Jerath'
tp1365
a(S'100000293918502'
S'Burhan Awan'
tp1366
a(S'618456975'
S'Faisal Qureshi'
tp1367
a(S'687025225'
S'Devika Patel'
tp1368
a(S'701781934'
S'Rosie Dunlavey'
tp1369
a(S'100002465402873'
S'Arnav Ahluwalia'
tp1370
a(S'813052769'
S'Lakshay Khanna'
tp1371
a(S'100001041251954'
S'Avantika Modi'
tp1372
a(S'100001188126874'
S'Shahaan Dalal'
tp1373
a(S'100000284247984'
S'Jas Batra'
tp1374
a(S'767540087'
S'Saagar Patel'
tp1375
a(S'1486333126'
S'Adarsh Prashara'
tp1376
a(S'523221025'
S'Anyaa Dev'
tp1377
a(S'512852760'
S'Rifka Verma'
tp1378
a(S'584480365'
S'Avantika Sinha'
tp1379
a(S'1306694561'
S'Jaiman Singh'
tp1380
a(S'1408183297'
S'Dharminder Singh Anand'
tp1381
a(S'100000525856412'
S'Abhishek Verma'
tp1382
a(S'702118230'
S'Vinayak Lall'
tp1383
a(S'768932367'
S'Arjun Apj Puri'
tp1384
a(S'521968962'
S'Rupankit Saha'
tp1385
a(S'722160313'
S'Uday Vir Singh'
tp1386
a(S'1450687912'
S'Oscar Dos Santos Torres'
tp1387
a(S'1353360356'
S'Avni Thakrar'
tp1388
a(S'1344486418'
S'Shekhar Sharma'
tp1389
a(S'603675461'
S'Shreya Chadha'
tp1390
a(S'100001802069102'
S'Shreshtha Dang'
tp1391
a(S'1288921721'
S'Ansh Seth'
tp1392
a(S'683390225'
S'Seerat Batra'
tp1393
a(S'100003884040851'
S'Anadya Gujral'
tp1394
a(S'718135234'
S'Samay Mahendru'
tp1395
a(S'100002330798219'
S'Asmita Chaturvedi'
tp1396
a(S'833732763'
S'Abhinav Handa'
tp1397
a(S'100001310570296'
S'Ananya Vir'
tp1398
a(S'573918110'
S'Divya Hariharan'
tp1399
a(S'100002022623059'
S'Ishita Sethi'
tp1400
a(S'575585314'
S'Ishan Khanna'
tp1401
a(S'1552314963'
S'Pallav Dosh'
tp1402
a(S'1481217419'
S'Indraveer Singh'
tp1403
a(S'738030165'
S'Mayank Malhotra'
tp1404
a(S'549885555'
S'Trigun Das'
tp1405
a(S'514329187'
S'Richa Narain'
tp1406
a(S'100000418539869'
S'Aniket Mookerjee'
tp1407
a(S'570012924'
S'Shiv Mohan Dutt'
tp1408
a(S'654476773'
S'Rashan Sultan'
tp1409
a(S'700918097'
S'Shyra Hoon'
tp1410
a(S'1551523746'
S'Sunaina Malaviya'
tp1411
a(S'698175942'
S'Arunima Tenzin Tara'
tp1412
a(S'1314474677'
S'Bharat Roy'
tp1413
a(S'898695634'
S'Anya Mehra'
tp1414
a(S'561905281'
S'Kshitij Khemka'
tp1415
a(S'617160017'
S'Nikhil Pandhi'
tp1416
a(S'561775606'
S'Parull Khanna'
tp1417
a(S'794944671'
S'Rishibha Kawatra'
tp1418
a(S'100002204940684'
S'Kopal Jain'
tp1419
a(S'100002080658524'
S'Devanshi Arya'
tp1420
a(S'100001858162536'
S'Dharampal Singh Malik'
tp1421
a(S'539857708'
S'Apoorv Nagar'
tp1422
a(S'1247809233'
S'Manmeet Singh Narula'
tp1423
a(S'1022724670'
S'Amit Raj'
tp1424
a(S'1499702299'
S'Jon Allsop'
tp1425
a(S'507971068'
S'Vindu Mai Chotani'
tp1426
a(S'100002350230729'
S'Varun Dua'
tp1427
a(S'663571272'
S'Mitiksha Shahani'
tp1428
a(S'1314063040'
S'Alisha Uppal'
tp1429
a(S'744200347'
S'Chinar Berry'
tp1430
a(S'828867'
S'Saniya Makker'
tp1431
a(S'1028966478'
S'Suvrat Sondhi'
tp1432
a(S'590491820'
S'Anuj Sakhuja'
tp1433
a(S'633426277'
S'Mehma Atwal'
tp1434
a(S'850305327'
S'Radhika Bhutani'
tp1435
a(S'602265166'
S'Arko Mukherjee'
tp1436
a(S'517781960'
S'Tanisha Diwan'
tp1437
a(S'100003810182458'
S'Shrey Tanwar'
tp1438
a(S'562783222'
S'Faaiza Noor Seyid'
tp1439
a(S'284001967'
S'Madhav Narang'
tp1440
a(S'852965081'
S'Tanya Katyal'
tp1441
a(S'541075246'
S'Anshu Singh'
tp1442
a(S'517362721'
S'Mihira Vasudeva'
tp1443
a(S'707625309'
S'Hannah Geis'
tp1444
a(S'100001671017216'
S'Tia Negi'
tp1445
a(S'100000007261766'
S'Anisha Bhardwaj'
tp1446
a(S'100005553752800'
S'Sanjana Hira'
tp1447
a(S'501884393'
S'Pippa Rose Cullingworth'
tp1448
a(S'500340606'
S'Neel Ghose'
tp1449
a(S'561220454'
S'Vanya Vaishnavi Singh'
tp1450
a(S'696842256'
S'Gauri Dimri'
tp1451
a(S'100002012820547'
S'Adhiraj Singh'
tp1452
a(S'511237709'
S'Devak Davda'
tp1453
a(S'514912067'
S'Sukanya Goel'
tp1454
a(S'643495446'
S'Aditya Vikram Kundra'
tp1455
a(S'675183094'
S'Aljames De Castro Untalan'
tp1456
a(S'695125075'
S'Mark Jones'
tp1457
a(S'536020384'
S'Siddharth Mehra'
tp1458
a(S'1478065850'
S'Teghdeep Singh'
tp1459
a(S'100003643373491'
S'Akshath Parasrampuria'
tp1460
a(S'514861655'
S'Viveka Bhandari'
tp1461
a(S'680556454'
S'Swati Kankan'
tp1462
a(S'717575074'
S'Udit Bhagchandani'
tp1463
a(S'690896703'
S'Shivani Sharma'
tp1464
a(S'1468194509'
S'Aantika Tandon'
tp1465
a(S'755028137'
S'Aakanksha Khurana'
tp1466
a(S'1502285381'
S'Charles Glover'
tp1467
a(S'1759226558'
S'Shreya Kapoor'
tp1468
a(S'632418296'
S'Raunak Gupta'
tp1469
a(S'835748367'
S'Disha Gupta'
tp1470
a(S'1331127794'
S'Aman Khanna'
tp1471
a(S'545395458'
S'Sidd Kurup'
tp1472
a(S'503682682'
S'Tushar Diwan'
tp1473
a(S'100000387816000'
S'Mahin Rai'
tp1474
a(S'527846968'
S'Ava Mayr'
tp1475
a(S'1471120110'
S'Aditi Taneja'
tp1476
a(S'670129003'
S'Shivang Sethi'
tp1477
a(S'100000888840907'
S'Julio Cesar Ferreira'
tp1478
a(S'1185090383'
S'Shaurya Dimri'
tp1479
a(S'538499795'
S'Pawan Negi'
tp1480
a(S'1649547098'
S'Tarun Arora'
tp1481
a(S'514430446'
S'Eshaan Sarine'
tp1482
a(S'100001199853919'
S'Tahira Tara Chawla'
tp1483
a(S'667452563'
S'Purvai Rai'
tp1484
a(S'1316075776'
S'Anoushka Kumar'
tp1485
a(S'1609980241'
S'Raoul Malhotra'
tp1486
a(S'1585872650'
S'Mohit Mohindra'
tp1487
a(S'523592886'
S'Tushar Kapoor'
tp1488
a(S'683735533'
S'Yashovardhan Godha'
tp1489
a(S'100000413770366'
S'Deepak Chhabra'
tp1490
a(S'1231465164'
S'Manas Punhani'
tp1491
a(S'771143139'
S'Uday Khanna'
tp1492
a(S'100003009198021'
S'Adam Clarke'
tp1493
a(S'1067100563'
S'Viren Bajaj'
tp1494
a(S'100001573118171'
S'Anhad Chadha'
tp1495
a(S'516185728'
S'Jai Oberoi'
tp1496
a(S'772410036'
S'Reuben Jacob'
tp1497
a(S'593411396'
S'Madhav Maharaj'
tp1498
a(S'1029319267'
S'Raghav Bhasin'
tp1499
a(S'1408913180'
S'Arjun Prakash'
tp1500
a(S'854690337'
S'Maroof Moulvi'
tp1501
a(S'513261287'
S'Vyushita Sahay'
tp1502
a(S'537940076'
S'Shoaib Kohli'
tp1503
a(S'509542367'
S'Aman Adil'
tp1504
a(S'1045829892'
S'Raghav Chopra'
tp1505
a(S'100005325582020'
S'Svanika Singh Saxena'
tp1506
a(S'518576409'
S'Rachel Goddard'
tp1507
a(S'591776074'
S'Sanjam Chawla'
tp1508
a(S'657585021'
S'Ishaan Misra'
tp1509
a(S'1049373874'
S'Rahul Gautam'
tp1510
a(S'513668312'
S'Lylah Shaw'
tp1511
a(S'667209688'
S'Satender Singh Vijayran'
tp1512
a(S'556670367'
S'Sumer Bir Singh'
tp1513
a(S'100001708324761'
S'Lse Su Rag'
tp1514
a(S'1383291442'
S'Naomi Gnanapragasam'
tp1515
a(S'100000747704500'
S'Vikas Tokas'
tp1516
a(S'1141336511'
S'Upadhyay Sarvesh'
tp1517
a(S'100000633493263'
S'Amitabh Jha'
tp1518
a(S'586381081'
S'Dhananjay Patni'
tp1519
a(S'100001412559511'
S'Shaurya Dimrii'
tp1520
a(S'704296959'
S'Akanksha Ahuja'
tp1521
a(S'896790116'
S'Ishaan Bhattacharya'
tp1522
a(S'100003799659184'
S'Dhriti Anand'
tp1523
a(S'100002379024740'
S'Aradhana Parmeshwar'
tp1524
a(S'100000396467139'
S'Shraddha Maheshwary'
tp1525
a(S'1061179637'
S'Yazad Z Aria'
tp1526
a(S'100003839166045'
S'Rachita Gujral'
tp1527
a(S'554895900'
S'Vishaw Gaurav'
tp1528
a(S'513612761'
S'Zeyn Shaw'
tp1529
a(S'518065706'
S'Diiva Garg'
tp1530
a(S'100000463892410'
S'Urvi Kalra'
tp1531
a(S'1202748682'
S'Vrinda Sant'
tp1532
a(S'1167347033'
S'Abhishek Yadav'
tp1533
a(S'683720363'
S'Ishaan Bhatia'
tp1534
a(S'500773626'
S'Hamza Rehman'
tp1535
a(S'100002268268939'
S'Dhruv Khurana'
tp1536
a(S'517565787'
S'Pranika Malhotra'
tp1537
a(S'785670570'
S'Vir Vohra'
tp1538
a(S'100000948044399'
S'Parv Pato'
tp1539
a(S'543180078'
S'Ravinder Dusanj'
tp1540
a(S'775635611'
S'Mehr Talwar'
tp1541
a(S'558485883'
S'Devanshu Sood'
tp1542
a(S'1672600999'
S'Raghav Singh'
tp1543
a(S'727477561'
S'Mahak Goel'
tp1544
a(S'100000764026207'
S'Gabriel Mitra'
tp1545
a(S'718661571'
S'Prateek Sanyal'
tp1546
a(S'1097730351'
S'Arjun Munjal'
tp1547
a(S'518047188'
S'Raghav Mehta'
tp1548
a(S'100002577802567'
S'Partap Rana'
tp1549
a(S'620965170'
S'Bilal Ghori'
tp1550
a(S'542705133'
S'David Olsson'
tp1551
a(S'511190924'
S'Apratim Kumar'
tp1552
a(S'1385361985'
S'Amira Gill'
tp1553
a(S'1112941926'
S'Kasturi Mishra'
tp1554
a(S'100001275420053'
S'Ankit Alawadhi'
tp1555
a(S'667570102'
S'Anushka Pawar'
tp1556
a(S'1091466598'
S'Abhinav Chaudhury'
tp1557
a(S'517175854'
S'Deeksha Lamba'
tp1558
a(S'546709887'
S'Kazim Raza'
tp1559
a(S'1359890290'
S'Harsh Makkar'
tp1560
a(S'100002169517864'
S'Adya Advani'
tp1561
a(S'752080033'
S'Waqas Adenwala'
tp1562
a(S'1123487363'
S'Astha Thapar'
tp1563
a(S'515896400'
S'Sarasija Subramanian'
tp1564
a(S'514727171'
S'Valentina Restrepo Ospina'
tp1565
a(S'813930062'
S'Buddy Singh'
tp1566
a(S'1426781723'
S'Josh Babarinde'
tp1567
a(S'518516403'
S'Vaani Chopra'
tp1568
a(S'100000037905505'
S'Manik Mahajan'
tp1569
a(S'1363705220'
S"Shubho 'Prosonno' Goswami"
tp1570
a(S'506885428'
S'Sejal Choudhari'
tp1571
a(S'727286964'
S'Madhav Bal'
tp1572
a(S'516973900'
S'Tom Cox'
tp1573
a(S'688668367'
S'Sanjana Prakash'
tp1574
a(S'1041938253'
S'Rishikesh Anadkat'
tp1575
a(S'1007800481'
S'Sahil Mehra'
tp1576
a(S'100002834602014'
S'Pooja Thakur'
tp1577
a(S'1512888719'
S'Archit Chenoy'
tp1578
a(S'747155020'
S'Raghav Rakesh Malik'
tp1579
a(S'100004994290922'
S'Anannya Talwar'
tp1580
a(S'100004324895377'
S'Rakesh Bhardwaj'
tp1581
a(S'1244220501'
S'Jeff You'
tp1582
a(S'1562141777'
S'Prakhar Raja'
tp1583
a(S'1448618528'
S'Bharat Ahuja'
tp1584
a(S'100004075374308'
S'Katerina  Daminova'
tp1585
a(S'691881618'
S'Ridhima Malhotra'
tp1586
a(S'1255326003'
S'Neethu Vijayan'
tp1587
a(S'644663176'
S'Zahaan Qureshi'
tp1588
a(S'100000350724552'
S'Rustam Chaudhuri'
tp1589
a(S'100000019256058'
S'Kunal Walia'
tp1590
a(S'100000030277811'
S'Aman Venkateswaran'
tp1591
a(S'1074153610'
S'Surbhi Kapoor'
tp1592
a(S'562055460'
S'Radhika Todi'
tp1593
a(S'641835475'
S'Kartik Mathur'
tp1594
a(S'100002017641922'
S'Savini Mehta'
tp1595
a(S'1054795492'
S'Tejas Rajkotia Luthra'
tp1596
a(S'524960401'
S'Shivangi Gadhok'
tp1597
a(S'100001443770048'
S'Shreyas Ahuja'
tp1598
a(S'1139333311'
S'Kanan Parida'
tp1599
a(S'547755190'
S'Mehtab Singh Hans'
tp1600
a(S'1083711164'
S'Abi Doda'
tp1601
a(S'734255313'
S'Swikriti Vaid'
tp1602
a(S'626635367'
S'Sabeera Chandok'
tp1603
a(S'1043292924'
S'Nikkita Anil Kumar'
tp1604
a(S'662115132'
S'Divyansh Kapoor'
tp1605
a(S'663585388'
S'Ameesh Bhatnagar'
tp1606
a(S'572435141'
S'Adhish Chhabra'
tp1607
a(S'734306678'
S'Prachi Trehan'
tp1608
a(S'1146652294'
S'Mahima Kumar Mahajan'
tp1609
a(S'100000204030546'
S'Sehar Gaur'
tp1610
a(S'100004635792062'
S'Virat Talwar'
tp1611
a(S'687539465'
S'Anubhav Bansal'
tp1612
a(S'566990155'
S'Saket Agarwal'
tp1613
a(S'509291554'
S'Shrayans Ag'
tp1614
a(S'100002717617729'
S'Lse Freshers'
tp1615
a(S'100002133358885'
S'Aman Rastogi'
tp1616
a(S'546900250'
S'Vidushi Nagarajan'
tp1617
a(S'509340535'
S'Udayraj Singh'
tp1618
a(S'566225202'
S'Sayan  Palchowdhury'
tp1619
a(S'1430246154'
S'Rajat Ahlaya'
tp1620
a(S'517361850'
S'Aashna Gupta'
tp1621
a(S'1312291919'
S'Himanshu Khanna'
tp1622
a(S'625377422'
S'Arjun Mehta'
tp1623
a(S'510929022'
S'Udayvir Rana'
tp1624
a(S'37003236'
S'Om Dhumatkar'
tp1625
a(S'512814954'
S'Vatsal Jariwala'
tp1626
a(S'648477646'
S'Sandeep Raj Phogaat'
tp1627
a(S'1271872206'
S'Kaith Sharma'
tp1628
a(S'582084993'
S'Ishan Tiwathia'
tp1629
a(S'721906520'
S'Hritik Sachdeva'
tp1630
a(S'1269007086'
S'Ishan Goyal'
tp1631
a(S'643021637'
S'Sneha Thapliyal'
tp1632
a(S'732372440'
S'Mohammed Raza'
tp1633
a(S'100000048216753'
S'Parigya Malhotra'
tp1634
a(S'517497700'
S'Mohit Rao'
tp1635
a(S'501542974'
S'Kabir Bose'
tp1636
a(S'663311086'
S'Siddhartha Prasad'
tp1637
a(S'100004275547151'
S'Saisha Goswamy'
tp1638
a(S'739087001'
S'Chirag Ahluwalia'
tp1639
a(S'692735256'
S'Jagrit Anand'
tp1640
a(S'600102577'
S'Andrew Peter Irvine'
tp1641
a(S'517438057'
S'Shalin Shah'
tp1642
a(S'1460871293'
S'Meghna Chowdhary'
tp1643
a(S'541745322'
S'Karishma Nair'
tp1644
a(S'637405176'
S'Suhina Kohli'
tp1645
a(S'1313415071'
S'Tanvi Sood'
tp1646
a(S'613007348'
S'Nazakat Khan'
tp1647
a(S'1204315604'
S'Vedant Batra'
tp1648
a(S'734427617'
S'Sally Bonsall'
tp1649
a(S'517466954'
S'Abhishek Rajan'
tp1650
a(S'695563665'
S'Shubham Bansal'
tp1651
a(S'1403425053'
S'Samarth Hazari'
tp1652
a(S'1696256223'
S'Kimberley Sarah Ireland'
tp1653
a(S'590646100'
S'Viraj Sahgal'
tp1654
a(S'553886393'
S'Stacy Zhong'
tp1655
a(S'534183824'
S'Sawani Kumar'
tp1656
a(S'565295123'
S'Kanika Gupta'
tp1657
a(S'774075388'
S'Ali Khalid Mela'
tp1658
a(S'100001081508853'
S'Rohin Singh Slehria'
tp1659
a(S'100001734922089'
S'Khushboo Kapoor'
tp1660
a(S'716546425'
S'Anaita Tejpal'
tp1661
a(S'100002490004053'
S'Natasha Patel'
tp1662
a(S'100000475749796'
S'Dhaval Bhartiya'
tp1663
a(S'507810637'
S'Nanaki Singh'
tp1664
a(S'1105780065'
S'Saanchi Bhatia'
tp1665
a(S'509708591'
S'Desna Sharma'
tp1666
a(S'100000641853294'
S'Smera Bhatia'
tp1667
a(S'512781809'
S'Harkrit Sethi'
tp1668
a(S'502650786'
S'Akanksha Kapoor'
tp1669
a(S'720280260'
S'Dhruv Motwani'
tp1670
a(S'507939351'
S'Ishita Bahadur'
tp1671
a(S'100003022856130'
S'Chaitanya Gupta'
tp1672
a(S'100002480298097'
S'Karan Pawar'
tp1673
a(S'548351354'
S'Shamik Savjani'
tp1674
a(S'1004655899'
S'Bharat Arora'
tp1675
a(S'507058000'
S'Irna Sayeed'
tp1676
a(S'722750182'
S'Vidur Hans'
tp1677
a(S'100001020144597'
S'Myra Khanna'
tp1678
a(S'896880132'
S'Aayu Bishnoi'
tp1679
a(S'722925337'
S'Dhruv Vatsa'
tp1680
a(S'510572308'
S'Meher Sra'
tp1681
a(S'1191827973'
S'Vinayak Sureka'
tp1682
a(S'100006074223529'
S'Leanne Carter'
tp1683
a(S'37006973'
S'Ruchi Parekh'
tp1684
a(S'510709962'
S'Aman Mittal'
tp1685
a(S'100006102487614'
S'Anil Verma'
tp1686
a(S'100004740667983'
S'Chunnu Rajput'
tp1687
a(S'757462177'
S'Aqeel Rafiq'
tp1688
a(S'662986501'
S'Ria Kumari'
tp1689
a(S'1761051778'
S'Mukul Dagar'
tp1690
a(S'100000044575279'
S'Amol Agarwal'
tp1691
a(S'705470682'
S'Lisa Anne Lobo'
tp1692
a(S'1091119263'
S'Pratishtha Ghosh'
tp1693
a(S'839930295'
S'Devika Hooda'
tp1694
a(S'612310528'
S'Jai K. Anand'
tp1695
a(S'509373301'
S'Gayatri Sahdev'
tp1696
a(S'647196050'
S'Ahilya Mehta'
tp1697
a(S'504064795'
S'Nandini Mehra'
tp1698
a(S'559792477'
S'Pragya Bhargava'
tp1699
a(S'1271367419'
S'Kavan Narayan Sinha'
tp1700
a(S'100000765037089'
S'Rahul Tyagi'
tp1701
a(S'771025356'
S'Natasha Dhawan'
tp1702
a(S'632578637'
S'Krisna Gambhir'
tp1703
a(S'699195789'
S'Riya Tanna'
tp1704
a(S'577056709'
S'Sharang Sasan'
tp1705
a(S'572621695'
S'Vikram Mathur'
tp1706
a(S'510282666'
S'Komal Shah'
tp1707
a(S'618726232'
S'Ajit Singh'
tp1708
a(S'771870203'
S'Maz Saggu'
tp1709
a(S'1454180229'
S'Mrinal Kanwar'
tp1710
a(S'625543804'
S'Aayush Celly'
tp1711
a(S'516634181'
S'Ahsan Beg'
tp1712
a(S'100000453927799'
S'Mika Beechouk'
tp1713
a(S'100000181552764'
S'Anandita Seth'
tp1714
a(S'1094937521'
S'Michelle Alam Shah'
tp1715
a(S'577338146'
S'Raghav Sapra'
tp1716
a(S'1530484732'
S'Divvijay Singh'
tp1717
a(S'1834155584'
S'Sushaen Vasisht'
tp1718
a(S'1297487809'
S'Ishita Tewari'
tp1719
a(S'100001315827720'
S'Neelohit Ghosh'
tp1720
a(S'886910256'
S'Vasundhra Jain'
tp1721
a(S'531478969'
S'Saahas Jain'
tp1722
a(S'1073202828'
S'Jasmehar Wadhwa'
tp1723
a(S'100002157513040'
S'Meghna Ann Bajaj'
tp1724
a(S'683171757'
S'Varun Budhiraja'
tp1725
a(S'1581481667'
S'Siddharth Shekar'
tp1726
a(S'652124807'
S'Imaiyan Aaron'
tp1727
a(S'270300025'
S'Sidhant Lamba'
tp1728
a(S'100001257068561'
S'Mehma Anand'
tp1729
a(S'1088730561'
S'Prithvideep Singh'
tp1730
a(S'829788417'
S'Anavi Chaturvedi'
tp1731
a(S'506022906'
S'Rohan Thadani'
tp1732
a(S'1578230990'
S'Angad Alagh'
tp1733
a(S'100003315522031'
S'Aditya Chib'
tp1734
a(S'617181135'
S'Raghav Saboo'
tp1735
a(S'100001901749919'
S'Jai Kanwar'
tp1736
a(S'631500330'
S'Manasvi Gupta'
tp1737
a(S'612085257'
S'KR Eshan'
tp1738
a(S'515471379'
S'Manik Aggarwal'
tp1739
a(S'627316295'
S'Zara Adil'
tp1740
a(S'100000707640225'
S'Anmol Singh'
tp1741
a(S'504319844'
S'Joshayet Kapur'
tp1742
a(S'609127370'
S'Chaitanya Sharma'
tp1743
a(S'1381835698'
S'Siddharth Bahl'
tp1744
a(S'884085583'
S'Sanah Peerbhai'
tp1745
a(S'589572441'
S'Zohaib Zafrullah'
tp1746
a(S'552417460'
S'Mehtab Singh'
tp1747
a(S'611835396'
S'Neil Shah'
tp1748
a(S'666455444'
S'Shiva Ps'
tp1749
a(S'563440105'
S'Ayesha Chhabra'
tp1750
a(S'1347067539'
S'Akanksha Joglekar'
tp1751
a(S'501863078'
S'Ishan Sahgal'
tp1752
a(S'728541606'
S'Tanvi Midha'
tp1753
a(S'508784904'
S'Rahul Jain'
tp1754
a(S'100006821680554'
S'Ananya Kapur'
tp1755
a(S'1719112264'
S'AJ Saini'
tp1756
a(S'761028508'
S'Mansi Goenka'
tp1757
a(S'1212231524'
S'Sitara Singh'
tp1758
a(S'510916200'
S'Naushera Malhotra Debu'
tp1759
a(S'1096419757'
S'Akshat Seth'
tp1760
a(S'501388017'
S'Sahil Gupta'
tp1761
a(S'749612544'
S'Roshni Sindhwani'
tp1762
a(S'1069226840'
S'Lorenz Kost'
tp1763
a(S'511105205'
S'Nayantara Parikh'
tp1764
a(S'1262478785'
S'Narayani Gupta'
tp1765
a(S'1036674339'
S'Shweta Chopra'
tp1766
a(S'566916780'
S'Preet Mendiratta'
tp1767
a(S'100001839557074'
S'Rafia Murtaza'
tp1768
a(S'1104071437'
S'Ahmer Abdul Wahid'
tp1769
a(S'1541979261'
S'Manan Sharma'
tp1770
a(S'501588419'
S'Vishal M Ladwa'
tp1771
a(S'716675452'
S'Rashi Dhing'
tp1772
a(S'100004145940066'
S'Nidhi Bhardwaj'
tp1773
a(S'100000031231139'
S'Mayank Tyagi'
tp1774
a(S'1311344499'
S'Shivam Agrawal'
tp1775
a(S'867205187'
S'Karan Choudhry'
tp1776
a(S'820030590'
S'Akshita Mehra'
tp1777
a(S'598740886'
S'Roshni Bishnoi'
tp1778
a(S'707405076'
S'Aashina M. Kapoor'
tp1779
a(S'100001997234801'
S'Natasha Sharma'
tp1780
a(S'512509498'
S'Savar Duggal'
tp1781
a(S'1438420672'
S'Somya Bakshi'
tp1782
a(S'100000917670790'
S'Shreya Sen'
tp1783
a(S'100002785090566'
S'Ayushi Sabharwal'
tp1784
a(S'1666216215'
S'Kanhav Thakur'
tp1785
a(S'512369879'
S'Bhavika Anand'
tp1786
a(S'517669068'
S'Rishab Arora'
tp1787
a(S'507859330'
S'Hamza Khan'
tp1788
a(S'825210383'
S'Seb Bruhn'
tp1789
a(S'660242535'
S'Shreya Gandhi'
tp1790
a(S'1008036137'
S'Jairus Antony'
tp1791
a(S'586043986'
S'Sahil Chugh'
tp1792
a(S'784264399'
S'Shaira Jaidka'
tp1793
a(S'714886203'
S'Rama Patel'
tp1794
a(S'896110120'
S'Alastair Duncan'
tp1795
a(S'611630636'
S'Aashim Usgaonkar'
tp1796
a(S'1180122763'
S'Kartik Jhanji'
tp1797
a(S'100000265967434'
S'Sarita Sanwal Mathur'
tp1798
a(S'628165812'
S'Anuradha Gupta'
tp1799
a(S'841778443'
S'Laksh Pal Singh'
tp1800
a(S'1753020843'
S'Rashi Chaknalwar'
tp1801
a(S'638467604'
S'Param Kandhari'
tp1802
a(S'717095346'
S'Raghav Handa'
tp1803
a(S'100000614604593'
S'Piush Srivastava'
tp1804
a(S'1319545109'
S'Karan Shrivastava'
tp1805
a(S'100000832830503'
S'Chaitanya Dhillon'
tp1806
a(S'601970400'
S'Varun Mehra'
tp1807
a(S'500462358'
S'Anushree Kalia'
tp1808
a(S'1365651069'
S'Aayush Poddar'
tp1809
a(S'556296183'
S'Ricky Uppal'
tp1810
a(S'577636175'
S'Archit Gupta'
tp1811
a(S'702815245'
S'Akshay Maheshwari'
tp1812
a(S'100001156580660'
S'Novna  Siingh'
tp1813
a(S'100003834395721'
S'Gianna Ghaswalla'
tp1814
a(S'512992973'
S'Tulika Raj'
tp1815
a(S'539680573'
S'Juhi Bahl'
tp1816
a(S'516948944'
S'Akash Chopra'
tp1817
a(S'1426811865'
S'Samarth Anand'
tp1818
a(S'538570229'
S'Mallika Pal'
tp1819
a(S'539175031'
S'Aditya Amrit Kaushik'
tp1820
a(S'517663368'
S'Tanya Jain'
tp1821
a(S'577080222'
S'Sana Rebecca Kaula'
tp1822
a(S'1048870593'
S'Droan Chhabra'
tp1823
a(S'705705497'
S'Nilza Abdul'
tp1824
a(S'1213936346'
S'Avie Kakkar'
tp1825
a(S'1283525869'
S'Pallavi Saini'
tp1826
a(S'762988928'
S'Tahira Mathur'
tp1827
a(S'1008417490'
S'Yosha Moudgil'
tp1828
a(S'558455723'
S'Nikhil Dama'
tp1829
a(S'100002453860922'
S'Ojasvi Chugh'
tp1830
a(S'556025288'
S'Azaan Ahmad'
tp1831
a(S'1667034001'
S'Bharat Gupta'
tp1832
a(S'500092150'
S'Jaskaran Sandhu'
tp1833
a(S'651221442'
S'Varun Shriram'
tp1834
a(S'1065925752'
S'Bhaskar Menon'
tp1835
a(S'516094894'
S'Nihal Kanwar'
tp1836
a(S'100000021177274'
S'Alex Gaur'
tp1837
a(S'1042893585'
S'Pratyush Nalam'
tp1838
a(S'100000145571484'
S'Vipin Bishnoi'
tp1839
a(S'100003060190211'
S'Soumya Khera'
tp1840
a(S'669780583'
S'Yajur Mehra'
tp1841
a(S'100000063914333'
S'Sukhman Dhillon'
tp1842
a(S'507822712'
S'Aashrey Kapoor'
tp1843
a(S'1074370769'
S'Vrinda Aggarwal'
tp1844
a(S'611630594'
S'Chhavi Jain'
tp1845
a(S'843619196'
S'Nainika Garg'
tp1846
a(S'100003596051459'
S'Adriana Wayne'
tp1847
a(S'729476074'
S'Manyata Malhotra'
tp1848
a(S'509886607'
S'Sumedha Anand'
tp1849
a(S'618986292'
S'Ananya Rae Chandra'
tp1850
a(S'1471172288'
S'Mallika Manchanda'
tp1851
a(S'100002202426275'
S'Aditya Advani'
tp1852
a(S'518148747'
S'Ashwin Hoon'
tp1853
a(S'1224448308'
S'Gautam Raj Anand'
tp1854
a(S'506615352'
S'Aashali Shukla'
tp1855
a(S'572443781'
S'Ambika Singh'
tp1856
a(S'1168447963'
S'Phalguni Jain'
tp1857
a(S'620714915'
S'Prabhjot Virk'
tp1858
a(S'100001576090892'
S'Mani Singh'
tp1859
a(S'514643938'
S'Aliyah Lamba'
tp1860
a(S'1125573376'
S'Ashish Italion Stalion Balboa'
tp1861
a(S'517098936'
S'Pavir Patel'
tp1862
a(S'610590522'
S'Nikita Butalia'
tp1863
a(S'737616129'
S'Dhriti Jain'
tp1864
a(S'1105176531'
S'Omar Malik'
tp1865
a(S'100003727110211'
S'Daksh Singh'
tp1866
a(S'1045346864'
S'Tanya Bedi'
tp1867
a(S'566778114'
S'Devangana Tikku'
tp1868
a(S'747686304'
S'Sherine Swani'
tp1869
a(S'1561315471'
S'Dhruv Basak'
tp1870
a(S'100000469243469'
S'Kshitij Bhatnagar'
tp1871
a(S'1706277361'
S'Lalit Chaudhary'
tp1872
a(S'1454852673'
S'Raghav Prasad'
tp1873
a(S'509007517'
S'Varun Bhanot'
tp1874
a(S'515244527'
S'Tanavi Khandpur'
tp1875
a(S'681072863'
S'Parakh Raja'
tp1876
a(S'1083547222'
S'Siddhant K Tandon'
tp1877
a(S'715935323'
S'Aashna Ahuja'
tp1878
a(S'512512650'
S'Rudy Shriram'
tp1879
a(S'618480110'
S'Arjun Chopra'
tp1880
a(S'505929766'
S'Daman Datta'
tp1881
a(S'901255202'
S'Karanvir Dayal'
tp1882
a(S'100000569780412'
S'Ayaan Faridi'
tp1883
a(S'511220388'
S'Vidur Yadav'
tp1884
a(S'100000071081577'
S'Aviral Himmatramka'
tp1885
a(S'580240850'
S'Purandhi Jindal'
tp1886
a(S'715114028'
S'Shah Pinal'
tp1887
a(S'597517728'
S'Karan Puri'
tp1888
a(S'514865454'
S'Sanjana Kochhar'
tp1889
a(S'1322147630'
S'Kartik Srivastava'
tp1890
a(S'100001142066523'
S'Prashant Bhandari'
tp1891
a(S'1309064969'
S'Amiya Dev'
tp1892
a(S'536235104'
S'Karan Sunda'
tp1893
a(S'1043287378'
S'Sasha Sarah Jacob'
tp1894
a(S'1117145138'
S'Sanjana Mishra'
tp1895
a(S'652997381'
S'Bill Adams'
tp1896
a(S'794740771'
S'Saachi Chandhok'
tp1897
a(S'556595434'
S'Neha Bagchi'
tp1898
a(S'100001826276450'
S'Ayaan Oberoi'
tp1899
a(S'100000676121209'
S'Tanmay Gupta'
tp1900
a(S'639040155'
S'Nikita Lamba'
tp1901
a(S'1786997714'
S'Sanya Ahmed'
tp1902
a(S'723745102'
S'Akshat Roop Rai'
tp1903
a(S'1037533322'
S'Aashray Katial'
tp1904
a(S'1696222349'
S'Aditya Mehta'
tp1905
a(S'1239625391'
S'Aravind Sai'
tp1906
a(S'100000428043032'
S'Udyat Anand'
tp1907
a(S'745950531'
S'Niamat Singh'
tp1908
a(S'620057545'
S'Rushika Tyabji'
tp1909
a(S'823670640'
S'Mahera Walia'
tp1910
a(S'1239938884'
S'Samvi Srivastava'
tp1911
a(S'508294905'
S'Ravjeet Singh'
tp1912
a(S'561710391'
S'Jyotika Bindra'
tp1913
a(S'1496820569'
S'Manika Garg'
tp1914
a(S'632651296'
S'Karan Datta'
tp1915
a(S'1613490052'
S'Sanam Shah'
tp1916
a(S'100000147877378'
S'Rhea Bagchi'
tp1917
a(S'1783689389'
S'Adi Khanna'
tp1918
a(S'803712225'
S'Vishnu Mohan'
tp1919
a(S'1147892708'
S'Deeptanshu Kotru'
tp1920
a(S'100000105626300'
S'Dashmeet Singh'
tp1921
a(S'1456042261'
S'Karan Chhabra'
tp1922
a(S'510854780'
S'Meher Eva Sondhi'
tp1923
a(S'100001260560101'
S'Riya Razdan'
tp1924
a(S'100005376934745'
S'Economist Lse'
tp1925
a(S'1091220130'
S'Nishkaam Paul'
tp1926
a(S'687899110'
S'Neel Rajani'
tp1927
a(S'812525022'
S'Noor Shergill'
tp1928
a(S'100006130633932'
S'Manya Sawhney'
tp1929
a(S'1357417390'
S'Gaurika Juneja'
tp1930
a(S'534755007'
S'Pooja Patel'
tp1931
a(S'603670940'
S'Piyush Negi'
tp1932
a(S'100000037232068'
S'Orvana Ghai'
tp1933
a(S'514662784'
S'Hamza Sheikh'
tp1934
a(S'1073577483'
S'Akshara Sharma'
tp1935
a(S'771815170'
S'Agni Kumar Bose'
tp1936
a(S'532924049'
S'Rami Braysh'
tp1937
a(S'1217829525'
S'Ashima Jain'
tp1938
a(S'1523768662'
S'Sanchay Jaipuriyar'
tp1939
a(S'100002498551752'
S'Rajvir Fernandes'
tp1940
a(S'100001427820931'
S'Anurati Tandon'
tp1941
a(S'848740270'
S'Sagar Arya'
tp1942
a(S'1293123956'
S'Rahul Tampi'
tp1943
a(S'611490318'
S'Ishan Soni'
tp1944
a(S'610525530'
S'Divya Kehr'
tp1945
a(S'519341713'
S'Pritesh Gupta'
tp1946
a(S'100001602508563'
S'Ankur Bishnoi'
tp1947
a(S'1069938438'
S'Nishad Potdar'
tp1948
a(S'757840514'
S'Mehr Bilal'
tp1949
a(S'636307343'
S'Riya Sarin'
tp1950
a(S'100000509295708'
S'Sudhir Chaudhary'
tp1951
a(S'638117035'
S'Laavanya Gupta'
tp1952
a(S'753980611'
S'Tuhin Kalia'
tp1953
a(S'512556779'
S'Akshay Sood'
tp1954
a(S'1016815721'
S'Mitchell Winkie'
tp1955
a(S'780469203'
S'Tanvi Puri'
tp1956
a(S'704733299'
S'Sonali Syngal'
tp1957
a(S'1148962573'
S'Suvid Ajmera'
tp1958
a(S'100001226762593'
S'Rohan Midha'
tp1959
a(S'562290191'
S'Dvyani Sahai'
tp1960
a(S'516110625'
S'Sana Tariq'
tp1961
a(S'706291553'
S'Amandeep Singh'
tp1962
a(S'510023441'
S'Utsav Chester'
tp1963
a(S'100002484103634'
S'Ronica Singh'
tp1964
a(S'709776112'
S'Myra Khanna'
tp1965
a(S'100001558598492'
S'Niky Chopra'
tp1966
a(S'522895231'
S'Jonny Levy'
tp1967
a(S'746108878'
S'Vasundhara Singh'
tp1968
a(S'669460938'
S'Nirati Nayak'
tp1969
a(S'515184994'
S'Kunal Chhikara'
tp1970
a(S'100000857878402'
S'Suryash Chakravarty'
tp1971
a(S'508147874'
S'Sidharth Gajapati Raju'
tp1972
a(S'565860626'
S'Varun Anand'
tp1973
a(S'516583295'
S'Tanuj Paul B'
tp1974
a(S'100003187782865'
S'Neha Arora'
tp1975
a(S'576215345'
S'Sanjana Malhotra'
tp1976
a(S'543880149'
S'Tushar Dadhwal'
tp1977
a(S'100003120256344'
S'Deepak Sharma'
tp1978
a(S'526648693'
S'Mehak Kapur Chishti'
tp1979
a(S'100003683859539'
S'Jatin Dagar'
tp1980
a(S'662565392'
S'Raunaq Jaisinghani'
tp1981
a(S'100003383961582'
S'Nisha Sherawat'
tp1982
a(S'1215137025'
S'Shiv Mehra'
tp1983
a(S'556455257'
S'Abhirath Singh'
tp1984
a(S'100000190301417'
S'Yuvraj Kumar Mahajan'
tp1985
a(S'587868042'
S'Abhijoy Saha'
tp1986
a(S'510103353'
S'Isha Agarwal'
tp1987
a(S'510535598'
S'Varun K'
tp1988
a(S'622660773'
S'Himanshu Sharan'
tp1989
a(S'505084987'
S'Shaz Zahs'
tp1990
a(S'1032847676'
S'Aditya Varma'
tp1991
a(S'100000331246486'
S'Sayem  Raina'
tp1992
a(S'1453782419'
S'Ishan Iyer'
tp1993
a(S'669745360'
S'Raghuvir Khare'
tp1994
a(S'779631896'
S'Karan Bishnoi'
tp1995
a(S'721868110'
S'Amiya Chopra'
tp1996
a(S'665857446'
S'Jayati Modi'
tp1997
a(S'789320220'
S'Lakshana Palat'
tp1998
a(S'1178325155'
S'Sai Manik'
tp1999
a(S'1233729750'
S'Kuldeep Bishnoi'
tp2000
a(S'518429118'
S'Kriti Amar'
tp2001
a(S'100000636940565'
S'Shalini Ray'
tp2002
a(S'512643976'
S'Bhairav Gupta'
tp2003
a(S'572300108'
S'In\\u00e9s GA'
tp2004
a(S'1344533407'
S'Adiraj Gill'
tp2005
a(S'502599145'
S'Aaftaab Malik'
tp2006
a(S'1597092696'
S'Medha Aurora'
tp2007
a(S'512896256'
S'Darpan Harar'
tp2008
a(S'510587469'
S'Ruushill Bhaskar'
tp2009
a(S'1216462953'
S'Abhay Sen'
tp2010
a(S'797590636'
S'Tanmayesh Kohli'
tp2011
a(S'1018100495'
S'Harish Sanduja'
tp2012
a(S'1330220588'
S'Aman Agarwal'
tp2013
a(S'100000155914693'
S'Shekhar Sharma'
tp2014
a(S'1462191642'
S'Sathya Sahay'
tp2015
a(S'716635342'
S'Nastasja Dharsi'
tp2016
a(S'778153486'
S'Tunde Akinboyewa'
tp2017
a(S'500842266'
S'Avalok Langer'
tp2018
a(S'1100405326'
S'Piyush Panwar'
tp2019
a(S'538897403'
S'Aditi Dalmia'
tp2020
a(S'730475511'
S'Kandarp Swarup'
tp2021
a(S'502532530'
S'Anishka Bagla'
tp2022
a(S'595963689'
S'Fateh Vir Singh'
tp2023
a(S'734340116'
S'Paavani Kaul'
tp2024
a(S'1051846388'
S'Saloni Sardana'
tp2025
a(S'100000095387950'
S'Mohit Sharma'
tp2026
a(S'607145165'
S'Urvashi Bahuguna'
tp2027
a(S'529181883'
S'Tara Starr Arora'
tp2028
a(S'500497574'
S'Ankit Gujral'
tp2029
a(S'661053730'
S'Salil Dhawan'
tp2030
a(S'100000935661026'
S'Angad Nagi'
tp2031
a(S'709281848'
S'Musty Kamal'
tp2032
a(S'100005496184481'
S'Seema Rawat Hjcbl'
tp2033
a(S'1464818746'
S'Sidhant Kalra'
tp2034
a(S'100000548299518'
S'Junaid Qayyum'
tp2035
a(S'508357132'
S'Jai Dayal'
tp2036
a(S'808255292'
S'Alisha Anand'
tp2037
a(S'1570042305'
S'Sahib Singh'
tp2038
a(S'525855429'
S'Murtaza Yusuf'
tp2039
a(S'507731279'
S'Geetika Tandon'
tp2040
a(S'510735634'
S'Purti Wakankar'
tp2041
a(S'100005659111066'
S'Devender Shyamkalan'
tp2042
a(S'746268961'
S'Siddharth Thomas'
tp2043
a(S'517610135'
S'Kishan Parshotam'
tp2044
a(S'510013532'
S'Prithvi Bajaj'
tp2045
a(S'526811044'
S'David Dft'
tp2046
a(S'100001858879900'
S'Aryaan Kanwar'
tp2047
a(S'676787096'
S'Diya Singh'
tp2048
a(S'566122028'
S'Amrit Chahal'
tp2049
a(S'768065081'
S'Palash Joshi'
tp2050
a(S'723055367'
S'Varun Gupta'
tp2051
a(S'655227989'
S'Sana Currimbhoy'
tp2052
a(S'516528716'
S'Riddhima Bhatnagar'
tp2053
a(S'100001591917948'
S'Anushka Pinkgaypony Kumar'
tp2054
a(S'516947643'
S'Adi Bahri'
tp2055
a(S'705516389'
S'Anunay Kulshrestha'
tp2056
a(S'100004828002193'
S'Yogesh Sharma'
tp2057
a(S'869900724'
S'Nikita Noronha'
tp2058
a(S'100001581531743'
S'Akshat Chadha'
tp2059
a(S'100002616528060'
S'Breathe South Extension II'
tp2060
a(S'514067870'
S'Mihir Pandey'
tp2061
a(S'100003177800279'
S'Anjini Chandra'
tp2062
a(S'100004025303691'
S'Selina Bhakoo'
tp2063
a(S'615469224'
S'Aaina Dutt'
tp2064
a(S'517153626'
S'Rohan Singh'
tp2065
a(S'1096137739'
S'Devansh Goel'
tp2066
a(S'1033982376'
S'Aniruddh Singh'
tp2067
a(S'100001082308624'
S'Arnav Bhan'
tp2068
a(S'503709344'
S'Sanil Makhija'
tp2069
a(S'100001917974170'
S'Pooja Gupta'
tp2070
a(S'630022617'
S'Nakul Dev Chawla'
tp2071
a(S'1632473058'
S'Raghav Agrawal'
tp2072
a(S'577897049'
S'Anoushka Chanana'
tp2073
a(S'100000616062273'
S'Sumit Godara Jso'
tp2074
a(S'1041406754'
S'Tanvir Singh'
tp2075
a(S'887150477'
S'Sahyr Kohli'
tp2076
a(S'509596441'
S'Siddharth Seshan'
tp2077
a(S'100002135724616'
S'Anish Mehra'
tp2078
a(S'1435390050'
S'Kartavya Jain'
tp2079
a(S'631280726'
S'Aastha Biyani'
tp2080
a(S'100000559700046'
S'Siddharth Kapila'
tp2081
a(S'547917560'
S'Sankarshan Tall Uri'
tp2082
a(S'100005361663385'
S'Three-tuns Lse'
tp2083
a(S'100002300001998'
S'Malvika Krishna'
tp2084
a(S'1411479040'
S'Savneet Bhadare'
tp2085
a(S'705927045'
S'Nayana Saran'
tp2086
a(S'100003822274822'
S'Hemant Sharma Karnal'
tp2087
a(S'562354248'
S'Sookrit Malik'
tp2088
a(S'888610102'
S'Aryamman Singh'
tp2089
a(S'100005971598665'
S'Smriti Sukhani'
tp2090
a(S'554638686'
S'Omar Rizwan'
tp2091
a(S'600517716'
S'Shrey Sharma'
tp2092
a(S'507932489'
S'Rajpreet Kaur'
tp2093
a(S'561150835'
S'Akriti Agrawal'
tp2094
a(S'607120000'
S'Neha Priyadarshini'
tp2095
a(S'660265532'
S'Pallavi Kher'
tp2096
a(S'506755672'
S'Shinjini Chinki Saha'
tp2097
a(S'100001337297019'
S'Hopesh Dangal'
tp2098
a(S'512811133'
S'Aarushi Kaath'
tp2099
a(S'100000274932696'
S'Kabeer Sood'
tp2100
a(S'1440386604'
S'Kushagra Srivastava'
tp2101
a(S'880205720'
S'Abir Triple-Caramel Frapp\\u00e9 Chander'
tp2102
a(S'1192029796'
S'Surabhi Bhargava'
tp2103
a(S'509633411'
S'Camille Vardon'
tp2104
a(S'100003664870954'
S'Aakanxit Khullar'
tp2105
a(S'508540602'
S'Aroosh D Sachdev'
tp2106
a(S'100003390098122'
S'Rahul Reddy'
tp2107
a(S'512478065'
S'Kunal Sharma'
tp2108
a(S'100003852183434'
S'Reuben James Chaudhuri'
tp2109
a(S'100000318662641'
S'Saara Thakur'
tp2110
a(S'100002110457140'
S'Adya Joshi'
tp2111
a(S'512533644'
S'Arnav Saraf'
tp2112
a(S'784925563'
S'Abhay Mahajan'
tp2113
a(S'611039533'
S'Tarannum Narula'
tp2114
a(S'100000582092696'
S'Madhav Gupta'
tp2115
a(S'807995084'
S'Sumedha Pruthi'
tp2116
a(S'1083726908'
S'Sheba Vohra'
tp2117
a(S'518136188'
S'Sidhanth Narula'
tp2118
a(S'656745566'
S'Akriti Sumeet Narang'
tp2119
a(S'510055112'
S'Karan Rai'
tp2120
a(S'513432268'
S'Niraj Amin'
tp2121
a(S'543277970'
S'Sugathri Iyer'
tp2122
a(S'623476855'
S'Adhiraaj Anand'
tp2123
a(S'517852508'
S'Ishaan Khosla'
tp2124
a(S'731024024'
S'Aditya Mallik'
tp2125
a(S'540361005'
S'Kriti Dogra'
tp2126
a(S'689897243'
S'Nidhi Thapar'
tp2127
a(S'502362682'
S'Ishaan Dev Kapur'
tp2128
a(S'1015191331'
S'Vedika Haralalka'
tp2129
a(S'100000890175448'
S'Manish Kumar'
tp2130
a(S'531340129'
S'Kush Harshad Shah'
tp2131
a(S'769233625'
S'Anshul Singhania'
tp2132
a(S'707115703'
S'Ishaan Parashar'
tp2133
a(S'595610594'
S'Praveen Narayanan'
tp2134
a(S'1380346700'
S'Nainika Chadha'
tp2135
a(S'1492920063'
S'Anah Talwar'
tp2136
a(S'1454461954'
S'Adia Bhatia'
tp2137
a(S'100002836065818'
S'Aliyah Khan'
tp2138
a(S'628216380'
S'Sonakshi Gandhi'
tp2139
a(S'100006363334990'
S'Parth Sharma'
tp2140
a(S'1144575707'
S'Abeer Mithal'
tp2141
a(S'511735963'
S'Nikita Jajodia'
tp2142
a(S'794935453'
S'Karn Khurana'
tp2143
a(S'538660504'
S'Nitish Puri'
tp2144
a(S'796230290'
S'Arunima Sahni'
tp2145
a(S'100000924228529'
S'Malikah Mehra'
tp2146
a(S'503080132'
S'Shubhra Kumar'
tp2147
a(S'1469396068'
S'Arjun Sodhi'
tp2148
a(S'842070081'
S'Palaash Jyoti'
tp2149
a(S'678926796'
S'Sonali Mittal'
tp2150
a(S'1591117593'
S'Sam Sharma'
tp2151
a(S'517696231'
S'Siddhant Vashistha'
tp2152
a(S'813910091'
S'Nihal Nikam'
tp2153
a(S'515167628'
S'Sugandh Gupta'
tp2154
a(S'771440061'
S'Anmol Ahlawat'
tp2155
a(S'686595778'
S'Prerana Gaur'
tp2156
a(S'1607871176'
S'Purva Sahai'
tp2157
a(S'665450005'
S'Ananya Bhandare'
tp2158
a(S'100002034542848'
S'Nitin Basoya'
tp2159
a(S'510704843'
S'Dhruv Johri'
tp2160
a(S'742899017'
S'Ben Johnson-Ward'
tp2161
a(S'630517993'
S'Naina Narain'
tp2162
a(S'789645311'
S'Rahul Upadrashta'
tp2163
a(S'1205071620'
S'Hari Ramakrishnan'
tp2164
a(S'620508082'
S'Vipluv Gupta'
tp2165
a(S'717960363'
S'Ayush Khanna'
tp2166
a(S'1345231709'
S'Constantine Kostur'
tp2167
a(S'514869224'
S'Rocio Gracia Edwards'
tp2168
a(S'854710216'
S'Raghav Gandotra'
tp2169
a(S'100000030765942'
S'Devika Chandra'
tp2170
a(S'100001373598817'
S'Dhiman Bhattacharya'
tp2171
a(S'1010891439'
S'Kishan Yadav'
tp2172
a(S'508401882'
S'Jay Bhatnagar'
tp2173
a(S'505454674'
S'Shevantika Nanda'
tp2174
a(S'100000485167007'
S'Vihaan Moorthy'
tp2175
a(S'512028692'
S'Nakul Bajaj'
tp2176
a(S'1391370743'
S'Diya Mathur'
tp2177
a(S'721247843'
S'Bharat Sarin'
tp2178
a(S'1824580636'
S'Ishaan Day'
tp2179
a(S'100001544300567'
S'Miran Chatterjee'
tp2180
a(S'749248763'
S'Tvesha Bahadur'
tp2181
a(S'680577692'
S'Roshni Kochhar'
tp2182
a(S'100004399952274'
S'Victoria Kent'
tp2183
a(S'574035347'
S'Rushil Byala'
tp2184
a(S'509171504'
S'Rohini Atal'
tp2185
a(S'1667565482'
S'Akul Malhotra'
tp2186
a(S'772245639'
S'Pranav Malik'
tp2187
a(S'696111720'
S'Arpan Arora'
tp2188
a(S'687805133'
S'Yohann Vaznaik'
tp2189
a(S'1303048770'
S'Salomi Desai'
tp2190
a(S'509822471'
S'Anahita Dawar'
tp2191
a(S'1612406525'
S'Antara Jain'
tp2192
a(S'507335056'
S'Ipsita Mallick'
tp2193
a(S'506972665'
S'Sid Varma'
tp2194
a(S'1361679200'
S'Janhavi Mahindra'
tp2195
a(S'1404765111'
S'Suryaj Sekhar'
tp2196
a(S'1460500901'
S'Shivam Malhotra'
tp2197
a(S'1013403949'
S'Medha Roy'
tp2198
a(S'1403416571'
S'Arisht Jain'
tp2199
a(S'100002277339843'
S'Rishi Mishra'
tp2200
a(S'518306576'
S'Vidur Vidi Bharatram'
tp2201
a(S'1081341428'
S'Mridumena Kohli'
tp2202
a(S'514586089'
S'Devanjali Dutt'
tp2203
a(S'100001112717949'
S'Farid Zaheer'
tp2204
a(S'755110389'
S'Purusharth Goel'
tp2205
a(S'1147274502'
S'Nazeer Ahmad'
tp2206
a(S'584121194'
S'Ahmed Amin'
tp2207
a(S'506750159'
S'Suvira Raj Chadha'
tp2208
a(S'517801079'
S'Viraj Kapoor'
tp2209
a(S'100000467342147'
S'Bhavya Dua'
tp2210
a(S'690535065'
S'Teodor Bj\\u00f8rnvall Olsen'
tp2211
a(S'1528270160'
S'Saugata Sen'
tp2212
a(S'502456166'
S'Rhea Brar'
tp2213
a(S'100000986731067'
S'Aaryan Dhingra'
tp2214
a(S'852944560'
S'Shreya Chopra'
tp2215
a(S'100003590941972'
S'Chhavi Rajawat'
tp2216
a(S'814455286'
S'Tatiana Aisha Violet Kazim'
tp2217
a(S'1023792867'
S'Parinaaz Saini'
tp2218
a(S'642020108'
S'Pooja Lal'
tp2219
a(S'824092444'
S'Meher Vatsa'
tp2220
a(S'606937348'
S'Mushtaq Salim'
tp2221
a(S'1275232960'
S'Varun Tetali'
tp2222
a(S'505374245'
S'Priyanka Priyanka'
tp2223
a(S'576580486'
S'Rhiday Bhandari'
tp2224
a(S'100000186864245'
S'Shreya Sikka'
tp2225
a(S'625585087'
S'Arjun Sakhuja'
tp2226
a(S'606010661'
S'Devashish Singal'
tp2227
a(S'1405224596'
S'Shriya Kunatharaju'
tp2228
a(S'687175231'
S'Dhruv Chopra'
tp2229
a(S'1676964702'
S'Nikita Robinson'
tp2230
a(S'1713448321'
S'Himmat Singh'
tp2231
a(S'512889006'
S'Mujtaba Khan'
tp2232
a(S'100001139017509'
S'Daksh Hooda'
tp2233
a(S'510926847'
S'Aarushi Batra'
tp2234
a(S'738052936'
S'Vrishali Sinha'
tp2235
a(S'656261690'
S'Rachit Bhardwaj'
tp2236
a(S'512630325'
S'Vir Rattan Chowdhry'
tp2237
a(S'100004003277905'
S'Nitish Sharma'
tp2238
a(S'100002332463443'
S'Natalia Awasty'
tp2239
a(S'1618496464'
S'Anika Guha'
tp2240
a(S'714652222'
S'Arjun Kannan'
tp2241
a(S'727941556'
S'Aseem Achutya'
tp2242
a(S'517211167'
S'Sorrel McClelland'
tp2243
a(S'601914458'
S'Samira Bose'
tp2244
a(S'668746821'
S'Srimoyee Biswas'
tp2245
a(S'511673595'
S'Armaan Manglani'
tp2246
a(S'723535199'
S'Nitika Patel'
tp2247
a(S'525240623'
S'Ishti Saluja'
tp2248
a(S'100002408585183'
S'Antonio Ratia'
tp2249
a(S'638803993'
S'Gurbani Singh'
tp2250
a(S'223410294'
S'Sanjay Kumar Singh Toora'
tp2251
a(S'1566021965'
S'Sara Fernadez'
tp2252
a(S'1373940283'
S'Baani Anand'
tp2253
a(S'501209575'
S'Vale Okay'
tp2254
a(S'609840073'
S'Tushar Sureka'
tp2255
a(S'1569919789'
S'Vaibhav Nagar'
tp2256
a(S'100001203860427'
S'Advait Luthra'
tp2257
a(S'503754784'
S'Jaivir Hans'
tp2258
a(S'509485823'
S'Pia Singh'
tp2259
a(S'100000214507425'
S'Parth Jogia'
tp2260
a(S'1522046246'
S'Amit Budhraja'
tp2261
a(S'1049354056'
S'Esha Chhikara Malik'
tp2262
a(S'651547842'
S'Nikita Kapoor'
tp2263
a(S'100000925457900'
S'Dhanan Raina'
tp2264
a(S'100001908902267'
S'Tarun Sharma'
tp2265
a(S'528665758'
S'Lsesu Punjab'
tp2266
a(S'770170244'
S'Aseem Patel'
tp2267
a(S'1539302997'
S'Manik Papneja'
tp2268
a(S'100001923250596'
S'Shivraj Bhasin'
tp2269
a(S'1171700165'
S'Mahima Chawla'
tp2270
a(S'100000361212958'
S'Adhish Singh'
tp2271
a(S'100005373482792'
S'Vinayak Khushalani'
tp2272
a(S'513737612'
S'Unnattee Eusebius'
tp2273
a(S'507922459'
S'Arnav Nanduri'
tp2274
a(S'1673337301'
S'Abhishek Khanna'
tp2275
a(S'561030499'
S'Kunal Raj Barua'
tp2276
a(S'567945886'
S'Mohit Bothra'
tp2277
a(S'100001837612316'
S'Muskan Chopra'
tp2278
a(S'1346691262'
S'Tanuj Jain'
tp2279
a(S'1425940536'
S'Shobhit Ahuja'
tp2280
a(S'517484219'
S'Raghav Singh'
tp2281
a(S'1108972328'
S'Mitaksha Raswant'
tp2282
a(S'100000148785335'
S'Gaurika Juneja'
tp2283
a(S'731395146'
S'Nayantara Shaunik'
tp2284
a(S'1143246828'
S'Arjun Jain'
tp2285
a(S'100003718374030'
S'Lorna Spano'
tp2286
a(S'581219922'
S'Karan Arya'
tp2287
a(S'1239515336'
S'Jayashree Sengupta'
tp2288
a(S'685460393'
S'Raghav Paul'
tp2289
a(S'506918050'
S'Naintara Rana'
tp2290
a(S'569399482'
S'Karan Godara'
tp2291
a(S'602245471'
S'Kartikay Dutt'
tp2292
a(S'722085359'
S'Sanat Bathla'
tp2293
a(S'636567939'
S'Harrison Folland'
tp2294
a(S'100000031838941'
S'Raghav Narula'
tp2295
a(S'517813552'
S'Manya Parakh'
tp2296
a(S'683205430'
S'Ramya Ahuja'
tp2297
a(S'1265029200'
S'Riya Aggarwal'
tp2298
a(S'1744689539'
S'Samarth Tarika'
tp2299
a(S'513104216'
S'Shiv Kehr'
tp2300
a(S'517611574'
S'Keshav Moodliar'
tp2301
a(S'678927659'
S'Samhita Srinivasan'
tp2302
a(S'100001416748032'
S'Vaibhav Malhotra'
tp2303
a(S'616600134'
S'Rajat Malhotra'
tp2304
a(S'524930505'
S'Tanvi Girotra'
tp2305
a(S'804730113'
S'Sunny Muthreja'
tp2306
a(S'1081833504'
S'Angad Arora'
tp2307
a(S'724926210'
S'Aradhana A Juneja'
tp2308
a(S'1322742727'
S'Divya Narang'
tp2309
a(S'100002489285784'
S'Surjangshu Ghosh'
tp2310
a(S'517800005'
S'Vandya Sharma'
tp2311
a(S'100001079408871'
S'Tanya Singh'
tp2312
a(S'740200213'
S'Hardik Vardhan'
tp2313
a(S'100006473477113'
S'Nandini Bose'
tp2314
a(S'502344524'
S'Nikhil Narain'
tp2315
a(S'1062225991'
S'Aaditya K Sundar'
tp2316
a(S'681018293'
S'Joel Joseph'
tp2317
a(S'1615521145'
S'Varun Kumar Vijay'
tp2318
a(S'505962408'
S'Meghna Bal'
tp2319
a(S'618685799'
S'Arjun Pratap Sindhu'
tp2320
a(S'1712933462'
S'Vikram Dahiya'
tp2321
a(S'512746178'
S'Ayesha Hussain'
tp2322
a(S'1316054490'
S'Sparsh Gupta'
tp2323
a(S'542211637'
S'Dipika Aggarwal'
tp2324
a(S'1839952723'
S'Sivanjai Shokeen'
tp2325
a(S'1024937247'
S'Bhumika Gupta'
tp2326
a(S'565700754'
S'Armaan Singh'
tp2327
a(S'638859363'
S'Shivangi Jain'
tp2328
a(S'653935157'
S'Kritika Kaur Oberoi'
tp2329
a(S'610635561'
S'Arjun Gaur'
tp2330
a(S'1241705506'
S'Aditya Dutta'
tp2331
a(S'709518148'
S'Shivangam Malhotra'
tp2332
a(S'1142355245'
S'Megha Devraj'
tp2333
a(S'517594610'
S'Sanil Sachar'
tp2334
a(S'513307248'
S'Nitish Verma'
tp2335
a(S'512053997'
S'Abhay Chhabra'
tp2336
a(S'698890240'
S'Avanti Rajani'
tp2337
a(S'500697122'
S'Kritika Khanijo'
tp2338
a(S'520145631'
S'Devika Lal'
tp2339
a(S'100001277973875'
S'Tushar Sureka'
tp2340
a(S'748752208'
S'Shikhar Baveja'
tp2341
a(S'516791295'
S'Arjun Rai'
tp2342
a(S'544172365'
S'Amitejusv Singh'
tp2343
a(S'100006222003484'
S'Sidhant Dev'
tp2344
a(S'513219071'
S'Armaan Aggarwal'
tp2345
a(S'671155223'
S'Sukriti Sharma'
tp2346
a(S'1678013556'
S'Youreka Programs'
tp2347
a(S'502000790'
S'Rushit Doshi'
tp2348
a(S'1344127400'
S'Aditya Lal'
tp2349
a(S'100003360020269'
S'Deepak Bishnoi Hjc'
tp2350
a(S'528117469'
S'Siddharth Agrawal'
tp2351
a(S'502282905'
S'Aditya Varan Kapur'
tp2352
a(S'100005701144272'
S'Taannyaa Bhatia'
tp2353
a(S'100000958839910'
S'Tia Ray'
tp2354
a(S'1121599434'
S'Utsava Sharma'
tp2355
a(S'100002605969842'
S'Yatharth Gulati'
tp2356
a(S'1256345019'
S'Ashwin Gopakumar'
tp2357
a(S'1334362757'
S'Abhishek Singh'
tp2358
a(S'539585794'
S'Shahmeer Agha'
tp2359
a(S'560040143'
S'Avantika Pasricha'
tp2360
a(S'575418928'
S'Ajitesh Nibber'
tp2361
a(S'100001659837586'
S'Gurmesh Godara'
tp2362
a(S'100000196375154'
S'Tejeshwar Babra'
tp2363
a(S'835210316'
S'Dhruv Jain'
tp2364
a(S'660445387'
S'Akshat Ajmera'
tp2365
a(S'566931768'
S'Sakshi Mittal'
tp2366
a(S'100003614434473'
S'Natasha Conway'
tp2367
a(S'511718144'
S'Richa Yadav'
tp2368
a(S'650443729'
S'Devayani Chandra'
tp2369
a(S'522300672'
S'Karan Naresh Anand'
tp2370
a(S'573196424'
S'Gita Soni'
tp2371
a(S'503970477'
S'Bosky S Bhatia'
tp2372
a(S'573288129'
S'Aaron Jones'
tp2373
a(S'684355467'
S'Mohsin Kamil'
tp2374
a(S'1077128965'
S'Prakriti Saranga Khandekar'
tp2375
a(S'1349734832'
S'Misha Rawal'
tp2376
a(S'567055159'
S'Daisy Wigin'
tp2377
a(S'1007635818'
S'Shivani Kachwaha'
tp2378
a(S'506264127'
S'Ameer Kochhar'
tp2379
a(S'100000956432687'
S'Ayushi Yadav'
tp2380
a(S'560935415'
S'Athena Sharma'
tp2381
a(S'100001077759798'
S'Imdy Rahman'
tp2382
a(S'1308780214'
S'Mohd Usama'
tp2383
a(S'554138397'
S'Tulip Joshi'
tp2384
a(S'1848592635'
S'Punit Bisht'
tp2385
a(S'605430497'
S'Aparna Pande'
tp2386
a(S'1200429871'
S'Amer Vaid'
tp2387
a(S'1668697032'
S'Aditi Sharma'
tp2388
a(S'1033717342'
S'Anirudh Nath Lekhi'
tp2389
a(S'662040636'
S'Pranav Bajaj'
tp2390
a(S'716535884'
S'Raghav Kacker'
tp2391
a(S'611460070'
S'Vedika Sood'
tp2392
a(S'501281754'
S'Anando Ghose'
tp2393
a(S'1172959180'
S'Vivan Kumar'
tp2394
a(S'100000581827250'
S'Maduvanthi Lr'
tp2395
a(S'100003034456208'
S'Arundhati Dave'
tp2396
a(S'1295520359'
S'Teddy Finn'
tp2397
a(S'100000586647611'
S'Ashriya Malik'
tp2398
a(S'1453213512'
S'Bhaven Mistry'
tp2399
a(S'1122711639'
S'Kanishk Thareja'
tp2400
a(S'576299672'
S'Arnav Adhikari'
tp2401
a(S'563504491'
S'Harsh Malhotra'
tp2402
a(S'1018608284'
S'Dhruv Aditya Mehta'
tp2403
a(S'510629486'
S'Aastha Bhardwaj'
tp2404
a(S'626396535'
S'Adya Rajkotia Luthra'
tp2405
a(S'513705754'
S'Aarsh Mehta'
tp2406
a(S'502285844'
S'Sameera Bhalla'
tp2407
a(S'564790833'
S'Yusman Manchanda'
tp2408
a(S'516592567'
S'Bianca Mahadevia'
tp2409
a(S'661886415'
S'Arunika Ganguly'
tp2410
a(S'504812687'
S'Samad Jamal'
tp2411
a(S'746150276'
S'Kartik Kalaan'
tp2412
a(S'1313772793'
S'Merheen Shawl'
tp2413
a(S'700955385'
S'Devika Mann'
tp2414
a(S'683450031'
S'Suhail Virmani'
tp2415
a(S'1207642821'
S'Aarosh Sahu'
tp2416
a(S'517779900'
S'Sai Gude'
tp2417
a(S'1684625282'
S'Saniya Dinodia'
tp2418
a(S'100002013640811'
S'Zian Mir'
tp2419
a(S'100001764806115'
S'Sanya Mahajan'
tp2420
a(S'100007565136743'
S'Ria Mittal'
tp2421
a(S'512376318'
S'Vishrut Gulati'
tp2422
a(S'587625803'
S'Prateek Nick'
tp2423
a(S'600575050'
S'Shanin Koura'
tp2424
a(S'508110751'
S'Shivraj Anand'
tp2425
a(S'1060184311'
S'Ishaan Day'
tp2426
a(S'788093605'
S'Yuvraj Lal'
tp2427
a(S'517517922'
S'Natasha Ratti Kapoor'
tp2428
a(S'517303286'
S'Netra Sundaresan'
tp2429
a(S'738293331'
S'Ritwik Sharma'
tp2430
a(S'1099316543'
S'Sharanya Jakhmola'
tp2431
a(S'797645533'
S'Varun Puri'
tp2432
a(S'814805709'
S'Sheshaya Surtani'
tp2433
a(S'509531300'
S'Chaitanya Mathur'
tp2434
a(S'100000581561988'
S'Uma Narang'
tp2435
a(S'665836679'
S'Anchal Agarwal'
tp2436
a(S'1349003720'
S'Angad Singh'
tp2437
a(S'821208727'
S'Aniruddh Mittal'
tp2438
a(S'100006525648617'
S'Ayesha Puri'
tp2439
a(S'746797880'
S'Raghav Choudhary'
tp2440
a(S'1623960789'
S'Ganesh Parthiban'
tp2441
a(S'518101618'
S'Anisha Singh'
tp2442
a(S'100001576353325'
S'Aishwarya Hooda'
tp2443
a(S'100002467773426'
S'Bhavin Makwana'
tp2444
a(S'513166909'
S'Karan Varma'
tp2445
a(S'707580566'
S'Kinza Mahmud'
tp2446
a(S'518409581'
S'Ratnam Jain'
tp2447
a(S'652994243'
S'Disha Kapoor'
tp2448
a(S'501504416'
S'Kyla Grace Olivia Dsouza'
tp2449
a(S'513149363'
S'Abhishek Katoch'
tp2450
a(S'1336214496'
S'Shivang Mehta'
tp2451
a(S'100002389910368'
S'Udai Singh'
tp2452
a(S'671856880'
S'Ladan Sadjadi'
tp2453
a(S'504398300'
S'Ilena Bose'
tp2454
a(S'100002201073068'
S'Divya Iyer'
tp2455
a(S'100002315818938'
S'Vandita Mattoo'
tp2456
a(S'537990511'
S'Arushi Agarwal'
tp2457
a(S'1501317777'
S'Kanishk Vashisht'
tp2458
a(S'100001886590022'
S'Shlagha Sharma'
tp2459
a(S'511046961'
S'Aarushi Jain'
tp2460
a(S'1268582717'
S'Aditya Chib'
tp2461
a(S'1406956369'
S'Garv Bhatia'
tp2462
a(S'626476744'
S'Siddharth Mookerjee'
tp2463
a(S'761884454'
S'Bharat Ganju'
tp2464
a(S'1032930077'
S'Sneha Cyriac'
tp2465
a(S'526960382'
S'Natasha Wilson'
tp2466
a(S'584385229'
S'Nayanika Sharma'
tp2467
a(S'1145714401'
S'Avantika Aggarwal'
tp2468
a(S'100006578144354'
S'Rhea Malhotra'
tp2469
a(S'1141323842'
S'Chandrika Singh'
tp2470
a(S'662621162'
S'Sumer Gill'
tp2471
a(S'802220334'
S'Kartik Sawhney'
tp2472
a(S'100006934181186'
S'Riya Riya'
tp2473
a(S'1192111431'
S'Saad Khalid'
tp2474
a(S'284203544'
S'Michael Soon'
tp2475
a(S'100005413092434'
S'The-Lse ThreeTuns'
tp2476
a(S'509920978'
S'Gurbani Dugal'
tp2477
a(S'594097922'
S'Kunal Raj Bahadur'
tp2478
a(S'100003254261293'
S'Anirudh Madhok'
tp2479
a(S'518105532'
S'Dhruv Sureka'
tp2480
a(S'100001872469540'
S'Lsesu Timeless'
tp2481
a(S'512318908'
S'Sameer Gujral'
tp2482
a(S'612130203'
S'Ayaan Sharma'
tp2483
a(S'1053254205'
S'Vaibhav Sukhija'
tp2484
a(S'534201299'
S'Mitwa Sharma'
tp2485
a(S'516660707'
S'Nayantara Bhandari'
tp2486
a(S'100002065685393'
S'Masoomi Thakar'
tp2487
a(S'1422548566'
S'Armaan Jain'
tp2488
a(S'518163595'
S'Vishnu Chopra'
tp2489
a(S'100002022988356'
S'Veer Supunya Devavrat'
tp2490
a(S'510856518'
S'Vedika Modi'
tp2491
a(S'701825471'
S'Jayant Ganju'
tp2492
a(S'1040528758'
S'Ritvik Tiwari'
tp2493
a(S'1235918740'
S'Ankit Hans'
tp2494
a(S'898110353'
S'Siddharth Jaiman'
tp2495
a(S'100001166812771'
S'Malaika Dhar-James'
tp2496
a(S'100000186334859'
S'Shiv Puri'
tp2497
a(S'571459815'
S'Nikita Varma'
tp2498
a(S'1256151307'
S'Aashna Malik'
tp2499
a(S'631810021'
S'Gaurav Ganguly'
tp2500
a(S'836575466'
S'Chik Soon Nean'
tp2501
a(S'618046857'
S'Karan Khanna'
tp2502
a(S'626300451'
S'Sahil Bhalla'
tp2503
a(S'1472780589'
S'Nicholas Law'
tp2504
a(S'1166196048'
S'Sejal Khanna'
tp2505
a(S'1296862433'
S'Yuvraj Kilachand'
tp2506
a(S'100001780677117'
S'Arjun Puri'
tp2507
a(S'1498685539'
S'Savar Jai Singh'
tp2508
a(S'703619281'
S'Nadeem Siddique'
tp2509
a(S'100001519093721'
S'Jadayah Spencer Muhammad'
tp2510
a(S'513982828'
S'Sahil Bhatt'
tp2511
a(S'663239764'
S'Emma Rozario'
tp2512
a(S'513706988'
S'Sera Arora'
tp2513
a(S'100000777081446'
S'Aayush Tanwar'
tp2514
a(S'100003742219324'
S'Nischay Mehta'
tp2515
a(S'1229141398'
S'Niharika Bajpai'
tp2516
a(S'1553471744'
S'Ridhima Bhutani'
tp2517
a(S'546690161'
p2518
S'Bhavya Bishnoi'
tp2519
a(S'100002279293799'
S'Carina Kohli'
tp2520
a(S'840043216'
S'HJ Bennett'
tp2521
a(S'516182248'
S'Imaad Lalljee'
tp2522
a(S'825685306'
S'Narendra Kumar Sharma'
tp2523
a(S'100000795543461'
S'S\\u00e0ty\\u00e1m \\u00df\\u00edshno\\u00ec'
tp2524
a(S'576950651'
S'Lohash Ghai'
tp2525
a(S'538495866'
S'Leonie Lee'
tp2526
a(S'601104656'
S'Noor Yaseen Mir'
tp2527
a(S'657956798'
S'Mihiraan M. Singh'
tp2528
a(S'516315327'
S'Mohajeet Singh'
tp2529
a(S'627445639'
S'Monica Auluck Sagar'
tp2530
a(S'1045140791'
S'Paras Chopra'
tp2531
a(S'100000090803322'
S'Madhav Raj Singh'
tp2532
a(S'504660635'
S'Priya Thakrar'
tp2533
a(S'556429972'
S'Neel Adhiraj Kumar'
tp2534
a(S'651690533'
S'Hisham Bokhari'
tp2535
a(S'566331398'
S'Tanisa Dhingra'
tp2536
a(S'1279723324'
S'Raghav Nanda'
tp2537
a(S'592761541'
S'Anjanaa Sudhakar'
tp2538
a(S'513304745'
S'Raveena Paul'
tp2539
a(S'516453210'
S'Jayad Uberoi'
tp2540
a(S'614734883'
S'Takshila Arora'
tp2541
a(S'1403535038'
S'Raghav Nanda'
tp2542
a(S'906170163'
S'Humraj Atwal'
tp2543
a(S'1309651601'
S'Dhananjay Khurana'
tp2544
a(S'771655315'
S'Tushaara Paul'
tp2545
a(S'1008952532'
S'Arfa Karani'
tp2546
a(S'1190870136'
S'Abhinav Yogesh'
tp2547
a(S'100000473836088'
S'Geetika Yadav'
tp2548
a(S'1367898691'
S'Eeshta Malhotra'
tp2549
a(S'701250603'
S'Tara Sondhi'
tp2550
a(S'504879643'
S'Abir Varma'
tp2551
a(S'519115502'
S'Akash Chopra'
tp2552
a(S'1400085064'
S'Pardeep Chauhan'
tp2553
a(S'1448720661'
S'Nastassia Khurana'
tp2554
a(S'1234141108'
S'Faiz Khan'
tp2555
a(S'531360780'
S'Akshay Suden'
tp2556
a(S'730342728'
S'Aryaman Vir'
tp2557
a(S'721070495'
S'Shivangi Jain'
tp2558
a(S'100000044688284'
S'Shruti Gupta'
tp2559
a(S'1482406305'
S'Kanishk Jain'
tp2560
a(S'100003398765467'
S'Vibha Gupta'
tp2561
a(S'100000969014703'
S'Rishabh Batra'
tp2562
a(S'1186771862'
S'Ashtha Madathil Mooliyl'
tp2563
a(S'606435470'
S'Ayushman Mehta'
tp2564
a(S'512275575'
S'Pranay Makhija'
tp2565
a(S'526781430'
S'Ciaran Alli'
tp2566
a(S'703510430'
S'Yassir Bilgrami'
tp2567
a(S'728885403'
S'Riya Chadha'
tp2568
a(S'503189914'
S'Sadyant Sasiprabhu'
tp2569
a(S'100000091726999'
S'Mahrukh Azmat Ali'
tp2570
a(S'501232479'
S'Asmedh Mann'
tp2571
a(S'731450099'
S'Priya Chawla'
tp2572
a(S'523645494'
S'Samarthya Bhargava'
tp2573
a(S'667857314'
S'Rodali Dutta'
tp2574
a(S'762884492'
S'Mrityunjay Singh Jamwal'
tp2575
a(S'503046650'
S'Nik Adhia'
tp2576
a(S'100000275996855'
S'Tara Kapur'
tp2577
a(S'1171841787'
S'Aman Javed'
tp2578
a(S'100001131101702'
S'Vinayak Jhunjhunwala'
tp2579
a(S'772900050'
S'Sukriti Aggarwal'
tp2580
a(S'517541977'
S'Tara Isha'
tp2581
a(S'1710628651'
S'Varun Kanwar'
tp2582
a(S'573336835'
S'Nayaab Gupta'
tp2583
a(S'1652456413'
S'Palak Angel'
tp2584
a(S'503751668'
S'Hishaam Junaideen'
tp2585
a(S'100002285116024'
S'Karunya C Banerjee'
tp2586
a(S'1435762176'
S'Varuni Khanna'
tp2587
a(S'505132395'
S'Megha Bisaria'
tp2588
a(S'592677014'
S'Rohan Mittal'
tp2589
a(S'725996323'
S'Rachel Low'
tp2590
a(S'100004952288583'
S'Tanusha Mishra'
tp2591
a(S'785505141'
S'Achintya Saurabh'
tp2592
a(S'664566387'
S'Ira Zaia Singh'
tp2593
a(S'504827591'
S'Saachi Thahryamal'
tp2594
a(S'100000984470770'
S'Sana Kharbanda'
tp2595
a(S'695326780'
S'Sana Sra'
tp2596
a(S'100000465296845'
S'Vitan Gosain'
tp2597
a(S'1082203246'
S'Vatsala Vats'
tp2598
a(S'1727449879'
S'Ayush Mago'
tp2599
a(S'1610590273'
S'Aronjoy Das'
tp2600
a(S'1093545683'
S'Sourabh Dogra'
tp2601
a(S'671235111'
S'Priyesh Patel'
tp2602
a(S'540520216'
S'Apoorva Shankar'
tp2603
a(S'814633348'
S'Siddharth Todi'
tp2604
a(S'1134233588'
S'Anish Jain'
tp2605
a(S'1308391491'
S'Divyam Wahi'
tp2606
a(S'508275675'
S'Varun Rajgarhia'
tp2607
a(S'100003030005034'
S'Aman Sharma'
tp2608
a(S'502581429'
S'Felix Tc'
tp2609
a(S'100001731668815'
S'Muskaan Bisaria'
tp2610
a(S'508146159'
S'Zaid Randeree'
tp2611
a(S'685064917'
S'Anindita Adhikari'
tp2612
a(S'516981095'
S'Anmol Chandhok'
tp2613
a(S'502560245'
S'Tarini Ahlawat'
tp2614
a(S'1278360965'
S'Abhinav Kuliar'
tp2615
a(S'736546246'
S'Kritank Chowdhry'
tp2616
a(S'100000296538067'
S'Drona Sharma'
tp2617
a(S'100005939594118'
S'Prannay Vir Singh Kohli'
tp2618
a(S'100002960862813'
S'Kairavi Bharat Ram'
tp2619
a(S'100003960883871'
S'Aviya Chadha'
tp2620
a(S'570735241'
S'Matt White'
tp2621
a(S'528207702'
S'Maria Tabish'
tp2622
a(S'564015485'
S'Abeer Kapoor'
tp2623
a(S'742720412'
S'Nakul Ranjan'
tp2624
a(S'540836680'
S'Bhavna Garg'
tp2625
a(S'100002338505831'
S'Vedant Bhatia'
tp2626
a(S'531808754'
S'Eugenio Juarez Coronado'
tp2627
a(S'726310840'
S'Nehal Garg'
tp2628
a(S'513456055'
S'Sukrit Dogra'
tp2629
a(S'100003389195798'
S'Zahrah Ismael'
tp2630
a(S'590757789'
S'Anirudh Nanda'
tp2631
a(S'686368618'
S'Rashmi Kulkarni'
tp2632
a(S'1619738788'
S'Tanya Rohatgi'
tp2633
a(S'3432950'
S'Natalia Dhirani'
tp2634
a(S'100001611004116'
S'Shriya Bishnoi'
tp2635
a(S'717650958'
S'Sanjam Sehgal'
tp2636
a(S'662755615'
S'Chaitanya Prakash DhillAn'
tp2637
a(S'714075423'
S'Ajiteshwar Singh'
tp2638
a(S'720267378'
S'Manjari Sahay'
tp2639
a(S'1669076716'
S'Navya Joshi'
tp2640
a(S'748052758'
S'Srishty Jha'
tp2641
a(S'514380090'
S'Isha Patel'
tp2642
a(S'599280441'
S'Aakash Mankodi'
tp2643
a(S'100005115847026'
S'Saatchi Kalsi'
tp2644
a(S'685748646'
S'Trisha Singh'
tp2645
a(S'684390516'
S'Leena Patel'
tp2646
a(S'601285047'
S'Manjul Ganatra'
tp2647
a(S'1033719561'
S'Vishagrah Tyagi'
tp2648
a(S'100006537674951'
S'Shantanu Pandit'
tp2649
a(S'647392328'
S'Vandinika Shukla'
tp2650
a(S'512344399'
S'Damini Passi'
tp2651
a(S'100001715814357'
S'Dhruti Jain'
tp2652
a(S'595006527'
S'Tushar Bedi'
tp2653
a(S'1531935796'
S'Ishan Kaicker'
tp2654
a(S'714451554'
S'Ronak Mohanlal'
tp2655
a(S'514393106'
S'Stan Shillington'
tp2656
a(S'752989604'
S'Pranshu Rathee'
tp2657
a(S'560760243'
S'Vandana Mirchandani'
tp2658
a(S'1279906404'
S'Fahd Haroon'
tp2659
a(S'1301851569'
S'Omi Zola Gupta'
tp2660
a(S'581715894'
S'Shaurya \\u00d0hir'
tp2661
a(S'527049756'
S'Dhananjai Trehan'
tp2662
a(S'717549078'
S'Karan Vombatkere'
tp2663
a(S'706829266'
S'Antash Agaya'
tp2664
a(S'100001074464585'
S'Ajay Bishnoi'
tp2665
a(S'561375227'
S'Apoorv Agarwal'
tp2666
a(S'100003134523212'
S'Anil Saini'
tp2667
a(S'1037755484'
S'Raghav Mathur'
tp2668
a(S'100001442273442'
S'Manoj Choudhary'
tp2669
a(S'507862350'
S'Antriksh Garg'
tp2670
a(S'1204266313'
S'Ishan Mudgal'
tp2671
a(S'706415116'
S'Sunny Verma'
tp2672
a(S'516870180'
S'Imogen Young'
tp2673
a(S'100000684169645'
S'Hitesh Kalra'
tp2674
a(S'1033052326'
S'Mohit Yadav'
tp2675
a(S'697161253'
S'Aviral Kumar'
tp2676
a(S'501476274'
S'Shayoni Nair'
tp2677
a(S'1557597504'
S'Raghav Sehgal'
tp2678
a(S'703600320'
S'Rushil Walia'
tp2679
a(S'501373369'
S'Shuchir Suri'
tp2680
a(S'531667473'
S'Neha Bhushan'
tp2681
a(S'586622410'
S'Danyaal Hasan'
tp2682
a(S'653822006'
S'Reemil Sarkar'
tp2683
a(S'621780220'
S'Prerna Mathur'
tp2684
a(S'689515421'
S'Pritika Bathija'
tp2685
a(S'100005001903792'
S'Sakshi Sharma'
tp2686
a(S'612845659'
S'Umberine Madan'
tp2687
a(S'1540405094'
S'Kashish Ray Gupta'
tp2688
a(S'797305423'
S'Nalin Goel'
tp2689
a(S'618825730'
S'Bhamini Rautela Pahwa'
tp2690
a(S'1402731115'
S'Guy Adam Davies'
tp2691
a(S'576810174'
S'Viraj Singh'
tp2692
a(S'559925433'
S'Udai Srivastava'
tp2693
a(S'744132012'
S'Akash Yadav'
tp2694
a(S'100004098521191'
S'Varun Sikarwar'
tp2695
a(S'1423365814'
S'Arushi Garg'
tp2696
a(S'1320575677'
S'Kaartikeya Habibi Pandey'
tp2697
a(S'1026811086'
S'Akshay Yadav'
tp2698
a(S'619301347'
S'Pia Chakravarty'
tp2699
a(S'100003908365271'
S'Maanya Mital'
tp2700
a(S'16917735'
S'Bharat Goel'
tp2701
a(S'572820404'
S'Amira Singh'
tp2702
a(S'908331'
S'Grisel Caicedo'
tp2703
a(S'100003344946076'
S'Yashoda Kapur'
tp2704
a(S'515249442'
S'Varda Taneja'
tp2705
a(S'612412414'
S'Srinjoy Basu'
tp2706
a(S'517154761'
S'Rob Dayal'
tp2707
a(S'100001091212190'
S'Amrita Nanda'
tp2708
a(S'721684844'
S'Vikramaditya Jhunjhunwala'
tp2709
a(S'1063658665'
S'Saarthak Chopra'
tp2710
a(S'1094432523'
S'Atul Choudhary'
tp2711
a(S'559335017'
S'Niharika Kaul Bhattacharya'
tp2712
a(S'523565653'
S'Sejal Widge'
tp2713
a(S'100000272497150'
S'Vedant Chandra'
tp2714
a(S'734153919'
S'Pranay Rathod'
tp2715
a(S'512970925'
S'Manit Bharany'
tp2716
a(S'524910839'
S'Kiran Jhangaria'
tp2717
a(S'506858608'
S'Pratap Singh Atwal'
tp2718
a(S'100006613631005'
S'Jayan Verma'
tp2719
a(S'723330636'
S'Shivam Aggarwal'
tp2720
a(S'787860503'
S'Francesca Cartier'
tp2721
a(S'668117816'
S'Deepanshu Mohan'
tp2722
a(S'100000365065985'
S'Kartik Sharma'
tp2723
a(S'100000233491185'
S'Neetu Berry'
tp2724
a(S'1171849164'
S'Vibhaa Kothari'
tp2725
a(S'627305275'
S'Pooja Sheth'
tp2726
a(S'518296958'
S'M Ayyaz Arshad Ansari'
tp2727
a(S'514301982'
S'Behram Khan Orakzai'
tp2728
a(S'660586064'
S'Shambhavi Sawhney'
tp2729
a(S'517349489'
S'Janhavi Malhotra'
tp2730
a(S'507025150'
S'Aarushi Bhagat'
tp2731
a(S'504569557'
S'Teesta Bhandare'
tp2732
a(S'1059930970'
S'Rishika Sahgal'
tp2733
a(S'100000516154401'
S'Kainaat Singh'
tp2734
a(S'1569982323'
S'Ambi Subramaniam'
tp2735
a(S'666590250'
S'Karan Koko Bhatia'
tp2736
a(S'1102269812'
S'Hiresh Choudhary'
tp2737
a(S'516187120'
S'Mahi Khakhar'
tp2738
a(S'100000235516285'
S'Siddhant Gupta'
tp2739
a(S'530981239'
S'Manu Rathore'
tp2740
a(S'512689258'
S'Sahana Kakkar'
tp2741
a(S'560630225'
S'Prihana Bhasin'
tp2742
a(S'638423996'
S'Maria Pakhulskaya'
tp2743
a(S'602291156'
S'Priyanka Ravishankar'
tp2744
a(S'100005369492738'
S'Vedika Khushalani'
tp2745
a(S'100001631881501'
S'Parnay Chaudhary'
tp2746
a(S'536825021'
S'Vaydika Abbott'
tp2747
a(S'100001757819100'
S'Mohit Yadav'
tp2748
a(S'100000784060252'
S'Shiv Pasricha'
tp2749
a(S'1545205120'
S'Advaye Sawhny'
tp2750
a(S'504452419'
S'Tarini Nirula'
tp2751
a(S'749056092'
S'Ahmed S. Cheema'
tp2752
a(S'100001753286594'
S'Manoj Chauhan'
tp2753
a(S'769940883'
S'Karan Tuli'
tp2754
a(S'580266231'
S'Surabhi Bhardwaj'
tp2755
a(S'564755706'
S'Rhea Dubey'
tp2756
a(S'655755307'
S'Mansi Sheth'
tp2757
a(S'513612971'
S'Supriya Paul'
tp2758
a(S'501412459'
S'Sahil Sondhi'
tp2759
a(S'1179792384'
S'Ujjwal Dahuja'
tp2760
a(S'522368413'
S'Himanshu Gopal'
tp2761
a(S'511185782'
S'Sana Ghai'
tp2762
a(S'523973874'
S'Haneef M. Chowdhury'
tp2763
a(S'680165286'
S'Harshit Sharma'
tp2764
a(S'560975720'
S'Shaashwat Sinha'
tp2765
a(S'522155547'
S'Kabir Sardana'
tp2766
a(S'517721028'
S'Vridhi Jain'
tp2767
a(S'100000593077873'
S'Parinita Matharu'
tp2768
a(S'1067081624'
S'Prateek Malhotra'
tp2769
a(S'515163937'
S'Akul Khanna'
tp2770
a(S'502694913'
S'Hinal Nitish Shah'
tp2771
a(S'100001317485383'
S'Siddharth Hooda'
tp2772
a(S'531500581'
S'Dalia Adib'
tp2773
a(S'564020058'
S'Priyav Shah'
tp2774
a(S'722818524'
S'Ishan Alankrit'
tp2775
a(S'559778782'
S'Praharsh Johorey'
tp2776
a(S'727527119'
S'Roneeta Gupta'
tp2777
a(S'828344356'
S'Marc Beerhorst'
tp2778
a(S'546664257'
S'Dhruv Chadha'
tp2779
a(S'512162649'
S'Nikhil Ledlie'
tp2780
a(S'657590021'
S'Dana Abdulkarim'
tp2781
a(S'1076850554'
S'Saaniya Mehra'
tp2782
a(S'754097709'
S'Shruti Kwatra'
tp2783
a(S'514464066'
S'Kunal Datta'
tp2784
a(S'672006053'
S'Ajay Sugavanam'
tp2785
a(S'1259329298'
S'Vrinda Pareek'
tp2786
a(S'631271053'
S'Samarth Chawla'
tp2787
a(S'700851986'
S'Upasana Jajoo'
tp2788
a(S'1491253152'
S'Sunny Nangia'
tp2789
a(S'570066303'
S'Tanya Dutt'
tp2790
a(S'777788853'
S'Shreya V Basu'
tp2791
a(S'513039788'
S'Raghav Sagar'
tp2792
a(S'508726244'
S'Divij Mahajan'
tp2793
a(S'771985231'
S'Vidur Gupta'
tp2794
a(S'532835011'
S'Jasmehar Singh'
tp2795
a(S'602745181'
S'Siddharth Sastri'
tp2796
a(S'502959779'
S'Shubha Kamala Prasad'
tp2797
a(S'720622890'
S'Ishaan Vasudeva'
tp2798
a(S'1117731270'
S'Tushar Bhargava'
tp2799
a(S'517233949'
S'Kartik Agarwal'
tp2800
a(S'575532369'
S'Deepankar Sharma'
tp2801
a(S'618500404'
S'Tanvi Tandon'
tp2802
a(S'595409960'
S'Aishwarya Singal'
tp2803
a(S'1452844166'
S'Kashish Mittal'
tp2804
a(S'505733355'
S'Arjun Singh'
tp2805
a(S'1526449762'
S'Shekhar Halder'
tp2806
a(S'1239057215'
S'Vardaan Aggarwal'
tp2807
a(S'527375270'
S'Maanik Nath'
tp2808
a(S'508239323'
S'Utsav Jain'
tp2809
a(S'523345603'
S'Lipakshi Kakar'
tp2810
a(S'37006838'
S'Anusha Bhushan'
tp2811
a(S'1029503469'
S'Deviyani Gupta'
tp2812
a(S'1264081758'
S'Ishaan Asthana'
tp2813
a(S'1617860300'
S'Atin Gerrard Gupta'
tp2814
a(S'517868188'
S'Priyanka Galav'
tp2815
a(S'601470509'
S'Raghu Sagar'
tp2816
a(S'521642840'
S'Akshath Parasrampuria'
tp2817
a(S'663481783'
S'Tanushree Gupta'
tp2818
a(S'885830709'
S'Stephanie Maru'
tp2819
a(S'1263879401'
S'Nitya Kuthiala'
tp2820
a(S'517892796'
S'Zorawer Singh'
tp2821
a(S'100001787748969'
S'Hemi Kapoor'
tp2822
a(S'510334316'
S'Smruti Agarwal'
tp2823
a(S'675973957'
S'Kshitij Ratan'
tp2824
a(S'517569305'
S'Karm Kumar'
tp2825
a(S'1658032265'
S'Nivedita Jha'
tp2826
a(S'1301632038'
S'Shaurya Jain'
tp2827
a(S'691931845'
S'Nandita Singh'
tp2828
a(S'508270090'
S'Sarah Sayeed'
tp2829
a(S'1004445696'
S'Esha Chaudhuri'
tp2830
a(S'686780334'
S'Natasha Gill'
tp2831
a(S'1720973454'
S'Samarth Singh'
tp2832
a(S'514556924'
S'Georgia Bryden'
tp2833
a(S'731833853'
S'Gavin Kochar'
tp2834
a(S'100001707722899'
S'Arnav Jain'
tp2835
a(S'820910000'
S'Pranav Kumar'
tp2836
a(S'698601468'
S'Prabal Jindal'
tp2837
a(S'1645043694'
S'Jai Sharma'
tp2838
a(S'812735022'
S'Ankit Abraham Sinha'
tp2839
a(S'100000246504620'
S'Rahul Thairani'
tp2840
a(S'722840536'
S'Akshita Kolluru'
tp2841
a(S'538540257'
S'Brea Dutt'
tp2842
a(S'100001460000067'
S'Alisha Narang'
tp2843
a(S'669359576'
S'Sahil Aggarwal'
tp2844
a(S'503262968'
S'Devki Khosla'
tp2845
a(S'1059110378'
S'Nidhaanjit Jain'
tp2846
a(S'1147697783'
S'Abhishek Kapoor'
tp2847
a(S'1180381649'
S'Aaina Sapra'
tp2848
a(S'841490650'
S'Udit Gadkary'
tp2849
a(S'100000825076657'
S'Diya Burman'
tp2850
a(S'798169345'
S'Ahana Maken'
tp2851
a(S'1012303935'
S'Ahir Gupta'
tp2852
a(S'1581541744'
S'Manavi Dixit'
tp2853
a(S'516441366'
S'Aditi Dhar'
tp2854
a(S'1355408440'
S'Pooja Chandra'
tp2855
a(S'511762942'
S'Imogen Clarke'
tp2856
a(S'510956180'
S'Charu Sukheja'
tp2857
a(S'1586700657'
S'Anisha Khosla'
tp2858
a(S'1417051968'
S'Kokila Mohini Beri'
tp2859
a(S'575575645'
S'Gayatri Chandra'
tp2860
a(S'761301531'
S'Rahul Wahi'
tp2861
a(S'774160351'
S'Zareef Anam'
tp2862
a(S'1456129303'
S'Shaurya Abhi'
tp2863
a(S'656332454'
S'Rohan Krishnan'
tp2864
a(S'1440180703'
S'Stuti Shukla'
tp2865
a(S'544025634'
S'Aparna Mohindra'
tp2866
a(S'100000648930450'
S'Akhil Bajaj'
tp2867
a(S'508621230'
S'Arjun Veer Khurana'
tp2868
a(S'1659399558'
S'Suktika Banerjee'
tp2869
a(S'508268635'
S'Sana Barreja'
tp2870
a(S'632330989'
S'Devika Monga'
tp2871
a(S'1408915172'
S"Waivasvata F'ball Manu"
tp2872
a(S'574965540'
S'Ujjwal Gupta'
tp2873
a(S'100002392460852'
S'Sumit Bhatt'
tp2874
a(S'1495253592'
S'Shaun Loyal'
tp2875
a(S'1446451061'
S'Puneet Joshi'
tp2876
a(S'100007177142869'
S'Aditi Rao'
tp2877
a(S'773190503'
S'Raziel P\\u00e9rez'
tp2878
a(S'677868893'
S'Kartik Sadhana Sardana'
tp2879
a(S'100000050554857'
S'Shivam Khanna'
tp2880
a(S'100002023612727'
S'Urvashi Nanda'
tp2881
a(S'892580541'
S'Pratul Narayan Singh'
tp2882
a(S'840287626'
S'Kashneet Kaur'
tp2883
a(S'100000426355618'
S'Waqar Mehmood'
tp2884
a(S'723970726'
S'Anuj Rawra'
tp2885
a(S'1016103994'
S'Samarth Jay'
tp2886
a(S'508120021'
S'Supriya Thukral'
tp2887
a(S'550136901'
S'Dhruv Bhatnagar'
tp2888
a(S'1371641532'
S'Trishila Malhotra'
tp2889
a(S'517393297'
S'Bhaveer Shah'
tp2890
a(S'510474790'
S'Ashita Virmani'
tp2891
a(S'817040290'
S'Ravi Patel'
tp2892
a(S'508746676'
S'Angad Singh Malli'
tp2893
a(S'602236947'
S'Vidit Jain'
tp2894
a(S'100005390762878'
S'Jasbir Saini Mc'
tp2895
a(S'100001657033580'
S'Sonalika Jain'
tp2896
a(S'517425748'
S'Ramandeep Singh'
tp2897
a(S'1700962416'
S'Sahana Narasimhan'
tp2898
a(S'1027501621'
S'Ina Reni'
tp2899
a(S'1581923555'
S'Ameya Vikram'
tp2900
a(S'574168671'
S'Ishaan Luthra'
tp2901
a(S'574287489'
S'Harit Bajaj'
tp2902
a(S'501313101'
S'Ankit Bagga'
tp2903
a(S'1409528811'
S'Madhav Dutt'
tp2904
a(S'100002910096467'
S'Ajay Verma'
tp2905
a(S'502366220'
S'Jane Marlen von Rabenau'
tp2906
a(S'613998003'
S'Ritwik J Sarkar'
tp2907
a(S'100003011480081'
S'Devika Mathur'
tp2908
a(S'515415039'
S'Ishrat Kaur'
tp2909
a(S'100003134708245'
S'Niyati Malhotra'
tp2910
a(S'754775957'
S'Sidhant Shori'
tp2911
a(S'1108631778'
S'Madhav Mathur'
tp2912
a(S'1198231492'
S'Niyati Malhotra'
tp2913
a(S'621971778'
S'Avanti Talwar'
tp2914
a(S'1221655564'
S'Banarasi Pan'
tp2915
a(S'827385626'
S'Sana Ajani'
tp2916
a(S'592372801'
S'Anchal Malhotra'
tp2917
a(S'719662971'
S'Hardik Arora'
tp2918
a(S'1113563309'
S'Deepika Ranjan'
tp2919
a(S'651977871'
S'Sidharth Khanna'
tp2920
a(S'1131520338'
S'Anirudh Chakradhar'
tp2921
a(S'1321657046'
S'Siddhant Jain'
tp2922
a(S'100005697847835'
S'Kartik Sawhney'
tp2923
a(S'548748351'
S'Nitin Anandilal'
tp2924
a(S'1079913896'
S'Shivin Khanna'
tp2925
a(S'100001425007339'
S'Pankaj Batra'
tp2926
a(S'516181512'
S'Suyash Upadhyaya'
tp2927
a(S'753422500'
S'Vedansh Kumar'
tp2928
a(S'512343180'
S'Areez Tanbeen Rahman'
tp2929
a(S'100000095993790'
S'Srishtti Talwar'
tp2930
a(S'510030074'
S'Simran Bhalla'
tp2931
a(S'1429335890'
S'Rohan Patnaik'
tp2932
a(S'502592651'
S'Shakira D. Chanrai'
tp2933
a(S'501315116'
S'Ankita Kochhar'
tp2934
a(S'100002146511737'
S'Suhail Lone'
tp2935
a(S'694641268'
S'Taran Mundkur'
tp2936
a(S'1214203502'
S'Monika Dhanker'
tp2937
a(S'769404336'
S'Yash Malik'
tp2938
a(S'1595627593'
S'Dhruv Singh'
tp2939
a(S'518098640'
S'Sonali Thapar'
tp2940
a(S'505143870'
S'Nikhil Virmani'
tp2941
a(S'704296969'
S'Rach G. Williams'
tp2942
a(S'504060561'
S'Arjun Madhok'
tp2943
a(S'100003047519302'
S'Milind Singh'
tp2944
a(S'100005978611249'
S'Neharika Chandra'
tp2945
a(S'705924621'
S'Savar Bali'
tp2946
a(S'100005102950627'
S'Carizma Singh'
tp2947
a(S'639661956'
S'Urvi Agarwal'
tp2948
a(S'508423807'
S'Shagun Shukla'
tp2949
a(S'671170178'
S'Archish Mittal'
tp2950
a(S'517816036'
S'Sanat Sinha'
tp2951
a(S'515522685'
S'VaTs GeEt'
tp2952
a(S'751137165'
S'Rudra Nath Sinha'
tp2953
a(S'772405036'
S'Kunal Mohan'
tp2954
a(S'100000052035266'
S'Vaishnavi Pareek'
tp2955
a(S'100000447235371'
S'Sonia Thind'
tp2956
a(S'501302019'
S'Rahul Gupta'
tp2957
a(S'608233782'
S'Prateek Singh'
tp2958
a(S'1352505913'
S'Arushi Gupta'
tp2959
a(S'732851558'
S'Rikesh Haria'
tp2960
a(S'665175704'
S'Sapna Sheh'
tp2961
a(S'813225253'
S'Manan Tramboo'
tp2962
a(S'504707051'
S'Umedh Bharany'
tp2963
a(S'781815175'
S'Moin Amin'
tp2964
a(S'514708319'
S'Soumya Puri Sudhir'
tp2965
a(S'100001905298376'
S'Raghav Sethi Seth'
tp2966
a(S'560860533'
S'Nayantara Goyal'
tp2967
a(S'590675552'
S'Arjun Gupta'
tp2968
a(S'730038258'
S'Eshan Jain'
tp2969
a(S'543585205'
S'Jayant Mukho'
tp2970
a(S'765870051'
S'Sachi Keshwani'
tp2971
a(S'655266293'
S'Yvonne Loo'
tp2972
a(S'1339928591'
S'Raghav Singh'
tp2973
a(S'1185894013'
S'Shaurya Lal'
tp2974
a(S'640680141'
S'Karishma Sakhrani'
tp2975
a(S'1087641516'
S'Sunanda Ghosh'
tp2976
a(S'821247305'
S'Pia Chatterjee'
tp2977
a(S'722770823'
S'Aishwarya Shukla'
tp2978
a(S'1628253651'
S'Rishabh Shukla'
tp2979
a(S'100003478734582'
S'Maria  Nabokova'
tp2980
a(S'1221305347'
S'Dhruv Shorey'
tp2981
a(S'615425170'
S'Vedanti Sikka'
tp2982
a(S'732857557'
S'Rathin Bector'
tp2983
a(S'1346497845'
S'Prajwal Pai'
tp2984
a(S'625975440'
S'Vaibhav Goel'
tp2985
a(S'100000095797766'
S'Kshitij Dey'
tp2986
a(S'517900147'
S'Sagar Breja'
tp2987
a(S'514453249'
S'Divij Johri'
tp2988
a(S'514046620'
S'Faiza Mookerjee'
tp2989
a(S'509729377'
S'Vedika Berry'
tp2990
a(S'500503009'
S'Jaiveer Singh'
tp2991
a(S'576210453'
S'Meghna Pahwa'
tp2992
a(S'516273815'
S'Rohan Sood'
tp2993
a(S'501344968'
S'Eshanka Wahi'
tp2994
a(S'752747017'
S'Ed Harvey'
tp2995
a(S'100000155505896'
S'Vivek Tyagi'
tp2996
a(S'1072361401'
S'Hansa Seth'
tp2997
a(S'627298153'
S'Aditya Garg'
tp2998
a(S'699810066'
S'Jaskrit Singh'
tp2999
a(S'730580227'
S'Karan Keith Agarwal'
tp3000
a(S'517401011'
S'Shiv Dhawan'
tp3001
a(S'100006495283147'
S'Rupinder Thind'
tp3002
a(S'748309929'
S'Sarthak Sawlani'
tp3003
a(S'789080202'
S'Raghvi Sayal'
tp3004
a(S'541375092'
S'Aditya Gurwara'
tp3005
a(S'100000419740395'
S'Ishaan S Mehra'
tp3006
a(S'705662827'
S'Pragya Banka'
tp3007
a(S'514412870'
S'Rishabh Mukherji'
tp3008
a(S'717360939'
S'Riya Saxena'
tp3009
a(S'617470316'
S'Tara Sen'
tp3010
a(S'100002205512030'
S'Shalini Mittal'
tp3011
a(S'574072723'
S'Hinesh Karia'
tp3012
a(S'100003814416454'
S'Dinesh Atri'
tp3013
a(S'670898714'
S'Angad Warrik'
tp3014
a(S'1447514105'
S'Deeptanshu K. Kapur'
tp3015
a(S'1742664354'
S'Anjun Chowdhry'
tp3016
a(S'678920137'
S'Saanya Ojha'
tp3017
a(S'100001805675222'
S'Digvijay Bishnoi'
tp3018
a(S'516421468'
S'Nishad Mukherji'
tp3019
a(S'722895181'
S'Suleman Ahmed'
tp3020
a(S'1654432143'
S'Manasi Kohli'
tp3021
a(S'650491661'
S'Naira Oberoi'
tp3022
a(S'100001659725924'
S'Vishal Malik'
tp3023
a(S'516292615'
S'Angarika G'
tp3024
a(S'506336456'
S'Arushi Kanwar'
tp3025
a(S'100000773267942'
S'Mansi Kankan'
tp3026
a(S'1451472806'
S'Agrim Singhal'
tp3027
a(S'611980367'
S'Hannah Richmond'
tp3028
a(S'818874324'
S'Ujan Dutta'
tp3029
a(S'1406725731'
S'Uttara C Chaudhuri'
tp3030
a(S'501371192'
S'Aparna Sehgal'
tp3031
a(S'528462596'
S'Mehul Jain'
tp3032
a(S'716169997'
S'Rohan Raj Barua'
tp3033
a(S'100000486434845'
S'Samyak Bader'
tp3034
a(S'1434175255'
S'Gaurav Negi'
tp3035
a(S'737704088'
S'Anna Malhotra'
tp3036
a(S'1053594556'
S'Sai Kiran'
tp3037
a(S'609311981'
S'Diana Yu'
tp3038
a(S'545990856'
S'Kevin Low'
tp3039
a(S'756022215'
S'Nona Buckley-Irvine'
tp3040
a(S'502581558'
S'Tara Sud'
tp3041
a(S'544260724'
S'Sandhya Rvs'
tp3042
a(S'1372009809'
S'Valerie Jiggetts'
tp3043
a(S'518042711'
S'Kanupriya Rungta'
tp3044
a(S'715234164'
S'Chloe Wetherall'
tp3045
a(S'706995018'
S'Neha Mittal'
tp3046
a(S'1828331096'
S'Saanya Malhotra'
tp3047
a(S'507729975'
S'Anubhav Dawar'
tp3048
a(S'100002591046697'
S'Seema Sharma'
tp3049
a(S'100005696264101'
S'Riya Sawhney'
tp3050
a(S'1471181589'
S'Zubair Warsi'
tp3051
a(S'1055442914'
S'Shatakshi Singhania'
tp3052
a(S'516186825'
S'Sahira Mann'
tp3053
a(S'1430731484'
S'Kartik Kanaujia'
tp3054
a(S'517847946'
S'Karan Keswani'
tp3055
a(S'100000572061455'
S'Daman Sadana'
tp3056
a(S'562140286'
S'Zubin Bharti Mittal'
tp3057
a(S'518168596'
S'Maneka Sharma'
tp3058
a(S'561480640'
S'Kavya Trehan'
tp3059
a(S'100003219623405'
S'Siddharth Mehra'
tp3060
a(S'1273032227'
S'Deepika Talwade'
tp3061
a(S'512804530'
S'Mayannk Mathur'
tp3062
a(S'603944713'
S'Suraj Gudka'
tp3063
a(S'100000265320427'
S'Aditi Chandna'
tp3064
a(S'1379333897'
S'Vaibhav Sethi'
tp3065
a(S'100005706103918'
S'Tanya Chadha'
tp3066
a(S'553248442'
S'Ajai Thandi'
tp3067
a(S'1274967508'
S'Sam Bindra'
tp3068
a(S'517707491'
S'Paranjoy Roy'
tp3069
a(S'100002920427196'
S'Justine Calais'
tp3070
a(S'702420800'
S'Maanavi Chhabra'
tp3071
a(S'789210220'
S'Nandini Mathur'
tp3072
a(S'616050164'
S'Simar Rana'
tp3073
a(S'1527742954'
S'Yogesh Chandra'
tp3074
a(S'1182579760'
S'Adira Andlay'
tp3075
a(S'614893523'
S'Kavya Trehan'
tp3076
a(S'100003797539003'
S'Christian Jimenez Villarreal'
tp3077
a(S'684330230'
S'Soham Jethani-Panchamiya'
tp3078
a(S'100001024985429'
S'Ifraz Suri'
tp3079
a(S'1038519544'
S'Ragini B. Tomlinson'
tp3080
a(S'1546285457'
S'Arush Sawhny'
tp3081
a(S'100001062692164'
S'Tan Sen'
tp3082
a(S'100000053703631'
S'Keshav Tokas'
tp3083
a(S'1515606397'
S'Aamer Kandhari'
tp3084
a(S'836318958'
S'Amnah Ahmad'
tp3085
a(S'600140602'
S'Karthik Pillai'
tp3086
a(S'513109134'
S'Sahil Kashyap'
tp3087
a(S'1021978735'
S'Pooja Bajaj'
tp3088
a(S'1185780891'
S'Mehek Kaur'
tp3089
a(S'100001327878589'
S'Gurdeep Grewal'
tp3090
a(S'723440108'
S'Sharan Gill'
tp3091
a(S'1269784574'
S'Aarzoo Dhuppar'
tp3092
a(S'1436950140'
S'Meetika Malhotra'
tp3093
a(S'513272644'
S'Zai Tandan'
tp3094
a(S'633520938'
S'Unmay Shroff'
tp3095
a(S'1450841102'
S'Ujjwal Parekh'
tp3096
a(S'502417585'
S'Meher Mehta'
tp3097
a(S'513066364'
S'Tarini Sethi'
tp3098
a(S'679701498'
S'Deborah Angela Perez'
tp3099
a(S'502768627'
S'Rosha Maura Fitzhowle'
tp3100
a(S'677420239'
S'Salman Abdul Jalil'
tp3101
a(S'769205709'
S'Ruchika Sarma'
tp3102
a(S'600153128'
S'Siddhartha Datta'
tp3103
a(S'504110102'
S'Navni Gujral'
tp3104
a(S'508594610'
S'Shreya Kapoor'
tp3105
a(S'690570601'
S'Chandrika Srivastava'
tp3106
a(S'691311909'
S'Niladri Chakravarty'
tp3107
a(S'1295230447'
S'Amin Gazi'
tp3108
a(S'684661766'
S'Mohit Malhotra'
tp3109
a(S'741853903'
S'Jay Patel'
tp3110
a(S'100001826997013'
S'Varun Khanna'
tp3111
a(S'1217108620'
S'Vatsal Aggarwal'
tp3112
a(S'511603261'
S'Inder Puri'
tp3113
a(S'818754294'
S'Kabir Bhargava'
tp3114
a(S'100001268259342'
S'Abhishek Bishnoi'
tp3115
a(S'575369238'
S'Aigbe OA'
tp3116
a(S'1000782481'
S'Suryakaran Thakur'
tp3117
a(S'556921423'
S'Jai Punj'
tp3118
a(S'515822625'
S'Saba Kapoor'
tp3119
a(S'1342340224'
S'Nayana Naehring Wadhwa'
tp3120
a(S'100003537681958'
S'Nelson Babron'
tp3121
a(S'690230742'
S'Alistair Lynch'
tp3122
a(S'100003701108127'
S'Satender Thakran'
tp3123
a(S'100001508713832'
S'Neil Mukherjee'
tp3124
a(S'1481784094'
S'Sumedha Vashistha'
tp3125
a(S'582399754'
S'Ben Elders'
tp3126
a(S'100002097954392'
S'Abhishek Pandit'
tp3127
a(S'510873954'
S'Nikhil Sardana'
tp3128
a(S'1306832203'
S'Yashna Batra'
tp3129
a(S'525143579'
S'Dharini Abbott'
tp3130
a(S'716530133'
S'Tanya Chatrath'
tp3131
a(S'650536313'
S'Ananya Trehan'
tp3132
a(S'508071896'
S'Aman Bhalla'
tp3133
a(S'100000490396902'
S'Noah Alexander Mencia'
tp3134
a(S'534442015'
S'Simer Dhingra'
tp3135
a(S'548036355'
S'Samay Jhingon'
tp3136
a(S'1327312035'
S'Joshua Tajo Babur'
tp3137
a(S'1297493288'
S'Ishita Mathur'
tp3138
a(S'592174668'
S'Malvika Taneja'
tp3139
a(S'100003622896871'
S'Nakon Bae'
tp3140
a(S'749136479'
S'Satvik Kakar'
tp3141
a(S'560225362'
S'Aditi Sabharwal'
tp3142
a(S'525819598'
S'Shreshta Venkataramanan'
tp3143
a(S'654654156'
S'Imaan Pariat Mehta'
tp3144
a(S'1090240408'
S'Lauren Robinson'
tp3145
a(S'858830135'
S'Seerat Khara'
tp3146
a(S'683421052'
S'Sneha Owalekar'
tp3147
a(S'100000852421592'
S'Bala Sarda'
tp3148
a(S'1104870598'
S'Inayat Gill'
tp3149
a(S'100002246045034'
S'Ishaan Sethi'
tp3150
a(S'1793291970'
S'Anant Mital'
tp3151
a(S'511108597'
S'Anushka Kapur'
tp3152
a(S'1285163256'
S'Ayush Arya'
tp3153
a(S'100000009369109'
S'Tanya Chaudhary'
tp3154
a(S'100002179386024'
S'Manoj Bishnoi'
tp3155
a(S'100001230692036'
S'Nysa Verma'
tp3156
a(S'517861396'
S'Anneka Parekh'
tp3157
a(S'100002428639648'
S'Greatsohal Sohal'
tp3158
a(S'606428113'
S'Aakash Hans'
tp3159
a(S'100000931447033'
S'Sayesha Dalal'
tp3160
a(S'1636676100'
S'Dhruv Mehta'
tp3161
a(S'551967145'
S'Aru Kelkar'
tp3162
a(S'712075186'
S'Amar Sehgal'
tp3163
a(S'518077582'
S'Shounak Kumar'
tp3164
a(S'1396129802'
S'Amar Singh'
tp3165
a(S'633696003'
S'Luvdeep Babbar'
tp3166
a(S'502442548'
S'Sarah Jane Pinkham'
tp3167
a(S'500453049'
S'Ravi Gurtata'
tp3168
a(S'845619660'
S'Dhruv Arora'
tp3169
a(S'1594965590'
S'Yash Budhraja'
tp3170
a(S'1792087971'
S'Soham Jain'
tp3171
a(S'1323787282'
S'Nikita Gour'
tp3172
a(S'623103979'
S'Kabir Ishaar Singh'
tp3173
a(S'1007947154'
S'Abhinav Saraogi'
tp3174
a(S'512283583'
S'Aritra Banerjee'
tp3175
a(S'518055811'
S'Tanvi Gupta'
tp3176
a(S'508751899'
S'Shabir Balani'
tp3177
a(S'1793246066'
S'Kritin Thapar'
tp3178
a(S'1105122213'
S'Nikita Chowhan'
tp3179
a(S'692820051'
S'Shradha Malik'
tp3180
a(S'100003048872993'
S'Sara Sinha'
tp3181
a(S'508753759'
S'Avantika Gupta'
tp3182
a(S'1614510068'
S'Aditya Narang'
tp3183
a(S'514742927'
S'Adam MacManus'
tp3184
a(S'552552749'
S'Soham Shiva'
tp3185
a(S'100001446704215'
S'Nelson Argentino'
tp3186
a(S'1638390057'
S'Natasha Ratanshi'
tp3187
a(S'100000522589213'
S'Angad Singh'
tp3188
a(S'522703578'
S'Dhruv Chugh'
tp3189
a(S'507948675'
S'Kartika Chaudhary'
tp3190
a(S'703697029'
S'Dennis Mooney'
tp3191
a(S'100002324930490'
S'Divij Singh'
tp3192
a(S'513205932'
S'Anirudh Balakrishnan'
tp3193
a(S'100002315404818'
S'Esha Chhikara'
tp3194
a(S'1192753673'
S'Aneesha Bhandari'
tp3195
a(S'512237842'
S'Anushka Yadav'
tp3196
a(S'670852107'
S'Prannay Srivastava'
tp3197
a(S'701885733'
S'Jagrit Sethi'
tp3198
a(S'604558'
S'Savitri Singh'
tp3199
a(S'100000853362152'
S'Antara Baruah'
tp3200
a(S'605892854'
S'Jessica Chong'
tp3201
a(S'1163365139'
S'Aneesha Madhok'
tp3202
a(S'517984992'
S'Nimisha Agrawal'
tp3203
a(S'512382280'
S'Tanvi Jain'
tp3204
a(S'517664273'
S'Amey Charnalia'
tp3205
a(S'100000585886348'
S'Damini Grover'
tp3206
a(S'1118237740'
S'Sanjit Sarkar'
tp3207
a(S'868770363'
S'Sahil Garg'
tp3208
a(S'532050148'
S'Ollie Subhedar'
tp3209
a(S'506359487'
S'Arun Blair-Mangat'
tp3210
a(S'654046872'
S'Philip Boyce'
tp3211
a(S'1542720612'
S'Rahat Saxena'
tp3212
a(S'1378174390'
S'Archit Kumar'
tp3213
a(S'747440566'
S'Vaasvi Goyal'
tp3214
a(S'528115067'
S'Tara Rajagopal'
tp3215
a(S'518133993'
S'Nihaar Kuthiala'
tp3216
a(S'512486683'
S'Siddharth Rajan'
tp3217
a(S'643487985'
S'Heinin Zhang'
tp3218
a(S'100002670084782'
S'Saniya Agarwal'
tp3219
a(S'726311993'
S'Faham Baig'
tp3220
a(S'572847820'
S'Tanya Suri'
tp3221
a(S'613065885'
S'Abhimanyu Das'
tp3222
a(S'587686926'
S'Ria Bhargava'
tp3223
a(S'516211044'
S'Ragini Roy'
tp3224
a(S'100002685155776'
S'Manya Jha'
tp3225
a(S'100000931981445'
S'Hideo Daikoku'
tp3226
a(S'100002030842905'
S'Sanya Kochhar'
tp3227
a(S'693586340'
S'Sups Singh'
tp3228
a(S'511432408'
S'Nayana Ria Keswani'
tp3229
a(S'501354294'
S'Mallika Sadh'
tp3230
a(S'702707585'
S'Saniya Srivastava'
tp3231
a(S'100001056889115'
S'Shalini Sinha'
tp3232
a(S'1100756989'
S'Sarika Nanda'
tp3233
a(S'100000392519070'
S'Siddhant Dayal'
tp3234
a(S'516650003'
S'Arshiya Singh'
tp3235
a(S'100000189906825'
S'Ritika Singla'
tp3236
a(S'538500087'
S'Diya Puri'
tp3237
a(S'1826984814'
S'Siddhant Batra'
tp3238
a(S'703227032'
S'Lakshay Aggarwal'
tp3239
a(S'515555825'
S'Naresh Raghuraman'
tp3240
a(S'100004588890648'
S'Ravi Yadav'
tp3241
a(S'100000373602363'
S'Aayushi Srivastava'
tp3242
a(S'849160045'
S'Asher Gilani'
tp3243
a(S'662711468'
S'Anusha Ghosh'
tp3244
a(S'637195457'
S'Viraj Shastri'
tp3245
a(S'505240525'
S'Misha Kohli'
tp3246
a(S'666209455'
S'Suryavir Dev'
tp3247
a(S'100000853470824'
S'Janhavi Sawhney'
tp3248
a(S'100001291505536'
S'Arjun Chopra'
tp3249
a(S'722465161'
S'Abhi Chauhan'
tp3250
a(S'100001085329328'
S'Shivraj Bhasin'
tp3251
a(S'509769343'
S'Chavi Dutt'
tp3252
a(S'512937638'
S'Ishan Bhasin'
tp3253
a(S'1060876440'
S'Vaibhav Sethi'
tp3254
a(S'1555955046'
S'Vedaant Nag'
tp3255
a(S'1349776906'
S'Krishna Singh'
tp3256
a(S'100001287097462'
S'Aaditya Jain'
tp3257
a(S'701862642'
S'Uday Shriram'
tp3258
a(S'655834845'
S'Adit Sachdeva'
tp3259
a(S'507724701'
S'Salman Shahid'
tp3260
a(S'516090821'
S'Aditya Lal'
tp3261
a(S'502494917'
S'Aneesha Dalal'
tp3262
a(S'1249940475'
S'Aisha Dev'
tp3263
a(S'517865079'
S'Gitana Singh'
tp3264
asS'id'
p3265
g2518
s.