(dp1
S'friends'
p2
(lp3
(S'1003232362'
S'Radhika Thapar'
tp4
a(S'100008063528894'
S'Kamaldeep Nagpal'
tp5
a(S'100001349913073'
S'Sundeep Singh Soni'
tp6
a(S'736589912'
S'Anupreet Oberoi'
tp7
a(S'695359008'
S'Pamposh Gulati'
tp8
a(S'100000494286783'
S'Harpreet Kaur Mavi'
tp9
a(S'785738981'
S'Apul Gupta'
tp10
a(S'680972469'
S'Jaspreet Kaur'
tp11
a(S'661805099'
S'Kunwarjit Singh'
tp12
a(S'100000699856435'
S'Amrita Gujral'
tp13
a(S'100000292018599'
S'Jaspreet Makkar'
tp14
a(S'100002346818407'
S'Anjani Tyagi'
tp15
a(S'576284198'
S'Manveen Sethi'
tp16
a(S'100000192735751'
S'Priyanka Makkar'
tp17
a(S'100004046298289'
S'Tamanna Mediratta'
tp18
a(S'100001465148005'
S'Baneet Singh'
tp19
a(S'589086896'
S'Gyaneshwari Sharma'
tp20
a(S'579455612'
S'Gurleen Mehta'
tp21
a(S'100006291763853'
S'Simar Makkar'
tp22
a(S'848234323'
S'Raji Bharaj'
tp23
a(S'650332588'
S'Nipun Chawla'
tp24
a(S'591988732'
S'Kirat Manpreet Surmela'
tp25
a(S'552558217'
S'Swati Makhija Juneja'
tp26
a(S'641220808'
S'Ashmeet Tuli'
tp27
a(S'100000494462631'
S'Abhishek Narula'
tp28
a(S'100006590646815'
S'Punita Makkar'
tp29
a(S'748593328'
S'Manmeet Kaur'
tp30
a(S'100001227713489'
S'Dolly Juneja Soni'
tp31
a(S'100000996634362'
S'Hardeep Kaur'
tp32
a(S'100001568177023'
S'Kishneet Arora'
tp33
a(S'100000405680930'
S'Ravin Sing'
tp34
a(S'718272413'
S'Naina Arora'
tp35
a(S'1603271464'
S'Milan Khurana Makker'
tp36
a(S'100000588634586'
S'Supreet Kaur'
tp37
a(S'588376955'
S'Jaskaran Singh'
tp38
a(S'100000345665729'
S'Gagandeep Makkar'
tp39
a(S'548050003'
S'Supreet Danny Ahluwalia'
tp40
a(S'100000599831536'
S'Pari Gupta'
tp41
a(S'1460899612'
S'Ramnik Arora'
tp42
a(S'100001186930199'
S'Kangana Makkar'
tp43
a(S'674384719'
S'Smriti Arora Malhotra'
tp44
a(S'569018981'
S'Kajal Bhalla'
tp45
a(S'100008127300516'
S'Ozone Rajouri'
tp46
a(S'100001477456292'
S'Sangita Pandey'
tp47
a(S'1035082673'
S'Neeraj Biala'
tp48
a(S'511565181'
S'Paramdeep Singh'
tp49
a(S'1537787087'
S'Ramneet Kaur'
tp50
a(S'100002276207325'
S'Meharban Arora'
tp51
a(S'1630356111'
S'Aanchal Abhishek Narula'
tp52
a(S'609182650'
S'Navpreet Kaur'
tp53
a(S'100002522914742'
S'Navdeep Soni'
tp54
a(S'100001849447498'
S'Nilam Sharma'
tp55
a(S'1162780786'
S'Radhika Kohli'
tp56
a(S'552309190'
S'Gagan Chandhok'
tp57
a(S'1546261490'
S'Indu Kochar'
tp58
a(S'100004702273471'
S'Leena Sethi Ghai'
tp59
a(S'100001681427818'
S'Moni Makkar'
tp60
a(S'1270790643'
S'Snigdha Arya Bhatia'
tp61
a(S'734090522'
S'Sahiba Makan'
tp62
a(S'660115307'
S'Parineeta Kaur Bajaj'
tp63
a(S'1180665598'
S'Komal Makkar'
tp64
a(S'545995012'
S'Sandeep Singh'
tp65
a(S'100006562632249'
S'Neet Karan'
tp66
a(S'1136180981'
S'Ishpreet Singh'
tp67
a(S'605630601'
S'Mannat Juneja'
tp68
a(S'100004573389858'
S'Simran Mediratta'
tp69
a(S'574676241'
S'Bani Malhotra'
tp70
a(S'100003843113566'
p71
S'Riya Alagh'
tp72
a(S'100002633523449'
S'Harvinder Kaur'
tp73
a(S'774115651'
S'Tavleen Kaur Kalsi'
tp74
a(S'100001537227624'
S'Parisha Singh Nagpal'
tp75
a(S'684280750'
S'Harry Arora'
tp76
a(S'536594760'
S'Nand Batra'
tp77
a(S'641623367'
S'Sahiba Chona'
tp78
a(S'100000483435856'
S'Kavita Tandon Sharma'
tp79
a(S'1684338352'
S'Vishal Bakshi'
tp80
a(S'100007966992147'
S'Rashi Makkar'
tp81
a(S'1046678552'
S'Manik Khosla'
tp82
a(S'100000202290586'
S'Manita Kaur'
tp83
a(S'100000256657610'
S'Shriya Bakhshi'
tp84
a(S'100008349488236'
S'Sushil Dhupar'
tp85
a(S'516414882'
S'Namrita Nijhon'
tp86
a(S'539524596'
S'Ravish Karan Singh'
tp87
a(S'598328329'
S'Ramandeep Singh Makkar'
tp88
a(S'100001659187343'
S'Priyanka Makkar'
tp89
a(S'100001121356422'
S'Pallavi Bhalla'
tp90
a(S'100002316513606'
S'Silky Makkar'
tp91
a(S'1751904176'
S'Damandeep Singh'
tp92
a(S'100002058373214'
S'Tanya Mediratta'
tp93
a(S'100002854276883'
S'Shimpy Arora'
tp94
a(S'656081130'
S'Ish Pal Singh'
tp95
a(S'1264217213'
S'Tarun Gupta'
tp96
a(S'584723712'
S'Ramneet Kochar'
tp97
a(S'1268820111'
S'Soni Navneet Rai'
tp98
a(S'1141031148'
S'Neelu Kochar'
tp99
a(S'614041679'
S'Rashmeet Singh'
tp100
a(S'590485426'
S'Sonam Sahni'
tp101
a(S'634365459'
S'Jaisveen Kaur'
tp102
a(S'100000110513171'
S'Mini Biala'
tp103
a(S'100001073483069'
S'Jasmine Kaur'
tp104
asS'id'
p105
S'547165240'
p106
sS'name'
p107
S'Sehej Ramandeep Makkar'
p108
s.