(dp1
S'name'
p2
S'Raghav Dahuja'
p3
sS'current_class'
p4
S'india'
p5
sS'home_class'
p6
Vsaharanpur, uttar pradesh, india
p7
sS'home_text'
p8
VSaharanpur\u000aHometown
p9
sS'current_link'
p10
Vhttps://www.facebook.com/l.php?u=https%3A%2F%2Fwww.bing.com%2Fmaps%2Fdefault.aspx%3Fv%3D2%26pc%3DFACEBK%26mid%3D8100%26where1%3D28.613900916609%252C%2B77.207794189453%26name%3DNew%2BDelhi%252C%2BIndia%26mkt%3Den-IN&h=7AQEZ4qB6&s=1
p11
sS'home_link'
p12
Vhttps://www.facebook.com/l.php?u=https%3A%2F%2Fwww.bing.com%2Fmaps%2Fdefault.aspx%3Fv%3D2%26pc%3DFACEBK%26mid%3D8100%26where1%3D29.970000512412%252C%2B77.549743652344%26name%3DSaharanpur%26mkt%3Den-IN&h=hAQFnqTm6&s=1
p13
sS'current_text'
p14
VNew Delhi, India\u000aCurrent City
p15
sS'friends'
p16
(lp17
(S'100001241437581'
S'Phunk In'
tp18
a(S'100002381815600'
S'Aastha Singh'
tp19
a(S'100003038321446'
S'Sani Yadav'
tp20
a(S'1070506341'
S'Sarthak Bathla'
tp21
a(S'100003625499078'
S'Dias Antony Thakidiyel'
tp22
a(S'1809210907'
S'Syed Jaasirah Syedain'
tp23
a(S'100002018517234'
S'Anita Chugh'
tp24
a(S'726530819'
S'Nitin Jude Magima'
tp25
a(S'1438211341'
S'Shivesh Kumar'
tp26
a(S'677093887'
S'Aashray Kd Batra'
tp27
a(S'100003229665492'
S'Shekhar Chaudhary'
tp28
a(S'661885249'
S'Atreyi Bhattacharya'
tp29
a(S'585855491'
S'Mohit Sinha'
tp30
a(S'100001541895805'
S'Vishal Aurora'
tp31
a(S'100001873733529'
S'Parth Anand'
tp32
a(S'100001404713726'
S'Khushagra Singh'
tp33
a(S'100000210560577'
S'Vasu Agarwal'
tp34
a(S'1429715349'
S'Chetan Sharma'
tp35
a(S'1292846076'
S'Gobind Sayal'
tp36
a(S'761674764'
S'Mankaran Kharbanda'
tp37
a(S'100000086196501'
S'Lipakshi Thakral'
tp38
a(S'100001101235544'
S'Aman Ranka'
tp39
a(S'722730406'
S'Ajay Kailkhura'
tp40
a(S'100000436150476'
S'Mimansa Dahuja'
tp41
a(S'1849355765'
S'John-David Slaugh'
tp42
a(S'1027856097'
S'Shasti Jain'
tp43
a(S'100000516973556'
S'Khole Ja'
tp44
a(S'1538908019'
S'Sagar Kapoor'
tp45
a(S'1162416341'
S'Rajat Sharma'
tp46
a(S'712824480'
S'Sarthak Jaiswal'
tp47
a(S'100000237680062'
S'Sidharth Chopra'
tp48
a(S'100000359450377'
S'Abhilasha Mahanta'
tp49
a(S'100002382403166'
S'Akul Gurtu'
tp50
a(S'592846511'
S'Steffi Cherian'
tp51
a(S'1567085538'
S'Pratik Beria'
tp52
a(S'100001420521470'
S'SAloni CHawla'
tp53
a(S'701011745'
S'Navandeep Singh Matta'
tp54
a(S'665655196'
S'Neha George'
tp55
a(S'100000433112581'
S'Neelima Parmar'
tp56
a(S'100001242238362'
S'Shivam Dixit'
tp57
a(S'598528017'
S'Meenu Yadav'
tp58
a(S'529829119'
S'Nitin Sharma'
tp59
a(S'677384603'
S'Gurratan Wander'
tp60
a(S'1827948227'
S'Paras Khurana'
tp61
a(S'1578024061'
S'Aman Bansal'
tp62
a(S'1015253578'
S'Ritvik Sultania'
tp63
a(S'598549354'
S'Neilabh Sinha'
tp64
a(S'100000614172033'
S'Sanjana Anand'
tp65
a(S'1340015709'
S'Chirag Joshi'
tp66
a(S'100004734153378'
S'Pradipta De'
tp67
a(S'100000739175151'
S'Arunish Singh'
tp68
a(S'571071213'
S'Chinmay Agarwal'
tp69
a(S'1204460822'
S'Mohit Sureka'
tp70
a(S'1067409573'
S'Abhishek Chugh'
tp71
a(S'1037686899'
S'Manasvini Rajan'
tp72
a(S'630445645'
S'Jahanara Rabia Raza'
tp73
a(S'651952787'
S'Utkarsh Kumar'
tp74
a(S'100000947168795'
S'Grusha Arora'
tp75
a(S'705562006'
S'Twishaa Tandon'
tp76
a(S'595317142'
S'Rohit Chaudhary'
tp77
a(S'1598041260'
S'Tanya Sharma'
tp78
a(S'756639421'
S'Tara Sami Dutt'
tp79
a(S'100001295762655'
S'Shivani Arora'
tp80
a(S'100000867651353'
S'Gokul Chawla'
tp81
a(S'1611690166'
S'Ainame Phanbuh'
tp82
a(S'100003038951439'
S'Rohit Kumar'
tp83
a(S'100000348625616'
S'Steve White'
tp84
a(S'1173001813'
S'Chaitanya Agarwal'
tp85
a(S'100005959031222'
S'Rishi Kapoor'
tp86
a(S'100004107336413'
S'Juhi Prasad'
tp87
a(S'100001095133061'
S'Isaac George Varghese'
tp88
a(S'1352423765'
S'Nischal Arvind Singh'
tp89
a(S'1092885742'
S'Shivam Tandon'
tp90
a(S'1742792116'
S'Manasvi Sharma'
tp91
a(S'100003981033406'
S'Nidhi Naithani'
tp92
a(S'100001988937930'
S'Chandrima Attri'
tp93
a(S'1593084569'
S'Sachu Sanil Chemmalakuzhy'
tp94
a(S'100001496123410'
S'Varun Shukla'
tp95
a(S'704647578'
S'Satyendra Kumar Mishra'
tp96
a(S'1837386826'
S'Srishti Tehri'
tp97
a(S'1820446136'
S'Rohan Sharma'
tp98
a(S'100001225344884'
S'Rajat Raina'
tp99
a(S'1106410818'
S'Umair Ali'
tp100
a(S'100001018896543'
S'Ashok Khurana'
tp101
a(S'100001017342458'
S'Piyush Raj'
tp102
a(S'100003044991592'
S'Sarthak Minocha'
tp103
a(S'671936365'
S'Siddharth Thard'
tp104
a(S'100001168386725'
S'Anshul Kumar'
tp105
a(S'100001718319683'
S'Prashant Arora'
tp106
a(S'100006823211452'
S'Shashi Chaturvedi'
tp107
a(S'100004433804209'
S'Keshav Arora'
tp108
a(S'1434638265'
S'Akash Prakash'
tp109
a(S'525885522'
S'Karna Puri'
tp110
a(S'100003146773246'
S'Dwipen Mahanta'
tp111
a(S'1025533826'
S'Varsha Uppal'
tp112
a(S'1571480478'
S'Siddharth Gupta'
tp113
a(S'100000537383305'
S'Shayon Bhattacharya'
tp114
a(S'700851619'
S'Sparsh Batra'
tp115
a(S'567105143'
S'Kriti Shrestha'
tp116
a(S'100003767520638'
S'Rudra Nath Ghorai'
tp117
a(S'100001225134949'
S'Anoushka Mahanta'
tp118
a(S'100001150928759'
S'Merlyn Fernandes'
tp119
a(S'1348296171'
S'Tanya Sharma'
tp120
a(S'613661715'
S'Sanjay Kuksal Kuqsal'
tp121
a(S'100001716017649'
S'Vansh Chaudhary'
tp122
a(S'1378262677'
S'Zoravar Singh Jamwal'
tp123
a(S'100001139008439'
S'Namratha Ajai'
tp124
a(S'1334471431'
S'Mridul Bajaj'
tp125
a(S'100001794905097'
S'Tijil Juneja'
tp126
a(S'1536820987'
S'Mudit Agarwal'
tp127
a(S'1375728536'
S'Rajat Verma'
tp128
a(S'1672677132'
S'Annu Malhotra'
tp129
a(S'1312921555'
S'Mark Pavamani'
tp130
a(S'639752536'
S'Rahi Makkar'
tp131
a(S'1319134637'
S'Ishan Taneja'
tp132
a(S'686249161'
S'Meeru Soni Pande'
tp133
a(S'589101833'
S'Yash Choukhany'
tp134
a(S'100000642281942'
S'Jeshika Shah'
tp135
a(S'100002604687341'
S'Mahender Kumar Taneja'
tp136
a(S'1129781853'
S'Devanshu Goyal'
tp137
a(S'564754332'
S'Sukhmanjeet Singh Sandhu'
tp138
a(S'1043105040'
S'Bhanu Prakash Arora'
tp139
a(S'100000018450841'
S'Anhad Trehan'
tp140
a(S'1328145572'
S'Anurag Banerjee'
tp141
a(S'100003887872237'
S'Ariana Arora'
tp142
a(S'100000576084005'
S'Param Adiseshiah'
tp143
a(S'100002709558779'
S'Sampath Ganapathy Inturi'
tp144
a(S'100000649445509'
S'Mandita Khurana'
tp145
a(S'100001772935665'
S'Eeshita Bajpai'
tp146
a(S'100004366412846'
S'Atima Shahi'
tp147
a(S'1145220080'
S'Om Kesarwani'
tp148
a(S'685681504'
S'Lokesh Dutt Vashist'
tp149
a(S'100000541624291'
S'Sonia Chaudhary'
tp150
a(S'100000979880835'
S'Ananta Joshi'
tp151
a(S'1022824050'
S'Gyanvi Soni'
tp152
a(S'100000319070854'
S'Jyotis Elizabeth Jacob'
tp153
a(S'100007863160316'
S'Surekha Dahuja'
tp154
a(S'515607607'
S'Pema Dechen'
tp155
a(S'100006826599063'
S'Sunil Dahuja'
tp156
a(S'100000981772271'
S'Bhavya Parashar'
tp157
a(S'1500834415'
S'Rishabh Dixit'
tp158
a(S'100002251230136'
S'Malvika Dahuja'
tp159
a(S'1408045189'
S'Keshav Agarwal'
tp160
a(S'100001061527804'
S'Divya Vashishtha'
tp161
a(S'1119227336'
S'Saloni Bhutani'
tp162
a(S'100002470017403'
S'Nidhi Singh'
tp163
a(S'100000581614662'
S'Abhinav Kumar'
tp164
a(S'100000633649402'
S'George Joseph'
tp165
a(S'100000419147366'
S'Aryan Arora'
tp166
a(S'100000037643074'
S'Arnav Behera'
tp167
a(S'1636386248'
S'Shourya Awasthi'
tp168
a(S'716581004'
S'Shrenik K. Chaudhari'
tp169
a(S'100000905842373'
S'Sanat Anand'
tp170
a(S'100000278045946'
S'Aditya Shailaj'
tp171
a(S'1851785574'
S'Saket Bhalotia'
tp172
a(S'100002679478660'
S'Nitesh K. Mahlawat'
tp173
a(S'517728664'
S'Sabal Segra'
tp174
a(S'100005671752932'
S'Vandana Srivastava'
tp175
a(S'100000778531881'
S'Ayush Dutt'
tp176
a(S'1837492658'
S'Mukund Marodia'
tp177
a(S'548188713'
S'Utsha Dasgupta'
tp178
a(S'100003882085991'
S'Prerna Chugh'
tp179
a(S'674663932'
S'Aishwarya Visweswaran Iyer'
tp180
a(S'1120809830'
S'Anmol Singh'
tp181
a(S'100002384809281'
S'Humair Subhani'
tp182
a(S'640068848'
S'Kevin Ilango'
tp183
a(S'1207459334'
S'Nikhil Prakash'
tp184
a(S'100002008038666'
S'Parvathy Parameswaran'
tp185
a(S'1806772046'
S'Vinayaditya Reddy'
tp186
a(S'100003810683351'
S'Mehvish Rather'
tp187
a(S'100003622976613'
S'Bibhor Mittal'
tp188
a(S'100000692065691'
S'Kartik Gupta'
tp189
a(S'786908350'
S'Annu Joy'
tp190
a(S'543832536'
S'Varun Gupta'
tp191
a(S'100001279727560'
S'Shriyam Gupta'
tp192
a(S'719899095'
S'Rishi Sood'
tp193
a(S'100000708876871'
S'Kabir Puri'
tp194
a(S'100004350031614'
S'Robin John'
tp195
a(S'100003721313202'
S'Shubh Badhwar'
tp196
a(S'100003030923787'
S'Ashish Sengar'
tp197
a(S'1627732975'
S'Susan Abraham'
tp198
a(S'100007808916319'
S'Sudhir Gilhotra'
tp199
a(S'100001417498269'
S'Riya Sharma'
tp200
a(S'100002507078563'
S'Palak Agarwal'
tp201
a(S'100000288416473'
S'Pulkit Dahuja'
tp202
a(S'1568484649'
S'Rakesh Mohan Bhandari'
tp203
a(S'1118941415'
S'Diya Deviah'
tp204
a(S'698784709'
S'Utkarsh Raj Sinha'
tp205
a(S'100003474856140'
S'Champa Mahanta'
tp206
a(S'1819445463'
S'Sumit Khurana'
tp207
a(S'100000136863039'
S'Mayank Agrawal'
tp208
a(S'807255337'
S'Tanvi Barua'
tp209
a(S'100000173887716'
S'Parth Dahuja'
tp210
a(S'100004335400587'
S'Mohsin Rander'
tp211
a(S'100002538147731'
S'Tara Pandey Sharma'
tp212
a(S'1822778660'
S'Abdul Manan'
tp213
a(S'100002399636991'
S'Arora Satish'
tp214
a(S'510480228'
S'Tushar Agarwal'
tp215
a(S'1264708135'
S'Saiket Talukdar'
tp216
a(S'100007523588923'
S'Ishu Khurana'
tp217
a(S'100000102652717'
S'Debobroto Sensharma'
tp218
a(S'100001239671635'
S'Dipesh Kapoor'
tp219
a(S'100001385869024'
S'Sagar Deswal'
tp220
a(S'612836049'
S'Saurabh Wadhwa'
tp221
a(S'1258639115'
S'Robin Trakroo'
tp222
a(S'643003519'
S'Samarth Jain'
tp223
a(S'100000242570169'
S'Harnoor Singh'
tp224
a(S'609127370'
S'Chaitanya Sharma'
tp225
a(S'100003022141461'
S'Gaurav Soni'
tp226
a(S'100001714661377'
S'Jaison C Koshy'
tp227
a(S'1083757394'
S'Nadeem Afroz'
tp228
a(S'1375226614'
S'Harshit Gupta'
tp229
a(S'662953328'
S'Rachit Nandwani'
tp230
a(S'1583072677'
S'Dimitar Kurtev'
tp231
a(S'1610689273'
S'Ritika Gupta'
tp232
a(S'100003757753052'
S'Rajul Agarwal'
tp233
a(S'100000609043373'
S'Ashok Vardhan'
tp234
a(S'100002486769699'
S'Satyam Singh'
tp235
a(S'100002594105534'
S'Sagrika Arora'
tp236
a(S'100002071253549'
S'Raghav Lakhanpal'
tp237
a(S'100000918775535'
S'Madhur Gandhi'
tp238
a(S'100008115215682'
S'Alka Dahuja'
tp239
a(S'1049729896'
S'Ken McRae'
tp240
a(S'100002110055712'
S'Ashish Jain'
tp241
a(S'1388245725'
S'Rajat Senior'
tp242
a(S'1241481613'
S'Reuben Das'
tp243
a(S'100005707712307'
S'Sonu Chhillar'
tp244
a(S'100002209747566'
S'Palak Kalra'
tp245
a(S'1826830271'
S'Abhimanyu Bhardwaj'
tp246
a(S'100001130148677'
S'Kashish Bathla'
tp247
a(S'100000973366987'
S'Dhruv Batra'
tp248
a(S'1842430184'
S'Deepali Singh'
tp249
a(S'1063787150'
S'Amitrajeet Mukherjee'
tp250
a(S'1527159556'
S'Tushar Mishra'
tp251
a(S'100001262401034'
S'Keshav Khurana'
tp252
a(S'1054936308'
S'Vishal Kumar'
tp253
a(S'547446939'
S'Sarthak Rastogi'
tp254
a(S'792014482'
S'Jatan Singh Soni'
tp255
a(S'547157085'
S'Ashutosh Patel'
tp256
a(S'597261141'
S'Sonali Chauhan'
tp257
a(S'1349798908'
S'Neena S. Singh'
tp258
a(S'1413223424'
S'Sunil Chugh'
tp259
a(S'100000911638241'
S'Devvrat Arya'
tp260
a(S'1003447790'
S'Richa Gupta'
tp261
a(S'100002214314705'
S'Aarush Malhotra'
tp262
a(S'1072391012'
S'Seerat Gurkirat Chabba'
tp263
a(S'716673406'
S'Malvika Srivastava'
tp264
a(S'100000738079647'
S'Palash Tiwari'
tp265
a(S'732214514'
S'Sahil Jain'
tp266
a(S'100003959722031'
S'Ashvatth Verma'
tp267
a(S'603625357'
S'Palki Bhattacharyya'
tp268
a(S'100001113972053'
S'Aranyak Saikia'
tp269
a(S'100003317337376'
S'Bipin Singh'
tp270
a(S'1037124688'
S'Gaurav Bidhuri'
tp271
a(S'1503780746'
S'Geetanjalii Sharma'
tp272
a(S'523937129'
S'Joe Cyril'
tp273
a(S'100000886674253'
S'Pawan Arora'
tp274
a(S'733278979'
S'Sugam Tulsyan'
tp275
a(S'1652030126'
S'Rohit Chopra'
tp276
a(S'100006071137955'
S'Varun Aggarwal'
tp277
a(S'100008241120673'
S'Jaish Mehta'
tp278
a(S'1400546903'
S'Sahil Aurora'
tp279
a(S'1155828229'
S'Maria Kuruvilla'
tp280
a(S'1039840478'
S'Fizza Feroz'
tp281
a(S'100000050921608'
S'Shubham Ruhela'
tp282
a(S'100000405680350'
S'Leila Gautham'
tp283
a(S'100000008581685'
S'Harshvardhan Singh'
tp284
a(S'567792594'
S'Nonie Bagga'
tp285
a(S'511220635'
S'Anagha Vasudevan'
tp286
a(S'593776900'
S'Bhavuk Bansal'
tp287
a(S'100002115936664'
S'Parv Rastogi'
tp288
a(S'100000198933111'
S'Manas Gandhi'
tp289
a(S'100001738388850'
S'Shubham Bajaj'
tp290
a(S'1359694265'
S'Laxman Singh Bhandari'
tp291
a(S'1301229032'
S'Abhishek Bansal'
tp292
a(S'525819598'
S'Shreshta Venkataramanan'
tp293
a(S'658830935'
S'Kanishka Ghosh Dastidar'
tp294
a(S'100000476299531'
S'Tanya Mathew'
tp295
a(S'761917271'
S'Yash Agarwal'
tp296
a(S'1511344101'
S'Yash Jain'
tp297
a(S'100000543608511'
S'Mili Jain'
tp298
a(S'100001680468759'
S'Raj Jaiswal'
tp299
a(S'1053685386'
S'Nikita Saraf'
tp300
a(S'1134071922'
S'Dhruv Changoiwala'
tp301
a(S'1321605254'
S'Rohan Agarwal'
tp302
a(S'629597147'
S'Tushar Chanana'
tp303
a(S'100003232448712'
S'Bharti Minocha'
tp304
a(S'528546916'
S'Ravi Ranjan'
tp305
a(S'556978970'
S'Jagat Sohail'
tp306
a(S'1129119922'
S'Ashwin Lingaiah'
tp307
a(S'752673707'
S'Rupinder Singh Thind'
tp308
a(S'1063890349'
S'Anshuman Kapoor'
tp309
a(S'100002422955652'
S'Harsh Kumar'
tp310
a(S'855190370'
S'Vishaka George'
tp311
a(S'100001441343813'
S'Sahil Sahni'
tp312
a(S'1594203919'
S'Vaibhav Bansal'
tp313
a(S'100001812783559'
S'Ashish Sahni'
tp314
a(S'100000033538196'
S'Ishita Gambhir'
tp315
a(S'100001816127649'
S'Angad Randhawa'
tp316
a(S'100000270213306'
S'Aman Padha'
tp317
a(S'724077258'
S'Deepanshu Sharma'
tp318
a(S'100004082663436'
S'Simran Kuksal'
tp319
a(S'100001936573147'
S'Krishabh Agrawal'
tp320
a(S'100000027450899'
S'Sharad Khurana'
tp321
a(S'686377114'
S'Kanika Takkar Batra'
tp322
a(S'536942353'
S'Saurabh Patni'
tp323
a(S'735158638'
S'Shalin Jose'
tp324
a(S'1526066161'
S'Manoviraj Singh'
tp325
a(S'1087660364'
S'Rhea Susan John'
tp326
a(S'517694775'
S'Pradipta De'
tp327
a(S'752217617'
S'Gaurav Kumar Gaggar'
tp328
a(S'100001109186483'
S'Aayush Tayal'
tp329
a(S'100001979570567'
S'Stuti Khurana'
tp330
a(S'100002344963339'
S'Meenu Bhatia Chanana'
tp331
a(S'100000300318229'
S'Sushant Maini'
tp332
a(S'100001250898176'
S'Vernica Arora'
tp333
a(S'628081873'
S'Anirudh Tapuriah'
tp334
a(S'1001598242'
S'Tarun Butta'
tp335
a(S'622531802'
S'Shivani Bagani'
tp336
a(S'1205410571'
S'Shruti Soni'
tp337
a(S'829334355'
S'Shreya Sinha'
tp338
a(S'672199739'
S'Nilesh Agrawal'
tp339
a(S'1245467694'
S'Purnima Grover'
tp340
a(S'725104119'
S'Kishlay Jha'
tp341
a(S'1595404961'
S'Nikhil Iyer'
tp342
a(S'1271338637'
S'Akshita Jain'
tp343
a(S'100003209652014'
S'Monga Rajat'
tp344
a(S'100001692505876'
S'Brijesh Kumar'
tp345
a(S'1591044564'
S'Sidhant Agarwal'
tp346
a(S'100001201398851'
S'Cyrus Reginald'
tp347
a(S'100001203234668'
S'Akash Sahni'
tp348
a(S'556574804'
S'Raghav Mehrotra'
tp349
a(S'744541234'
S'Zamar Alam'
tp350
a(S'100000640389614'
S'Ayush Malhotra'
tp351
a(S'100001322837443'
S'Shikher Goyal'
tp352
a(S'545048072'
S'Prabhat Chatterjee'
tp353
a(S'100000885360015'
S'Lakshya Mittal'
tp354
a(S'675442424'
S'Jaskunwar Kohli'
tp355
a(S'1379875863'
S'Raj Shekhar'
tp356
a(S'100000541681550'
S'Payal Sahni'
tp357
a(S'525110007'
S'Samarth Chaudhri'
tp358
a(S'100000929086730'
S'Minu Philip'
tp359
a(S'527314370'
S'Sai Jyothi'
tp360
a(S'708394247'
S'Ananya Khemeka'
tp361
a(S'100001369316446'
S'Karan Kumar'
tp362
a(S'100002476323506'
S'Arikesh Jung'
tp363
a(S'100000967674907'
S'Ishan Rana'
tp364
a(S'100003210730931'
S'Sambhav Sharma'
tp365
a(S'819383465'
S'Azhar Shaikh'
tp366
a(S'688872395'
S'Ashutosh Agrawal'
tp367
a(S'100001597076528'
S'Kitika Vivek Gupta'
tp368
a(S'100006725256397'
S'Nirupma Goel'
tp369
a(S'1714611101'
S'Carl Jaison'
tp370
a(S'100002950052380'
S'Anamika Bajaj'
tp371
a(S'100007504050772'
S'Swetha Agrawal'
tp372
a(S'100002271940945'
S'Snehanshu Sadangi'
tp373
a(S'100001619907197'
S'Sumit Thareja'
tp374
a(S'100002138658051'
S'Mrinal Alexander'
tp375
a(S'1695956388'
S'Shubham Mitruka'
tp376
a(S'505731467'
S'Rishab Dhall'
tp377
a(S'684465562'
S'Pritika Fernandes'
tp378
a(S'1259105465'
S'Aditya Todi'
tp379
a(S'100001284913867'
S'Ritu Sharma'
tp380
a(S'1734799814'
S'Shubham Agrawal'
tp381
a(S'666514346'
S'Amit Agarwal'
tp382
a(S'100000061741154'
S'Soutik Banerjee'
tp383
a(S'662640265'
S'Augustine Antony'
tp384
a(S'100002640823344'
S'Deepak Kumar'
tp385
a(S'100001203211552'
S'Anurag Bhatia'
tp386
a(S'695795702'
S'Akshay Nair'
tp387
a(S'100002400556924'
S'Megha Chugh'
tp388
a(S'725074445'
S'Narayan Dev Prasher'
tp389
a(S'100002213145585'
S'Vimal Chaudhary'
tp390
a(S'1526957888'
S'Indira Mahajan'
tp391
a(S'100003974024297'
S'Tarini Bhatt'
tp392
a(S'1168277662'
S'Karanveer Singh Khatri'
tp393
a(S'100001703958525'
S'Gandhi Study Circle'
tp394
a(S'100000087211334'
S'Mukesh Mkn'
tp395
a(S'560180616'
S'Vikram Khurana'
tp396
a(S'616501205'
S'Harman Singh Bagga'
tp397
a(S'1223745391'
S'Divya Joseph'
tp398
a(S'100006570602221'
S'Ashu Khurana'
tp399
a(S'510460504'
S'Marij Khan'
tp400
a(S'100004511403554'
S'Megha Parmar'
tp401
a(S'100001264452611'
S'Santosh Jain'
tp402
a(S'1559119315'
S'Aneesh Patankar'
tp403
a(S'100000144617783'
S'Vidhi Madaan'
tp404
a(S'1211509123'
S'Abhinav Kumar'
tp405
a(S'100001152909766'
S'Pranav Gupta'
tp406
a(S'749897411'
S'Tenzin Deru'
tp407
a(S'762844196'
S'Lokesh Singhal'
tp408
a(S'100001640233172'
S'Jeetu Wadhwani'
tp409
a(S'701276531'
S'Sanjeev Shah'
tp410
a(S'100001773373049'
S'Smriti Khurana'
tp411
a(S'100006484982593'
S'Ananya Mishra'
tp412
a(S'100001059912619'
S'Raja Pandit'
tp413
a(S'100001833635577'
S'Kavya Kalra'
tp414
a(S'1381854048'
S'Shrey Khemraj Painuli'
tp415
a(S'100003975830389'
S'Kalden Dorjee'
tp416
a(S'514577828'
S'Aziza Makkar'
tp417
a(S'100000358530674'
S'Sh\\u00f6\\u00f8by Agrawal'
tp418
a(S'100004078954159'
S'Arshia Jacob'
tp419
a(S'1218263786'
S'Urvi Vora'
tp420
a(S'559098626'
S'Purnima Singh'
tp421
a(S'1322147630'
S'Kartik Srivastava'
tp422
a(S'100003693284527'
S'Theresa John Mangalath'
tp423
a(S'1251966564'
S'Mary John Casey'
tp424
a(S'100001468440781'
S'Saksham Agrawal'
tp425
a(S'100003852385606'
S'Ayush Dixit'
tp426
a(S'514281232'
S'Maithili Mewawala'
tp427
a(S'100003848610237'
S'Sanchit Katiyar'
tp428
a(S'580084268'
S'Dipti Uppal'
tp429
a(S'762174926'
S'Maanasa Paramasivam'
tp430
a(S'564851076'
S'Yash Dang'
tp431
a(S'1790164271'
S'Syed Faizan Bukhari'
tp432
a(S'100000934338364'
S'Jordan Kinchum Tshering Namchu'
tp433
a(S'100000449243960'
S'Garima Makkar'
tp434
a(S'1177255200'
S'Prateek Paul'
tp435
a(S'100004326281368'
S'Shubham Dhall'
tp436
a(S'100003548245542'
S'Alka Bhandari'
tp437
a(S'100001949175536'
S'Shambhavi Prabhakar'
tp438
a(S'100000544244458'
S'Chetan Gandhi'
tp439
a(S'100004733227984'
S'Richa Dhingra'
tp440
a(S'542918188'
S'Pulkit Rastogi'
tp441
a(S'548357246'
S'Jayavardhan Singh'
tp442
a(S'1364041701'
S'Simran Arora'
tp443
a(S'100002660655416'
S'Prakhar Srivastava'
tp444
a(S'565724294'
S'Veer Bhadreshwar Singh Rana'
tp445
a(S'100000659671667'
S'Nitin Srivastava'
tp446
a(S'100004122223178'
S'Rahul Dev'
tp447
a(S'1480360048'
S'Neeru Narula Ahuja'
tp448
a(S'557630277'
S'Antony Aron'
tp449
a(S'547733630'
S'Aayush Goyal'
tp450
a(S'100000437851506'
S'Aradhna Chaudhry'
tp451
a(S'1088627103'
S'Siddarth Kamath'
tp452
a(S'100000625224365'
S'Pranshu Agarwal'
tp453
a(S'733011802'
S'Shasheem Rathour'
tp454
a(S'1078644092'
S'Shreyansh Bhalotia'
tp455
a(S'100002534448098'
S'Vikas Bhati'
tp456
a(S'100003248115814'
S'Salini Johnson'
tp457
a(S'631810150'
S'Avantika Sardana'
tp458
a(S'100001824347094'
S'Christy Perayil'
tp459
a(S'100002989763863'
S'Vicky Kashyap'
tp460
a(S'1627385259'
S'Anithasree Athiyaman'
tp461
a(S'733170298'
S'Sanuj Shah'
tp462
a(S'100005258677334'
S'Karan Juneja'
tp463
a(S'1500457464'
S'Bharat Agarwal'
tp464
a(S'100001428010349'
S'Nanakey Kalra'
tp465
a(S'1363705023'
S'Deepesh Gupta'
tp466
a(S'1267506600'
S'Akshat Jain'
tp467
a(S'536284686'
S'Samdish Khurana'
tp468
a(S'100002548252961'
S'Seema Dahuja'
tp469
a(S'1348422378'
S'Sejal Kukreja'
tp470
a(S'100000228739847'
S'Smriti Phutella'
tp471
a(S'1315896716'
S'Gazal Sharma'
tp472
a(S'1427907708'
S'Deeksha Bhardwaj'
tp473
a(S'711039644'
S'Vipul Mittal'
tp474
a(S'100000172527825'
S'Pragati Srivastava'
tp475
a(S'100000540078664'
S'Katya Puri'
tp476
a(S'100000743446557'
S'Shantanu Bhargava'
tp477
a(S'100002280158757'
S'Falak Naaz'
tp478
a(S'1588854883'
S'Sheikh Burhan Fayaz'
tp479
a(S'100001456113250'
S'Kamlesh Jat'
tp480
a(S'1472075522'
S'Shatakshi Sharma'
tp481
a(S'100000331604340'
S'Shobhit Deva'
tp482
a(S'1276647587'
S'Arul Hannah'
tp483
a(S'100002923921602'
S'Vidhi Sachdeva'
tp484
a(S'1074205611'
S'Annabel Mathew'
tp485
a(S'1645640382'
S'Arjoonn Sharma'
tp486
a(S'1416948206'
S'Aishwarya Raj Bagla'
tp487
a(S'100001296887499'
S'Arjun Wadhwa'
tp488
a(S'1587433547'
S'Pulkit Mittal'
tp489
a(S'100001765015960'
S'Roshni Shahani'
tp490
a(S'1837571007'
S'Junaid Jan'
tp491
a(S'721339488'
S'Shubham Gupta'
tp492
a(S'1666524055'
S'Sanchit Gupta'
tp493
a(S'510915350'
S'Rahil Hazarika Valson'
tp494
a(S'1626130241'
S'Adit Agrawal'
tp495
a(S'100000538410428'
S'Subhash Magan'
tp496
a(S'100000890387880'
S'Arpit Narang'
tp497
a(S'100000230469202'
S'Awijit Paliwal'
tp498
a(S'100000596710836'
S'Ankush Agarwal'
tp499
a(S'100001286610301'
S'Abhilekh Bora'
tp500
a(S'100000974153551'
S'Ady Sharma'
tp501
a(S'1115209012'
S'Sneha Khaund'
tp502
a(S'100002200782195'
S'Priya Arora'
tp503
a(S'1629225636'
S'Priyanshi Agrawal'
tp504
a(S'100002659083500'
S'Neel Swapnil Dutt'
tp505
a(S'100002448147282'
S'Shitanshu Maurya'
tp506
a(S'184603554'
S'Erica Mukherjee'
tp507
a(S'100002594204941'
S'Shubham Todi'
tp508
a(S'1358093683'
S'Siddharth Madhwal'
tp509
a(S'100001171958828'
S'Basit Malik'
tp510
a(S'1554207137'
S'Aman Bansal'
tp511
a(S'100001336967577'
S'Debayan Saha'
tp512
a(S'100000749464492'
S'Bhriguraj Singh Pathania'
tp513
a(S'100000467259534'
S'Jai Vikram Singh'
tp514
a(S'514643615'
S'Abhirath Thakur'
tp515
a(S'1179792384'
S'Ujjwal Dahuja'
tp516
a(S'666458135'
S'Siddharth David'
tp517
a(S'100000775840708'
S'Aman Kumar'
tp518
a(S'100004308040763'
S'Arushi Parmar'
tp519
a(S'100001377825766'
S'Aditya Shekhar'
tp520
a(S'100001793724761'
S'Raghav Babbar'
tp521
a(S'100001894195140'
S'Saher Balroo'
tp522
a(S'565170704'
S'Sanjana Palo'
tp523
a(S'100000745966623'
S'Rakesh Pal'
tp524
a(S'100001326042218'
S'Pushpendra Saroj'
tp525
a(S'100000668719572'
S'Pranav Chadha'
tp526
a(S'529732059'
S'Shivam Khanna'
tp527
a(S'100000795287491'
S'Karan Juneja'
tp528
a(S'100000958451561'
S'Swapnil Goyal'
tp529
a(S'1227356127'
S'Karan Yadav'
tp530
a(S'100001194892136'
S'Raghav Mittal'
tp531
a(S'1149745584'
S'Rashmi Rawat'
tp532
a(S'683071635'
S'Shreyas Pattnaik'
tp533
a(S'602867493'
S'Pranay Dawar'
tp534
a(S'100000481706251'
S'Apoorv Jain'
tp535
a(S'707912069'
S'Ayush Ranjan'
tp536
a(S'572384921'
S'Indrejeet Srivastava'
tp537
a(S'1829839946'
S'Saket Thavanani'
tp538
a(S'100000857924505'
S'Paridhi Agarwal'
tp539
a(S'1314027834'
S'Archit Goel'
tp540
a(S'100004035908662'
S'Kriti Sharma'
tp541
a(S'1241491288'
S'Jay Bhatt'
tp542
a(S'1800864421'
S'Mahender Taneja'
tp543
a(S'100004552329354'
S'Ayushi Kathayat'
tp544
a(S'1264003233'
S'Ritvik Kuchhal'
tp545
a(S'1534908104'
S'Namrata Praveen'
tp546
a(S'100001807457873'
S'Vishu Singla'
tp547
a(S'100001790058167'
S'Utpal Jhingan'
tp548
a(S'100000962442486'
S'Romy Arora'
tp549
a(S'1045645488'
S'Aditya Bhandari'
tp550
a(S'100000628080512'
S'Akshit Chawla'
tp551
a(S'100000936977255'
S'Manik Dhamija'
tp552
a(S'773888078'
S'Gurjyot Singh'
tp553
a(S'576954032'
S'Rumi Lahiri'
tp554
a(S'100002800697016'
S'Parth Parasher'
tp555
a(S'100001813075427'
S'Saksham Singh'
tp556
a(S'100004156753405'
S'Sagar Nikita'
tp557
a(S'1059110378'
S'Nidhaanjit Jain'
tp558
a(S'711202263'
S'Tanya Mary Duckworth'
tp559
a(S'714636082'
S'Rahul Kuruvilla Mathew'
tp560
a(S'517673138'
S'Rajat Arora'
tp561
a(S'1304161362'
S'Karan Gupta'
tp562
a(S'100002181246685'
S'Arshit Chugh'
tp563
a(S'100000924131944'
S'Mohit Sebastian'
tp564
a(S'1017278909'
S'Ridhima Arora'
tp565
a(S'100001328475477'
S'Manish Kumar'
tp566
a(S'100001212483616'
S'Anshul Jain'
tp567
a(S'100002594005480'
S'Suchismita Panda'
tp568
a(S'597933121'
S'Abel Thayil'
tp569
a(S'1002413866'
S'Khare Ojas'
tp570
a(S'100004236704238'
S'Pragati Mishra'
tp571
a(S'722689059'
S'Jayendra Vikram'
tp572
a(S'534389427'
S'Risheek Raj Srivastava'
tp573
a(S'100000197691716'
S'Ritika Garg'
tp574
a(S'884530640'
S'Misha Grover'
tp575
a(S'1327779213'
S'Shruti Sethi'
tp576
a(S'624806095'
S'Shreevats Swarup'
tp577
a(S'753547416'
S'Himaki Kumari'
tp578
a(S'100002018536213'
S'Nawab Arora'
tp579
a(S'100001832474584'
S'Amit Thareja'
tp580
a(S'1479281204'
S'Chaitanya Ghai'
tp581
a(S'576239712'
S'Raman Bhatnagar'
tp582
a(S'100000450097956'
S'Raghav Agrawal'
tp583
a(S'100000138289450'
S'Ad Aman Tine Vashisht'
tp584
a(S'100003358140925'
S'Dev Lahiri'
tp585
a(S'1018857597'
S'Rajat Philip'
tp586
a(S'100001873041319'
S'Sadiah Zahoor'
tp587
a(S'1294324657'
S'Anwesh Patnaik'
tp588
a(S'1168756435'
S'Aakash Nain'
tp589
a(S'826138813'
S'Divya Prakash'
tp590
a(S'100002507676161'
S'Aayush Gurtu'
tp591
a(S'1024894932'
S'Mahima Kapoor'
tp592
a(S'100000061887971'
S'Siddharth Kanwar'
tp593
a(S'1005250018'
S'Anirudh Saraf'
tp594
a(S'754723593'
S'Abhineet Kanodia'
tp595
a(S'762404428'
S'Sushant Vasishta'
tp596
a(S'516694962'
S'Randhir Yadav'
tp597
a(S'100005100304836'
S'Anmol Virmani'
tp598
a(S'100000708286735'
S'Juneja Devina'
tp599
a(S'100003663829100'
S'Divya Kundu'
tp600
a(S'676390919'
S'Visharad Jalan'
tp601
a(S'659261678'
S'Raj Kalra'
tp602
a(S'100001035310553'
S'Rhythm Arora'
tp603
a(S'1448228746'
S'Taisha Antony'
tp604
a(S'100000722529762'
S'Tanya Sharma'
tp605
a(S'1068264154'
S'Siddharth Sarin'
tp606
a(S'100004102840539'
S'Rotary Club Saharanpur Central'
tp607
a(S'100000559551433'
S'Sushen Maini'
tp608
a(S'791824200'
S'Chahat Arora'
tp609
a(S'100002559205177'
S'Neha Kalra'
tp610
a(S'571135750'
S'Yojit Dev Mehra'
tp611
a(S'100004606053755'
S'Vaibhav Srivastava'
tp612
a(S'100003701469350'
S'Nakul Kashyap'
tp613
a(S'543256608'
S'Kunal Seth'
tp614
a(S'1090240408'
S'Lauren Robinson'
tp615
a(S'100002403431652'
S'Kopal Dixit'
tp616
a(S'1746743343'
S'Maya Hayunga'
tp617
a(S'1272117676'
S'Sajal Batra'
tp618
a(S'1312993077'
S'Shivansh Bansal'
tp619
a(S'549269838'
S'Salmot Rehan'
tp620
a(S'100000430964358'
S'Akshay Panday'
tp621
a(S'518157753'
S'Gaurav Dwivedi'
tp622
a(S'668692777'
S'Ashish Mathew'
tp623
a(S'622561383'
S'Rohan Jha'
tp624
a(S'1366275186'
S'Tushar Saraogi'
tp625
a(S'702251169'
S"Leroy Leo D'Souza"
tp626
a(S'100000049741987'
S'Aditya Negi'
tp627
a(S'1485613734'
S'Anirudh Attri'
tp628
a(S'100002209595164'
S'Aditi Dubey'
tp629
a(S'1371170811'
S'Akash Thakur'
tp630
a(S'1270026498'
S'Naman Goel'
tp631
a(S'100000622956548'
S'Gagan Mahajan'
tp632
a(S'100003259130725'
S'Rohit Grewal'
tp633
a(S'1843722964'
S'Anjini Bist'
tp634
a(S'1226400720'
S'Busta Grimes'
tp635
a(S'100002258127006'
S'Shivam Taneja'
tp636
a(S'1488979401'
S'Arjun Thakkar'
tp637
a(S'100000220242094'
S'Azaz Ahmed'
tp638
a(S'100005314931754'
S'Maanit Kalra'
tp639
a(S'709777562'
S'Naincy Neha Upadhyay'
tp640
a(S'1090565116'
S'Manish Pant'
tp641
a(S'571905397'
S'Anjani Maliah'
tp642
a(S'100000603129594'
S'Devansh Raheja'
tp643
a(S'1099561481'
S'Chetan Anand'
tp644
a(S'639213771'
S'Sushant Khurana'
tp645
a(S'100000395719285'
S'Firoz Ali'
tp646
a(S'1837225640'
S'Kartik Sharma'
tp647
a(S'759772784'
S'Khyat Mahajan'
tp648
a(S'100000594200700'
S'Anju Khemka'
tp649
a(S'1110941796'
S'Mohak Agarwal'
tp650
a(S'100002562343102'
S'Anku Dhawan'
tp651
a(S'100001471888207'
S'Juneja Kunal'
tp652
a(S'100006706598084'
S'Nirumpa Goel'
tp653
a(S'100006477888651'
S'Kritika Chaturvedi'
tp654
a(S'100001340254746'
S'Anoushka Gupta'
tp655
a(S'100006299470758'
S'Anku Dhawan'
tp656
a(S'100007847583896'
S'Melba Casey'
tp657
a(S'734636368'
S'Ananya Chopra'
tp658
a(S'1404095926'
S'Ravi Lall'
tp659
a(S'1010125131'
S'Harman Singh'
tp660
a(S'672496941'
S'Abhinav Suri'
tp661
a(S'709345588'
S'Mohak Bajaj'
tp662
a(S'100000859048256'
S'Santosh Thapliyal'
tp663
a(S'731933968'
S'Sambridh Ghimire'
tp664
a(S'100000043789081'
S'Priyanka Chaudhary'
tp665
a(S'708642526'
S'Naveen Gupta'
tp666
a(S'726018232'
S'Biplav Malla'
tp667
a(S'100000496188443'
S'Sushant Kumar'
tp668
a(S'757322091'
S'Harjeev Kohli'
tp669
a(S'100000462695790'
S'Anuj Singhal'
tp670
a(S'1312204917'
S'Ribhav Pande'
tp671
a(S'1784875826'
S'Aniket Baksy'
tp672
a(S'100000243990177'
S'Mahesh Shanker Kandpal'
tp673
a(S'686570370'
S'Vinayak Rajesekhar'
tp674
a(S'100000546399282'
S'Saksham Bhalothia'
tp675
a(S'1148668236'
S'Chetan Chawla'
tp676
a(S'100002859203121'
S'Shourya Dabral'
tp677
a(S'1781662221'
S'Aariz Nizam Ansari'
tp678
a(S'667209688'
S'Satender Singh Vijayran'
tp679
a(S'1624092635'
S'Akash Verma'
tp680
a(S'100001065375593'
S'Dhruv Verma'
tp681
a(S'1374235899'
S'Shivam Verma'
tp682
a(S'100003244144279'
S'Abhisheikh Bijpuria'
tp683
a(S'1389260775'
S'Shrey Singhal'
tp684
a(S'100001272181386'
S'Vasu Takkar'
tp685
a(S'100000461709595'
S'Abhijit Saha'
tp686
a(S'558957139'
S'Pritha Pande'
tp687
a(S'100000880221074'
S'Aiman Hashmi'
tp688
a(S'100000646690464'
S'Deepto Mozumdar'
tp689
a(S'100003670816812'
S'Swati Nigam'
tp690
a(S'712700839'
S'Eesha Bagga'
tp691
a(S'711085830'
S'Shantabya Sjb Rana'
tp692
a(S'1479224598'
S'Krishna Agrawal'
tp693
a(S'1381257107'
S'Sharon Mitra'
tp694
a(S'100003612308344'
S'Aman Padha'
tp695
a(S'1337460254'
S'Mitali Poovayya'
tp696
a(S'100000045652066'
S'Sonali Verma'
tp697
a(S'100000082161331'
S'Jubin Nautiyal'
tp698
a(S'100001063677102'
S'Sukrit Joshi'
tp699
a(S'1522090152'
S'Ann Lal Verghis'
tp700
a(S'100002173765340'
S'Tarun Sharma'
tp701
a(S'513363554'
S'Avantika Viswanathan'
tp702
a(S'1137934992'
S'Uday Suri'
tp703
a(S'1046669987'
S'Urmi Uppal'
tp704
a(S'592041526'
S'Prabarna Ganguly'
tp705
a(S'539610658'
S'Rishiparna Dilip Mahanta'
tp706
a(S'100004735901280'
S'Arjun Randhawa'
tp707
a(S'100003828734614'
S'Janet Joy'
tp708
a(S'100005335983082'
S'Ishan Rana'
tp709
a(S'100000630419067'
S'Shivam Narula'
tp710
a(S'100003213757038'
S'Viney Dahuja'
tp711
a(S'675489034'
S'Viraaj Dada Bhullar'
tp712
a(S'100000948904026'
S'Soorya James'
tp713
a(S'100000233782560'
S'Andrea Anand'
tp714
a(S'644827448'
S'Ajay Bahuguna'
tp715
a(S'1314567362'
S'Hemant Engole'
tp716
a(S'100003958593364'
S'Peunika Marwaha'
tp717
a(S'1396981949'
S'Nakul Aggarwal'
tp718
a(S'655535122'
S'Aakash Jhunjhunwala'
tp719
a(S'100000199370431'
S'Punit Agrawal'
tp720
a(S'1045370531'
S'Akhil Dhamija'
tp721
a(S'100000462543147'
S'Yasharth Singh'
tp722
a(S'100000586147073'
S'Shubham Gupta'
tp723
a(S'100003804879148'
S'Nikita Gupta'
tp724
a(S'100001449196439'
S'Rosemary Sebastian'
tp725
a(S'100003678892555'
S'Harshit Rana'
tp726
a(S'100002734546767'
S'Somya Ohri'
tp727
a(S'760799333'
S'Kabir Sharma'
tp728
a(S'100002131181899'
S'Pushpalata Chandna'
tp729
a(S'100001422910479'
S'Ashish Mamgain'
tp730
a(S'100004006885800'
S'Raarah Gurjar'
tp731
a(S'100000679356719'
S'Karan Khare'
tp732
a(S'1449529423'
S'Mariam Cherian'
tp733
a(S'100003834476455'
S'Shivang Dada'
tp734
a(S'100000061376408'
S'Mathew Johnson'
tp735
a(S'100000224300652'
S'Sidhant Agarwal'
tp736
a(S'1532016373'
S'Sidhant Godara'
tp737
a(S'100002399449240'
S'Shiva Takkar'
tp738
a(S'514945149'
S'Marif Khan'
tp739
a(S'1163114612'
S'Avinash Mathews'
tp740
a(S'100005691663009'
S'Ssc Afterhours'
tp741
a(S'511189321'
S'Suraj Kohli'
tp742
a(S'100000967364894'
S'Ankit Bhatia'
tp743
a(S'100001625450248'
S'Nikhil Bajaj'
tp744
a(S'100000554287623'
S'Parth Babbar'
tp745
a(S'100001739210570'
S'Nani Khonkhung'
tp746
a(S'1353750751'
S'Krish Suchak'
tp747
a(S'723754358'
S'Srikanth Raj'
tp748
a(S'100001641886560'
S'Meenu Bharti'
tp749
a(S'514145503'
S'Ahmer Asif'
tp750
a(S'100001119058614'
S'Pulkit Bhuwalka'
tp751
a(S'100001966380416'
S'Dishant Goyal'
tp752
a(S'100000615879029'
S'Utkarsh Bajaj'
tp753
a(S'1085544934'
S'Naresh Patel'
tp754
a(S'1287928352'
S'Kartikeya Naithani'
tp755
a(S'570256342'
S'Zina Bennion'
tp756
a(S'100001480372059'
S'Bhumika Phutela'
tp757
a(S'1524765835'
S'Sameer Gardner'
tp758
a(S'100001777759121'
S'Tanishq Gupta'
tp759
a(S'100000355960880'
S'Arushi Malhotra'
tp760
a(S'100001023265356'
S'Aishwarya Chauhan'
tp761
a(S'100000530987013'
S'Chinmay Agarwal'
tp762
a(S'1797308417'
S'Sahiba Kaur Libra'
tp763
a(S'100000122277724'
S'Tenzin Namgyal'
tp764
a(S'839005719'
S'Abhinav Basu'
tp765
a(S'1206984707'
S'Rahul Sridhar'
tp766
a(S'1403252199'
S'Aditi Ramchandra'
tp767
a(S'100000226771790'
S'Subani Bagga'
tp768
a(S'1060644711'
S'Divesh Bidhuri'
tp769
a(S'100000034651178'
S'Aishwarya Singh'
tp770
a(S'100000078304606'
S'Ananya Bajaj'
tp771
a(S'100001204039996'
S'Mohit Sharma'
tp772
a(S'1189368218'
S'Keshav Mohan'
tp773
a(S'100000210096158'
S'Vivek George Kuriakose'
tp774
a(S'100000183614985'
S'Muzammil Hussain'
tp775
a(S'1269705247'
S'Shashwat Agarwal'
tp776
a(S'1039541617'
S'Snigdh Bhalotia'
tp777
a(S'100000462738327'
S'Krishan Bishnoi'
tp778
a(S'591672152'
S'Anmol Somanchi'
tp779
a(S'1829917936'
S'Raghav Agarwal'
tp780
a(S'1483712304'
S'Aparajit Sahai'
tp781
a(S'100001802552213'
S'Debobrat Buragohain'
tp782
a(S'1535388256'
S'Pavani Khanna'
tp783
a(S'100000106600174'
S'Lawrence Simte'
tp784
a(S'100001577229535'
S'Purna Singh'
tp785
a(S'100001712521470'
S'Hardik Arora'
tp786
a(S'1019804907'
S'Mrittunjoy Guha Majumdar'
tp787
a(S'1341982069'
S'Harshun Tintin Mehta'
tp788
a(S'697584905'
S'Utkarsh Negi'
tp789
a(S'100000536958853'
S'Yuden Bhutia'
tp790
a(S'100002270411937'
S'Rajeev Ghotar'
tp791
a(S'1029525945'
S'Aneesh Sharma'
tp792
a(S'1631795463'
S'Ekta Chauhan'
tp793
a(S'1233096447'
S'Sarthak Agarwal'
tp794
a(S'1837541693'
S'Gopika Singh Ju Dev'
tp795
a(S'100002063255184'
S'Manika Tomar'
tp796
a(S'1143028040'
S'Shalini Chaudhuri'
tp797
a(S'541855173'
S"Shantanu 'sanga' Kamath"
tp798
a(S'865800122'
S'Ishani Kundu'
tp799
a(S'1404453763'
S'Nikhil Kripalani'
tp800
a(S'100000729759879'
S'Jeffrey Mathews'
tp801
a(S'1383967268'
S'Parambir Singh'
tp802
a(S'1465372832'
S'Kabir Upmanyu'
tp803
a(S'723946245'
S'Ayush Chanana'
tp804
a(S'100000588336337'
S'Harsh Pasari'
tp805
a(S'1047719930'
S'Siddharth Khinvasara'
tp806
a(S'100002315815728'
S'Nivedita Sahni'
tp807
a(S'726257424'
S'Shubham Raj'
tp808
a(S'595055754'
S'Uday Singh Sandhu'
tp809
a(S'829779755'
S'Shashvat Dhandhania'
tp810
a(S'528641550'
S'Kunja Shrestha'
tp811
a(S'100002496863468'
S'Dhiren Arora'
tp812
a(S'100001415267958'
S'Karishma Yadav'
tp813
a(S'1838943911'
S'Harman Kour'
tp814
a(S'1104172630'
S'Shubhankar Agrawal'
tp815
a(S'1304817227'
S'\\u092a\\u0943\\u0943\\u092d\\u093e\\u0924 \\u0938\\u093f\\u0902\\u0939 \\u0916\\u0924\\u0930\\u0940'
tp816
a(S'517079900'
S'Roopali Lakhotia'
tp817
a(S'100003273764305'
S'Richa Singh'
tp818
a(S'100002107853169'
S'Gunjan Saha'
tp819
a(S'647584679'
S"Raghav 'Roalts' Apoorv"
tp820
a(S'1532321950'
S'Adita Bhatia'
tp821
a(S'100002644961328'
S'Adnan Farooq'
tp822
a(S'1671807487'
S'Ashwini Biradar'
tp823
a(S'100003382276734'
S'Admission Corner'
tp824
a(S'1103001687'
S'Ajit Deshpande'
tp825
a(S'1668459153'
S'Roy Joseph'
tp826
a(S'582432859'
S'Vijay Vachani'
tp827
a(S'100000676453706'
S'Abhinav Ghai'
tp828
a(S'1269417749'
S'Tanvi Garg'
tp829
a(S'1246068261'
S'Yps \\u00dfoparai'
tp830
a(S'548864788'
S'Aradhana Gupta'
tp831
a(S'752594483'
S'Tushank Jain'
tp832
a(S'1229011380'
S'Param Shah'
tp833
a(S'1168886969'
S'Kartik Sharma'
tp834
a(S'901345493'
S'Manreet Khara'
tp835
a(S'100001236695189'
S'Akshat Singh'
tp836
a(S'561924005'
S'Kenem Saha'
tp837
a(S'100001462665288'
S'Abha Naithani'
tp838
a(S'1108620531'
S'Shivam Saraf'
tp839
a(S'100001925683610'
S'Richard Abraham'
tp840
a(S'528046764'
S'Ayan Mukherjee'
tp841
a(S'557905418'
S'Chhayankdhar Singh Rathore'
tp842
a(S'100000580968956'
S'Devina Juneja'
tp843
a(S'723794081'
S'Ankit Chowdhary'
tp844
a(S'100003065905393'
S'Rajshree Upadhyay'
tp845
a(S'1327905118'
S'Aayushi Bhatia'
tp846
a(S'100000029444410'
S'Aarti Bajaj'
tp847
a(S'873415701'
S'Gautami Mansharamani'
tp848
a(S'1459886001'
S'Saakshar Makhija'
tp849
a(S'100002397203209'
S'Aayush Dahuja'
tp850
a(S'725207396'
S'Somya Batta'
tp851
a(S'1087223640'
S'Rashul Kumar'
tp852
a(S'100002450560047'
S'Orindam Chakraborty'
tp853
a(S'100000993453244'
S'Tarun Bajaj'
tp854
a(S'100004422211369'
S'Kartik Sahni'
tp855
a(S'714193534'
S'Faizal Ansari'
tp856
a(S'710821765'
S'Aflaq Ahmad'
tp857
a(S'100001705728246'
S'Shikhar Kumar'
tp858
a(S'686586471'
S'Manish Awana'
tp859
a(S'100001855784168'
S'Nishtha Sachdeva'
tp860
a(S'100000010498308'
S'Saif Rashid'
tp861
a(S'514881309'
S'Kshitij Goyal'
tp862
a(S'1042319661'
S'Vanshika Agarwal'
tp863
a(S'1670814886'
S'Kriti Rastogi'
tp864
a(S'100006422504386'
S'Sachin Kumar'
tp865
a(S'562730381'
S'Krishnanand Singh'
tp866
a(S'523600817'
S'Bharat Bajaj Radix'
tp867
a(S'702813696'
S'Praharsh Agarwal'
tp868
a(S'1638099715'
S'Anupam Gumber'
tp869
a(S'697584674'
S'Yamir Tainwala'
tp870
a(S'1066263838'
S'Pallavi George'
tp871
a(S'608222635'
S'Kanika Singh'
tp872
a(S'100006650223330'
S'Keara Bakshi'
tp873
a(S'100001161448609'
S'Madhav Khurana'
tp874
a(S'1722259617'
S'Vaishnavi Rathore'
tp875
a(S'100002654809824'
S'Rahul Singh'
tp876
a(S'1704294648'
S'Anil Dahuja'
tp877
a(S'1252762712'
S'Aviral Gupta'
tp878
a(S'100001113884507'
S'Geetesh Khatwani'
tp879
a(S'100001309477447'
S'Rakesh Kumar Pal'
tp880
a(S'1099988389'
S'Dipankar Shakya'
tp881
a(S'1843666885'
S'Punit Agrawal'
tp882
a(S'100000570831734'
S'John Casey'
tp883
a(S'1117315815'
S'Upam Lahkar'
tp884
a(S'522837388'
S'Divij Gupta'
tp885
a(S'627805637'
S'Kunal Khemlani'
tp886
a(S'100000067600638'
S'Mihir Kumar'
tp887
a(S'100003712498606'
S'Dinesh Kakran'
tp888
a(S'1257545732'
S'Kartikey Gupta'
tp889
a(S'1468893879'
S'Aishwarya Agarwal Swarup'
tp890
a(S'100002834811878'
S'Kedarnath Prabhakar'
tp891
a(S'639343096'
S'Kevin Samuel Vineeth'
tp892
a(S'100004040742358'
S'Aditendra Singh Chandel'
tp893
a(S'100002572389930'
S'Dipesh Kapil'
tp894
a(S'100003651605035'
S'Welham Singh'
tp895
a(S'100002111076744'
S'Aman Padha'
tp896
a(S'100001688523883'
S'Vivek Gupta'
tp897
a(S'100000836100942'
S'Dipti Roy'
tp898
a(S'100002426994960'
S'Pranay Saraf'
tp899
a(S'100001115043666'
S'Samiksha Suri'
tp900
a(S'887525583'
S'Ankit Saraf'
tp901
a(S'597207533'
S'Meraj Khan'
tp902
a(S'1668474466'
S'Shreepath Jain'
tp903
a(S'100000153820553'
S'Mayank Sharma'
tp904
a(S'100001281108874'
S'Nitram Tanwar'
tp905
a(S'1666015207'
S'Anshul Pinjani'
tp906
a(S'100001761172180'
S'Farha Khan'
tp907
a(S'1619381703'
S'Sehr Brar'
tp908
a(S'706205041'
S'Spandan Gopal Agrawal'
tp909
a(S'1321244392'
S'Aranya Sahay'
tp910
a(S'1060866657'
S'Hrithik Agarwal'
tp911
a(S'100000785493757'
S'Anshul Kumar Verma'
tp912
a(S'100002268754271'
S'Tanya Chawla'
tp913
a(S'100001434141041'
S'Abhi Kalra'
tp914
a(S'652797650'
S'Aseem Tripathi'
tp915
a(S'1398895205'
S'Gaurav Prasad'
tp916
a(S'100002886663879'
S'Preethish Raja'
tp917
a(S'100000487520943'
S'John Jacob'
tp918
a(S'766830421'
S'Gauri Khanna'
tp919
a(S'626031248'
S'Radhika Agarwal'
tp920
a(S'1212421456'
S'Rahul Rajkhowa'
tp921
a(S'764909766'
S'Mimanshak Sharma'
tp922
a(S'1636691041'
S'Siddhant Kaushik'
tp923
a(S'100000115214448'
S'Jamboree India'
tp924
a(S'100001368110188'
S'Chetan Sahni'
tp925
a(S'1141911360'
S'Robert Lenych'
tp926
a(S'892835373'
S'Arushi Gupta'
tp927
a(S'100001641160459'
S'Sudhanshu Singh Panwar'
tp928
a(S'1347990186'
S'Manish Hazarika'
tp929
a(S'510750056'
S'Aamir Nizam Ansari'
tp930
a(S'100003775470137'
S'Gaurish Kant Shukla'
tp931
a(S'100000519587260'
S'Piyush Khattar'
tp932
a(S'100005438019546'
S'Prashant Arora'
tp933
a(S'888315013'
S'Aniket Nag'
tp934
a(S'1303501491'
S'Divya Murugesan'
tp935
a(S'100003099784334'
S'Shreya Gulati'
tp936
a(S'627265002'
S'Ashutosh Poddar'
tp937
a(S'590322266'
S'Fiza Singh Khurana'
tp938
a(S'100000682004409'
S'Shashank Gupta'
tp939
a(S'733962076'
S'Eby Vincent Mathew'
tp940
a(S'1125994244'
S'Pranav Gupta'
tp941
a(S'100001356895850'
S'Sukanya Kapoor'
tp942
a(S'100000886112592'
S'Akshay Miglani'
tp943
a(S'1060326751'
S'Saneeya Singh'
tp944
a(S'100001552997527'
S'Pradipta De'
tp945
a(S'1329722387'
S'Anmol Singh'
tp946
a(S'1224983889'
S'Tanuj Goenka'
tp947
a(S'100002064622834'
S'Omaar Singh'
tp948
a(S'1640014430'
S'Jagdish Nautiyal'
tp949
a(S'100001040621014'
S'Abhimanyu Dhanda'
tp950
a(S'803745827'
S'Avnika Jain'
tp951
a(S'587258168'
S'Abhik Mukherjee'
tp952
a(S'621668582'
S'Rohit Khurana'
tp953
a(S'100002568625434'
S'Ashish Goenka'
tp954
a(S'100000975346413'
S'Rohan Sharma'
tp955
a(S'1484023393'
S'Abhishek Dahuja'
tp956
a(S'100004989547636'
S'Aanchal Tiwari'
tp957
a(S'714186907'
S'Zayed Zidane'
tp958
a(S'684406938'
S'Akash Godara'
tp959
a(S'1272607240'
S'Soumya Gera'
tp960
a(S'720962433'
S'Tanya Mishra'
tp961
a(S'100004427312850'
S'Sahej Aggarwal'
tp962
a(S'100000944045901'
S'Meet Jain'
tp963
a(S'100000527508697'
S'Naman Gupta'
tp964
a(S'1138943085'
S'Veer Lohan'
tp965
a(S'725821395'
S'Acsah Batra'
tp966
a(S'100003213784537'
S'Aisha Malhotra'
tp967
a(S'1233056350'
S'Vinay Banerjee'
tp968
a(S'1275573973'
S'Priyam Jain'
tp969
a(S'1038540860'
S'Ayush Kaushik'
tp970
a(S'100002909736365'
S'Rahul Vaidya'
tp971
a(S'1268274154'
S'Jaish Singh'
tp972
a(S'625607073'
S'Aashish Panta'
tp973
a(S'684281109'
S'Madhav Sangal'
tp974
a(S'100001241304035'
S'Arun Sharma'
tp975
a(S'600959953'
S'Prakhar Dewaan Dua'
tp976
a(S'100001632962331'
S'Prarthna Taneja'
tp977
a(S'1800221706'
S'Gautam Narang'
tp978
a(S'100000952086128'
S'Jahnavi Taneja'
tp979
a(S'100000553702744'
S'Aryaman Ahuja'
tp980
a(S'629765522'
S'Charles Casey'
tp981
a(S'100001093637987'
S'Maitraiyee Tiwari'
tp982
a(S'510848211'
S'Nishant Joshi'
tp983
a(S'1657419769'
S'Shravan Vij'
tp984
a(S'100002258601868'
S'Karan Singh'
tp985
a(S'100003046195780'
S'Bharti Minocha'
tp986
a(S'100001763028666'
S'Aryan Prasad'
tp987
a(S'100002617851161'
S'Parul Gupta'
tp988
a(S'1647026465'
S'Arpit Khemka'
tp989
a(S'1362807500'
S'Anuroop Sunny'
tp990
a(S'100004511046060'
S'Divya DP Prakash'
tp991
a(S'535880378'
S'Chakshu Sharma'
tp992
a(S'1029456697'
S'Stuti Garg'
tp993
a(S'1534533383'
S'Rajnish Dahuja'
tp994
a(S'508804021'
S'Rashi Choudhari'
tp995
a(S'100005431236970'
S'Ritu Kumar'
tp996
a(S'1048869028'
S'Shaurya Mehta'
tp997
a(S'654496429'
S'Kalyan Siddanna Biradar'
tp998
a(S'100000135778829'
S'Jatin Lamba'
tp999
a(S'761919682'
S'Yuvraj Goswami'
tp1000
a(S'1449547944'
S'Anisha Angelina Victor'
tp1001
a(S'100001407442556'
S'Siddhant Tejasvi Mishra'
tp1002
a(S'1759617989'
S'Ishadrita Lahiri'
tp1003
a(S'1201299484'
S'Sudhir Pratap Singh Charan'
tp1004
a(S'100000260019921'
S'Sahal Masood'
tp1005
a(S'100001427317762'
S'Yash Srivastava'
tp1006
a(S'1504884505'
S'Rishabh Singh'
tp1007
a(S'100001250317264'
S'Vibhu Juneja'
tp1008
a(S'1278381809'
S'Akshay Seth'
tp1009
a(S'707719361'
S'KVanshaj SP Singh J'
tp1010
a(S'1782036405'
S'Sauhardha C. Thakuri'
tp1011
a(S'1804102497'
S'Nitin Malhotra'
tp1012
a(S'1283000518'
S'Akanksha Sethi'
tp1013
a(S'100007985286819'
S'Saloni Grover'
tp1014
a(S'100001295873108'
S'Monica Chawla'
tp1015
a(S'717360939'
S'Riya Saxena'
tp1016
a(S'100007554011919'
S'Joshua Roy'
tp1017
a(S'1444972115'
S'Ajjay Khemka'
tp1018
a(S'1445855368'
S'Kaushik Daga'
tp1019
a(S'100003289807125'
S'Justin Casey'
tp1020
a(S'624145402'
S'Joyeeta Mukherjee'
tp1021
a(S'517895498'
S'Sawan Kukreja'
tp1022
a(S'100000069098863'
S'Cyril Thomas'
tp1023
a(S'100000721176688'
S'Manan Agarwal'
tp1024
a(S'1723476840'
S'Parth Agrawal'
tp1025
a(S'686796315'
S'Adhiraj Kohli'
tp1026
a(S'100004973762680'
S'Abhay Kuksal'
tp1027
a(S'1019568623'
S'Shikhar Goyal'
tp1028
a(S'805943558'
S'Shaadwal Agrawal'
tp1029
a(S'645237474'
S'Bharat Manchanda'
tp1030
asS'id'
p1031
S'548344709'
p1032
s.