(dp1
S'name'
p2
S'Ayesha Shahid'
p3
sS'current_class'
p4
S'united arab emirates'
p5
sS'home_class'
p6
Vdubai - united arab emirates
p7
sS'home_text'
p8
VDubai, United Arab Emirates\u000aHometown
p9
sS'current_link'
p10
Vhttps://www.facebook.com/l.php?u=https%3A%2F%2Fwww.bing.com%2Fmaps%2Fdefault.aspx%3Fv%3D2%26pc%3DFACEBK%26mid%3D8100%26where1%3D31.549700669186%252C%2B74.343109130859%26name%3DLahore%252C%2BPakistan%26mkt%3Den-IN&h=aAQEOkmmA&s=1
p11
sS'home_link'
p12
Vhttps://www.facebook.com/l.php?u=https%3A%2F%2Fwww.bing.com%2Fmaps%2Fdefault.aspx%3Fv%3D2%26pc%3DFACEBK%26mid%3D8100%26where1%3D25.252200685563%252C%2B55.279083251953%26name%3DDubai%252C%2BUnited%2BArab%2BEmirates%26mkt%3Den-IN&h=HAQHkLeOx&s=1
p13
sS'current_text'
p14
VLahore, Pakistan\u000aCurrent City
p15
sS'friends'
p16
(lp17
(S'1064842503'
S'Saman Sardar'
tp18
a(S'100000146594388'
S'Raees Iqbal'
tp19
a(S'711411332'
S'Maryam Majeed'
tp20
a(S'707204810'
S'Sara Adel Ramsis'
tp21
a(S'561496478'
S'Sidra Shahid'
tp22
a(S'809545074'
S'Hafsa Waqar Aziz'
tp23
a(S'1588826049'
S'Kimiko Gyaru'
tp24
a(S'600618526'
S'Sobia Nisar Ahmed'
tp25
a(S'100002704962200'
S'Faizan Ul Haq'
tp26
a(S'557727628'
S'Henna Saeed'
tp27
a(S'717130264'
S'Faeeza Jamil'
tp28
a(S'761715092'
S'Israt Jahan'
tp29
a(S'709965267'
S'Safa Shoaib'
tp30
a(S'100001597722495'
S'Muhammad Abubakar Khan'
tp31
a(S'614286628'
S'Areeb Masood'
tp32
a(S'502122716'
S'Aima Khan'
tp33
a(S'695314290'
S'Hijab Ateeq'
tp34
a(S'539280496'
S'Tooba Akhtar'
tp35
a(S'100001377171227'
S'Saira Shafiq Ammad'
tp36
a(S'584955074'
S'Tuba AJmal'
tp37
a(S'517797510'
S'Saad Zahid'
tp38
a(S'1442514450'
S'Hammad Zahid'
tp39
a(S'719430714'
S'Abeer Mahmood'
tp40
a(S'100000762360769'
S'Seham Ahmad'
tp41
a(S'689911718'
S'Ashii Ez'
tp42
a(S'511854006'
S'Eesha Shamim Shah.'
tp43
a(S'1808777560'
S'Shifa Amina Noor'
tp44
a(S'100005882349590'
S'Sundas Ali'
tp45
a(S'579245978'
S'Bakhtawar Amjad'
tp46
a(S'563098140'
S'Saad Akbar'
tp47
a(S'558956577'
S'Shehani Iqbal'
tp48
a(S'685436286'
S'Afshan Meraj'
tp49
a(S'1109580985'
S'Sardar Ahmed Shah Durrani'
tp50
a(S'526360903'
S'Hamael Akhlaq'
tp51
a(S'100003813542128'
S'Tayyaba Yaseen'
tp52
a(S'903035522'
S'Afeefa Noor'
tp53
a(S'1571289126'
S'Miriam Wirbel-Wind'
tp54
a(S'500907089'
S'Willa Hafeez'
tp55
a(S'1567182224'
S'Saba Rashid'
tp56
a(S'506379531'
S'Zohra Sohail'
tp57
a(S'100001199728126'
S'Samman Iqbal Malik'
tp58
a(S'1556536673'
S'Asif Iqbal'
tp59
a(S'100001740007836'
S'Mariam Rizvi'
tp60
a(S'617837350'
S'Umair Mesiya'
tp61
a(S'590364025'
S'Myrah Nerine Butt'
tp62
a(S'100000309228755'
S'Arfa Siddiqi'
tp63
a(S'566587092'
S'Axa Warraich'
tp64
a(S'100003577519468'
S'Rabiya Javed'
tp65
a(S'809810373'
S'Namrah Khalid'
tp66
a(S'672540343'
S'Jamal Nasir'
tp67
a(S'588060079'
S'Hijab Sheharyar Shah'
tp68
a(S'542731076'
S'Noorain Nazim Mustafa'
tp69
a(S'534900458'
S'Sana Qureshi'
tp70
a(S'535850261'
S'Shanel Khaliq'
tp71
a(S'100001839557074'
S'Rafia Murtaza'
tp72
a(S'582861605'
S'Mashal Imran'
tp73
a(S'1261148837'
S'Muhammad Saad'
tp74
a(S'100002106714260'
S'Imaan Gazi'
tp75
a(S'668565393'
S'Sara Tahir'
tp76
a(S'100003368869964'
S'Sahar Zahed'
tp77
a(S'772875312'
S'Abbas Shahid'
tp78
a(S'100003539184930'
S'Zariya Mushtaq'
tp79
a(S'598985511'
S'Ayesha Zahid'
tp80
a(S'660166022'
S'Alea Mrza'
tp81
a(S'727931147'
S'Faiza Rehman'
tp82
a(S'577370626'
S'Farwa Rehman Shaikh'
tp83
a(S'581468001'
S'Aqsa Khan'
tp84
a(S'570063054'
S'Samreen Ashfaque Merchant'
tp85
a(S'1293303387'
S'Sarah Janjua'
tp86
a(S'1353181788'
S'Rubbia Shahbaz'
tp87
a(S'756990223'
S'Mahvish Haris'
tp88
a(S'878670620'
S'Sadia Anwar'
tp89
a(S'826765264'
S'Kalsoom Shahid'
tp90
a(S'526988478'
S'Sabeeh Yunus'
tp91
a(S'505284022'
S'Aliyah Khoja'
tp92
a(S'1126221554'
S'Brayshna Khan'
tp93
a(S'100000102480781'
S'Yusra Akhtar'
tp94
a(S'514834623'
S'Fathima Sumaiyah Firzan'
tp95
a(S'505856322'
S'Aisha Tariq'
tp96
a(S'872250541'
S'Ashti Nisar'
tp97
a(S'527420789'
S'Aliya Jafri'
tp98
a(S'1430183934'
S'Alina Nadeem'
tp99
a(S'100000740949833'
S'Maryam Hameed'
tp100
a(S'862925382'
S'Anushe Aly'
tp101
a(S'100000723662721'
S'Amna Rana'
tp102
a(S'502521946'
S'Zara Imran Dhalla'
tp103
a(S'790075385'
S'Fatima Bilquis'
tp104
a(S'606620018'
S'Madiha Najib'
tp105
a(S'746686394'
S'Mahnoor Khan'
tp106
a(S'596010532'
S'Shaima Rizvi'
tp107
a(S'100000135960845'
S'Amna Naeem'
tp108
a(S'512544661'
S'Abdulla Wasti'
tp109
a(S'1358948084'
S'Ovais Siddiqui'
tp110
a(S'533160095'
S'Hafsa Iqbal'
tp111
a(S'502638797'
S'Fatema Huseinali'
tp112
a(S'735253601'
S'Maham Saleem'
tp113
a(S'100001859337569'
S'Dilawaiz Khawer'
tp114
a(S'738849111'
S'Saniya M. Ali'
tp115
a(S'100000289472616'
S'Quratulain Zahid Sheikh'
tp116
a(S'535850012'
S'Maha Siddiqui'
tp117
a(S'633138901'
S'Sobia Shahid'
tp118
a(S'100000168832933'
S'Haris Bilal'
tp119
a(S'666934913'
S'Zulekha Ahmed'
tp120
a(S'740039108'
S'Reem Amin Ul Haq'
tp121
a(S'1714521599'
S'Ali Shan'
tp122
a(S'100001442984528'
S'Maryam Kamal'
tp123
a(S'1166218454'
S'Usaid Mandvia'
tp124
a(S'617575202'
S'Queenie C Fernandes'
tp125
a(S'827145583'
S'Anood Ali'
tp126
a(S'1456481443'
S'Taimoor Shafiq'
tp127
a(S'1021965541'
S'Aisha Amtul'
tp128
a(S'684927162'
S'Sheharyar Ahmed Shoaib'
tp129
a(S'100001655257904'
S'Sumbal Rz'
tp130
a(S'657863173'
S'Ayesha Javed Naushahi'
tp131
a(S'600950233'
S'Safia Khalid'
tp132
a(S'646560046'
S'Shahid Mahmood'
tp133
a(S'504655529'
S'Fatima Hasan'
tp134
a(S'1610802675'
S'Hananiah Beatrice'
tp135
a(S'646913108'
S'Aala Farooq'
tp136
a(S'504558159'
S'Fatima Sohaib'
tp137
a(S'516678974'
S'Nashmia Rashid Siddiqui'
tp138
a(S'557425087'
S'Ilma Qureshi'
tp139
a(S'598098284'
S'Parsa Salman'
tp140
a(S'622993101'
S'Ayesha Fayyaz'
tp141
a(S'651413608'
S'Ayla Amyr'
tp142
a(S'749695695'
S'Usama Javed Mirza'
tp143
a(S'560150596'
S'Farhat Hasnat'
tp144
a(S'586348680'
S'Pharan Tanveer'
tp145
a(S'1353435660'
S'Mahsa Cheema'
tp146
a(S'763735625'
S'Haris Nadeem'
tp147
a(S'604860040'
S'Zara Motiwala'
tp148
a(S'779154742'
S'Sara Aziz'
tp149
a(S'100000101114657'
S'Maryam Saba'
tp150
a(S'546540206'
S'Nadia Rehman'
tp151
a(S'635450469'
S'Zulekha Tabani'
tp152
a(S'798579465'
S'Sidra Ahmad'
tp153
a(S'100000097922082'
S'Khushbakht Fatima Jamal'
tp154
a(S'901155289'
S'Sarah Agha'
tp155
a(S'586172129'
S'Nameer Jamillee'
tp156
a(S'622985474'
S'Sana Zahoor'
tp157
a(S'574705280'
S'Rabia Irfan'
tp158
a(S'1052611030'
S'Hareem Aziz'
tp159
a(S'550695312'
S'Amal Hamid'
tp160
a(S'596400610'
S'Fatima Mannan'
tp161
a(S'618146211'
S'Umair Samee'
tp162
a(S'510801287'
S'Anam Salim'
tp163
a(S'536310080'
S'Saleha Ali Mir'
tp164
a(S'100001369791712'
S'Anum Akbar'
tp165
a(S'583725785'
S'Tabish Jaleel Shaikh'
tp166
a(S'515719256'
S'Khadeeja Nanji'
tp167
a(S'1445658937'
S'Minahil Khurshid Zafar'
tp168
a(S'553577906'
S'Abeera Akhtar'
tp169
a(S'1646887768'
S'Yasser Shafqat'
tp170
a(S'673700653'
S'Ayza Abid'
tp171
a(S'678775919'
S'Hamza Khan'
tp172
a(S'819105513'
S'Hina Waseem'
tp173
a(S'1188815038'
S'Omer Imran Malik'
tp174
a(S'500446564'
S'Rania Ahmed'
tp175
a(S'100000875131452'
S'Khawla Mahmood'
tp176
a(S'505374264'
S'Wardeh Tariq'
tp177
a(S'728726401'
S'Berjees Shaikh'
tp178
a(S'1477211119'
S'Sanaa Rafique'
tp179
a(S'574715515'
S'Rabab Zaka'
tp180
a(S'535454726'
S'Marwah Maqbool'
tp181
a(S'1302211700'
S'Maheen Shakeel'
tp182
a(S'833545526'
S'Zainab Vohra'
tp183
a(S'518221220'
S'Yasal Munim'
tp184
a(S'792634913'
S'Azm Z Sahni'
tp185
a(S'717045593'
S'Saakshi Jham'
tp186
a(S'1513143740'
S'Umer Fayyaz'
tp187
a(S'525586938'
S'Sana Azmat'
tp188
a(S'100002812483508'
S'Zeyna Soomro'
tp189
a(S'689645637'
S'Dania Nadeem Khawaja'
tp190
a(S'1411200235'
S'Zara Durrani'
tp191
a(S'541553331'
S'Sabira Manji'
tp192
a(S'836723901'
S'Sidrah Shaffi'
tp193
a(S'204506471'
S'Sinan Malik'
tp194
a(S'1219138421'
S'Saniya Farooqi'
tp195
a(S'100003265017131'
S'Sofia Javed'
tp196
a(S'1645208921'
S'Sidra Tariq'
tp197
a(S'505257008'
S'Tooba Imtiaz'
tp198
a(S'586060112'
S'Najah Fayyaz'
tp199
a(S'601280290'
S'Kanika Taurani'
tp200
a(S'506981757'
S'Asmaa Shahid'
tp201
a(S'575658515'
S'Iman Irfan'
tp202
a(S'100000686799071'
S'Shahnaz Yousaf Zahid'
tp203
a(S'100000705015762'
S'Mehak Khan'
tp204
a(S'100001717147009'
S'Sadia Sohail'
tp205
a(S'550040930'
S'Talha Dogar'
tp206
a(S'504858868'
S'Uzma Jamal Syed'
tp207
a(S'532613756'
S'Aina Hafeez'
tp208
a(S'1524890935'
S'Khalid Butt'
tp209
a(S'1265487784'
S'Abdul Azeem'
tp210
a(S'752290497'
S'Mehreen Khan'
tp211
a(S'734421827'
S'Florent Arjol Cond\\u00e9'
tp212
a(S'514979786'
S'Faria Tariq'
tp213
a(S'806770390'
S'Ritika Moolchandani'
tp214
a(S'508739910'
S'Arubah Nadeem'
tp215
a(S'516881840'
S'DNice Ahmed'
tp216
a(S'100002446020956'
S'Israa Shahid'
tp217
a(S'608501095'
S'Unzila Arif'
tp218
a(S'514200426'
S'Hareem Kapadia'
tp219
a(S'100000306250407'
S'Fatima Sohail'
tp220
a(S'1232950239'
S'Zeeshan Javaid'
tp221
a(S'617282024'
S'Tooba Fatima Husain'
tp222
a(S'100001894655981'
S'Marium Raza'
tp223
a(S'711677649'
S'Jamal Javaid'
tp224
a(S'1789385800'
S'Quratulain Hamid'
tp225
a(S'1254060751'
S'Fardad Baig'
tp226
a(S'706442751'
S'Syed Taha Zia'
tp227
a(S'612922018'
S'Heena Khalid'
tp228
a(S'571673477'
S'Malika Shahbaz'
tp229
a(S'894905091'
S'Noor Muhammad Hassan'
tp230
a(S'628821412'
S'Dilumi Dissanayake'
tp231
a(S'100000956024718'
S'Zara Ashfaq'
tp232
a(S'881445651'
S'Mehjabeen Zameer'
tp233
a(S'509665647'
S'Anushka Pinto'
tp234
a(S'1329903349'
S'Sana Kara'
tp235
a(S'613891272'
S'Faiqah Izhar'
tp236
a(S'100002536471927'
S'Umaiya Zahid Sheikh'
tp237
a(S'515856199'
S'Rania Nasir'
tp238
a(S'1032685029'
S'Rubab Naziri'
tp239
a(S'521877673'
S'Huda Wajih'
tp240
a(S'1821825792'
S'Moid Shaikh'
tp241
a(S'653577883'
S'Muneera Millwala'
tp242
a(S'546966700'
S'Arwaa Awan'
tp243
a(S'100000200124443'
S'Saqib Mushtaq'
tp244
a(S'862675273'
S'Rida J. Iqbal'
tp245
a(S'829965643'
S'Zuha Agha'
tp246
a(S'504878409'
S'Javeria Khalid'
tp247
a(S'546233474'
S'Faiza Aziz'
tp248
a(S'748670219'
S'Alishba Nadeem'
tp249
a(S'508552165'
S'Sheena Cordeiro'
tp250
a(S'752302737'
S'Saba Abbas'
tp251
a(S'561526675'
S'Iqra Akmal'
tp252
a(S'1357288461'
S'Fatima Merchant'
tp253
a(S'1155005975'
S'Nadeem Ul Haq'
tp254
a(S'1823133569'
S'Fiaz Ahmed'
tp255
a(S'545267232'
S'Jayyeda Taimoor'
tp256
a(S'583126353'
S'Hafsa Gohar'
tp257
a(S'576725363'
S'Sidra Jafri'
tp258
a(S'100000184031550'
S'Aneeqa Mazhar Wattoo'
tp259
a(S'1158548181'
S'Tuba Ilahi'
tp260
a(S'100000949708428'
S'Norin Yasin Chaudhry'
tp261
a(S'633600366'
S'Khawaja Fahd'
tp262
a(S'1005663906'
S'Saad Tabani'
tp263
a(S'658521803'
S'Lareb Sabir Ahmed'
tp264
a(S'100000127489940'
S'Saleh Mirza'
tp265
a(S'582626836'
S'Aysha Ather'
tp266
a(S'100000097410151'
S'Mishaz Khawaja'
tp267
a(S'517147718'
S'Hisham Haq'
tp268
a(S'28133344'
S'Shazmeen Khan'
tp269
a(S'757227517'
S'Palvasha Shahab'
tp270
a(S'525285456'
S'Heer Ayoub Shaikh'
tp271
a(S'555035984'
S'Hira Ahmed'
tp272
a(S'561996671'
S'Zuha Siddiqui'
tp273
a(S'719915448'
S'Samaa Mufti'
tp274
a(S'531725693'
S'Amn Rahman'
tp275
a(S'100003161149219'
S'Sara Jamil'
tp276
a(S'755647766'
S'Eliya Syed'
tp277
a(S'879455715'
S'Sariya Arika'
tp278
a(S'100002588367681'
S'Maheen Malik'
tp279
a(S'1273168278'
S'Maria Raza'
tp280
a(S'654845654'
S'Sughra Shah Bukhari'
tp281
a(S'100001588031632'
S'Dilawaiz Khawer'
tp282
a(S'803650513'
S'Murtaza Abbas'
tp283
a(S'664352412'
S'Saquiba Aziz'
tp284
a(S'791125111'
S'Zehbiyah Motiwala'
tp285
a(S'900675264'
S'Fatima Javed'
tp286
a(S'721000236'
S'Upasana Bhatia'
tp287
a(S'575698257'
S'Halima Butt'
tp288
a(S'100001258000265'
S'Eesha Shah'
tp289
a(S'1558274297'
S'Sanniiyah Ias'
tp290
a(S'1051241388'
S'Saleha Riaz'
tp291
a(S'515178260'
S'Sana Baig'
tp292
a(S'100001696639441'
S'Saquiba Azam'
tp293
a(S'781255321'
S'Tooba Jawwad'
tp294
a(S'100000413063022'
S'Hina Dattoo'
tp295
a(S'219801163'
S'Aisha Qureshi'
tp296
a(S'541190432'
S'Maria Hashmi'
tp297
a(S'1475551834'
S'Sarah Malik'
tp298
a(S'1705047589'
S'Lamia Chowdhury'
tp299
a(S'700645659'
S'Fatima Najeeb'
tp300
a(S'1378449628'
S'Noor Jahan'
tp301
a(S'1245430425'
S'Munira Morani'
tp302
a(S'100000891588773'
S'Tayyaba Ashraf'
tp303
a(S'549320209'
S'Sumeira Zahoor'
tp304
a(S'624406823'
S'Ahmed Saigol'
tp305
a(S'809293753'
S'NoorusSubah Hassan'
tp306
a(S'610340466'
S'Farwah Shariff'
tp307
a(S'100001539593868'
S'Saleha Khan'
tp308
a(S'507156429'
S'Amina Raza'
tp309
a(S'756065343'
S'Sharmeen Suleman Rupani'
tp310
a(S'100007390744613'
S'Fatima Khawaja'
tp311
a(S'533780356'
S'Mirna Wasef'
tp312
a(S'1255159523'
S'Ayesha Abid'
tp313
a(S'687513847'
S'Namwar Yusuf Rahman'
tp314
a(S'1441699815'
S'Tooba Rashid'
tp315
a(S'633000957'
S'Aimen Imtiaz'
tp316
a(S'600585596'
S'Manahil Mansoor'
tp317
a(S'100000110418624'
S'Sana Warraich'
tp318
a(S'586096406'
S'Ayesha Jamal'
tp319
a(S'1595448468'
S'Bushra Shahid'
tp320
a(S'1010861799'
S'Saman Imtiaz'
tp321
a(S'1529463216'
S'Mahrokh Humayun'
tp322
a(S'881185370'
S'Unaiza Khan'
tp323
a(S'100002379444958'
S'Iman Baldiwala'
tp324
a(S'527470456'
S'Abeer Nazim'
tp325
a(S'517497948'
S'Masooma Raza'
tp326
a(S'774470127'
S'Uzair Latif'
tp327
a(S'599075082'
S'Hasnain Akber'
tp328
a(S'100000154355619'
S'Wajih Ul Haq'
tp329
a(S'1523314517'
S'Marrium Rauf'
tp330
a(S'542171479'
S'Ayesha Majid'
tp331
a(S'1218237445'
S'Malik Amin'
tp332
a(S'691204514'
S'Abeera Shahid'
tp333
a(S'530453985'
S'Aisha Hamid'
tp334
a(S'578180441'
S'Ahmed Zafar'
tp335
a(S'549752921'
S'Bushra Ali'
tp336
a(S'730260166'
S"Kim D'Souza"
tp337
a(S'1501944623'
S'Emel Akber Ozgen'
tp338
a(S'100001405572990'
S'Sanaa Sheikh'
tp339
a(S'100000128416917'
S'Arslan Yousaf'
tp340
a(S'510706758'
S'Rabya Pirzada'
tp341
a(S'588514038'
S'Humayun Ansari'
tp342
a(S'535211883'
S'Madiha Reyaz'
tp343
a(S'1514856848'
S'Sarah Feroze Mansoor'
tp344
a(S'773093218'
S'Fatima A. Najmi'
tp345
a(S'1107690425'
S'Rabie Iqbal'
tp346
a(S'646464050'
S'Laila Durrani'
tp347
a(S'841365281'
S'Shehara Marianne David'
tp348
a(S'605769941'
S'Kritika Rajwani'
tp349
a(S'513912698'
S'Sara Shahid'
tp350
a(S'1268574762'
S'Pizwak Imtiaz'
tp351
a(S'617435975'
S'Ayesha Tariq'
tp352
a(S'1177474233'
S'Sabika Abbas'
tp353
a(S'100000876904238'
S'Neena Nizar'
tp354
a(S'1097321080'
S'Sameed Khan'
tp355
a(S'693192120'
S'Shaharbano Raza Kazmi'
tp356
a(S'586668470'
S'Amara F. Aftab'
tp357
a(S'660437692'
S'Aamna Nazir'
tp358
a(S'533981393'
S'Shameen Elahi'
tp359
a(S'100000161902946'
S'Wajih Naveed'
tp360
a(S'1566760667'
S'Sibtay Hasan Hyder'
tp361
a(S'600740113'
S'Tuba Moin'
tp362
a(S'581440307'
S'Rida Hameed'
tp363
a(S'100005028274350'
S'Hina Bandealy'
tp364
a(S'1346301143'
S'Arsalan Gohar'
tp365
a(S'521980300'
S'Ayza Bukhari'
tp366
a(S'757620150'
S'Maryam Mazher'
tp367
a(S'100001667085542'
S'Mahnoor Fatima'
tp368
a(S'575000560'
S'Mariam Naqvi'
tp369
a(S'1348724270'
S'Xinghua Xu'
tp370
a(S'715775306'
S"Joshua Royston D'souza"
tp371
a(S'616595533'
S'Hina Sheikh'
tp372
a(S'732517584'
S'Alishba Kanwal'
tp373
a(S'505474038'
S'Danish Ali Latif'
tp374
a(S'100000163396000'
S'Huma Batool'
tp375
a(S'1176806706'
S'Muhammad Zulnoorain'
tp376
a(S'1026405786'
S'Maheen Javaid'
tp377
a(S'510568240'
S'Mehreen Seher Hai'
tp378
a(S'517537038'
S'Fariha M. Khan'
tp379
a(S'508098372'
S'Amna Sajjad'
tp380
a(S'742800281'
S'Mina Niazi'
tp381
a(S'1807678187'
S'Bilal Khan Rx'
tp382
a(S'1313084413'
S'Mahima Raju'
tp383
a(S'100003901916127'
S'Veda Riaz Fatmy'
tp384
a(S'588785725'
S'Rabia Sohag'
tp385
a(S'100001259523210'
S'Huda Imtiaz'
tp386
a(S'530676192'
S'Miral Sharif'
tp387
a(S'519740987'
S'Bushra Shehzad'
tp388
a(S'100002640647280'
S'Maham Sajid'
tp389
a(S'585160026'
S'Furrukh Khan'
tp390
a(S'551990594'
S'Mahira Maniar'
tp391
a(S'598036494'
S'Saman Amir'
tp392
a(S'604896070'
S'Yumna Pervaiz'
tp393
a(S'100002854151461'
S'Javeria Atif'
tp394
a(S'37008432'
S'Momina A'
tp395
a(S'694845724'
S'Ayesha Khurshid'
tp396
a(S'1285650224'
S'Ilham \\u0644\\u0648\\u0644\\u0648 Fatima'
tp397
a(S'551370172'
S'Anum Niaz'
tp398
a(S'100000945361071'
S'Mehrunisa Riaz'
tp399
a(S'594018650'
S'Sadaf Waqar'
tp400
a(S'597648917'
S'Maryam Tanveer'
tp401
a(S'517358735'
S'Umna Salim'
tp402
a(S'100000584923632'
S'Usama Nasir'
tp403
a(S'549575319'
S'Omoshiroi Gul'
tp404
a(S'575420210'
S'Saman Zaka'
tp405
a(S'512063058'
S'Murtaza Mazher'
tp406
a(S'597180732'
S'Tayeba Batool'
tp407
a(S'100001581579641'
S'Sarah A. Charania'
tp408
a(S'741020346'
S'Maria Lutfullah'
tp409
a(S'706140952'
S'Rebbia Shahab Siddiqui'
tp410
a(S'519055444'
S'Fatima Tariq'
tp411
a(S'501440817'
S'Zainab Moulvi'
tp412
a(S'1325075782'
S'Fadia Hayee'
tp413
a(S'539580388'
S'Kiran Nadeem'
tp414
a(S'100003626661307'
S'Saad Sohail'
tp415
a(S'834540400'
S'Hussam Masood'
tp416
a(S'100000576462827'
S'Marhaba Nemat'
tp417
a(S'100000265615048'
S'Sara Mashadi'
tp418
a(S'526087605'
S'Khadija Rashid'
tp419
a(S'603380150'
S'Farwa Fatima'
tp420
a(S'515736846'
S'Maimana Khattak'
tp421
a(S'100004800940668'
S'Faizan Ulhaq'
tp422
a(S'552165796'
S'Hira Bilal'
tp423
a(S'581296347'
S'Jawaria Saif'
tp424
a(S'100001177274972'
S'Ahsan Ahmad'
tp425
a(S'733797096'
S'Khadijah Nadeem'
tp426
a(S'100002222232925'
S'Haseeba Shoaib'
tp427
a(S'1475836440'
S'Uroosa Fatima'
tp428
a(S'597140692'
S'Sheerin N.A'
tp429
a(S'735259873'
S'Maniha Hashmi'
tp430
a(S'1489797785'
S'Syed Emmad'
tp431
a(S'727920242'
S'Maryam Raza'
tp432
a(S'1802886949'
S'Anila Abbas'
tp433
a(S'688567611'
S'Shaheer Tariq'
tp434
a(S'566242470'
S'Muhammad Ahmad'
tp435
a(S'1201568794'
S'Haniya A. Khan'
tp436
a(S'785505494'
S'Jeane Benny'
tp437
a(S'1049527357'
S'Sherman Dougherty'
tp438
a(S'652061470'
S'Aroosha Ahmad'
tp439
a(S'599510181'
S'Mariya Umer'
tp440
a(S'570737664'
S'Naima Khawar'
tp441
a(S'100001418485459'
S'Zainab Shumail'
tp442
a(S'1288775800'
S'Saha Khan'
tp443
a(S'895360206'
S'Beverly Aranjo'
tp444
a(S'522673254'
S'Mavra Zehra'
tp445
a(S'100001250418176'
S'Sahar Javed'
tp446
a(S'624027323'
S'Zara Khn'
tp447
a(S'641421392'
S'Noor Ul Ain Bilal'
tp448
a(S'537486556'
S'Amna Aslam'
tp449
a(S'100002568658475'
S'Maryam Khan'
tp450
a(S'530420250'
S'Abeer Abid'
tp451
a(S'515768010'
S'Fatima Ahmed'
tp452
a(S'772290433'
S'Rehab Person Thingy'
tp453
a(S'100001623817631'
S'Hufsa Faisal'
tp454
a(S'800768076'
S'Nida Saif'
tp455
a(S'100001401293886'
S'Aiza Ather'
tp456
a(S'509086155'
S'Suniya Aizaz'
tp457
a(S'516638880'
S'Zahra Seamus G'
tp458
a(S'672281460'
S'Minuri Silva'
tp459
a(S'100004004705935'
S'Muhammad Sohail Aslam'
tp460
a(S'508534533'
S'Sidra Danish'
tp461
a(S'500518360'
S'Sundus Naeem Siddiqi'
tp462
a(S'556375119'
S'Zahra Juma'
tp463
a(S'524280449'
S'Mahrukh Khan'
tp464
a(S'737425416'
S'Alizay Salim'
tp465
a(S'100000405047150'
S'Hasham Khan'
tp466
a(S'516581957'
S'Ayan Azmat'
tp467
asS'id'
p468
S'555231690'
p469
s.