(dp1
S'friends'
p2
(lp3
(S'100001640150793'
S'Amit Upadhyay'
tp4
a(S'100000564912899'
S'Kaushal N Mishra'
tp5
a(S'1584507288'
S'Harish Pandey'
tp6
a(S'1523304641'
S'Peeyoosh Kalra'
tp7
a(S'100000173830287'
S'Halwasia Sk'
tp8
a(S'100000142424586'
S'Sourav Das'
tp9
a(S'100003284844936'
S'Bjp Delhi Suppoters'
tp10
a(S'533315543'
S'Soumya Bhaumik'
tp11
a(S'608125571'
S'Abhishek Krishna'
tp12
a(S'100002168080571'
S'Rajesh Bhatia'
tp13
a(S'1350007513'
S'Ravi Kant'
tp14
a(S'100000608854008'
S'Sharma Sunny'
tp15
a(S'100001615269471'
S'Priyambica Jha'
tp16
a(S'1412360810'
S'Durgesh Singh'
tp17
a(S'1791208354'
S'Vivek Tomar'
tp18
a(S'100002221048468'
S'Abhay Verma'
tp19
a(S'1466731815'
S'B-Lawyer Ejaz Naqvi'
tp20
a(S'100000707115898'
S'Raj Srot'
tp21
a(S'100001323438672'
S'Chandan Mishra'
tp22
a(S'548537121'
S'Mrinnal Madhav'
tp23
a(S'1286477354'
S'Rajat Garg'
tp24
a(S'100000757627830'
S'Dilip Singh'
tp25
a(S'812595018'
S'Abhimanyu Singh Rana'
tp26
a(S'100000890322226'
S'Ram Awadh Yadav'
tp27
a(S'100000446894044'
S'Kamran Malik'
tp28
a(S'100000687852619'
S'Shailendra Tiwary'
tp29
a(S'100002439890431'
S'\\u092d\\u094d\\u0930\\u0938\\u094d\\u091f\\u093e\\u091a\\u093e\\u0930 \\u0935\\u093f\\u0930\\u094b\\u0927\\u0940 \\u092e\\u094b\\u0930\\u094d\\u091a\\u093e'
tp30
a(S'100002077417043'
S'Rameshwar Parkash'
tp31
a(S'100002553934385'
S'Ashwani Tanwar'
tp32
a(S'1129773306'
p33
S'Syed Hamid Ali'
tp34
a(S'1041311047'
S'Rajesh Srivastava'
tp35
a(S'1536511839'
S'Harish Katyal'
tp36
a(S'702091520'
S'Dilip Joshi'
tp37
a(S'1328559306'
S'Rajeev Gupta'
tp38
a(S'1664667595'
S'Sandeep Sehrawat'
tp39
a(S'1519910866'
S'Yogesh Saxena'
tp40
a(S'561211677'
S'Vikramjit Banerjee'
tp41
a(S'1436537863'
S'Sanjay Saini'
tp42
a(S'635215640'
S'Amit Gaurav'
tp43
a(S'100000482708666'
S'Brij Mohan'
tp44
a(S'680390839'
S'Debojit Borkakati'
tp45
a(S'699610514'
p46
S'Prerna Kohli'
tp47
a(S'590040676'
S'Gautam Talukdar'
tp48
a(S'100002044545239'
S'Book Reader'
tp49
a(S'100002051558485'
S'Mirtunjay Kumar'
tp50
a(S'664284272'
S'Dinesh Parikh'
tp51
a(S'1341596720'
S'Ashok K. Singh'
tp52
a(S'752273796'
S'RP Singh'
tp53
a(S'1492549768'
S'Ashish Arya Azad'
tp54
a(S'100001232326688'
S'Rajat Sharma'
tp55
a(S'100001655234261'
S'Janardan Mishra'
tp56
a(S'1426674223'
S'Raghvendra Jha'
tp57
a(S'100000555669805'
S'Sandeep Shakti'
tp58
a(S'100001603591229'
S'Praveen Jain'
tp59
a(S'100000774831956'
S'Atul Pandey'
tp60
a(S'1133355397'
S'Jatin Dhawan'
tp61
a(S'100000745137259'
S'Jagdish Roy Parashar'
tp62
a(S'508980164'
S'Sarthak Chaturvedi'
tp63
a(S'100001679434001'
S'Prashant A S Srivastava'
tp64
a(S'100001998606309'
S'Madhusudan Singh'
tp65
a(S'100000041869366'
S'Athar Alam'
tp66
a(S'1680517424'
S'Girish Juyal'
tp67
a(S'507663259'
S'Kartik Seth'
tp68
a(S'100002024432463'
S'Vivek Kumar'
tp69
a(S'1680056837'
S'Ashok Shantilal Raval'
tp70
a(S'1205273794'
S'Deepak Sharma'
tp71
a(S'100001938789390'
S'\\u0938\\u091a\\u093f\\u0928 \\u0915\\u0902\\u0938\\u0932'
tp72
a(S'100001236111021'
S'Vikram Chhimpa'
tp73
a(S'100001710415804'
S'Sanjeev Nayak'
tp74
a(S'1564249025'
S'Kalyan Dutt'
tp75
a(S'527287218'
S'Apoorv Karmakar'
tp76
a(S'100002555872378'
S'Kanchan Sharma'
tp77
a(S'100000835429453'
S'Shabnam Khan'
tp78
a(S'593239672'
p79
S'Pranay Nath Lekhi'
tp80
a(S'100001234421880'
S'Gaurav Bhandari'
tp81
a(S'751970342'
S'Jemin Panchal'
tp82
a(S'100001815636334'
S'Ajitabh Ranjan'
tp83
a(S'1613293480'
S'Aditya Dubey'
tp84
a(S'100001072124098'
S'Sham Zanzad'
tp85
a(S'100000566990853'
S'Narender Sharma'
tp86
a(S'751465718'
S'Vivek Goyal'
tp87
a(S'707675148'
S'Gaurav Kochhar'
tp88
a(S'1368961092'
S'Amit Kumar'
tp89
a(S'100000854825581'
S'Rajdipa Behura'
tp90
a(S'582072812'
S'Aditya Pratap Singh'
tp91
a(S'100000114802418'
S'\\u0928\\u0930\\u0947\\u0936 \\u0906\\u0930\\u094d\\u092f'
tp92
a(S'571107408'
S'Adv George Giri'
tp93
a(S'100000165305584'
S'Arun Sood'
tp94
a(S'1773745977'
S'Meena Das Narayan'
tp95
a(S'100002791591321'
S'Anil Bhatt'
tp96
a(S'100001753834756'
S'Madhur Lavania'
tp97
a(S'100000714443417'
S'Sachin Patel'
tp98
a(S'100002951384344'
S'Manoj Kumar Bairwa'
tp99
a(S'743031517'
S'Ritika Narain Singh'
tp100
a(S'100000018228367'
S'Mukesh Anand'
tp101
a(S'100001101466582'
S'Reena Singh'
tp102
a(S'1590421061'
S'Umesh Pratap Singh'
tp103
a(S'1178554127'
S'Manish Mohan'
tp104
a(S'100002719946370'
S'Adv Sarita Chandel'
tp105
a(S'100001670282159'
S'Satish Chandra Mishra'
tp106
a(S'100001656947372'
S'Gaurav Jain'
tp107
a(S'100002113037014'
S'AdvocateMeraz Shaikh'
tp108
a(S'1118013566'
S'Dipesh Dwivedi'
tp109
a(S'100001262963205'
S'Atul Kumar'
tp110
a(S'100001573696567'
S'\\u092d\\u094d\\u0930\\u0938\\u094d\\u091f\\u093e\\u091a\\u093e\\u0930 \\u0935\\u093f\\u0930\\u094b\\u0927\\u0940 \\u092e\\u094b\\u0930\\u094d\\u091a\\u093e'
tp111
a(S'1416993583'
S'Sambit Swaraj'
tp112
a(S'608350731'
S'Kumar Onkareshwar'
tp113
a(S'1070361319'
S'Nandini Chatterjee'
tp114
a(S'100001458694892'
S'Alka Tiwari'
tp115
a(S'100000215694709'
S'Harsh Vardhan'
tp116
a(S'100000010576152'
S'Surabhi Aggarwal'
tp117
a(S'100002003634962'
S'Adv K R Anand'
tp118
a(S'743580249'
S'Ranjana Kumari'
tp119
a(S'100001021260098'
S'Gunjan Bharti'
tp120
a(S'100000020464432'
S'Harbansh Kumar Chaturvedi'
tp121
a(S'1008731071'
S'Abhijit Das'
tp122
a(S'100002928023681'
S'Rajnish Banga'
tp123
a(S'100001820611120'
S'Raja Nambiar'
tp124
a(S'1028081511'
S'Satyapriya Shilpi'
tp125
a(S'100002267753279'
S'Anil Dubey'
tp126
asS'id'
p127
S'557714038'
p128
sS'name'
p129
S'Meenakashi Lekhi'
p130
s.