(dp1
S'friends'
p2
(lp3
(S'695715039'
S'Nirvan Athreya'
tp4
a(S'737736522'
S'Mrinalini Ray'
tp5
a(S'624830593'
S'Gayatri de Souza'
tp6
a(S'809487411'
p7
S'Rebecca Sarah John'
tp8
a(S'100000440809551'
S'Thinlay Ongmu'
tp9
a(S'557905418'
p10
S'Chhayankdhar Singh Rathore'
tp11
a(S'1012303935'
S'Ahir Gupta'
tp12
a(S'567710044'
p13
S'Rhea Mathews'
tp14
a(S'1524765835'
p15
S'Sameer Gardner'
tp16
a(S'597933121'
p17
S'Abel Thayil'
tp18
a(S'685992100'
S'Raghu Kesavan'
tp19
a(S'591825224'
S'Srikant Mohan'
tp20
a(S'100003959722031'
p21
S'Ashvatth Verma'
tp22
a(S'752989604'
S'Pranshu Rathee'
tp23
a(S'660996182'
S'Yohann Aurora'
tp24
a(S'566778114'
S'Devangana Tikku'
tp25
a(S'605635728'
p26
S'Kankana Basu'
tp27
a(S'501570674'
S'Ishaan Singh'
tp28
a(S'706535631'
p29
S'Pooja Anna Pant'
tp30
a(S'1218263786'
S'Urvi Vora'
tp31
a(S'620330685'
S'Tarishi Sharma'
tp32
a(S'561191889'
S'Naomi Kundu'
tp33
a(S'1348296171'
p34
S'Tanya Sharma'
tp35
a(S'620065181'
S'Saumya Sethia'
tp36
a(S'100000050921608'
p37
S'Shubham Ruhela'
tp38
a(S'556130832'
S'Suhasini Krishnan'
tp39
a(S'100000617543964'
S'Kriti Rai'
tp40
a(S'1127225084'
S'Camilla Ann Lyndem'
tp41
a(S'1021438717'
p42
S'Deepali Agarwal'
tp43
a(S'659527901'
S'John Koshy'
tp44
a(S'1103001687'
p45
S'Ajit Deshpande'
tp46
a(S'640396374'
S'Pulin Singh'
tp47
a(S'529026390'
S'Rishi Singh'
tp48
a(S'693982036'
S'Tara Aliya Kesavan'
tp49
a(S'567941458'
S'Rhea Lopez'
tp50
a(S'598549354'
S'Neilabh Sinha'
tp51
a(S'1135265469'
S'Sunil Padacheril'
tp52
a(S'512734082'
S'Krutika Pathi'
tp53
a(S'1090240408'
S'Lauren Robinson'
tp54
a(S'623767282'
S'Kaushalya Chowgule'
tp55
a(S'100001608277241'
p56
S'Sthira Bhattacharya'
tp57
a(S'592846511'
p58
S'Steffi Cherian'
tp59
a(S'100002575588096'
S'Jaideep Pandey'
tp60
a(S'1022814043'
p61
S'Gayas Eapen'
tp62
a(S'899035214'
S'Mihika Chanchani'
tp63
a(S'199700126'
S'Diva Ganeriwal'
tp64
a(S'695355615'
S'Rajat Maheshwari'
tp65
a(S'662530830'
S'Sashaa Ganeriwal'
tp66
a(S'100000602468554'
p67
S'Edwin Joseph'
tp68
a(S'558260150'
S'Aditi Dey'
tp69
a(S'1074205611'
p70
S'Annabel Mathew'
tp71
a(S'610626907'
p72
S'Soven Trehan'
tp73
a(S'570945014'
p74
S'Dhruv Bathla'
tp75
a(S'530845015'
S'Vishal Ponnappa'
tp76
a(S'100000921872187'
S'Deep Bhattacharyya'
tp77
a(S'516542060'
S'Krittika Kumari'
tp78
a(S'1211787795'
S'SaWang P Tshering'
tp79
a(S'602857813'
S'Rachel Issac'
tp80
a(S'646762384'
S'Samyukta Kartik'
tp81
a(S'565375264'
S'Kamila Saldanha'
tp82
a(S'646900737'
S'Nitin George'
tp83
a(S'598181586'
p84
S'Ketaki Varma'
tp85
a(S'1788617653'
p86
S'Prateek Rawat'
tp87
a(S'591672152'
p88
S'Anmol Somanchi'
tp89
a(S'731043018'
S'Trevor Quick'
tp90
a(S'655656183'
S'Ismat Imaan'
tp91
a(S'100000163688439'
S'Thinlay Yang'
tp92
a(S'1098277623'
S'Manpreet Kaur'
tp93
a(S'716905918'
S'Keith Peter'
tp94
a(S'727896212'
S'Ananya Menon'
tp95
a(S'608783560'
S'Amar Pandey'
tp96
a(S'1510238739'
S'Krisna Kutty'
tp97
a(S'726530819'
p98
S'Nitin Jude Magima'
tp99
a(S'654981919'
S'Ira Anjali Anwar'
tp100
a(S'32003278'
S'Raghuvir Kasturi'
tp101
a(S'614207015'
S'Tanmayi Reddy'
tp102
a(S'561170536'
S'Siddhant Puri'
tp103
a(S'603052065'
S'Kabir David'
tp104
a(S'653662094'
S'Dayita Nereyeth'
tp105
a(S'549685440'
S'Yang Zimik'
tp106
a(S'100003996094302'
p107
S'Moses Koul'
tp108
a(S'609129311'
S'Karen Elias'
tp109
a(S'875105178'
S'Nandini Mehrotra'
tp110
a(S'775800617'
p111
S'Ikramjit Narang'
tp112
a(S'533161117'
S'Vedant Rastogi'
tp113
a(S'511550253'
S'Ayesha Adlakha'
tp114
a(S'517995503'
p115
S'Sonakshi Chaudhry'
tp116
a(S'1516655433'
S'Minga Sherpa'
tp117
a(S'640068848'
S'Kevin Ilango'
tp118
a(S'724822432'
S'Tanuj Batavia'
tp119
a(S'551336880'
S'Mathew Andrew'
tp120
a(S'1063787150'
p121
S'Amitrajeet Mukherjee'
tp122
a(S'1314704074'
S'Devika Sundar'
tp123
a(S'705380837'
S'Bharat Guram'
tp124
a(S'772589688'
S'Prerna Dangi'
tp125
a(S'511726386'
S'Richa Bhavanam'
tp126
a(S'518836443'
S'Anisha Samat'
tp127
a(S'869900724'
p128
S'Nikita Noronha'
tp129
a(S'714330103'
S"Joe Seph'"
tp130
a(S'638665915'
S'Romyorup Mitra'
tp131
asS'id'
p132
S'561051002'
p133
sS'name'
p134
S'Tiara Nayan'
p135
s.