(dp1
S'friends'
p2
(lp3
(S'1377469307'
S'Howard Bennion'
tp4
a(S'535759053'
S'Casey Brinkley'
tp5
a(S'1032034234'
S'Jackie Proolix'
tp6
a(S'649359598'
S'Michael Riddle'
tp7
a(S'100002004744308'
S'Pascal B\\u00e9guin'
tp8
a(S'544780877'
S'Hailey Meyer Liechty'
tp9
a(S'527099941'
S'John Bonner'
tp10
a(S'1424603015'
S'Kail Magin'
tp11
a(S'17827067'
S'Anne Armstrong Pimentel'
tp12
a(S'1048790524'
S"Jennie Turner O'Connell"
tp13
a(S'1367196478'
S'Tom Schulte'
tp14
a(S'736805729'
S'Louisa Bennion'
tp15
a(S'1683043277'
S'Sam Bennion'
tp16
a(S'1356322534'
S'Anna Kokubu'
tp17
a(S'1317501149'
S'Alisa Mitchell Petersen'
tp18
a(S'774014686'
S'Signe Andersone'
tp19
a(S'823463134'
S'Anna Hutchins Robison'
tp20
a(S'1362266450'
S'Lillian Bennion Nehring'
tp21
a(S'1377798079'
S'Keri Rhodes'
tp22
a(S'811870703'
S'Becca Clark Ledingham'
tp23
a(S'100000661204755'
S'Bena Kratochvil Larkey'
tp24
a(S'581553083'
S'Nathan Robison'
tp25
a(S'1551884567'
S'Jeanne Bennion Mitchell'
tp26
a(S'615317677'
S'Erin Armstrong-Wright'
tp27
a(S'17801887'
S'Sara Vrane\\u0161'
tp28
a(S'1334424633'
S'Lauren Wences'
tp29
a(S'39608661'
S'Bess Bieluczyk'
tp30
a(S'636126810'
S'Alesa Little'
tp31
a(S'743603228'
S'Rex S Kung'
tp32
a(S'748810405'
S'Camille Funk'
tp33
a(S'676739661'
S'Heather Shimmin'
tp34
a(S'613288222'
S'Jennifer Brinkerhoff Platt'
tp35
a(S'687408726'
S'Haley Bennion'
tp36
a(S'622116360'
S'Eric Peterson'
tp37
a(S'1622659805'
S'Hadyn Daugs'
tp38
a(S'1124993017'
S'Jolean Sorensen Barkdull'
tp39
a(S'608818043'
S'Erika Dwyer'
tp40
a(S'100001584241353'
S'Fabrizio Ricciardelli'
tp41
a(S'17832860'
S'David Ornegri Vallines'
tp42
a(S'1453020741'
S'Sarah Kerr'
tp43
a(S'560853493'
S'Melissa Whittaker-Deason'
tp44
a(S'17806029'
S'Becca Lee Jensen Ogden'
tp45
a(S'1628047186'
S'Karl Liechty'
tp46
a(S'1306126935'
S'Joe Bennion'
tp47
a(S'19100830'
S'Chase Kimball'
tp48
a(S'100000204752767'
S'Courtney Krantz'
tp49
a(S'657642268'
S'Hanna Marie Redfern'
tp50
a(S'508688100'
S'Heidi Hydrick'
tp51
a(S'1128575883'
S'Jessica Lewis'
tp52
a(S'17805117'
S'Rachel Hunt Steenblik'
tp53
a(S'1090818997'
S'Jennifer S. L. Murcin'
tp54
a(S'17819773'
S'Eric Bybee'
tp55
a(S'681619211'
S'Erin Anderson'
tp56
a(S'1123454116'
S'Fatima Colleen'
tp57
a(S'548344709'
p58
S'Raghav Dahuja'
tp59
a(S'100000374815033'
S'Reuben Bennion'
tp60
a(S'601816811'
S'Christopher Henderson'
tp61
a(S'517431614'
S'Ashley Mae Hoiland-Christensen'
tp62
a(S'1406555106'
S'Kelly Johnson Brooks'
tp63
a(S'675045738'
S'Christina Q. Thomas'
tp64
a(S'755875521'
S'Betsy Huntington'
tp65
a(S'513470421'
S'Krisanne Hastings Knudsen'
tp66
a(S'773114576'
S'Mason Sullivan'
tp67
a(S'1027881056'
S'Erin-Elaine Dooner'
tp68
a(S'1098115362'
S'Christy Williams'
tp69
a(S'100007728783133'
S'Audeliz Ornegri'
tp70
a(S'100000236144659'
S'Robert Henderson'
tp71
a(S'17825291'
S'Gabriel Proulx'
tp72
a(S'687355145'
S'Nancy Herfield'
tp73
a(S'810320244'
S'Benito S Moreno Valencia'
tp74
a(S'100000308733335'
S'Brandy Taylor'
tp75
a(S'1184231384'
S'Sharon R. Gray'
tp76
a(S'1540766424'
S'Terresa Fowles Fryer'
tp77
a(S'1166804831'
S'Ruth Udall'
tp78
a(S'670793623'
S'Heather Alcantara'
tp79
a(S'741539701'
S'Jed N Platt'
tp80
a(S'100002116840054'
S'Ashton Wai'
tp81
a(S'565810612'
S'Marta Sophia Davis'
tp82
a(S'503814248'
S'Jodi Eames'
tp83
a(S'793735143'
S'Aubry Bennion'
tp84
a(S'1374418179'
S'Emily Howland'
tp85
a(S'695214249'
S'Alexandra Thayer'
tp86
a(S'679274672'
S'Keticia Danish'
tp87
a(S'17802688'
S'Dana Rose Fleming'
tp88
a(S'2104782'
S'Britta Larsen DeMartini'
tp89
a(S'582065468'
S'Tess Blackwelder Barlow'
tp90
a(S'65502640'
S'Allison Rose'
tp91
a(S'1176641051'
S'Laura Jane Prenot'
tp92
a(S'100003582505497'
S'Lee Bennion'
tp93
a(S'503027716'
S'Elizabeth Breinholt Detrick'
tp94
a(S'1663894804'
S'Yang Liu'
tp95
a(S'582025210'
S'Cherie Farnes'
tp96
a(S'744494701'
S'Ilze Dzenovska'
tp97
a(S'516278542'
S'Michael Potter'
tp98
a(S'526799848'
S'Tirzah Barlow'
tp99
a(S'710360896'
S'Leslie Diane Poston'
tp100
a(S'1293851160'
S'Megan Bingham Hendrickson'
tp101
a(S'1187748156'
S'Amy Rice'
tp102
a(S'1516174684'
S'Lori Wait'
tp103
a(S'1557870024'
S'Adah Bee'
tp104
asS'id'
p105
S'570256342'
p106
sS'name'
p107
S'Zina Bennion'
p108
s.