(dp1
S'name'
p2
S'Samir Tekriwal'
p3
sS'current_class'
p4
S'india'
p5
sS'home_text'
p6
VSingheswar, Bih\u0101r, India\u000aHometown
p7
sS'current_link'
p8
Vhttps://www.facebook.com/l.php?u=https%3A%2F%2Fwww.bing.com%2Fmaps%2Fdefault.aspx%3Fv%3D2%26pc%3DFACEBK%26mid%3D8100%26where1%3D23.033300959589%252C%2B72.615509033203%26name%3DAhmedabad%252C%2BIndia%26mkt%3Den-IN&h=JAQFA2xRi&s=1
p9
sS'home_link'
p10
Vhttps://www.facebook.com/l.php?u=https%3A%2F%2Fwww.bing.com%2Fmaps%2Fdefault.aspx%3Fv%3D2%26pc%3DFACEBK%26mid%3D8100%26where1%3D25.983299999916%252C%2B86.798858642578%26name%3DSingheswar%252C%2BBih%25C4%2581r%252C%2BIndia%26mkt%3Den-IN&h=pAQFSnKZl&s=1
p11
sS'current_text'
p12
VAhmedabad, India\u000aCurrent City
p13
sS'friends'
p14
(lp15
(S'100001256457884'
S'Shashidhar Shivapuji'
tp16
a(S'5744345'
S'Ravi Kiran'
tp17
a(S'100000842032666'
S'Malavadore Nanjundaswami'
tp18
a(S'574833180'
S'Purnendu Kishore Banerjee'
tp19
a(S'100000973344468'
S'Balamurugan Karunakaran'
tp20
a(S'100004581036741'
S'Vasudev Modi'
tp21
a(S'1023390876'
S'Rajesh Naroli Dang Meena'
tp22
a(S'1527714723'
S'Anil Mittal'
tp23
a(S'100000925880178'
S'Kailashpati Mishra'
tp24
a(S'1045308055'
S'Praveen Kishore'
tp25
a(S'100001246615484'
S'Ketul Dave'
tp26
a(S'100002777280399'
S'Hawa Singh Ghumaria'
tp27
a(S'645820459'
S'Saurav Shah'
tp28
a(S'1005048550'
S'Niraj Tekriwal'
tp29
a(S'100001544432848'
S'Chandra Prakash Meena'
tp30
a(S'1612009312'
S'Gulshan Marwah'
tp31
a(S'100000060662113'
S'Sanjeev Jain'
tp32
a(S'100001205779680'
S'Samir Vakil'
tp33
a(S'100000323772613'
S'Dhanaraj Sivalingam'
tp34
a(S'862995332'
S'Manish Mittal'
tp35
a(S'100001904876257'
S'Anusha Khurana'
tp36
a(S'613347122'
S'Vinay Kumar Singh'
tp37
a(S'100002480793288'
S'Punita Sinha'
tp38
a(S'100002125983950'
S'Lal Chand'
tp39
a(S'1642519509'
S'Anuradha Dalmia'
tp40
a(S'732377918'
S'Satish Kumar Gupta'
tp41
a(S'100002361342469'
S'Kushagra Tekriwal'
tp42
a(S'100002025405468'
S'Shrikant Walgad'
tp43
a(S'1613414529'
S'Vivek Batra'
tp44
a(S'1145045289'
S'Sandeep Uke'
tp45
a(S'600507938'
S'Apu Kamal'
tp46
a(S'730270609'
S'Vibhuti Jhaveri'
tp47
a(S'531903014'
S'Rohit Sikaria'
tp48
a(S'100001310192761'
S'Reena Singh'
tp49
a(S'100000844964053'
S'Mohit Agarwal'
tp50
a(S'100002850177759'
S'Deepak B Chaudhary'
tp51
a(S'100000594502830'
S'Praveen Salecha'
tp52
a(S'526311282'
S'Amit Chadha'
tp53
a(S'100003737443809'
S'Asit Panigrahi'
tp54
a(S'100001968732538'
S'Ved Prakash'
tp55
a(S'1064547969'
S'Amitabh Kumar'
tp56
a(S'100001103675379'
S'Ram Krishn Kedia'
tp57
a(S'100002814481008'
S'Kumar Hrishikesh'
tp58
a(S'100000874964086'
S'Uttam Tiwari'
tp59
a(S'1016166140'
S'Rajan Singh'
tp60
a(S'100003452694433'
S'Shivanand Sindagi'
tp61
a(S'100000607761325'
S'Mansi Shah'
tp62
a(S'100000227524664'
S'Manish Tibrewal'
tp63
a(S'100000721954359'
S'Ysudhakara Sharma'
tp64
a(S'100005782565018'
S'Anurag Tulsyan'
tp65
a(S'677791655'
S'Nidhi Harnathka'
tp66
a(S'1618569411'
S'Ravi Jain'
tp67
a(S'100000463313475'
S'Anil P. Chaware'
tp68
a(S'100005911419531'
S'Rajesh Agarwal'
tp69
a(S'100000215187409'
S'Vineet Tibrewal'
tp70
a(S'100000423148631'
S'Devesh Vasavada'
tp71
a(S'678921450'
S'Mini Verma'
tp72
a(S'1435347523'
S'Amal Garg'
tp73
a(S'100003403875086'
S'Rajesh Kumar'
tp74
a(S'1103461868'
S'Radhika Nevatia'
tp75
a(S'1758304165'
S'Amarjeet Singh'
tp76
a(S'595617038'
S'Ashish Tekriwal'
tp77
a(S'1382412814'
S'Mahaveer Singhvi'
tp78
a(S'1543617186'
S'Vishvas Sapkal'
tp79
a(S'1077980356'
S'Seegichetla Sreenivas Reddy'
tp80
a(S'100001698400344'
S'Mahendra Kumar Agrawal'
tp81
a(S'100003385361042'
S'Ritwik Pandey'
tp82
a(S'799414665'
S'Bhagwan Swarup Srivastava'
tp83
a(S'1023601167'
S'Gopal Krishna Dwivedi'
tp84
a(S'100000325446947'
S'Ulhas Moon'
tp85
a(S'713466597'
S'Mohit Tulsyan'
tp86
a(S'100000479264011'
S'Satinder Rana'
tp87
a(S'100000754215147'
S'Vishal Sawhney'
tp88
a(S'100000201581431'
S'Siddhalinga Swamy'
tp89
a(S'1805393084'
S'Shreedhar Kakhandki'
tp90
a(S'100000201458326'
S'Kamlesh Gupta'
tp91
a(S'100001262468629'
S'Pooja Iyer'
tp92
a(S'522565466'
S'Kirti Didwania'
tp93
a(S'100002336693194'
S'Shital Patel'
tp94
a(S'100003745765168'
S'Sanjay Yadav'
tp95
a(S'100001186861494'
S'Anand Chand'
tp96
a(S'562801649'
S'Vikram Khosla'
tp97
a(S'1582999360'
S'Manjinder S Randhawa'
tp98
a(S'524325107'
S'Manish Kumar Agrawal'
tp99
a(S'100001862388864'
S'Praveen Chikkagoudar'
tp100
a(S'100003726713013'
S'Bandi Madhusudhanareddy'
tp101
a(S'567708456'
S'Shishir Srivastava'
tp102
a(S'100001448555634'
S'Gs Singh'
tp103
a(S'100000304700498'
S'Madhumita Mondal'
tp104
a(S'878495474'
S'Sona Thakore'
tp105
a(S'685252406'
S'Anubha Sinha'
tp106
a(S'100002145973162'
S'Shashi Mohanka'
tp107
a(S'100001473174424'
S'Pranaw Kedia'
tp108
a(S'100004425571131'
S'Navin Kumar Singh'
tp109
a(S'100003872364021'
S'Arun Bhowmick'
tp110
a(S'100000237297890'
S'Murali Mohan Pullela'
tp111
a(S'100001291134450'
S'Ramji Rao Lella'
tp112
a(S'745840440'
S'Nandini Kaul'
tp113
a(S'738568927'
S'Shalav Shah'
tp114
a(S'1130435278'
S'Inder Solanki'
tp115
a(S'615744578'
S'Bhavi Gandhi Shah'
tp116
a(S'100000985204849'
S'Namrata Kumar'
tp117
a(S'100002480858997'
S'Alok Kumar'
tp118
a(S'772943604'
S'Kunickaa Sadanand'
tp119
a(S'100002844145225'
S'Ashraf Khan'
tp120
a(S'100004678714071'
S'Amit Singh'
tp121
a(S'100002938797314'
S'Rasesh Kapasi'
tp122
a(S'544946935'
S'Vikash Binjrajka'
tp123
a(S'100002452939857'
S'Jawwad Khan'
tp124
a(S'100000634990385'
S'Kartik Mittal'
tp125
a(S'100001296550773'
S'S.v. Patil'
tp126
a(S'1166606723'
S'Naveen Arora'
tp127
a(S'100001553601954'
S'Rajesh Agrawal'
tp128
a(S'100000623024315'
S'Saroj Ayush'
tp129
a(S'100000605060456'
S'Rajeev Kumar'
tp130
a(S'639413793'
S'Venkatesh Bv'
tp131
a(S'575285957'
S'Clay Khongsai'
tp132
a(S'1468440651'
S'Deepak Sanchety'
tp133
a(S'1069711363'
S'Deepak Garg'
tp134
a(S'564517182'
S'Hari Krishna'
tp135
a(S'100002380616559'
S'Aryan Santhalia'
tp136
a(S'665993618'
S'Subhass Dubey'
tp137
a(S'100002888392322'
S'P Vijayan Ips'
tp138
a(S'100000773329595'
S'Samit Sachdeva'
tp139
a(S'1486491918'
S'Sanjay Shivam'
tp140
a(S'1801675876'
S'Sandeep Gupta'
tp141
a(S'100000599228847'
S'Avadhesh Kumar'
tp142
a(S'100000590307294'
S'Govind Singhal'
tp143
a(S'535474877'
S'Aj Jhaveri'
tp144
a(S'100002284761274'
S'Amith Doreraju'
tp145
a(S'687967046'
S'Shelley Jindal'
tp146
a(S'1338292496'
S'Alok Mishra'
tp147
a(S'719166599'
S'Harry Dhaliwal'
tp148
a(S'824637019'
S'Basanta Rajkumar'
tp149
a(S'1047292743'
S'Royston Dsouza'
tp150
a(S'1650677339'
S'Amitabh Thakur'
tp151
a(S'1734900890'
S'Raghavendra Vatsa'
tp152
a(S'100000930618430'
S'Sandip Mohanka'
tp153
a(S'1036218900'
S'Suyash Tekriwal'
tp154
a(S'599532820'
S'Ravindra Kumar'
tp155
a(S'1228452383'
S'Balaji Jayaraman'
tp156
a(S'100000405043117'
S'Kamal Yadav'
tp157
a(S'100002680373974'
S'Suman Mojasia'
tp158
a(S'1535802713'
S'Niluguddu Singh'
tp159
a(S'100001192010610'
S'Abhijit Sircar'
tp160
a(S'684875832'
S'Padamvir Singh'
tp161
a(S'100001184473119'
S'Mayank Tekriwal'
tp162
a(S'1180930569'
S'Amit Singh'
tp163
a(S'100006734220486'
S'Puja Agarwal'
tp164
a(S'701555020'
S'Tarun Harnathka'
tp165
a(S'1788437835'
S'Pawan Tulsyan'
tp166
a(S'100001325611700'
S'Sunil Santhalia'
tp167
a(S'1602582918'
S'Anand Kumar Somani'
tp168
a(S'573768132'
S'Lalit Das'
tp169
a(S'1342515884'
S'Manish Thakur'
tp170
a(S'100002439236109'
S'Kumar Shyam'
tp171
a(S'100000597677575'
S'Pratap Sharma'
tp172
a(S'100001212549572'
S'Ritu Ritz'
tp173
a(S'100002659204776'
S'Suman Mittagadapala'
tp174
a(S'100002264492968'
S'Awijit Rakshit'
tp175
a(S'733015724'
S'Peeyush Samariya'
tp176
a(S'100001629716237'
S'Shrawan Agrawal'
tp177
a(S'655809884'
S'Ravichandran Ramasamy'
tp178
a(S'1482900612'
S'Sunil Khatuwala'
tp179
a(S'1158078997'
S'Suraj Bhan Garhwal'
tp180
a(S'1795568346'
S'Kailash Mangal'
tp181
a(S'1126405008'
S'Sharad Agarwal'
tp182
a(S'1729136594'
S'GK Goswami'
tp183
a(S'100002437194878'
S'Sambit Tripathy'
tp184
a(S'100001035681330'
S'Om Prakash Meena'
tp185
a(S'100002255303586'
S'Sanjay Mohanka'
tp186
a(S'662514890'
S'Muru Vel'
tp187
a(S'100000708731536'
S'Ekta Tibrewal'
tp188
a(S'100004629009770'
S'Chinmay Revant'
tp189
a(S'100008339795101'
S'Kanhaiya Agarwal'
tp190
a(S'1599365334'
S'Mridula Sanchety'
tp191
a(S'100000581910364'
S'Shilpi Tek'
tp192
a(S'100001268495087'
S'Mayank Srivastava'
tp193
a(S'100002779621951'
S'DrDipak Ripote'
tp194
a(S'822379816'
S'Srinivas Varma'
tp195
a(S'100003628712663'
S'Manoj Doshi'
tp196
a(S'1801358249'
S'Rajul Bhatt'
tp197
a(S'100000754417460'
S'Telagareddi Satyanandam'
tp198
a(S'100004823764625'
S'Vedic Corp'
tp199
a(S'1533476602'
S'Manoj Kumar'
tp200
a(S'100005421583091'
S'Namita Tekriwal'
tp201
a(S'100003906879166'
S'Ashok D Suri'
tp202
a(S'100000011070187'
S'Bipin Menon'
tp203
a(S'100000094640701'
S'Dinesh Singh'
tp204
a(S'100001105189707'
S'Rajeev Kulkarni'
tp205
a(S'100000590644481'
S'Anurag Sharma'
tp206
a(S'769284239'
S'Anand D Vijapur'
tp207
a(S'1577889574'
S'Ajay Pandey'
tp208
a(S'1417300500'
S'Sandeep Bhartia'
tp209
a(S'753721368'
S'Ankesh Samkalp'
tp210
a(S'100002094828270'
S'Rajshree Sonthalia'
tp211
a(S'100001428502971'
S'Venugopal Bolloju'
tp212
a(S'100001251977093'
S'Kshma Tibrewal'
tp213
a(S'792360542'
S'Navneet Manohar'
tp214
a(S'100003624595188'
S'Priyanka Agrawal'
tp215
a(S'1173573169'
S'Santosh Vaidya'
tp216
a(S'100002028091408'
S'Saikat Sarkar'
tp217
a(S'100002221931926'
S'Sunita Singh'
tp218
a(S'1573729708'
S'Chittaranjan Dash'
tp219
a(S'1577439466'
S'Pankaj Kr'
tp220
a(S'1065231601'
S'Uma Maheswari'
tp221
a(S'803225531'
S'Akshay Kumar'
tp222
a(S'100001449590444'
S'Garima Jain'
tp223
a(S'548413979'
S'Shankhabrata Bagchi'
tp224
a(S'100002114754361'
S'Diwakar Tekriwal'
tp225
a(S'100003997029193'
S'Anupam Singh Gahlaut'
tp226
a(S'1379745728'
S'Ashok Kardam'
tp227
a(S'100001705789820'
S'Kl Maheshwari'
tp228
a(S'100003349328215'
S'Suresh Panwar'
tp229
a(S'654105484'
S'Bhartesh Tamse'
tp230
a(S'100000621081453'
S'Alok Singh'
tp231
a(S'573355858'
S'Dinesh Patwari'
tp232
a(S'100001311121925'
S'Ashutossh Pritam Singh'
tp233
a(S'100001153177957'
S'Chandra Shekhar Sharma'
tp234
a(S'1668155431'
S'Mahesh Kumar'
tp235
a(S'1624575361'
S'Gopal Kamal'
tp236
a(S'582577513'
S'Pranav Santhalia'
tp237
a(S'1527511274'
S'Ashutosh Shukla'
tp238
a(S'1489680635'
S'Niraj N. Kumar'
tp239
a(S'1040277860'
S'Nrusingh Swain'
tp240
a(S'572306295'
S'Sunil Suri'
tp241
a(S'675496632'
S'Ashish Batra'
tp242
a(S'100005869120608'
S'Dileep Yadav'
tp243
a(S'1082145714'
S'Shantanu Ghosh'
tp244
a(S'1389227436'
S'Piyush Patel'
tp245
a(S'1221395132'
S'Devesh Srivastva'
tp246
a(S'1241898173'
S'Sunil Kumar'
tp247
a(S'668051196'
S'Nidhi Tekriwal'
tp248
a(S'1268243548'
S'Rahul Dhawan'
tp249
a(S'575103172'
S'Nanjundaswami Malavalli'
tp250
a(S'100008065184022'
S'Sapna Agarwal'
tp251
a(S'100000661325471'
S'Bishwanath Jha'
tp252
a(S'100001412480916'
S'Radha Raman Pathak'
tp253
a(S'752106498'
S'Abhishek Dixit'
tp254
a(S'1639665255'
S'Satish Chandra Jha'
tp255
a(S'100001617306687'
S'Raj Hugar'
tp256
a(S'753918707'
S'AK Singh'
tp257
a(S'100001372733951'
S'Manoj Agrawal'
tp258
a(S'100000901437387'
S'Sudhakara Rao Dirisam'
tp259
a(S'100005677154373'
S'Chacha ChandraRam'
tp260
a(S'100004078330222'
S'Kameswara Rao'
tp261
a(S'100003276770263'
S'Vijay Bhaskar'
tp262
a(S'750462361'
S'Mala Paropkari'
tp263
a(S'100001608362351'
S'Sunil Kumar Tiwary'
tp264
a(S'1105191663'
S'Prabhat Gupta'
tp265
a(S'1472344034'
S'Kc Badhok'
tp266
a(S'100001611082829'
S'Rakesh Agarwal'
tp267
a(S'100001243754121'
S'Selvaraj Sengathir'
tp268
a(S'100006104560076'
S'Mulchand Nadt Meeting Point'
tp269
a(S'1676907260'
S'Pravin Chindhu Darade'
tp270
a(S'100002842644153'
S'Aarav Shah'
tp271
a(S'751948236'
S'Sunil Gupta'
tp272
a(S'100002735006600'
S'Sandeep Mittal'
tp273
a(S'715946761'
S'Nishi Agrawal'
tp274
a(S'1342228423'
S'Anand Kumar Agrawal'
tp275
a(S'1057254389'
S'Sanjay Kumar'
tp276
a(S'1216435107'
S'Rajeev Ranade'
tp277
a(S'1091854554'
S'Quaiser Khalid'
tp278
a(S'100000514423848'
S'Gopaldas Karwa'
tp279
a(S'1281220633'
S'Hardeep Batra'
tp280
a(S'1626159715'
S'Anurag Sahay'
tp281
a(S'582588049'
S'Anjani Sultania'
tp282
a(S'100002183453928'
S'Siddu R Challamarad'
tp283
a(S'1804946988'
S'Rajinder Gupta'
tp284
a(S'1547871833'
S'Sanjay Kumar'
tp285
a(S'654908745'
S'Hoveyda Abbas'
tp286
a(S'1634395939'
S'Krishan Kumar Mittal'
tp287
a(S'1845463428'
S'Sanjay Patra'
tp288
a(S'100000511035035'
S'Manish Jain'
tp289
a(S'1127870029'
S'Sujit Kumar Jha'
tp290
a(S'100001451085404'
S'Om Prakash Meena'
tp291
a(S'1027362561'
S'Ashish Kumar Agrawal'
tp292
a(S'1005336247'
S'Amitabh Shukla'
tp293
a(S'100000185982927'
S'Narayan Hisaria'
tp294
a(S'100001279991070'
S'Bharat Pandya'
tp295
a(S'1105066988'
S'Sunil Kumar Mishra'
tp296
a(S'1504834107'
S'Vasundhara C Bhagat'
tp297
a(S'100006631410557'
S'Anil Santhalia'
tp298
a(S'1214064343'
S'Nirav Patel'
tp299
a(S'100001402360298'
S'Praful Phale'
tp300
a(S'100001180201201'
S'Uday Kumaran'
tp301
a(S'1267943996'
S'Naveen Gopalakrishnan'
tp302
a(S'1003793720'
S'Paramjeet Singh'
tp303
a(S'577709608'
S'Chetna Didwania Agarwal'
tp304
a(S'1565960126'
S'Bhavna Chohda Yashroy'
tp305
a(S'100000332591017'
S'Sachin Maheshwari'
tp306
a(S'100002475912277'
S'Padma Tekriwal'
tp307
a(S'516751249'
S'Asheesh Sharma'
tp308
a(S'100002338940439'
S'Pradeep Kumar Jajodia'
tp309
a(S'100001310170491'
S'Prabhakar Tekriwal'
tp310
a(S'1598071299'
S'Durgesh Sumrott'
tp311
a(S'1211917167'
S'Leyaqat Ali Aafaqui'
tp312
a(S'100000903858525'
S'Bhoop Singh Joon'
tp313
a(S'100000168575634'
S'Priyanka Pareek'
tp314
a(S'100002244798938'
S'Richa Khoda'
tp315
a(S'1491557199'
S'Shunchonngam Jatak Chiru'
tp316
a(S'100000623081869'
S'Harshad Karnik'
tp317
a(S'100000280374252'
S'Anand Upadhyay'
tp318
a(S'100001422345767'
S'Sukesh Jain'
tp319
a(S'100004072538643'
S'Satish Kabbinada'
tp320
a(S'100001340001474'
S'Vivek Sharma'
tp321
a(S'100001546974733'
S'Rekha Raikarkumar'
tp322
a(S'844052942'
S'Ajit Kumar Jain'
tp323
a(S'100002635514521'
S'Harishankar Kumar Lal'
tp324
a(S'1490490599'
S'Rahul Navin'
tp325
a(S'797241958'
S'Sumedha Verma Ojha'
tp326
a(S'100001082884654'
S'Saurabh Singh'
tp327
a(S'100002931328479'
S'Chanchal Shekhar'
tp328
a(S'698852785'
S'Hareet Shukla'
tp329
a(S'1407826336'
S'P Soma Shekar Reddy'
tp330
a(S'571401469'
S'Athikho Obou'
tp331
a(S'100000456279571'
S'Prem Prakash'
tp332
a(S'1691330891'
S'Rahul Singhania Irs'
tp333
a(S'1230763711'
S'Uday Shankar Jha'
tp334
a(S'100001469008624'
S'Shekar Shanmugam'
tp335
a(S'793776854'
S'Alpesh Parmar'
tp336
a(S'605381088'
S'Navneet Gupta'
tp337
a(S'713028924'
S'Kasibhatta Srishanth'
tp338
a(S'100003747763487'
S'Aastha Thakkar'
tp339
a(S'670249579'
S'Jag Mohan'
tp340
a(S'100002199528040'
S'Rajeev Agrawal'
tp341
a(S'652924929'
S'Shashi Bhushan Shukla'
tp342
a(S'100001281592312'
S'Suresh Panwar'
tp343
a(S'1309864184'
S'Bala Subramanyam'
tp344
a(S'731872628'
S'Shikha Garg'
tp345
a(S'100005767512446'
S'Prakash Naik'
tp346
a(S'573386545'
S'Mukund Kumar Sinha'
tp347
a(S'1765824641'
S'Santosh Singh'
tp348
a(S'100001375446312'
S'Vishal Sawhney'
tp349
a(S'749381281'
S'Anurag Sultania'
tp350
a(S'100002612375444'
S'Maritammappa M Tondihal'
tp351
a(S'1595192653'
S'Sibichen Mathew'
tp352
a(S'622945113'
S'Saket Sanghai'
tp353
a(S'1473848355'
S'Rajkamal Mishra'
tp354
a(S'100004741480823'
S'Kavita Agrawal'
tp355
a(S'705578504'
S'Asif Karmali'
tp356
a(S'100000584017408'
S'Siva Kumar'
tp357
a(S'100001289501669'
S'Subodh Fatehpuria'
tp358
a(S'1568611356'
S'Sandeep Dahiya'
tp359
a(S'100000710676751'
S'Atul Sharma'
tp360
a(S'1212607316'
S'Sheel Asheesh'
tp361
a(S'683789761'
S'Shailendra Kumar'
tp362
a(S'100001436237176'
S'Nimesh Yadav'
tp363
a(S'1337456284'
S'Sumit Sharan'
tp364
a(S'1818756885'
S'Karunakara Rao Dasari'
tp365
a(S'100001643162400'
S'Keshav Loyalka'
tp366
a(S'100001638915750'
S'Himanshu Lal'
tp367
a(S'787297570'
S'Ajay Hegde'
tp368
a(S'100001251285398'
S'Ashutosh Sharma'
tp369
a(S'1501810218'
S'Santosh Mall'
tp370
a(S'1101406471'
S'Sanjay Dhariwal'
tp371
a(S'1193981665'
S'Srinath Rao'
tp372
a(S'1722808206'
S'Basu Mudenur'
tp373
a(S'1345662977'
S'Ananth Rupanagudi'
tp374
a(S'100001524524487'
S'Rajesh Malani'
tp375
a(S'100000619300708'
S'Deba Sonowal'
tp376
a(S'1673116225'
S'Byomkesh Panda'
tp377
a(S'1120786918'
S'Dinesh Kumar Yadav'
tp378
a(S'100000428966758'
S'Kalika Singh'
tp379
a(S'100000134037324'
S'Deepak Tulsiyan'
tp380
a(S'1304737162'
S'Dilip Sultania'
tp381
a(S'100001412194519'
S'Rohit Yadav'
tp382
a(S'1325319960'
S'Brahma Prakash Gaur'
tp383
a(S'575898580'
S'Saurabh Tripathi'
tp384
a(S'724163872'
S'Sanjiv Singh'
tp385
a(S'100005403307015'
S'Upendra Singh'
tp386
a(S'100001238804568'
S'Medisetti Tirumala Kumar'
tp387
a(S'100000394234831'
S'Rajesh Bhoot'
tp388
a(S'100000292299487'
S'Monika Singh'
tp389
a(S'100003819934886'
S'Arvind Kumar'
tp390
a(S'100001386756110'
S'Sanjeev Kashyap'
tp391
a(S'100006768003786'
S'Sumit Agarwal Dhanawat'
tp392
a(S'723023349'
S'Ritesh Misra'
tp393
a(S'1188262451'
S'Sourabh Agrawal'
tp394
a(S'100000727801171'
S'Satyapal Singh Meena'
tp395
a(S'1497660586'
S'Pramod Kumar Manjhi'
tp396
a(S'1470420576'
S'Raj Kumar'
tp397
a(S'701050260'
S'Vivek Sultania'
tp398
a(S'774324212'
S'Avi Prakash Sinha'
tp399
a(S'100000185677892'
S'Pitambar Das'
tp400
a(S'100001566579028'
S'Rajeev Kumar'
tp401
a(S'1260057768'
S'Rajeev Saraf'
tp402
a(S'1683293979'
S'R.s. Sanghai'
tp403
a(S'632360549'
S'Ankur Tekriwal'
tp404
a(S'1719057264'
S'Dinesh Kumar Gupta'
tp405
a(S'100001282157366'
S'Ravi Sharma'
tp406
a(S'647378301'
S'Ashutosh Rajhans'
tp407
a(S'648551536'
S'Munesh Kumar'
tp408
a(S'1441730690'
S'Nainesh Purohit'
tp409
a(S'682533244'
S'Amit Kumar'
tp410
a(S'1582472935'
S'Vatsalya Saxena'
tp411
a(S'100004041410282'
S'Bec Bagalkot'
tp412
a(S'1346035339'
S'Mamta Bansal'
tp413
a(S'100000498087304'
S'Nilesh Gupta'
tp414
a(S'652998347'
S'Chandrajit Singh'
tp415
a(S'1572125414'
S'Rajesh Kumar Verma'
tp416
a(S'1710924812'
S'Sudhir Khunteta'
tp417
a(S'1587991248'
S'Virendra Ojha'
tp418
a(S'100004027423241'
S'Rekha Sonthalia'
tp419
a(S'1104303227'
S'Madhusudan Kodimyala'
tp420
a(S'100001563628960'
S'Vijay Kumar'
tp421
a(S'100001482584784'
S'Prashant Bhushan'
tp422
a(S'100001013621944'
S'Meena Vardhan'
tp423
a(S'100000085755999'
S'Deepak M. Damor'
tp424
a(S'1116496126'
S'Rajesh Agrawal'
tp425
a(S'1330430557'
S'Pankaj Singhania'
tp426
a(S'1315449163'
S'Mukesh Meshram'
tp427
a(S'100000107628946'
S'Bhim Singh'
tp428
a(S'100001568747170'
S'Mahender Bishnoi'
tp429
a(S'100000827107394'
S'Rajeev Kumar'
tp430
a(S'100002915962375'
S'Manasvi Kamalia'
tp431
a(S'100004132362322'
S'Pankaj Bansal'
tp432
a(S'1789219689'
S'Tejpartap Singh'
tp433
a(S'100000566203765'
S'Shailesh Kumar'
tp434
a(S'542244636'
S'Vivek Hippargi'
tp435
a(S'100002627916554'
S'Juhi Mehta'
tp436
a(S'615441645'
S'Nitya Shah'
tp437
a(S'1506960744'
S'Chellappan Ganesh'
tp438
a(S'100000146800070'
S'Drop Singh Meena'
tp439
a(S'100000723613952'
S'Amit Sinha'
tp440
a(S'1061611391'
S'Peeyush Sonkar'
tp441
a(S'100000169340713'
S'Jitender Kumar'
tp442
a(S'100000215217786'
S'Vishal Verma'
tp443
a(S'100004200069895'
S'Ambuj Singh'
tp444
a(S'100004086263366'
S'Raghu Pervela'
tp445
a(S'100000771962482'
S'Yadvendra Bhati'
tp446
a(S'613503259'
S'Sushil Thakur'
tp447
a(S'100005435072843'
S'Amar Shrivastava'
tp448
a(S'100001249132013'
S'Sandip Pradhan'
tp449
a(S'100003474433282'
S'Juhi Mehta'
tp450
a(S'100000105091978'
S'Vivek Aggarwal'
tp451
a(S'100001971080197'
S'Niraj Bansal'
tp452
a(S'100000870673217'
S'Prem Anand Sinha'
tp453
a(S'827206631'
S'Arun Kumar Gurjar'
tp454
a(S'1292688629'
S'Neeraj Kumar'
tp455
a(S'838083755'
S'Deepak Ratan'
tp456
a(S'100000685031262'
S'Mayur Kamble'
tp457
a(S'1534039980'
S'Geetika Gupta'
tp458
a(S'1363220986'
S'Suresh Jaganathan'
tp459
a(S'709943626'
S'Hari Om Gandhi Ahmedabad'
tp460
a(S'100001115505287'
S'Arvind Pathak'
tp461
a(S'1663812375'
S'Asnmurthy Murthy'
tp462
a(S'100000237878339'
S'Vinod Sharma'
tp463
a(S'574711093'
S'Subrato Nath'
tp464
a(S'100000525753112'
S'Rahul Kr'
tp465
a(S'100000522987389'
S'Manoj Pangarkar'
tp466
a(S'687417423'
S'Neeru Khurana Thakkar'
tp467
a(S'100000063188599'
S'Chandrashekhar Jeevapur'
tp468
a(S'100002242004818'
S'Sankar Thillaiappan'
tp469
a(S'1095634271'
S'Kj Divya'
tp470
a(S'1412640750'
S'Manish Bharadwaj'
tp471
a(S'1222959180'
S'Suresh Yadav'
tp472
a(S'1508636113'
S'Sunita Billa'
tp473
a(S'100000386802415'
S'Rajendra Singh Shekhawat'
tp474
a(S'100000055704558'
S'Rahul Srivastava'
tp475
a(S'832619888'
S'Ujjwal Kumar'
tp476
a(S'673830812'
S'Chetan W. Bhende'
tp477
a(S'663196732'
S'Vimalendu Verma'
tp478
a(S'574517671'
S'Sumati Shandilya'
tp479
a(S'100000548874642'
S'Lalit Pransukhka'
tp480
a(S'542673853'
S'Pooja Swaroop'
tp481
a(S'100001596492462'
S'Arun Kumar Agrawal'
tp482
a(S'1594655583'
S'Ajai Pratap Singh'
tp483
a(S'823925135'
S'Apurva Shah'
tp484
a(S'100000166515109'
S'Savita Bundas'
tp485
a(S'100001209918579'
S'Rajat Patil'
tp486
a(S'1484520200'
S'Sunil Chander Sharma'
tp487
a(S'574235948'
S'Maheshwar Dayal'
tp488
a(S'817450383'
S'Aditya B. Nemani'
tp489
a(S'100001434661926'
S'Shweta Mohanka'
tp490
a(S'1234507026'
S'Amaresh Singh'
tp491
a(S'1279360401'
S'Nilam Raj'
tp492
a(S'738339999'
S'Pathlavath Peerya'
tp493
a(S'100002656786564'
S'Rajesh Pransukhaka'
tp494
a(S'625064190'
S'Sanjit Kumar'
tp495
a(S'1162103987'
S'Ashok Patil'
tp496
a(S'100000967326943'
S'Satyabrata Sahoo'
tp497
a(S'558292992'
S'Upender Singh Rawat'
tp498
a(S'100003591148256'
S'Pradeep Loyalka'
tp499
a(S'100001581930452'
S'Ca Anil Kumar Mandawewala'
tp500
a(S'1061764312'
S'Manish Mishra'
tp501
a(S'100002231132691'
S'Bhagchand Meena'
tp502
a(S'100001368272310'
S'Premm Verma'
tp503
a(S'816969061'
S'Anshu Prakash'
tp504
a(S'100000123914075'
S'Sanjay Bharati'
tp505
a(S'100003296689905'
S'Alpana Sanghai'
tp506
a(S'100000178569147'
S'Rekha Kedia'
tp507
a(S'1470984793'
S'Devi Sharan Singh'
tp508
a(S'1765507298'
S'Umesh Phade'
tp509
a(S'1476545627'
S'Priya Ranjan Ghosh'
tp510
a(S'1209757734'
S'Navin Mittal'
tp511
a(S'1004011442'
S'Shivani Singh'
tp512
a(S'100000820762320'
S'Jk Mishra'
tp513
a(S'100000579150568'
S'Prakash Mohanty'
tp514
a(S'100000147747201'
S'Ramkrishna Swarnkar'
tp515
a(S'100000350217576'
S'Sanjay Jain'
tp516
a(S'752183366'
S'Lekhan Thakkar'
tp517
a(S'100000812713383'
S'Rakesh Verma'
tp518
a(S'100000175858795'
S'Krishna Tibrewal'
tp519
a(S'100003046870580'
S'Rishabh Mishra A C'
tp520
a(S'574396714'
S'Narmadeshwar Lal'
tp521
a(S'1583140981'
S'Vinayak Azaad'
tp522
a(S'1291108385'
S'Monika A Batra'
tp523
a(S'1061265430'
S'Kanchan Manna'
tp524
a(S'100000219560515'
S'Garimella Venkat Rao'
tp525
a(S'100000021236281'
S'Rajesh Gupta'
tp526
a(S'100001834528128'
S'Sapna Abhishek'
tp527
a(S'1039452235'
S'Er Ashutosh Deepak Chaudhary'
tp528
a(S'1029035216'
S'Shailendra Handa'
tp529
a(S'547510861'
S'Paresh Johri'
tp530
a(S'100001409827763'
S'Usha Agrawal'
tp531
a(S'100003526716559'
S'Jayant Jhaveri'
tp532
a(S'100003875874113'
S'Sukhpal Meena'
tp533
a(S'100002967249106'
S'Avvari Sreenivasa Rao'
tp534
a(S'672792890'
S'Vinay Kumar Singh'
tp535
a(S'630174837'
S'Anand Bansal'
tp536
a(S'590249185'
S'Vikram Batra'
tp537
a(S'1009712369'
S'Sanjay Kumar'
tp538
a(S'100003814890630'
S'Abhishek Agrawal'
tp539
a(S'1711043330'
S'Ashu Desai'
tp540
a(S'536903625'
S'Pankaj Jaiswal'
tp541
a(S'100000275781179'
S'Samkalp Nalini Sachdeva Samkalp'
tp542
a(S'1029713428'
S'Sandip Garg'
tp543
a(S'635864143'
S'Rajesh Dutt Bajpai'
tp544
a(S'1428332344'
S'Laxmi Narayan Pant'
tp545
a(S'1632931953'
S'Mudit Nagpal'
tp546
a(S'100002313772059'
S'Tanisha Tekriwal'
tp547
a(S'528945110'
S'Parish Tekriwal'
tp548
a(S'24100871'
S'Tanuuj More'
tp549
a(S'100001549771677'
S'Venkatesh Kandi'
tp550
a(S'1089767009'
S'Brajesh Jha'
tp551
a(S'1700367100'
S'Vinod Tanwani'
tp552
a(S'793771854'
S'Alpesh Parmar'
tp553
a(S'100000855635738'
S'Navya Mittal'
tp554
a(S'1001844085'
S'Rohit Raj'
tp555
a(S'1415598660'
S'Sunil Ojha'
tp556
a(S'100002206330645'
S'Sapna Agrawal'
tp557
a(S'1061360838'
S'Shankar Jha'
tp558
a(S'100000277384041'
S'Alpana Sanghai'
tp559
a(S'100001112925097'
S'Prashanth Boppana'
tp560
a(S'612704316'
S'Abhinav Gupta'
tp561
a(S'100001275327786'
S'Rajneesh Arvind'
tp562
a(S'1789942232'
S'Vinod Kumar'
tp563
a(S'100000714735481'
S'Sanjeev Dev'
tp564
a(S'100000197785575'
S'Vikas Garg'
tp565
a(S'100004897026974'
S'Anita Tulsyan'
tp566
a(S'100000522897382'
S'Bosco Mangaal'
tp567
a(S'100000436966083'
S'Krishna Krapa'
tp568
a(S'100001923570915'
S'Jay Raj'
tp569
a(S'647154513'
S'Pranjal More'
tp570
a(S'1653387014'
S'Ilavarasi Mathivanan'
tp571
a(S'1140524850'
S'Sanjeev Singh'
tp572
a(S'100000759077890'
S'Sameer Srivastava'
tp573
a(S'100000129832968'
S'B.k. Shukla'
tp574
a(S'1797366940'
S'Santosh Kumar Jain'
tp575
a(S'100002234922577'
S'Arbind Goyal'
tp576
a(S'100001486057514'
S'Firoze Hussain'
tp577
a(S'1376457439'
S'Bhanwar Singh Ratnoo'
tp578
a(S'1131925970'
S'Prakash Magdum'
tp579
a(S'1017731794'
S'Rajendra Kumar Agrawal'
tp580
a(S'100000472116635'
S'Pradumna Singh'
tp581
a(S'1052821370'
S'Ajay Kumar'
tp582
a(S'716384027'
S'Purushottam Kumar'
tp583
a(S'100001338442365'
S'Sanjay Kumar'
tp584
a(S'100002390967050'
S'Manoj Rajak'
tp585
a(S'573648308'
S'Sanjeeb Patjoshi'
tp586
a(S'100000981876788'
S'Dharm Veer Singh'
tp587
a(S'1548605393'
S'Satish Sharma'
tp588
a(S'1611215025'
S'Naresh Mehta'
tp589
a(S'747699393'
S'Rajkumar Makwana'
tp590
a(S'1576595514'
S'Subhash Mittal'
tp591
a(S'1201064635'
S'Vinod K Tripathi'
tp592
a(S'1470785623'
S'Sunil KumarJha'
tp593
a(S'664693669'
S'Nimisha Agrawal Santhalia'
tp594
a(S'100000333020286'
S'Supratim Sarkar'
tp595
a(S'1771136602'
S'Omendra Bhaskar'
tp596
a(S'100000364395443'
S'Debasish Biswas'
tp597
a(S'1251675189'
S'Munish Kr Gupta'
tp598
a(S'575746233'
S'Vijay Sakhare'
tp599
a(S'599311558'
S'Kamlesh Mishra'
tp600
a(S'1777999390'
S'Ramendra Vishwakarma'
tp601
a(S'1683665350'
S'Bhuvnesh Kulshrestha'
tp602
a(S'1797605671'
S'Gopesh Agrawal'
tp603
a(S'547568385'
S'Swati Agrawal'
tp604
a(S'100000889490938'
S'Gururaj Rao'
tp605
a(S'755841164'
S'Puneet Gulati'
tp606
a(S'679093791'
S'Shirish Jain'
tp607
a(S'100000935144638'
S'Anil Chhapolia'
tp608
a(S'100001928031596'
S'Kumar Ajeet'
tp609
a(S'674857600'
S'Vijay Singhal'
tp610
a(S'100002134267667'
S'Amit Bobde'
tp611
a(S'1014527879'
S'Anadee Nath Misshra'
tp612
a(S'688486560'
S'Aparna Vasa'
tp613
a(S'100002367612016'
S'Santosh Dutta'
tp614
a(S'1156017995'
S'Sushil Madhuk'
tp615
a(S'731057544'
S'Nivedita Biswas'
tp616
a(S'1230786807'
S'Kamal K Tiwari'
tp617
a(S'100000854317180'
S'Rajeshwar Yadav'
tp618
a(S'100000343482916'
S'Prayag Jha'
tp619
a(S'1037781074'
S'Denny Panakal'
tp620
a(S'100000147067292'
S'Dhruva Thakur'
tp621
a(S'100003875614565'
S'Prakash Kishinchandani'
tp622
a(S'100001254351262'
S'Kajal Garg'
tp623
a(S'100001067146284'
S'Har Sahay Meena'
tp624
a(S'732613655'
S'Sushil Dhanuka'
tp625
a(S'1247193851'
S'Ravi Deepti Rajgarhia'
tp626
a(S'100001752084617'
S'Sangeeta Agrawal'
tp627
a(S'100003656924229'
S'Seema Santhalia'
tp628
a(S'1179104734'
S'Devendra Swaroop Saksena'
tp629
a(S'691468130'
S'Prabhat Mahapatra'
tp630
a(S'650808255'
S'Vishal Agarwal'
tp631
a(S'100003779713642'
S'Neeraj Kumar Srivastava'
tp632
a(S'100001533846956'
S'Jeetesh Nagori'
tp633
a(S'1546204039'
S'Manpreet Arya'
tp634
a(S'698948311'
S'Pooja Shukla'
tp635
a(S'100003592641519'
S'Anshika Agrawal'
tp636
a(S'1532567953'
S'Garima Lohani Bhagat'
tp637
a(S'823488501'
S'Sobhan Kar'
tp638
a(S'100003091827776'
S'Manish Kumar Agarwal'
tp639
a(S'1742911317'
S'Elamurugu Govindarajan'
tp640
a(S'892675044'
S'Megha Tekriwal'
tp641
a(S'1396194049'
S'Vidyadhar Shetty'
tp642
a(S'100000035288462'
S'Himanshu Shekhar Sinha'
tp643
a(S'100000619491617'
S'Milind Bhusari'
tp644
a(S'1127223228'
S'Kishore Bommaji'
tp645
a(S'1191294859'
S'Rajesh Agrawal'
tp646
a(S'653462978'
S'Sanjay Singh'
tp647
a(S'1412190924'
S'Somogyan Pal'
tp648
a(S'1439492425'
S'Sunil Kumar Mall'
tp649
a(S'100000408166233'
S'Abilash Alagapudi'
tp650
a(S'613177531'
S'Malav Patel'
tp651
a(S'1215131409'
S'Vijayanand Bagewadi'
tp652
a(S'571911683'
S'Naresh Poddar'
tp653
a(S'100000283899398'
S'Satish Dodda'
tp654
a(S'100002116154677'
S'Sujit Kumar'
tp655
a(S'1016325388'
S'Mohan Kumar Singhania'
tp656
a(S'1418005428'
S'Namita K. Ravi'
tp657
a(S'1215128536'
S'Aanchal Jain'
tp658
a(S'1128641877'
S'Mayank Sharma'
tp659
a(S'100000264490376'
S'Govind Manish'
tp660
a(S'100004051983790'
S'Pratap Agrawal'
tp661
a(S'100000883057900'
S'Yagyesh Dwivedi'
tp662
a(S'1006035303'
S'Arbind Pandey'
tp663
a(S'573788026'
S'Rakesh Kumar Mishra'
tp664
a(S'100004052777408'
S'V.k. Meena'
tp665
a(S'763960071'
S'Ashish Heliwal'
tp666
a(S'100000201311755'
S'Alok Tripathi'
tp667
a(S'100000965068313'
S'Anuradha Dalmia'
tp668
a(S'100000340416663'
S'Sajjad Shaikh'
tp669
a(S'1051128328'
S'Atul Kumar Agrawal'
tp670
a(S'100000506047337'
S'Basant Kumar Dalmia'
tp671
a(S'1768257123'
S'Rashmita Jha'
tp672
a(S'1480530641'
S'Sree Kar'
tp673
a(S'1499851960'
S'Birva Patel'
tp674
a(S'574887945'
S'Alikana Sivannarayana Murthy'
tp675
a(S'1441516815'
S"Ravi 'n' Ranjana Mohanka"
tp676
a(S'572647969'
S'Kedia Rajeshkumar'
tp677
a(S'100000284171707'
S'Sanjay Bara'
tp678
a(S'100001495058437'
S'Abhijit Sircar'
tp679
a(S'100000787736306'
S'Manoj Kumar'
tp680
a(S'550959228'
S'Siddhartha Agrawal'
tp681
a(S'1420061376'
S'Jitendra Pratap Singh'
tp682
a(S'613362458'
S'Chanda Pandit'
tp683
a(S'1434114351'
S'Manas Mehrotra'
tp684
a(S'1496400927'
S'Shyam Benupani'
tp685
a(S'591654428'
S'Davidson Devasirvatham'
tp686
a(S'100000461237365'
S'Ashishkumar Amin'
tp687
a(S'717657784'
S'Viv Nangia'
tp688
a(S'594583797'
S'Ayush Bajoria'
tp689
a(S'100000561901527'
S'Anjani Pandey'
tp690
a(S'625937283'
S'Amrish Patel'
tp691
a(S'100001532962115'
S'Hardeep Singh Batra'
tp692
a(S'793482919'
S'Sparsh Tekriwal'
tp693
a(S'1183713198'
S'Harsh Sultania'
tp694
a(S'1388449524'
S'Sunil Kalagond'
tp695
a(S'100000523543838'
S'Kunj Pansari'
tp696
a(S'100000097980083'
S'Prathvi Raj'
tp697
a(S'1167691795'
S'Sanjeev Hans'
tp698
a(S'100000071808940'
S'Banita Naorem'
tp699
a(S'100003498819400'
S'Shivrajdeo Prasad'
tp700
a(S'100002695286406'
S'Tushika Kamalia'
tp701
a(S'100003302538682'
S'Artee Pranay'
tp702
a(S'100000001180862'
S'Vikram Sankhala'
tp703
a(S'100001219196763'
S'Sunil Umap'
tp704
a(S'100001852731672'
S'Manas Mondal'
tp705
a(S'100000111987868'
S'Shridhar Kalyanshetti'
tp706
a(S'100000919335903'
S'Mahesh Laddha'
tp707
a(S'100000442145599'
S'Arun Kumar Tiwari'
tp708
a(S'100001972581782'
S'Hitendra Rathod'
tp709
a(S'782473554'
S'Archanaa Shah'
tp710
a(S'100004197759711'
S'Sanjay Singh'
tp711
a(S'100001819502731'
S'Chandrasekar Lakshmanan'
tp712
a(S'100003683194825'
S'Amrita Singh'
tp713
a(S'100000743567604'
S'Arvind Madhavan'
tp714
a(S'100001044755749'
S'Leena Mittal'
tp715
a(S'100003843294385'
S'Rahul Tulsyan'
tp716
a(S'100001179673860'
S'Ravi Chaturvedi'
tp717
a(S'1167601858'
S'Mita Amin'
tp718
a(S'100001196074045'
S'Ajay Jalli'
tp719
a(S'100000745444057'
S'Rajesh Mahajan'
tp720
a(S'100000353166111'
S'Anurag Vardhan'
tp721
a(S'1057246996'
S'Manish Tibrewal'
tp722
a(S'100002213525051'
S'Nikhil Agrawal'
tp723
a(S'733560951'
S'Abhinav Kumar'
tp724
a(S'788572499'
S'Prashant Nayak'
tp725
a(S'100004410344348'
S'Haresh Jani'
tp726
a(S'100001681252194'
S'Kalpana Kataria'
tp727
a(S'1607921652'
S'Shri Prakash Dubey'
tp728
a(S'567048971'
S'Mahabir Prasad'
tp729
a(S'746746857'
S'Kesang Yangzom Sherpa'
tp730
a(S'100000014564778'
S'Anshul Mishra'
tp731
a(S'100002177499134'
S'Divisha Mittal'
tp732
a(S'1361510792'
S'Srinivas Gurazada'
tp733
a(S'100001415927655'
S'Dinesh Patwari'
tp734
a(S'100000587382744'
S'Deepi Agrawal'
tp735
a(S'100000638230583'
S'Krishan K Khadaria'
tp736
a(S'1218107595'
S'Arun C. Bharat'
tp737
a(S'100002071908191'
S'Jaya Singh Chauhan'
tp738
a(S'100000180693300'
S'Ashish Vachhani'
tp739
a(S'1136704414'
S'Md Shadab Ahmed'
tp740
a(S'1382210275'
S'Dev Raj Dev Ias'
tp741
a(S'812037607'
S'Rajendra Kumar'
tp742
a(S'1844194497'
S'Satya Prasant P'
tp743
a(S'567133114'
S'Rihan Khan Suri'
tp744
a(S'1024213718'
S'Vijay Basani'
tp745
a(S'1079475532'
S'Ritesh Patel'
tp746
a(S'100000106038490'
S'David Ravi Kumar'
tp747
a(S'597661686'
S'Rajah Balaji'
tp748
a(S'708866478'
S'Amit Gupta'
tp749
a(S'100001167068627'
S'Yogender Chaudhry'
tp750
a(S'100000084515183'
S'Shreya Tekriwal'
tp751
a(S'100000120010118'
S'Bhupendra Anant'
tp752
a(S'1807947248'
S'Madhukar Bhagat'
tp753
a(S'100000526207696'
S'Pranav Trivedi'
tp754
a(S'1287318712'
S'Naresh Balodia'
tp755
a(S'100000055052127'
S'Sunil Kumar Singh'
tp756
a(S'686794821'
S'Saurabh Narain'
tp757
a(S'1013810633'
S'Rajeev Kumar'
tp758
a(S'591772566'
S'Vaishali Patel Shah'
tp759
a(S'1155701436'
S'Namita Goyal'
tp760
a(S'1085090391'
S'Vishal Nair'
tp761
a(S'1519129577'
S'Amit Agarwal'
tp762
a(S'1325143421'
S'Rangnath Jha'
tp763
a(S'100004169677931'
S'Bhagwati Prasad Agarwal'
tp764
a(S'1766723569'
S'Smita Kanodia'
tp765
a(S'734608651'
S'Anadee Nath Misshra'
tp766
a(S'100003562054431'
S'Vamsidhar Reddy'
tp767
a(S'100001350115423'
S'Chandip Singh'
tp768
a(S'1100703227'
S'Raman Kant Garg'
tp769
a(S'1183538182'
S'Mg Dinesh'
tp770
a(S'1307102675'
S'Vivek Priyadarshi'
tp771
a(S'1112834612'
S'Rabi Narayan Dash'
tp772
a(S'100001663233336'
S'Shukracharya Jadhav Irs'
tp773
a(S'100000561583883'
S'Viral Rajyaguru'
tp774
a(S'766000127'
S'Trishla Sumit Singhania'
tp775
a(S'1790097807'
S'Lakshman Gugulloth'
tp776
a(S'1497690573'
S'Sanjeev Sharma'
tp777
a(S'100001120930467'
S'Rajesh Pandey'
tp778
a(S'100002633194966'
S'Manish Acharya'
tp779
a(S'100003067805564'
S'Bec Bgk'
tp780
a(S'100003100575149'
S'Ashok Huggi'
tp781
a(S'1663555445'
S'Dhvani Jateen Gupta'
tp782
a(S'725534271'
S'Devang Patel'
tp783
a(S'100001866832751'
S'Santosh Navalur'
tp784
a(S'1124260720'
S'Vivek Upadhyay'
tp785
a(S'1388771774'
S'Hemantkumar Chimanlal Leuva'
tp786
a(S'1057808456'
S'Ramesh Narain Parbat'
tp787
a(S'100004243170236'
S'Aneeta Nagpal'
tp788
a(S'1119197888'
S'Ashwini Kumar'
tp789
a(S'100000501634353'
S'Sunita Loyalka'
tp790
a(S'1024514415'
S'Deepak Kedia'
tp791
a(S'100000467761874'
S'Vinod Patil'
tp792
a(S'100000538775462'
S'Manvendra Goyal'
tp793
a(S'100004555681614'
S'Dileep Kumar Shukla'
tp794
a(S'1294811900'
S'Naren Jangpangi'
tp795
a(S'100002394535921'
S'Vivek Tekriwal'
tp796
a(S'1012164890'
S'Ramesh Kumar Sudhanshu'
tp797
a(S'100000938818243'
S'Hari Shekaran'
tp798
a(S'100000633777683'
S'Syed Naiyer Ali Najmi'
tp799
a(S'688072801'
S'Sameer Sharma'
tp800
a(S'1420417243'
S'Suman Dalmia'
tp801
a(S'100001279907957'
S'\\u091a\\u0928\\u094d\\u0926\\u094d\\u0930 \\u092a\\u094d\\u0930\\u0915\\u093e\\u0936 \\u092e\\u0940\\u0928\\u093e'
tp802
a(S'571877896'
S'Saurabh Trivedi'
tp803
a(S'100005560471084'
S'Bijal Mehta'
tp804
a(S'100003720210393'
S'Venu Gopal'
tp805
a(S'1351275734'
S'Prem Chandra Maurya'
tp806
a(S'100001216211173'
S'Anil Kumar'
tp807
a(S'100001165795992'
S'Sachin Arora'
tp808
a(S'100001008121127'
S'Ashok Choudhary'
tp809
a(S'100001519868452'
S'Kantilal Dande'
tp810
a(S'646083477'
S'Ritesh Ranjan'
tp811
a(S'100001254324801'
S'Mayank Chauhan'
tp812
a(S'100001208804644'
S'Sandeep Sultania'
tp813
a(S'100000097011164'
S'Ajay Singh Chauhan'
tp814
a(S'1427913667'
S'Meeta Singh'
tp815
a(S'100002135127685'
S'Bipin Sher Singh'
tp816
a(S'100001865229766'
S'Rakhee Agarwal'
tp817
a(S'100000896373044'
S'Deepak Vora'
tp818
a(S'100000120359430'
S'Seema Agarwal'
tp819
a(S'1432985261'
S'Kunal Satyarthi'
tp820
a(S'100001250923545'
S'\\u0930\\u093e\\u0923\\u093e \\u0930\\u093e\\u091c \\u0915\\u0947. \\u0938\\u093f\\u0902\\u0939'
tp821
a(S'100001335955243'
S'Deepak Mittal'
tp822
a(S'1506104522'
S'Kitto Zhimomi'
tp823
a(S'1464554961'
S'Pashupati N Pandey'
tp824
a(S'100002611225301'
S'Jayant Tripathi'
tp825
a(S'100001654128180'
S'Yogendra Gaiha'
tp826
a(S'100000366334989'
S'Vivek Sharma'
tp827
a(S'100002994090589'
S'Anoj Barbaria'
tp828
a(S'100003399317299'
S'Shambhunath Kataruka'
tp829
a(S'100004709978351'
S'Vaibhav Kanodia'
tp830
a(S'585202636'
S'Keshav Chandra'
tp831
a(S'100002508813561'
S'Shishir Tekriwal'
tp832
a(S'100001130414357'
S'Swatantra Kumar'
tp833
a(S'771744269'
S'Mahipal Vala'
tp834
a(S'730625378'
S'Siddhartha Shankar Panda'
tp835
a(S'1277236948'
S'Ansuman Pattnaik'
tp836
a(S'100003881642609'
S'Surendra Fatehpuria'
tp837
a(S'100005570135720'
S'Venu Gopal'
tp838
a(S'100002273231070'
S'Bacchusingh Meena'
tp839
a(S'100001190795989'
S'Prateek Tekriwal'
tp840
a(S'547194080'
S'Sujoy Banerjee'
tp841
a(S'100005468919276'
S'Raj Kumar Pugalia'
tp842
a(S'1455229897'
S'Sunil Kumar Singh'
tp843
a(S'100002757476291'
S'Madhusudhan Reddy JV'
tp844
a(S'100001461331030'
S'Seema Agarwal'
tp845
a(S'1128570682'
S'Sonmoni Borah'
tp846
a(S'678106256'
S'Ritika Bhatia'
tp847
a(S'100000135552022'
S'Basavaraj Patil'
tp848
a(S'1440440689'
S'Rakesh Sultania'
tp849
a(S'661770196'
S'Dhananjay Kumar'
tp850
a(S'100003230087755'
S'Tolaram Mittal'
tp851
a(S'1358205707'
S'Uma Venkatesan'
tp852
a(S'100003990001239'
S'Anuradha Sudhanshu'
tp853
a(S'1693095634'
S'Vinta Srinivas Reddy'
tp854
a(S'1122336447'
S'Maya Jaju Maheshwari'
tp855
a(S'100000701050456'
S'Shubhra Somani'
tp856
a(S'638394213'
S'Sanjib Dey'
tp857
a(S'1148349076'
S'Rakhee Gupta'
tp858
a(S'100001285624092'
S'Poonam Shukla'
tp859
a(S'1622147277'
S'Harsh Agrawal'
tp860
a(S'1391916980'
S'Gaurav Kanaujia'
tp861
a(S'1023192461'
S'Vikash Bhartiya'
tp862
a(S'100001559931160'
S'Rabindra Agarwal'
tp863
a(S'539406123'
S'Sebastian James'
tp864
a(S'596356446'
S'Rajni Tekriwal'
tp865
a(S'100002282954557'
S'Shailendra Sharma'
tp866
a(S'100001542072340'
S'Raman Jha'
tp867
a(S'1293111796'
S'Anubhav Agrawal'
tp868
a(S'100004231093091'
S'Florista Lokhandwala'
tp869
a(S'1102600109'
S'Samir Kumar'
tp870
a(S'100001985016521'
S'Vijay Mangla'
tp871
a(S'1577575427'
S'Sachin Bhartiya'
tp872
a(S'100001319751574'
S'Garima Tulsyan'
tp873
a(S'100000049285123'
S'Bhupendra Singh Rao'
tp874
a(S'100000264401677'
S'Krish Minawala'
tp875
a(S'100000330572316'
S'Yadappa Kori'
tp876
a(S'529392560'
S'Niraj Shah'
tp877
a(S'100004000280811'
S'Brijlal Meena'
tp878
a(S'1595884912'
S'Sanjeev Sultania'
tp879
a(S'592871151'
S'Laksh Peram'
tp880
a(S'686828266'
S'Tarun Seem'
tp881
a(S'100000205929181'
S'Aman Dalmia'
tp882
a(S'749133437'
S'Yogesh Verma'
tp883
a(S'1084037439'
S'Sunit Kumar'
tp884
a(S'100000061561044'
S'Vijay Agrawal'
tp885
a(S'1354206523'
S'Amit Lodha'
tp886
a(S'705003987'
S'Tushar Dhawal Singh'
tp887
a(S'100002143757740'
S'Ramesh Danday'
tp888
a(S'1113747683'
S'Satish Kumar Garg'
tp889
a(S'1436463963'
S'Hemant Gera'
tp890
a(S'100000778673519'
S'Manoj Kumar'
tp891
a(S'100000189622986'
S'Pushpendra Singh'
tp892
a(S'635554067'
S'Dileep Kumar'
tp893
a(S'1716685482'
S'Shankar Jha'
tp894
a(S'1564164103'
S'Anil Kumar'
tp895
a(S'558510923'
S'Gyanesh Bharti'
tp896
a(S'100000917901029'
S'Amit Kumar'
tp897
a(S'527825901'
S'Himanshu Rai'
tp898
a(S'100002530303802'
S'Madhusudan Kodimyala'
tp899
a(S'100000114902835'
S'Mathivanan Manian'
tp900
a(S'1113797726'
S'Vivek Dutt'
tp901
a(S'100002702882463'
S'Ajit Singh'
tp902
a(S'1079453739'
S'Karun K Ojha'
tp903
a(S'100000316006534'
S'Yogesh Verma'
tp904
a(S'100001031269885'
S'Surender Pal'
tp905
a(S'100000266040148'
S'Vipul Aggarwal'
tp906
a(S'100002885602871'
S'Mahipal Yadav'
tp907
a(S'100000654342911'
S'Shikha Fatehpuria'
tp908
a(S'1491090648'
S'Swati Kedia'
tp909
a(S'100000651271558'
S'Sonika Agrawal'
tp910
a(S'100000813233702'
S'Jasbir Chouhan'
tp911
a(S'707279394'
S'Mahua Sarkar'
tp912
a(S'100002020612984'
S'Chandraprakash Saroj'
tp913
a(S'100000731025624'
S'Yagyesh Raghuvanshi'
tp914
a(S'717113972'
S'Ashish Kundra'
tp915
a(S'100002278956874'
S'Shashi Prasad'
tp916
a(S'100003013459464'
S'Ajay Santhalia'
tp917
a(S'100005787486744'
S'Sharad Tulsyan'
tp918
a(S'100001963035825'
S'Gm Doss'
tp919
a(S'1668777333'
S'Sangam Srivastava'
tp920
a(S'100001863334344'
S'D Obby Sonthalia'
tp921
a(S'100000685852908'
S'Vijay Kulkarni'
tp922
a(S'100001199293556'
S'Ibc Mindware'
tp923
a(S'1340474143'
S'Prasad Reddy'
tp924
a(S'100000344891956'
S'Suresh Pransukhka'
tp925
a(S'1182128445'
S'Dinesh Badagandi'
tp926
a(S'633209247'
S'Vineet Agrawal'
tp927
a(S'1742761483'
S'Sanjay Kumar'
tp928
a(S'100004519093127'
S'Girish Pande'
tp929
a(S'703662158'
S'Maneesh Kumar'
tp930
a(S'100004003553955'
S'Sushil Pransukhka'
tp931
a(S'100001484205123'
S'Rajesh Ranjan Prasad'
tp932
a(S'1567385476'
S'Yagya Dutt Sharma'
tp933
a(S'574340896'
S'Brijesh Singh'
tp934
a(S'100001956117610'
S'Subhakant Sahu'
tp935
a(S'738245834'
S'Abhay Damle'
tp936
a(S'1471515624'
S'Rajat Chhabra'
tp937
a(S'100000328975078'
S'LK Agarwal'
tp938
a(S'602525943'
S'Abhilasha Bisht'
tp939
a(S'100000292941945'
S'Rajesh Kumar Jaiswal'
tp940
a(S'100000695984426'
S'Rohan Agrawal'
tp941
a(S'100000403288439'
S'Sanjay Shahi'
tp942
a(S'100006510458785'
S'Navin Khetan'
tp943
a(S'618678060'
S'Surabhi Mehta'
tp944
a(S'543760762'
S'Anand Kumar Kedia'
tp945
a(S'625135916'
S'Girish N Pande'
tp946
a(S'100004234239253'
S'Kamlesh Chandra Varshney'
tp947
a(S'100000413266353'
S'Sanghi Sri Hari Rao'
tp948
a(S'1813666911'
S'Ayush Mani Tiwari'
tp949
a(S'1154436203'
S'Manu Denny'
tp950
a(S'1515975708'
S'Dhirendra Lal'
tp951
a(S'1471010691'
S'Subhasish Panda'
tp952
a(S'100004519860539'
S'Deepak Rastogi'
tp953
a(S'100000308684249'
S'Shyam Sunder Gupta'
tp954
a(S'100000530232857'
S'Mangal Karkhanis'
tp955
a(S'100003867079745'
S'Narottam Mishra'
tp956
a(S'562981106'
S'Mamta Kochar'
tp957
a(S'100000477841995'
S'Vivek Ojha'
tp958
a(S'1149316464'
S'Sonam Saraf'
tp959
a(S'100001143871119'
S'Munna Ali Bisanal'
tp960
a(S'1439694499'
S'Munir Thakor'
tp961
a(S'1508381174'
S'Nived Varma'
tp962
a(S'100003537026262'
S'Manoj Ghosh'
tp963
a(S'100000809324528'
S'Jayanand Rotti'
tp964
a(S'638815048'
S'Rina Akoijam'
tp965
a(S'825870827'
S'Sandeep Raj'
tp966
a(S'1088921332'
S'Sangram R Gaikwad'
tp967
a(S'750045501'
S'Sridhar Guntupalli'
tp968
a(S'100001108930597'
S'Shyamal Agrawal'
tp969
a(S'1814900707'
S'Raghu Pervela'
tp970
a(S'100001356223146'
S'Rajeev Soham'
tp971
a(S'100004825902431'
S'Manasvi Kamalia'
tp972
a(S'711624692'
S'Rahul Singh'
tp973
a(S'100001784335295'
S'Ramesh Abhishek'
tp974
a(S'1268415419'
S'Sangeeta Singh'
tp975
a(S'100001867883851'
S'Saurav Modi'
tp976
a(S'1423512455'
S'Archana Sharma'
tp977
a(S'100000197127458'
S'Nagi Reddy Yaram'
tp978
a(S'100000448412637'
S'Sanjeev Jaiswal'
tp979
a(S'608181981'
S'Shalu Tekriwal'
tp980
a(S'100000450150558'
S'Kj Singh'
tp981
a(S'1800017582'
S'Arun Bagaria'
tp982
a(S'100002491293556'
S'Avanish Kumar Singh'
tp983
a(S'1137571482'
S'Uma Shankar Dhyani'
tp984
a(S'100001229275130'
S'Manoj Kamalia'
tp985
a(S'100001326456019'
S'Mukesh Kumar'
tp986
a(S'100000895052165'
S'Faizi Hashmi'
tp987
a(S'100000970698638'
S'Rishiraj Yadav'
tp988
a(S'100004633291108'
S'Seema Santhalia'
tp989
a(S'100002031437293'
S'Madhukar Baloji'
tp990
a(S'100001649166402'
S'Vinod Kumar'
tp991
a(S'1459954530'
S'Shantanu Dhamija'
tp992
a(S'100000159486283'
S'Ashok Jha'
tp993
a(S'100000671967433'
S'Anurag Prasad'
tp994
a(S'100001422057168'
S'Bimal P Srivastava'
tp995
a(S'100000671656072'
S'Pradeep Sharma'
tp996
a(S'1427071599'
S'Ashok Bal'
tp997
a(S'813791987'
S'Rajeev Kesarwani'
tp998
a(S'1062541387'
S'Rajgopal Sharma'
tp999
a(S'100000883894037'
S'Jyoti Moda'
tp1000
a(S'100004447211479'
S'Shivani Tekriwal Kamalia'
tp1001
a(S'100001902715727'
S'Raghuram Salgundi'
tp1002
a(S'748471863'
S'Manish Ranjan'
tp1003
a(S'1400758435'
S'Sajani Fozdar Shah'
tp1004
asS'id'
p1005
S'574502956'
p1006
s.