(dp1
S'friends'
p2
(lp3
(S'502124372'
S'Yuvavir Singh Kadyan'
tp4
a(S'821247305'
S'Pia Chatterjee'
tp5
a(S'515826128'
S'Mitul Verma'
tp6
a(S'524442783'
S"Yvonne O'Reilly"
tp7
a(S'755683176'
S'Aishwarya Chawla'
tp8
a(S'693139237'
S'Amaan Mohd'
tp9
a(S'700565199'
S'Jaivir S Sandhu'
tp10
a(S'1246650716'
S'Rahil Verma'
tp11
a(S'546990778'
S'Danish Faruqi'
tp12
a(S'537990511'
S'Arushi Agarwal'
tp13
a(S'1467550250'
S'Ritika Chaudhury'
tp14
a(S'657082514'
S'Rishabh Tandon'
tp15
a(S'100000344754112'
S'Aryaman Dalmia'
tp16
a(S'1348180615'
S'Varisht Raheja'
tp17
a(S'100000144990864'
S'Mehr Bindra'
tp18
a(S'100003394063298'
S'Pranavi Sethi'
tp19
a(S'100000078965609'
S'Nirbhay Odonkor Bakshi'
tp20
a(S'3430393'
S'Crystal Cheng'
tp21
a(S'694142656'
S'Scott Sherman'
tp22
a(S'726571001'
S'Mehul Atree'
tp23
a(S'1362330050'
S'Ankit Shah'
tp24
a(S'676745076'
S'Mar\\u00eda Paulina Baena'
tp25
a(S'717549078'
S'Karan Vombatkere'
tp26
a(S'517199932'
S'Andrew C. Ruigrok'
tp27
a(S'13605810'
S'Natasha Walia'
tp28
a(S'729089878'
S'Arman Anand'
tp29
a(S'518098640'
S'Sonali Thapar'
tp30
a(S'717334736'
S'Sruthi Sunder'
tp31
a(S'516558857'
S'Shamyla Majeed'
tp32
a(S'509564345'
S'Bharat Kaushish'
tp33
a(S'610547703'
S'Karishma Joseph'
tp34
a(S'560600564'
S'Karanvir Singh'
tp35
a(S'688100289'
S'Sultan Ali Ahmed'
tp36
a(S'515911298'
S'Emily Ruth'
tp37
a(S'559915505'
S'Ava Yazdani'
tp38
a(S'1258188054'
S'Sonakshi Kothary'
tp39
a(S'741253355'
S'Abhishek Dhawan'
tp40
a(S'100000142728462'
S'Devika Vohra'
tp41
a(S'7501597'
S'Dylan Gasperik'
tp42
a(S'572560045'
S'Tarannum Marya'
tp43
a(S'512318908'
S'Sameer Gujral'
tp44
a(S'896160014'
S'Sanditi Gargya'
tp45
a(S'534201299'
S'Mitwa Sharma'
tp46
a(S'578395223'
S'Vishal Jeet'
tp47
a(S'556620033'
S'Georgia Quartermaine'
tp48
a(S'759060458'
S'Shomari Powell'
tp49
a(S'596423344'
S'Marzena Zukowska'
tp50
a(S'7700077'
S'Christina Synowiec'
tp51
a(S'549251661'
S'Aditi Bhowmick'
tp52
a(S'609832596'
S'Usman Bin Shahid'
tp53
a(S'1264295867'
S'Chaitanya Hari Singhania'
tp54
a(S'89907472'
S'Amit Kumta'
tp55
a(S'632331428'
S'Dilkash Kapur'
tp56
a(S'532330197'
S'Yasir Siddiqi'
tp57
a(S'735545478'
S'Naim Goulamhoussen'
tp58
a(S'530001415'
S'Supriya Subudhi'
tp59
a(S'100001920328228'
S'Nandita Sood'
tp60
a(S'549475612'
S'Chaity Tarafder'
tp61
a(S'1237094312'
S'Renu Robin Matharu'
tp62
a(S'1432346405'
p63
S'Rabia Sohaib'
tp64
a(S'758120622'
S'Varun Korla'
tp65
a(S'503709344'
S'Sanil Makhija'
tp66
a(S'30600118'
S'Katrina Gordon'
tp67
a(S'1419249346'
S'Pooja Tyagi'
tp68
a(S'1105306837'
S'Navraj Singh'
tp69
a(S'100001519093721'
S'Jadayah Spencer Muhammad'
tp70
a(S'1283541394'
S'Adhiraj Mathur'
tp71
a(S'511655503'
S'Saif Manzoor Bhatti'
tp72
a(S'606113708'
S'Joanne V\\u00e1zquez'
tp73
a(S'505941687'
S'Adeel Ahmed Naqvi'
tp74
a(S'100000053885581'
p75
S'Mahvash Akbar'
tp76
a(S'746087111'
S'Sabrina Butt'
tp77
a(S'100008268643852'
S'Abdullah Khan'
tp78
a(S'699965399'
S'Ali Shah Khawaja'
tp79
a(S'546690161'
S'Bhavya Bishnoi'
tp80
a(S'503648933'
S'Aiyesha Bahadur'
tp81
a(S'1223156267'
S'Raghav Mehta'
tp82
a(S'523130186'
S'Mariam Khan'
tp83
a(S'13618270'
S'Zahra Hudda'
tp84
a(S'689667775'
S'Maeda Zia'
tp85
a(S'1091108436'
S'Sidharth Sharan'
tp86
a(S'501123861'
S'Zaid Kerai'
tp87
a(S'505713142'
S'Divyesh Gandhi'
tp88
a(S'538230505'
S'Shamim Nooreyezdan'
tp89
a(S'502107391'
S'Sapna Sehravat'
tp90
a(S'561985860'
S'Shaquille Edwards'
tp91
a(S'1662051865'
S'Gyan Pratap Singh'
tp92
a(S'633116201'
S'Pranav Sharma'
tp93
a(S'514454895'
S'Samvid Gupta'
tp94
a(S'501695817'
S'Vijay Knight'
tp95
a(S'685170028'
S'Rishika Dhawan'
tp96
a(S'590546416'
S'Abad Yusuf'
tp97
a(S'13614623'
S'Abhay Oberoi'
tp98
a(S'514603653'
S'Arushi Kumar'
tp99
a(S'1759226558'
S'Shreya Kapoor'
tp100
a(S'1060896699'
S'Lewis Wai'
tp101
a(S'100005689119966'
S'UMentioned McGill'
tp102
a(S'647034350'
S'Sarah Omware'
tp103
a(S'514948742'
S'Rhea Sadh'
tp104
a(S'1156446125'
S'Ahaan Karha'
tp105
a(S'13612181'
S'Farhan Khawaja'
tp106
a(S'682830050'
S'Sachiko Joy Khiva'
tp107
a(S'921689'
S'Jesus Panagiotis Kalergis'
tp108
a(S'4202827'
S'Shivani Siroya'
tp109
a(S'503555321'
S'Breanna Nicole Lewis'
tp110
a(S'617160017'
S'Nikhil Pandhi'
tp111
a(S'1016942607'
S'Amitaayu Varma'
tp112
a(S'273101304'
S'Uday Sethi'
tp113
a(S'627316295'
S'Zara Adil'
tp114
a(S'1247152709'
S'Anisha Anand'
tp115
a(S'540945051'
S'Mohammad Shaikh'
tp116
a(S'634580874'
S'Viraj Tuli'
tp117
a(S'1437955774'
S'Saihiel Bakshi'
tp118
a(S'556060260'
S'Madea Bouzinelos'
tp119
a(S'100000424621521'
S'Ehsan Malik'
tp120
a(S'1539758530'
S'Pranati Kohli'
tp121
a(S'100001920080988'
S'Sidharth Sharan'
tp122
a(S'1416083795'
S'Richard Ridlon'
tp123
a(S'1030876983'
S'Ajitesh Singh'
tp124
a(S'1192999899'
S'Haider Ali'
tp125
a(S'516618425'
S'Upasana Periwal'
tp126
a(S'505842315'
S'Christian David Flores-Carignan'
tp127
a(S'100002873196449'
S'Upe Francisca Francisca Sanni'
tp128
a(S'505351782'
S'Charles Colle'
tp129
a(S'1161347750'
S'Mallika Kishore'
tp130
a(S'515151000'
S'Linda Inksa'
tp131
a(S'751480181'
S'Pranav Parasram'
tp132
a(S'641621513'
S'Usama Mela'
tp133
a(S'100001421138986'
S'DeepSound List'
tp134
a(S'100000753365096'
S'Khalid Elba'
tp135
a(S'519115502'
S'Akash Chopra'
tp136
a(S'675606172'
S'Tanya Bansal'
tp137
a(S'1230965902'
S'Noor Niyamat Anand'
tp138
a(S'510916200'
S'Naushera Malhotra Debu'
tp139
a(S'650414756'
S'Anderson Reed'
tp140
a(S'783670013'
S'Ankit Prasad'
tp141
a(S'712532311'
S'Rabia Kamal'
tp142
a(S'549428099'
S'Ganesh Poorani'
tp143
a(S'100000974861598'
S'Alisha Kapoor'
tp144
a(S'503497551'
S'Ishan Raghuvanshi'
tp145
a(S'635634805'
S'Jahan Jumbo Nargolwala'
tp146
a(S'1104870598'
S'Inayat Gill'
tp147
a(S'1674690004'
S'Harsh V Singh'
tp148
a(S'100001839557074'
p149
S'Rafia Murtaza'
tp150
a(S'574195156'
S'Nabiel Mir'
tp151
a(S'640195844'
S'Akash Jaggia'
tp152
a(S'1248025551'
S'Nivedita Kutty Vatsa'
tp153
a(S'690503810'
S'Mustufa Jan'
tp154
a(S'505786488'
S'Priya M'
tp155
a(S'581622353'
S'Sanjana Jain'
tp156
a(S'716675452'
S'Rashi Dhing'
tp157
a(S'4700611'
S'Ami Gosalia'
tp158
a(S'532020006'
S'Myra Khosa'
tp159
a(S'599063353'
S'Kalyani Day'
tp160
a(S'1705305'
S'Meredith Anderson-McDonald'
tp161
a(S'741693310'
S'Shireesh Srivastav'
tp162
a(S'772720380'
S'Rachel Luk'
tp163
a(S'1419724393'
S'Sanjana Takru'
tp164
a(S'618820240'
S'Vikram Kaleka'
tp165
a(S'1236456871'
S'Phil Dumais'
tp166
a(S'100001292026897'
p167
S'Azeemah Nakhoda'
tp168
a(S'629232801'
S'Radhana Raheja'
tp169
a(S'803808081'
S'Austin Schwadel'
tp170
a(S'554756495'
S'Jacqueline Lalor'
tp171
a(S'501617461'
S"Arun 'Rayn' Babber"
tp172
a(S'100000345837207'
S'Kushagra Aniket'
tp173
a(S'4800543'
S'Radiris Chichi Diaz'
tp174
a(S'1692247285'
S'Shreya Trivedi'
tp175
a(S'1223634'
S'Elaine Dang'
tp176
a(S'507859330'
S'Hamza Khan'
tp177
a(S'797645533'
S'Varun Puri'
tp178
a(S'550645113'
S'Rowhee Bhutta'
tp179
a(S'551374921'
S'Aayushi Mazol Barak'
tp180
a(S'516251832'
S'Nundrisha Wakhloo'
tp181
a(S'506924722'
S'Zev Bertini'
tp182
a(S'500861536'
S'Minal Anand'
tp183
a(S'1709908'
S'Sani Karam'
tp184
a(S'100001618185999'
S'Pranav Sachdeva'
tp185
a(S'641012351'
S'Mira Rajput'
tp186
a(S'503848998'
S'Arjun Bhalla'
tp187
a(S'1180667970'
S'Preenon Majumdar'
tp188
a(S'551124138'
S'Joseph Rucci'
tp189
a(S'1530847866'
S'Uday Tyke Talwar'
tp190
a(S'517666760'
S'Udai Arora'
tp191
a(S'100000569620677'
S'Dolminem Kipsnem'
tp192
a(S'100002052571018'
S'Hisham Janjua'
tp193
a(S'509976824'
S'Will Plow'
tp194
a(S'24801986'
S'Shaheen Mamawala'
tp195
a(S'505805518'
S'Aditi Chengappa'
tp196
a(S'504862776'
S'Purva Bhalla'
tp197
a(S'514216910'
S'Hamza Afzaal'
tp198
a(S'1245815109'
S'Ishaan Dhawan'
tp199
a(S'568022447'
S'AAshni Gandhi'
tp200
a(S'670119638'
S'Toshi Imabayashi'
tp201
a(S'613397971'
S'Elias K\\u00fchn von Burgsdorff'
tp202
a(S'10805400'
S'Priscilla Mu\\u00f1oz'
tp203
a(S'1319545109'
S'Karan Shrivastava'
tp204
a(S'1045560519'
S'Sydney Sherman'
tp205
a(S'572156215'
S'Shubh Mehra'
tp206
a(S'541200073'
S'Tayub Bilwani'
tp207
a(S'576580486'
S'Rhiday Bhandari'
tp208
a(S'1475903539'
S'Sanjna Mago'
tp209
a(S'516608996'
S'Keshav Kumar'
tp210
a(S'100000820665323'
S'Ayesh Fazal'
tp211
a(S'568562844'
S'Girvanyudh Sjb Rana'
tp212
a(S'617350034'
S'Ishaan Gill'
tp213
a(S'1130820067'
S'Rahul Pillay'
tp214
a(S'561225209'
S'Michael Pullen'
tp215
a(S'1522116530'
S'Arjun Gupta'
tp216
a(S'100000656045257'
S'Disha Arya'
tp217
a(S'610118523'
S'Animesh Irkulla'
tp218
a(S'1245799322'
S'Arushi Sawhney'
tp219
a(S'509966319'
S'Rocco Fas'
tp220
a(S'1165346233'
S'Anish Asthana'
tp221
a(S'818290087'
S'Subomi Olorunleke'
tp222
a(S'509497841'
S'Himmat Singh'
tp223
a(S'1072538190'
S'Elangkumaran Jayabarathi'
tp224
a(S'304003'
S'Matthew Fitzgerald'
tp225
a(S'1156312825'
S'Georges Delrieu'
tp226
a(S'533715174'
S'Pranav Sawhney'
tp227
a(S'539680573'
S'Juhi Bahl'
tp228
a(S'100005332782869'
S'Rishabh Joshi'
tp229
a(S'717135062'
S'Muhammad Nawaz Aslam'
tp230
a(S'538570229'
S'Mallika Pal'
tp231
a(S'602615252'
S'Mohammad Ali Hyat Khan'
tp232
a(S'889135191'
S'Aradhna Mangla'
tp233
a(S'1289529670'
S'Ricky Yu'
tp234
a(S'1666081730'
S'Roman F. Kehrberger'
tp235
a(S'1047075532'
S'Yesha Emmi'
tp236
a(S'1051215271'
S'Tenzin Varma'
tp237
a(S'1213936346'
S'Avie Kakkar'
tp238
a(S'560235001'
S'Joyjit Daw'
tp239
a(S'509821000'
S'Avani Rai'
tp240
a(S'1656394187'
S'Steve Caruso'
tp241
a(S'503778360'
S'Ankur Saxena'
tp242
a(S'539680570'
S'Ratan Dhawan'
tp243
a(S'572005576'
S'Aneesha Dass'
tp244
a(S'503138658'
S'Sehel Rao'
tp245
a(S'516707149'
S'Arushi Chak'
tp246
a(S'622165580'
S'Ellen Morgan'
tp247
a(S'849625404'
S'Nitish Vaid'
tp248
a(S'517653780'
S'Malema Ahrari'
tp249
a(S'510295302'
S'Sudhir Mishra'
tp250
a(S'672680089'
S'Anahitaa Bakshi'
tp251
a(S'3612303'
S'Christine Lai'
tp252
a(S'511199321'
S'Anuva Jain'
tp253
a(S'570050806'
S'Zab Jacovella R\\u00e9millard'
tp254
a(S'100001691550797'
S'Uma Sood'
tp255
a(S'510582364'
S'Kanika Wadhwa'
tp256
a(S'589490404'
S'Sarah-Lee Quamina'
tp257
a(S'1566720165'
S'Simone Laroche'
tp258
a(S'1039207164'
S'Shuchir Suri'
tp259
a(S'515513648'
S'Tiraana Bains'
tp260
a(S'1133250812'
S'Devashree Arora'
tp261
a(S'531808754'
S'Eugenio Juarez Coronado'
tp262
a(S'506521425'
S'Ayesha Naveed'
tp263
a(S'725089902'
S'Nishant Sharma'
tp264
a(S'661765021'
S'Andr\\u00e9s De Zulueta'
tp265
a(S'100003124013671'
S'Nikhil Srinidhi'
tp266
a(S'1071420045'
S'Malina Tea Tran'
tp267
a(S'40404784'
S'Anne Steeves'
tp268
a(S'581715894'
S'Shaurya \\u00d0hir'
tp269
a(S'570136185'
S'Justin Boyce'
tp270
a(S'630622022'
S'Sanjana Arora'
tp271
a(S'717650958'
S'Sanjam Sehgal'
tp272
a(S'578385156'
S'Ayesha Malik'
tp273
a(S'625226789'
S'Senthil Kumar B'
tp274
a(S'1324974578'
S'Shreya Matharu Munjral'
tp275
a(S'502820709'
S'Harris K. Aslam'
tp276
a(S'100001019525858'
S'Fawwad Hasan'
tp277
a(S'100002008675224'
S'Georges A. Papavasiliou'
tp278
a(S'100001465052656'
S'Frederic Morin-Bordeleau'
tp279
a(S'739868227'
S'Mihir Kumar'
tp280
a(S'1225470194'
S'Sahil Rahman'
tp281
a(S'776753592'
S'Priyamvada Dalmia'
tp282
a(S'524930505'
S'Tanvi Girotra'
tp283
a(S'500648477'
S'Shriman Narayan'
tp284
a(S'100000172391239'
S'Aarushi Kessar'
tp285
a(S'544250719'
S'Karan Makhija'
tp286
a(S'509551586'
S'Vaani Gaur'
tp287
a(S'633077348'
S'Samar Faisal'
tp288
a(S'647392328'
S'Vandinika Shukla'
tp289
a(S'310800420'
S'Stefanie Samsara Tschampel'
tp290
a(S'802394882'
S'Vincent Taylor Alton'
tp291
a(S'1249666516'
S'Angad Singh'
tp292
a(S'1440164011'
S'Amnay Sheel Khosla'
tp293
a(S'618090435'
S'Gopika Kapoor'
tp294
a(S'514577201'
S'Humzaa Ali Khan'
tp295
a(S'514694322'
S'Raghav Wadhwa'
tp296
a(S'514460635'
S'Sama Ali'
tp297
a(S'587997325'
S'Julian Donald'
tp298
a(S'1684625282'
S'Saniya Dinodia'
tp299
a(S'699971753'
S'Radhika Sundaresan'
tp300
a(S'517084131'
S'Aadhar Sharma'
tp301
a(S'514727171'
S'Valentina Restrepo Ospina'
tp302
a(S'580865249'
S'Damini Yarra Marwaha'
tp303
a(S'1429902235'
S'Rahul Sharma'
tp304
a(S'4403817'
S'William Van Heuvelen'
tp305
a(S'774825505'
S'Shubham Sindhwani'
tp306
a(S'512303008'
S'Shyamli Patel'
tp307
a(S'100000151237635'
S'Anna Babucke'
tp308
a(S'502250293'
S'Gregory Frank'
tp309
a(S'826830'
S'Jesse Sleamaker'
tp310
a(S'573410202'
S'Sukeshi Dalmia'
tp311
a(S'509666078'
S'Yashvi Shah'
tp312
a(S'515992192'
S'Amba Kak'
tp313
a(S'656382353'
S'Shaama Yousuf'
tp314
a(S'841345376'
S'Samantha Mascarenhas'
tp315
a(S'9806880'
S'Nadir Daudi'
tp316
a(S'17817989'
S'Ryan Anderson'
tp317
a(S'517803015'
S'Ryaan Balagamwala'
tp318
a(S'1814877242'
S'Inhee Love Ji'
tp319
a(S'1643971198'
S'Gunhad Singh Rangar'
tp320
a(S'11302874'
S'Charlotte Freeman'
tp321
a(S'100001092039446'
S'Ojasvi Goel'
tp322
a(S'509420681'
S'Kavya Bagga'
tp323
a(S'100001594548569'
S'Ig Ishan Gautam'
tp324
a(S'597970868'
S'Eshay Tobgyal'
tp325
a(S'513414955'
S'Mitali Sharan'
tp326
a(S'1117837557'
S'Carl Olson'
tp327
a(S'514803852'
S'Ahan Shehzad Ali'
tp328
a(S'602301328'
S'Yousuf Monnoo'
tp329
a(S'520640935'
S'Gautam Rayaprolu'
tp330
a(S'1034810986'
S'Vidya Govind Kumar'
tp331
a(S'1453292508'
S'Arnav Nath'
tp332
a(S'516185728'
S'Jai Oberoi'
tp333
a(S'505478497'
S'Jessica Makucka'
tp334
a(S'620600176'
S'Sumanth Sistla'
tp335
a(S'100000308500253'
S'Dhruv Kool Rajamani'
tp336
a(S'514316507'
S'Mehr Chopra'
tp337
a(S'1495533522'
S'Mechteld Ferment'
tp338
a(S'821045132'
S'Mukund Raghav Sharma'
tp339
a(S'1349003720'
S'Angad Singh'
tp340
a(S'543165236'
S'Aishwarya Bhalla'
tp341
a(S'629120214'
S'Srishti Kochhar'
tp342
a(S'778335712'
p343
S'Zamzam Hassan'
tp344
a(S'505032773'
S'Babek Sawhney'
tp345
a(S'1133061249'
S'Akshay Sharan'
tp346
a(S'100000293918502'
S'Burhan Awan'
tp347
a(S'1316946711'
S'Arushi Sahai'
tp348
a(S'1050839947'
S'Marta Milkowska'
tp349
a(S'505507130'
S'Sidhanth Rao'
tp350
a(S'500412154'
S'Claire-Marine Varin'
tp351
a(S'1354670152'
S'Wahaaj Ud Din'
tp352
a(S'577405690'
S'Rachit Duggal'
tp353
a(S'501058087'
S'Anjali Chandrashekar'
tp354
a(S'552552749'
S'Soham Shiva'
tp355
a(S'516504818'
S'Adam S. Poswolsky'
tp356
a(S'506099160'
S'Neysan Khabirpour'
tp357
a(S'734306678'
S'Prachi Trehan'
tp358
a(S'908331'
S'Grisel Caicedo'
tp359
a(S'576215345'
S'Sanjana Malhotra'
tp360
a(S'1058412498'
S'George Frederic Kamituga Kibala-Bauer'
tp361
a(S'100000097245808'
S'Soumya Gupta'
tp362
a(S'592201619'
S'Ishita Mehta'
tp363
a(S'1215896537'
S'Shaurya Tomer'
tp364
a(S'704336336'
S'Tanvie Hans'
tp365
a(S'595957433'
S'Vikramaditya Kapur'
tp366
a(S'100001602650720'
S'Sarah Sarin'
tp367
a(S'547927331'
S'Advika Gupta'
tp368
a(S'541730225'
S'Hoor Ali'
tp369
a(S'100002223121110'
S'Yuvraj M Shandilya'
tp370
a(S'559120242'
S'Kwang-Jin Lim'
tp371
a(S'1372800309'
S'Sahar Massachi'
tp372
a(S'100000519911269'
S'Hasan Bin Ayaz'
tp373
a(S'643535282'
S'Etan Brandt-Finell'
tp374
a(S'626025533'
S'Nikhil Sehgal'
tp375
a(S'783832936'
S'Donald Sproule'
tp376
a(S'510854780'
S'Meher Eva Sondhi'
tp377
a(S'801860696'
S'Hayley Renee'
tp378
a(S'1071420082'
S'Connie Yang'
tp379
a(S'554897844'
S'Mariam Saad'
tp380
a(S'514176383'
S'Jai Seth'
tp381
a(S'512970925'
S'Manit Bharany'
tp382
a(S'1177003853'
S'Prakruti Nanda'
tp383
a(S'506782767'
S'Jassinth Thiagarajah'
tp384
a(S'1470436996'
S'Vivan Marwaha'
tp385
a(S'510557327'
S'Sonya Bhan'
tp386
a(S'586895769'
S'Vir Chopra'
tp387
a(S'564745575'
S'Ruhi Sinha'
tp388
a(S'100000024000650'
S'Vincent Calabrese'
tp389
a(S'767980023'
S'Zain Hussain'
tp390
a(S'673353653'
S'M\\u00e9lanie Coutu'
tp391
a(S'683455261'
S'Malavika Subramanian'
tp392
a(S'1367503114'
S'Abhishek Arya'
tp393
a(S'100001358091783'
S'Anveeksha Jaswal'
tp394
a(S'876465452'
S'Sarah Nanbu'
tp395
a(S'100002330826627'
S'J\\u00e9r\\u00f4me Latreille'
tp396
a(S'691030342'
S'Mohammed Omar'
tp397
a(S'876310018'
S'Jai Pujji'
tp398
a(S'100000412626647'
S'Drishti Vohra'
tp399
a(S'516951093'
S'Shikhar Dhingra'
tp400
a(S'506874833'
S'Dhruv Singh'
tp401
a(S'850845596'
S'Vanshica Kant'
tp402
a(S'533221511'
S'Upasna Chopra'
tp403
a(S'516093907'
S'Anmol Joshi'
tp404
a(S'591312483'
S'Yash Chugh'
tp405
a(S'603566270'
S'Khaleeq Siddiqui'
tp406
a(S'667330401'
S'Kritin Kohli'
tp407
a(S'508512806'
S'Joanna Klimczak'
tp408
a(S'626051807'
S'Kritika Vaswani'
tp409
a(S'718965257'
S'Samir Chowdhury'
tp410
a(S'508813200'
S'Shivani Bhat'
tp411
a(S'539175031'
S'Aditya Amrit Kaushik'
tp412
a(S'512295157'
S'Farzan Subhani'
tp413
a(S'504914861'
S'Anshul Gupta'
tp414
a(S'530981239'
S'Manu Rathore'
tp415
a(S'1070435308'
S'Zohair Khan'
tp416
a(S'529071345'
S'Akhila Khanna'
tp417
a(S'602291156'
S'Priyanka Ravishankar'
tp418
a(S'1042893585'
S'Pratyush Nalam'
tp419
a(S'516142307'
S'Utkarshh Pahwa'
tp420
a(S'668576020'
S'Lekha Puri'
tp421
a(S'717360939'
S'Riya Saxena'
tp422
a(S'514914523'
S'Aishani Gupta'
tp423
a(S'839055424'
S'Alejandra Gutierrez'
tp424
a(S'562145704'
S'Zara Ansari'
tp425
a(S'13600782'
S'Aasit Thakkar'
tp426
a(S'1401098947'
S'Aadya Chawla'
tp427
a(S'560935415'
S'Athena Sharma'
tp428
a(S'841164451'
S'Manolya Borucu'
tp429
a(S'547867890'
S'Eduardo Esteve'
tp430
a(S'730340370'
S'Jason Ng'
tp431
a(S'607300369'
S'Sekani Franklin'
tp432
a(S'1407511780'
S'Chris Plant'
tp433
a(S'523063126'
S'Mona Nooreyezdan'
tp434
a(S'100000630484476'
S'Drishti Arya'
tp435
a(S'508136557'
S'Sacha Lander'
tp436
a(S'577670482'
S'Ayaan Aneja'
tp437
a(S'571410182'
S'Maham Mandviwalla'
tp438
a(S'1281214639'
S'Camille Tacastacas'
tp439
a(S'668976952'
S'Pascal Poulin'
tp440
a(S'606602006'
S'Utsav Lal'
tp441
a(S'1436520012'
S'Claire Marie Petersen'
tp442
a(S'519455527'
S'Saad Kalwar'
tp443
a(S'1605909474'
S'Joaqu\\u00edn Beltr\\u00e1n'
tp444
a(S'516884607'
S'Bilal Tabba'
tp445
a(S'500659402'
S'Eesh Kakkar'
tp446
a(S'772680624'
S'Callie Chamberlain'
tp447
a(S'100000593077873'
S'Parinita Matharu'
tp448
a(S'1448494505'
S'Margarida Alpuim'
tp449
a(S'514470478'
S"Chantelle D'Souza"
tp450
a(S'100000919947377'
S'Tanira Sethi'
tp451
a(S'560860077'
S'Madhav Kukreja'
tp452
a(S'690995533'
S'Saad Ahmad Alvi'
tp453
a(S'500297633'
S'Umar Rizvi'
tp454
a(S'515041988'
S'Martand Singh'
tp455
a(S'1320423735'
S'Soyam Sakshi'
tp456
a(S'506575921'
S'Bo Pang'
tp457
a(S'1664520223'
S'Ahmed Javaid'
tp458
a(S'515615905'
S'Kaveri Gupta'
tp459
a(S'1373972086'
S'Sikander Abbasi'
tp460
a(S'1629220853'
S'Ahvana Paul'
tp461
a(S'100002443136431'
S'Rytim Vohra'
tp462
a(S'512387071'
S'Kamna Prem Arora'
tp463
a(S'304703288'
S'Arndell Florent LeBlanc'
tp464
a(S'512162649'
S'Nikhil Ledlie'
tp465
a(S'1563690027'
S'Cat Dame'
tp466
a(S'772900050'
S'Sukriti Aggarwal'
tp467
a(S'1157095253'
S'Nitya Khanna'
tp468
a(S'515502946'
S'Arjun Gogia'
tp469
a(S'503504230'
S'Megha Chawla'
tp470
a(S'10514264'
S'Bose Ronaldjon'
tp471
a(S'514464066'
S'Kunal Datta'
tp472
a(S'1141233739'
S'Jai Singh Juneja'
tp473
a(S'100001011333723'
S'Shiksha Kamra'
tp474
a(S'681545327'
S'Vedika Shastri'
tp475
a(S'1446488021'
S'Jonathan Yoni Toker'
tp476
a(S'575315617'
S'Ananya Gupta'
tp477
a(S'770055220'
S'Karan Veer Kapoor'
tp478
a(S'100001080989229'
S'Rashika Choudhry'
tp479
a(S'638961959'
S'Nimarjit Singh'
tp480
a(S'542245872'
S'Sarah Jameel'
tp481
a(S'100002419814208'
S'Kevin Lehtiniitty'
tp482
a(S'1414980038'
S'Russell Harty'
tp483
a(S'572300108'
S'In\\u00e9s GA'
tp484
a(S'520685513'
S'Payal J. Patel'
tp485
a(S'1326707570'
S'Umair Qayyum Khan'
tp486
a(S'577926922'
S'Helen Aston'
tp487
a(S'503995243'
S'Sylvain Chopra'
tp488
a(S'699986202'
S'Varun Gupta'
tp489
a(S'515992182'
S'Kalyani Krishnan'
tp490
a(S'514193688'
S'Arnav Sahni'
tp491
a(S'1579447484'
S'Rohail Sani'
tp492
a(S'1650570008'
S'Jimmy Gutman'
tp493
a(S'1117731270'
S'Tushar Bhargava'
tp494
a(S'582330361'
S'Nisrine El Amiri'
tp495
a(S'618500404'
S'Tanvi Tandon'
tp496
a(S'1277922423'
S'AayushMaan Wassan'
tp497
a(S'13609601'
S'Shouvik Mukherjee'
tp498
a(S'100002872497954'
S'Noor Dhingra'
tp499
a(S'639701798'
S'Shivan Kaul'
tp500
a(S'532151292'
S'Patrick Achkar'
tp501
a(S'527214727'
S'Sarah-Mae Nelson'
tp502
a(S'851150523'
S'Mandira Gupta'
tp503
a(S'503319749'
S'Gabriella Fanous'
tp504
a(S'512864439'
S'Aditya Mehra'
tp505
a(S'543473012'
S'Viraj Nanda'
tp506
a(S'100001747176163'
S'Ruchita Sharan'
tp507
a(S'512620063'
S'Suryajit Singh'
tp508
a(S'529181883'
S'Tara Starr Arora'
tp509
a(S'501446779'
S'Syed Danial Rehman'
tp510
a(S'513877289'
S'Amoli Tuli'
tp511
a(S'507778663'
S'Anthony JJ G'
tp512
a(S'1251425774'
S'Osho Singh'
tp513
a(S'1116794101'
S'Hannah Myers'
tp514
a(S'100002870531239'
S'Riyah Singh'
tp515
a(S'516385480'
S'Sonia Masand'
tp516
a(S'619855009'
S'Stephan Barrow'
tp517
a(S'1322147630'
S'Kartik Srivastava'
tp518
a(S'1328666874'
S'Haroon Monnoo'
tp519
a(S'510592184'
S'Megha Rawla'
tp520
a(S'502640909'
S'Kam Ganesan'
tp521
a(S'1500244057'
S'Mahan Najhawan'
tp522
a(S'602852055'
S'Zara Desai'
tp523
a(S'1227632402'
S'Ayesha Khatun'
tp524
a(S'631455692'
S'Nakul Gulati'
tp525
a(S'100005103034720'
S'Overheard At McGill'
tp526
a(S'1658055067'
S'Gauri Kelkar'
tp527
a(S'1639123927'
S'Dhruv Sagar'
tp528
a(S'100001611668797'
S'Sameer Kumar'
tp529
a(S'516987915'
S'Ayush Sharma'
tp530
a(S'727715493'
S'Rini Bhargava'
tp531
a(S'514378880'
S'Sanjana Mathur'
tp532
a(S'513284237'
S'Meghna Mann'
tp533
a(S'546900250'
S'Vidushi Nagarajan'
tp534
a(S'707975240'
S'Fathima Z. Mullick'
tp535
a(S'565700754'
S'Armaan Singh'
tp536
a(S'1097545735'
S'Gautam Nagpal'
tp537
a(S'508017463'
S'Abhishek Sarkar'
tp538
a(S'742915365'
S'Zaid Jangda'
tp539
a(S'516647170'
S'Tushar Mehta'
tp540
a(S'1644335680'
S'Shankar Sharan'
tp541
a(S'557795440'
S'Suhina Banga'
tp542
a(S'100001856275989'
S'Shyam Patel'
tp543
a(S'100003698226212'
S'Divisha Mehta'
tp544
a(S'514934712'
S'Aparna Naresh'
tp545
a(S'742845108'
S'Faizan Pervez'
tp546
a(S'516832637'
S'Radhika Goenka'
tp547
a(S'1301159'
S'Michelle Oh'
tp548
a(S'517838396'
S'Ria Ghosh'
tp549
a(S'605430497'
S'Aparna Pande'
tp550
a(S'1368750507'
S'Megan Nesbeth'
tp551
a(S'1540794594'
S'Namrata Narula'
tp552
a(S'100001257068561'
S'Mehma Anand'
tp553
a(S'103600326'
S'Vince Kane'
tp554
a(S'500293869'
S'Omair Ahmed'
tp555
a(S'1518851'
S'Stuart Murphy'
tp556
a(S'511535172'
S'Harpaul Singh DjPaul'
tp557
a(S'100000031909479'
S'Mina Mircat'
tp558
a(S'706955432'
S'Vimlendu Jha'
tp559
a(S'89906746'
S'Sumant Sharan'
tp560
a(S'841795570'
S'Areej Jaffrani'
tp561
a(S'668520570'
S'Rabail Nazeer'
tp562
a(S'852210120'
S'Prajeet Bajpai'
tp563
a(S'777952641'
S'Rochisha Shukla'
tp564
a(S'682680397'
S'Cam Adair'
tp565
a(S'547427230'
S'Omer Basheer Juma'
tp566
a(S'740533554'
S'Raahil Dhawan'
tp567
a(S'14500815'
S'Ali Raymond'
tp568
a(S'1384112209'
S'Sukanya Joshi'
tp569
a(S'1459620034'
S'Helen McCann'
tp570
a(S'1063950255'
S'Sophia Chitlik'
tp571
a(S'635755643'
p572
S'Aneela Shaikh'
tp573
a(S'724692282'
S'Kabeer Chatrath'
tp574
a(S'771495004'
S'Salman Uddin Khan'
tp575
a(S'516131982'
S'Raghav Raizada'
tp576
a(S'1230491225'
S'Sharma Shiv Kumar'
tp577
a(S'1273908335'
S"Melissa L'Heureux-Hach\\u00e9"
tp578
a(S'515257699'
S'Nabila Chowdhury'
tp579
a(S'557905418'
S'Chhayankdhar Singh Rathore'
tp580
a(S'509589579'
S'Rhea Fauve Kohli'
tp581
a(S'593926554'
S'Elle B. Green'
tp582
a(S'100000970024272'
S'Naman Fcb Misra'
tp583
a(S'645831393'
S'Helen Benton'
tp584
a(S'100000104238722'
S'Shanta Sharan'
tp585
a(S'839640471'
S'Chris Houston'
tp586
a(S'542768458'
S'Nirupama Subramanian'
tp587
a(S'606450293'
S'Umaima Shamsi'
tp588
a(S'100008351624633'
S'Lindsay Hollinger'
tp589
a(S'595190719'
S'Priyam Mahajan'
tp590
a(S'509596441'
S'Siddharth Seshan'
tp591
a(S'1365596681'
S'Archit Garg'
tp592
a(S'893670612'
S'Rizwan Asghar'
tp593
a(S'1371330183'
S'Sujay Tyle'
tp594
a(S'100001403114462'
S'Draun Sawhney'
tp595
a(S'591580951'
S'Ishani Majumdar'
tp596
a(S'551215287'
S'Ayja Clarke'
tp597
a(S'13601178'
S'Omar Sobhi'
tp598
a(S'626890365'
S'Ishan Sardesai'
tp599
a(S'1049852330'
S'Aishwarya Karnataki'
tp600
a(S'669060514'
S'Melissa Galati'
tp601
a(S'100000499005357'
S'Sunil Kumar'
tp602
a(S'539660404'
S'Tha\\u00efs Sala'
tp603
a(S'888610102'
S'Aryamman Singh'
tp604
a(S'502705349'
S'Zachery Oman'
tp605
a(S'642180169'
S'Kirat Singh'
tp606
a(S'707860315'
S'Emilie Beaudoin'
tp607
a(S'19507247'
S'Cheyne Bloch'
tp608
a(S'714323739'
S'Rohan Arora'
tp609
a(S'656040225'
S'Camilo Ucr\\u00f3s'
tp610
a(S'503120565'
S'Prasanna Sambasivan'
tp611
a(S'100008159678531'
S'Camilo Alvear'
tp612
a(S'514430446'
S'Eshaan Sarine'
tp613
a(S'508040162'
S'Gayle Karen Young'
tp614
a(S'503831488'
S'Srishti Manchanda'
tp615
a(S'730430900'
S'Asad Zaidi'
tp616
a(S'516310766'
S'Dhruv Abhi'
tp617
a(S'512811133'
S'Aarushi Kaath'
tp618
a(S'666036930'
S'Amyna Kanji'
tp619
a(S'669011452'
S'Ravi Gulati'
tp620
a(S'1054106519'
S'Surhan Qadir'
tp621
a(S'617847773'
S'Arjun Madan'
tp622
a(S'690615656'
S'Afraz Ahmad Qureshi'
tp623
a(S'501873709'
S'Saad Zaman'
tp624
a(S'607720028'
S'Ajay Bhargav'
tp625
a(S'510757059'
S'Aditya Dhar'
tp626
a(S'100000321032144'
S'Rohan Nayar'
tp627
a(S'1283525869'
S'Pallavi Saini'
tp628
a(S'506562527'
S'Zohaib Wahid'
tp629
a(S'572820404'
S'Amira Singh'
tp630
a(S'576245561'
S'Rea Bhalla'
tp631
a(S'507217107'
S'Ayesha Seksaria'
tp632
a(S'513244730'
S'Revant Sharan'
tp633
a(S'24409164'
S'Abe Taleb'
tp634
a(S'836318958'
S'Amnah Ahmad'
tp635
a(S'100000486501022'
S'Subhash Sharan'
tp636
a(S'100000029926327'
S'Tassilo M\\u00fcrtz'
tp637
a(S'100004802915602'
S'McGill Chirps'
tp638
a(S'512711053'
S'Tarun Khatri'
tp639
a(S'807839827'
S'Sunaina Roy Chaudhuri'
tp640
a(S'100000034273032'
S'Xochitl Silva'
tp641
a(S'505624470'
S'Malini Jain'
tp642
a(S'1179792384'
S'Ujjwal Dahuja'
tp643
a(S'100000172759665'
S'Nabeel Godil'
tp644
a(S'200003525'
S'Todd Abair'
tp645
a(S'530705129'
S'Nikhita Sagar'
tp646
a(S'726919091'
S'Maaz Ul Haque'
tp647
a(S'574168671'
S'Ishaan Luthra'
tp648
a(S'510786347'
S'Guneesha Sethi'
tp649
a(S'2256689'
S'Ian Tran'
tp650
a(S'519181717'
S'Saad Yousaf'
tp651
a(S'503114697'
S'Lakshmi Pillai'
tp652
a(S'1664370642'
S'Yu Rong F'
tp653
a(S'516817490'
S'Ammar Hasan'
tp654
a(S'687525227'
S'Jackie Mateluna'
tp655
a(S'566879993'
S'Saisha Sawhney'
tp656
a(S'599756271'
S'San Raj'
tp657
a(S'509579068'
S'Uttara Subramanian'
tp658
a(S'1200789598'
S'Revant Soni'
tp659
a(S'724275551'
S'Josef Freundorfer'
tp660
a(S'691432600'
S'Tanvi Sharan'
tp661
a(S'1272120035'
S'Tilly Alex'
tp662
a(S'509233227'
S'Zain Khan'
tp663
a(S'565095210'
S'Varun Datta'
tp664
a(S'836150257'
S'Juniper Gordon'
tp665
a(S'72613926'
S'Danielle Sparks'
tp666
a(S'669441359'
S'Anuj Sobti'
tp667
a(S'503798659'
S'Gobind Sethi'
tp668
a(S'536233985'
S'Abhishek Chhibber'
tp669
a(S'539240636'
S'Aman Sharma'
tp670
a(S'505197766'
S'Ximm Desai'
tp671
a(S'507718393'
S'Vedant Khanna'
tp672
a(S'788580402'
S'Valeria Bernal'
tp673
a(S'100001383163551'
S'Aaradhan Satsangi'
tp674
a(S'587055412'
S'Clemmie Brown'
tp675
a(S'716151398'
S'Christopher Alert'
tp676
a(S'510104561'
S'Sahil Ch'
tp677
a(S'547984452'
S'Stacey MsGuyver'
tp678
a(S'100000970285397'
S'Naman Jain'
tp679
a(S'100000072498695'
S'Maitreya Thakur'
tp680
a(S'1387217076'
S'Brita Lundberg'
tp681
a(S'584251536'
S'Zoy Shaheen'
tp682
a(S'783674172'
S'Shreya Sharan'
tp683
a(S'518339555'
S'Meghna Chand'
tp684
a(S'513901244'
S'Dickie Greenleaf'
tp685
a(S'506779826'
S'Aditi Patel'
tp686
a(S'718641109'
S'Vaibhav Kapoor'
tp687
a(S'2902654'
S'Christine Lim'
tp688
a(S'2205396'
S'Ashlee Lawson'
tp689
a(S'1263523473'
S'Tanvir Singh Bhatti'
tp690
a(S'100002035775779'
S'Psa UOttawa'
tp691
a(S'508514913'
S'Se Lo'
tp692
a(S'675425758'
S'Manu Vishwanath'
tp693
a(S'842070081'
S'Palaash Jyoti'
tp694
a(S'509839208'
S'Gina Uppal'
tp695
a(S'100003044753021'
S'Nitya Khanna'
tp696
a(S'516169481'
S'Sara Chatterjee'
tp697
a(S'1496662806'
S'Amsal Ishtiaq'
tp698
a(S'100003797539003'
S'Christian Jimenez Villarreal'
tp699
a(S'595680175'
S'Khadine Baksh'
tp700
a(S'506145933'
S'Raaj Sanghvi'
tp701
a(S'100000801628061'
S'Shefali Jain'
tp702
a(S'600820454'
S'Vikram Dalal'
tp703
a(S'1599963821'
S'Diya Anand'
tp704
a(S'100000979848073'
S'Aishwarya Singh'
tp705
a(S'598920951'
S'Rhea Dabas'
tp706
a(S'529240258'
S'Osama Qassim'
tp707
a(S'1025811544'
S'Yashitha Jeet'
tp708
a(S'1482962300'
S'Jeffrey So'
tp709
a(S'718658941'
S'Anuj Arora'
tp710
a(S'561220454'
S'Vanya Vaishnavi Singh'
tp711
a(S'100007837174236'
S'Agamjiv Singh'
tp712
a(S'514820160'
S'Aditi Arya'
tp713
a(S'1810187454'
S'Chris Chen'
tp714
a(S'564035240'
S'Parthiv Anand Ravindran'
tp715
a(S'504741337'
S'Shahana Lal'
tp716
a(S'1274557237'
S'Pranay Bery'
tp717
a(S'518362873'
S'Aman Banerji'
tp718
a(S'100004100150882'
S'Lola Rastaquou\\u00e8re'
tp719
a(S'707600992'
S'Ibrahim Irfan Moosa'
tp720
a(S'513424252'
S'Srishti Gurwara'
tp721
a(S'505294496'
S'Arjun Bajaj'
tp722
a(S'514869224'
S'Rocio Gracia Edwards'
tp723
a(S'854710216'
S'Raghav Gandotra'
tp724
a(S'647735019'
S'Shiva Rajan Pillai'
tp725
a(S'508887377'
S'Mohammad Yaqoob Alvi'
tp726
a(S'12002413'
S'Kevin Liu'
tp727
a(S'784920286'
S'Edouard Ferron'
tp728
a(S'705516389'
S'Anunay Kulshrestha'
tp729
a(S'509542367'
S'Aman Adil'
tp730
a(S'539355500'
S'Tulsi Sharma'
tp731
a(S'1024622790'
S'Mimansa Puri'
tp732
a(S'1581240002'
S'Lynn Le'
tp733
a(S'14400741'
S'Phil Waller'
tp734
a(S'503310224'
S'Maria Rahman'
tp735
a(S'522438527'
S'Silvia Augustine Benito'
tp736
a(S'100003756699694'
S'Mustafa Khan'
tp737
a(S'1169984394'
S'Shubh Vardhan'
tp738
a(S'612585755'
S'Saad Qazi'
tp739
a(S'516794815'
S'Mallika S'
tp740
a(S'1028335963'
S'Annuvrat Munjal'
tp741
a(S'531232395'
S'Andy Bains'
tp742
a(S'511316915'
S'Sameer Tayebaly'
tp743
a(S'713975638'
S'Houston Spencer'
tp744
a(S'543585205'
S'Jayant Mukho'
tp745
a(S'514909238'
S'Vir Handa'
tp746
a(S'577465187'
S'Sanjoli Sakhuja'
tp747
a(S'10508349'
S'Aesha Mehta'
tp748
a(S'100001594326147'
S'Radhika Chopra'
tp749
a(S'1096716888'
S'Ranjiv Sharma'
tp750
a(S'666965787'
S'Jennie Phillips'
tp751
a(S'503725211'
S'Ashwath SriHari'
tp752
a(S'691624223'
S'Bianca St.Louis'
tp753
a(S'741119514'
S'Akshat Singh Arora'
tp754
a(S'510929395'
S'Shreeja Kumar'
tp755
a(S'511882938'
S'Akriti Sharan Gavakis'
tp756
a(S'503906499'
S'Vanshika Wadhwa'
tp757
a(S'1186878863'
S'Ishani Singh'
tp758
a(S'1224532629'
S'Pranav Khanna'
tp759
a(S'611489103'
S'Ali Omran'
tp760
a(S'905945159'
S'Ayyushman Mehta'
tp761
a(S'537996018'
S'Ravi Darda'
tp762
a(S'512656495'
S'Saeher Dhameja'
tp763
a(S'1621427143'
S'Alok Sharma'
tp764
a(S'773190503'
S'Raziel P\\u00e9rez'
tp765
a(S'5901493'
S'Shikha Jain'
tp766
a(S'505088671'
S'Haris Naeem Nini'
tp767
a(S'639930513'
S'Aatman Ajmera'
tp768
a(S'1242805880'
S'Sam Bieler'
tp769
a(S'1525030332'
S'Paras Marya'
tp770
a(S'1466094750'
S'Hadi Ijaz'
tp771
a(S'538945715'
S'Malika Sikand'
tp772
a(S'501142290'
S'Sumer Dhir'
tp773
a(S'514453249'
S'Divij Johri'
tp774
a(S'514329187'
S'Richa Narain'
tp775
a(S'522941732'
S'Genevi\\u00e8ve Proulx-Masson'
tp776
a(S'506750159'
S'Suvira Raj Chadha'
tp777
a(S'509729377'
S'Vedika Berry'
tp778
a(S'823023635'
S'Abhijit Roy'
tp779
a(S'570012924'
S'Shiv Mohan Dutt'
tp780
a(S'685535103'
S'Aruj Pal Singh'
tp781
a(S'761738335'
S'Hamza Cheema'
tp782
a(S'1553550044'
S'Jessica Zhao'
tp783
a(S'540235936'
S'Tanvi Narain'
tp784
a(S'100001491472824'
S'Divya Jyoti Tirkey'
tp785
a(S'563440105'
S'Ayesha Chhabra'
tp786
a(S'564997183'
S'Rabia Sadruddin'
tp787
a(S'699810066'
S'Jaskrit Singh'
tp788
a(S'100002341663397'
S'Namrah Zafar'
tp789
a(S'556872934'
S'Anirudh Bhat'
tp790
a(S'689329103'
S'Toyesh Tewari'
tp791
a(S'536280944'
S'Arielle Jennings'
tp792
a(S'779395087'
p793
S'Naveen Perwaiz'
tp794
a(S'100001609954467'
S'Rhea Kapur'
tp795
a(S'537350011'
S'Reza Rasool'
tp796
a(S'1262478785'
S'Narayani Gupta'
tp797
a(S'770000647'
S'Tanvi Bagga'
tp798
a(S'605527439'
S'Raoul Mehra'
tp799
a(S'514412870'
S'Rishabh Mukherji'
tp800
a(S'609532389'
S'Devika Pandey'
tp801
a(S'516105495'
S'Siddharth Takru'
tp802
a(S'725725444'
S'Abdaal Mazhar Shafi'
tp803
a(S'100001050850891'
S'Fatima Sultan'
tp804
a(S'656664656'
S'Vasudha Malhan'
tp805
a(S'693298988'
p806
S'Safiullah Farooqui'
tp807
a(S'512619679'
S'Shaman Marya'
tp808
a(S'500927863'
S'Manik Singh'
tp809
a(S'693715286'
S'Alex Haass'
tp810
a(S'898600514'
S'Ramit Malhotra'
tp811
a(S'1457718341'
S'Ronak Bansal'
tp812
a(S'678920137'
S'Saanya Ojha'
tp813
a(S'587036365'
S'Saif Ullah Khan'
tp814
a(S'100001803180665'
S'Jannavi Singha'
tp815
a(S'611910594'
S'Zo\\u00eb Alnashir'
tp816
a(S'633426277'
S'Mehma Atwal'
tp817
a(S'664865006'
S'Vandita Khanna'
tp818
a(S'542931534'
S'Inder Arora'
tp819
a(S'4201361'
S'Rhoda Tamakloe'
tp820
a(S'516421468'
S'Nishad Mukherji'
tp821
a(S'861570367'
S'Kamayani Bali Mahabal'
tp822
a(S'512312521'
S'Nelson Melgar'
tp823
a(S'1537358645'
S'Vasil Rabuhchiev'
tp824
a(S'789730594'
S'Tasveena Olina Islam'
tp825
a(S'591970375'
S'Rahul Sinha'
tp826
a(S'562783222'
S'Faaiza Noor Seyid'
tp827
a(S'512416987'
S'Amit Khandeparkar'
tp828
a(S'614292620'
S'Rhea Ravindran'
tp829
a(S'1411620210'
S'Shayan Ahmad'
tp830
a(S'730020313'
S'Ashar Jamil Wahidi'
tp831
a(S'1780260806'
S'Tarini Sharma'
tp832
a(S'734070423'
S'Rory Donaldson'
tp833
a(S'1169970546'
S'Kevin Oswald'
tp834
a(S'511670844'
S'Mandira Katariya'
tp835
a(S'704420331'
S'Salman Dehlvi'
tp836
a(S'526649405'
S'Varadh Jain'
tp837
a(S'589487462'
S'Joseph Bond'
tp838
a(S'511599228'
S'Aya Samman'
tp839
a(S'6900287'
S'Nathaniel Koloc'
tp840
a(S'1466686849'
S'Ajibade Ojuko'
tp841
a(S'543575471'
S'Ameya Pendse'
tp842
a(S'514810373'
S'Shayree Chakravarty'
tp843
a(S'513291699'
S'Krista Hennigar'
tp844
a(S'502752174'
S'Nir Patel'
tp845
a(S'878245579'
S'Bernard Mak'
tp846
a(S'505695932'
S'Yumna Moazzam'
tp847
a(S'514633040'
S'Pranit Sahni'
tp848
a(S'538150510'
S'Priyanka Dutt Agrawal'
tp849
a(S'1372009809'
S'Valerie Jiggetts'
tp850
a(S'512405507'
S'Pradyut Kashyap'
tp851
a(S'557372062'
S'Mohammad Arsalan Waseem'
tp852
a(S'516051701'
S'Shivaan Sahni'
tp853
a(S'671590729'
S'Suraj Kumar'
tp854
a(S'516244119'
S'Jai Dave'
tp855
a(S'516705983'
S'Aamir Singh'
tp856
a(S'1534802153'
S'Gurdeepak Singh'
tp857
a(S'635695227'
S'Saif Ghanameh'
tp858
a(S'100002698655375'
S'Radhika Sharma'
tp859
a(S'838875477'
S'Prashast Thapan'
tp860
a(S'512523820'
S'Aman Singh'
tp861
a(S'1028159107'
S'Anantika Nautiyal'
tp862
a(S'516115933'
S'Kanika Vohra'
tp863
a(S'682515002'
S'Jaisal Singh'
tp864
a(S'764960579'
S'Mischa Snj'
tp865
a(S'100003191131336'
S'Archit Khandpur'
tp866
a(S'660870074'
S'Sumer Sanghi'
tp867
a(S'1009811802'
S'Rohan Jayawant'
tp868
a(S'1017473530'
S'Siddhartha Banerjee'
tp869
a(S'664160130'
S'Olivier Clerc-Renaud'
tp870
a(S'100000850547672'
S'Ayesha Hanif'
tp871
a(S'1061160168'
S'Arya Tavakoli'
tp872
a(S'656976192'
S'Prithvi Rana Dev'
tp873
a(S'1144376572'
S'Simran Kenth'
tp874
a(S'662911507'
S'Pratyush Nanda'
tp875
a(S'626305491'
S'Nirali Tanna'
tp876
a(S'698896970'
S'Christina Clemente'
tp877
a(S'1195966607'
S'Kevin Lehtiniitty'
tp878
a(S'1051370917'
S'Arman Puri'
tp879
a(S'514207723'
S'Utkarsh Kanoria'
tp880
a(S'1073231301'
S'Osman Riar'
tp881
a(S'614700313'
S'Sarah Rayner'
tp882
a(S'765012787'
S'Manik Vasudeva'
tp883
a(S'100006705541407'
S'Ali Bhojani'
tp884
a(S'706750144'
S'Adip Narang'
tp885
a(S'503800433'
S'Saksham Karwal'
tp886
a(S'1517976460'
S'Abhiveer Arjun'
tp887
a(S'509070269'
S'Suchita Salwan'
tp888
a(S'100001558414807'
S'Salman Naveed'
tp889
a(S'505721720'
S'Erin Hudson'
tp890
a(S'625556485'
S'Madhav Vohra'
tp891
a(S'1497394328'
S'Max Bill Steadfast'
tp892
a(S'1644841870'
S'Neha Mathur'
tp893
a(S'100000610584600'
S'Gopal Singh Mann'
tp894
a(S'1091506827'
S'Jai Arora'
tp895
a(S'1061903655'
S'Rahul Lochab'
tp896
a(S'1229220785'
S'Mrunali Das'
tp897
a(S'100000440056001'
S'Dhhruv Mishra'
tp898
a(S'752335500'
S'Uzair Ali'
tp899
a(S'100000637183493'
S'Tanya Sardana'
tp900
a(S'504105674'
S'Anand Sundararajan'
tp901
a(S'508160335'
S'Reha Bublani'
tp902
a(S'100000282417724'
S'Sahir Singh'
tp903
a(S'514498468'
S'Kritika Phougaat'
tp904
a(S'500293328'
S'Allison Voglesong'
tp905
a(S'581219922'
S'Karan Arya'
tp906
a(S'1113516725'
S'Shivaditya Singh Tomar'
tp907
a(S'642561265'
S'Manu Toscano'
tp908
a(S'622861446'
S'Shoubhik Ghoshal'
tp909
a(S'514907740'
S'Omaid Tanoli'
tp910
a(S'745550647'
S'Haris Latif'
tp911
a(S'517339551'
S'Nauman Irshad'
tp912
a(S'512813271'
S'Pranav Sarin'
tp913
a(S'513608067'
S'Dhananjay Chandriani'
tp914
a(S'6011342'
S'Nafessa Kassim'
tp915
a(S'516485600'
S'Suvir Singh'
tp916
a(S'683205430'
S'Ramya Ahuja'
tp917
a(S'703272259'
S'Dahee Kaelyn Shon'
tp918
a(S'786358734'
S'Vanshika Ahuja'
tp919
a(S'1237593059'
S'Jyotika Bhan'
tp920
a(S'1043348745'
S'Aditya Kumar'
tp921
a(S'614261049'
S'Alya J. Sarna'
tp922
a(S'512107164'
S'Matthieu Charriaud'
tp923
a(S'728885574'
S'Sonnie Dee'
tp924
a(S'508198724'
S'Sarah Syed'
tp925
a(S'622466535'
S'Fahim Sachak'
tp926
a(S'1349763857'
S'Nicole Herbert'
tp927
a(S'1391040549'
S'Shen Chen'
tp928
a(S'100002485639047'
S'Adi Altschuler'
tp929
a(S'679701498'
S'Deborah Angela Perez'
tp930
a(S'1163230543'
S'Udai Chawla'
tp931
a(S'100005941083116'
S'Migs Montreal'
tp932
a(S'100001610839965'
S'Lushin Dubey'
tp933
a(S'507715381'
S'Shreya Gurwara'
tp934
a(S'520880584'
S'S\\u00e9gol\\u00e8ne Rolin'
tp935
a(S'655054668'
S'Nikita Sayam'
tp936
a(S'537940076'
S'Shoaib Kohli'
tp937
a(S'798460573'
S'Pia Kochar'
tp938
a(S'13619776'
S'Lucy Wang'
tp939
a(S'90409564'
S'Samantha Young'
tp940
a(S'13808417'
S'Stephanie Knabe'
tp941
a(S'599186958'
S'Vidhi Sobti'
tp942
a(S'515393701'
S'Mehdi Mansour'
tp943
a(S'612924438'
S'Urvi Raghbeer'
tp944
a(S'517800005'
S'Vandya Sharma'
tp945
a(S'100001966899402'
S'Uttara Chatterjee'
tp946
a(S'580432974'
S'Arooj Kaukab'
tp947
a(S'627624987'
S'Rishika Jerath'
tp948
a(S'513982012'
S'Keerat Kaur'
tp949
a(S'24501751'
S'Courtney Mendivil'
tp950
a(S'893510088'
S'Garima Kaushal'
tp951
a(S'100000164227619'
S'Deejay Nakul Shourie'
tp952
a(S'1484832132'
S'Wendy Chen'
tp953
a(S'100000813504650'
S'Valerie LalaRochelle'
tp954
a(S'1316364111'
S'Alex Duong'
tp955
a(S'537925268'
S'Ashim Bery'
tp956
a(S'100000558462140'
S'Sharanya Thakur'
tp957
a(S'1664460201'
S'Sheena Melwani'
tp958
a(S'622075669'
S'Adhika Maharaj'
tp959
a(S'668285496'
S'Maham Jilani'
tp960
a(S'598579822'
S'Suchetha Seshan'
tp961
a(S'575369238'
S'Aigbe OA'
tp962
a(S'513521846'
S'Jenna Kara'
tp963
a(S'518150924'
S'Lorenzo G.A.'
tp964
a(S'1474920474'
S'Jake Kinzey'
tp965
a(S'516053398'
S'Aranya Berry'
tp966
a(S'573795573'
S'Harsh Aurora'
tp967
a(S'100000522522196'
S'Pradyut Gogoi'
tp968
a(S'546650696'
S'Jahangir Rasheed'
tp969
a(S'511496658'
S'Joshua Nobie'
tp970
a(S'100000039322927'
S'Rajesh Sharan'
tp971
a(S'553491114'
S'Siddharth Chadha'
tp972
a(S'816195003'
S'Helen Gao'
tp973
a(S'1646460171'
S'Shruti Chakravarthy'
tp974
a(S'100001419215737'
S'Ali Faizan Kajani'
tp975
a(S'709593744'
S'Pallavi Mathur'
tp976
a(S'788650246'
S'Todd Schechter'
tp977
a(S'1276321751'
S'Arjun Srivastava'
tp978
a(S'653935157'
S'Kritika Kaur Oberoi'
tp979
a(S'796925575'
S'Megha Mehdiratta'
tp980
a(S'1423611395'
S'Luce Eng\\u00e9rant'
tp981
a(S'779898409'
S'Jason Holligan'
tp982
a(S'100001587175763'
S'Jeremy John'
tp983
a(S'1666575479'
S'Karan Kapoor'
tp984
a(S'714885219'
S'Ethan Atia'
tp985
a(S'515672567'
S'Anushay Irfan Khan'
tp986
a(S'703510430'
S'Yassir Bilgrami'
tp987
a(S'100001619843697'
S'Dilsher Singh'
tp988
a(S'1746457280'
S'Rkfilms MediaAcademy'
tp989
a(S'882070132'
S'Tasneem Sumaita Rahim'
tp990
a(S'516110761'
S'Rishiraj Kessar'
tp991
a(S'660141535'
S'Rishabh Prakash'
tp992
a(S'3700750'
S'Nils Klinkenberg'
tp993
a(S'1470793308'
S'Suvij Sudershan'
tp994
a(S'687185358'
S'Salman Tahir'
tp995
a(S'567785886'
S'Ceren Koca'
tp996
a(S'503760984'
S'Bhavik Singh'
tp997
a(S'8906994'
S'Vikrant Arya'
tp998
a(S'543535890'
S'Ibrahim Gabr'
tp999
a(S'516882132'
S'Nora Khattab'
tp1000
a(S'690570601'
S'Chandrika Srivastava'
tp1001
a(S'1637214655'
S'Jonathan Gibbons'
tp1002
a(S'100001022535859'
S'Haider Raza'
tp1003
a(S'577730470'
S'Nabil Baig'
tp1004
a(S'510976311'
S'Pooja Kakkar'
tp1005
a(S'100006409416079'
S'Sonia Patel'
tp1006
a(S'1425963733'
S'Ashrut Narula'
tp1007
a(S'709600304'
S'Marie Shabaya'
tp1008
a(S'725405172'
S'Danial Mazhar Shafi'
tp1009
a(S'1361181874'
S'Divyanshu Bhandari'
tp1010
a(S'538320091'
S'Tanya Najhawan'
tp1011
a(S'647575773'
S'Caroline Dobbins'
tp1012
a(S'23601418'
S"Marcus 'Hank' Noel"
tp1013
a(S'1308971115'
S'Krishna S. Gupta'
tp1014
a(S'539095282'
S'Nashmia Amir'
tp1015
a(S'514674854'
S'Diven Mehta'
tp1016
a(S'1064190029'
S'Conor James'
tp1017
a(S'688854461'
S'Cesar Gonzalez'
tp1018
a(S'100007887631274'
S'Michael Whitfield'
tp1019
a(S'509412541'
S'Shishir Mandal'
tp1020
a(S'505245913'
S'Jenny Goff'
tp1021
a(S'513116190'
S'Sanjay Patel'
tp1022
a(S'504658551'
S'Mallika Arya'
tp1023
a(S'539332428'
S'Yashika Narain Mowar'
tp1024
a(S'629051400'
S'Arushi Sakhuja'
tp1025
a(S'651871355'
S'Aakanksha Jadhav'
tp1026
a(S'679255922'
S'Minati Grenier'
tp1027
a(S'1189246936'
S'Zia Mehtab'
tp1028
a(S'507543220'
S'Subahlakshmi Chandra'
tp1029
a(S'597455607'
S'Mihika Srivastava'
tp1030
a(S'573330060'
S'Soumya Srijan Dasgupta'
tp1031
a(S'514388487'
S'Ashrika Kohli'
tp1032
a(S'1254840442'
S'Marlo Staples'
tp1033
a(S'1425791373'
S'Nirvaan Bharany'
tp1034
a(S'1093935266'
S'Khurram Chhapra'
tp1035
a(S'100001985843861'
S'Mostafa Erfan'
tp1036
a(S'100002261448172'
S'Aanchal Bahadur'
tp1037
a(S'782785293'
S'Zooni Thusoo'
tp1038
a(S'502091057'
S'Robert Egger'
tp1039
a(S'100005320479545'
S'McGill Compliments'
tp1040
a(S'1137726960'
S'Mir Sultan'
tp1041
a(S'1167322082'
S'Hamza Asad'
tp1042
a(S'537995511'
S'Ankita Gupta'
tp1043
a(S'617931040'
S'Natasha Rehman'
tp1044
a(S'507593932'
S'Paul-Noel Rousseau'
tp1045
a(S'1319682097'
S'Pankaj Jha'
tp1046
a(S'523480440'
S'Ahsan Bandeali'
tp1047
a(S'524510219'
S'Ketan Sharma'
tp1048
a(S'100000193989674'
S'Malaeka Bader Khan'
tp1049
a(S'592111123'
S'Deeya Suzannah Bajaj'
tp1050
a(S'1468795910'
S'Tariq Khan Bhittani'
tp1051
a(S'1330830418'
S'Jeremy Singer'
tp1052
a(S'771210808'
S'Zain Boxwala'
tp1053
a(S'525770932'
S'Mohammad Bin Naveed'
tp1054
a(S'1283323609'
S'Gurbaz Khera'
tp1055
a(S'100000875581331'
S'Armaan Srinivasan'
tp1056
a(S'546091421'
S'Enbal Singer'
tp1057
a(S'565257793'
S'Teesa Bahana'
tp1058
a(S'512872518'
S'Laila Rupani'
tp1059
a(S'1065574088'
S'Anmol Handa'
tp1060
a(S'619536734'
S'Shivam Kumar Raheja'
tp1061
a(S'600724585'
S'Shantanu Puri'
tp1062
a(S'100007922105711'
S'Jim Kleiber'
tp1063
a(S'1365952754'
S'Depali Malik'
tp1064
a(S'1200429871'
S'Amer Vaid'
tp1065
a(S'100000023926508'
S'Kalimah Priforce'
tp1066
a(S'13619959'
S'Lisa Katherine'
tp1067
a(S'1407194525'
S'Aanya Dalmia'
tp1068
a(S'790890450'
S'Syed Kazim Raza'
tp1069
a(S'100000894137466'
S'La Livida'
tp1070
a(S'1255326003'
S'Neethu Vijayan'
tp1071
a(S'504988659'
S'Aaron Nesmith-Beck'
tp1072
a(S'1765913519'
S'Shimal Bharadwaj'
tp1073
a(S'592360406'
S'Prarthana Gupta'
tp1074
a(S'1124827779'
S'Abhishek Munjal'
tp1075
a(S'715017765'
S'Yashoda Maliah'
tp1076
a(S'1241514731'
S'Meenakshi Bahadur'
tp1077
a(S'100000706515007'
S'Karanjeet Dass'
tp1078
a(S'776065513'
S'Gabrielle Tomovcik'
tp1079
a(S'523728734'
S'Sukant Khurana'
tp1080
a(S'1058727675'
S'Abhiraj Arjun'
tp1081
a(S'771760696'
S'Shivang Tayal'
tp1082
a(S'1092630018'
S'Sarah Richards'
tp1083
a(S'1535586639'
S'Shiv Kapur'
tp1084
a(S'1656911285'
S'Mehar Chadha'
tp1085
a(S'602550461'
S'Aditya Luthra'
tp1086
a(S'741965573'
S'Moe Nasr'
tp1087
a(S'683565967'
S'Jaiveer Bakshi'
tp1088
a(S'897495122'
S'Christopher Olsen'
tp1089
a(S'516401858'
S'Zain Refaqat Seyid'
tp1090
a(S'697345983'
S'Zoheb Khan'
tp1091
a(S'544422655'
S'Ashar Gaskin'
tp1092
a(S'617355898'
S'Niyant Gurwara'
tp1093
a(S'691031252'
S'Marion Champoux-Pellegrin'
tp1094
a(S'897790223'
S'Sara A. Chughtai'
tp1095
a(S'509556384'
S'Derek Vollebregt'
tp1096
a(S'100000023405665'
S'Ashwin Mathur'
tp1097
a(S'563504491'
S'Harsh Malhotra'
tp1098
a(S'75002893'
S'Bella Anne Ndubuisi'
tp1099
a(S'567005828'
S'Rohan Badhwar'
tp1100
a(S'1044747067'
S'Navnidh Singh Chawla'
tp1101
a(S'1315358861'
S'John Lin'
tp1102
a(S'747440566'
S'Vaasvi Goyal'
tp1103
a(S'552495633'
S'Anam N. Abjani'
tp1104
a(S'719095553'
S'Anandita Puri'
tp1105
a(S'1076696152'
S'Shikhee Rawal'
tp1106
a(S'514017317'
S'Sohit Singh Anand'
tp1107
a(S'549710106'
S'Natiq Ali'
tp1108
a(S'1319979232'
S'Ilaria Mantovani'
tp1109
a(S'599210180'
S'Smiti Malik'
tp1110
a(S'100001804802293'
S'Tia Sharma'
tp1111
a(S'511949043'
S'Lara Khoury'
tp1112
a(S'547220093'
S'Timour X. Manzor Lalanne'
tp1113
a(S'515709154'
S'Ishita Chadha'
tp1114
a(S'560312836'
S'Narkis Alon'
tp1115
a(S'707346699'
S'Rahul Dev'
tp1116
a(S'511534907'
S'Tanya Qadir'
tp1117
a(S'100003092583617'
S'Yash Toshniwal'
tp1118
a(S'509911591'
S'Mareeha Ahmad'
tp1119
a(S'505638490'
S'Atin Ramola'
tp1120
a(S'1430246154'
S'Rajat Ahlaya'
tp1121
a(S'516402680'
S'Rohan Bhandari'
tp1122
a(S'1440763028'
S'Sanya Bajaj'
tp1123
a(S'508947215'
S'Veronica Aronova'
tp1124
a(S'707866955'
S'Purwa Chauhan'
tp1125
a(S'512696632'
S'Ashwat Sehgal'
tp1126
a(S'507224804'
S'PE Coulombe'
tp1127
a(S'660771603'
S'Jiya Prasad'
tp1128
a(S'655266293'
S'Yvonne Loo'
tp1129
a(S'100000128710281'
S'Haya Malik'
tp1130
a(S'100006979323414'
S'CinemaPolitica McGill'
tp1131
a(S'701385212'
S'Sarthak Grover'
tp1132
a(S'552005376'
S'Dania Moazzam'
tp1133
a(S'816535471'
S'Akeed Azmi'
tp1134
a(S'500438444'
S'Phil Ratman'
tp1135
a(S'697306192'
S'Rahul Samat'
tp1136
a(S'18401602'
S'Daniel Neville-Rehbehn'
tp1137
a(S'652359396'
S'Jingbo Zhu'
tp1138
a(S'501092153'
S'Talisa Oberoi'
tp1139
a(S'518409581'
S'Ratnam Jain'
tp1140
a(S'540815456'
S'Sanjay R'
tp1141
a(S'506375459'
S'Mikhail A. Naumov'
tp1142
a(S'100000607389132'
S'Toya Singh'
tp1143
a(S'563622424'
p1144
S'Eissa Haroon'
tp1145
a(S'604975531'
S'Adhish Bhobe'
tp1146
a(S'1083180159'
S'Neha Paliwal'
tp1147
a(S'810279097'
S'Tarun Agarwal'
tp1148
a(S'514359545'
S'Aliya Bhandari'
tp1149
a(S'1241075153'
S'Wanhee Ji'
tp1150
a(S'637195457'
S'Viraj Shastri'
tp1151
a(S'500182442'
S'Omar Bakir'
tp1152
a(S'824205533'
S'Riddhima Sharma'
tp1153
a(S'506332828'
S'Nikita Karki'
tp1154
a(S'817709480'
S'Aditi Banerjee'
tp1155
a(S'605886473'
S'Molly Ganley'
tp1156
a(S'1661700018'
S'Arzu Chaudhry'
tp1157
a(S'1661346217'
S'Raghav Minocha'
tp1158
a(S'547902919'
S'Marek Ahnee'
tp1159
a(S'560797815'
S'Shravani Barman'
tp1160
a(S'554925620'
S'Shreena Malaviya'
tp1161
a(S'627411166'
S'Muhammad Ahsan'
tp1162
a(S'100000865314608'
S'Nitin Sharma'
tp1163
a(S'741819007'
S'Ekta Mukhi'
tp1164
a(S'1192029796'
S'Surabhi Bhargava'
tp1165
a(S'684129722'
S'Asmeeta Das'
tp1166
a(S'100000672972836'
S'Magen Jennings'
tp1167
a(S'1107360177'
S'Arya Sajedi'
tp1168
a(S'561640932'
S'Bhuvan Mishra'
tp1169
a(S'802344453'
S'Edrico Ambrister'
tp1170
a(S'576755127'
S'Sadaat Salim'
tp1171
a(S'1696256223'
S'Kimberley Sarah Ireland'
tp1172
a(S'538500087'
S'Diya Puri'
tp1173
a(S'501633596'
S'Raphaelle Pat'
tp1174
a(S'512689754'
S'Faria Tanzeem Antora'
tp1175
a(S'516090821'
S'Aditya Lal'
tp1176
a(S'512853467'
S'Raaghav Agrawal'
tp1177
a(S'1249940475'
S'Aisha Dev'
tp1178
a(S'611210850'
S'Abhilasha Chhabra'
tp1179
asS'id'
p1180
S'576865450'
p1181
sS'name'
p1182
S'Kshitij Sharan'
p1183
s.