(dp1
S'friends'
p2
(lp3
(S'100001264206224'
S'Navaneetha Pramod'
tp4
a(S'1797529508'
S'Kusuma Padmanabhan'
tp5
a(S'100003934362515'
S'Tej Prakash Thapliyal'
tp6
a(S'100001511641346'
S'Jagan Sai'
tp7
a(S'100004007661461'
S'Shashi Kumar'
tp8
a(S'100003645382543'
S'Anirudh Mehta'
tp9
a(S'100003838094084'
S'Suraj Kumar'
tp10
a(S'100007061349942'
S'Athira Sivadas'
tp11
a(S'100000881919373'
S'Arathy Dethan'
tp12
a(S'581424414'
S'Anupa Venu'
tp13
a(S'100001346214884'
S'Anoop Bk'
tp14
a(S'100001502682638'
S'Gracy Varghese'
tp15
a(S'100001594531521'
S'Manoj Aswal'
tp16
a(S'1346030084'
S'Keerthivasan Natarajan'
tp17
a(S'739527704'
S'Nikhil Nair'
tp18
a(S'100007942570084'
S'Anupama Sree'
tp19
a(S'100003252416969'
S'Prisca Mathew'
tp20
a(S'100000875954349'
S'Usha Gangadharan Gangadharan'
tp21
a(S'100001428869008'
S'Sunita Sharma'
tp22
a(S'100002701034472'
S'Shubhangi Jonnalagadda'
tp23
a(S'100004364499510'
S'Vinatha Baiju S'
tp24
a(S'100004090750098'
S'Nisha Rajan'
tp25
a(S'100003720069074'
S'Anjana Anju'
tp26
a(S'737632238'
S'M.j. Induja'
tp27
a(S'100001365531330'
S'Gayatri Shenoy'
tp28
a(S'100002784650074'
S'Aarti Rawat'
tp29
a(S'100005428596542'
S'Suniska Kumari'
tp30
a(S'100002928800157'
S'Nithin Rokz'
tp31
a(S'100001964953651'
S'Sikandar Azam'
tp32
a(S'100003796113288'
S'Archana Kukreja'
tp33
a(S'100004497099245'
S'Rajalakshmi Natarajan'
tp34
a(S'1490726198'
S'Mridula Tikoo'
tp35
a(S'100000508580710'
S'Nandhini Natarajan'
tp36
a(S'100001948972727'
S'Mariam Mathew'
tp37
a(S'100006640056711'
S'Nithin Rajendran'
tp38
a(S'100004012712549'
S'Jalaja Devi T'
tp39
a(S'100002479547798'
S'Vigith Rockstr'
tp40
a(S'100001263975957'
S'Anita Rawat'
tp41
a(S'1368085093'
S'Sreedevi Suresh'
tp42
a(S'100000725725274'
S'Draupathy Antherjanam'
tp43
a(S'100001211787743'
S'Ramesh Kumar'
tp44
a(S'100000124794919'
S'Sumangala Sajeevan'
tp45
a(S'100001082023021'
S'Ambika Nair'
tp46
a(S'100003948420038'
S'Jalaja Devi T'
tp47
a(S'100000531519027'
S'Savita Nayak Thuwal'
tp48
a(S'100003720773693'
S'Athira Dethan'
tp49
a(S'100003940275163'
S'Geeta Mehta'
tp50
a(S'100000530015618'
S'\\u092e\\u0928\\u0940\\u0937 \\u0930\\u093e\\u091c\\u0939\\u0901\\u0938'
tp51
a(S'100002228913876'
p52
S'Annu Gautam'
tp53
a(S'100006040688605'
S'Sakshi Sreejith'
tp54
a(S'710800053'
S'Asha Mehta'
tp55
a(S'1845296131'
S'Manjusha Bhat'
tp56
a(S'100006525697961'
S'Jalaja Devi'
tp57
a(S'1418211561'
S'Rrk Nair'
tp58
a(S'100000104748250'
S'Sreejith Vijayakumar V'
tp59
a(S'1713961370'
S'Baiju Damodaran R'
tp60
asS'id'
p61
S'579739742'
p62
sS'name'
p63
S'Radha Nair'
p64
s.