(dp1
S'friends'
p2
(lp3
(S'100001016930240'
S'Navdeep Suri'
tp4
a(S'100001167068627'
S'Yogender Chaudhry'
tp5
a(S'1043565357'
S'Amartya Lahiri'
tp6
a(S'100000670901107'
S'Kavee Kumar'
tp7
a(S'609900151'
S'Hannah Davies'
tp8
a(S'899635345'
S'Monica Sanchez'
tp9
a(S'1425698718'
S'Manish Prabhat'
tp10
a(S'1003088196'
S'Sushant Sareen'
tp11
a(S'757949010'
S'Mahmood A Khairaz'
tp12
a(S'1074542273'
S'Rajit Punhani'
tp13
a(S'1780447134'
S'Sanjay Subarna'
tp14
a(S'100000635144111'
S'Amit Singh'
tp15
a(S'757202910'
S'Sajjad Hassan'
tp16
a(S'517329884'
S'Amarendra Khatua'
tp17
a(S'1145910844'
p18
S'Pravash Pandey'
tp19
a(S'100001421100923'
S'Pankaj Darad'
tp20
a(S'784158528'
S'Ashish Sinha'
tp21
a(S'588131347'
S'SarwanDeep Singh'
tp22
a(S'1121300567'
S'Chandramani Singh'
tp23
a(S'510551650'
S'Tahira Masroor'
tp24
a(S'1233868011'
S'Jayendra Rawat'
tp25
a(S'637056020'
S'Raveesh Kumar'
tp26
a(S'100000902200511'
S'Klaus de Rijk'
tp27
a(S'542943115'
S'Venu Rajamony'
tp28
a(S'656135928'
p29
S'Vishvajit Sahay'
tp30
a(S'582067232'
S'Kimberley Chawla'
tp31
a(S'588516262'
S'Veronique Pepin-Hall\\u00e9'
tp32
a(S'595729174'
S'Samer Alouan'
tp33
a(S'566802206'
S'Abhishek Singh'
tp34
a(S'828624534'
S'Robert Page'
tp35
a(S'671424997'
S'Vyragyam Siddi Ramalingam'
tp36
a(S'1072541770'
S'Abha Singh'
tp37
a(S'100000613900223'
S'Ramesh Kumar'
tp38
a(S'100000110342267'
S'Preeti Mehta'
tp39
a(S'675706757'
S'Sumit Seth'
tp40
a(S'521438547'
S'Varun Bhargava'
tp41
a(S'662592784'
S'Karen Lock'
tp42
a(S'1020320698'
S'Peter Maddens'
tp43
a(S'670249579'
S'Jag Mohan'
tp44
a(S'585202636'
S'Keshav Chandra'
tp45
a(S'100000176440321'
S'Susan McLurg'
tp46
a(S'1313529043'
S'Sushil Kumar Lohani'
tp47
a(S'665080947'
S'Dayananda Bannikal'
tp48
a(S'1418482657'
S'Santosh Kumar Yadav'
tp49
a(S'567664071'
S'Anupam Ray'
tp50
a(S'100000184600990'
S'Hitesh Makwana'
tp51
a(S'100001452595730'
S'Shashank Vikram'
tp52
a(S'1389956088'
p53
S'Rajiv Singh'
tp54
a(S'604957914'
S'Anthony Simpson'
tp55
a(S'1529645079'
S'Arvind Choudhary'
tp56
a(S'100000924810796'
S'Ram Mohan Singh'
tp57
a(S'1021094562'
S'Arindam Bagchi'
tp58
a(S'627094339'
S'Sandeep Chakravorty'
tp59
a(S'824637019'
S'Basanta Rajkumar'
tp60
a(S'1325500889'
S'Vishal Singh'
tp61
a(S'1490590662'
S'Ramesh Babu'
tp62
a(S'1357187290'
S'Ajai Malhotra'
tp63
a(S'100002397909619'
S'Deepak Mittal'
tp64
a(S'680850221'
S'Carlos Ruiz Massieu'
tp65
a(S'100000405043117'
S'Kamal Yadav'
tp66
a(S'687536344'
S'Ashok Malik'
tp67
a(S'1779249833'
S'Rebecca Page'
tp68
a(S'711885204'
S'Anish Sharma'
tp69
a(S'100003915685099'
S'Ruchira Kamboj'
tp70
a(S'652510888'
S'Fernando Sena'
tp71
a(S'1422573673'
S'Sanjay Kumar Srivastava'
tp72
a(S'567204718'
S'Saurabh Shukla'
tp73
a(S'1431364463'
S'Imran Vanker'
tp74
a(S'562282604'
S'Anil Wadhwa'
tp75
a(S'691245983'
S'Sanjeev Roy'
tp76
a(S'517455623'
S'Ajay Bisaria'
tp77
a(S'1374531420'
S'Bharati Chaturvedi'
tp78
a(S'729810899'
S'Brouz Coffi'
tp79
a(S'1041428467'
S'Sanjay Prasad'
tp80
a(S'100003735997495'
S'Vikas Swarup'
tp81
a(S'1685649306'
p82
S'Vijay Singh Chauhan'
tp83
a(S'100001492882531'
S'Debraj Pradhan'
tp84
a(S'637542874'
S'Alejandro Torres Lepori'
tp85
a(S'100003651387145'
S'Vivek Kumar'
tp86
a(S'100000252856150'
S'Devashish Mitra'
tp87
a(S'664011467'
S'Abhishek Shukla'
tp88
a(S'739594125'
S'Sripriya Ranganathan'
tp89
a(S'531609681'
S'Neeta Bhushan'
tp90
a(S'100003323905832'
S'Nagma Mallick'
tp91
a(S'100003017009101'
S'Mohammad Tal'
tp92
a(S'100001412048010'
S'Jaidev Sharma'
tp93
a(S'1167594574'
S'S Suresh Kumar'
tp94
a(S'675768939'
S'Amrit Abhijat'
tp95
a(S'100007512666060'
S'Hardeep Singh Puri'
tp96
a(S'100000723219230'
S'Gaurav Dwivedi'
tp97
a(S'100000654442249'
S'Jaideep Prasad'
tp98
a(S'839098495'
S'Amrita Singh Kumaran'
tp99
a(S'721579533'
S'Motumisi Tawana'
tp100
a(S'100002395868247'
S'Sanjesh Jawarani'
tp101
a(S'100004148133494'
S'Ausaf Sayeed'
tp102
a(S'1698892264'
S'Prashant Pise'
tp103
a(S'775057751'
S'Ara Margarian'
tp104
a(S'754792754'
S'Suhel Khan'
tp105
a(S'1221395132'
S'Devesh Srivastva'
tp106
asS'id'
p107
S'582751154'
p108
sS'name'
p109
S'Nagesh Singh'
p110
s.