(dp1
S'friends'
p2
(lp3
(S'1420661655'
S'Rasika Mathur'
tp4
a(S'100000950071410'
S'Rupali Mathur'
tp5
a(S'584208687'
S'Vaibhav Mathur'
tp6
a(S'100001583508506'
S'Jhalak Kalra'
tp7
a(S'100000096814989'
S'Rohan Kesarwani'
tp8
a(S'100006020611167'
S'Raghav Mathur'
tp9
a(S'100008239531070'
S'Rakesh Beihari Lal'
tp10
a(S'1522537295'
S'Ayush Thakur'
tp11
a(S'100000696522410'
S'Ashmeet Kharbanda'
tp12
a(S'1253666617'
S'Viksit Mathur'
tp13
a(S'820068047'
S'Suman Bardhan'
tp14
a(S'100001534664017'
S'Kartikeya Srivastava'
tp15
a(S'709420447'
S'Maitraie Baxi'
tp16
a(S'100001512990184'
S'Ankit Singh'
tp17
a(S'100004797431390'
S'Sania Naqvi'
tp18
a(S'1228675726'
S'Madhavi Khare'
tp19
a(S'100002209897480'
S'Sonam Mishra'
tp20
a(S'100002120771958'
S'Shivangi Varshney'
tp21
a(S'615361689'
S'Abhishek Srivastava'
tp22
a(S'100001275952218'
S'Vaishali Mathur'
tp23
a(S'100001502464061'
S'Sharmila Ghosh'
tp24
a(S'100000809544176'
S'Ankit Chopra'
tp25
a(S'100000969736203'
S'Deepima Saxena'
tp26
a(S'100000095371692'
S'Prashant Gupta'
tp27
a(S'540860058'
S'Anubhav Mathur'
tp28
a(S'716410762'
S'Ashutosh Mathur'
tp29
a(S'100002548625920'
S'Sheena Maingi'
tp30
a(S'100003554111715'
S'Rajat Mathur'
tp31
a(S'100000468497268'
S'Arti Mathur'
tp32
a(S'100002413311719'
S'Anupama Agarwal'
tp33
a(S'100007550973429'
S'Sarthak Chauhan'
tp34
a(S'100004737007178'
S'Niharika Dwivedi'
tp35
a(S'1398842373'
S'Astha Shorey'
tp36
a(S'1536559764'
S'\\u00c4\\u010f\\u012b\\u0167\\u0177\\u00e3 \\u0110\\u00e3\\u0144\\u0123\\u012f'
tp37
a(S'100000119460877'
S'Ankit Jaggi'
tp38
a(S'627678086'
S'Ankita Ghosh Bardhan'
tp39
a(S'100000923782388'
S'Ayushi Dube'
tp40
a(S'100000808544014'
S'Aditi Mukhopadhyaya'
tp41
a(S'1670296502'
S'Ketaki Kumar Khatri'
tp42
a(S'100002603533984'
S'Jyoti Mathur'
tp43
a(S'100001186722394'
S'Sanjay Jain'
tp44
a(S'100001022161828'
S'Pratik Agarwal'
tp45
a(S'100000930999574'
S'Akriti Ghosh'
tp46
a(S'100001196286015'
S'Satwik Malviya'
tp47
a(S'586031282'
S'Viddit Lal'
tp48
a(S'100001323756901'
S'Vansh Saigal'
tp49
a(S'100001481680413'
S'Pratul Vishera'
tp50
a(S'100006088175518'
S'Prekshy Singh'
tp51
a(S'100000607326820'
S'Shashank Pandey'
tp52
a(S'100001728235894'
S'Udbhav Dubey'
tp53
a(S'539971087'
S'Vibhor Mathur'
tp54
a(S'100000146622729'
S'Adi Shorey'
tp55
a(S'100004420444883'
S'Ayushi Verma'
tp56
a(S'100001541628817'
S'Ayush Bhardwaj'
tp57
a(S'100000226513358'
S'Khushboo Mishra Mathur'
tp58
a(S'100005751751959'
S'Ankit Pushkar'
tp59
a(S'1001897782'
S'Asim Khan'
tp60
a(S'100000540729654'
S'Aditya Soneja'
tp61
a(S'100001264725855'
S'Aman Rai'
tp62
a(S'100000982599203'
S'Pranjal Gupta'
tp63
a(S'1094468735'
S'Vandita Tripathi'
tp64
a(S'100001789579437'
S'Nitika Gupta'
tp65
a(S'100000458493008'
S'Akshay Bahadur'
tp66
a(S'506752325'
S'Rachit Lal'
tp67
a(S'1840297834'
S'Parul Mathur'
tp68
a(S'100003089483827'
S'Shreya Srivastava'
tp69
a(S'100000926408795'
S'Shreya Bhutani'
tp70
a(S'100001303371842'
S'Raman Tiwari'
tp71
a(S'100002731745819'
S'AsHi Jha'
tp72
a(S'100003781045556'
S'Shikhar Chitransh'
tp73
a(S'100001927257075'
S'Akash Gupta'
tp74
a(S'1508125698'
S'Prakhar Chauhan'
tp75
a(S'100001993611112'
S'Utkarsh Darbari'
tp76
a(S'100004685738941'
S'Atul Mathur'
tp77
a(S'100001397103356'
S'Shivendra Mathur'
tp78
a(S'100001427812007'
S'Suyash Gupta'
tp79
a(S'1073190559'
S'Pulkit Mathur'
tp80
a(S'100003870491413'
S'Marshneil Arora'
tp81
a(S'100001149377428'
S'Prakhar Saxena'
tp82
a(S'100003753492664'
S'Prachi Rai'
tp83
a(S'560473437'
S'Abhishek Mathur'
tp84
a(S'100001800297401'
S'Pradeep Srivastava'
tp85
a(S'100001199090721'
S'Chirag Narula'
tp86
a(S'1324970324'
S'Akshat Bijlani'
tp87
a(S'100005185746647'
S'Devansh Chandra'
tp88
a(S'100001354278674'
S'Anshika Mathur'
tp89
a(S'100001191356850'
S'Rahul Pandey'
tp90
a(S'548509975'
S'Anil Kumar Mathur'
tp91
a(S'100003498715762'
S'Jayanto Bose'
tp92
a(S'1158156424'
S'Manjari Lal'
tp93
a(S'100001028311269'
S'Smita Jain'
tp94
a(S'100001532707527'
S'Adeel Hamza Addy'
tp95
a(S'100001656483331'
S'Mayank Srivastava'
tp96
a(S'100000363216454'
S'Priya Mathur'
tp97
a(S'1050688400'
S'Romit Mathur'
tp98
a(S'100000741456606'
S'Shashank Singhal'
tp99
a(S'1851880985'
S'Rahul Singh'
tp100
a(S'100001893403823'
S'Saurav Chauhan'
tp101
a(S'100001473263063'
S'Vijeta Jaiswal'
tp102
asS'id'
p103
S'585378178'
p104
sS'name'
p105
S'Raghav Mathur'
p106
s.