(dp1
S'friends'
p2
(lp3
(S'100004016814623'
S'James Turner'
tp4
a(S'100004733770685'
S'Muhammad Ali'
tp5
a(S'595773938'
p6
S'Osama Saeed'
tp7
a(S'100002750538654'
S'Mohammad Imran'
tp8
a(S'100001001395163'
S'Sara Khan'
tp9
asS'id'
p10
g6
sS'name'
p11
S'Osama Saeed'
p12
s.