(dp1
S'friends'
p2
(lp3
(S'739452925'
S'Ankita Mohta'
tp4
a(S'715075873'
S'Pranab Kumar Beriya'
tp5
a(S'100000585422914'
S'Shagun Anand'
tp6
a(S'100000233110169'
S'Shraddha Jain'
tp7
a(S'100000734981255'
S'Nandini Singh'
tp8
a(S'1363255326'
S'Naina Verma'
tp9
a(S'681730161'
S'Ankush Arora'
tp10
a(S'1022684160'
S'Tushar Bhala'
tp11
a(S'1184727343'
S'Kanakshankar Mukherji'
tp12
a(S'807281551'
S'Piyush Lakhmani'
tp13
a(S'1102021327'
S'Snehasree Neogy'
tp14
a(S'717292498'
S'Anisha Jalan'
tp15
a(S'816365471'
S'Namrata Khetan'
tp16
a(S'547530374'
S'Garima Gandhi'
tp17
a(S'100000811667824'
S'Sukanya Roy Chowdhury'
tp18
a(S'100000126970237'
S'Harleen Aneja'
tp19
a(S'1028117952'
S'Ayush Jain'
tp20
a(S'715557424'
S'Nidhi Iyer'
tp21
a(S'713420537'
S'Udit Agarwal'
tp22
a(S'721269569'
S'Mehr Chakraborty'
tp23
a(S'772085136'
S'Richa Khetan'
tp24
a(S'647252271'
S'Arvind Kumar'
tp25
a(S'826568954'
S'Natasha Jacob'
tp26
a(S'1725082934'
S'Harsh Jhawar'
tp27
a(S'1249891816'
S'Anjali Bajaj'
tp28
a(S'1610735562'
S'Shanu Agarwal'
tp29
a(S'680317362'
S'Poonam Beria Kasat'
tp30
a(S'100000786055993'
S'Raju Nikky Choudhury'
tp31
a(S'1843622156'
S'Rahul Daga'
tp32
a(S'601852323'
S'Nandini Choudhury'
tp33
a(S'100001006430839'
S'Tanveer Kaur'
tp34
a(S'100000289221877'
S'Mansi Agarwal'
tp35
a(S'619225618'
S'Jaya Misra Devgan'
tp36
a(S'100004449433057'
S'Tanvi Rajgarhia'
tp37
a(S'100001534816738'
p38
S'Soumyajit Kar'
tp39
a(S'1445255540'
S'Ekta Bengani'
tp40
a(S'645051833'
S'Paridhi Jain'
tp41
a(S'100000274711304'
S'Smita Khetan'
tp42
a(S'1278408160'
S'Smita Chakraburtty'
tp43
a(S'1063620799'
S'Vaishali Mitra'
tp44
a(S'100002736966022'
S'Shreya Vora'
tp45
a(S'845809230'
S'Chetan Agarwal'
tp46
a(S'1695076023'
S'Paridhee Jalan'
tp47
a(S'100000122971016'
S'Mohana Kapat'
tp48
a(S'866100211'
S'Rishabh Kothari'
tp49
a(S'667856823'
S'Meher Kalra'
tp50
a(S'9132125'
S'Sahil Shanghavi'
tp51
a(S'543511008'
S'Sandra Monteiro'
tp52
a(S'100004574290076'
S'Srodhya Chakravorty'
tp53
a(S'595531642'
S'Kunal Kasat'
tp54
a(S'100001093017936'
S'Naman Poddar'
tp55
a(S'100002265819731'
S'Rinku Modi'
tp56
a(S'100003076759880'
S'Arnab Bhattacharjee'
tp57
a(S'1553520043'
S'Rishika Chhajer'
tp58
a(S'638561774'
S'Shreya Agarwal'
tp59
a(S'771130674'
S'Priyadarshini Mukherjee'
tp60
a(S'782745578'
S'Jhelum Podder'
tp61
a(S'728567065'
S'Divya Chaturvedi'
tp62
a(S'1303492733'
S'Abhishek Rania'
tp63
a(S'1194131531'
S'Snehal Saraf'
tp64
a(S'100000330778575'
S'Om Agarwal'
tp65
a(S'1013454643'
S'Niyati Daga'
tp66
a(S'100000787442217'
S"Ma'am Dayani"
tp67
a(S'1513300807'
S'Shubhra Shah Agarwal'
tp68
a(S'1623429660'
S'Sanjeev Poddar'
tp69
a(S'100001551382104'
S'Rajeev Modi'
tp70
a(S'735364043'
S'Siddhant Agarwal'
tp71
a(S'1322660785'
S'Mayur Natarajan'
tp72
a(S'100000415376841'
S'Anita Chandra'
tp73
a(S'604165428'
S'Nalin Gupta'
tp74
a(S'1246483495'
S'Kanishk Kenny Gupta'
tp75
a(S'601800378'
S'Atishay Jain'
tp76
a(S'1355694924'
S'Nittya Balodia'
tp77
a(S'1514913255'
S'Aditya Khetan'
tp78
a(S'100000545227214'
S'Mridul Agrawal'
tp79
a(S'507883846'
S'Sonam Arya'
tp80
a(S'677816121'
S'Sana Jalan'
tp81
a(S'100001969266509'
S'Roshni Narwani'
tp82
a(S'1485675568'
S'Sumedha Verma'
tp83
a(S'100000522861610'
S'Soumyo Ghosh'
tp84
a(S'100004748047937'
S'Rajesh Babita Keshan'
tp85
a(S'100001579013542'
S'Debarati Choudhury'
tp86
a(S'637717543'
S'Sonali Kapoor'
tp87
a(S'601975469'
S'Radha Kumar'
tp88
a(S'529794256'
S'Antra Chandna'
tp89
a(S'100001080518046'
S'Sreyansha Bhattacharya'
tp90
a(S'100007751580844'
S'Juhi Agarwal'
tp91
a(S'1767227862'
S'Nitta Singh'
tp92
a(S'696300411'
S'Ishita Gupta'
tp93
a(S'1519268508'
S'Shrishti Singhania'
tp94
a(S'100000093901978'
S'Shamoita Bose'
tp95
a(S'100001075575811'
S'Sakshi Poddar'
tp96
a(S'1047170337'
S'Chandrani Talukdar'
tp97
a(S'1077705189'
S'Aanchal Chandna'
tp98
a(S'552015601'
S'Anumeha Dalmia'
tp99
a(S'571611209'
S'Pratik Sarawagi'
tp100
a(S'656836920'
S'Tanushree Jain'
tp101
a(S'670550793'
S'Sahal Ahmad'
tp102
a(S'510325397'
S'Disha Musaddi'
tp103
a(S'1059600588'
S'Suchita Agarwal Khemani'
tp104
asS'id'
p105
S'602201717'
p106
sS'name'
p107
S'Priyal Saraf'
p108
s.