(dp1
S'friends'
p2
(lp3
(S'605476985'
S'Arvind Kumar Chauhan'
tp4
a(S'100000358415006'
S'Nilesh Bhamley'
tp5
a(S'1657166274'
S'Mahesh Ak'
tp6
a(S'1813639831'
S'Anurag Shinde'
tp7
a(S'626887598'
S'Hardeep Rathee'
tp8
a(S'100000109252637'
S'Pradeep Paliwal'
tp9
a(S'100001484097525'
S'Amit Pratap Singh'
tp10
a(S'100004153963357'
S'Abhijeet Rawat'
tp11
a(S'100001049621192'
S'Nitin Vashishtha'
tp12
a(S'100001984581611'
S'Mohan Lal Rathore'
tp13
a(S'100002191454952'
S'Pavan Sharma'
tp14
a(S'1012659683'
S'Harshvardhan Rajpurohit'
tp15
a(S'100007699141912'
S'Arti Sharma'
tp16
a(S'1107033555'
S'Prince Mishra'
tp17
a(S'1477147324'
S'Raul Bantu Pank'
tp18
a(S'736505001'
S'Sanjay Singh Bhandari'
tp19
a(S'100006748991592'
S'Gunjan Kaushik'
tp20
a(S'642762602'
S'Alok Patel'
tp21
a(S'100001191935549'
S'Kumar Dinn'
tp22
a(S'670615565'
S'Rahul Jaggi'
tp23
a(S'100004168360064'
S'Partha Sarathi Rath'
tp24
a(S'735745461'
S'\\u0926\\u0947\\u0935\\u0947\\u0928\\u094d\\u0926\\u094d\\u0930 \\u0938\\u093f\\u0902\\u0939 \\u0930\\u094c\\u0924\\u0947\\u0932\\u093e'
tp25
a(S'100000198336862'
S'Dhiraj Mishra'
tp26
a(S'737675592'
S'Bijender Sidhu'
tp27
a(S'1479066912'
S'Varun Kumar'
tp28
a(S'100003779067639'
S'Abhishek Pachori'
tp29
a(S'567085676'
S'Yashprit Singh'
tp30
a(S'100002066013864'
S'Sanjeet Phougat'
tp31
a(S'594543450'
S'Ravi Kashyap'
tp32
a(S'100000505277948'
S'Vipin Rawat'
tp33
a(S'100000508320697'
S'Anuj Chhetri'
tp34
a(S'100001285141061'
S'Jaidhan Singh'
tp35
a(S'742406240'
S'Dharmendra Prasad'
tp36
a(S'606691485'
S'Deepak Chauhan'
tp37
a(S'100002378692095'
S'Nandan Pachauri'
tp38
a(S'100000947196720'
S'Jetinder Rathore'
tp39
a(S'1168369302'
S'Anil Chahar'
tp40
a(S'1021476055'
S'Ravindra Dasila'
tp41
a(S'100001371739518'
S'Chetan Urkudkar'
tp42
a(S'539627549'
S'Ankush Sharma'
tp43
a(S'1039830948'
S'Vivekendra Chauhan'
tp44
a(S'100000775558307'
S'Sanjeev Singh Parmar'
tp45
a(S'1499516136'
S'Vivek Khajuria'
tp46
a(S'100001404716486'
S'Abhishek Kumar'
tp47
a(S'100000182996710'
S'Vikas Sangwan'
tp48
a(S'100000360990838'
S'Akhilesh Verma'
tp49
a(S'100000752798846'
S'Harendra Chauhan'
tp50
a(S'1328277540'
S'Mohsina Mansoori'
tp51
a(S'1778771526'
S'Devender Singh Bhagour'
tp52
a(S'886495467'
S'Harsh Singh'
tp53
a(S'100000081136107'
S'Pradeep Gusain'
tp54
a(S'1129923527'
S'Laxman Singh'
tp55
a(S'100000361760254'
S'Rao Sandeep Yadav'
tp56
a(S'566931722'
S'Vikas Samyal'
tp57
a(S'1156465923'
S'Aradhana Singh'
tp58
a(S'100001745874305'
S'Rohit Rawat'
tp59
a(S'100000005748382'
S'Anil Kodavalla'
tp60
a(S'1045907361'
S'Ashish Dubey'
tp61
a(S'1433013913'
S'Dinesh Chaudhary'
tp62
a(S'100001499462031'
S'Akhilesh Chaudhary'
tp63
a(S'100005637000427'
S'Pradeep Bhardwaj'
tp64
a(S'100002031919907'
S'Abhinav Rawat'
tp65
a(S'626648844'
S'Jagmohan Vishwakarma'
tp66
a(S'100000127818155'
p67
S'Siddharth Mudgal'
tp68
a(S'100001586702222'
S'Saurabh Kushawah'
tp69
a(S'1186936668'
S'Barun Kumar'
tp70
a(S'634185134'
S'Ved Prakash Bhattacharya'
tp71
a(S'100000916462523'
S'Sandeep Surya'
tp72
a(S'100000344130658'
S'Sridhar Patil'
tp73
a(S'1261131319'
S'Rohitash Sharma'
tp74
a(S'100001495545901'
S'Arvind Kaushik'
tp75
a(S'509975081'
S'Kunal Khanna'
tp76
a(S'539684194'
S'Naveen Kumar'
tp77
a(S'100000458832364'
S'Sandeep Bhardwaj'
tp78
a(S'625328229'
S'Arvind Pandey'
tp79
a(S'636289872'
S'Deepak Dobal'
tp80
a(S'565981839'
S'Anuj Joshi'
tp81
a(S'100001157745983'
S'Mohit Rawat'
tp82
a(S'100001691041818'
S'Er Sunil Gupta'
tp83
a(S'100001323982330'
S'Mukku Jodha'
tp84
a(S'100000360396812'
S'Harish Choudhary'
tp85
a(S'100000310704874'
S'Chandraveer Singh'
tp86
a(S'886690513'
S'Swadesh Sharma'
tp87
a(S'592904775'
S'Ummed Mahala'
tp88
a(S'752578877'
S'Rohit Jaiswal'
tp89
a(S'735070640'
S'Rajesh Gawas'
tp90
a(S'605490865'
S'Herman Singh'
tp91
a(S'1673619792'
S'Nirmal Chhetri'
tp92
a(S'100001199827146'
S'Vijay Manoharan'
tp93
a(S'634885038'
S'Divya Padmanaban'
tp94
a(S'750444951'
S'Kamal Singh'
tp95
a(S'1748874440'
S'Vipin Kumar'
tp96
a(S'100000923282823'
S'Alok Sheoran'
tp97
a(S'100000157448464'
S'Pankaj Kumar Poonia'
tp98
a(S'100000672643110'
S'Avnendra Bhadauria'
tp99
a(S'885820583'
S'Praveen Bhadauria'
tp100
a(S'745176270'
S'Shivdarshan Singh'
tp101
a(S'884870310'
S'Harsh Dev Chaudhary'
tp102
a(S'100006022391692'
S'Tanmay Tomar'
tp103
asS'id'
p104
S'604586757'
p105
sS'name'
p106
S'Ashwani Kumar Pachauri'
p107
s.