(dp1
S'friends'
p2
(lp3
(S'614119632'
S'Asad Zahid'
tp4
a(S'100004405389370'
S'Rida Fatima'
tp5
a(S'100006075274801'
S'Jamal Kh-fbs'
tp6
a(S'100001065801308'
S'Justin Chen'
tp7
a(S'100003260548789'
S'Jalal Khan'
tp8
asS'id'
p9
S'614119632'
p10
sS'name'
p11
S'Asad Zahid'
p12
s.