(dp1
S'friends'
p2
(lp3
(S'100002999626504'
S'Shalini Shekhar'
tp4
a(S'1739882233'
S'Rooma Chaturvedi'
tp5
a(S'100001003518244'
S'Raghav Makker'
tp6
a(S'1563997220'
S'Anahita Jhunja'
tp7
a(S'100002525644868'
S'Ruchi Sharma'
tp8
a(S'100001091277442'
S'Ishani Banerjee'
tp9
a(S'100000475863132'
S'Aditya Mukerjee'
tp10
a(S'100001751510741'
S'Suyash Malviya'
tp11
a(S'1819821354'
S'Kshitiz Mor'
tp12
a(S'1268457541'
S'Nitish Sinha'
tp13
a(S'100000000546118'
S'Jatin Kumar'
tp14
a(S'1371010081'
S'Srishtii Rastogi'
tp15
a(S'1339893858'
S'Aakarsha Sivaramakrishnan'
tp16
a(S'100001475895629'
S'Saagar Nayyar'
tp17
a(S'1805603870'
S'Tanmay Sharma'
tp18
a(S'100004145166803'
S'Kartika Badola'
tp19
a(S'1237146403'
S'Amit Bikram'
tp20
a(S'1160587318'
S'Vidisha Arora'
tp21
a(S'100004469523642'
S'Nitiksha Sharma'
tp22
a(S'1756691449'
S'Soumil Rana'
tp23
a(S'100004454342846'
S'Paavni Singh'
tp24
a(S'682978104'
S'Sandeep Prasad'
tp25
a(S'749174111'
S'Aditi Dey'
tp26
a(S'100001055285133'
S'Sarim Rocco'
tp27
a(S'1818726078'
S'Mehak Bajaj'
tp28
a(S'581616430'
S'Ainesh Ahluwalia'
tp29
a(S'1224661475'
S'Mikasha Sinha'
tp30
a(S'100002150031293'
S'Palak Bhatia'
tp31
a(S'604654161'
S'Anant Vishnu'
tp32
a(S'100000842334561'
S'Gemmy Wadhwa'
tp33
a(S'1209121484'
S'Aditya Gupta'
tp34
a(S'623250112'
S'Mohit Bardaiyar'
tp35
a(S'782368677'
S'Sauhard Gupta'
tp36
a(S'100001842669367'
S'Abhinav Bhargava'
tp37
a(S'511624386'
S'Vyom Sati'
tp38
a(S'100001456947024'
S'Arushi Aesha'
tp39
a(S'100001353660440'
S'Chandan Giri'
tp40
a(S'100001004407752'
S'Khunnal Bir Singh Palta'
tp41
a(S'100002531452170'
S'Divya Tara'
tp42
a(S'100002342304757'
S'Paras Sharma'
tp43
a(S'100000508740983'
S'Aryam Joshi'
tp44
a(S'1659287081'
S'Devki Nehra'
tp45
a(S'639683015'
S'Shivam Jha'
tp46
a(S'100000276390220'
S'Anirudh Singh'
tp47
a(S'743370119'
S'Priyanka Kwatra'
tp48
a(S'814265556'
S'Surbhi Kapur Talwar'
tp49
a(S'100003937857696'
S'Tanya Bhatia'
tp50
a(S'523339881'
S'Prachi Chaudhary'
tp51
a(S'100004080661742'
S'Mansha Kaur'
tp52
a(S'100000185028860'
S'Radhika Chandak'
tp53
a(S'100000827842160'
S'Vikrant Chaudhary'
tp54
a(S'100000921551589'
S'Dimple Dhawan'
tp55
a(S'100001281770165'
S'Junak Joon'
tp56
a(S'1407716922'
S'Arko Dey'
tp57
a(S'1580207911'
S'Lakshya Gupta'
tp58
a(S'100001468397590'
S'Agrima Kalra'
tp59
a(S'100000987821051'
S'Kubair Rangan'
tp60
a(S'100000963394457'
S'Tushar Kalra'
tp61
a(S'100000019913073'
S'Sunita Mohan'
tp62
a(S'100000244844671'
S'Samata Yagnambhat'
tp63
a(S'100000372791633'
S'Vishwas Khatri'
tp64
a(S'100000596932628'
S'Sanchit Kumar'
tp65
a(S'779432234'
S'Sagnik Ghosh'
tp66
a(S'1116326201'
S'Shalini Vatsa'
tp67
a(S'1414004437'
S'Omung Lalchandani'
tp68
a(S'703921629'
S'Shubham Mathur'
tp69
a(S'1354073232'
S'Sohil Sharma'
tp70
a(S'540107796'
S'Sukrit Mohan'
tp71
a(S'100003656377899'
S'Rishabh Sinha'
tp72
a(S'100002056969983'
S'Shaurya Saxena'
tp73
a(S'532742043'
S'Anumita Bhattacharyya'
tp74
a(S'100000141729076'
S'Sanjana Agarwal'
tp75
a(S'525030614'
S'Aayush Khare'
tp76
a(S'1280006597'
S'Anav Mathur'
tp77
a(S'100001919949277'
S'Namita Sinha'
tp78
a(S'1234141108'
S'Faiz Khan'
tp79
a(S'100000337722211'
S'Mani Bhargava'
tp80
a(S'1421044970'
S'Rahul Gupta'
tp81
a(S'100000770779153'
S'Vinit Rathi'
tp82
a(S'100000314739998'
S'Abhai Bardaiyar'
tp83
a(S'100000574964609'
S'Archit Wadhwa'
tp84
a(S'595504306'
S'Rahul Upadhyay'
tp85
a(S'100000878001428'
S'Aditya Jain'
tp86
a(S'1610304891'
S'Pooja Luthra'
tp87
a(S'100000252716318'
S'Raveena Nanda'
tp88
a(S'100001669107050'
S'Ishaan Kundu'
tp89
a(S'1316301064'
S'Shaurya Muttreja'
tp90
a(S'1503894258'
S'Mehak Kawatra'
tp91
a(S'100000648937098'
S'Arunjay Mohan'
tp92
a(S'100003642253687'
S'Pratiksha Malhotra'
tp93
a(S'100002571915033'
S'N.p. Sahay'
tp94
a(S'100001085303337'
S'Arham Tauhid'
tp95
a(S'564489365'
S'Jayesh Joshi'
tp96
a(S'563504491'
S'Harsh Malhotra'
tp97
a(S'100000124347681'
S'Surbhi Gupta'
tp98
a(S'100000963493168'
S'Nayan Mongia'
tp99
a(S'100001589592090'
S'Kartik Arora'
tp100
a(S'100000678231565'
S'Lakshay Arya'
tp101
a(S'100000111831161'
S'Rashi Jain'
tp102
a(S'100000386285228'
S'Ankur Raja'
tp103
a(S'1215731501'
S'Ishan Agarwal'
tp104
a(S'100003441055846'
S'Akanksha Sharma'
tp105
a(S'100001473949212'
S'Muskan Kaur'
tp106
a(S'100001637088275'
S'Deepa Nagesh'
tp107
a(S'1049987675'
S'Anirudh Kumar'
tp108
a(S'100001220884149'
S'Akshay Yadav'
tp109
a(S'1558264578'
S'Vaibhav Veer Shanker'
tp110
a(S'1573113605'
S'Govind Chithrath'
tp111
a(S'1518398797'
S'Shubham Sharma'
tp112
a(S'100000638525428'
S'Siddhant Sahni'
tp113
a(S'1228051576'
S'Tushita Dogra'
tp114
a(S'100000626672031'
S'Shardul Singh'
tp115
a(S'100000585970602'
S'Levin Mathew'
tp116
a(S'1349018055'
S'Vyom Sahni'
tp117
a(S'1614357707'
S'Aryan Tripathi'
tp118
a(S'623419864'
S'Sanjay Mohan'
tp119
a(S'1344387664'
S'Anmol Narang'
tp120
a(S'1683504983'
S'Neetishree Sinha'
tp121
a(S'100002199631516'
S'Ayushi Dudani'
tp122
a(S'1618504157'
S'Niharika Godara'
tp123
a(S'100004660238628'
S'Abhishek Srivastava'
tp124
a(S'807332645'
S'Rahul Yadav'
tp125
a(S'100003155293135'
S'Pashy Kaur'
tp126
a(S'100003809674936'
S'Ihita Sharma'
tp127
a(S'100001047859996'
S'Ashu Singh'
tp128
a(S'1536731203'
S'Divanshi Gupta'
tp129
a(S'1461072935'
S'Akshansh Animesh'
tp130
a(S'100000482074407'
S'Akanksha Sadana'
tp131
a(S'594379054'
S'Amit Narain'
tp132
a(S'1252423634'
S'Ritwick Udayan'
tp133
a(S'100001647698112'
S'Vinit Rathi'
tp134
a(S'100001686462198'
S'Saarthak Ghosh'
tp135
a(S'1504914433'
S'Nikita Ahuja'
tp136
a(S'100000519219280'
S'Gaurang Joshi'
tp137
a(S'100001533411640'
S'Juniarsih Veriska'
tp138
a(S'1142272093'
S'Rohan Malsawm'
tp139
a(S'1342921275'
S'Shreyas Varshney'
tp140
a(S'100002409745031'
S'Anushka Gupta'
tp141
a(S'679620845'
S'Saif Haque'
tp142
a(S'100001954098287'
S'Anjali Lohia'
tp143
a(S'1025143763'
S'Abhinav Yadav'
tp144
a(S'100000024403508'
S'Yaduraj Singh Chauhan'
tp145
a(S'1235388146'
S'Narun Kakkar'
tp146
a(S'100001201142964'
S'Tuhina Chakraverty'
tp147
a(S'100001506400506'
S'Rajat Arya'
tp148
a(S'100001035993480'
S'Anand Dahiya'
tp149
a(S'1042945244'
S'Akshay Verma'
tp150
a(S'1630681323'
S'Bhuwan Chauhan'
tp151
a(S'1287781769'
S'Ashutosh Sinha'
tp152
a(S'100001948746025'
S'Abhishek Mukhopadhyay'
tp153
a(S'100000141653106'
S'Punika Mangla'
tp154
a(S'1360318172'
S'Karan Singh'
tp155
a(S'1760274583'
S'Meher Prasher'
tp156
a(S'1496441718'
S'Karan Sud'
tp157
a(S'100000373405594'
S'Rohit Chhoker'
tp158
a(S'100001562877610'
S'Shayon Chakravarthi'
tp159
a(S'1412825460'
S'Aditya Vikram'
tp160
a(S'1365763581'
S'Hamsa Raina'
tp161
a(S'624097608'
S'Sohini Mohan'
tp162
a(S'619689917'
S'Neelesh Verma'
tp163
a(S'100002536202193'
S'Hira Singh'
tp164
a(S'1580043892'
S'Nikhil Malik'
tp165
a(S'100003188857884'
S'Manish Bhati'
tp166
a(S'1161434719'
S'Sarthak Kataria'
tp167
a(S'697297291'
S'Radhika Nair'
tp168
a(S'100002533788255'
S'Indranil R Mukherji'
tp169
a(S'100004625593387'
S'Simran Singh'
tp170
a(S'100001433349722'
S'Philip Jacob'
tp171
a(S'1336925600'
S'Rohit Ray'
tp172
a(S'100004106986846'
S'Twisha Chhatwal'
tp173
a(S'1384157406'
S'Rohit Bardaiyar'
tp174
a(S'1827189679'
S'Shaurya Saxena'
tp175
a(S'100007734400441'
S'Taarinie Rai Kochhar'
tp176
a(S'1310148988'
S'Mannat Singh'
tp177
a(S'100000168476359'
S'Akarsh Dayal'
tp178
a(S'100000002224483'
S'Abhiyant Singh'
tp179
a(S'610626907'
S'Soven Trehan'
tp180
a(S'100000294635593'
S'Lakshay Sharma'
tp181
a(S'100000633854316'
S'Vinayak Sachdeva'
tp182
a(S'100000224704585'
S'Sameer Ray'
tp183
a(S'100000654275775'
S'Akhil Sharma'
tp184
a(S'1617822482'
S'Saif Karigar'
tp185
a(S'1719476289'
S'Kevin Banker'
tp186
a(S'100001269691061'
S'Prachi Bapna'
tp187
a(S'1758594290'
S'Bhavya Bhatia'
tp188
a(S'100001298158607'
S'Roseline Pandian'
tp189
a(S'100001022465422'
S'Divyakshi Satija'
tp190
a(S'1520029248'
S'Anubhav Kapur'
tp191
a(S'100001171463213'
S'Vanshika Thapliyal'
tp192
a(S'1808469064'
S'Prabhat Garg'
tp193
a(S'100002374926640'
S'Dushyant Kumar Dushu'
tp194
a(S'1842755228'
S'Rohit Gangwani'
tp195
a(S'1319842602'
S'Sahiba Baweja'
tp196
a(S'100004179463642'
S'Rhea Tyagi'
tp197
a(S'1308765318'
S'Vaishnavi Yadav'
tp198
a(S'1051006929'
S'Mudita Yadav'
tp199
a(S'1825951585'
S'Sankalp Kalia'
tp200
a(S'100000403891352'
S'Garima Ladwal'
tp201
a(S'100000991451764'
S'Pooja Singh'
tp202
a(S'100000086627940'
S'Shalini Sinha'
tp203
a(S'1492163014'
S'KiRti ShaRma'
tp204
a(S'100001537708989'
S'Ketaki Sinha'
tp205
a(S'100008394905175'
S'Megha Chopra'
tp206
a(S'100000417626143'
S'Lucky Man'
tp207
a(S'100000181892194'
S'Meghna Mohan'
tp208
a(S'100000069663640'
S'Hargun Kohli'
tp209
a(S'100000120321447'
S'Arko Dey'
tp210
a(S'100000074817754'
S'Chhavi Joshi'
tp211
a(S'1307373193'
S'Shubham Utkresth'
tp212
a(S'1238368418'
S'Mehnaz Khan'
tp213
a(S'100000901222882'
S'Sourav Ganguly'
tp214
a(S'1221156455'
S'Varun Anand'
tp215
a(S'100000738602906'
S'Rakshak Jain'
tp216
a(S'100000035179021'
S'Chinmay Sharma'
tp217
a(S'1215910665'
S'Samridhi Aggarwal'
tp218
a(S'100007835352148'
S'Alankrita Rana'
tp219
a(S'100000439912672'
S'Udayati Dinkar'
tp220
a(S'100001169076132'
S'Aishika Dutta'
tp221
a(S'100000477604349'
S'Divij Papneja'
tp222
a(S'1041773670'
S'Sohrab Gill'
tp223
a(S'100000975996484'
S'Arnav Ailawadi'
tp224
a(S'100000684876878'
S'Abhishek Ruchir'
tp225
a(S'1728208700'
S'Josheka Chauhan'
tp226
a(S'1140639191'
S'Damini Sharda'
tp227
a(S'100000056024649'
S'Surbhi Arora'
tp228
a(S'100003655070777'
S'Tanvi Papneja'
tp229
a(S'1639577653'
S'Alankrita Bhalotia'
tp230
a(S'1145592636'
S'Pranav Masa'
tp231
a(S'1055642143'
S'Kaustav Gupta'
tp232
a(S'100000815613397'
S'Hritesh Kumar'
tp233
a(S'100002813017064'
S'Nikita Sharma'
tp234
a(S'100002388195988'
S'Ratan P Sahay'
tp235
a(S'100000776837767'
S'Aman Sharma'
tp236
a(S'100002658802169'
S'Sumedha Rastogi'
tp237
a(S'1530065661'
S'Manish Sinha'
tp238
a(S'100003666490896'
S'Surabhi Mitra'
tp239
a(S'100000026314320'
S'Chetanya Kandhari'
tp240
a(S'1276726388'
S'Suukrit Vir Gaddi'
tp241
a(S'1615816086'
S'Namita Jain'
tp242
a(S'1264051105'
S'Shivya Sachdeva'
tp243
a(S'100001400276659'
S'Rashmi Singh'
tp244
a(S'1750763058'
S'Sahil Yadav'
tp245
a(S'675708520'
S'Armaan Kazmi'
tp246
a(S'100001647571477'
S'Shelly Mohan'
tp247
a(S'100003181468004'
S'Hangout Agonda'
tp248
a(S'1001678553'
S'Aastha Sarin'
tp249
a(S'592086323'
S'Shreya Kumar'
tp250
a(S'679962988'
S'Kaustubh Keni'
tp251
a(S'1422903862'
S'Kavya Kalra'
tp252
a(S'100003843113566'
S'Riya Alagh'
tp253
a(S'100001036837247'
S'Prineet Tiwari'
tp254
a(S'100000883276715'
S'Avni Gupta'
tp255
a(S'100001621025546'
S'Akhil Sharma'
tp256
a(S'100003950626628'
S'Shweta Dadwal'
tp257
a(S'1418211986'
S'Karan Wahi'
tp258
a(S'1201321365'
S'Meetul Gupta'
tp259
a(S'100001083414791'
S'Shreya Chaturvedi'
tp260
a(S'100003992808476'
S'Rishabh Kochhar'
tp261
a(S'1145086634'
S'Apoorva Animesh'
tp262
a(S'100000775697983'
S'Yatin Chawla'
tp263
a(S'100001635263175'
S'Aneesha Khosla'
tp264
a(S'1265140146'
S'Tanya Kundu'
tp265
a(S'100006026024460'
S'Lavanya Kapoor'
tp266
a(S'100000945004451'
S'Tannaz Sidhu'
tp267
a(S'1804290790'
S'Yagini Aggarwal'
tp268
a(S'1147869983'
S'Anahita Mistry'
tp269
a(S'1191612524'
S'Sunyam Bagga'
tp270
a(S'100004627061710'
S'Raavee Nangia'
tp271
a(S'1838585619'
S'Japgun Banga'
tp272
a(S'100004030800469'
S'Kajal Singh'
tp273
a(S'1445214126'
S'Rashmi Khanna'
tp274
a(S'100003177367173'
S'Siddarth Rana'
tp275
a(S'100000736427590'
S'Moksh Amorph Sharma'
tp276
a(S'100004794728642'
S'Vibhav Papneja'
tp277
a(S'100005729736191'
S'Kanika Mangal'
tp278
a(S'1797897715'
S'Yuvraj Francis'
tp279
a(S'1041927103'
S'Tarushi Ravindra'
tp280
a(S'100000201601853'
S'Jay Agrawal'
tp281
a(S'100000527702182'
S'Ayush Kundra'
tp282
a(S'1101375599'
S'Rana Singh'
tp283
a(S'100001517422659'
S'Mamta Dhingra'
tp284
a(S'766474900'
S'Shegorika Raj'
tp285
a(S'1501250693'
S'Madhur Malhotra'
tp286
a(S'100000183303433'
S'Ankita Sinha'
tp287
a(S'100000567424610'
S'Aastha Jain'
tp288
a(S'100000320564138'
S'Divyaanshu Jain'
tp289
a(S'1523445862'
S'Pranav Ratra'
tp290
a(S'555694883'
S'Rishaal Rajan'
tp291
a(S'643358213'
S'Pranav Vishnu'
tp292
a(S'1847733956'
S'Harsheen Khandpur'
tp293
a(S'100002722703428'
S'Sachin Ravichandran'
tp294
a(S'1610163682'
S'Kritika Saxena'
tp295
a(S'1189089775'
S'Sneha Ramesh'
tp296
a(S'100002700668375'
S'Aashian Ahluwalia'
tp297
a(S'100000281381639'
S'Megda Bharadwaj'
tp298
a(S'100002822599541'
S'Akshara Bhattacharya'
tp299
a(S'1055072563'
S'Adya Jha'
tp300
a(S'100001193496761'
S'Tithi Srivastava'
tp301
a(S'100001569656015'
S'Varun Rathi'
tp302
a(S'1431082255'
S'Jessica Walia'
tp303
a(S'100003286850960'
S'Sunaina Rox'
tp304
a(S'100000365880769'
S'Yashaswiny Dinkar'
tp305
a(S'100003047217373'
S'Vinayak Sri'
tp306
a(S'1373889308'
S'Ashish Verma'
tp307
a(S'100000484354305'
S'Aanchal Sadana'
tp308
a(S'548177221'
S'Yash Deshpande'
tp309
a(S'100000127951009'
S'Krishna Hariramani'
tp310
a(S'1448798355'
S'Eshaan Sud'
tp311
a(S'100000927834994'
S'Ragini Jain'
tp312
a(S'1791827279'
S'Diksha Jaiswal'
tp313
a(S'560284622'
S'Faizal Haque'
tp314
a(S'1094715907'
S'Yasharth Menon'
tp315
a(S'530986969'
S'Seema Bhasin Singh'
tp316
a(S'1152762359'
S'Anvit Rai'
tp317
a(S'100000184820287'
S'Suraj Agrain'
tp318
a(S'1627965349'
S'Ayon Dey'
tp319
a(S'1843159986'
S'Ishita Soni'
tp320
a(S'100003011803569'
S'Deepanshu Chauhan'
tp321
a(S'1343823196'
S'Sahil Marwah'
tp322
a(S'100001075862591'
S'Manoj Kumar'
tp323
a(S'100000861593309'
S'Chahat Singh'
tp324
a(S'533163953'
S'Aditya Jha'
tp325
a(S'1041122316'
S'Pallavi Arora'
tp326
a(S'1065592990'
S'Rahul Wahi'
tp327
a(S'100000711115616'
S'Nitika Khera'
tp328
a(S'1062845375'
S'Angad Singh'
tp329
a(S'100000283158595'
S'Suryaa Bhatia'
tp330
a(S'100001104396044'
S'Abhinav Kumar Singh'
tp331
a(S'100002459028863'
S'Soumya Sahay'
tp332
a(S'523514048'
S'Samridh Kapoor'
tp333
a(S'1066046001'
S'Chhaya Yadav'
tp334
a(S'100008213741421'
S'Aman Lunia'
tp335
a(S'100001560028739'
S'Khunnal Palta'
tp336
a(S'780973987'
S'Madhuvanthi Senthilkumar'
tp337
a(S'1830875695'
S'Ketan Goel'
tp338
a(S'1460245783'
S'Jatin MahaJan'
tp339
a(S'1538906680'
S'Srishti Saxena'
tp340
a(S'100000356125482'
S'Ishaani Varma'
tp341
a(S'100001308744176'
S'Suvansh Shukla'
tp342
a(S'100003327999297'
S'Sansaar Gulia'
tp343
a(S'689447268'
S'Pritish Sinha'
tp344
a(S'100002585633593'
S'Tiara Malhotra'
tp345
a(S'1240939751'
S'Akhil Tolani'
tp346
a(S'100003947259553'
S'Yashvi Dhal'
tp347
a(S'1380806174'
S'Mayank Agarwal'
tp348
a(S'1621759556'
S'Ishan Piplani'
tp349
a(S'100000635221644'
S'Nalin Prasoon'
tp350
a(S'702978380'
S'LakshmiKkant Lakhanpaal'
tp351
a(S'100004947464005'
S'Bhartii Oberoii'
tp352
a(S'1186912624'
S'Nivedita Iyer'
tp353
a(S'1254197513'
S'Ashish Gupta'
tp354
a(S'100001039000790'
S'Charvi Kataria'
tp355
a(S'1573689227'
S'Meghal Karki'
tp356
a(S'100000808993700'
S'Nakul Lohia'
tp357
a(S'1132610220'
S'Rifshu Husain'
tp358
a(S'100002376022910'
S'Rohan Rogers'
tp359
a(S'100000504129249'
S'Riya Kumar'
tp360
a(S'100000449546748'
S'Lakshay Bedi'
tp361
a(S'1378070921'
S'Kumar Aryan'
tp362
a(S'100000530439205'
S'Srishti Bajaj'
tp363
a(S'1214616674'
S'Rakhi Mohan'
tp364
a(S'1221437768'
S'Ishaan Bhatnagar'
tp365
a(S'100003798103412'
S'Priyanshi Jain'
tp366
a(S'100000027585222'
S'Malaika Nangia'
tp367
a(S'100000611344397'
S'Aditya Ganesan'
tp368
a(S'100001904590740'
S'Shashwat Mishra'
tp369
a(S'100003850891924'
S'Ranu Sancheti'
tp370
a(S'100000831902593'
S'Saloni Pashy Arora'
tp371
a(S'100003075438362'
S'Ayanshu Kashyap'
tp372
a(S'100002058845564'
S'Medha Shubhangi'
tp373
a(S'1550100969'
S'Arushi Aesha Prasad'
tp374
a(S'641493692'
S'Badal Lalchandani'
tp375
a(S'1771582643'
S'Chirag Gambhir'
tp376
a(S'1247169712'
S'Samvit Bhanot'
tp377
a(S'100001544507638'
S'Prerna Sinha'
tp378
a(S'100003871407962'
S'Sambhavi Singh'
tp379
a(S'100000998760968'
S'Amy Bell'
tp380
a(S'100005462201976'
S'Kadambari Kira Issar'
tp381
a(S'100000504528895'
S'Bavleen Mehta'
tp382
a(S'1059474613'
S'Yashima Puri'
tp383
a(S'100000930428829'
S'Rishab Jangid'
tp384
a(S'1051948380'
S'Samyak Sinha'
tp385
a(S'650011384'
S'Deepa Gulati Chugh'
tp386
a(S'100000918012938'
S'Anurag Rai'
tp387
a(S'100000641046815'
S'Rajat Arya'
tp388
a(S'100000212466575'
S'Gaurav Kumar'
tp389
a(S'1686255319'
S'Rinav Sachdev'
tp390
a(S'1159698539'
S'Satyajit Sankrit'
tp391
a(S'1645957329'
S'Aakash Thakran'
tp392
a(S'1509020095'
S'Aditya Jain'
tp393
a(S'100001469848464'
S'Akanksha Gupta'
tp394
a(S'1168004229'
S'Manya Choudhary'
tp395
a(S'1272016175'
S'Raghvendra Singh'
tp396
a(S'100001709590030'
S'Pallav Panwar'
tp397
a(S'100000901589045'
S'Abhinav Jasra'
tp398
a(S'1249982927'
S'Saikruth Rao'
tp399
a(S'1116845199'
S'Sanchet Pardal Kumar'
tp400
a(S'1461458624'
S'Shiven Luthra'
tp401
a(S'100000876437819'
S'Vikas Sinha'
tp402
a(S'100000517861052'
S'Swati Chauhan'
tp403
a(S'100007247259012'
S'Agonda Palace'
tp404
a(S'100000781415411'
S'Bhawuk Attree'
tp405
a(S'1028050915'
S'Shivani Gaur'
tp406
a(S'100000514309835'
S'Stuti Gupta'
tp407
a(S'1429622370'
S'Advait Jayant'
tp408
a(S'100003085578506'
S'Suryaa Bhatia'
tp409
a(S'100002057206409'
S'Abhay Singh'
tp410
a(S'100000484578879'
S'Anumeha Sinha'
tp411
a(S'1772169097'
S'Rishi Singh Chauhan'
tp412
a(S'100003127965132'
S'Siddharth Reddy'
tp413
asS'id'
p414
S'620919582'
p415
sS'name'
p416
S'Ruchit Mohan'
p417
s.