(dp1
S'friends'
p2
(lp3
(S'100006802297141'
S'M Ahmad Chishti Ahmad'
tp4
a(S'633600366'
S'Khawaja Fahd'
tp5
a(S'100008207143537'
S'Abuzer Ghaffari'
tp6
a(S'100003533811519'
S'Aamir Khan'
tp7
a(S'100008262813730'
S'Muhammad Bilal'
tp8
a(S'100008221294720'
S'Majid Ali'
tp9
a(S'100006088117054'
S'Hamza Ali'
tp10
a(S'100007361053296'
S'Sono Commando'
tp11
a(S'100002607143676'
S'Mahi Zayy'
tp12
asS'id'
p13
S'633600366'
p14
sS'name'
p15
S'Khawaja Fahd'
p16
s.