(dp1
S'friends'
p2
(lp3
(S'1413140506'
S'Kabir Lakhwani'
tp4
a(S'701965258'
S'Obaid Saeed'
tp5
a(S'743430526'
S'Aisha Idrees'
tp6
a(S'100000133044057'
S'Tamara Maria'
tp7
a(S'712140999'
S'Tahir Aftab'
tp8
a(S'636858430'
S'Raza Hassan'
tp9
a(S'656396014'
p10
S'Abdul Rehman Agha'
tp11
a(S'1375393600'
S'Saad Maqsood'
tp12
a(S'1243786191'
S'Umesh Pherwani'
tp13
a(S'1343747638'
S'Amal Javed Dar'
tp14
a(S'574155613'
p15
S'Tehniyat Khan'
tp16
a(S'729270435'
S'Sardar Shahmir Ali'
tp17
a(S'100001634164294'
S'Umer Farooqi'
tp18
a(S'1353849011'
p19
S'Jannat Khan'
tp20
a(S'577011570'
S'Athar Sario'
tp21
a(S'886785547'
S'Daniyal Shaikh'
tp22
a(S'717179154'
S'Abbas Shah'
tp23
a(S'662715348'
S'Waleed Chaudhry'
tp24
a(S'1179831009'
S'Syed Akber'
tp25
a(S'511340770'
S'Zan Johar'
tp26
a(S'706140952'
S'Rebbia Shahab Siddiqui'
tp27
a(S'653379497'
S'Sadia Khatri'
tp28
a(S'751485365'
S'Hira Arif Riar'
tp29
a(S'548393691'
S'Shariq Aziz'
tp30
a(S'560746466'
S'Muhammad Uzair Akram Sheikh'
tp31
a(S'1425171666'
S'Hashir Mahmood'
tp32
a(S'516831652'
S'Ali Umer'
tp33
a(S'1609461099'
S'Ani Sinani'
tp34
a(S'100001679616137'
S'Sana Haider'
tp35
a(S'100000018552590'
S'Rida Fatima'
tp36
a(S'100001614390828'
S'Zehra Hasan'
tp37
a(S'640022352'
S'Syed Kashif Shah Lakyari'
tp38
a(S'1020916857'
S'Wasim Abbas'
tp39
a(S'680080401'
S'Zara Nadeem'
tp40
a(S'1057066688'
S'Zeest Hassan Qureshi'
tp41
a(S'1198189786'
S'Anique Meymon'
tp42
a(S'684720461'
p43
S'Aahmed Naim Ismail'
tp44
a(S'868340432'
p45
S'Salik Nazim'
tp46
a(S'670940812'
S'Marium Ali'
tp47
a(S'734852993'
S'Faizan Shaikh'
tp48
a(S'576205013'
S'Maria Mercedes Gaviria Betancourt'
tp49
a(S'505796911'
S'Hoor Hanif'
tp50
a(S'1037113480'
S'Natasha Memon'
tp51
a(S'554950709'
S'Wahaj Ahmed'
tp52
a(S'679097109'
S'Muiz Khan'
tp53
a(S'520856481'
S'Kamran Hyder'
tp54
a(S'1144431513'
S'Umer Bin Waqar'
tp55
a(S'1145338107'
S'Ali Afzal'
tp56
a(S'509438945'
S'Muneeza Saeed Patel'
tp57
a(S'506283079'
S'Asad Zaidi'
tp58
a(S'652745968'
S'Saarim Saghir'
tp59
a(S'516540497'
S'Natasha Lohano'
tp60
a(S'653215309'
S'Fakhruddin Valika'
tp61
a(S'719618259'
S'Ammar Ali Ayub'
tp62
a(S'100001370466223'
S'\\u0130lgi Hamarat'
tp63
a(S'886270120'
p64
S'Tahir Hasan'
tp65
a(S'684808122'
S'Aleeza Sami'
tp66
a(S'740005216'
S'Halima Khan'
tp67
a(S'592135594'
S'Usman Iftikhar'
tp68
a(S'663150096'
S'Farah Uzair'
tp69
a(S'1450183590'
S'Ahmed Parekh'
tp70
a(S'611236758'
S'Fatima Rizwan'
tp71
a(S'643583141'
S'Sidra Qureshi'
tp72
a(S'686509159'
S'Adil Virani'
tp73
a(S'100000908923335'
S'Hamad Zahid'
tp74
a(S'693545559'
S'Asad Imtiaz Butt'
tp75
a(S'630131539'
S'Ervin Tankiang'
tp76
a(S'563098140'
S'Saad Akbar'
tp77
a(S'100001347217290'
S'Perah Masood'
tp78
a(S'1517712601'
S'Tehreem Arif'
tp79
a(S'670640477'
S'Aamina Siddiqi'
tp80
a(S'586690380'
S'Zoya Shahzad Paracha'
tp81
a(S'789095444'
S'Saiff Ali Akbar'
tp82
a(S'512849653'
S'Misbah Manzoor Khaskheli'
tp83
a(S'542295538'
S'Syed Ahmed Qamar'
tp84
a(S'516067205'
S'Umair Abbas Hayat'
tp85
a(S'636655996'
S'Reena Pherwani'
tp86
a(S'504616048'
S'Aneeq Ahmed Siddiqui'
tp87
a(S'1226544838'
S'Suraj Ahuja'
tp88
a(S'745380647'
S'Sennen Desouza'
tp89
a(S'509737040'
S'Kumail Ally'
tp90
a(S'681570229'
p91
S'Javed Haider'
tp92
a(S'799610362'
S'Ahsan Ali'
tp93
a(S'865950233'
p94
S'Abdullah Ali'
tp95
a(S'634530934'
S'Wasim Shekhani'
tp96
a(S'503261460'
S'Aitzaz Rehman Sheikh'
tp97
a(S'550163722'
S'Iman Shakeri'
tp98
a(S'1567182224'
S'Saba Rashid'
tp99
a(S'512579563'
S'Aurangzeb Rathore'
tp100
a(S'1152873969'
S'Anke Van de Velde'
tp101
a(S'501309453'
S'Ahmed Azam Khan'
tp102
a(S'1120471564'
S'Raya Siddiqi'
tp103
a(S'514525751'
p104
S'Zahra Khan'
tp105
a(S'1421317388'
S'Ali Zaman'
tp106
a(S'504851746'
S'Ehab Ansari'
tp107
a(S'774744342'
S'Areeba Khan'
tp108
a(S'751936118'
p109
S'Shandana Sajjad'
tp110
a(S'1556536673'
S'Asif Iqbal'
tp111
a(S'516010929'
p112
S'Areeba Aziz'
tp113
a(S'617837350'
S'Umair Mesiya'
tp114
a(S'606568524'
S'Zs\\u00f3fia Antal'
tp115
a(S'606450293'
p116
S'Umaima Shamsi'
tp117
a(S'540900023'
S'Ovais Rasheed Munshi'
tp118
a(S'746390067'
S'Maryam Arshad'
tp119
a(S'692534223'
S'Syed Areeb Uddin'
tp120
a(S'790270051'
S'Muhammad Zaeem Mian'
tp121
a(S'592816672'
S'Imran Ahmad Khan'
tp122
a(S'878605136'
S'Jeetu Kodwani'
tp123
a(S'629777164'
S'Agha Fahad'
tp124
a(S'100001949811895'
S'Tazeen Sohail'
tp125
a(S'506361953'
S'Zohra Nasir'
tp126
a(S'651787463'
S'Kamlesh Kumar'
tp127
a(S'100000103314687'
S'Bisma Jawad Khan'
tp128
a(S'509532202'
S'Saad R. Rathore'
tp129
a(S'1222898717'
S'Asad Habib'
tp130
a(S'714885186'
S'Shayan S. Toor'
tp131
a(S'578920170'
p132
S'Sheharyar Ali'
tp133
a(S'100000097922082'
S'Khushbakht Fatima Jamal'
tp134
a(S'100000520119081'
S'Zain Khan'
tp135
a(S'626536538'
S'Zahra Nageen Zafar'
tp136
a(S'594736995'
S'Hashim Faruqui'
tp137
a(S'705695857'
S'Anooshay Z. Abbasi'
tp138
a(S'744894821'
S'Zameer Suleman Memon'
tp139
a(S'1054958887'
S'Nabeel Ahmed'
tp140
a(S'874865474'
S'Amile Gulzar'
tp141
a(S'542731076'
S'Noorain Nazim Mustafa'
tp142
a(S'1445304656'
S'Faizan Aslam'
tp143
a(S'1649782510'
S'Anusha Qureshi'
tp144
a(S'589935584'
S'Hiba Naz Khan'
tp145
a(S'562173800'
S'Faiz Muhammad Memon'
tp146
a(S'1616850766'
S'Hiba Fatima Jafri'
tp147
a(S'100000565424114'
S'Romil Gopani'
tp148
a(S'1093745555'
S'Attiq Bhayo'
tp149
a(S'667045555'
S'Anusha Asif'
tp150
a(S'880825646'
S'Vinny Kumar'
tp151
a(S'562540256'
S'Charlotte Marres'
tp152
a(S'100000420580720'
S'Kamal Bhatia'
tp153
a(S'796719465'
S'Ghamae Jamal'
tp154
a(S'877140712'
S'Rakesh Nachnani'
tp155
a(S'775490485'
S'Maha Jamal Qazi'
tp156
a(S'100001839557074'
p157
S'Rafia Murtaza'
tp158
a(S'1615729250'
S'Daniyal Taufeeq Jangda'
tp159
a(S'506933840'
S'Yasin Asad'
tp160
a(S'548480454'
S'Maheen Iqbal'
tp161
a(S'515930698'
p162
S'Safa Mahmood'
tp163
a(S'1091209460'
S'SaMad Mughal'
tp164
a(S'734682806'
S'Hassan Bin Haseeb'
tp165
a(S'690606982'
S'Fareena Malik'
tp166
a(S'653121080'
S'Sam Ozzi'
tp167
a(S'700954313'
S'Karishma Talreja'
tp168
a(S'772875312'
S'Abbas Shahid'
tp169
a(S'857914838'
S'Zain Peracha'
tp170
a(S'792040053'
S'Hira Morai'
tp171
a(S'553332360'
S'Zarak Pasha'
tp172
a(S'746967641'
S'Hamza Amir'
tp173
a(S'100002514307522'
S'Palwasha Faizan'
tp174
a(S'100000848845197'
S'Dimple Jethwani Vadariya'
tp175
a(S'100000095076971'
S'Sarah Makki'
tp176
a(S'1406115510'
S'Fatima Zehra'
tp177
a(S'546615410'
p178
S'Tabish Rizvi'
tp179
a(S'100000772200695'
S'Manu Nana'
tp180
a(S'684889615'
S'Umair Munir'
tp181
a(S'676530015'
p182
S'Sarosh Hasan'
tp183
a(S'681375507'
S'Ifra Iftikhar'
tp184
a(S'808975503'
S'Hassan Miabhoy'
tp185
a(S'553225506'
p186
S'Sahar Zuberi'
tp187
a(S'100001434259979'
p188
S'Ali Kakvi'
tp189
a(S'1293303387'
S'Sarah Janjua'
tp190
a(S'595552272'
p191
S'Ahmad Nazir'
tp192
a(S'524190013'
S'Bilal Khan'
tp193
a(S'100006048662021'
S'Ameena Naweed'
tp194
a(S'662412456'
S'Asad Hasan Bashir'
tp195
a(S'658089504'
S'Gohar Iqbal Chaudry'
tp196
a(S'841195550'
S'Hamza Pervez Riar'
tp197
a(S'812745095'
S'Iqra Shoukat'
tp198
a(S'519330077'
S'Shahzaib M Khan'
tp199
a(S'1140287450'
S'Naseer Uddin Khalid'
tp200
a(S'552945985'
S'Ahsan Jamil'
tp201
a(S'1106341435'
S'Sanaa Jatoi'
tp202
a(S'1068409151'
S'Momin Ali Munshi'
tp203
a(S'518305345'
S'Asser Malik'
tp204
a(S'712863017'
S'Hassan Niazi'
tp205
a(S'508541543'
S'Anum Nasir'
tp206
a(S'501496409'
p207
S'Asher Qazi'
tp208
a(S'500186417'
S'Nadir Riaz Ahmad'
tp209
a(S'706095388'
S'Muhammad Abdullah Khawar'
tp210
a(S'627115559'
S'Samia Ali'
tp211
a(S'100001951256304'
p212
S'Leena Zahid Khan'
tp213
a(S'1126221554'
S'Brayshna Khan'
tp214
a(S'1395074335'
S'Insiya Murtaza'
tp215
a(S'1205166814'
S'Franziska Herzog'
tp216
a(S'100002035318502'
S'Izzah Ijaz'
tp217
a(S'514344931'
S'Ramsha Patel'
tp218
a(S'503824099'
S'Rzza Bakir'
tp219
a(S'1518750057'
S'Raheel Jatoi'
tp220
a(S'100000102480781'
S'Yusra Akhtar'
tp221
a(S'515922389'
S'Syed Faraz Ahmed Shah'
tp222
a(S'1308512761'
S'Amna Elias'
tp223
a(S'512573710'
p224
S'Aneeqa Khan'
tp225
a(S'520477880'
S'Moosa Lakhani'
tp226
a(S'100000159620278'
S'Arooba Batool'
tp227
a(S'722740899'
S'Mahaa Saeed'
tp228
a(S'1432571429'
S'Jawad Arif'
tp229
a(S'100001444497309'
S'Sana Ahmed Khan'
tp230
a(S'1233162435'
S'Lisa Colin Janissin'
tp231
a(S'891455149'
S'Omar Noor'
tp232
a(S'1207710278'
S'Hira Fareed'
tp233
a(S'516050896'
S'Shahzain Malik'
tp234
a(S'1324582027'
p235
S'Syra Khan'
tp236
a(S'675415890'
S'Saim Sadiq'
tp237
a(S'627448806'
S'Abdullah Abbasi'
tp238
a(S'520936219'
S'Muzaffar Abbas Muhammad'
tp239
a(S'717235606'
S'Ali Khalid Rana'
tp240
a(S'556561645'
S'Ammar Khalid'
tp241
a(S'600104121'
S'Mohammad Hanif Ghani'
tp242
a(S'803360264'
S'Aesha Munaf'
tp243
a(S'572136810'
S'Hatim Salman'
tp244
a(S'502122716'
S'Aima Khan'
tp245
a(S'844265200'
S'Rohail Ahuja'
tp246
a(S'541475459'
S'Emmad Nasir'
tp247
a(S'100000594987883'
S'Babita Jagani'
tp248
a(S'875895443'
S'Ahad Rehman'
tp249
a(S'694127541'
S'Aleem Hasan'
tp250
a(S'1422191281'
S'Sehar Salman Adil'
tp251
a(S'679187531'
S'Palvasha Khan'
tp252
a(S'1242836488'
S'Ajeng Puspita Purnama Hapsari'
tp253
a(S'642009993'
p254
S'Osama Mansoor'
tp255
a(S'629900209'
p256
S'Taha Fahim Pasha'
tp257
a(S'100000493249298'
p258
S'Hanbal Kahlon'
tp259
a(S'653299663'
p260
S'Zarina Tariq'
tp261
a(S'587313067'
S'Omer Bin Aamir'
tp262
a(S'512544661'
S'Abdulla Wasti'
tp263
a(S'1012441142'
S'Shahnam Rasool'
tp264
a(S'525120778'
S'Ammar Ali Junejo'
tp265
a(S'1312557256'
S'Ludi Hipeau'
tp266
a(S'509507813'
S'Hamza Bangash'
tp267
a(S'603250128'
S'Asad Aftab Siddiqi'
tp268
a(S'613743899'
S'Kumail Raza'
tp269
a(S'668995121'
S'Mufaddal Tambawala'
tp270
a(S'583842002'
S'Samra Mani Amin'
tp271
a(S'100000008777386'
S'Syed Asad Qadeer Shah'
tp272
a(S'1621442711'
S'Anastasia Granito'
tp273
a(S'1462063029'
S'Noor Afzal'
tp274
a(S'511764870'
S'Saliha Agha'
tp275
a(S'550330453'
S'Areesha Banglani'
tp276
a(S'756150470'
S'Aziz Shaikh'
tp277
a(S'627418484'
S'Adeel Bukhari'
tp278
a(S'867645206'
S'Moiz Sheikh'
tp279
a(S'770300460'
S'Shahzad Ahmed'
tp280
a(S'666934913'
S'Zulekha Ahmed'
tp281
a(S'849930203'
S'Anas Aftab'
tp282
a(S'701587153'
S'Vinay Gauba'
tp283
a(S'1714521599'
S'Ali Shan'
tp284
a(S'611506180'
S'Aziz Hussain'
tp285
a(S'100001442984528'
S'Maryam Kamal'
tp286
a(S'1804029625'
S'Junaid Alam'
tp287
a(S'618843586'
p288
S'Zareera Bukhari'
tp289
a(S'515182994'
S'Manahyl Khan'
tp290
a(S'1819480427'
S'Kartika Noviana Purwiyono'
tp291
a(S'679693950'
S'Anil Kumar'
tp292
a(S'1189855251'
S'Aroosa Ijaz'
tp293
a(S'715435356'
p294
S'Kamal Ahmed Jumani'
tp295
a(S'100000059370128'
S'Azhar Saeed'
tp296
a(S'100001044756125'
S'Saad Admani'
tp297
a(S'100000359420089'
S'Muhammad Zaman'
tp298
a(S'774603297'
p299
S'Mustafa Bandukda'
tp300
a(S'654681975'
S'Soha Ahmed'
tp301
a(S'684927162'
S'Sheharyar Ahmed Shoaib'
tp302
a(S'541845018'
S'Areeb Bhaila'
tp303
a(S'890335061'
S'Aruba Ilyas'
tp304
a(S'524705603'
S'Iman Malik'
tp305
a(S'787933065'
S'Aysha Dars'
tp306
a(S'529247673'
S'Syed Haider Raza'
tp307
a(S'513355750'
S'Rida Ahmed'
tp308
a(S'100001985910739'
S'Jaza Aqil'
tp309
a(S'508513768'
S'Patricia P\\u00e9rez Muskus'
tp310
a(S'771340432'
S'Shaheer Usmani'
tp311
a(S'560287503'
S'Zarak Sohail'
tp312
a(S'700562177'
S'Z.a. Yousfani'
tp313
a(S'1381335986'
S'Alice della Corte'
tp314
a(S'1736580936'
S'Natasha Qureshi'
tp315
a(S'1493933999'
S'\\u00d6zge Kabukcu'
tp316
a(S'693382879'
S'Tierney Marie Faulk'
tp317
a(S'100000566923150'
S'Ali Masood'
tp318
a(S'1170848087'
S'Imad Rajwani'
tp319
a(S'1397740712'
S'Maria Silat'
tp320
a(S'100000886464318'
S'Soughat Uderani'
tp321
a(S'1449367102'
S'Afsah Karam'
tp322
a(S'706645350'
S'Muneeb Zulfiqar'
tp323
a(S'1214810337'
S'Rehan Aftab Wyne'
tp324
a(S'542612025'
S'Anam Shahid'
tp325
a(S'100001244764842'
S'Dinkey Dherwani'
tp326
a(S'535567276'
S'Amina Tariq'
tp327
a(S'518298767'
S'Sana Rahim'
tp328
a(S'100001101017645'
S'Minahil Atta'
tp329
a(S'553135602'
p330
S'Imran Suhail'
tp331
a(S'504977233'
S'Asad Mahmood'
tp332
a(S'1098110991'
S'Beste Tunca'
tp333
a(S'691381813'
S'Zarrar Khan'
tp334
a(S'618901744'
S'Husnain Malik'
tp335
a(S'782115523'
S'Rabia Effendi'
tp336
a(S'100002908758073'
S'Kanahiya Uderani'
tp337
a(S'511168924'
S'Zaid Rajput'
tp338
a(S'577790043'
p339
S'Amna Abbas'
tp340
a(S'596650684'
S'Marium Yousuf'
tp341
a(S'825142457'
S'Mohammad Murtaza'
tp342
a(S'100000576842902'
p343
S'Zaara Khadija Abbas'
tp344
a(S'787463609'
S'Kaan D\\u00f6nmez'
tp345
a(S'1541017283'
S'Zohaib Salahuddin'
tp346
a(S'587770335'
S'Sarim Fayyaz'
tp347
a(S'544421111'
S'Asgod Barrantes'
tp348
a(S'1186235713'
S'Abdul Hannan Sohail'
tp349
a(S'540860393'
S'NaQia Hamza'
tp350
a(S'638076179'
p351
S'Amna Mirza'
tp352
a(S'732945358'
S'Ahmed Mujtaba Khan'
tp353
a(S'620126240'
S'Abeer Mustafa'
tp354
a(S'547749261'
S'Narain Kumar Dinani'
tp355
a(S'1707136883'
S'Zeynep Seray \\u00d6zdemir'
tp356
a(S'1040318422'
S'Shayan Ali Afzal'
tp357
a(S'1094410955'
S'Saroop Bhatia'
tp358
a(S'901155289'
S'Sarah Agha'
tp359
a(S'586172129'
S'Nameer Jamillee'
tp360
a(S'1499229660'
S'Madiha Shaukat'
tp361
a(S'511578918'
S'Nabhan Karim'
tp362
a(S'565694880'
S'Anum Azam'
tp363
a(S'542756437'
p364
S'Faiz Ahmed'
tp365
a(S'1523641922'
S'Gaurav Bhatia'
tp366
a(S'632038055'
S'Ali Akbar Abbas Rizvi'
tp367
a(S'711835367'
S'Amna Chaudhry'
tp368
a(S'550695312'
S'Amal Hamid'
tp369
a(S'100002945692169'
S'Mansoor Abbas'
tp370
a(S'750270715'
S'Ashar Manjhi'
tp371
a(S'670680621'
S'Timsaal Bukhari'
tp372
a(S'690149435'
S'Axe Shaikh'
tp373
a(S'1795675310'
S'Maha Javed Chishty'
tp374
a(S'100001445474192'
S'Muneeb Ahmed'
tp375
a(S'721285233'
S'Hassan Amir Khan'
tp376
a(S'900975429'
S'Owais Awan'
tp377
a(S'700109675'
S'Tahaa Maniar'
tp378
a(S'100001369791712'
S'Anum Akbar'
tp379
a(S'537530375'
S'Madiha Bilwani'
tp380
a(S'1032463009'
S'Reema Bajwa'
tp381
a(S'100001991989143'
S'Pooja Dherwani'
tp382
a(S'100001027513446'
S'Syed Asad Qamar'
tp383
a(S'100001894500473'
S'Saad Hafeez'
tp384
a(S'1749397680'
S'Shah Hassan'
tp385
a(S'540190143'
p386
S'Qudsia Noori'
tp387
a(S'1668120104'
S'Brandon Silver'
tp388
a(S'502777556'
S'Khizer Mesiya'
tp389
a(S'741105537'
S'Umar Burney'
tp390
a(S'1318425553'
S'Ameer Anis Gul'
tp391
a(S'598130600'
S'Rija Tirmizi'
tp392
a(S'1357845146'
S'Shameer Zahid'
tp393
a(S'888920273'
p394
S'Sarah Ahmed'
tp395
a(S'100001466696243'
S'Alvin Wang'
tp396
a(S'750922640'
S'Agon Nixha'
tp397
a(S'1433525620'
S'Rabail Majeed'
tp398
a(S'589490341'
S'Azfar Sulaiman'
tp399
a(S'508901979'
p400
S'Rohail Taimour'
tp401
a(S'526965776'
S'Hassaan Bin Shaheen'
tp402
a(S'516698775'
S'Mitsel Reyna'
tp403
a(S'645262984'
S'Fahad Somani'
tp404
a(S'1034262965'
p405
S"Umer 'Lala' Murtaza"
tp406
a(S'557195430'
S'Jamal Mahar'
tp407
a(S'517711488'
S'Maira Hashmi'
tp408
a(S'535454726'
S'Marwah Maqbool'
tp409
a(S'659907376'
S'Ali Hassan Ali'
tp410
a(S'1034217442'
S'Shiraz Sabri'
tp411
a(S'718165507'
S'Zoha Zuberi'
tp412
a(S'606041026'
S'Sohaib Suleman'
tp413
a(S'1450508455'
p414
S'Zahra Shahab'
tp415
a(S'1007837279'
S'Rajesh Nachnani'
tp416
a(S'100000135954090'
p417
S'Mehreen Cheema'
tp418
a(S'518221220'
S'Yasal Munim'
tp419
a(S'100008273431484'
S'Sagar N Isha'
tp420
a(S'100001585863464'
S'Daniel Tan'
tp421
a(S'798008819'
S'Sapna Batool'
tp422
a(S'673260149'
S'Abbas Lotia'
tp423
a(S'779720051'
p424
S'Muneeb Farrukh'
tp425
a(S'645408203'
S'Unaizah Syed'
tp426
a(S'790960000'
S'Hammad Zubairi'
tp427
a(S'1156115232'
S'Muhammad Bin Hasan'
tp428
a(S'517707319'
S'Suraj Lasi'
tp429
a(S'689645637'
S'Dania Nadeem Khawaja'
tp430
a(S'799405320'
S'Yelmaz Mujtaba'
tp431
a(S'1187063069'
S'Suman Ahuja'
tp432
a(S'612265341'
S'Ahsan Iqbal'
tp433
a(S'1551200484'
S'Ameer A. Kazi'
tp434
a(S'764385246'
S'Muzzamil Imran'
tp435
a(S'718875003'
S'Bilal Khalid'
tp436
a(S'100001060043461'
S'Nida Noman'
tp437
a(S'544180357'
S'Sheena Ahmed'
tp438
a(S'1686540002'
S'Jalal Hamid'
tp439
a(S'723274820'
S'Hamza Naseem'
tp440
a(S'817555586'
S'Saad Zubair'
tp441
a(S'507465672'
S'Fahad Ansari'
tp442
a(S'538638842'
S'Aakash Kumar'
tp443
a(S'1041610258'
p444
S'Ukasha Iqbal'
tp445
a(S'710850477'
p446
S'Roha Khan'
tp447
a(S'100001903847807'
S'Filza Memon'
tp448
a(S'680842048'
S'Tashf\\u00e9en Ahmed Bangash'
tp449
a(S'1150444242'
p450
S'Andrea Viski'
tp451
a(S'698796821'
S'Prem Bhatia'
tp452
a(S'1236798091'
S'Rafael Caricote'
tp453
a(S'534475589'
S'Mustafa Edhi'
tp454
a(S'100000094040611'
S'Irum Memon'
tp455
a(S'100003560166201'
S'Mohammed Shahrukh'
tp456
a(S'581438589'
S'Muhammad Ali Zubair'
tp457
a(S'1313562310'
S'Maria Ahmed Malik'
tp458
a(S'559673245'
p459
S'Bilal Syed'
tp460
a(S'100004050416262'
S'Maggie Li'
tp461
a(S'824805388'
S'Ahmer Habib'
tp462
a(S'652485296'
S'Hira Asif'
tp463
a(S'664377512'
S'Sunny Diwan'
tp464
a(S'880190690'
S'Sonia Ahuja'
tp465
a(S'1215515337'
S'Muhammad Hassan Raza'
tp466
a(S'654010248'
S'Faizan Raja'
tp467
a(S'707552231'
S'Ayaz Arshad'
tp468
a(S'100000175318581'
S'Ali Arshad'
tp469
a(S'592640268'
S'Komail Abbas Naqvi'
tp470
a(S'672039851'
S'Humza Razzak'
tp471
a(S'881560640'
S'Kurt David Renvall'
tp472
a(S'671237666'
p473
S'Faiza Mahmood'
tp474
a(S'752635071'
S'Hadia Shahid'
tp475
a(S'731588059'
S'Asadullah Ansari'
tp476
a(S'531315341'
S'Savia Kashan'
tp477
a(S'1275117982'
S'Dariela Lizell Gallegos'
tp478
a(S'747734185'
S'Sheharyar Khalid'
tp479
a(S'1529599454'
S'Heena Bhatia'
tp480
a(S'1219138421'
S'Saniya Farooqi'
tp481
a(S'514637811'
S'Abdul Ahad Ayub'
tp482
a(S'100001474408343'
S'Alpa Adwani'
tp483
a(S'100003172204421'
S'Sheelu Budhrani'
tp484
a(S'1831043577'
S'Mansoor Akber Dars'
tp485
a(S'700240203'
p486
S'Hira Mumtaz'
tp487
a(S'863070606'
S'Hafsa Alvi'
tp488
a(S'850680522'
S'Ellia Khan'
tp489
a(S'550590426'
S'Muhammad Ijlal'
tp490
a(S'729796645'
S'Ammad Ejaz'
tp491
a(S'801994931'
S'Nawaz Bajwa'
tp492
a(S'529505519'
S'Beenish Saeed'
tp493
a(S'548814046'
S'Taimur Aziz'
tp494
a(S'732290851'
p495
S'Umair Khalid'
tp496
a(S'1459412184'
S'Farah Gul'
tp497
a(S'605071792'
S'Chiraag Bhatia'
tp498
a(S'780160155'
S'Aysha S. Zeeshan'
tp499
a(S'625780180'
S'Ayesha Athar'
tp500
a(S'602967330'
S'Shayan Haider'
tp501
a(S'1170428001'
S'Luis David Brice\\u00f1o P'
tp502
a(S'100000082576440'
S'Fariha Nadeem'
tp503
a(S'617282024'
S'Tooba Fatima Husain'
tp504
a(S'738015541'
S'Val Fishi Pol'
tp505
a(S'701315254'
S'Sakeena Memon'
tp506
a(S'805830474'
S'Kainat Iqbal'
tp507
a(S'100001855027278'
S'Aimen Shahid'
tp508
a(S'805315366'
S'Ayesha Tahir'
tp509
a(S'595675028'
S'Humna Aziz'
tp510
a(S'1254060751'
S'Fardad Baig'
tp511
a(S'100000933631830'
S'Navisha Dherwani'
tp512
a(S'647866065'
S'Ismail Zahid Umar'
tp513
a(S'645360153'
S'Diego Bonilla'
tp514
a(S'100001339853770'
p515
S'Fatima Qayyum'
tp516
a(S'100000202745334'
S'Hamza Khalid'
tp517
a(S'100001466650979'
S'Shahzeb Jafri'
tp518
a(S'801160326'
S'Sobaan Ahmed Raja'
tp519
a(S'100000196317508'
S'Ausama Bin Waseem'
tp520
a(S'592470598'
S'Asad Raza'
tp521
a(S'1416291228'
S'Jonathan Wong'
tp522
a(S'501026646'
S'Hayyaan Ahmad'
tp523
a(S'1013551677'
p524
S'Narjis Taqi'
tp525
a(S'528556821'
S'Mohsin Rizvi'
tp526
a(S'890140064'
p527
S'Anam Sohail'
tp528
a(S'1441699815'
S'Tooba Rashid'
tp529
a(S'548452094'
S'Swaleha Khalid Petiwala'
tp530
a(S'550150491'
p531
S'Manaal Khalid'
tp532
a(S'516677874'
p533
S'Farwa Batool'
tp534
a(S'546320553'
S'Manal Faheem Khan'
tp535
a(S'525686882'
S'Muhammad Arsalan Jalees Abro'
tp536
a(S'1381744406'
S'Ayza Bawany'
tp537
a(S'704655415'
S'Ameer Ali Zafar'
tp538
a(S'654773433'
S'Maryam Ahmed'
tp539
a(S'100000031909479'
p540
S'Mina Mircat'
tp541
a(S'1141310370'
S'Anam Kuraishi'
tp542
a(S'1648491031'
S'Faizan Riaz'
tp543
a(S'1527883319'
S'Syed Muzammil Hashmi'
tp544
a(S'1567085490'
p545
S'Daniyal Aijaz Wahid'
tp546
a(S'602337081'
p547
S'Maaheen Afzaal Alam'
tp548
a(S'1284594740'
S'Johann-Sebastian Thomas'
tp549
a(S'596179503'
S'Ashab Shahzad'
tp550
a(S'100005299718178'
S'Khadija Noor'
tp551
a(S'575262427'
S'Edouard Hanin'
tp552
a(S'525671285'
S'Noman Pandhiani'
tp553
a(S'509384156'
p554
S'Anam El Yusuf'
tp555
a(S'701766367'
p556
S'Maham Naweed'
tp557
a(S'845145706'
S'Asad Rizvi'
tp558
a(S'100001778898761'
S'Ayesha Anjum'
tp559
a(S'100000117471944'
S'Chauhdary Huma'
tp560
a(S'587730978'
S'Shoaib Bilal'
tp561
a(S'1487643207'
S'Janina Fischer'
tp562
a(S'575743770'
S'Umair Kamil'
tp563
a(S'553344152'
S'K Fatima Saeed'
tp564
a(S'623425475'
S'Sarim Zia'
tp565
a(S'721991809'
S'Shanza Faiq'
tp566
a(S'545267232'
S'Jayyeda Taimoor'
tp567
a(S'1544357465'
S'Talha Hyder'
tp568
a(S'583126353'
S'Hafsa Gohar'
tp569
a(S'100000024386517'
S'Muhammad Furqan Khan'
tp570
a(S'510196443'
S'Ujala Hayat'
tp571
a(S'621820588'
S'Hassan J Riarh'
tp572
a(S'731715607'
S'Ahsan Chawla'
tp573
a(S'1052059955'
p574
S'Zara Majeed'
tp575
a(S'550425113'
p576
S'Muhammad Mustafa'
tp577
a(S'502467221'
S'Amal Hayat'
tp578
a(S'501690017'
S'Marya Hussain'
tp579
a(S'640245014'
S'Rahul Rai'
tp580
a(S'100001549433456'
S'Najia Idrees'
tp581
a(S'528585014'
S'Arisha Tejani'
tp582
a(S'542846419'
S'Karishma Amin'
tp583
a(S'544490534'
S'Mehdi Hyder'
tp584
a(S'1602404736'
S'Moeenuddin Hashim'
tp585
a(S'541852030'
p586
S'Bushra Waqar Khan'
tp587
a(S'523310382'
S'Nadir Ali Khan'
tp588
a(S'642794187'
S'Mansoor Aslam Rathore'
tp589
a(S'1424041129'
S'Daphn\\u00e9 Van de Wildebergh'
tp590
a(S'511781396'
S'Mohammad Zubair'
tp591
a(S'100000303690747'
S'Dawar Nauman Butt'
tp592
a(S'501997047'
S'Haris Ghani Khan'
tp593
a(S'1140366855'
S'Chaitanya Parsana'
tp594
a(S'847415211'
S'Waliya Mirza'
tp595
a(S'100001641728336'
S'Sibgha Ajaz'
tp596
a(S'646978073'
S'Anusha Shahid'
tp597
a(S'100003352514790'
S'Zuhair Siddiqui'
tp598
a(S'510479135'
S'Shizah Samar'
tp599
a(S'549482140'
S'Amna Rehan'
tp600
a(S'781945386'
S'Fabian Witt'
tp601
a(S'100003693150756'
p602
S'Zainab Cheema'
tp603
a(S'879610150'
S'Mahrukh Naqvi'
tp604
a(S'100001149601611'
S'Danial Khan'
tp605
a(S'757227517'
S'Palvasha Shahab'
tp606
a(S'525285456'
S'Heer Ayoub Shaikh'
tp607
a(S'572781180'
p608
S'Jaweria Sethi'
tp609
a(S'100001717217774'
S'Anna Eid'
tp610
a(S'541735380'
S'Amena Akram Hayat'
tp611
a(S'750513433'
S'Mahesh Nachnani'
tp612
a(S'100002614051202'
S'Sonya R. Amarnani'
tp613
a(S'531725693'
S'Amn Rahman'
tp614
a(S'515261057'
S'Zara Arshad Khan'
tp615
a(S'583313592'
S'Pooja Lakhwani'
tp616
a(S'502424468'
S'Umer Sohail'
tp617
a(S'548560509'
S'Hannia Zia'
tp618
a(S'755647766'
S'Eliya Syed'
tp619
a(S'552788235'
S'Nishadee Perera'
tp620
a(S'100001523869679'
S'Sadia Khayyam'
tp621
a(S'702262632'
S'Mohsin Rao'
tp622
a(S'726866750'
p623
S'Mussawir Ahmad'
tp624
a(S'513136537'
S'Shanzae Asif'
tp625
a(S'583725785'
S'Tabish Jaleel Shaikh'
tp626
a(S'824675573'
S'Muhammad Rehan Usmani'
tp627
a(S'512263800'
S'Subul Ahsan'
tp628
a(S'568335392'
S'Sara J Bachani'
tp629
a(S'654845654'
S'Sughra Shah Bukhari'
tp630
a(S'100000221490986'
S'Amrah Hasan'
tp631
a(S'100001490943740'
S'Danyal Gm'
tp632
a(S'633868688'
S'Soonh Ansari'
tp633
a(S'592615964'
p634
S'Aleezeh Ahmad'
tp635
a(S'622630579'
S'Rahul Bhimani'
tp636
a(S'870420156'
S'Kaiser Khatri'
tp637
a(S'816320712'
p638
S'Babar Shaikh'
tp639
a(S'684602412'
S'Leena Al-Souki'
tp640
a(S'1456511850'
S'Maite Angleys'
tp641
a(S'1179977616'
S'Myriam Boutjadir'
tp642
a(S'599131819'
S'Pir Muhammad Junejo'
tp643
a(S'1588102872'
S'Uta Steude'
tp644
a(S'1075716890'
S'Nayha Raza'
tp645
a(S'644921144'
S'Waleed Ahmar'
tp646
a(S'1537122804'
S'Simran Talreja'
tp647
a(S'568035439'
S'Ayesha Binte Rashid'
tp648
a(S'1045509449'
S'Anam Pervez'
tp649
a(S'761802577'
p650
S'Isha Saeed Sharif'
tp651
a(S'560469466'
p652
S'M Haris Khan'
tp653
a(S'860450653'
S'Alyzeh Ahmed'
tp654
a(S'502185632'
S'Natasha Noorani'
tp655
a(S'700296292'
S'Sandeep Jagani'
tp656
a(S'844834546'
S'Ali Haider Shirazi'
tp657
a(S'714933792'
S'Wasiq Salim'
tp658
a(S'750185550'
p659
S'Shayan Ali'
tp660
a(S'566673470'
S'Saad Raafay Ahsen'
tp661
a(S'625458246'
S'Batool Naqvi'
tp662
a(S'696136010'
S'TaYmoor Altaf'
tp663
a(S'100000470753428'
S'Emi Luvianasari'
tp664
a(S'543983244'
S'Ali Asghar Poonawala'
tp665
a(S'529116284'
S'Haroon Ahmed Alvi'
tp666
a(S'100001260452205'
S'Waleed E Awal Khan'
tp667
a(S'1618647328'
S'Anum Karim'
tp668
a(S'1075724047'
S'Amresh Kodwani'
tp669
a(S'100002224915866'
S'Mehreen Sheikh'
tp670
a(S'689613666'
S'Mariyam Khan Baloch'
tp671
a(S'100001689550716'
S'Sagar Uderani'
tp672
a(S'679794604'
S'Rukhaam Ahmed'
tp673
a(S'1564507627'
S'Ahmed Tariq'
tp674
a(S'556647436'
S'Anna-Lena Huber'
tp675
a(S'678700264'
S'Sahar Husain'
tp676
a(S'100000413063022'
S'Hina Dattoo'
tp677
a(S'100002572715198'
S'Christian Maier'
tp678
a(S'100004209691966'
S'Peter Czigany'
tp679
a(S'525096746'
S'Samrat Ashok'
tp680
a(S'688937639'
S'Mohammad Naveed Zafar'
tp681
a(S'100003544793552'
S'Parth Sabnani'
tp682
a(S'696995579'
S'Arsalan Bahleem'
tp683
a(S'712601755'
S'Jaam Ali'
tp684
a(S'100004399783713'
S'Karina Mina A Menina'
tp685
a(S'1176710213'
S'Muhammad Mustafa Kasbati'
tp686
a(S'596707414'
S'Abdul Rehman'
tp687
a(S'1535198947'
S'Susi Reichenbach'
tp688
a(S'746935225'
S'Khurram Hirani'
tp689
a(S'100000891588773'
S'Tayyaba Ashraf'
tp690
a(S'1658634347'
S'Ali Kumail'
tp691
a(S'516291843'
S'Wasfa Farooq Badshah'
tp692
a(S'100001231546977'
S'Bunty Jethani'
tp693
a(S'863275486'
S'Maimoona Abdullah Batra'
tp694
a(S'697282470'
S'Sonia Salvador'
tp695
a(S'798235500'
S'Natasha Barlas'
tp696
a(S'1531860307'
S'Usama Naskani'
tp697
a(S'1642175312'
p698
S'Nimra Ali'
tp699
a(S'669370433'
S'Ahsan Zahoor Baloch'
tp700
a(S'773605383'
S'Dara Shikoh Channa'
tp701
a(S'1580910042'
S'Aqib Hashamali'
tp702
a(S'1137161802'
S'Rida Ahmed'
tp703
a(S'787315245'
S'Talha Bin Zafar'
tp704
a(S'1044534629'
S'Sarmad Hussain'
tp705
a(S'100001456620951'
S'ZunAir TaLat'
tp706
a(S'743510506'
S'Arslan Dogar'
tp707
a(S'1386146919'
S'Lalarukh Rashdi'
tp708
a(S'100001313310753'
S'Aniq Yameen'
tp709
a(S'100002264587802'
S'Junaid Ahmed'
tp710
a(S'1385551882'
S'Komal Jamil'
tp711
a(S'1272984125'
S'Furqan Ghouri'
tp712
a(S'685440536'
S'Omar Khan'
tp713
a(S'558426146'
S'Shaza Zulfiqar'
tp714
a(S'100000222901902'
S'Uzair Malik'
tp715
a(S'1397497933'
S'Fateema Ishtiaq Quraishi'
tp716
a(S'536620301'
S'Bilal Hanif'
tp717
a(S'1525983002'
S'Jawad Rehman'
tp718
a(S'540280246'
S'Naveen Zehra Zaidi'
tp719
a(S'742500121'
S'Arfat Zafar Rathore'
tp720
a(S'501957894'
S'Sehrish Fawad Khan'
tp721
a(S'632749202'
S'Sonia Mao'
tp722
a(S'668255230'
S'Bilal Arif Chhotani'
tp723
a(S'670805364'
S'Syed Sami Haider'
tp724
a(S'1672210698'
S'Hafsa Memon'
tp725
a(S'594930940'
S'Tayyaba Sami'
tp726
a(S'630476927'
S'Nabeel Ali Sheikh'
tp727
a(S'651925620'
S'Anum Naeem'
tp728
a(S'623425105'
S'Qaseem Abidi'
tp729
a(S'1167516332'
S'Amar Uderani'
tp730
a(S'756065343'
S'Sharmeen Suleman Rupani'
tp731
a(S'804665074'
S'Mariam Shaikh'
tp732
a(S'100000299136573'
S'Sharoz Mazhar'
tp733
a(S'1486532298'
S'Fazeel Jeelani'
tp734
a(S'1382765148'
S'Zehra Asmat'
tp735
a(S'672965733'
S'Neha Khalid'
tp736
a(S'544485920'
S'Simon Herteleer'
tp737
a(S'546435557'
S'Ahmed Hussain Ali'
tp738
a(S'1302858189'
S'Abdullah Mashhood'
tp739
a(S'850580136'
S'Ahmed Razzak'
tp740
a(S'1572694309'
S'Sarmad Pervez'
tp741
a(S'548231640'
p742
S'Aneel Kumar'
tp743
a(S'1657399252'
S'Jitender Kumar Uderani'
tp744
a(S'100000110418624'
S'Sana Warraich'
tp745
a(S'543222853'
S'Mohammad Abid'
tp746
a(S'691887360'
S'Aruna Sujanani'
tp747
a(S'738505366'
S'Mehreen Rizvi'
tp748
a(S'583677679'
S'Bilal Ramzan'
tp749
a(S'508813039'
S'Daanika Kamal'
tp750
a(S'1352666285'
S'Khuram Bukhari'
tp751
a(S'579936677'
S'Arsalan Jumani'
tp752
a(S'1483027615'
S'Aritree Barua'
tp753
a(S'520903462'
p754
S'Ali Haider'
tp755
a(S'711890258'
S'Sudhat Ashok'
tp756
a(S'751675461'
S'Furqan Mohammad'
tp757
a(S'100000563710675'
p758
S'Rohail Kasi'
tp759
a(S'556310586'
S'Rida Sakina'
tp760
a(S'840755150'
p761
S'Syeda Rabab Jafar'
tp762
a(S'774470127'
S'Uzair Latif'
tp763
a(S'505354215'
S'Mian Taimoor'
tp764
a(S'702690708'
p765
S'Wali Ahmed Usmani'
tp766
a(S'618966216'
S'Khawaja Ali Zubair'
tp767
a(S'521186261'
S'Rohail Salman Hayat'
tp768
a(S'646081630'
S'Natasha Uderani'
tp769
a(S'670620396'
p770
S'Amtul Baweja'
tp771
a(S'502631339'
S'Amna Saleem'
tp772
a(S'726939549'
S'Khawaja Hassan Munir'
tp773
a(S'1432405556'
S'Ayeda H Iftikhar'
tp774
a(S'558905802'
S'Wasif Mehmood'
tp775
a(S'1545360059'
S'Zubair Bashir'
tp776
a(S'571846684'
S'Zain Khokhar'
tp777
a(S'100002983783537'
S'Serkan Uysal'
tp778
a(S'100000945002702'
S'Monisha Dherwani'
tp779
a(S'709349543'
S'\\u0130dil G\\u00fcler'
tp780
a(S'1168880617'
S'Mohsin Ghumman'
tp781
a(S'536421912'
S'Rjaa Bokhari'
tp782
a(S'1362936278'
S'Hamza Ayub'
tp783
a(S'678238011'
S'Wasma Imran'
tp784
a(S'1574882057'
S'Hassan Amjad'
tp785
a(S'529121023'
S'Aftab Arif'
tp786
a(S'100000097496388'
S'Umut Duygu'
tp787
a(S'1038290663'
p788
S'Saad Ullah'
tp789
a(S'516053658'
S'Ali Asad Hamdani'
tp790
a(S'702179459'
S'Manek Aijaz'
tp791
a(S'1211795875'
S'Ayamma Mohsin'
tp792
a(S'514022187'
S'Naureen Jalaluddin'
tp793
a(S'100003238515999'
S'Shireen Gul'
tp794
a(S'1557714581'
S'Rida Kamran'
tp795
a(S'100001692960022'
S'Raees Khan'
tp796
a(S'526770160'
S'Hasan Ahmad Khan'
tp797
a(S'540670191'
S'Hussain Aziz'
tp798
a(S'535211880'
S'Kabeer Dawani'
tp799
a(S'1131164723'
S'Bilal Hussain Syed Bukhari'
tp800
a(S'1061089898'
S'Matthias Vollhardt'
tp801
a(S'552195013'
S'Ahmed Habib'
tp802
a(S'601975044'
S'Sinan Jamil Bhatti'
tp803
a(S'870335436'
S'Arisha Akbar'
tp804
a(S'100000480725538'
S'Rafay Ahmad'
tp805
a(S'511963935'
S'Zain Merchant'
tp806
a(S'717480020'
S'Waleed Jehandad'
tp807
a(S'863300340'
S'Eisar Haider'
tp808
a(S'741395354'
S'Zain Rajput'
tp809
a(S'1470457438'
S'Frank Luca'
tp810
a(S'695766423'
S'Basim Raza'
tp811
a(S'503911746'
S'Ahsan Tariq'
tp812
a(S'584177358'
p813
S'Ayesha Durrani'
tp814
a(S'535755207'
S'Jamshid Alp'
tp815
a(S'1026486374'
S'Farooq Zahid'
tp816
a(S'1495256416'
S'Vinod Nanda'
tp817
a(S'581425441'
S'Abdul Munam Shaikh'
tp818
a(S'1151761292'
S'Abdus Samad'
tp819
a(S'622437497'
S'Ammar Suria'
tp820
a(S'1229746774'
S'Mike Filippini'
tp821
a(S'846325257'
S'Anjlee Hemnani'
tp822
a(S'100001059963228'
S'Nayab Bajwa'
tp823
a(S'709326272'
S'Kashif Hyder'
tp824
a(S'671726477'
S'Taimur Aziz'
tp825
a(S'100000878767508'
S'Ahmed Muneeb Mehta'
tp826
a(S'539456577'
S'Danial Shah Bawaney'
tp827
a(S'573450588'
S'Hira Hashim Chhotani'
tp828
a(S'1209072478'
S'Uzair Azmat'
tp829
a(S'534227512'
S'Abdullah Gohar Mukhtar'
tp830
a(S'100001916411162'
S'Inam Ullah Marwat'
tp831
a(S'878455292'
S'Neha Dhalwani'
tp832
a(S'612556830'
S'Omer Aamir'
tp833
a(S'810310062'
S'Alex Monnard'
tp834
a(S'100001474574274'
S'Sarmad Muneer'
tp835
a(S'1566760667'
S'Sibtay Hasan Hyder'
tp836
a(S'502335430'
S'Ahmed Ali'
tp837
a(S'661410219'
S'Avinash Talreja'
tp838
a(S'718555258'
S'Emad Khan'
tp839
a(S'788136951'
S'Yousaf Dilshad'
tp840
a(S'562386099'
S'Teuku Adrian Rachmat'
tp841
a(S'709920418'
S'Priya Anoop'
tp842
a(S'622942573'
S'Nitesh Hemnani'
tp843
a(S'590860345'
p844
S'Kanza Azeemi'
tp845
a(S'501986506'
p846
S'Fakiha Nadeem'
tp847
a(S'550130220'
S'Farzeen Tariq'
tp848
a(S'551990594'
S'Mahira Maniar'
tp849
a(S'1488253478'
p850
S'Sultan Ali Bajwa'
tp851
a(S'1277664373'
S'Qandeel Tariq'
tp852
a(S'607055180'
S'Usaid Farooqui'
tp853
a(S'745475365'
S'Safi Kadri'
tp854
a(S'100002583188833'
S'Basharat Ahmed'
tp855
a(S'616595533'
S'Hina Sheikh'
tp856
a(S'505474038'
S'Danish Ali Latif'
tp857
a(S'100000011781043'
S'Umar Saeed Khan'
tp858
a(S'513020941'
S'Mehr Fatima Alavi'
tp859
a(S'100004219122389'
S'Connie Einnoc'
tp860
a(S'752375456'
S'Julian David Schwanke'
tp861
a(S'1043807239'
p862
S'Mariya Dada'
tp863
a(S'1155423089'
S'Talha Khan'
tp864
a(S'539537914'
S'Batool Abid'
tp865
a(S'613696263'
S'Isra Soomro'
tp866
a(S'100000228216542'
S'Alper Bing\\u00f6l'
tp867
a(S'100001132714845'
S'Atobatele Moshood Abiola'
tp868
a(S'100000203124746'
S'Marvi Shaikh'
tp869
a(S'100000488502329'
S'Ishaan Sharma'
tp870
a(S'100000115161466'
S'Asma Kanwal'
tp871
a(S'100000743319709'
S'Charles Haroon Gill'
tp872
a(S'556391256'
S'Moiz Kirmani'
tp873
a(S'581677944'
S'Erma Abbasi'
tp874
a(S'738921691'
S'Maarij Qureshi'
tp875
a(S'1330760842'
S'Murtaza Lakhani'
tp876
a(S'535456542'
p877
S'Hashim Kaleem'
tp878
a(S'588785725'
S'Rabia Sohag'
tp879
a(S'1669974654'
S'Shofa Ashilah Dariatna'
tp880
a(S'100002077682641'
p881
S'Aan Asif Cheema'
tp882
a(S'505825509'
S'Nabeeha Saleem'
tp883
a(S'1109580985'
S'Sardar Ahmed Shah Durrani'
tp884
a(S'515578259'
S'Ali Khalid'
tp885
a(S'1292953231'
S'Aakash Kumar'
tp886
a(S'832978057'
S'Sonum Jagani'
tp887
a(S'505802873'
S'Rabiya Hamid'
tp888
a(S'652270659'
S'Muneeb Aslam'
tp889
a(S'1680357643'
S'Bashy Samoo'
tp890
a(S'890800178'
S'Mukesh Vankwani'
tp891
a(S'713130324'
S'Saddam Hussain Rajar'
tp892
a(S'675151402'
S'Ahsan Asif'
tp893
a(S'588885161'
S'Aurangzeb Maqsood'
tp894
a(S'1303245353'
S'Furqan Ashraf'
tp895
a(S'549806736'
S'Talha Farooqui'
tp896
a(S'508525167'
S'Anum Najeem'
tp897
a(S'718080706'
S'Sundeep Bhojwani'
tp898
a(S'812153097'
S'Batool Somjee'
tp899
a(S'898880421'
S'Sundhya Rakesh Nachnani'
tp900
a(S'525571637'
S'Rawaid Asif'
tp901
a(S'749110251'
S'Jamal Memon'
tp902
a(S'503326630'
S'Sana Shakir'
tp903
a(S'579515960'
S'Nashit Iqbal Naviwala'
tp904
a(S'696272853'
S'Vivek Rohra'
tp905
a(S'1456690707'
S'Khushi Rai'
tp906
a(S'826370006'
S'Nauman Lakhani'
tp907
a(S'517358735'
S'Umna Salim'
tp908
a(S'100001594980540'
S'Kareena Sabnani'
tp909
a(S'824530253'
S'Abbas Tejani'
tp910
a(S'1702671856'
S'Lars Sillner'
tp911
a(S'551880334'
S'Rafay Ahmed'
tp912
a(S'505513789'
S'Ayesha Mysorewala'
tp913
a(S'100003157341274'
S'Sunaina Jagani'
tp914
a(S'1428730305'
S'Syed Wasay Safder'
tp915
a(S'748590429'
S'Haya Saleem Khan'
tp916
a(S'512868559'
S'Halima Sadia'
tp917
a(S'542230503'
S'Abdulrehman Nazar'
tp918
a(S'1326336725'
S'Rabiya Ather'
tp919
a(S'1127301817'
S'Qandeel Fatima Memon'
tp920
a(S'525650912'
S'Karan Prem Lohana'
tp921
a(S'689627641'
S'Ahsen Aamir Murad'
tp922
a(S'1215876308'
S'Shahzaib Bajwa'
tp923
a(S'1010212730'
S'Muhammad Zain Awan'
tp924
a(S'100000167558196'
S'Ali Singay'
tp925
a(S'1312674878'
S'Ahmad Zafar'
tp926
a(S'671685642'
S'Habib Elahi'
tp927
a(S'1385386546'
S'Ali Adnan'
tp928
a(S'749305366'
S'Saalik Majeed Soleja'
tp929
a(S'537632201'
S'Noor Ahmed Memon'
tp930
a(S'571496366'
S'Yusra Farooqui'
tp931
a(S'633475709'
S'Mariam Ishaq'
tp932
a(S'596010596'
S'Sameer Johar'
tp933
a(S'690675176'
S'Amna Tanweer Yazdani'
tp934
a(S'711334111'
S'Naweed Waqar'
tp935
a(S'100003321438022'
S'Faraz Husain'
tp936
a(S'716480425'
S'SuRu KoDwany'
tp937
a(S'806248101'
S'Veronica Holt'
tp938
a(S'100001999714364'
S'Abrish Moeen'
tp939
a(S'505336099'
S'Narmeen Adeel'
tp940
a(S'693293017'
S'Mustafa Memon'
tp941
a(S'550700312'
p942
S'Saqib Nasir'
tp943
a(S'646300564'
S'Manesh K Gangwani'
tp944
a(S'646585313'
S'Hunaina Kamran'
tp945
a(S'647326755'
S'Hashaam Khalid'
tp946
a(S'100000265615048'
S'Sara Mashadi'
tp947
a(S'603380150'
S'Farwa Fatima'
tp948
a(S'562957641'
S'Aakash Dharma'
tp949
a(S'601283846'
S'S\\u0131la Eser'
tp950
a(S'602303464'
S'Mujtaba Ali Malik'
tp951
a(S'609355987'
S'Wajeeha Raza'
tp952
a(S'539095282'
p953
S'Nashmia Amir'
tp954
a(S'886590631'
S'Babar Naveed'
tp955
a(S'100000587383497'
S'Ramsha Khan'
tp956
a(S'100001475947582'
S'Kishore Gurnani'
tp957
a(S'1227125319'
S'Abdulhaq Soomro'
tp958
a(S'552165796'
S'Hira Bilal'
tp959
a(S'520840835'
S'Maria Jadoon'
tp960
a(S'671125326'
S'Hammad Qaisar'
tp961
a(S'709349157'
S'Zeenia R. Mian'
tp962
a(S'733797096'
S'Khadijah Nadeem'
tp963
a(S'809675528'
S'Tabish Hanif'
tp964
a(S'505376873'
p965
S'Sana Farhad Somani'
tp966
a(S'100006239133457'
S'Nida Sohail Chaudhary'
tp967
a(S'512543268'
S'Mohsin Kidwai'
tp968
a(S'734832406'
S'Zuha Taj'
tp969
a(S'539640900'
S'Omar Jooma'
tp970
a(S'556372046'
p971
S'Ammara Shariq'
tp972
a(S'581365473'
S'Nawar Zakir Paracha'
tp973
a(S'612710930'
S'Usama Rafi'
tp974
a(S'100000045121312'
S'Nowsherwan Abdullah'
tp975
a(S'589210445'
p976
S'Lyla Qureshi'
tp977
a(S'100005268511236'
S'Fizza Pervaiz'
tp978
a(S'601690071'
S'Saad Nasir Chandna'
tp979
a(S'100000424621521'
p980
S'Ehsan Malik'
tp981
a(S'100000071552298'
S'Julia St\\u00fcbinger'
tp982
a(S'561260450'
S'Sara Mansoor Ansari'
tp983
a(S'1006403648'
S'Arda Helvac\\u0131lar'
tp984
a(S'100000592501343'
S'Thomas Maluck'
tp985
a(S'703020057'
S'Farhan Saad Ahmed'
tp986
a(S'689170790'
S'Muhammad Adil Saleem'
tp987
a(S'1665729033'
S'Faraz Ahmed Shaikh'
tp988
a(S'100001665584030'
S'Naina Raisinghani'
tp989
a(S'876750857'
S'Wahaj Raza Raja'
tp990
a(S'675453661'
S'Mohammad Raza Goraya'
tp991
a(S'586241454'
S'Choudhry Zaeem Azhar'
tp992
a(S'863145724'
p993
S'Anum Mustafa'
tp994
a(S'1732089399'
p995
S'Yusra Hayat'
tp996
a(S'635796954'
S'Saad Zahid'
tp997
a(S'1361573209'
S'Sahil Jagani'
tp998
a(S'1306641756'
p999
S'Aatir Siddique'
tp1000
a(S'749739618'
S'Asad Shabbir'
tp1001
a(S'515220134'
S'Maheen Zahid'
tp1002
a(S'1219816776'
S'Aatir Sohail'
tp1003
a(S'552959395'
S'Emilia Josefina'
tp1004
a(S'100005594054143'
S'Kirana Veronika'
tp1005
a(S'619480106'
p1006
S'Naushaba Nazim Mustafa'
tp1007
a(S'573036216'
S'Soha Tariq'
tp1008
a(S'100004034031767'
S'Melbourne Worldmun'
tp1009
a(S'626402186'
S'Jawwad Jamal'
tp1010
a(S'504964231'
S'Thuria Z'
tp1011
a(S'619181454'
S'Khurram Shahzad'
tp1012
a(S'515451850'
p1013
S'Areeba Humayun'
tp1014
a(S'100000512045406'
S'Mohammad Arsalan Hanif'
tp1015
a(S'100001594167102'
S'Sandhya Bhambani'
tp1016
a(S'634052425'
S'Aimel Ayub'
tp1017
a(S'1415444333'
S'Muhammad Aamir Jawed'
tp1018
a(S'521391986'
S'Osman Ansari'
tp1019
a(S'512231914'
S'Rawan Safa'
tp1020
a(S'682010563'
S'Zain Saeed'
tp1021
a(S'601000991'
S'Jaideep Doshi'
tp1022
a(S'537604084'
S'Anas Bin Tanveer'
tp1023
a(S'100001617005930'
S'Ozair Haseeb'
tp1024
a(S'568211129'
S'Imran Malik'
tp1025
a(S'548811076'
S'Muqsit Haider Ali'
tp1026
a(S'100000391539666'
S'Muhammad Shahzaib Riaz'
tp1027
a(S'629900357'
S'Noushig Ghazarian'
tp1028
a(S'1288775800'
S'Saha Khan'
tp1029
a(S'558181149'
S'Ridvan Kahraman'
tp1030
a(S'505200577'
S'Asad Farooqi'
tp1031
a(S'802520318'
S'Noureen Tejani'
tp1032
a(S'1824512780'
S'Abeer Aetesam'
tp1033
a(S'569373572'
S'Chlo\\u00e9 Pearson'
tp1034
a(S'779945412'
S'Jaya Bhatia'
tp1035
a(S'685632353'
S'Shahbaz Saeed'
tp1036
a(S'535960725'
S'Muhammad Umer'
tp1037
a(S'897790223'
p1038
S'Sara A. Chughtai'
tp1039
a(S'722158487'
S'Danial Riaz'
tp1040
a(S'859215507'
S'Abdul Rehman'
tp1041
a(S'1183893254'
S'Manon Haulotte'
tp1042
a(S'504565020'
S'Shehzad Ghias'
tp1043
a(S'1077191506'
S'Asad Bhurgari'
tp1044
a(S'1205293144'
S'Young Zou'
tp1045
a(S'801575450'
S'Noor Zehra Ibrahim'
tp1046
a(S'1481142800'
S'Philipp Heuermann'
tp1047
a(S'653400071'
S'Muhammad Owais Memon'
tp1048
a(S'710942138'
S'Pir Mozzam Shah Rashdi'
tp1049
a(S'662668501'
S'Awais Ahmed Jatoi'
tp1050
a(S'586098318'
S'Maham Masood'
tp1051
a(S'1256761996'
S'Mohit Bhambhani'
tp1052
a(S'668402559'
S'Lucy Darri Kerckaert'
tp1053
a(S'740805857'
S'Fakiha Omair'
tp1054
a(S'100003247271733'
S'Bhavna Adwani'
tp1055
a(S'708863266'
S'Zain Siddiqui'
tp1056
a(S'100000001695209'
S'Zeehasham Malik'
tp1057
a(S'538321508'
S'Punhal Pirzada'
tp1058
a(S'594640427'
S'Myra Ejaz'
tp1059
a(S'611807574'
S'Amna Javed'
tp1060
a(S'1056202376'
S'Saad Bin Shahzad'
tp1061
a(S'818970289'
S'Farwah Qasim'
tp1062
a(S'593621361'
S'Iqra Ehsan Talpur'
tp1063
a(S'1510957735'
S'Sameen Ahmed Tawab'
tp1064
a(S'571855268'
S'Faizan Faizi'
tp1065
a(S'1845522190'
S'Navaera Sulaiman'
tp1066
a(S'861030453'
S'Ahsan Avais'
tp1067
a(S'586722679'
p1068
S'Anum Kamran'
tp1069
a(S'685216988'
p1070
S'Ali Uzair'
tp1071
a(S'1311887729'
p1072
S'Faizan Tirmizi'
tp1073
a(S'591437413'
p1074
S'Anam Zan Johar'
tp1075
a(S'539731331'
S'Ahmed Riaz Chaudhry'
tp1076
a(S'100001058699210'
S'Kavita Ashoni'
tp1077
a(S'647307432'
S'Labib Iqbal'
tp1078
a(S'565491256'
S'Shaun Ansari'
tp1079
a(S'875925393'
S'Hasan Kamran'
tp1080
a(S'501790062'
S'Alishay Adnan'
tp1081
a(S'1041908891'
S'Talha Abbasi'
tp1082
a(S'1318698936'
S'Kapeel Leemani'
tp1083
a(S'715476150'
p1084
S'Saeed Boor Boor'
tp1085
a(S'580955370'
S'Mirza Mustafa'
tp1086
a(S'562467008'
S'Nikki Adwani'
tp1087
a(S'548290711'
S'Muhammed Furqan'
tp1088
a(S'625243948'
S'Aamash Altaf'
tp1089
a(S'502034693'
S'Annum Sadiq'
tp1090
a(S'505462924'
S'Sajjad Karimi'
tp1091
a(S'769917305'
S'Zainub Sharif Rathore'
tp1092
a(S'571146016'
S'Shiza Morai'
tp1093
a(S'100000464151331'
S'Moiz Ahmed'
tp1094
a(S'524280449'
S'Mahrukh Khan'
tp1095
a(S'100008072653329'
S'Krishna Pherwani'
tp1096
a(S'504988010'
S'Hassan Ahmed'
tp1097
a(S'100000707633621'
S'Austin Van Groningen'
tp1098
a(S'1040400843'
S'Muhammad Abdullah'
tp1099
a(S'814220486'
S'Faaiz Rasheed'
tp1100
a(S'712190593'
S'Enrique Stoppello'
tp1101
a(S'625916503'
S'Diana Alam'
tp1102
a(S'537905940'
S'Amar Khan'
tp1103
a(S'504686564'
S'Mariam Virani'
tp1104
asS'id'
p1105
S'636496326'
p1106
sS'name'
p1107
S'Sagar Jagani'
p1108
s.