(dp1
S'name'
p2
S'Shashi Bhushan Shukla'
p3
sS'current_class'
p4
S'india'
p5
sS'home_class'
p6
Vpratapgarh, uttar pradesh, india
p7
sS'home_text'
p8
VPratapgarh, Uttar Pradesh\u000aHometown
p9
sS'current_link'
p10
Vhttps://www.facebook.com/l.php?u=https%3A%2F%2Fwww.bing.com%2Fmaps%2Fdefault.aspx%3Fv%3D2%26pc%3DFACEBK%26mid%3D8100%26where1%3D28.613900916609%252C%2B77.207794189453%26name%3DNew%2BDelhi%252C%2BIndia%26mkt%3Den-IN&h=3AQF2uSAv&s=1
p11
sS'home_link'
p12
Vhttps://www.facebook.com/l.php?u=https%3A%2F%2Fwww.bing.com%2Fmaps%2Fdefault.aspx%3Fv%3D2%26pc%3DFACEBK%26mid%3D8100%26where1%3D25.933300121029%252C%2B81.982727050781%26name%3DPratapgarh%252C%2BUttar%2BPradesh%26mkt%3Den-IN&h=NAQHJDXst&s=1
p13
sS'current_text'
p14
VNew Delhi, India\u000aCurrent City
p15
sS'friends'
p16
(lp17
(S'652924929'
p18
S'Shashi Bhushan Shukla'
tp19
asS'id'
p20
g18
s.