(dp1
S'friends'
p2
(lp3
(S'100000057412826'
S'Anuj Rajoria'
tp4
a(S'1319705155'
S'Mitashi Kathuria'
tp5
a(S'100005163337748'
S'Rama Gupta'
tp6
a(S'1039535419'
S'Nischal Nepal'
tp7
a(S'591216166'
S'Aarushi Gupta'
tp8
a(S'100000524121999'
S'Vasudha Soni'
tp9
a(S'100001206855343'
S'Nishtha Taneja'
tp10
a(S'100000852807196'
S'Gaurav Gulati'
tp11
a(S'1148960217'
S'Saakshi Mohla'
tp12
a(S'1286953230'
S'Gayathri Dravid'
tp13
a(S'826482430'
S'Raghav Mittal'
tp14
a(S'1691933910'
S'Swati Gugnani'
tp15
a(S'1677755639'
S'Prachi Jain'
tp16
a(S'1846127599'
S'Komal Goyal'
tp17
a(S'624154915'
S'Atin Minocha'
tp18
a(S'1547148625'
S'Prerit Jain'
tp19
a(S'1706017349'
S'Neharika Sobti'
tp20
a(S'625619893'
S'Pankhu Bathla'
tp21
a(S'1595970908'
S'Ity Jain'
tp22
a(S'1068221920'
S'Sidhant Sudhan'
tp23
a(S'100002310423723'
S'Karanjeet Singh'
tp24
a(S'1302044473'
S'Palak Chadha'
tp25
a(S'100000130507588'
S'Ankit Singhal'
tp26
a(S'1793962915'
S'Varun Soni'
tp27
a(S'100000913056911'
S'Gaurija Sindhwani'
tp28
a(S'100002987990801'
S'Tanvi Kasera'
tp29
a(S'1188530066'
S'Kuhulika Sharma'
tp30
a(S'1635951898'
S'Kriti Kathreen'
tp31
a(S'1063778712'
S'Kritika Jain'
tp32
a(S'549930299'
S'Navya Jain'
tp33
a(S'100000547507552'
S'JaZz KaUr'
tp34
a(S'639491027'
S'Senalika Bhasin'
tp35
a(S'1444696481'
S'Daman Preet Singh'
tp36
a(S'100001293082822'
S'Abhishek Verma'
tp37
a(S'100001001375644'
S'Saloni Agrawal'
tp38
a(S'1763210958'
S'Jhappy Singh'
tp39
a(S'100002286064067'
S'Parul Dang'
tp40
a(S'708792252'
S'Tushita Suri'
tp41
a(S'100000427342934'
S'Kanika Sharma'
tp42
a(S'100000578366436'
S'Akshat Jain'
tp43
a(S'100000993786018'
S'Geetanjali Gulati'
tp44
a(S'1671973716'
S'Paavni Vohra'
tp45
a(S'100002333803207'
S'Preeti Mohan'
tp46
a(S'1623438990'
S'Paarth Mehra'
tp47
a(S'1344372158'
S'Vaibhav Maheshwari'
tp48
a(S'100000038103665'
S'Bharat Singhal'
tp49
a(S'100000480573024'
S'Dilpreet Malhotra'
tp50
a(S'1836978322'
S'Pulkit Choudhary'
tp51
a(S'596105549'
S'Shreya Gupta'
tp52
a(S'1045208312'
S'Sukriti Gandhi'
tp53
a(S'1316336774'
S'Vishnu Raj'
tp54
a(S'100001208347403'
S'Rajat Goyal'
tp55
a(S'1816178213'
S'Akriti Virmani'
tp56
a(S'1390457114'
S'Bhanu Kumar'
tp57
a(S'1288198356'
S'Mohak Khandelwal'
tp58
a(S'735857864'
S'Nikhil Dhingra'
tp59
a(S'100002651124547'
S'Nidhi Chopra'
tp60
a(S'100000929443365'
S'Bhavika Arora'
tp61
a(S'100000961128727'
S'Jasmin Kaur'
tp62
a(S'586587525'
p63
S'Chinmaya Goyal'
tp64
a(S'100000070238971'
S'Naman Rastogi'
tp65
a(S'541211519'
S'Purnima Chhabra'
tp66
a(S'1192894332'
S'Nonya Nagpal'
tp67
a(S'100000742124621'
S'Raghav V L Alase'
tp68
a(S'100001362703350'
S'Rashi Jain'
tp69
a(S'1468731571'
p70
S'Rahul Maheshwari'
tp71
a(S'100002423754101'
S'Ramneek Kaur'
tp72
a(S'1682672410'
S'Naman Gupta'
tp73
a(S'625384463'
S'Anchal Jungpangi'
tp74
a(S'1179410047'
S'Pallavi Sharma'
tp75
a(S'543978146'
S'Srishti Thukral'
tp76
a(S'1238860223'
S'Abhishek Khanna'
tp77
a(S'100001689210791'
S'Rahul Mehmi'
tp78
a(S'100000062911003'
S'Saurabh Chugh'
tp79
a(S'1698567941'
S'Dhiraj Nim'
tp80
a(S'1348573109'
S'Aarushi Goyal'
tp81
a(S'1729129226'
S'Anirudh Iyer'
tp82
a(S'100002266926184'
S'Disha Maheswari'
tp83
a(S'703757727'
S'Prakhar Jain'
tp84
a(S'100000900468385'
S'Rahul Gupta'
tp85
a(S'1779446211'
S'Shweta Ankur Gupta'
tp86
a(S'726310840'
S'Nehal Garg'
tp87
a(S'664528506'
S'Neha Sharma'
tp88
a(S'641345870'
S'Gaurav Agarwal'
tp89
a(S'100001364948912'
S'Experimenter Kolkata'
tp90
a(S'1064966618'
S'Naman Verma'
tp91
a(S'100000013626231'
S'Arihant Jain'
tp92
a(S'100001649618235'
S'Ashita Gupta'
tp93
a(S'100000336716980'
S'Kritika Dhingra'
tp94
a(S'540211723'
S'Nabarun Pal'
tp95
a(S'100001236851282'
S'Ghai Surender'
tp96
a(S'100000654589462'
S'Udit Gulati'
tp97
a(S'612371502'
S'Mishika Bablani'
tp98
a(S'100004174601875'
S'Ankita Rao'
tp99
a(S'1643328543'
S'Nitika Kareer'
tp100
a(S'566968381'
S'Umang Manchanda'
tp101
a(S'1294005207'
S'Roshni Garg'
tp102
a(S'1556090186'
S'Tripti Jain'
tp103
a(S'561061750'
S'Ananya Agarwal'
tp104
a(S'1441350866'
S'Deepika Sachdeva'
tp105
asS'id'
p106
S'661280766'
p107
sS'name'
p108
S'Nandita Gupta'
p109
s.