(dp1
S'friends'
p2
(lp3
(S'100000357562329'
S'Jacqueline George'
tp4
a(S'100000714472454'
S'Dhruva Vishwanath'
tp5
a(S'100000281036111'
S'Michael Susheel George'
tp6
a(S'100002177470693'
S'Robert Hoover'
tp7
a(S'549171763'
S'Nivedita Vasant'
tp8
a(S'1200589334'
S'Arcot Abhiram'
tp9
a(S'537587922'
S'Krishna Kalro'
tp10
a(S'100000156517362'
S'Brunette Lobo'
tp11
a(S'100000593875769'
S'Christina Adriana Bareh'
tp12
a(S'556533909'
S'Karan Joshua'
tp13
a(S'540849189'
S'Ria Elizabeth Joseph'
tp14
a(S'100000176845255'
S'Franklin John'
tp15
a(S'100000063970820'
S'Hammad Sufiyan'
tp16
a(S'573223396'
S'Alan Gilbert'
tp17
a(S'100000378769858'
S'Sougour Hassan Ahmat Ardja'
tp18
a(S'100002003972879'
S'George Hoover'
tp19
a(S'835760580'
S'Sonia Shekhar'
tp20
a(S'1360080141'
S'Asha George'
tp21
a(S'637903164'
S'Sasha Susan'
tp22
a(S'1603020885'
S'Fa Thongthaweesirikul'
tp23
a(S'100000116880742'
S'Azra Noorayn Haroon'
tp24
a(S'100001258294244'
S'Naveen Kumar'
tp25
a(S'781347648'
S'Varsha Balu'
tp26
a(S'796355570'
S'Aditya Lakshman'
tp27
a(S'627103711'
S'Mariah Lobo'
tp28
a(S'1477166387'
S'Danish Mustafa'
tp29
a(S'100001610723387'
S'\\u0413\\u043e\\u0441\\u043f\\u043e\\u0434\\u0438\\u043d \\u0421\\u0435\\u0440\\u0451\\u0433\\u0430 \\u0410\\u043b\\u0435\\u043a\\u0441\\u0430\\u043d\\u0434\\u0440\\u043e\\u0432\\u0438\\u0447 \\u0421\\u0435\\u043c\\u0451\\u043d\\u043e\\u0432'
tp30
a(S'500793155'
S'Taha Ahmed'
tp31
a(S'100002020690364'
S'Aditi Balan'
tp32
a(S'1337460254'
p33
S'Mitali Poovayya'
tp34
a(S'100001476956211'
S'Vishakh K Nair'
tp35
a(S'733622055'
S'Raution Imad'
tp36
a(S'638611253'
S'Neethi Swamy'
tp37
a(S'871740236'
S'Nishita Das'
tp38
a(S'1721799792'
S'Toni K Yeptho'
tp39
a(S'654562861'
S'Shubham Khemka'
tp40
a(S'558946270'
S'Andre Peter'
tp41
a(S'1081114157'
S'Vishaka Karanth'
tp42
a(S'100002246012827'
S'Tenzin Nyomba Sam'
tp43
a(S'638567266'
S'Ashwath \\u5229\\u90ce Nair'
tp44
a(S'100004392132762'
S'Vilmen Siedze Yhosh\\u00fc'
tp45
a(S'703437661'
S'Varun Dubey'
tp46
a(S'544350533'
S'Aleksandra Amaladass'
tp47
a(S'535035800'
S'Ashmita Payapilly'
tp48
a(S'100000153067405'
S'Burton Lobo'
tp49
a(S'562405013'
S'Ryan Vaz'
tp50
a(S'525846798'
S'Teena Vellara'
tp51
a(S'1156773042'
S'Varsha Kedia'
tp52
a(S'100001321596813'
S'Vineeta Chhetri'
tp53
a(S'619479751'
S'Rishabh Poonacha'
tp54
a(S'100000589841668'
S'Sindoori Reddy'
tp55
a(S'721824720'
S'Sanaya Tankariwala'
tp56
a(S'100001869823934'
S'Annie Albert'
tp57
a(S'746519851'
S'Tessa Vellara'
tp58
a(S'805495598'
S'Akshay Sadarangani'
tp59
a(S'100001797691561'
S'Nik Hil R'
tp60
a(S'1022723578'
S'Amrith Ravindra'
tp61
a(S'518080779'
S'Kriti Rao'
tp62
a(S'577171602'
S'Nandini Ghosh'
tp63
a(S'744065194'
S'Diya Jojan'
tp64
a(S'1352017269'
S'Chris Saviona Jerome'
tp65
a(S'1465805402'
S'Deepa Anand'
tp66
a(S'730215351'
S'Neil Pinto'
tp67
a(S'100002590251255'
S'Vikas Vinayaka'
tp68
a(S'828205412'
S'Pritika Joseph'
tp69
a(S'1337421503'
S'Gaurav Goenka'
tp70
a(S'100000207945388'
S'Adhin Raj'
tp71
a(S'100002913481012'
S'Sharun Mathew'
tp72
a(S'737389331'
S'Jane Hoover'
tp73
a(S'593216489'
S'Tiya Thomas'
tp74
a(S'639200728'
S'Ulfath Abdul Sulaiman'
tp75
a(S'1206751090'
S'Sera Maria Malayil'
tp76
a(S'1726683282'
S'Gerard Hoover'
tp77
a(S'100000025372763'
S'Mac Irsene Kouassi'
tp78
a(S'1683952671'
S'Rahul Raman'
tp79
a(S'816873046'
S'Adeline Lasrado'
tp80
a(S'100000867727917'
S'Nikhil Noronha'
tp81
a(S'100000544181847'
S'Thimo Eder'
tp82
a(S'100000740347786'
S'Sudeep Gowda'
tp83
a(S'632817843'
S'Simrin Bains Chhachhi'
tp84
asS'id'
p85
S'661278953'
p86
sS'name'
p87
S'Lorraine Amanda Hoover'
p88
s.