(dp1
S'friends'
p2
(lp3
(S'100008358611609'
S'Asma Nawaz'
tp4
a(S'100003772147914'
S'Shahid Khan Orakzai'
tp5
a(S'662893132'
p6
S'Haniya Athar'
tp7
a(S'100005555504846'
S'Ayesha Chaudhry'
tp8
asS'id'
p9
g6
sS'name'
p10
S'Haniya Athar'
p11
s.