(dp1
S'friends'
p2
(lp3
(S'600895146'
S'Aaditya Pancharya'
tp4
a(S'1349616401'
S'Pat Shaw'
tp5
a(S'902680318'
S'Ja Mes Sichone'
tp6
a(S'520266479'
S'Sau Tham'
tp7
a(S'602115430'
S'John Murray-Bruce'
tp8
a(S'661990653'
S'Marian Khoury'
tp9
a(S'100001585099344'
S'Shayesteh Shakeri'
tp10
a(S'100000085745539'
S'Anna Tennant'
tp11
a(S'100002438781155'
S'Imperial Acs'
tp12
a(S'569805227'
S'Narisu Yang'
tp13
a(S'1224437246'
S'Aman Jain'
tp14
a(S'516948319'
S'Faisal Al-Mayahi'
tp15
a(S'702394244'
S'Tom Sullivan'
tp16
a(S'1508160054'
S'Katie Douglass'
tp17
a(S'593479148'
S'Will Prince'
tp18
a(S'509002006'
S'Richard Rui Guo'
tp19
a(S'1612740072'
S'Gema Wright Ballester'
tp20
a(S'508738957'
S'Matt Lund'
tp21
a(S'643715391'
S'Nick Heyes'
tp22
a(S'605174337'
S'Naveed Kordmahalleh'
tp23
a(S'686911301'
S'Kutwing Loo'
tp24
a(S'1615680014'
S'Gayathri Rajasooriar'
tp25
a(S'1249471090'
S'Matthew Keating'
tp26
a(S'791680524'
S'James Carroll'
tp27
a(S'222400621'
S'Imran Sajid'
tp28
a(S'28125760'
S'Kaveesh Missedthebus'
tp29
a(S'541895594'
S'Adity Pancharya'
tp30
a(S'855345146'
S'Pei-Ling Chay'
tp31
a(S'1256051474'
S'Anja Predojevic'
tp32
a(S'649745330'
S'Thomas Hirst'
tp33
a(S'100001238182499'
S'John Margarson'
tp34
a(S'702396668'
S'Benjamin Joakim'
tp35
a(S'676756650'
S'Kim Bernard Ton-Nu'
tp36
a(S'519095493'
S'Ali Easter'
tp37
a(S'657350120'
S'Kamayani Sharma'
tp38
a(S'550760481'
S'Bijan Yazdanian'
tp39
a(S'558950054'
S'Temi Ladega'
tp40
a(S'668110656'
S'Matt Raven'
tp41
a(S'764795170'
S'Ran Xiong'
tp42
a(S'100000141391081'
S'Amit Chawla'
tp43
a(S'568190447'
S'Jinru Li'
tp44
a(S'1164859727'
S'Emma Walker'
tp45
a(S'547145136'
S'Sam Tsui'
tp46
a(S'1614432988'
S'Holly Khan'
tp47
a(S'505390472'
S'Chirag Pindolia'
tp48
a(S'733155404'
S'Eathar Shakweh'
tp49
a(S'512194474'
S'Oscar de la Hera'
tp50
a(S'1821982117'
S'Chan Dee'
tp51
a(S'1122190515'
S'Lucas Koenig'
tp52
a(S'648782236'
S'Aman Singh Dosanjh'
tp53
a(S'515738179'
S'Nick Cereceda Monteoliva'
tp54
a(S'1260810815'
S'Jay Thaker'
tp55
a(S'676176346'
S'Mathieu Germain'
tp56
a(S'1245941961'
S'Jagabir Ningthoujam'
tp57
a(S'100000884577294'
S'Aniruddh Chandra Shekar'
tp58
a(S'504666203'
S'Hamzah Chaudhary'
tp59
a(S'1619445226'
S'Jun Zhong'
tp60
a(S'505878736'
S'Lakshmi Upadhyaya'
tp61
a(S'1381380096'
S'Zoe Shewer'
tp62
a(S'286602476'
S'Jatin Singh'
tp63
a(S'593230388'
S'Kem Ifeanyi Onubogu'
tp64
a(S'100001219488678'
S'Sahil Chugani'
tp65
a(S'510388462'
S'Vikram Devalia'
tp66
a(S'772055576'
S'Nicole Kaspar'
tp67
a(S'509886043'
S'Chris Jacobs'
tp68
a(S'503799485'
S'Ken Wu'
tp69
a(S'615963623'
S'Christina Peletie Neophytou'
tp70
a(S'506663983'
S'Sanjay Kundalia'
tp71
a(S'576785155'
S'Kyung Hoon Moon'
tp72
a(S'1318651218'
S'Adam Turnbull'
tp73
a(S'670205042'
S'Zahi Qamhawi'
tp74
a(S'855225454'
S'Jake Arnold'
tp75
a(S'748595579'
S'Benjamin Aulakh'
tp76
a(S'510002564'
S'Alex Carmichael'
tp77
a(S'100000127818155'
S'Siddharth Mudgal'
tp78
a(S'513516862'
S'Sean Harbison'
tp79
a(S'1255634378'
S'Antonis A. Kousoulis'
tp80
a(S'791158373'
S'Saddiq Zahari'
tp81
a(S'657951506'
S'Jonathan Buckley'
tp82
a(S'863125054'
S'Jack Walters'
tp83
a(S'574867545'
S'Oliver Marsh'
tp84
a(S'641970581'
S'Alexandre Elkrief'
tp85
a(S'672130727'
S'Alex Aina'
tp86
a(S'604140500'
S'Fiona Seabrook'
tp87
a(S'61010475'
S'Kalliste Oh'
tp88
a(S'1216983042'
S'Mathilde Gauthier'
tp89
a(S'510470225'
S'Charu Mudgal'
tp90
a(S'531190547'
S'Rasheed Rabiu'
tp91
a(S'527575062'
S'Nathan Jones'
tp92
a(S'514048683'
S'Emma Afua'
tp93
a(S'513241936'
S'Dean Hannay'
tp94
a(S'1562550070'
S'Izzy Figueroa'
tp95
a(S'512160974'
S'Kush Patel'
tp96
a(S'561895216'
S'Gabrielle Felicity Hope W'
tp97
a(S'626652990'
S'Peter Skidmore'
tp98
a(S'525565022'
S'Katherine Chimenes'
tp99
a(S'518445770'
S'Tom Lynn'
tp100
a(S'502950581'
S'Abhishek Kakkar'
tp101
asS'id'
p102
S'670420578'
p103
sS'name'
p104
S'Keshav Mudgal'
p105
s.