(dp1
S'friends'
p2
(lp3
(S'100000469226888'
S'Rakesh Kumar'
tp4
a(S'1670092655'
S'Sushovan Banerjee'
tp5
a(S'100001167068627'
S'Yogender Chaudhry'
tp6
a(S'684587176'
S'Rana Deepak Singh'
tp7
a(S'1105904047'
S'Mamta Sabharwal'
tp8
a(S'1261482460'
S'Rajneesh Rauthan'
tp9
a(S'100002835049577'
S'Abha Amit Khanna'
tp10
a(S'671676659'
S'Baswaraj Nalegave'
tp11
a(S'100001924165627'
S'Rao Vpc'
tp12
a(S'594688028'
S'Rajiv Bhartari'
tp13
a(S'1818433416'
S'Milind Kapoor'
tp14
a(S'1121727897'
S'Samir Cairae'
tp15
a(S'100001120930467'
S'Rajesh Pandey'
tp16
a(S'786034120'
S'Nitin Duggal'
tp17
a(S'100000204879839'
S'Deepak Kapoor'
tp18
a(S'1035736025'
S'Atulya Misra'
tp19
a(S'656445337'
S'Chitra Gouri Lal'
tp20
a(S'1129773306'
S'Syed Hamid Ali'
tp21
a(S'100000320749381'
S'Desh Deepak'
tp22
a(S'100000480963260'
S'Desh Ratan Nigam'
tp23
a(S'850730390'
S'Samira Dasani Awasthi'
tp24
a(S'1349753248'
S'Vinod Kumar'
tp25
a(S'1145910844'
p26
S'Pravash Pandey'
tp27
a(S'100000230876909'
S'Vikram Photographyy'
tp28
a(S'582225156'
S'Rajiv Tewari'
tp29
a(S'1421068302'
S'\\u0905\\u0936\\u094d\\u0935\\u093f\\u0928\\u0940 \\u0915\\u0941\\u092e\\u093e\\u0930 \\u0924\\u094d\\u0930\\u093f\\u092a\\u093e\\u0920\\u0940'
tp30
a(S'1051496480'
S'Amit Gupta'
tp31
a(S'1243315782'
S'Ravi Kant'
tp32
a(S'1583140981'
S'Vinayak Azaad'
tp33
a(S'560797149'
S'Jyoti Tandon'
tp34
a(S'100000882233004'
S'Jitendra Chaurasia'
tp35
a(S'744912844'
S'Adesh Jain'
tp36
a(S'1532408801'
S'Dinesh Singh'
tp37
a(S'819439895'
S'J B Singh Negi'
tp38
a(S'661676474'
S'John George'
tp39
a(S'100000996597565'
S'Alok Shukla'
tp40
a(S'550104888'
S'Venkatesh Narayan'
tp41
a(S'100001556066893'
S'Shashank Sharma'
tp42
a(S'1697689808'
S'Ashok Kumar Khandelwal'
tp43
a(S'679394465'
S'Manisha Wasan'
tp44
a(S'100001667587493'
S'Mamta Kapoor'
tp45
a(S'740574406'
S'Raju Chauhan'
tp46
a(S'1281622114'
S'Santosh Kumar'
tp47
a(S'718378945'
S'Rajesh Saksham'
tp48
a(S'1026290263'
S'Basant Singh'
tp49
a(S'592852680'
S'Reettika Mehra'
tp50
a(S'615099319'
S'Satish Gulati'
tp51
a(S'100000362282748'
S'Dinesh Bisen'
tp52
a(S'100000278139043'
S'Sharadh Srivastava'
tp53
a(S'627476185'
S'Ambuj Mishra'
tp54
a(S'750706534'
S'Megha Khanna'
tp55
a(S'100006830553830'
S'Jitendra Bahadur'
tp56
a(S'662246252'
S'Pankaj Seth'
tp57
a(S'1486899920'
S'Amrendra Kumar'
tp58
a(S'100001654338029'
S'Ajit Kumar Singh'
tp59
a(S'554497867'
S'Sujit Kumar Sinha'
tp60
a(S'100004657385572'
S'Sy Kp'
tp61
a(S'100000255319861'
S'Amit Jaiswal'
tp62
a(S'556095618'
S'Arvind Kumar'
tp63
a(S'631230680'
S'Amartya Banerjee'
tp64
a(S'100004143673831'
S'Leslie Tindale'
tp65
a(S'716123817'
S'Pratyush Seth'
tp66
a(S'1439492425'
S'Sunil Kumar Mall'
tp67
a(S'1435068034'
S'Deepak Uppal'
tp68
a(S'744952420'
S'Anil Jha'
tp69
a(S'679449046'
S'Shantanu Sirohi'
tp70
a(S'1016325388'
S'Mohan Kumar Singhania'
tp71
a(S'100000225146691'
S'Pankajakshannair Manoj'
tp72
a(S'100000414750527'
S'Cma Anil Kumar Gupta'
tp73
a(S'100000471165603'
S'Rajendra Singh'
tp74
a(S'100001816062064'
S'Anurag Agnihotri'
tp75
a(S'1376562325'
S'Abhishek Singh'
tp76
a(S'714209851'
S'Vikas Kumar'
tp77
a(S'1562868550'
S'Kajal Mandla'
tp78
a(S'100002639180085'
S'Arun Chauhan'
tp79
a(S'634187945'
S'Rohit Shukla'
tp80
a(S'1661030039'
S'Suresh Dutt Tripathi'
tp81
a(S'1045433637'
S'Isha Trivedi'
tp82
a(S'1088203274'
S'Rahul Nangare'
tp83
a(S'1491160022'
S'Pankaj B Singh'
tp84
a(S'1501509599'
S'Rita Raj'
tp85
a(S'786061348'
S'Manish Chandra'
tp86
a(S'1804149871'
S'Rajesh Tiwari'
tp87
a(S'563296379'
S'Rama Mathew'
tp88
a(S'526481911'
S'Akkhil Chatwal'
tp89
a(S'515286156'
S'Sanjeev Kumar Singh'
tp90
a(S'551219904'
S'Virender Choudhary'
tp91
a(S'550791241'
S'Mukesh Kumar Begu'
tp92
a(S'1199840074'
S'Shharat Sharma'
tp93
a(S'598472328'
S'Shephalie Williams'
tp94
a(S'1101342575'
S'Rajesh Kumar Chand'
tp95
a(S'849635082'
S'Rajul Awasthi'
tp96
a(S'701317002'
S'Atul Saxena'
tp97
a(S'100003906301325'
S'Sanjai Nath'
tp98
a(S'714063448'
S'Thocks Bikram'
tp99
a(S'100000159486283'
S'Ashok Jha'
tp100
a(S'1515074608'
S'Priya VK Singh'
tp101
a(S'1649992059'
S'Sanjeev Kalra'
tp102
a(S'1078681709'
S'Chetan Jain'
tp103
asS'id'
p104
S'681909898'
p105
sS'name'
p106
S'Roopam Kapoor'
p107
s.