(dp1
S'friends'
p2
(lp3
(S'100000468823739'
S'BV Gopinath'
tp4
a(S'1061764312'
S'Manish Mishra'
tp5
a(S'100003777699952'
S'Yogeshwar Gupta YK'
tp6
a(S'1029713428'
S'Sandip Garg'
tp7
a(S'675538714'
S'Sunil Nandraj'
tp8
a(S'1011796717'
S'Kumar Rajan'
tp9
a(S'1325190196'
S'Rajeev P Singh'
tp10
a(S'793591251'
S'Aparna Garg'
tp11
a(S'100000820762320'
S'Jk Mishra'
tp12
a(S'100004293425830'
S'Subhashree Panigrahi'
tp13
a(S'1112834612'
S'Rabi Narayan Dash'
tp14
a(S'582410358'
S'Pravin Srivastava'
tp15
a(S'1216435107'
S'Rajeev Ranade'
tp16
a(S'100000051174510'
S'Suresh Battini'
tp17
a(S'100002125983950'
S'Lal Chand'
tp18
a(S'100005403307015'
S'Upendra Singh'
tp19
a(S'688481537'
S'Madhav Swaminathan'
tp20
a(S'1389816381'
S'Pavitra Mohan'
tp21
a(S'1064547969'
S'Amitabh Kumar'
tp22
a(S'100000468610681'
S'Mk Dhar'
tp23
a(S'100000055052127'
S'Sunil Kumar Singh'
tp24
a(S'528601930'
S'Kavita Bhardwaj'
tp25
a(S'1428332344'
S'Laxmi Narayan Pant'
tp26
a(S'1320426699'
S'Yash Nigam'
tp27
a(S'688072801'
S'Sameer Sharma'
tp28
a(S'1435347523'
S'Amal Garg'
tp29
a(S'566448852'
S'Debjyoti Das'
tp30
a(S'590153464'
S'Rolee Agarwal'
tp31
a(S'100002588226238'
S'Ishtiyaque Ahmed'
tp32
a(S'100000280374252'
S'Anand Upadhyay'
tp33
a(S'797241958'
S'Sumedha Verma Ojha'
tp34
a(S'546409154'
S'Kaitki Merwah'
tp35
a(S'704998225'
S'Rajeev Harit'
tp36
a(S'1140524850'
S'Sanjeev Singh'
tp37
a(S'567963876'
S'Seema Sahay'
tp38
a(S'1340746858'
S'Urvashi Saxena'
tp39
a(S'100002115905451'
S'Ranbhushan Singh'
tp40
a(S'1361067571'
S'Sanjeev Poonam Mishra'
tp41
a(S'1052821370'
S'Ajay Kumar'
tp42
a(S'1313529043'
S'Sushil Kumar Lohani'
tp43
a(S'1015279476'
S'Chander Prakash Khandelwal'
tp44
a(S'100001806237098'
S'Gunjan Prasad'
tp45
a(S'100003134463604'
S'Jagdeep Chhokar'
tp46
a(S'1015676253'
S'Joe Sebastian'
tp47
a(S'100000265052272'
S'Rajshree Seem'
tp48
a(S'1469364274'
S'Nikhil Gokhale'
tp49
a(S'1064440639'
S'Anupama Anand'
tp50
a(S'100002452939857'
S'Jawwad Khan'
tp51
a(S'1325319960'
S'Brahma Prakash Gaur'
tp52
a(S'1609927202'
S'Sanjay Puri'
tp53
a(S'100000593772952'
S'Shyamsundar Keshkamat'
tp54
a(S'1486491918'
S'Sanjay Shivam'
tp55
a(S'100001946077173'
S'Pankaj Sudan'
tp56
a(S'100001654338029'
S'Ajit Kumar Singh'
tp57
a(S'100000296042736'
S'Saravana Kumaran'
tp58
a(S'821843851'
S'Nirupama Kotru'
tp59
a(S'100004416340957'
S'Poonam Sharma'
tp60
a(S'563126066'
S'Vanita Sharma'
tp61
a(S'599566395'
S'Kabir Sheikh'
tp62
a(S'1497690573'
S'Sanjeev Sharma'
tp63
a(S'1573729708'
S'Chittaranjan Dash'
tp64
a(S'1587991248'
S'Virendra Ojha'
tp65
a(S'1288876382'
S'Jagadish Irs'
tp66
a(S'100000824640352'
S'Sarit Chatterjee'
tp67
a(S'100000701995483'
S'Amit Ray'
tp68
a(S'1567385476'
S'Yagya Dutt Sharma'
tp69
a(S'1834466733'
S'Anil Panwar'
tp70
a(S'672596783'
S'Satish Kotla'
tp71
a(S'633431234'
S'Komal R Sharma'
tp72
a(S'100003162206095'
S'Rajesh Mohan'
tp73
a(S'100001106506567'
S'Sneha Routray'
tp74
a(S'543760762'
S'Anand Kumar Kedia'
tp75
a(S'100004099715669'
S'Shrey Kaushik'
tp76
a(S'1577889574'
S'Ajay Pandey'
tp77
a(S'546631509'
S'Ashok Mittal'
tp78
a(S'567708456'
S'Shishir Srivastava'
tp79
a(S'734608651'
S'Anadee Nath Misshra'
tp80
a(S'100000430443003'
S'Milind Wagholikar'
tp81
a(S'833104423'
S'Shishir Jha'
tp82
a(S'1464677932'
S'DrRajiv Kumar Jain'
tp83
a(S'1044716073'
S'Manisha Kalra Seem'
tp84
a(S'100002221931926'
S'Sunita Singh'
tp85
a(S'1508636113'
S'Sunita Billa'
tp86
a(S'750088246'
S'Naveen Bhardwaj'
tp87
a(S'1079950134'
S'Manu Malik'
tp88
a(S'1379304396'
S'Nilesh Kokane'
tp89
a(S'789468621'
S'Arun S Bhatnagar'
tp90
a(S'1280117325'
S'Sanjeev Kumar Gupta'
tp91
a(S'100002212271207'
S'Sk Batra'
tp92
a(S'100000009363228'
S'Rajesh Kumar'
tp93
a(S'553267215'
S'Nidhi Srivastava'
tp94
a(S'100000007112464'
S'Kumar Arun'
tp95
a(S'100002840383583'
S'Kaushal Sharma'
tp96
a(S'100001971080197'
S'Niraj Bansal'
tp97
a(S'1427071599'
S'Ashok Bal'
tp98
a(S'100006868353807'
S'Ramesh Khaitan'
tp99
a(S'100000883668393'
S'Kumar Ganga'
tp100
a(S'1429687451'
S'Neeraj Kumar'
tp101
a(S'641271160'
S'Sanjeev Garg'
tp102
a(S'1241898173'
S'Sunil Kumar'
tp103
asS'id'
p104
S'686828266'
p105
sS'name'
p106
S'Tarun Seem'
p107
s.