(dp1
S'friends'
p2
(lp3
(S'100002636358646'
S'Shruti Sharma'
tp4
a(S'1818976371'
S'Suruchi Bhatia'
tp5
a(S'1484537704'
S'Sagarika Patnaik'
tp6
a(S'100001070231135'
S'Shanker Albela'
tp7
a(S'724163872'
S'Sanjiv Singh'
tp8
a(S'100000576710392'
S'Ambika Jain'
tp9
a(S'1416478237'
S'Vinit Arora'
tp10
a(S'100000394234831'
S'Rajesh Bhoot'
tp11
a(S'100000924810796'
S'Ram Mohan Singh'
tp12
a(S'100003937836854'
S'Shantanu Ambekar'
tp13
a(S'100001797435397'
S'Sunil Sinha'
tp14
a(S'1819612845'
S'Anjali Kaushik'
tp15
a(S'100000076533920'
S'Angaraj Mohan'
tp16
a(S'759424765'
S'Gulshan Raj'
tp17
a(S'1010266855'
S'Vishal Gulati'
tp18
a(S'100001745355717'
S'Sanjeev Sharma'
tp19
a(S'657143536'
S'Deepak Gulati'
tp20
a(S'536082259'
S'Reem Jain'
tp21
a(S'634397139'
S'Preeti Katiyar'
tp22
a(S'100000657102144'
S'Priti Gulati'
tp23
a(S'100000146962980'
S'Santosh Jha'
tp24
a(S'1092950416'
S'Jaspreet S Minhas'
tp25
a(S'1436111699'
S'Khalid AbdulWahab'
tp26
a(S'617356938'
S'TP Singh'
tp27
a(S'100000012799375'
S'Santosh Amat'
tp28
a(S'1450055261'
S'Manish Tiwari'
tp29
a(S'1821510298'
S'Anant Swarup'
tp30
a(S'100000948178962'
S'Alok Singh'
tp31
a(S'634462259'
S'Ranojoy Mukerji'
tp32
a(S'1041778786'
S'Yogesh Duggal'
tp33
a(S'749053298'
S'Swapnil Garg'
tp34
a(S'1557702761'
S'Alok Kumar'
tp35
a(S'1152396377'
S'Deepti Mehta'
tp36
a(S'100000496145618'
S'Girish Ghuliani'
tp37
a(S'1711826741'
S'Amit Sahai'
tp38
a(S'1016668706'
S'Sajid Mubashir'
tp39
a(S'1582472935'
S'Vatsalya Saxena'
tp40
a(S'717472118'
p41
S'Sanjay Ahirwal'
tp42
a(S'100000777700140'
S'Sunil Sehgal'
tp43
a(S'100000878649447'
S'K.p. Ramavarma'
tp44
a(S'1533108251'
S'Ashraf Qureshi'
tp45
a(S'783422832'
S'Deepika Sawhney'
tp46
a(S'1639442933'
S'Sanjay Kumar'
tp47
a(S'100003808518806'
S'Ravi Ramachandran'
tp48
a(S'1137571482'
S'Uma Shankar Dhyani'
tp49
a(S'100002447500771'
p50
S'Swati Joshi'
tp51
a(S'100002332940407'
S'Sunita Singh'
tp52
a(S'100007596100261'
S'Prakash Singh Bisht'
tp53
a(S'684699541'
S'Janardhan Viinayan'
tp54
a(S'695281693'
S'Anu Chopra'
tp55
a(S'1145910844'
p56
S'Pravash Pandey'
tp57
a(S'1785512000'
S'Amilek Amos Sanna'
tp58
a(S'1372510761'
S'Rituparna Maji'
tp59
a(S'1030237278'
p60
S'Jayant Singh'
tp61
a(S'100000218020169'
S'Sunil Saxena'
tp62
a(S'100002330929438'
S'Vviswajeet Krishna'
tp63
a(S'724047318'
S'Rakesh Tyagi'
tp64
a(S'1340474143'
S'Prasad Reddy'
tp65
a(S'593406628'
S'Joy Patra'
tp66
a(S'1059720252'
S'Ashutosh Verma'
tp67
a(S'1824758200'
S'Raman Chopra'
tp68
a(S'100000141590929'
S'Jai Prakash Sindhu'
tp69
a(S'100000957115020'
S'Himadri Moharana'
tp70
a(S'787503080'
S'Niraj Verma'
tp71
a(S'1168719172'
S'Prabhat Prabhat'
tp72
a(S'1040277860'
S'Nrusingh Swain'
tp73
a(S'1124209989'
S'Anand Madhukar'
tp74
a(S'547018356'
S'Sanjai Kumar'
tp75
a(S'100001583777584'
S'Amit Mehra'
tp76
a(S'100001515783295'
S'Vaibhav Sareen'
tp77
a(S'100000106960383'
S'Varinder Kumar'
tp78
a(S'1005099380'
S'Ashish Panda'
tp79
a(S'700815380'
S'Rashi Arora'
tp80
a(S'1565349662'
p81
S'Paramshiv Paramatma'
tp82
a(S'568619821'
S'Ajay Duggal'
tp83
a(S'1127436665'
S'Rekha Yadav'
tp84
a(S'100002344350323'
S'Sunil Kumar Chaudhary'
tp85
a(S'1078681709'
p86
S'Chetan Jain'
tp87
asS'id'
p88
S'696414738'
p89
sS'name'
p90
S'Vikram Gulati'
p91
s.