(dp1
S'friends'
p2
(lp3
(S'601345453'
S'Mahha Malik'
tp4
a(S'635050700'
S'Hussain Raza'
tp5
a(S'1133065176'
S'Ashar Awais'
tp6
a(S'1474917573'
S'Usman Sheikh'
tp7
a(S'100001307230346'
S'Mehlab Jameel'
tp8
a(S'572370658'
S'Hassan Muzaffar'
tp9
a(S'543936523'
S'Mubarik Hussain'
tp10
a(S'901155289'
S'Sarah Agha'
tp11
a(S'636858430'
S'Raza Hassan'
tp12
a(S'1375393600'
S'Saad Maqsood'
tp13
a(S'1453987358'
S'Mohammed Qasim Mehdi'
tp14
a(S'526510787'
S'Shahnawaz Syed'
tp15
a(S'570930120'
S'Abdal Khan'
tp16
a(S'742013701'
S'Abdul Wahab Butt'
tp17
a(S'100000472614398'
S'Sherry Shah'
tp18
a(S'1222898717'
S'Asad Habib'
tp19
a(S'1179831009'
S'Syed Akber'
tp20
a(S'625327342'
S'Mohammad Qasim Chaudhry'
tp21
a(S'1053685505'
S'Mehreen Shoaib Naqvee'
tp22
a(S'579936677'
S'Arsalan Jumani'
tp23
a(S'1344871449'
S'Rehan Hasan'
tp24
a(S'684720461'
S'Aahmed Naim Ismail'
tp25
a(S'1539416434'
S'Mariam Rehman'
tp26
a(S'647291420'
S'Hasan Sehbai'
tp27
a(S'100008319321814'
S'Rana Sheraz'
tp28
a(S'100005882652780'
S'Anjum Naqvi'
tp29
a(S'554950709'
S'Wahaj Ahmed'
tp30
a(S'100001486943639'
S'Maneesh Kumar'
tp31
a(S'100000114845815'
S'Muhammad Waqar'
tp32
a(S'1767934296'
S'Kamrul Hossain Shuvo'
tp33
a(S'1205343796'
S'Ali Imran'
tp34
a(S'100001228053209'
S'Sheryar Khan'
tp35
a(S'1036178140'
S'Mohammad Saad'
tp36
a(S'693545559'
S'Asad Imtiaz Butt'
tp37
a(S'100000204260131'
S'Myra Tariq Khawaja'
tp38
a(S'563098140'
S'Saad Akbar'
tp39
a(S'1662730217'
S'Danish Ali'
tp40
a(S'540341556'
S'Sarmad Imtiaz'
tp41
a(S'1337875109'
S'Qasim Zafar'
tp42
a(S'597087783'
S'Shafey Tauqeer'
tp43
a(S'504616048'
S'Aneeq Ahmed Siddiqui'
tp44
a(S'848360647'
S'Deb Kusum Das'
tp45
a(S'100000492257378'
S'Abubakr Ch'
tp46
a(S'1091264839'
S'Hassan Nawaz'
tp47
a(S'1567182224'
S'Saba Rashid'
tp48
a(S'630376560'
S'Vivek Pinjani'
tp49
a(S'644675427'
S'Ahmed Arshad'
tp50
a(S'527924365'
S'Sabeeh Qureshi'
tp51
a(S'1099895343'
S'Toobah Ali'
tp52
a(S'585002463'
S'Akbar Raza'
tp53
a(S'617837350'
S'Umair Mesiya'
tp54
a(S'100002256636159'
S'Anuvinda Ps'
tp55
a(S'590364025'
S'Myrah Nerine Butt'
tp56
a(S'100001241319046'
S'Alemam Ayman'
tp57
a(S'509532202'
S'Saad R. Rathore'
tp58
a(S'609000004'
S'Sahibzada Syed Daanial Hasni'
tp59
a(S'599605441'
S'Daniyal Rahim'
tp60
a(S'809810373'
S'Namrah Khalid'
tp61
a(S'1762502312'
S'Atif Riaz'
tp62
a(S'100003506723909'
S'Safi Noori'
tp63
a(S'1783100037'
S'Sana Saleem'
tp64
a(S'735660577'
S'Masood Ahmed'
tp65
a(S'532476246'
S'Wasif Mansoor'
tp66
a(S'514882120'
S'Mohammed Harris Ajmal'
tp67
a(S'100000810421413'
S'Hamza Aurangzeb'
tp68
a(S'712375211'
S'Alay Raza'
tp69
a(S'100000506058919'
S'Ziyad Malik'
tp70
a(S'1844721383'
S'Jatin Bavishi'
tp71
a(S'681966645'
S'Saquib Iqbal'
tp72
a(S'100001839557074'
p73
S'Rafia Murtaza'
tp74
a(S'683816746'
S'Eileen Connor-naqvi'
tp75
a(S'782560136'
S'Zahra Paracha'
tp76
a(S'1740705835'
S'Sundus Naqvi'
tp77
a(S'100000953127106'
S'Fahd Khalid'
tp78
a(S'636755190'
S'Minahil Mehdi'
tp79
a(S'1542055365'
S'Sardar Uzair Wattoo'
tp80
a(S'100002839428471'
S'Ana Yousaf'
tp81
a(S'100003201270900'
S'N.a. Naqvee'
tp82
a(S'1388104261'
p83
S'Hamza Khawaja'
tp84
a(S'689170790'
S'Muhammad Adil Saleem'
tp85
a(S'100001429987818'
S'Sarah Adeem'
tp86
a(S'723735058'
S'Ali Musa Iftikhar'
tp87
a(S'100001101268235'
S'Usman Nawaz Sheikh'
tp88
a(S'684962107'
S'Zain Malik'
tp89
a(S'100001407491635'
S'Waqas Aqeel'
tp90
a(S'551645240'
S'Shahrukh Tauqir'
tp91
a(S'1425171666'
S'Hashir Mahmood'
tp92
a(S'100004083102265'
S'Adeela Naqvi'
tp93
a(S'100004384033898'
S'Issha Tariq Khawaja'
tp94
a(S'1850825850'
S'Monica Singh'
tp95
a(S'100000728536903'
S'Hassan Malik'
tp96
a(S'1068409151'
S'Momin Ali Munshi'
tp97
a(S'676252929'
S'Wardah Zaman'
tp98
a(S'100006998793603'
S'Sadaf Naqvi'
tp99
a(S'100000158546069'
S'Anil Chugh'
tp100
a(S'549775265'
S'Nabeel Gilani'
tp101
a(S'1420552681'
S'Hassam Noor'
tp102
a(S'100002155272389'
S'Shaxni Batool'
tp103
a(S'1417689165'
S'Abdullah Sheikh'
tp104
a(S'691494633'
S'Ana Mawalla'
tp105
a(S'1484615324'
S'Risha Shehrine Butt'
tp106
a(S'1471549211'
S'Sheikh Arslan'
tp107
a(S'1290197659'
S'Waseem Abbas Naqvi'
tp108
a(S'100005123946562'
S'Moiz Ali'
tp109
a(S'1069259108'
S'Ayesha Kamran'
tp110
a(S'100001794793850'
S'Hassan Aamir'
tp111
a(S'1833883851'
S'Momina Manzoor'
tp112
a(S'100000568663387'
S'Hassan Raza'
tp113
a(S'1180746078'
S'Aqib Manzoor'
tp114
a(S'642009993'
S'Osama Mansoor'
tp115
a(S'629900209'
S'Taha Fahim Pasha'
tp116
a(S'580090143'
S'Bakr Shahxad'
tp117
a(S'100000135960845'
S'Amna Naeem'
tp118
a(S'1786958313'
S'Abdul Qadir'
tp119
a(S'100001848639692'
S'Umer Farooq'
tp120
a(S'100000995763646'
S'Prankur Arora'
tp121
a(S'205459'
S'Jazib Zahir'
tp122
a(S'588976498'
S'Muhammad Nauman Manzoor'
tp123
a(S'575008562'
S'Zubair Farid'
tp124
a(S'515068447'
S'Jehangir Ashraf'
tp125
a(S'1024191482'
S'Shah Syed'
tp126
a(S'666934913'
S'Zulekha Ahmed'
tp127
a(S'500810629'
S'Nauman Aslam'
tp128
a(S'573898799'
S'Saad Imtiaz'
tp129
a(S'100000292958693'
S'Ahmed Malik'
tp130
a(S'100001442984528'
S'Maryam Kamal'
tp131
a(S'1804029625'
S'Junaid Alam'
tp132
a(S'100000321743777'
S'Hina Rai'
tp133
a(S'1851662156'
S'Waleed Ashraf'
tp134
a(S'100001289685088'
S'Chhavi Miglani'
tp135
a(S'533660247'
S'Raheel Safi'
tp136
a(S'722988337'
S'Mohsin Bhatti'
tp137
a(S'774306321'
S'Ilqa Rasul'
tp138
a(S'657863173'
S'Ayesha Javed Naushahi'
tp139
a(S'100003574665494'
S'Salman Asghar'
tp140
a(S'1175677500'
S'Muhammad Raza'
tp141
a(S'100000322567406'
S'Nidhika Tomar'
tp142
a(S'593006345'
S'Muneeb Uddin'
tp143
a(S'100000566923150'
S'Ali Masood'
tp144
a(S'688815388'
S'Zain Abid Munj'
tp145
a(S'1160672173'
S'Raza Shah'
tp146
a(S'1214810337'
S'Rehan Aftab Wyne'
tp147
a(S'727947083'
S'Ayesha Tetlay'
tp148
a(S'644861116'
S'Fazeel Janjua'
tp149
a(S'1336287880'
S'Umer Zahid'
tp150
a(S'1741853955'
S'Liba Fahad'
tp151
a(S'100000225840328'
S'Syed Ali'
tp152
a(S'100000719472606'
S'Danish Ali'
tp153
a(S'1326578244'
S'Syed Mohsin Abbas Naqvi'
tp154
a(S'1196936311'
S'Ali Farhan'
tp155
a(S'1110058082'
S'Hassaan Bin Zahid'
tp156
a(S'578473528'
S'Kamran Abid Murad'
tp157
a(S'1451290290'
S'Usman Ayaz'
tp158
a(S'1031772398'
S'Fariha Arshed'
tp159
a(S'595467772'
S'Sheikh M Raza Saleem'
tp160
a(S'548290711'
S'Muhammed Furqan'
tp161
a(S'100002392631683'
S'Hafiz Hamza'
tp162
a(S'100001402274403'
S'Ahsan Tariq'
tp163
a(S'100000223502557'
S'Khawaja Talha'
tp164
a(S'586172129'
S'Nameer Jamillee'
tp165
a(S'809079629'
S'Mudassar Javed'
tp166
a(S'525740338'
S'Humayun Waheed'
tp167
a(S'549968572'
S'Muhammad Taha Imran'
tp168
a(S'100000728731220'
S'Daniyal Shahid'
tp169
a(S'540396794'
S'Sheeza Batool'
tp170
a(S'829922127'
S'Hassaan Arshad'
tp171
a(S'741105537'
S'Umar Burney'
tp172
a(S'1318425553'
S'Ameer Anis Gul'
tp173
a(S'1186496388'
S'Hasan Arshad'
tp174
a(S'100000407190739'
S'K\\u00e8th\\u00fc K\\u00f8d\\u00eek\\u00e5r\\u00e3'
tp175
a(S'100000153848549'
S'Faizan Afzal'
tp176
a(S'1433525620'
S'Rabail Majeed'
tp177
a(S'100002092208352'
S'Alishae Khar'
tp178
a(S'543875504'
S'Asad Aun Ali'
tp179
a(S'589490341'
S'Azfar Sulaiman'
tp180
a(S'100004227220384'
S'Sheikh Muhammad Ali'
tp181
a(S'540858692'
S'Umar Farooq'
tp182
a(S'100000144894082'
S'Shaheera Tahir'
tp183
a(S'535454726'
S'Marwah Maqbool'
tp184
a(S'528466116'
S'Yasir Reza'
tp185
a(S'565446804'
S'Ali A Malik'
tp186
a(S'560287503'
S'Zarak Sohail'
tp187
a(S'685080526'
S'Ali Kazmi'
tp188
a(S'1029205419'
S'Minaal Butt'
tp189
a(S'769718001'
S'Faizan Haider'
tp190
a(S'100000799489087'
S'Bijeta Bijen Saha'
tp191
a(S'100003102492618'
S'Haseeb Tariq'
tp192
a(S'1008820945'
S'Palaash Bhargava'
tp193
a(S'1338278948'
S'Hera Qasim Taaj'
tp194
a(S'512634705'
S'Hamza Khurram Anwar'
tp195
a(S'503680343'
S'Anam Khalid'
tp196
a(S'510022942'
S'Faizaan Qayyum'
tp197
a(S'646645999'
S'Sidra Baig'
tp198
a(S'1529842921'
S'Kanika Tyagi'
tp199
a(S'100001207599856'
S'Swati Pathak'
tp200
a(S'514887563'
S'Aoun Reza'
tp201
a(S'574082067'
S'Muhammad Nauman Malik'
tp202
a(S'100000031906355'
S'Ali Malik'
tp203
a(S'1219138421'
S'Saniya Farooqi'
tp204
a(S'542893156'
S'Sheikh Muhammad Rizwan'
tp205
a(S'100006962441874'
S'Pareeha Lashari'
tp206
a(S'726605099'
S'Azka Mir'
tp207
a(S'100002753822174'
S'Shahman Iqbal'
tp208
a(S'1406764934'
S'Muhammad Mehdi'
tp209
a(S'100000135966267'
S'Usman Awan'
tp210
a(S'540421447'
S'Zohaib Haider'
tp211
a(S'1288387006'
S'Moeed Qamar'
tp212
a(S'595831061'
p213
S'Shayan Kaleem'
tp214
a(S'825545191'
S'Rubab Naqvi'
tp215
a(S'100000099534470'
S'Muneeb Naseem'
tp216
a(S'561001043'
S'Ahmed Lodhi'
tp217
a(S'601395429'
p218
S'Hamza Ghaznavi'
tp219
a(S'526360903'
S'Hamael Akhlaq'
tp220
a(S'634918356'
S'Yawar Aziz'
tp221
a(S'100001838533710'
S'Ahsan Butt'
tp222
a(S'637557115'
S'Ali Ijaz Pasha'
tp223
a(S'618030466'
S'Ali Haider'
tp224
a(S'1484982965'
S'Syed Abdul Majid'
tp225
a(S'100000440203770'
S'Shahzeb Badar'
tp226
a(S'801994931'
S'Nawaz Bajwa'
tp227
a(S'516591491'
p228
S'Shujaat Ali'
tp229
a(S'1194612630'
S'Saad Dogar'
tp230
a(S'100004283616895'
S'Sana Javaid Sheikh'
tp231
a(S'100000923830114'
p232
S'Akhtar Muhammad'
tp233
a(S'100000202745334'
S'Hamza Khalid'
tp234
a(S'691956277'
S'Shahab Ahmad'
tp235
a(S'724435971'
S'Zohaib Ali MAlik'
tp236
a(S'544514953'
S'Hasan Masud'
tp237
a(S'574521507'
S'Khalid Khan'
tp238
a(S'501835412'
S'Neehan Anis'
tp239
a(S'555143445'
S'Maliha Naveed'
tp240
a(S'569135196'
S'Ramsha Qureshi'
tp241
a(S'1317427621'
S'Dhaaban Dekaa'
tp242
a(S'1056081502'
S'Asad Virk'
tp243
a(S'100000330841189'
S'Hamza Amjad'
tp244
a(S'1325075782'
S'Fadia Hayee'
tp245
a(S'1359780377'
S'Muez Ahmed'
tp246
a(S'100001017571389'
S'Abdus Sattar Niazi'
tp247
a(S'1176202877'
S'\\u06cc\\u0645\\u0646\\u0622 \\u0634\\u06cc\\u062e'
tp248
a(S'100000352634014'
S'Prachetas Bhatnagar'
tp249
a(S'521877673'
S'Huda Wajih'
tp250
a(S'1821825792'
S'Moid Shaikh'
tp251
a(S'634126185'
S'Mustaeen MAlik'
tp252
a(S'549855654'
S'Refaya Rashmin'
tp253
a(S'541850603'
S'Hamza Sheraz Malik'
tp254
a(S'622861212'
S'Abrar Hayat'
tp255
a(S'522307264'
S'Usman Nawaz Shiekh'
tp256
a(S'644103440'
S'Maaz Awan'
tp257
a(S'100000189825772'
S'Masood Awan'
tp258
a(S'1289914879'
S'Mohammad Raza'
tp259
a(S'100004006388663'
S'Usama Sami'
tp260
a(S'769852574'
S'Stuti Oberoi'
tp261
a(S'624691618'
S'Irtaza Ahmed Janjua'
tp262
a(S'510265734'
S'Salman Mamu'
tp263
a(S'1057373966'
S'Ali Amjad'
tp264
a(S'1579673109'
S'Saljooq Altaf'
tp265
a(S'784278956'
S'Jansher Wattoo'
tp266
a(S'578235333'
S'Abdul Samad'
tp267
a(S'1111920624'
S'Ahmad Nasir'
tp268
a(S'509211106'
S'Zaeem Khan'
tp269
a(S'100000391539666'
S'Muhammad Shahzaib Riaz'
tp270
a(S'661485785'
S'Hassan Irshad Bhatti'
tp271
a(S'743751168'
S'Asad Waheed'
tp272
a(S'1493767089'
S'Yaruq Nadeem'
tp273
a(S'712531184'
S'Aized Raza'
tp274
a(S'776754096'
S'Asad Naqvi'
tp275
a(S'684889615'
S'Umair Munir'
tp276
a(S'540226316'
S'Muhammad Shazab'
tp277
a(S'642794187'
S'Mansoor Aslam Rathore'
tp278
a(S'100002594215869'
S'Raees Bukhari'
tp279
a(S'582506260'
S'Usman Zafar'
tp280
a(S'100002445868315'
S'Isuru Samaranayake'
tp281
a(S'546122675'
S'Fizza Raza'
tp282
a(S'1635827890'
S'Ya\\u015far Qamar'
tp283
a(S'100001458987308'
S'Aqeel Ahmad Yousafzai'
tp284
a(S'100003524626734'
S'Zargahm Haider'
tp285
a(S'1791754989'
S'Jrc Baba'
tp286
a(S'1778901451'
S'Pratik Agarwal'
tp287
a(S'525285456'
S'Heer Ayoub Shaikh'
tp288
a(S'572781180'
S'Jaweria Sethi'
tp289
a(S'1127949976'
S'Saud Rehman'
tp290
a(S'705235400'
S'Hassan Baig'
tp291
a(S'663175040'
S'Abdullah Sajjad'
tp292
a(S'653785378'
S'Mehak Khan'
tp293
a(S'702262632'
S'Mohsin Rao'
tp294
a(S'726866750'
S'Mussawir Ahmad'
tp295
a(S'644921144'
S'Waleed Ahmar'
tp296
a(S'583725785'
S'Tabish Jaleel Shaikh'
tp297
a(S'654845654'
S'Sughra Shah Bukhari'
tp298
a(S'695025765'
S'Najaf Ali'
tp299
a(S'100001376404028'
S'Mano Meow'
tp300
a(S'781545724'
S'Hira Qureshi'
tp301
a(S'623471470'
p302
S'Laraib Iqbal Malik'
tp303
a(S'100000749136879'
S'Ananya M Sarker'
tp304
a(S'748176162'
S'Zeeba Irshad Qureshi'
tp305
a(S'514612364'
S'Huma Iqbal'
tp306
a(S'100001272240002'
S'Faryana Rafiq'
tp307
a(S'100001258000265'
S'Eesha Shah'
tp308
a(S'1154564859'
S'Muhammad Mustafa'
tp309
a(S'100000256456956'
S'Ali Ehtsham'
tp310
a(S'100001414314256'
S'Ankit Sharma'
tp311
a(S'1481622846'
S'Jazib Babar'
tp312
a(S'1330951186'
S'Aaizza Naqvi'
tp313
a(S'565540471'
S'Nail Choudhry'
tp314
a(S'679794604'
S'Rukhaam Ahmed'
tp315
a(S'713005141'
S'Omer Khan Babar'
tp316
a(S'851075400'
S'Mohsin Azhar'
tp317
a(S'100000413063022'
S'Hina Dattoo'
tp318
a(S'100001767199993'
S'AbdulRehmaan Qayyum'
tp319
a(S'100000354444149'
S'Rizwan Saeed'
tp320
a(S'734824127'
S'Waqar Shah'
tp321
a(S'533010376'
S'Zain Reza'
tp322
a(S'1249255072'
S'Ibad Humayoun'
tp323
a(S'100000891588773'
S'Tayyaba Ashraf'
tp324
a(S'617691124'
S'Sana Javaid Sheikh'
tp325
a(S'721705124'
S'Faisal Riaz'
tp326
a(S'100004933594947'
S'Afzal Akber'
tp327
a(S'592065752'
S'Maryam Naqvi'
tp328
a(S'684927162'
S'Sheharyar Ahmed Shoaib'
tp329
a(S'555410230'
S'Usman Ahmed'
tp330
a(S'1060995109'
S'Aqib Bangash'
tp331
a(S'1025157453'
S'Abhishek Gupta'
tp332
a(S'1532589438'
S'Shah Bakht Sohail'
tp333
a(S'1749814791'
p334
S'Osama Sajid'
tp335
a(S'530710199'
S'Ali Hashmi'
tp336
a(S'686580000'
S'Bilal Chaudry'
tp337
a(S'1471057650'
S'Sael Abbas'
tp338
a(S'1011915417'
S'Muhammad Maaz Kamal'
tp339
a(S'736668486'
S'Muhammad Mudassar'
tp340
a(S'100000299136573'
S'Sharoz Mazhar'
tp341
a(S'684590917'
S'Tuaha Hassan Siddiqui'
tp342
a(S'524211979'
S'Osama Khalyd'
tp343
a(S'100000186500743'
S'Jehanzaib Khan'
tp344
a(S'100004978923320'
S'Syed Naqvi'
tp345
a(S'529247673'
S'Syed Haider Raza'
tp346
a(S'1320522318'
S'Aimen Nadeem'
tp347
a(S'100000447965298'
p348
S'Uneeb Ul Haq Mughal'
tp349
a(S'545955034'
S'Mohsin Naqvi'
tp350
a(S'1022915336'
S'Salman Rafi'
tp351
a(S'1263834544'
S'Fahad Tafheem'
tp352
a(S'543763882'
S'Noor Khan'
tp353
a(S'1574525361'
S'Daniyal Waris'
tp354
a(S'836125021'
S'Junaid Saeed'
tp355
a(S'100006188377089'
S'Syed Imran Raza'
tp356
a(S'553037469'
S'Ch Mohammad Safeer'
tp357
a(S'100004181444251'
S'Eks Eks Eks'
tp358
a(S'732290851'
S'Umair Khalid'
tp359
a(S'1218237445'
S'Malik Amin'
tp360
a(S'551741270'
S'Bilal Rauf'
tp361
a(S'100000983516252'
S'Uzair Ateeque'
tp362
a(S'647156806'
S'Mohammad Amanullah Haneef'
tp363
a(S'586431982'
S'Adeel Khalid'
tp364
a(S'647039001'
S'Adam Aziz'
tp365
a(S'754743616'
S'Adnan Altaf'
tp366
a(S'523182168'
S'Shahjehan Choudhry'
tp367
a(S'100004243297064'
S'Syeda Shah'
tp368
a(S'514022187'
S'Naureen Jalaluddin'
tp369
a(S'586259771'
S'Jibran Khan'
tp370
a(S'598363312'
S'Shumaila Naqvi'
tp371
a(S'1061780256'
S'Waleed Agha'
tp372
a(S'633091090'
S'Ahmed Azhar'
tp373
a(S'100000144237863'
S'Arshia Nisar'
tp374
a(S'100006503318743'
S'Syed Imran Raza'
tp375
a(S'615381723'
S'Basharullah Mohammad'
tp376
a(S'100005631549789'
S'Danish Obaid'
tp377
a(S'870335436'
S'Arisha Akbar'
tp378
a(S'100000352810323'
S'Shreya Ranjan'
tp379
a(S'100003173202175'
S'Imza Batool'
tp380
a(S'1026486374'
S'Farooq Zahid'
tp381
a(S'581425441'
S'Abdul Munam Shaikh'
tp382
a(S'516570174'
S'Zawar Shafiq Rajput'
tp383
a(S'627600096'
S'Basil Saeed'
tp384
a(S'1138638255'
S'Wajih Haider'
tp385
a(S'1320999002'
S'Omar Bin Ali'
tp386
a(S'612766646'
S'Meshall Munir'
tp387
a(S'560396681'
S'Shahid Naqvi'
tp388
a(S'693192120'
S'Shaharbano Raza Kazmi'
tp389
a(S'100000117771429'
S'Ali Naqqash'
tp390
a(S'1566760667'
S'Sibtay Hasan Hyder'
tp391
a(S'1510732674'
S'Irfan Md Abir'
tp392
a(S'1642175312'
S'Nimra Ali'
tp393
a(S'598049736'
S'Rizwan Tahir Rajput'
tp394
a(S'558503937'
S'Maham Ashfaq'
tp395
a(S'100004013553063'
S'Umar Iqbal'
tp396
a(S'833233081'
S'Ahmad Imran'
tp397
a(S'616595533'
S'Hina Sheikh'
tp398
a(S'1264391060'
S'Rubaiya Murshed'
tp399
a(S'1353380546'
S'Hamza Butt'
tp400
a(S'1808150247'
S'Kumail Hassan'
tp401
a(S'514666698'
S'Haroon Sajjad'
tp402
a(S'100000115161466'
S'Asma Kanwal'
tp403
a(S'1536888751'
S'Hannan Butt'
tp404
a(S'523659227'
S'Hashim Raza'
tp405
a(S'588785725'
S'Rabia Sohag'
tp406
a(S'100001221582131'
S'Saadia Naseem'
tp407
a(S'597137550'
S'Nayab Ali'
tp408
a(S'702220577'
S'Arslan Burki'
tp409
a(S'671477954'
S'Asad Sajjad'
tp410
a(S'551990594'
S'Mahira Maniar'
tp411
a(S'1014068356'
S'Saad Ullah Akhtar Chaudary'
tp412
a(S'1303245353'
S'Furqan Ashraf'
tp413
a(S'707226921'
S'Talha Asif Patel'
tp414
a(S'600736753'
S'Imran Khan'
tp415
a(S'762060412'
S'Ali Hamza'
tp416
a(S'579515960'
S'Nashit Iqbal Naviwala'
tp417
a(S'597215820'
S'Chathuni Uduwela'
tp418
a(S'100000770191747'
S'Abdul Saboor Mazhar'
tp419
a(S'826370006'
S'Nauman Lakhani'
tp420
a(S'100003067145705'
S'Mayank Saklani'
tp421
a(S'517358735'
S'Umna Salim'
tp422
a(S'100000183234395'
S'Asim Reza'
tp423
a(S'1051186295'
p424
S'Haroon Ur Rashid'
tp425
a(S'1317638117'
S'Auns Malik'
tp426
a(S'542230503'
S'Abdulrehman Nazar'
tp427
a(S'1010212730'
S'Muhammad Zain Awan'
tp428
a(S'1255601124'
S'Ishneet Kaur'
tp429
a(S'741020346'
S'Maria Lutfullah'
tp430
a(S'100000191403472'
S'Arsh Kataria'
tp431
a(S'612255459'
S'Momin Ali'
tp432
a(S'1082250744'
S'Rubait Rahman'
tp433
a(S'580106083'
S'Mirza Farrukh'
tp434
a(S'100000282478807'
S'Asad Ali Aslam'
tp435
a(S'100000128235844'
S'Syed Waqar Ali Naqvi'
tp436
a(S'843874889'
S'Sheeba Waseem'
tp437
a(S'100002747296246'
S'Ghazanfar Ali'
tp438
a(S'100000576462827'
S'Marhaba Nemat'
tp439
a(S'100000265615048'
S'Sara Mashadi'
tp440
a(S'792025157'
S'Jawad Cheema'
tp441
a(S'528333892'
S'Mishaal Khurshid'
tp442
a(S'602303464'
S'Mujtaba Ali Malik'
tp443
a(S'100003674733493'
S'KFblood Bank'
tp444
a(S'100000073434054'
S'Omer Javaid'
tp445
a(S'622345987'
S'Hammad Arif Chaudhry'
tp446
a(S'600100324'
S'Shahzad Qureshi'
tp447
a(S'709349157'
S'Zeenia R. Mian'
tp448
a(S'100001466795858'
S'Ahmed Sarim'
tp449
a(S'100002222232925'
S'Haseeba Shoaib'
tp450
a(S'756065343'
S'Sharmeen Suleman Rupani'
tp451
a(S'100002516860359'
S'Ali Mehdi Zaidi'
tp452
a(S'1054972609'
S'Zeeshan Amin'
tp453
a(S'1455360932'
S'Ishita Asija'
tp454
a(S'1056243454'
S'Osama Safeer'
tp455
a(S'892645693'
S'Shahan Ashraf'
tp456
a(S'688567611'
S'Shaheer Tariq'
tp457
a(S'100001476457203'
S'Shreya Singh'
tp458
a(S'582443139'
S'Osama Chaudhry'
tp459
a(S'1819210382'
S'Ramla Ishraq'
tp460
a(S'876750857'
S'Wahaj Raza Raja'
tp461
a(S'100003282193877'
S'Usama Bin Maalik'
tp462
a(S'100000278864651'
S'Ali Raza Naqvi'
tp463
a(S'1077753707'
S'Syed Kazim Raza'
tp464
a(S'100000414216711'
S'Waleed Mustafa'
tp465
a(S'1521911240'
S'Ahsan Gondal'
tp466
a(S'559782196'
S'Moiz Alam'
tp467
a(S'1266925002'
S'Sheikh Junaid Nayyer'
tp468
a(S'570737664'
S'Naima Khawar'
tp469
a(S'100001617005930'
S'Ozair Haseeb'
tp470
a(S'1473553130'
S'Muhammad Umad Mazhar'
tp471
a(S'1127532331'
S'Moiz Ejaz'
tp472
a(S'892230383'
S'Muhammad Ghalib Raza'
tp473
a(S'100001270285084'
S'Hareer Fatima'
tp474
a(S'535960725'
S'Muhammad Umer'
tp475
a(S'809930656'
S'Noyan Tajiik'
tp476
a(S'659976480'
S'Ehsan Choudhry'
tp477
a(S'1515474596'
S'Hassaan Saqib'
tp478
a(S'839035622'
S'Nabeel Saleem'
tp479
a(S'669323341'
S'Abdullah Haroon'
tp480
a(S'100000476134928'
S'Abdullah Sajid'
tp481
a(S'859715579'
S'Hasan Abbas'
tp482
a(S'100001300878826'
S'Nomah Javed'
tp483
a(S'1748486029'
S'Kaustabh Ray'
tp484
a(S'1489341900'
S'Kiran Seemi'
tp485
a(S'723500153'
S'Darab Babar'
tp486
a(S'1486482547'
S'U-neeb Ahmad'
tp487
a(S'1089763733'
S'Zaneera A. Mirza'
tp488
a(S'1566594385'
S'Rey Omer Nadeem'
tp489
a(S'100002003484539'
S'Sani E Zahra'
tp490
a(S'582979540'
S'Turab Hussain'
tp491
a(S'721020894'
S'Abdullah Nosherwan'
tp492
a(S'869060583'
S'Rooman Yasin'
tp493
a(S'100002445227022'
S'Amrita Garai'
tp494
a(S'611886950'
S'Saif Baig'
tp495
a(S'757276341'
S'Sagar Gupta'
tp496
a(S'1308942027'
S'Muhammad Umar Basit'
tp497
a(S'524280449'
S'Mahrukh Khan'
tp498
a(S'542833148'
S'Yasir Ali'
tp499
a(S'703525629'
S'Basim Reza'
tp500
a(S'100001730845025'
S'Saransh Gupta'
tp501
a(S'630516814'
S'Fatiq Nadeem'
tp502
a(S'624195148'
S'Saad Waqar Mughal'
tp503
a(S'686796617'
S'Hammad Raza'
tp504
a(S'629885030'
S'Sabeeh Ahmad'
tp505
asS'id'
p506
S'699775140'
p507
sS'name'
p508
S'Natiq Raza'
p509
s.