(dp1
S'friends'
p2
(lp3
(S'1315205674'
S'Pradhan Kushalappa'
tp4
a(S'1494043195'
S'Richa Singh'
tp5
a(S'100001489947899'
S'Preeti Pandey'
tp6
a(S'673507811'
S'Kunal Bhagi'
tp7
a(S'714078409'
S'Bipin Bhaskar'
tp8
a(S'516592507'
S'Charanya Jayashanker'
tp9
a(S'100002002459220'
S'Neeraja Rachel'
tp10
a(S'100001171724131'
S'Mandira Bhattacharjee'
tp11
a(S'636672339'
S'Prashanth Prabhu'
tp12
a(S'1078931440'
S'Sreelakshmi Sreekumar'
tp13
a(S'1661527247'
S'Suppe Dottie'
tp14
a(S'100001966909188'
S'Thelapanda Ananya Muthamma'
tp15
a(S'100005482871189'
S'Roshni Nanjappa'
tp16
a(S'1011581984'
S'Sandeep Mohan'
tp17
a(S'100000867489699'
S'Prajna Kodgi'
tp18
a(S'686418165'
S'Renuka Devayya'
tp19
a(S'552999133'
S'Nisha Nair'
tp20
a(S'553945079'
S'Sukrita Sheshu'
tp21
a(S'100000473938161'
S'Nagendra Murthy'
tp22
a(S'100000345166860'
S'Pooja Behera'
tp23
a(S'605446022'
S'Sanjana Nanjappa'
tp24
a(S'100001503565478'
S'Shruti Adlakha'
tp25
a(S'1621315397'
S'Ashwini Rao'
tp26
a(S'100002943250895'
S'Varun Singh'
tp27
a(S'1799262097'
S'Archana Mahadimane'
tp28
a(S'628224801'
S'Aditi Rao'
tp29
a(S'1533889293'
S'Srinath Naik'
tp30
a(S'501543262'
S'Alia Marie Abreo'
tp31
a(S'1337460254'
p32
S'Mitali Poovayya'
tp33
a(S'768639630'
S'Sumi Kader'
tp34
a(S'754750485'
S'Mythili Chengapa'
tp35
a(S'1438101752'
S'Srishti Rawat'
tp36
a(S'511220635'
S'Anagha Vasudevan'
tp37
a(S'636262349'
S'Zubin Vinod'
tp38
a(S'100002213083370'
S'Bharath Gangavelli'
tp39
a(S'582838873'
S'Bhoomika Bolia'
tp40
a(S'1699911187'
S'Subodh Sharma'
tp41
a(S'100005080423367'
S'Stuti Sharma'
tp42
a(S'100002124158361'
S'Pavithra Kannan'
tp43
a(S'628780717'
S'Kaveri Thimmaiah'
tp44
a(S'100003667957115'
S'Nisha Kv'
tp45
a(S'1074805326'
S'Anoop Jagadeesh'
tp46
a(S'1453006593'
S'Aakanksha Chitnis'
tp47
a(S'1434213082'
S'Shahin Nishad'
tp48
a(S'625750861'
S'Smriti Kumar'
tp49
a(S'100000335525822'
S'Ceana Paul'
tp50
a(S'1635071109'
S'Vedali Inamdar'
tp51
a(S'536291082'
S'Monisha Thimmiah'
tp52
a(S'503490201'
S'Spruha Mahapatra'
tp53
a(S'100001548215812'
S'Sanjana Suresh'
tp54
a(S'100002275821336'
S'Pritismita Krishnatreya'
tp55
a(S'100000173618405'
S'Ishita Raheja'
tp56
a(S'100000535494276'
S'Supriya Mohite'
tp57
a(S'1502361056'
S'Madhuban Sen'
tp58
a(S'1251879380'
S'Deepak Raj'
tp59
a(S'691973921'
S'Tinsy Thomas'
tp60
a(S'641875277'
S'S.Mohammed Ismail'
tp61
a(S'100000823988997'
S'Baljeet Rana'
tp62
a(S'100001838664200'
p63
S'Radhika Poovayya'
tp64
a(S'100000024763235'
S'Kavitha Jayachandran'
tp65
a(S'1591177591'
S'Lubaina Zamindar'
tp66
a(S'697401457'
S'Thanushree Kumar'
tp67
a(S'621785986'
S'Dev Malya Sarkar'
tp68
a(S'834706472'
S'Prerana Chandekar'
tp69
a(S'547150968'
S'Abhinaya Sriram'
tp70
a(S'100000177000270'
S'Aparna Sreeragam'
tp71
a(S'100002192689770'
p72
S'Sitara Devayya'
tp73
a(S'1458076031'
S'Sadia Mariam'
tp74
a(S'100000562315543'
S'Manisha Hegde'
tp75
a(S'1461492387'
S'Hellows Diddee'
tp76
a(S'739223827'
S'Samantha Pereira'
tp77
a(S'100000523856184'
S'Neha Verma'
tp78
a(S'1025792142'
S'Nimmi Chengapa'
tp79
a(S'610045518'
S'Snithin Sasheendran'
tp80
a(S'100000429780958'
S'Hijas Mohamed'
tp81
a(S'100000644391758'
S'Shilpa Np'
tp82
a(S'100000865271755'
S'Avantika Nair'
tp83
a(S'100002706760555'
S'Mittali Joshi'
tp84
a(S'531721761'
S'Kumaresh Kasi'
tp85
a(S'100002320887103'
S'Shameena Hamza'
tp86
a(S'560145038'
S'Uchi Wije'
tp87
a(S'1105063074'
S'Nivedita Raverkar'
tp88
a(S'741341868'
S'Ashlyn Clement'
tp89
a(S'1680390922'
S'Nina Sivan'
tp90
a(S'555182450'
S'Varun Menon'
tp91
a(S'887905164'
S'Ipsita Mishra'
tp92
a(S'541607499'
S'Archana Gomathy'
tp93
a(S'1040720096'
S'Suhail Khan'
tp94
a(S'873935356'
S'Avin Fernando'
tp95
a(S'576900161'
S'Karla Summer'
tp96
a(S'100003789473199'
S'Ahalya Mandana'
tp97
a(S'100001428625936'
S'Juhi Virli'
tp98
a(S'1154712989'
S'Gagana Gowda'
tp99
a(S'100000105780734'
S'Vinni Chhabra'
tp100
a(S'100001709401803'
S'Radhika Mishra'
tp101
a(S'100001517410243'
S'Ramesh Mandha'
tp102
a(S'100001477777815'
S'Sarika Khurana'
tp103
a(S'705035400'
S'Madhuri Narayan'
tp104
a(S'100001483377955'
S'Vivek Sharma'
tp105
a(S'1564419540'
S'Abhishek Sehta'
tp106
asS'id'
p107
S'702673641'
p108
sS'name'
p109
S'Deepthi Poovayya'
p110
s.