(dp1
S'friends'
p2
(lp3
(S'1017984905'
S'Jaslee\\u014b Arora'
tp4
a(S'100006267426882'
S'Yuvika Motwani'
tp5
a(S'1265485585'
S'Aanavi Dewan'
tp6
a(S'1165162079'
S'Umang Daga'
tp7
a(S'100004593362846'
S'Rupashree Banerjee'
tp8
a(S'100004035636764'
S'Manmohan Singh'
tp9
a(S'100002511977414'
S'Shreysi Mehendiratta'
tp10
a(S'1337460254'
p11
S'Mitali Poovayya'
tp12
a(S'597933121'
p13
S'Abel Thayil'
tp14
a(S'100000540467229'
S'Sasha Aggarwal'
tp15
a(S'100002495514408'
S'Satnam Kaur'
tp16
a(S'1717464332'
S'Varun Garg'
tp17
a(S'100000534994264'
S'Jaspreet Lamba'
tp18
a(S'680426613'
p19
S'Shyamli Nemani'
tp20
a(S'100006158112798'
S'Sanchit Goyal'
tp21
a(S'100001562212237'
p22
S'Raunak Meena'
tp23
a(S'535430282'
S'Aarushi Prabhakar'
tp24
a(S'789795007'
p25
S'Arjun Chopra'
tp26
a(S'1118763662'
S'Chakra Dhar Mishra'
tp27
a(S'100000331966789'
S'Shriyani Sharma'
tp28
a(S'100001625520269'
S'Jatinder Singh Chada'
tp29
a(S'592003566'
S'V.subath Senan'
tp30
a(S'100002256276081'
S'Vita Anand'
tp31
a(S'100000572434620'
S'Payal Deb'
tp32
a(S'1052071979'
S'Ipshita Agarwal'
tp33
a(S'1025580640'
S'Mridula Raghav'
tp34
a(S'1309128676'
S'Anshika Gupta'
tp35
a(S'1320854405'
S'Pali Ghai'
tp36
a(S'1301692238'
S'Samarth Sethi'
tp37
a(S'755708691'
S'Upasana Kabra'
tp38
a(S'100006586621779'
S'Prekshita Patwa'
tp39
a(S'568705381'
S'Gundeep Chandhok'
tp40
a(S'635093001'
p41
S'Tanya Sood'
tp42
a(S'100000094858169'
p43
S'Sambhav Raj'
tp44
a(S'100005141409825'
S'Mitterpal Singh Suri'
tp45
a(S'733170298'
S'Sanuj Shah'
tp46
a(S'637241756'
S'Karan Ahluwalia'
tp47
a(S'560691912'
S'Vaishali Bajaj'
tp48
a(S'1557131885'
S'Karanvir Malhotra'
tp49
a(S'1357990771'
S'Arushi Jindal'
tp50
a(S'511159444'
p51
S'Esha Goel'
tp52
a(S'100003653780465'
p53
S'Laili Abdullah'
tp54
a(S'524661642'
S'Vishvesh Varma'
tp55
a(S'606460471'
S'Karan Ghai'
tp56
a(S'1067807574'
p57
S'Jyotsna Mahajan'
tp58
a(S'1463960718'
S'Jasmeet Kaur'
tp59
a(S'651186980'
S'Shikha Chandra'
tp60
a(S'1209250745'
S'Shaishav Agrawal'
tp61
a(S'1008319203'
S'Anika Bhasker'
tp62
a(S'100001175860963'
S'Ipsita Yadav'
tp63
a(S'602291156'
p64
S'Priyanka Ravishankar'
tp65
a(S'100000451178285'
S'Sanket Agarwal'
tp66
a(S'760839523'
S'Krish Chhatwal'
tp67
a(S'100001074696002'
S'Brunda Narendra'
tp68
a(S'1222848754'
S'Nainy Anand'
tp69
a(S'1472614361'
S'Akash Sehgal'
tp70
a(S'100001209780614'
S'Simer Ghai'
tp71
a(S'100000458253285'
S'Ankita Singh'
tp72
a(S'1548127020'
S'Tanya Sharma'
tp73
a(S'100000535511056'
S'Namita Khunger'
tp74
a(S'100003705065047'
S'Apoorva Kaul'
tp75
a(S'550931610'
S'Sanhita Ghoshal'
tp76
a(S'777490061'
p77
S'Ichha Gandhi'
tp78
a(S'622224939'
S'Samin Bhargava'
tp79
a(S'100000256761151'
S'Gvss Rohith'
tp80
a(S'688498569'
S'Manik Garg'
tp81
a(S'585693000'
S'Harshu Lamba'
tp82
a(S'1299887656'
p83
S'Jashan Gupta'
tp84
a(S'1196523970'
S"Lynette D'Souza"
tp85
a(S'638498310'
p86
S'Sankalp Oberoi'
tp87
a(S'503508832'
S'Pooja A. Walia'
tp88
a(S'1092924090'
S'Divyat Rungta'
tp89
a(S'1587100422'
S'Ambika Chowdhry'
tp90
a(S'503797045'
S'Nitti Srisinghaprapha'
tp91
a(S'100003964340917'
S'Kanika Chhabra'
tp92
a(S'100001849623385'
S'Aarushi Gupta'
tp93
a(S'1066506018'
S'Rishi Thariani'
tp94
a(S'1587008876'
S'Farheen Savanth'
tp95
a(S'100000964329608'
S'Sameer Khatib'
tp96
a(S'1636313224'
S'Pem Kashak'
tp97
a(S'100002259277506'
S'Shreya Bansal'
tp98
a(S'1060183535'
S'Raagini Bhalla'
tp99
a(S'1122247131'
S'Bhavya Aggarwal'
tp100
a(S'100000645421575'
S'Aisha Khandelwal'
tp101
a(S'676348694'
S'Vedant Padia'
tp102
a(S'1726305790'
S'Apurvaa Ghawate'
tp103
a(S'533650739'
S'Ishdeep Anand'
tp104
a(S'1340929475'
S'Hinal Mehta'
tp105
a(S'650710772'
S'Shreeya Bhutani'
tp106
a(S'1312330580'
S'Paridhi Sabharwal'
tp107
a(S'100001546658306'
S'Neelanjana Sarkar'
tp108
a(S'1034636368'
S'Pekhna Suri'
tp109
a(S'1686068658'
S'Vivek Tunur Joseph Barla'
tp110
a(S'503594034'
S'Bharti Shivdasani'
tp111
a(S'647271828'
S'Swati Zavery Malviya'
tp112
a(S'100000452744028'
S'Prashansa Choudhary'
tp113
a(S'100003121527784'
S'Jaya Kaushik'
tp114
a(S'1094582343'
S'Yamini Nayar'
tp115
a(S'705516389'
S'Anunay Kulshrestha'
tp116
a(S'1537452171'
S'Shreshth Bhardwaj'
tp117
asS'id'
p118
S'703532803'
p119
sS'name'
p120
S'Gurveen Ghai'
p121
s.