(dp1
S'friends'
p2
(lp3
(S'532720206'
S'Anindya Misra'
tp4
a(S'671779887'
S'Sanjay Bahadur'
tp5
a(S'1348373108'
S'Apeksha Ojha'
tp6
a(S'581722811'
S'Bhagat Nainani'
tp7
a(S'507948268'
S'Ravi Murthy'
tp8
a(S'505979104'
S'Rahul Pathak'
tp9
a(S'1414298560'
S'Raj Java'
tp10
a(S'1378586330'
S'Subhranshu Banerjee'
tp11
a(S'699784073'
S'Nick Kavantzas'
tp12
a(S'554877800'
S'Gopal Kirsur'
tp13
a(S'100000642862814'
S'Nadathur Krishnan'
tp14
a(S'523449680'
S'Sanket Atal'
tp15
a(S'100000691761153'
S'P Raman Rajan'
tp16
a(S'100005132256122'
S'Girindra Ojha'
tp17
a(S'219043'
S'Poojan Kumar Dhingra'
tp18
a(S'1138866232'
S'Greg Pavlik'
tp19
a(S'653773433'
S'Swapna Pandey'
tp20
a(S'842380393'
S'Dave Chappell'
tp21
a(S'576306864'
S'Ojha Kishori'
tp22
a(S'1818025176'
S'Ralf Mueller'
tp23
a(S'100001269354156'
S'Shivraj Pershad'
tp24
a(S'100004998966183'
S'Nisha Pandey'
tp25
a(S'100002996393275'
S'HK Pandey'
tp26
a(S'672151889'
S'Alice Weiss Vasiliu'
tp27
a(S'617956513'
S'Ashish Mohindroo'
tp28
a(S'835712240'
S'Bipul Sinha'
tp29
a(S'1057685296'
S'Mahadevan Lakshminarayanan'
tp30
a(S'574093524'
S'Akanksha Ojha'
tp31
a(S'1047434359'
S'Amlan Debnath'
tp32
a(S'646163654'
S'Peter Castelino'
tp33
a(S'1012939795'
S'Parul Jain'
tp34
a(S'100002192701097'
S'Sangita Mishra'
tp35
a(S'1277304777'
S'Clemens Utschig'
tp36
a(S'100000752456086'
S'Anil Deshpande'
tp37
a(S'663600138'
S'Soumya Mishra'
tp38
a(S'1170796747'
S'Thomas Kurian'
tp39
a(S'1154387131'
S'Rekha Onteddu'
tp40
a(S'1850154648'
S'Satish Mishra'
tp41
a(S'685471521'
S'Bo Stern'
tp42
a(S'1052987905'
S'Michael Parlapiano'
tp43
a(S'713997594'
S'Ashish Thusoo'
tp44
a(S'782624816'
S'Angus MacDonald'
tp45
a(S'765250701'
S'Vikram Shukla'
tp46
a(S'680399858'
S'Kannan Muthukkaruppan'
tp47
a(S'557497496'
S'Nishant Shekhar Ojha'
tp48
a(S'567222791'
S'Amit Bharadwaj'
tp49
a(S'100002675653397'
S'Manjula Pathak'
tp50
a(S'817866117'
S'Jim Powell'
tp51
a(S'747851307'
S'Annie Varma'
tp52
a(S'538342716'
S'Harsh Vardhan Pant'
tp53
a(S'615469300'
S'Nalin Pant'
tp54
a(S'671606744'
S'Seshu Adunuthula'
tp55
a(S'620768659'
S'Micha\\u0142 Chmielewski'
tp56
a(S'100000368601943'
S'Joydeep Chatterjee'
tp57
a(S'872655496'
S'Harshit Bapna'
tp58
a(S'589336416'
S'Muralidhar Krishnaprasad'
tp59
a(S'540412888'
S'Brajesh Goyal'
tp60
a(S'594511375'
S'Namit Jain'
tp61
a(S'100001024104630'
S'Kapil Surlaker'
tp62
a(S'100000244098961'
S'Sangeeta Pant'
tp63
a(S'1192759089'
S'Deepak Sharma'
tp64
a(S'220900132'
S'TV Prabhakar'
tp65
a(S'666868503'
S'Kislay Mishra'
tp66
a(S'708814696'
S'Dheeraj Pandey'
tp67
a(S'637927920'
S'Aindra Misra'
tp68
a(S'702446922'
S'Anil Nori'
tp69
a(S'676346915'
S'Mohamad Afshar'
tp70
a(S'837068647'
S'Rohit Satapathy'
tp71
a(S'802815646'
S'Ashutosh Agarwal'
tp72
a(S'682023657'
S'Tal Broda'
tp73
a(S'543679348'
S'Sunita S Lele'
tp74
a(S'549149192'
S'Krishnan Meiyyappan'
tp75
a(S'668321240'
S'Anshu Sharma'
tp76
a(S'1110212166'
S'Nipun Agarwal'
tp77
a(S'538613464'
S'Avi Borthakur'
tp78
a(S'553972987'
S'Sreenivas Gollapudi'
tp79
a(S'100000866928724'
S'Priyanka Panda'
tp80
a(S'693202595'
S'Vibha Mishra'
tp81
a(S'100000269560272'
S'Harendra Kumar'
tp82
a(S'717397820'
S'Karthik Rajan'
tp83
a(S'1734024893'
S'Krishnan Venugopal'
tp84
a(S'725929788'
S'Stephanie McReynolds'
tp85
a(S'642154809'
S'Sriram Samu'
tp86
a(S'521981914'
S'Herb Stiel'
tp87
a(S'1577889574'
S'Ajay Pandey'
tp88
a(S'747384622'
S'Albert Tam'
tp89
a(S'538187475'
S'Dinesh VIjapurkar'
tp90
a(S'713250964'
p91
S'Vineet Buch'
tp92
a(S'1204685722'
S'Prakash Chandra Dubey'
tp93
a(S'622107532'
S'Edwin Khodabakchian'
tp94
a(S'779780104'
S'Maneesh Joshi'
tp95
a(S'431189'
S'Nitin Gupta'
tp96
a(S'680321995'
S'Rama Balakrishnan'
tp97
a(S'548143283'
S'Sudhanshu Kumar'
tp98
a(S'653042558'
S'Gaurav Bhatia'
tp99
a(S'100002009591273'
S'Isha Mishra'
tp100
a(S'557138850'
S'Kannan Govindarajan'
tp101
a(S'1043051527'
S'Pratima Mishra'
tp102
asS'id'
p103
S'703981609'
p104
sS'name'
p105
S'Shailendra Mishra'
p106
s.