(dp1
S'friends'
p2
(lp3
(S'1825157217'
p4
S'Ufaq Manzar'
tp5
a(S'1136915539'
S'Daniyal Mazhar'
tp6
a(S'1619530182'
S'Niida Ashraf'
tp7
a(S'100001486943639'
S'Maneesh Kumar'
tp8
a(S'656396014'
S'Abdul Rehman Agha'
tp9
a(S'732069288'
S'Arsalan Ahmed'
tp10
a(S'1048259955'
S'Moomal Chhabria'
tp11
a(S'1222898717'
S'Asad Habib'
tp12
a(S'1467445829'
S'Mehlub Usmani'
tp13
a(S'100000566923150'
S'Ali Masood'
tp14
a(S'1564212654'
S'Mashal Zahra'
tp15
a(S'517718671'
S'Mohammad Adeel Mushtaq'
tp16
a(S'1134811620'
S'Mehras Tayyab'
tp17
a(S'542756437'
S'Faiz Ahmed'
tp18
a(S'665316555'
S'Najiya N. Siddiqui'
tp19
a(S'100000286804307'
S'Naima Ali'
tp20
a(S'602953344'
S'Syed Daniyal Adil'
tp21
a(S'631976487'
S'Kamran Asghar'
tp22
a(S'100002075928719'
S'Rida Mahmood'
tp23
a(S'597780169'
S'Rehan Elahi'
tp24
a(S'1277602096'
S'Kainat Shahid'
tp25
a(S'100000211078185'
S'Yaqoob Ali'
tp26
a(S'579515960'
S'Nashit Iqbal Naviwala'
tp27
a(S'1723710521'
S'Muhammad Musa Khan'
tp28
a(S'1472151954'
S'Sabeen Tariq'
tp29
a(S'1192464211'
S'Maha Ali'
tp30
a(S'803650513'
S'Murtaza Abbas'
tp31
a(S'586690380'
S'Zoya Shahzad Paracha'
tp32
a(S'654311222'
S'Hira Naeem'
tp33
a(S'100000538815832'
S'Muhammad Ali Siddiqui'
tp34
a(S'1671538043'
S'Umair Khalid'
tp35
a(S'100000814684624'
S'Uzair Javed'
tp36
a(S'671921982'
S'John Tariq'
tp37
a(S'100000504788504'
S'Umar Tariq'
tp38
a(S'605446884'
S'Saad Khatri'
tp39
a(S'592640268'
S'Komail Abbas Naqvi'
tp40
a(S'1554153043'
S'Taimur Ahmed'
tp41
a(S'630376560'
p42
S'Vivek Pinjani'
tp43
a(S'100000550270747'
S'Irfan Qureshi'
tp44
a(S'1526256738'
S'Tilal Lateef'
tp45
a(S'1034823683'
S'Maliha Khan'
tp46
a(S'1213637082'
S'Sundus Qasim'
tp47
a(S'100000051301020'
S'Fazal Ata Tung'
tp48
a(S'617837350'
S'Umair Mesiya'
tp49
a(S'835025102'
S'Shafaat Yar Khan'
tp50
a(S'100001369791712'
S'Anum Akbar'
tp51
a(S'556440769'
S'Rao Muhammad Abdullah'
tp52
a(S'590364025'
S'Myrah Nerine Butt'
tp53
a(S'100000940077354'
S'Hassaan Saleem'
tp54
a(S'1498699607'
S'Ammar Aftab'
tp55
a(S'1403263598'
S'Kamil Ehsan'
tp56
a(S'543875504'
S'Asad Aun Ali'
tp57
a(S'1316739295'
S'Alamgir Faisal Usmani'
tp58
a(S'1827684660'
S'Hira Jahangir'
tp59
a(S'100002506480457'
S'Javed Janbaz'
tp60
a(S'100003613916102'
p61
S'Ayesha Saleem'
tp62
a(S'1232867746'
S'Sonia Daryani'
tp63
a(S'509169100'
S'Ahmad Butt'
tp64
a(S'100001839557074'
p65
S'Rafia Murtaza'
tp66
a(S'100000056447299'
S'Aamna Wasim'
tp67
a(S'100003055497497'
S'Mohammad Aahsan Aamir'
tp68
a(S'612783939'
S'Khawaja Raza Abbas'
tp69
a(S'509635892'
S'Areeba Arif'
tp70
a(S'689170790'
S'Muhammad Adil Saleem'
tp71
a(S'633235574'
S'Danny Talati'
tp72
a(S'523595567'
p73
S'Sameen Fatima'
tp74
a(S'516861703'
S'Willie Henderson'
tp75
a(S'1219138421'
S'Saniya Farooqi'
tp76
a(S'842040092'
S'Taneer Ahmed'
tp77
a(S'100000079470223'
S'Hassan Zaheer'
tp78
a(S'100001617005930'
S'Ozair Haseeb'
tp79
a(S'547780014'
S'Saman Jafri'
tp80
a(S'529062026'
S'Rabia Tariq'
tp81
a(S'100004203035403'
S'Umer Merchant'
tp82
a(S'1068409151'
S'Momin Ali Munshi'
tp83
a(S'1793834768'
S'Saman Shafiq'
tp84
a(S'618966216'
S'Khawaja Ali Zubair'
tp85
a(S'603306421'
S'Maha Janbaz'
tp86
a(S'1781742660'
S'Zohaib Janbaz'
tp87
a(S'821950079'
S'Nimra Waheed'
tp88
a(S'663760968'
S'Taha Jamal'
tp89
a(S'670486376'
S'Abbas Moiz'
tp90
a(S'1162531833'
S'Syeda Farwah Rizvi'
tp91
a(S'1362936278'
S'Hamza Ayub'
tp92
a(S'636340387'
S'Mujtaba Kasmani'
tp93
a(S'718948441'
S'Abdullah Zafar'
tp94
a(S'796930524'
S'Samia Aslam'
tp95
a(S'615381723'
S'Basharullah Mohammad'
tp96
a(S'844265200'
S'Rohail Ahuja'
tp97
a(S'637547591'
S'Minha Akber Allibhoy'
tp98
a(S'816320712'
S'Babar Shaikh'
tp99
a(S'100000033784879'
S'Syeda Mahnoor Rizvi'
tp100
a(S'100003880372126'
S'M Saud Shahid'
tp101
a(S'529985419'
S'Fariha Yousufi'
tp102
a(S'100000520076059'
S'Brian Owen'
tp103
a(S'1782401139'
p104
S'Sama Tanveer'
tp105
a(S'100000164741055'
S'Hunain Ahmad'
tp106
a(S'1287981244'
S'Rida Aghaa'
tp107
a(S'100002483634240'
p108
S'Nehal Hasan'
tp109
a(S'100000423142891'
S'Alizay Javed'
tp110
asS'id'
p111
S'709091100'
p112
sS'name'
p113
S'Zaryab Janbaz'
p114
s.