(dp1
S'friends'
p2
(lp3
(S'100000185028860'
S'Radhika Chandak'
tp4
a(S'100003195658144'
S'Gurasis Bangaa'
tp5
a(S'1322706858'
S'Kushal Dhillon'
tp6
a(S'564489365'
S'Jayesh Joshi'
tp7
a(S'100005186133474'
S'Neha Bhushan'
tp8
a(S'100000524443194'
S'Barek Kaiser'
tp9
a(S'100003112204497'
S'Sumit Prakash Yadav'
tp10
a(S'1754359889'
S'Keshav Malhotra'
tp11
a(S'100001868165820'
S'Sanket Tanwar'
tp12
a(S'100002136898250'
S'Rohan Rao'
tp13
a(S'1760274583'
S'Meher Prasher'
tp14
a(S'100000880468748'
S'Shweta Srinivas'
tp15
a(S'1580043892'
S'Nikhil Malik'
tp16
a(S'100003950626628'
S'Shweta Dadwal'
tp17
a(S'100000696304168'
S'Bhagwan Singh'
tp18
a(S'100001003518244'
S'Raghav Makker'
tp19
a(S'691691186'
S'Samraat Sharma'
tp20
a(S'100000525465579'
S'Kanika Arora'
tp21
a(S'1014787861'
S'Satabhisa Bhaumik'
tp22
a(S'1827306072'
S'Raahul Awasty'
tp23
a(S'100000527702182'
S'Ayush Kundra'
tp24
a(S'1063582875'
S'Ayushi Singh'
tp25
a(S'100000678579006'
S'Sachin Kumar'
tp26
a(S'100001774714773'
S'Anshul Panchal'
tp27
a(S'1619779732'
S'Ksheerja Batra'
tp28
a(S'100004947464005'
S'Bhartii Oberoii'
tp29
a(S'727451656'
S'Sangeeta Jain'
tp30
a(S'100003327965653'
S'Samridhi Sharma'
tp31
a(S'1488276282'
S'Prajakta Sonkusare'
tp32
a(S'1152762359'
S'Anvit Rai'
tp33
a(S'100000122599736'
S'Abhishek Jain'
tp34
a(S'100000740481493'
S'Siddharth Vashisth'
tp35
a(S'100000320962105'
S'Ishan Dhar'
tp36
a(S'100001819341622'
S'Kanika Tewatia'
tp37
a(S'100000549770470'
S'Vinayak Prasad'
tp38
a(S'1745497030'
S'Ashutosh Sharma'
tp39
a(S'693081118'
S'Ajay Sharma'
tp40
a(S'1265140146'
S'Tanya Kundu'
tp41
a(S'1842911752'
S'Harshit Nanda'
tp42
a(S'100001237170088'
S'Devika RoyChowdhury'
tp43
a(S'1365763581'
S'Hamsa Raina'
tp44
a(S'668139538'
S'Tushar Sharma'
tp45
a(S'100001104412902'
S'Mahesh Bhati'
tp46
a(S'697297291'
S'Radhika Nair'
tp47
a(S'1343726199'
S'Puja Gupta'
tp48
a(S'1758594290'
S'Bhavya Bhatia'
tp49
a(S'1771582643'
S'Chirag Gambhir'
tp50
a(S'100004052302120'
S'Monisha Sharma'
tp51
a(S'1344200409'
S'Tanvi Varshney'
tp52
a(S'100004348476130'
S'Anurag Agarwal'
tp53
a(S'100000174466039'
S'Rishabh Kumar'
tp54
a(S'1319842602'
S'Sahiba Baweja'
tp55
a(S'1367257644'
S'Jeel Desai'
tp56
a(S'100004030800469'
S'Kajal Singh'
tp57
a(S'1542736095'
S'Hemmangi Ohri'
tp58
a(S'620887802'
S'Yash Choubey'
tp59
a(S'100001091277442'
S'Ishani Banerjee'
tp60
a(S'100005248980066'
S'Akansha Sharma'
tp61
a(S'1059474613'
S'Yashima Puri'
tp62
a(S'100000989244855'
S'Nikhil Lohia'
tp63
a(S'100001565952809'
S'Devaang Mehrotra'
tp64
a(S'1302302050'
S'Sahil Nagpal'
tp65
a(S'781612146'
S'Rachit Hooda'
tp66
a(S'100003843113566'
S'Riya Alagh'
tp67
a(S'100000251098161'
S'Srishti Sinha'
tp68
a(S'1566214861'
S'Ankita Mondal'
tp69
a(S'702276142'
S'Ritika Gajwani'
tp70
a(S'1822418225'
S'Sarthak Garg'
tp71
a(S'100002685666583'
S'Garima Desia'
tp72
a(S'1492163139'
S'Varun Sharawat'
tp73
a(S'506335150'
S'Parag Sharma'
tp74
a(S'636556048'
S'Anuj Datta'
tp75
a(S'100002411765063'
S'Kapil Kumar Chawlia'
tp76
a(S'781067228'
S'Rushil Dev'
tp77
a(S'1007829568'
S'Shilpi Khan'
tp78
a(S'100000403891352'
S'Garima Ladwal'
tp79
a(S'1339893858'
S'Aakarsha Sivaramakrishnan'
tp80
a(S'1044370345'
S'Arnav Messi'
tp81
a(S'100003970420706'
S'Riya Chauhan'
tp82
a(S'100001385783605'
S'Rishabh Sharma'
tp83
a(S'1228423052'
S'Kashish Gajrawala'
tp84
a(S'1029647082'
S'Saloni Sharma'
tp85
a(S'742265313'
S'Akhil Rao'
tp86
a(S'100001279513378'
S'Vineet Aggarwal'
tp87
a(S'100004048124601'
S'Aliya Singh'
tp88
a(S'100001475895629'
S'Saagar Nayyar'
tp89
a(S'100003876034604'
S'Devika Rajput'
tp90
a(S'1082203246'
S'Vatsala Vats'
tp91
a(S'683611110'
S'Pankhuri Sharma'
tp92
a(S'100001651652360'
S'Mahima Sharma'
tp93
a(S'100001036957182'
S'Nishu Srivastava'
tp94
a(S'1792957519'
S'Aarohan Rao'
tp95
a(S'1028050915'
S'Shivani Gaur'
tp96
a(S'100002214722727'
S'Simi Das'
tp97
a(S'100001469848464'
S'Akanksha Gupta'
tp98
a(S'1692746048'
S'Shubham Malhotra'
tp99
a(S'100000518533373'
S'Pratham Sharma'
tp100
a(S'100000024403508'
S'Yaduraj Singh Chauhan'
tp101
a(S'100000141096198'
S'Sanjoli Sirohi'
tp102
a(S'1809926912'
S'Harsh Sharma'
tp103
a(S'100003707414990'
S'Poonam Brar'
tp104
a(S'100000987821051'
S'Kubair Rangan'
tp105
a(S'100000035555536'
S'Hemant Yadav'
tp106
a(S'100001506037178'
S'Rupannshi Mahajan'
tp107
a(S'1773773613'
S'Udaydeep Jindal'
tp108
a(S'100000927834994'
S'Ragini Jain'
tp109
a(S'1496441718'
S'Karan Sud'
tp110
a(S'100000372791633'
S'Vishwas Khatri'
tp111
a(S'500506051'
S'Ruchi Sharma'
tp112
a(S'100001048602098'
S'Pawan Sharma'
tp113
a(S'1354073232'
S'Sohil Sharma'
tp114
a(S'100000724928863'
S'Rakshita Bhayana'
tp115
a(S'100000497242372'
S'Knowing You'
tp116
a(S'1113904440'
S'Urvashi Gautam'
tp117
a(S'1843159986'
S'Ishita Soni'
tp118
a(S'100000795811494'
S'Aakanksha Sehrawa\\u1e6b'
tp119
a(S'100001438707550'
S'Rachana Takshak'
tp120
a(S'1433984136'
S'Ridhima Chatterjee'
tp121
a(S'100000688875148'
S'Rajat Bond'
tp122
a(S'1041122316'
S'Pallavi Arora'
tp123
a(S'1480172177'
S'Akshita Dhaka'
tp124
a(S'1704619804'
S'Raunaq Khanna'
tp125
a(S'100000065971803'
S'Prekshi Gulia'
tp126
a(S'100000141729076'
S'Sanjana Agarwal'
tp127
a(S'100002185362097'
S'Alisha Kapoor'
tp128
a(S'100000933580381'
S'Kritika Saxena'
tp129
a(S'1226396601'
S'Pranav Jain'
tp130
a(S'100000575386272'
S'Pranay Billie Sharma'
tp131
a(S'100003083964012'
S'Himanshu Valecha'
tp132
a(S'1065592990'
S'Rahul Wahi'
tp133
a(S'100000258786925'
S'Rajat Razdan'
tp134
a(S'1504914433'
S'Nikita Ahuja'
tp135
a(S'100001560656154'
S'Tanushree Bose'
tp136
a(S'100000499676164'
S'Himanshu Sharma'
tp137
a(S'1209661496'
S'Shubham Senger'
tp138
a(S'100000436448231'
S'Jitender Yadav'
tp139
a(S'1661407120'
S'Parth Yadav'
tp140
a(S'1630681323'
S'Bhuwan Chauhan'
tp141
a(S'1142835087'
S'Tanika Yadav'
tp142
a(S'100004120387196'
S'Saumya Sharma'
tp143
a(S'100005064060652'
S'Kajol Rajput'
tp144
a(S'1271538264'
S'Shobhit Singh Kohli'
tp145
a(S'743370119'
S'Priyanka Kwatra'
tp146
a(S'1554842395'
S'Mohit Kapoor'
tp147
a(S'100001083414791'
S'Shreya Chaturvedi'
tp148
a(S'1666057552'
S'Ashish Thakran'
tp149
a(S'1563997220'
S'Anahita Jhunja'
tp150
a(S'100000674641185'
S'Aditya Mudgal'
tp151
a(S'739589452'
S'Priyanka Jangra'
tp152
a(S'100000958422611'
S'Kamaljeet Singh'
tp153
a(S'1144656086'
S'Ankita Gaur'
tp154
a(S'1073035709'
S'Prakash Pandey'
tp155
a(S'1249013571'
S'Amber Grover'
tp156
a(S'1139589204'
S'Pratyush Kr'
tp157
a(S'1796719704'
S'Apoorva Somani'
tp158
a(S'1392485421'
S'Ekansh Gupta'
tp159
a(S'100000350718530'
S'Aditi Gupta'
tp160
a(S'575026109'
S'Emaan Kazmi'
tp161
a(S'100000389805827'
S'Shreya Anilkumar'
tp162
a(S'100001269691061'
S'Prachi Bapna'
tp163
a(S'1743166042'
S'Aishwarya Borgohain'
tp164
a(S'100004283051771'
S'Pratibha Mittal'
tp165
a(S'100001739242378'
S'Anshika Goel'
tp166
a(S'100001319443313'
S'Shipra Kukreja Shippi Hippi'
tp167
a(S'100001105175888'
S'Bhavya Khanna'
tp168
a(S'100001911470780'
S'Kangan Jain'
tp169
a(S'1316301064'
S'Shaurya Muttreja'
tp170
a(S'1149316418'
S'Nivedita Banerjee'
tp171
a(S'100000259103986'
S'Yayati Dinesh'
tp172
a(S'1604485383'
S'Prakriti Malhotra'
tp173
a(S'1515795416'
S'Geetanshu Bhatia'
tp174
a(S'100003937857696'
S'Tanya Bhatia'
tp175
a(S'1626727756'
S'Shreya Gupta'
tp176
a(S'100001008816202'
S'Shirali Agarwal'
tp177
a(S'1501250693'
S'Madhur Malhotra'
tp178
a(S'100001551164975'
S'Riczz Roxz'
tp179
a(S'100000131853175'
S'Shreya Mangla'
tp180
a(S'100005729736191'
S'Kanika Mangal'
tp181
a(S'1330844639'
S'Varun Kapoor'
tp182
a(S'1645957329'
S'Aakash Thakran'
tp183
a(S'1207780999'
S'Lohit Parmar'
tp184
a(S'1162402450'
S'Baani Singh'
tp185
a(S'100000026050885'
S'Arihant Kumar Awasty'
tp186
a(S'100003038404542'
S'Kartik Rawat'
tp187
a(S'100006026024460'
S'Lavanya Kapoor'
tp188
a(S'100001191428775'
S'Nikita Bansal'
tp189
a(S'100002436534011'
S'Abhilasha Guha'
tp190
a(S'100000945004451'
S'Tannaz Sidhu'
tp191
a(S'100000212988541'
S'Shubham Mehta'
tp192
a(S'1686255319'
S'Rinav Sachdev'
tp193
a(S'1308765318'
S'Vaishnavi Yadav'
tp194
a(S'100001085030971'
S'Vaibhav Balain'
tp195
a(S'100005119000209'
S'Saumya Dubey'
tp196
a(S'1248090900'
S'Arshia Ticku'
tp197
a(S'100000052372463'
S'Arushi Mathur'
tp198
a(S'1738766429'
S'Vineet Dixit'
tp199
a(S'1467901885'
S'Yuvraj Singh Tyagi'
tp200
a(S'100003883755568'
S'Vishakha Kookie'
tp201
a(S'1001316862'
S'Karanvir Singh'
tp202
a(S'100000567424610'
S'Aastha Jain'
tp203
a(S'100002685548200'
S'Aishwarya Dudha'
tp204
a(S'100003854763242'
S'Aarzo Rao'
tp205
a(S'1678266844'
S'Dron Mahendran'
tp206
a(S'533352117'
S'Deep Zabakh'
tp207
a(S'100004284514842'
S'Navpreet Singh Gill'
tp208
a(S'1375556779'
S'Sankalp Talwar'
tp209
a(S'100001629906306'
S'Rhythem Bhambri'
tp210
a(S'825577519'
S'Aarushi Bhagat'
tp211
a(S'100003333516786'
S'Anurag Agarwal'
tp212
a(S'1569671728'
S'Akhil Sharma'
tp213
a(S'1163525030'
S'Priyanka Nagarajan'
tp214
a(S'835133367'
S'Anjney Sangal'
tp215
a(S'100001519980560'
S'Somya Vohra'
tp216
a(S'1051289788'
S'Gaurav Gupta'
tp217
a(S'1412558119'
S'Saivani Bobba'
tp218
a(S'1508704294'
S'Divya Shukla'
tp219
a(S'1224661475'
S'Mikasha Sinha'
tp220
a(S'1222397138'
S'Akshita Gogia'
tp221
a(S'100000878456298'
S'Jahnvi Sen'
tp222
a(S'1474667736'
S'Kanchan Kumari'
tp223
a(S'695042793'
S'Apoorv Vatzz'
tp224
a(S'1283181422'
S'Gouri Annand'
tp225
a(S'1215910665'
S'Samridhi Aggarwal'
tp226
a(S'100000002224483'
S'Abhiyant Singh'
tp227
a(S'1028173828'
S'Priyanshu Bhatia'
tp228
a(S'100001681712006'
S'Ananya Majumdar'
tp229
a(S'100002585633593'
S'Tiara Malhotra'
tp230
a(S'1005464293'
S'\\u00d0jay Rmg'
tp231
a(S'100002889009514'
S'Tanvi Yadav'
tp232
a(S'609348979'
S'Jayesh Sher'
tp233
a(S'100002325085140'
S'Naresh Sharma'
tp234
a(S'1438208614'
S'Rajaat Sethi'
tp235
a(S'100000181865114'
S'Rishabh Thakur'
tp236
a(S'580350063'
S'Aashian Bieber Stark'
tp237
a(S'1503894258'
S'Mehak Kawatra'
tp238
a(S'547571325'
S'Saurabh Joshi'
tp239
a(S'1320330392'
S'Akanksha Singh'
tp240
a(S'1122953374'
S'Shivam Rana'
tp241
a(S'1790983118'
S'Siddharth Ojha'
tp242
a(S'100000504528895'
S'Bavleen Mehta'
tp243
a(S'100001894265367'
S'Suraj Singh'
tp244
a(S'100000583448095'
S'Roxanne Fournier'
tp245
a(S'100000775697983'
S'Yatin Chawla'
tp246
a(S'1179682849'
S'Mehul Arora'
tp247
a(S'1147869983'
S'Anahita Mistry'
tp248
a(S'100003878083134'
S'Sammarth Sharma'
tp249
a(S'100002689879986'
S'Nishi Malhotra'
tp250
a(S'100001022865842'
S'Rohan Shankar Rai'
tp251
a(S'100006067055162'
S'Shweta Payal'
tp252
a(S'100000736427590'
S'Moksh Amorph Sharma'
tp253
a(S'100004469583886'
S'Ritu Tamboli'
tp254
a(S'100001101793983'
S'Akshat Singh'
tp255
a(S'1487880878'
S'Tanvi Agarwal'
tp256
a(S'764954055'
S'Samir Bharadwaj'
tp257
a(S'100003516251202'
S'Avani Rox'
tp258
a(S'100004606150922'
S'Versha Guleria'
tp259
a(S'100000601523231'
S'Akshey Verma'
tp260
a(S'1221156455'
S'Varun Anand'
tp261
a(S'511624386'
S'Vyom Sati'
tp262
a(S'100002813017064'
S'Nikita Sharma'
tp263
a(S'1649802867'
S'Vyomika Teckchandani'
tp264
a(S'100004272551279'
S'Arjun Sharma'
tp265
a(S'100001589592090'
S'Kartik Arora'
tp266
a(S'1429622370'
S'Advait Jayant'
tp267
a(S'1355428202'
S'Sanchala Tripathi'
tp268
a(S'807332645'
S'Rahul Yadav'
tp269
a(S'100001392020828'
S'Sarika Chaudhry'
tp270
a(S'1428100130'
S'Sayesha Gupta'
tp271
a(S'100004470240605'
S'Ayaat Kapoor'
tp272
a(S'703921629'
S'Shubham Mathur'
tp273
a(S'100000672636738'
S'Kriti Jindal'
tp274
a(S'1451798324'
S'Mudit Mehrishi'
tp275
a(S'620877081'
S'Ramita Menon'
tp276
a(S'1461072935'
S'Akshansh Animesh'
tp277
a(S'100001268190615'
S'Karan Narula'
tp278
a(S'100000023625806'
S'Divyanshu Yadav'
tp279
a(S'100000020053591'
S'Prachi Sachdev'
tp280
a(S'1322615082'
S'Kunnal Kapur'
tp281
a(S'1819821354'
S'Kshitiz Mor'
tp282
a(S'1720980350'
S'Manish Sharma'
tp283
a(S'100000038992908'
S'Anushka Joshi'
tp284
a(S'100002685584652'
S'Pankaj Dahiya'
tp285
a(S'1168004229'
S'Manya Choudhary'
tp286
a(S'1160587318'
S'Vidisha Arora'
tp287
a(S'1445214126'
S'Rashmi Khanna'
tp288
a(S'1249982927'
S'Saikruth Rao'
tp289
a(S'738201763'
S'Rohan Bhutani'
tp290
a(S'100001441448855'
S'Saurav Sharma'
tp291
a(S'100001874356865'
S'Bhuvnesh Kumar'
tp292
a(S'100001020470163'
S'Kamna Sarin'
tp293
a(S'100000963394457'
S'Tushar Kalra'
tp294
a(S'1010710208'
S'Ashutosh Gautam'
tp295
a(S'100002958027353'
S'Ayush Shukla'
tp296
a(S'1259733219'
S'Asim Athar'
tp297
a(S'100002718541651'
S'Shivam Rana'
tp298
a(S'523339881'
S'Prachi Chaudhary'
tp299
a(S'1772169097'
S'Rishi Singh Chauhan'
tp300
a(S'1116845199'
S'Sanchet Pardal Kumar'
tp301
a(S'100000547643236'
S'Inder Yadav'
tp302
a(S'1422903862'
S'Kavya Kalra'
tp303
a(S'1348966643'
S'Saloni Sharma'
tp304
a(S'1797897715'
S'Yuvraj Francis'
tp305
a(S'1145592636'
S'Pranav Masa'
tp306
a(S'873745267'
S'Sanchit Aggarwal'
tp307
a(S'100001695903374'
S'Dishant Arora'
tp308
a(S'100000635221644'
S'Nalin Prasoon'
tp309
a(S'1245439581'
S'Abhimanyu Katoch'
tp310
a(S'1675713892'
S'Aarushi Chawla'
tp311
a(S'100004090370054'
S'Varun Bhatia'
tp312
a(S'1249520381'
S'Senaara Ailawadi'
tp313
a(S'100000931512595'
S'Rishabh Jain'
tp314
a(S'100001209377310'
S'Vishesh Malik'
tp315
a(S'1189089775'
S'Sneha Ramesh'
tp316
a(S'100000975996484'
S'Arnav Ailawadi'
tp317
a(S'1734579726'
S'Deepanshu Juneja'
tp318
a(S'100000320564138'
S'Divyaanshu Jain'
tp319
a(S'100000502428455'
S'Dushyant Mahajan'
tp320
a(S'100000673055060'
S'Mridul Arora'
tp321
a(S'1317540345'
S'Harshit Saxena'
tp322
a(S'100001527584794'
S'Urvashi Kamboj'
tp323
a(S'1186098585'
S'Ashray Bhasin'
tp324
a(S'1409490363'
S'Satyaj Srivastav'
tp325
a(S'100000134140250'
S'Shweta Pandey'
tp326
a(S'1105520318'
S'Shruti Sinha'
tp327
a(S'100003790655541'
S'Prakriti Kohli'
tp328
a(S'612785549'
S'Kirthana Singh'
tp329
a(S'100000281381639'
S'Megda Bharadwaj'
tp330
a(S'1549608467'
S'Raghav Taneja'
tp331
a(S'100003329606376'
S'Aakriti Bhardwaj'
tp332
a(S'100001076678079'
S'Paresh Sharma'
tp333
a(S'100002887649262'
S'Ashita Sharma'
tp334
a(S'1041773670'
S'Sohrab Gill'
tp335
a(S'100001454177061'
S'Abigail Gannon'
tp336
a(S'1818740019'
S'Arpit Gupta'
tp337
a(S'1411608839'
S'Aishwarya Rao'
tp338
a(S'1208829841'
S'Shashank Shekhar'
tp339
a(S'1406029000'
S'Hemant Gulia'
tp340
a(S'1352345692'
S'Gazal Juneja'
tp341
a(S'1031662520'
S'ROhan Sharma'
tp342
a(S'1044401408'
S'Mihir Nagpal'
tp343
a(S'100002877860688'
S'Anshika Sharma'
tp344
a(S'691535659'
S'Jai Sharma'
tp345
a(S'100000052041936'
S'Rakhi Chopra'
tp346
a(S'1058206833'
S'Avnish Rana'
tp347
a(S'1683465051'
S'Vidit Soni'
tp348
a(S'1287267489'
S'Tanveer Singh Padam'
tp349
a(S'533163953'
S'Aditya Jha'
tp350
a(S'100000193420968'
S'Hashmitha Ananth'
tp351
a(S'1105069442'
S'Sayan Sidha Das'
tp352
a(S'100000738602906'
S'Rakshak Jain'
tp353
a(S'100001746862884'
S'Anushka Srivastava'
tp354
a(S'1706995895'
S'Toshali Sharma'
tp355
a(S'1719476289'
S'Kevin Banker'
tp356
a(S'100000514309835'
S'Stuti Gupta'
tp357
a(S'1018636600'
S'Pranay Billie Sharma'
tp358
a(S'100000044575279'
S'Amol Agarwal'
tp359
a(S'100000074817754'
S'Chhavi Joshi'
tp360
a(S'100000918189162'
S'Anmol Arora'
tp361
a(S'1058977092'
S'Saurabh Kashyap'
tp362
a(S'1051006929'
S'Mudita Yadav'
tp363
a(S'100003144716497'
S'Pragya Jain'
tp364
a(S'525030614'
S'Aayush Khare'
tp365
a(S'100002033116661'
S'Videesha Awasty'
tp366
a(S'610626907'
S'Soven Trehan'
tp367
a(S'100001506400506'
S'Rajat Arya'
tp368
a(S'100000969132944'
S'Swati Yadav'
tp369
a(S'1062845375'
S'Angad Singh'
tp370
a(S'100000580788985'
S'Sakshi Arora'
tp371
a(S'100000550191493'
S'Shifa Iqbal'
tp372
a(S'100001414750400'
S'Muskaan Jain'
tp373
a(S'1353910365'
S'Rohan Taneja'
tp374
a(S'100001065752720'
S'Shefali Lohia'
tp375
a(S'599945391'
S'Vaibhav Kashyap'
tp376
a(S'1645640382'
S'Arjoonn Sharma'
tp377
a(S'814265556'
S'Surbhi Kapur Talwar'
tp378
a(S'100001281583645'
S'Pallavi Gautam Surana'
tp379
a(S'730304025'
S'Kopal Gautam Jaitly'
tp380
a(S'1618599662'
S'Arun Tayal'
tp381
a(S'100000141653106'
S'Punika Mangla'
tp382
a(S'100000508534527'
S'Priyanka Rohatgi'
tp383
a(S'100000285990197'
S'Rohit Chhoker'
tp384
a(S'644706421'
S'Somyata Sharma'
tp385
a(S'100001874491362'
S'Rohit Berwal'
tp386
a(S'100004177990656'
S'Aditi Bansal'
tp387
a(S'1589061647'
S'Rohan Singh'
tp388
a(S'563504491'
S'Harsh Malhotra'
tp389
a(S'100001876207026'
S'Nikita Malhotra'
tp390
a(S'100001024496634'
S'Mrinal Wadhwa'
tp391
a(S'503970477'
S'Bosky S Bhatia'
tp392
a(S'1346334638'
S'Ankit Aggarwal'
tp393
a(S'100001957077069'
S'Rittik Sharma'
tp394
a(S'582222072'
S'Sargam Verma Gautam'
tp395
a(S'100007808642940'
S'Sakshi Sharma'
tp396
a(S'1703218374'
S'Shreya Sinha'
tp397
a(S'1240939751'
S'Akhil Tolani'
tp398
a(S'1606590541'
S'Siddhant Gaucho Gupta'
tp399
a(S'100000581607295'
S'Mahi Rana'
tp400
a(S'1210429948'
S'Ritvik Lamba'
tp401
a(S'1431082255'
S'Jessica Walia'
tp402
a(S'100000087014507'
S'Nitin Hooda'
tp403
a(S'100004179463642'
S'Rhea Tyagi'
tp404
a(S'100001082394595'
S'Monisha Dang'
tp405
a(S'100001236991080'
S'Preeti Yadav'
tp406
a(S'100001213746548'
S'Subhash Agarwal'
tp407
a(S'100003012906459'
S'Aisha Kapoor'
tp408
a(S'100000804576560'
S'Pankaj Sahab'
tp409
a(S'1150735383'
S'Varsha Dahiya'
tp410
a(S'100001901538255'
S'Mahika Yadav'
tp411
a(S'100001119671163'
S'Hitashi Mehta'
tp412
a(S'100001051305246'
S'Yudi Rawat'
tp413
a(S'100001666933379'
S'Yogesh Gupta'
tp414
a(S'1254197513'
S'Ashish Gupta'
tp415
a(S'100000831902593'
S'Saloni Pashy Arora'
tp416
a(S'1460245783'
S'Jatin MahaJan'
tp417
a(S'100002344896791'
S'Keerthana Lochana'
tp418
a(S'524716453'
S'Palash Surana'
tp419
a(S'100003075438362'
S'Ayanshu Kashyap'
tp420
a(S'100000013333888'
S'Abhishek Sharma'
tp421
a(S'100000673631336'
S'Vivek Kumar'
tp422
a(S'1287304326'
S'Meenal Pahuja'
tp423
a(S'1037542495'
S'Anvii Gupta'
tp424
a(S'100001046045384'
S'Deepali Goyal'
tp425
a(S'100003479673249'
S'Richa Kashyap'
tp426
a(S'603515763'
S'Shraddha Sinha'
tp427
a(S'628256934'
S'Dhruv Sahani'
tp428
a(S'100003968198674'
S'Sneha Sharma'
tp429
a(S'100000387305465'
S'ManDy Lohia'
tp430
a(S'100002250882745'
S'Gaurav Yadav'
tp431
a(S'100003347250710'
S'Aanisa Rauf'
tp432
a(S'1468207983'
S'Vidhi Arora'
tp433
a(S'1203962138'
S'Vanya Pasricha'
tp434
a(S'1644260123'
S'Arunika Sangwan'
tp435
a(S'1055642143'
S'Kaustav Gupta'
tp436
a(S'100000188640364'
S'Maansi Sharma'
tp437
a(S'100007869093446'
S'Ankita Rani'
tp438
a(S'100001418113796'
S'Jyoti Mendiratta'
tp439
a(S'100002287610182'
S'Shubhra Sharma'
tp440
a(S'100003112378247'
S'Ajit Gujjar'
tp441
a(S'1575186048'
S'Pragya Gupta'
tp442
a(S'615420901'
S'Deepanshu Singhal'
tp443
a(S'1441891395'
S'Kritika Yadav'
tp444
a(S'1518398797'
S'Shubham Sharma'
tp445
a(S'1448798355'
S'Eshaan Sud'
tp446
a(S'506893423'
S'Kanika Sharma Aggarwal'
tp447
a(S'655834845'
S'Adit Sachdeva'
tp448
a(S'1461458624'
S'Shiven Luthra'
tp449
a(S'1224973240'
S'Sanjana Bharadwaj'
tp450
a(S'100000434512691'
S'Narender Singh'
tp451
a(S'100000444010640'
S'DeEp Dey'
tp452
a(S'1139152732'
S'Vasudha Singh'
tp453
a(S'1235388146'
S'Narun Kakkar'
tp454
a(S'1182579760'
S'Adira Andlay'
tp455
a(S'1029171052'
S'Karan Jhunja'
tp456
a(S'1117944738'
S'Sidharth Arora'
tp457
a(S'1238368418'
S'Mehnaz Khan'
tp458
a(S'100000189084963'
S'Simran Nayyar'
tp459
a(S'1827189679'
S'Shaurya Saxena'
tp460
a(S'1315059913'
S'Keshav Garg'
tp461
a(S'1360318172'
S'Karan Singh'
tp462
a(S'100002006861228'
S'Abhishek Negi'
tp463
a(S'1407372088'
S'Shounak Joshi'
tp464
a(S'100001062224912'
S'Aakash Choudhary'
tp465
a(S'1354864021'
S'Aishwarya Sivaramakrishnan'
tp466
a(S'1497722730'
S'Sanya Malik'
tp467
a(S'100001554823849'
S'Shivi Sachdeva'
tp468
a(S'100000887960652'
S'Yashika Nijhawan'
tp469
a(S'100000015772088'
S'Sana Khan'
tp470
a(S'1787041425'
S'Simran Madan'
tp471
a(S'1365931656'
S'Kshitij Kasturia'
tp472
a(S'100000009664376'
S'Shantanu Lakhotia'
tp473
a(S'1847733956'
S'Harsheen Khandpur'
tp474
a(S'1381237127'
S'Ravisha Rathore'
tp475
a(S'1808469064'
S'Prabhat Garg'
tp476
a(S'100003139388407'
S'Juhi Sahani'
tp477
a(S'1292210955'
S'Amrit Kaint'
tp478
a(S'1587906678'
S'Yogini Oberoi'
tp479
a(S'1348601630'
S'Umesh Malik'
tp480
a(S'1325241568'
S'Aishwarya Joshi'
tp481
a(S'100000345411915'
S'Arjit Sharma'
tp482
a(S'100002056969983'
S'Shaurya Saxena'
tp483
a(S'100000750577494'
S'Moti Mehra'
tp484
a(S'100000337722211'
S'Mani Bhargava'
tp485
a(S'1805603870'
S'Tanmay Sharma'
tp486
a(S'1607685727'
S'Nipun Mittal'
tp487
a(S'100001063003735'
S'Anuj Gupta'
tp488
a(S'781968208'
S'Garima Singh'
tp489
a(S'100001257517098'
S'Angad Walia'
tp490
a(S'799788850'
S'Rishab Mittal'
tp491
a(S'100000016089874'
S'Anmol Bhargava'
tp492
a(S'1316054490'
S'Sparsh Gupta'
tp493
a(S'100000069663640'
S'Hargun Kohli'
tp494
a(S'100004469523642'
S'Nitiksha Sharma'
tp495
a(S'1491125726'
S'Gagan Sehgal'
tp496
a(S'555694883'
S'Rishaal Rajan'
tp497
a(S'1794889205'
S'Apoorva Gupta'
tp498
a(S'718653196'
S'Samakshi Sidhu'
tp499
a(S'100005044304568'
S'Meenal Sharma'
tp500
a(S'1054933061'
S'Melissa Armstrong'
tp501
a(S'1466298325'
S'Palak Katyal'
tp502
a(S'100001559634080'
S'Aakash Mehra'
tp503
a(S'100003975452200'
S'Poonam Soni'
tp504
a(S'100000505819309'
S'Prerna Manchanda'
tp505
a(S'100001984681692'
S'Kush Rawat'
tp506
a(S'100003781979232'
S'Gayatri Yadav'
tp507
a(S'100000684225807'
S'Ekta Gautam'
tp508
a(S'100001269394699'
S'Mayank Gaur'
tp509
a(S'545475570'
S'Bharat Verma'
tp510
a(S'1485117921'
S'Daksh Sharma'
tp511
a(S'100001560844329'
S'Disha Dahiya'
tp512
a(S'1621759556'
S'Ishan Piplani'
tp513
a(S'100000024900934'
S'Sushant Gupta'
tp514
a(S'1050281960'
S'Tanveer Oberoi'
tp515
a(S'100000023197777'
S'Shantam Sharma'
tp516
a(S'100001623002146'
S'Horesh Sharma'
tp517
a(S'1558264578'
S'Vaibhav Veer Shanker'
tp518
a(S'1586652309'
S'Harshita Taneja'
tp519
a(S'1539863230'
S'Khehkash Anand'
tp520
a(S'100000455541398'
S'Vikrant Raghav'
tp521
a(S'100001559663927'
S'Divya Singh'
tp522
a(S'100000878001428'
S'Aditya Jain'
tp523
a(S'690726468'
S'Kshipra V Kaushik'
tp524
a(S'100001517422659'
S'Mamta Dhingra'
tp525
a(S'100002150031293'
S'Palak Bhatia'
tp526
a(S'1100167826'
S'Rahul Bhola'
tp527
a(S'1791618247'
S'Mehul Parashar'
tp528
a(S'100000813840298'
S'Manvi Chadha'
tp529
a(S'100000517861052'
S'Swati Chauhan'
tp530
a(S'100000152396490'
S'Pranshu Singh Yadav'
tp531
a(S'1726151797'
S'Tanuj Sharma'
tp532
a(S'1272016175'
S'Raghvendra Singh'
tp533
a(S'727031874'
S'Vinita Sharma Keshkamat'
tp534
a(S'1748598220'
S'Archit Rathi'
tp535
a(S'100000708925409'
S'Aishwarya Nair'
tp536
a(S'100002335601272'
S'Gaurav Yadav'
tp537
a(S'100003155293135'
S'Pashy Kaur'
tp538
a(S'1555961681'
S'Anirudh Kulkarni'
tp539
a(S'100002144569770'
S'Shreya Sahoo'
tp540
a(S'100003947259553'
S'Yashvi Dhal'
tp541
a(S'1790585566'
S'Y\\u00e3sh Fr\\u00ed\\u00f1g\\u00f8'
tp542
a(S'1610304891'
S'Pooja Luthra'
tp543
a(S'100001562877610'
S'Shayon Chakravarthi'
tp544
a(S'100001022465422'
S'Divyakshi Satija'
tp545
a(S'100001503260763'
S'Dhruv Rawat'
tp546
a(S'100003767678324'
S'Kshipra Sharma'
tp547
a(S'100000294635593'
S'Lakshay Sharma'
tp548
a(S'1462071401'
S'Param Dhingra'
tp549
a(S'100002943574071'
S'Uday Mukhija'
tp550
a(S'752989604'
S'Pranshu Rathee'
tp551
a(S'100002808098544'
S'Tanya Aggarwal'
tp552
a(S'100001970621235'
S'Samridhi Vashisht'
tp553
a(S'1414004437'
S'Omung Lalchandani'
tp554
a(S'1279351031'
S'Dhruv Panwar'
tp555
a(S'100002404480344'
S'Tunsaed Aey Zey'
tp556
a(S'1580207911'
S'Lakshya Gupta'
tp557
a(S'564473338'
S'Poorva Nangia'
tp558
a(S'100002569009024'
S'Bharti Angel'
tp559
a(S'1505384693'
S'Arunima Bhattacharya'
tp560
a(S'1789426257'
S'Ashim Sharma'
tp561
a(S'682121092'
S'Aditi Gaur'
tp562
a(S'1629554966'
S'Mohit Maruwada'
tp563
a(S'833732763'
S'Abhinav Handa'
tp564
a(S'100007417777339'
S'Karan Punia'
tp565
a(S'1458318513'
S'Saman Jain'
tp566
a(S'533148969'
S'Rohit Yadav'
tp567
a(S'1161434719'
S'Sarthak Kataria'
tp568
a(S'100000301257717'
S'Ishu Lamba'
tp569
a(S'100002342304757'
S'Paras Sharma'
tp570
a(S'1407716922'
S'Arko Dey'
tp571
a(S'100001242687508'
S'Bhavna Yadav'
tp572
a(S'1573689227'
S'Meghal Karki'
tp573
a(S'100000537613194'
S'Medhavi Sharma'
tp574
a(S'1219133639'
S'Nimish Abrol'
tp575
a(S'1341129284'
S'Abhishek Yadav'
tp576
a(S'100001073985938'
S'Mallika Kumar'
tp577
a(S'1392953589'
S'Shivangee Sharma'
tp578
a(S'1538331406'
S'Varun Singh Ahluwalia'
tp579
a(S'1319149213'
S'Akanksha Singh'
tp580
a(S'100000717589732'
S'Hemant Bhardwaj'
tp581
a(S'100000712747501'
S'Chullu Singh'
tp582
a(S'1510436193'
S'Salil Kathuria'
tp583
a(S'1264051105'
S'Shivya Sachdeva'
tp584
a(S'100001087022409'
S'Shilpa Saini'
tp585
a(S'1054330794'
S'Siddharth Taneja'
tp586
a(S'550771106'
S'Shubhankar Mathur'
tp587
a(S'100001052114099'
S'Pawan Rao'
tp588
a(S'1824967142'
S'Maloshree Sanyal'
tp589
a(S'100001256756206'
S'Sonal Sharma'
tp590
a(S'617783367'
S'Pushi Singh Mudarh'
tp591
a(S'598456618'
S'Tanvi Bangia'
tp592
a(S'1819721756'
S'Shreeya Malvee'
tp593
a(S'100001415180358'
S'Rebecca Trautner'
tp594
a(S'100002450968983'
S'Nidhi Chaudhary'
tp595
a(S'100001465489881'
S'Mohit Nagpal'
tp596
a(S'100001479004161'
S'Udit Handa'
tp597
a(S'100000425089640'
S'Poonam Das'
tp598
a(S'1361764306'
S'Ankita Nangia'
tp599
a(S'1640070324'
S'Yuvraj Singh Makkar'
tp600
a(S'1593215535'
S'Tushar Rana'
tp601
a(S'1490962763'
S'Bhavi Chawla'
tp602
a(S'100002065340399'
S'Hemant Vats'
tp603
a(S'100000318612148'
S'Ketan Malik'
tp604
a(S'100000051374194'
S'KAshish Slovia'
tp605
a(S'100001026668438'
S'Oxsanna Hellanna Jazzy Zelem'
tp606
a(S'696911388'
S'Divya Gautam Khurana'
tp607
a(S'905250112'
S'Chiti Chopra'
tp608
a(S'1244642307'
S'Nivedita Krishnan'
tp609
a(S'100001693482132'
S'Vikram Singh Yadav'
tp610
a(S'1787722349'
S'Anjali Khanna'
tp611
a(S'1087120385'
S'Rohan Sadana'
tp612
a(S'100000883276715'
S'Avni Gupta'
tp613
a(S'100000500421057'
S'Himanshu Sharma'
tp614
a(S'1059407092'
S'Bharat Katyayan'
tp615
a(S'100000023787606'
S'Sonal Sahni'
tp616
a(S'100000808993700'
S'Nakul Lohia'
tp617
a(S'100000245921478'
S'Betsy Shaji'
tp618
a(S'100004681568704'
S'Vivek Sharma'
tp619
a(S'100000641046815'
S'Rajat Arya'
tp620
a(S'100000668912934'
S'Seev Vee'
tp621
a(S'100003995715462'
S'Jyoti Lohia'
tp622
a(S'1700091899'
S'Harit Pathak'
tp623
a(S'100003764723075'
S'Esha Sarkar'
tp624
a(S'100000477604349'
S'Divij Papneja'
tp625
a(S'518471606'
S'Arushi Sachdeva'
tp626
a(S'1123062946'
S'Tarini Verma'
tp627
a(S'1464961297'
S'Chiraag Khurana'
tp628
a(S'100000322207536'
S'Shikhar Golash'
tp629
a(S'559488614'
S'Anshika Verma'
tp630
a(S'1504064409'
S'Siddarth Broly Mehra'
tp631
a(S'100003745491313'
S'Swathi Swargam'
tp632
a(S'100000534199999'
S'Tanveer Opal'
tp633
a(S'1302817702'
S'Vivek Dhar'
tp634
a(S'100000471553270'
S'Pankaj Swami'
tp635
a(S'100000479974472'
S'Harshit Jacob Marley'
tp636
a(S'779432234'
S'Sagnik Ghosh'
tp637
a(S'639683015'
S'Shivam Jha'
tp638
a(S'1844349849'
S'Shreya Thukral'
tp639
a(S'100002531452170'
S'Divya Tara'
tp640
a(S'1126068052'
S'Vardaan Gupta'
tp641
a(S'1255034191'
S'Rishika Gupta'
tp642
a(S'100000838853504'
S'Kuldeep Tamboli'
tp643
a(S'100000065124182'
S'Sagar Prajapat'
tp644
a(S'100001689957497'
S'Karan Deep'
tp645
a(S'100004145166803'
S'Kartika Badola'
tp646
a(S'563131366'
S'Astha Shukla'
tp647
a(S'100001274834534'
S'Yogesh Kumar Sharma'
tp648
a(S'100000476190693'
S'Hardik Bajaj'
tp649
a(S'1373889308'
S'Ashish Verma'
tp650
a(S'100000568528437'
S'Yashika Nijhawan'
tp651
a(S'100001377054403'
S'Shubham Pandit'
tp652
a(S'100004891662610'
S'Kiara Kapoor'
tp653
a(S'1832732009'
S'Taanya Chhabra'
tp654
a(S'100001995132080'
S'Gauri Venugopal'
tp655
a(S'100000530439205'
S'Srishti Bajaj'
tp656
a(S'100003708815841'
S'Ankita Mehra'
tp657
a(S'584147397'
S'Troy Valentine Hodges'
tp658
a(S'100000666930620'
S'Kaamran Sheikh'
tp659
a(S'100000651215498'
S'Anurag Sharma'
tp660
a(S'100000969251636'
S'Chavi Khosla'
tp661
a(S'100001807432068'
S'Shreya Ak'
tp662
a(S'100006549070799'
S'Himani Sharma'
tp663
a(S'100000305100990'
S'Anshul Tyagi'
tp664
a(S'1215731501'
S'Ishan Agarwal'
tp665
a(S'1653474942'
S'Disha Dahiya'
tp666
a(S'1042945244'
S'Akshay Verma'
tp667
a(S'100002293831372'
S'Devika V Menon'
tp668
a(S'1209121484'
S'Aditya Gupta'
tp669
a(S'1732046824'
S'Rahul Kumar'
tp670
a(S'100002723240155'
S'Neha Bhandari'
tp671
a(S'1575387342'
S'Ayush Magow'
tp672
a(S'1169586997'
S'Arjun Khokhar'
tp673
a(S'1025143763'
S'Abhinav Yadav'
tp674
a(S'827906379'
S'Soumya Thakur'
tp675
a(S'100004660238628'
S'Abhishek Srivastava'
tp676
a(S'100002547296782'
S'Shanaya Scott'
tp677
a(S'100000579845395'
S'Rishika Kumar'
tp678
a(S'724859011'
S'Alisha Vij'
tp679
a(S'100000981898948'
S'Sanjeev Singh'
tp680
a(S'100001939405896'
S'Sonia Ganga'
tp681
a(S'1492163014'
S'KiRti ShaRma'
tp682
a(S'100000597004920'
S'Satyaj Srivastav'
tp683
a(S'1014056161'
S'Vijayant Sahu'
tp684
a(S'100001686462198'
S'Saarthak Ghosh'
tp685
a(S'100001085303337'
S'Arham Tauhid'
tp686
a(S'100000252716318'
S'Raveena Nanda'
tp687
a(S'1088523598'
S'Avirudh Dahiya'
tp688
a(S'1348333804'
S'Satvik Kumar'
tp689
a(S'581616430'
S'Ainesh Ahluwalia'
tp690
a(S'1352906991'
S'Aakriti Nanda'
tp691
a(S'100000732754288'
S'Veer Roks'
tp692
a(S'100002429666075'
S'Puneet Aggarwal'
tp693
a(S'100002137620511'
S'Muskaan Sahoo'
tp694
a(S'100001091510587'
S'Harshita Reddy'
tp695
a(S'1293715510'
S'Rishabh Sharma'
tp696
a(S'100002639336640'
S'Deepak Dadsi'
tp697
a(S'100001059493651'
S'Shuvoneel Chakraborty'
tp698
a(S'100002334123579'
S'Anita Sharma'
tp699
a(S'723780501'
S'Chitrali Khanna'
tp700
a(S'1771119816'
S'Yayati Dinesh'
tp701
a(S'100003536046976'
S'Manu Singh'
tp702
a(S'100003919874073'
S'Gajal Yadav'
tp703
a(S'100005361548819'
S'Newdps Confess'
tp704
a(S'1784170138'
S'Nitish Sharma'
tp705
a(S'100002700668375'
S'Aashian Ahluwalia'
tp706
a(S'100002591439696'
S'Shubhi Bansal'
tp707
a(S'100000283158595'
S'Suryaa Bhatia'
tp708
a(S'1256394315'
S'Chetanya Kandhari'
tp709
a(S'1150747394'
S'Nupur More'
tp710
a(S'1195032031'
S'Devanshu Gupta'
tp711
a(S'1511150949'
S'Krishna Vinod'
tp712
a(S'100001232813501'
S'Hemant Singh Yadav'
tp713
a(S'1364836229'
S'Shivya Gupta'
tp714
a(S'100002668604588'
S'Rakesh Sharma'
tp715
a(S'1512976866'
S'Sammarth Sharma'
tp716
a(S'100003794345927'
S'Kavya Makkar'
tp717
a(S'1232520595'
S'Nikita Sondhi'
tp718
a(S'1818726078'
S'Mehak Bajaj'
tp719
a(S'100001429536870'
S'Vinayak Sharma'
tp720
a(S'561640932'
S'Bhuvan Mishra'
tp721
a(S'1839997544'
S'Gurmail Mor'
tp722
a(S'1622545914'
S'Neeraj M Srivastava'
tp723
a(S'1278307499'
S'Kanishk Sharma'
tp724
a(S'547353329'
S'Aishwarya Chaudhry'
tp725
a(S'1187284795'
S'Ashwarya Surya'
tp726
a(S'100000027585222'
S'Malaika Nangia'
tp727
a(S'656475621'
S'Smrithi Senthilkumar'
tp728
a(S'100000580328898'
S'Jeevesh Singhroa'
tp729
a(S'100003027922001'
S'Anushree Singh'
tp730
a(S'1323450236'
S'\\u0905\\u092d\\u093f\\u0937\\u0947\\u0915 \\u092e\\u0932\\u093f\\u0915'
tp731
a(S'1050017549'
S'Adesh Pugalia'
tp732
a(S'100002225343899'
S'Himani Ahlawat'
tp733
a(S'1520777868'
S'Sk Rajawat'
tp734
a(S'1267864648'
S'Krishna N Patel'
tp735
a(S'1540087596'
S'Nikita Mehta'
tp736
a(S'100001643890678'
S'Oshin Dewan'
tp737
a(S'100000137170324'
S'Mitul Aggarwal'
tp738
a(S'571315766'
S'Anisha Raina'
tp739
a(S'100000699995667'
S'Kajal Rathod'
tp740
a(S'1016831065'
S'Manat Mantoo'
tp741
a(S'1058724125'
S'Chirantan Ghanekar'
tp742
a(S'1041676980'
S'Mehak Arora'
tp743
a(S'100000714735221'
S'Surbhi Shah'
tp744
a(S'100001569426513'
S'Sudhanshu Chakravarty'
tp745
a(S'1540747174'
S'Nitanshi Jain'
tp746
a(S'100000850108404'
S'Tushar Aggarwal'
tp747
a(S'780973987'
S'Madhuvanthi Senthilkumar'
tp748
a(S'100000841685641'
S'Sanjana Dutt'
tp749
a(S'1843871771'
S'Aditya Star-x Bhannot'
tp750
a(S'100001107007174'
S'Ayushmann Dahiya'
tp751
a(S'100001106450210'
S'Saksham Dagar'
tp752
a(S'100001328809984'
S'Vishal Singh'
tp753
a(S'100006256238169'
S'Sarthak Haandizz Bansal'
tp754
a(S'100001647698112'
S'Vinit Rathi'
tp755
a(S'100001384433084'
S'Mukesh Sharma'
tp756
a(S'100000567742813'
S'Arpit Sahu'
tp757
a(S'100000418519405'
S'Piyush Reddu'
tp758
a(S'100000317640535'
S'Aditya Jha'
tp759
a(S'100000951946470'
S'Lakshay Chaudhary'
tp760
a(S'587249235'
S'Pankhuri Srivastava'
tp761
a(S'100000216285462'
S'Ishaan Deep Awasty'
tp762
a(S'100002654923708'
S'Shivangi Singh'
tp763
a(S'506874833'
S'Dhruv Singh'
tp764
a(S'511127971'
S'Siddharth Vohra'
tp765
a(S'100000403515826'
S'Harshit Puri'
tp766
a(S'1623751104'
S'Prachi Krazygal'
tp767
a(S'100000901850022'
S'Rtik Sharma'
tp768
a(S'100000004504204'
S'Simran Rattan'
tp769
a(S'100002664459565'
S'Priyanka Yadav'
tp770
a(S'100003859736487'
S'Pallavi Mishra'
tp771
a(S'1451472806'
S'Agrim Singhal'
tp772
a(S'100001218751144'
S'Konark Guglani'
tp773
a(S'703357812'
S'Ritu Sharma'
tp774
a(S'532742043'
S'Anumita Bhattacharyya'
tp775
a(S'1389348019'
S'Pallavi Kumar'
tp776
a(S'100001507561939'
S'Abhishek Angral'
tp777
a(S'100000085579202'
S'Hukamsha Rathore'
tp778
a(S'100001317293996'
S'Sakshi Dagar'
tp779
a(S'528022614'
S'Siddharth Marya'
tp780
a(S'1299395924'
S'Neeraja Raju'
tp781
a(S'1296946220'
S'Aksh Nijhara'
tp782
a(S'1650798145'
S'Abhijeet Singh'
tp783
a(S'1307451698'
S'Abhilasha Guha'
tp784
a(S'1162681990'
S'Bhavya Bhatia'
tp785
a(S'1228051576'
S'Tushita Dogra'
tp786
a(S'703397906'
S'Ritika Mallick Choudhury'
tp787
a(S'100001473949212'
S'Muskan Kaur'
tp788
a(S'100005701422627'
S'Shreya Malhotra'
tp789
a(S'100006225846853'
S'Taru Tekriwal'
tp790
a(S'100002008016662'
S'Advait Jayant'
tp791
a(S'1843672897'
S'Bharat Yadav'
tp792
a(S'100003313054395'
S'Ambili Jasmine'
tp793
a(S'1346418415'
S'Arnav Jain'
tp794
a(S'100000037762696'
S'Divij D Jay'
tp795
asS'id'
p796
S'714510612'
p797
sS'name'
p798
S'Siddhant Sharma'
p799
s.