(dp1
S'friends'
p2
(lp3
(S'804295385'
S'Arati Mavinkurve'
tp4
a(S'100003121038755'
S'Ashish Parulekar'
tp5
a(S'1045556258'
S'Neeraj Sehgal'
tp6
a(S'568507995'
S'Khaladkar Minal'
tp7
a(S'100005798942714'
S'Arjun Kumar'
tp8
a(S'731007059'
S'Shantanu Kotkar'
tp9
a(S'692351694'
S'Jitu Raj'
tp10
a(S'100002074596775'
S'Kavita Jaisinghani'
tp11
a(S'1167910718'
S'Vasudha Saldanha'
tp12
a(S'100002571735930'
S'Amar Bhandari'
tp13
a(S'100006505756645'
S'Raju Pulinthanam'
tp14
a(S'1658314074'
S'Uday Bhobe'
tp15
a(S'100000088347389'
S'Nivedita Saboo'
tp16
a(S'1025500006'
S'Rajan S Macharekar'
tp17
a(S'100003832038355'
S'Biju Varghese'
tp18
a(S'100002372828376'
S'B.s. Nirankari'
tp19
a(S'100000728817724'
S'Shilpa Bhosekar'
tp20
a(S'634971585'
S'Aditi Mane'
tp21
a(S'100004066411084'
S'Divided Game Show'
tp22
a(S'553249391'
S'Prasanna Sudarsanram'
tp23
a(S'100001771479042'
S'Girish Sambyal'
tp24
a(S'509351558'
S'Chelsea Elizabeth'
tp25
a(S'1822746176'
S'Archana Mahesh Sawant'
tp26
a(S'100002162476716'
S'Kuldeep Sahu'
tp27
a(S'1811242937'
S'Sunil Gohil'
tp28
a(S'100000917897829'
S'Ravi Bhosale'
tp29
a(S'100000714222712'
S'Pradeep Malik'
tp30
a(S'587165208'
S'Gaffar Khan'
tp31
a(S'100001069118576'
S'Rahul Umape'
tp32
a(S'100002234528751'
S'Ram Iyer'
tp33
a(S'100004290404376'
S'Ram Singh'
tp34
a(S'558701286'
S'Avinnash Gorakssakar'
tp35
a(S'100000006369229'
S'Suresh Pai'
tp36
a(S'100003960162980'
S'Jaipal Bansode'
tp37
a(S'728555322'
S'Ash Nihalani'
tp38
a(S'100006614107390'
S'Jas Jassi Oneness'
tp39
a(S'100001005038024'
S'Gauri Kulkarni'
tp40
a(S'100003220737743'
S'Sheela Yadav'
tp41
a(S'100002463896006'
S'\\u00c4rsh\\u00eet \\u00c4rsh'
tp42
a(S'572828470'
S'Prithviraj M. Vedpathak'
tp43
a(S'100002480148924'
S'Jiya Rai'
tp44
a(S'100004086413687'
S'Dileep Dil'
tp45
a(S'1214694994'
S'Sanjay Jain'
tp46
a(S'100001600923370'
S'Suraj Morale'
tp47
a(S'1144347526'
S'Suresh Prithyani'
tp48
a(S'100002562933656'
S'Jagruti Mali'
tp49
a(S'100000607001204'
S'Bharat Shah'
tp50
a(S'100002963935786'
S'Manmohan Thakur Mann'
tp51
a(S'100001655935287'
S'Pramjit Kaur'
tp52
a(S'100002899311035'
S'ChanderShekhar Taggar'
tp53
a(S'813603293'
S'Mahesh Deshmukh'
tp54
a(S'100000919093121'
S'Sangeeta Mohile-Kadambi'
tp55
a(S'579487049'
S'Ashraf Masri'
tp56
a(S'100000014391505'
S'Riddhi Bhatkal'
tp57
a(S'100000904167347'
S'Sagarraj Bodgire'
tp58
a(S'1401236771'
S'Ramesh Dharmadhikari'
tp59
a(S'657179351'
S'Ashutosh Deolekar'
tp60
a(S'509554940'
S'Honaji Sanas'
tp61
a(S'100007084831455'
S'Rishika Dhingra'
tp62
a(S'100000148995751'
S'Shanu Merchant'
tp63
a(S'547091442'
S'Pankaj Ssehgal'
tp64
a(S'100003014194419'
S'Tanmay Kadam'
tp65
a(S'100000706378034'
S'Neena Chaorashe'
tp66
a(S'1245099599'
S'Manik Kale'
tp67
a(S'100000221007254'
S'Achyut Ambegaonkar'
tp68
a(S'611584589'
S'Amit Chavan'
tp69
a(S'100004715253074'
S'Shraddha Sonawane'
tp70
a(S'1346344924'
S'Santosh Pai'
tp71
a(S'100000225728199'
S'Vishwajeet Yadav'
tp72
a(S'100001269941875'
S'Ravikant Mahimane'
tp73
a(S'100007737132561'
S'Sakshi Sharma'
tp74
a(S'768903163'
S'Joyce Talegavker Ashtamker'
tp75
a(S'762630117'
S'Sagar Kadam'
tp76
a(S'100002571349159'
S'Ankita Verma'
tp77
a(S'100001495499216'
S'Rahul Pradhan'
tp78
a(S'1245022618'
S'Vijay Kutty'
tp79
a(S'100003660066853'
S'Kuch Masti'
tp80
a(S'100007048298681'
S'Ajay Shinde'
tp81
a(S'100002347420851'
S'Thyagaraj N Shetty'
tp82
a(S'100005781032311'
S'Satish Mehra'
tp83
a(S'100003681282679'
S'Nitesh Mali'
tp84
a(S'100003605914419'
S'Sushil Wagh'
tp85
a(S'100005484158706'
S'Akshay Lekurwale'
tp86
a(S'100001568520189'
S'Aniruddha Junnarkar'
tp87
a(S'100002233398139'
S'Sant Nirankari Mission'
tp88
a(S'100003806401977'
S'Connerpawan Riya'
tp89
a(S'1300466423'
S'Satish Nathani'
tp90
a(S'1328377714'
S'Vikas Runwal'
tp91
a(S'1783993076'
S'Mahesh Bhat'
tp92
a(S'100001287100997'
S'Vikrant Vetal SP Mjp'
tp93
a(S'627802424'
S'Pooja Pimpodkar'
tp94
a(S'100002008182657'
S'Rajesh Dasam'
tp95
a(S'1378485094'
S'Manish S Kadam'
tp96
a(S'100005186730324'
S'Sharad Panage'
tp97
a(S'100002280712903'
S'Sonia Chal'
tp98
a(S'100001211558724'
S'Mohsin Attar'
tp99
a(S'1570934578'
S'Ajinkya Deo'
tp100
a(S'689211137'
S'Riyaz Neem'
tp101
a(S'100003246946509'
S'Ajith Pillai'
tp102
a(S'589565495'
S'Vinita Khanna'
tp103
a(S'100000153953374'
S'Shammi Kaur'
tp104
a(S'100006492156316'
S'Sujata Joshi'
tp105
a(S'677366693'
S'Sumedh Kogekar'
tp106
a(S'1768600114'
S'Bhanu Chhabra'
tp107
a(S'100004963444525'
S'Vijay Mane'
tp108
a(S'100002379069509'
S'Harish Karamchandani'
tp109
a(S'100004107701285'
S'Princess Priya'
tp110
a(S'750059429'
S'Ravi Bhosale'
tp111
a(S'1753215788'
S'Yogesh Patil'
tp112
a(S'1132505926'
S'Amol Patil'
tp113
a(S'100002619871905'
S'Vinayak Hiremath'
tp114
a(S'100002580328924'
S'Shyam Nirankari'
tp115
a(S'1162850284'
S'Anish Thomas'
tp116
a(S'100002261633249'
S'Dashrath Love'
tp117
a(S'100003526256433'
S'Jaina Agarwal'
tp118
a(S'1832325802'
S'Tasneem Gulshan'
tp119
a(S'100000177533971'
S'Surinder Nihal'
tp120
a(S'100008283901085'
S'Shiv Ratan Jasamera'
tp121
a(S'777664120'
S'Sunil Sanas'
tp122
a(S'100000850175179'
S'Ajay Ranbhise'
tp123
a(S'693434085'
S'Harsh Wagh'
tp124
a(S'100000037027198'
S'Rachna Sarah Thomas'
tp125
a(S'100007717503176'
S'Hari Rimal'
tp126
a(S'100002095354124'
S'Sachin Sachdeva'
tp127
a(S'100004396512354'
S'Abhishek Shinde'
tp128
a(S'100003728006880'
S'Sadguru Kripa'
tp129
a(S'593469207'
S'Sanjay Harkawat'
tp130
a(S'100001928771038'
S'Manisha Saini'
tp131
a(S'100003798376110'
S'Amit Oneness'
tp132
a(S'100004898619484'
S'Ruchi Singhania'
tp133
a(S'100000294464081'
S'Amit Wadhwa'
tp134
a(S'100000554973375'
S'Reshma Kadam'
tp135
a(S'100001861866712'
S'Ashish Gangwani'
tp136
a(S'1746620130'
S'Amol Bijwe'
tp137
a(S'1149741497'
S'Atul Shrotri'
tp138
a(S'100000098569908'
S'Ranjan Purohit'
tp139
a(S'100000893482924'
S'Prajakta Putage-hiregaud'
tp140
a(S'100002358606994'
S'Mukund More'
tp141
a(S'100003211134343'
S'Chintamani Sure'
tp142
a(S'1224147714'
S'Vijay Bendre'
tp143
a(S'591465486'
S'Mohamed Lokhandwala'
tp144
a(S'100000318722319'
S'Prashant Gupte'
tp145
a(S'100003284482405'
S'Avinash Dhandre'
tp146
a(S'100005941809000'
S'Sumeet Kadam'
tp147
a(S'1263190035'
S'Nikhil Jain'
tp148
a(S'100002582759224'
S'Jai Maa Vaishnodevi'
tp149
a(S'100003220007272'
S'Sant Nirankari Sewadal Domana'
tp150
a(S'100003484509371'
S'Aliya Shah'
tp151
a(S'100001218748063'
S'Manoj Kumar Rajak'
tp152
a(S'100003546058975'
S'Mayur Kota'
tp153
a(S'100002743255428'
S'Aata Houn Jau Dya'
tp154
a(S'100000621542143'
S'Sujata Dhurandhar Kirtikar'
tp155
a(S'100002340469669'
S'Dasan Das Baban JI'
tp156
a(S'100002396836011'
S'Nataliya Pedro'
tp157
a(S'100002088029086'
S'Rakesh Gulwani'
tp158
a(S'100002746329913'
S'Sushil Jore'
tp159
a(S'100001845609208'
S'Manoj Kumar Daniel'
tp160
a(S'100001257102906'
S'Kartar Singh'
tp161
a(S'688815631'
S'Sanaya Bharucha'
tp162
a(S'100001152669756'
S'Sunil Chanduviruthil Thomas'
tp163
a(S'100001460224438'
S'Ramdhani Singh'
tp164
a(S'100002657011905'
S'Rupesh Kadam'
tp165
a(S'100000486510774'
S'Rinki Khera'
tp166
a(S'100000842442494'
S'Arti Shirodkar'
tp167
a(S'742140134'
S'Jasleen Kaur'
tp168
a(S'100002510727808'
S'Balkrishna Anchan'
tp169
a(S'1031204557'
S'Laxmansingh Rajput'
tp170
a(S'715277237'
S'James Varghese'
tp171
a(S'681400582'
S'Kanti Memani'
tp172
a(S'1320339434'
S'Nikhil Pathak'
tp173
a(S'100000686295413'
S'Rubina Burke'
tp174
a(S'639687940'
S'Anand Vora'
tp175
a(S'1421037817'
S'Anita Kamath'
tp176
a(S'1071562842'
S'Archie Prithyani'
tp177
a(S'100001616696087'
S'Sajitha Kumari'
tp178
a(S'1146445603'
S'Sudha Moodliar'
tp179
a(S'100000445205186'
S'Milind Ghalsasi'
tp180
a(S'100001084403739'
S'Cutbert Gordon Greenidge'
tp181
a(S'100002142984230'
S'Pratik Yadav'
tp182
a(S'100000539057642'
S'Milind Ingale'
tp183
a(S'634535324'
S'Gaurav Kumar'
tp184
a(S'1360719924'
S'Bina Pai'
tp185
a(S'1681474081'
S'Dilip Navalkar'
tp186
a(S'1122397742'
S'Milind Wagh'
tp187
a(S'1347061328'
S'Avinash Shaligram'
tp188
a(S'100001936843560'
S'Parshuram Udmale'
tp189
a(S'100005919070697'
S'Suman Suman Nirankari'
tp190
a(S'100002966336314'
S'Daas Yogendra Singh'
tp191
a(S'100002049381656'
S'Neelam Khiyani'
tp192
a(S'100002370118345'
S'Aman Saini'
tp193
a(S'100003838327980'
S'Rohan Jagannath Kadam'
tp194
a(S'100001438073680'
S'Mandar S. Khochade'
tp195
a(S'508009288'
S'Siddhesh Dere'
tp196
a(S'100004509218942'
S'Prathamesh Jadhav PJ'
tp197
a(S'100004672448249'
S'Kishanlal Adwani'
tp198
a(S'585199363'
S'Pratap Sabale'
tp199
a(S'701063495'
S'Jayashri Pandya'
tp200
a(S'100000369766197'
S'Yogiraj Indurkar'
tp201
a(S'100001322612459'
S'Ajay Gupta'
tp202
a(S'574494341'
S'Milind Raut'
tp203
a(S'100000447317116'
S'Prakash Shelar'
tp204
a(S'100000954873366'
S'Suresh Jadhav'
tp205
a(S'728082137'
S'Manisha Muzumdar'
tp206
a(S'631232528'
S'Alex Drego'
tp207
a(S'100000864509162'
S'Kiran Pawar'
tp208
a(S'1369515061'
S'Neelesh Barodekar'
tp209
a(S'100002098431154'
S'Sumeet Kadam'
tp210
a(S'100000304988874'
S'Mangesh Mohod'
tp211
a(S'100002597412738'
S'Sony Nahar'
tp212
a(S'1635348428'
S'Swapan Dhairyawan'
tp213
a(S'100005456863064'
S'Dnyaneshwar Nimbare'
tp214
a(S'100001938876781'
S'Girija Shankar Pal'
tp215
a(S'100000696794201'
S'Iwica Chess'
tp216
a(S'100000099552447'
S'Ketan Gala'
tp217
a(S'100004228532788'
S'Ayesha Gi'
tp218
a(S'100000495007007'
S'Shrikant Bhardwaj'
tp219
a(S'652425008'
S'Dheepu Peter'
tp220
a(S'100001928931775'
S'Prasad Hegde Ganeshpuri'
tp221
a(S'575494487'
S'Jennifer Amanna-Fobler'
tp222
a(S'716037812'
S'Sanil Idiculla'
tp223
a(S'100003247662248'
S'Usha Nirankari'
tp224
a(S'100002178247648'
S'Priyanka Singh'
tp225
a(S'100008002090459'
S'Puja Kadam'
tp226
a(S'1589569775'
S'Vanita Thorat'
tp227
a(S'100002605413241'
S'Vijayanand Kotkar'
tp228
a(S'100000077803395'
S'Harish Khera'
tp229
a(S'692201440'
S'Reetika Singh'
tp230
a(S'100000017019263'
S'Vishal R Mergu'
tp231
a(S'100003179764440'
S'Vandana Rai Madaan'
tp232
a(S'100000239645658'
S'Sukdeo Patil'
tp233
a(S'605853004'
S'Umesh Walavalkar'
tp234
a(S'705755465'
S'Kamal Gokarn'
tp235
a(S'100003154254698'
S'Yogesh Pandare'
tp236
a(S'1401802093'
S'Kosha Wagh'
tp237
a(S'100005768827435'
S'Naeem Shaikh'
tp238
a(S'100002523561316'
S'Hraman Singh'
tp239
a(S'744213596'
S'Swati Karkhanis'
tp240
a(S'100000711185068'
S'Hrishi R Kamble'
tp241
a(S'100000202285477'
S'Manjiri Bawiskar'
tp242
a(S'100001661820797'
S'Sharad Nagar'
tp243
a(S'100000892350336'
S'Harish Angolkar'
tp244
a(S'100002604411290'
S'Sunil Shejale'
tp245
a(S'100003691770581'
S'Anil Narade'
tp246
a(S'100002117763967'
S'Rajesh Kumar'
tp247
a(S'1606440419'
S'Himanshu Varshney'
tp248
a(S'100001168688455'
S'Vinay Chandola'
tp249
a(S'1131932197'
S'Ved Bulland'
tp250
a(S'100003172643899'
S'Kailas Jadhav'
tp251
a(S'100003528310143'
S'A.g. Compu Ters'
tp252
a(S'100003115271521'
S'Sohni Kudi'
tp253
a(S'100001629704025'
S'Rajesh Dhonde'
tp254
a(S'848749657'
S'Surendranath Warrier'
tp255
a(S'100006352092719'
S'Papu Raul Raul'
tp256
a(S'100000474293814'
S'Milinda Natu'
tp257
a(S'517808847'
p258
S'Reshma Bhatia'
tp259
a(S'100000180533883'
S'Sujit Vaidya'
tp260
a(S'100001158838906'
S'Channi Kamla'
tp261
a(S'100000182956912'
S'Akshay AriGoz Lad'
tp262
a(S'636638419'
S'Smitha Rao'
tp263
a(S'1102432716'
S'Thomas Joseph Kizhakethalakal'
tp264
a(S'100000893850140'
S'Sunetra Mankani'
tp265
a(S'100006788193809'
S'Akshay Lokare'
tp266
a(S'1014164692'
S'Anil Chadha'
tp267
a(S'100001513676255'
S'Mohit Kathuria'
tp268
a(S'702821418'
S'Shaju Jose'
tp269
a(S'615018483'
S'Guru Gokarn'
tp270
a(S'1695324287'
S'Smita Shirole Yadav'
tp271
a(S'100005777862637'
S'Rajendra Thorat'
tp272
a(S'100000196070516'
S'Amol Deshpande'
tp273
a(S'100001513754310'
S'Sudhir Pai'
tp274
a(S'100002290135862'
S'Smita Kol'
tp275
a(S'576681510'
S'Preity Kadam'
tp276
a(S'1125233446'
S'Hetul Thakkar'
tp277
a(S'1444454141'
S'Shireesh Sabnis'
tp278
a(S'1731585967'
S'Sunil Khandekar'
tp279
a(S'100001896751769'
S'Supriya Pradhan'
tp280
a(S'787168812'
S'Rita Patil'
tp281
a(S'100000046109019'
S"Shirdi Saibaba's Devotee"
tp282
a(S'1804605248'
S'Narinder Pal Singh Noor'
tp283
a(S'1594776074'
S'Raizy Narang'
tp284
a(S'100000067960173'
S'Amitabh Pandit'
tp285
a(S'619532827'
S'Sharmila Gokarn'
tp286
a(S'695443668'
S'DrSuraina Malhotra'
tp287
a(S'100000100103619'
S'Pravin Patil'
tp288
a(S'100002198935734'
S'Rahul Kashaudhan'
tp289
a(S'1334095356'
S'Rosalyn Ben'
tp290
a(S'100002071108464'
S'Bharat Kunderan'
tp291
a(S'100005674980337'
S'Shelly Gupta'
tp292
a(S'100001162671970'
S'Deepak Lalwani'
tp293
a(S'100007118471022'
S'Rohan Chavan'
tp294
a(S'705578504'
S'Asif Karmali'
tp295
a(S'813155821'
S'Sawinder Singh Keer'
tp296
a(S'100003787935450'
S'Ravi Verma'
tp297
a(S'100001749676468'
S'Munish Ahuja'
tp298
a(S'100001723754593'
S'Neha Singer'
tp299
a(S'100002054358653'
S'Dilbag Luthra'
tp300
a(S'100002193490603'
S'Kavita Sharma'
tp301
a(S'100000193027963'
S'Aneetha Satish'
tp302
a(S'100002003997826'
S'Kishore Oberoi'
tp303
a(S'589367208'
S'Sarita Ahuja'
tp304
a(S'1476175822'
S'Jignesh R Joshi'
tp305
a(S'100001208278151'
S'Manoj Menon'
tp306
a(S'100001476837941'
S'Prem Nirankari'
tp307
a(S'572177486'
S'Sujata Nair'
tp308
a(S'1093850565'
S'Rushit Balsari'
tp309
a(S'100004211137473'
S'MadHu Barse'
tp310
a(S'100001464643519'
S'Milind Vaidya'
tp311
a(S'1488184683'
S'Nayan Borde'
tp312
a(S'100002726624037'
S'Santnirankariyamunanagar Sangat'
tp313
a(S'100006295061929'
S'Rishi Pangare'
tp314
a(S'100002490212872'
S'Satish Natekar'
tp315
a(S'1375681256'
S'Navaz Tomato Merchant'
tp316
a(S'623935981'
S'Aneesh Pradhan'
tp317
a(S'100001468832493'
S'Prayag Davalia'
tp318
a(S'100000221678310'
S'Basim Asi'
tp319
a(S'100000867716120'
S'Champalal Manikchand Gelada'
tp320
a(S'616393254'
S'Sagar Oke'
tp321
a(S'1470337927'
S'Beena Desai'
tp322
a(S'100002842217989'
S'Harsh Sokhey'
tp323
a(S'1045625655'
S'Hemant Bagalkote'
tp324
a(S'100002426678790'
S'Raj Kamal'
tp325
a(S'100000191593485'
S'Pramod Sawant'
tp326
a(S'100007103709404'
S'Kulwant Kaur'
tp327
a(S'100000353930062'
S'Lakshmi Sarma AV'
tp328
a(S'100000520676958'
S'Deepali Dave'
tp329
a(S'739682716'
S'Deepa Kadkade'
tp330
a(S'1167680623'
S'Justin George Varghese'
tp331
a(S'100001155121402'
S'Ravindra Dongre'
tp332
a(S'100001584010459'
S'Bhushan Patil'
tp333
a(S'1112057164'
S'Supriya Gadekar'
tp334
a(S'100001002531578'
S'Abhijeet Junnarkar'
tp335
a(S'1615372194'
S'Akshay Shah'
tp336
a(S'607617649'
S'Prashant Mavinkurve'
tp337
a(S'100005353959151'
S'Deepak Mehra'
tp338
a(S'100000718812386'
S'Shekhar Saroj'
tp339
a(S'100001354582839'
S'Gopinath Jadhav'
tp340
a(S'664867133'
S'Rajan Nayagam'
tp341
a(S'100002267386102'
S'Yogesh Mala'
tp342
a(S'770325227'
S'Ankit Wagh'
tp343
a(S'100001674095957'
S'Sachin Ambavane'
tp344
a(S'1435422607'
S'Rajiv Jangida'
tp345
a(S'100002987884674'
S'Pranavesh Dhairyawan'
tp346
a(S'1672672575'
S'Rajesh Kumar Arora'
tp347
a(S'100001807653775'
S'Ashwini Ramesh Kumar'
tp348
a(S'100003931073728'
S'Purogami Bhoomika Beed'
tp349
a(S'100007879873637'
S'Nikhil Dhore'
tp350
a(S'100003866490661'
S'Renuka Choudhury'
tp351
a(S'100006415391815'
S'Pritee Kadam'
tp352
a(S'100001504336116'
S'Nasir Jugari'
tp353
a(S'100003816644443'
S'Sunita Srivastava'
tp354
a(S'1023817210'
S'Santosh Bawiskar'
tp355
a(S'692060604'
S'Ashish Chakravorty'
tp356
a(S'686950426'
S'Rajesh Kirtikar'
tp357
a(S'697949407'
S'Preetika Narula'
tp358
a(S'1351705168'
S'Neha Gujral'
tp359
a(S'100000421021439'
S'Mihir Morwale'
tp360
a(S'734813622'
S'Dilip Kharkar'
tp361
a(S'1426841870'
S'Amita Karkhanis'
tp362
a(S'1820835396'
S'Sameer Sawant'
tp363
a(S'631521034'
S'Arvind Rajguru'
tp364
a(S'100001715446879'
S'Shashank Tilak'
tp365
a(S'100005696503126'
S'Prithviraj Gaikwad'
tp366
a(S'100000309956970'
S'Shubha Dalvi'
tp367
a(S'599659514'
S'Vishwesh Gadekar'
tp368
a(S'755549261'
S'Hari Aiyer'
tp369
a(S'100002276024969'
S'Patil Kalpesh'
tp370
a(S'1404460606'
S'Madhuri Kalra'
tp371
a(S'100000380683468'
S'Monisha Kallianpur'
tp372
a(S'100002464066915'
S'Krishna Yadav'
tp373
a(S'100000508984275'
S'Anupama Nair'
tp374
a(S'671654810'
S'Harshavardhan Peter'
tp375
a(S'646711722'
S'Shaheen Shahani'
tp376
a(S'1206342558'
S'Santosh Mutha'
tp377
a(S'731288021'
S'Milind Chavan'
tp378
a(S'100006745982546'
S'Mamta Jyotish Kendera'
tp379
a(S'1432999836'
S'Niket Gandhi'
tp380
a(S'100000481905800'
S'Shivroopraje Nimbalkar'
tp381
a(S'1828174253'
S'Rahul Hiregaud'
tp382
a(S'100002667632690'
S'Meenu Mehra'
tp383
a(S'100002880997283'
S'Somnath Sonawane'
tp384
a(S'1028481601'
S'Anay Paranjpye'
tp385
a(S'100000807714291'
S'Chetan Nirgulkar'
tp386
a(S'1050990912'
S'Jithvi Justin'
tp387
a(S'100003037109093'
S'Pralhad Gound'
tp388
a(S'100002421880141'
S'MK Monika'
tp389
a(S'100002213565802'
S'Girish Nair'
tp390
a(S'100000846228918'
S'Geeta NaikSatam'
tp391
a(S'100000150794319'
S'Gauri Mendis'
tp392
a(S'100002525120516'
S'Movies Bhai'
tp393
a(S'100002479570249'
S'\\u00c4tt\\u00eet\\u00fa\\u00f0\\u00ea \\u00d0\\u00e0shi\\u00d1\\u0123 \\u00df\\u00f8\\u00fd \\u00d1\\u00edt\\u00ec\\u00f1'
tp394
a(S'1473808081'
S'Maurice Reuben'
tp395
a(S'1083199282'
S'Anila Nabar'
tp396
a(S'1008852519'
S'Prasad Trilokekar'
tp397
a(S'100001240290532'
S'Mahesh Mamnani'
tp398
a(S'100001865961734'
S'Barkha Malhotra'
tp399
a(S'556856875'
S'Shreya Vaidya'
tp400
a(S'100000291068231'
S'Saachi Jadeja'
tp401
a(S'100003823980310'
S'Drkalpana Nanajkar'
tp402
a(S'100006653130805'
S'Pritam Jadhav'
tp403
a(S'529180209'
S'Tabarak Razvi'
tp404
a(S'100001842289085'
S'David Parkhi'
tp405
a(S'100000775515649'
S'Kunal Aswani'
tp406
a(S'100000851994593'
S'Yatin Navalkar'
tp407
a(S'531416823'
S'Sunil Dcosta'
tp408
a(S'100002100121759'
S'Manmeet Chandra Chandra'
tp409
a(S'100002329655264'
S'Waranya Wiyo'
tp410
a(S'100000174607595'
S'Harsh Chawla'
tp411
a(S'740128783'
S'Deepesh Vora'
tp412
a(S'100000437701101'
S'Ipshita Suyash'
tp413
a(S'100000187252631'
S'Yogesh Riswadkar'
tp414
a(S'673450469'
S'Vipul Somaiya'
tp415
a(S'100000010522087'
S'Smita Vaidya'
tp416
a(S'785733284'
S'Kumar Varun'
tp417
a(S'649393742'
S'Jyoti Toshniwal'
tp418
a(S'1657531349'
S'Shankar S Hiremath'
tp419
a(S'1061527188'
S'Reeha Deshmukh'
tp420
a(S'100002509522706'
S'Pritam Gadhave'
tp421
a(S'100002575248603'
S'Preet Aheer'
tp422
a(S'1268588266'
S'Darius. Dorabjee'
tp423
a(S'584419384'
S'Pravin Tembe'
tp424
a(S'100002481546893'
S'Kripali Gupta'
tp425
a(S'733596816'
S'Namrata Ahuja'
tp426
a(S'100001498433804'
S'Uttam Manglani'
tp427
a(S'100001099077023'
S'Deepali Bawiskar'
tp428
a(S'705353430'
S'Ravikiran Prakashrao Patil'
tp429
a(S'1471849083'
S'Vishal Deshmukh'
tp430
a(S'100002328336074'
S'Dev Dildar'
tp431
a(S'1637648835'
S'Sangeeta Bharamgude'
tp432
a(S'100000545077799'
S'Tan Mann Dhan'
tp433
a(S'1283088204'
S'Shaikh Zahid'
tp434
a(S'100003897948354'
S'Ajay Pawar'
tp435
a(S'100000689942545'
S'Manisha Vedak'
tp436
a(S'766064164'
S'Tushar Vagal'
tp437
a(S'100002552649285'
S'Akshay Shinde'
tp438
a(S'100000804838962'
S'Anuj Kumar Anu'
tp439
a(S'1539697483'
S'Ajay Bejode'
tp440
a(S'100001231070202'
S'Suthiv Vasu'
tp441
a(S'100001767199177'
S'Manish Aggarwal'
tp442
a(S'100001501636653'
S'Jayakrushna Rout'
tp443
a(S'100003684233117'
S'Samadhan Rathod'
tp444
a(S'100002083307952'
S'Vinay Chhajed'
tp445
a(S'100004145312918'
S'Rohan Sharma'
tp446
a(S'100003048060351'
S'Suraj Oneness'
tp447
a(S'632227670'
S'Milind Vartak'
tp448
a(S'1571397469'
S'Vivek Mahajan'
tp449
a(S'100002625277591'
S'Pradeep Kumar'
tp450
a(S'100000340199126'
S'Manish Rohida'
tp451
a(S'100007035006904'
S'Anil Phalke'
tp452
a(S'1589433114'
S'Kamala Moodliar'
tp453
a(S'1262811219'
S'Kirayedaar Dwarka Rajouri Garden'
tp454
a(S'100000535842344'
S'Deep Bhatkal'
tp455
a(S'100000595296316'
S'Nikhil Goyal'
tp456
a(S'1655778251'
S'Rohinton Gotla'
tp457
a(S'558672978'
S'Mona Anand'
tp458
a(S'811344741'
S'Jennifer Amanna-Fobler'
tp459
a(S'100000323757816'
S'Ranjana Tamhane'
tp460
a(S'100000737300331'
S'Taha Merchant'
tp461
a(S'1349485103'
S'Milind Surve'
tp462
a(S'100001119129862'
S'Vijay Tuteja'
tp463
a(S'100008061720746'
S'Puja Kadam'
tp464
a(S'100005750740323'
S'Sukhbir Singh'
tp465
a(S'100004735243593'
S'Jayu Bandal'
tp466
a(S'1681084034'
S'Khushrow Bharucha'
tp467
a(S'1274966508'
S'Kavi Bhandary'
tp468
a(S'100000851977532'
S'Yogesh Soman'
tp469
a(S'100003516485849'
S'Rajendra Sabharwall'
tp470
a(S'771787355'
S'Anil Raghani'
tp471
a(S'100005120555376'
S'Aakash Panchal'
tp472
a(S'100000740675377'
S'Navnath Gosavi'
tp473
a(S'100000748607418'
S'Vasant Bharne'
tp474
a(S'100002667596515'
S'Suraj Shinge'
tp475
a(S'1541341790'
S'Suhel Firfiray'
tp476
a(S'1686074661'
S'Minda Domingues'
tp477
a(S'1045885422'
S'Mubarak Panakkat'
tp478
a(S'100002309179555'
S'Deepa Patel'
tp479
a(S'761048369'
S'Gautam Kasargod'
tp480
a(S'574558158'
S'Rahul Zaware'
tp481
a(S'798815017'
S'Rakesh Wadhwa'
tp482
a(S'100000782362889'
S'Sant Nirankari'
tp483
a(S'100003826349227'
S'Savitri Dnyanmothe'
tp484
a(S'1102553644'
S'Dhanashree Parakh'
tp485
a(S'100000748215658'
S'Shailen Rajput'
tp486
a(S'100002733418257'
S'Yogini Yogi'
tp487
a(S'100002159703049'
S'Ips Kochhar'
tp488
a(S'100002820987979'
S'Tehmusp Ghyara'
tp489
a(S'100001353166196'
S'Rona Ben'
tp490
a(S'570576101'
S'Rahul Deshpande'
tp491
a(S'1743407805'
S'Asgar Sayed'
tp492
a(S'623408765'
S'Ashish Redij'
tp493
a(S'741150407'
S'Arti Advani'
tp494
a(S'100007651393988'
S'Tejpal Nirankari'
tp495
a(S'1234644076'
S'Aditya Atre'
tp496
a(S'100000238974681'
S'Ashish Lahoti'
tp497
a(S'590723355'
S'Nikhil Mogre'
tp498
a(S'562297033'
S'Rajeev Advani'
tp499
a(S'100004251577449'
S'RaDhika KoHali'
tp500
a(S'100001251828655'
S'Shalaka Desai'
tp501
a(S'1428767944'
S'Sanjay Mankekar'
tp502
a(S'100001784608017'
S'Ravindra Kamble'
tp503
a(S'100001626153400'
S'Niranjan Suvarna'
tp504
a(S'1170691864'
S'Prash Sankh\\u00e9'
tp505
a(S'662446180'
S'Navedita Shergill'
tp506
a(S'1774350886'
S'George Ben'
tp507
a(S'727120076'
S'Atul Raniwala'
tp508
a(S'100000037360368'
S'Zoheb Merchant'
tp509
a(S'100002458289227'
S'Arti Borkar'
tp510
a(S'100001038038367'
S'Ivan Iruthayaraj Murray'
tp511
a(S'100001422529038'
S'Megha Bhosale Shinde'
tp512
a(S'100001463530258'
S'Bhaskar Gaikwad'
tp513
a(S'546424890'
S'Neha Chavan Chowdhury'
tp514
a(S'100002524634339'
S'Naturopathy Treatment'
tp515
a(S'893270248'
S'Shakun Sethi'
tp516
a(S'1571292519'
S'Deepan Bhatt'
tp517
a(S'1057008471'
S'Pinky Ahluwalia'
tp518
a(S'100000101463179'
S'Simmi Bhatia'
tp519
a(S'100002113890017'
S'Konark Pooram'
tp520
a(S'100001537528867'
S'Yogini Malaya'
tp521
a(S'1396047535'
S'Ashish Parulekar'
tp522
a(S'100001616941458'
S'Narendra Bhandari'
tp523
a(S'691816476'
S'Mangesh Chaubal'
tp524
a(S'100001784423071'
S'Sara Settaf'
tp525
a(S'100003202178289'
S'Suresh Kalmadi'
tp526
a(S'100001218019036'
S'Jagdish Kshirsagar'
tp527
a(S'1835974109'
S'Pradeep Nasa'
tp528
a(S'100001124059352'
S'Abhijit Pandit'
tp529
a(S'100003350669237'
S'Aayush Pradhan'
tp530
a(S'100004087761706'
S'Manoj Sukh'
tp531
a(S'522575228'
S'Priya Vagal'
tp532
a(S'661126647'
S'Chahna Rupani'
tp533
a(S'1331692794'
S'Gopi Kukde'
tp534
a(S'100002541381049'
S'Bhanu Prakash'
tp535
a(S'100007982471058'
S'Puja Kadam'
tp536
a(S'100001920918546'
S'Janvi Sharma'
tp537
a(S'100004336146798'
S'Rajneesh OneNess'
tp538
a(S'633461182'
S'Shibani Gokarn'
tp539
a(S'100000785264630'
S'Santosh Gupta'
tp540
a(S'1011262994'
S'Ishwar Suvarnkar'
tp541
a(S'100000532716000'
S'Umesh Rao'
tp542
a(S'533781435'
S'Maulshri Dube Mavinkurve'
tp543
a(S'655801249'
S'Shaahid Khan'
tp544
a(S'711579209'
S'Nameeta Shetty'
tp545
a(S'521648570'
S'Krishna Kumar'
tp546
a(S'100000873324036'
S'Girish Datye'
tp547
a(S'100001827671264'
S'Santosh Biradar'
tp548
a(S'1223980467'
S'Enid Ben'
tp549
a(S'100001203873615'
S'Shailendra Kirtikar'
tp550
a(S'662001216'
S'Sanjay Banerjee'
tp551
a(S'100000718618978'
S'Anjali Parulekar'
tp552
a(S'100005058695183'
S'Shubham Thikhule'
tp553
a(S'100000327519849'
S'Vandana Mohile Zope'
tp554
a(S'100001049419454'
S'Pradeep Dhotre'
tp555
a(S'535861659'
S'Sandeep Duggal'
tp556
a(S'100007703621807'
S'Vijay Bhujbal'
tp557
a(S'100001894968712'
S'Harshal Mala'
tp558
a(S'100002336706892'
S'Simran Pawar'
tp559
a(S'100001774975490'
S'Anuradha Tyagi'
tp560
a(S'100006066371173'
S'Akshay Shinde'
tp561
a(S'100001881981685'
S'Damania Jitendra Nirankari'
tp562
a(S'100004674450126'
S'Suraj Pise'
tp563
a(S'1673647159'
S'Shreelekha Kharkar Satpute'
tp564
a(S'100002308694282'
S'Mahesh Raut'
tp565
a(S'100002277237578'
S'Mahendra Chillal'
tp566
a(S'100002413399256'
S'Neelam Sartaan'
tp567
a(S'100008278117960'
S'Santosh More'
tp568
a(S'100001568702474'
S'Roland Ben'
tp569
a(S'100003175325873'
S'Jassi Aman Eakam'
tp570
a(S'100002188291188'
S'Milind Patil'
tp571
a(S'100007588840307'
S'Mamata Kumari'
tp572
a(S'100000989644420'
S'Sana Wasim Asi'
tp573
a(S'100002864090528'
S'Sudipta Guin'
tp574
a(S'1313115946'
S'Rishi Uniyal'
tp575
a(S'100006679147697'
S'Ajit Thakoor'
tp576
a(S'100004389064227'
S'Reetika Ritu'
tp577
a(S'100004725603522'
S'Jass Kohli'
tp578
a(S'1067661822'
S'Kaustubh Jayakar'
tp579
a(S'609172927'
S'Mansoor Lokhandwala'
tp580
a(S'100000926124815'
S'Pradeep Jadhav'
tp581
a(S'716785205'
S'Aditya Bhatkal'
tp582
a(S'100001502013953'
S'Arvind Kumar'
tp583
a(S'100002651816736'
S'Neha Chopra'
tp584
a(S'100002620958086'
S'Pradeep Jadhav'
tp585
a(S'100000480313847'
S'Shrikant Tapale'
tp586
a(S'100000644233127'
S'Geetha Vijayasarathy'
tp587
a(S'100006119442133'
S'Oneness Oneness'
tp588
a(S'100001797920398'
S'Shreyas Mulay'
tp589
a(S'100000583325479'
S'Niranjan Lad'
tp590
a(S'1075821935'
S'Hemant Kamath'
tp591
a(S'100005621647989'
S'Laxman Chachle'
tp592
a(S'719919306'
S'Santosh P Dhairyawan'
tp593
a(S'100000938185950'
S'Abhay Ghayal'
tp594
a(S'100003309796433'
S'Sudam Shillak'
tp595
a(S'1142717162'
S'Jayesh Gadekar'
tp596
a(S'1165232456'
S'Saurabh Chowdhury'
tp597
a(S'100003716996910'
S'Arjun Rathore'
tp598
a(S'1270909757'
S'Deepak Suresh Kothare'
tp599
a(S'100000244508115'
S'\\u0930\\u093e\\u091c \\u091c\\u0917\\u0924\\u093e\\u092a'
tp600
a(S'100003164388937'
S'Jagdeep Singh Nirankari'
tp601
a(S'100003023403512'
S'Rasshmie Jain'
tp602
a(S'100003494071568'
S'Dev Dildar'
tp603
a(S'830050362'
S'Manoj Nair'
tp604
a(S'100004109111245'
S'Rajesh Bharati'
tp605
a(S'542117041'
S'Vinay Gupta'
tp606
a(S'1219703022'
S'Puneet Sethi'
tp607
a(S'100000848393326'
S'Anil More'
tp608
a(S'611358120'
S'Sanjeev Gokhale'
tp609
a(S'100002257225801'
S'Rachna Lakhiyani'
tp610
a(S'100003594702496'
S'Hardiv Harpal Sandeep Parwinder'
tp611
a(S'100005338029282'
S'Ishmeet Malhotra'
tp612
a(S'1359814311'
S'Preeti Kaur'
tp613
a(S'100007731813905'
S'Aarpita Rekhi'
tp614
a(S'813237607'
S'Muneez Poonawalla'
tp615
a(S'614022598'
S'Saifee Z Makasarwala'
tp616
a(S'683770779'
S'Vinita Deshmukh'
tp617
a(S'655877511'
S'Sachiin Bawiskar'
tp618
a(S'628080051'
S'Aashni Vagal'
tp619
a(S'516294188'
S'Pratha Narang'
tp620
a(S'100001040399050'
S'\\u0930\\u093e\\u0939\\u0941\\u0932 \\u0930\\u093e\\u0928\\u0921\\u0947'
tp621
a(S'100000753747601'
S'Santosh Pai'
tp622
a(S'100004122304254'
S'Anil Shenvi'
tp623
a(S'634029896'
S'Jayesh Gadia'
tp624
a(S'100002182495568'
S'Poornima Rajguru'
tp625
a(S'1123345702'
S'Anil Malhotra'
tp626
a(S'100000458479392'
S'Sam Zachariah'
tp627
a(S'100002629106752'
S'Love Humanity'
tp628
a(S'15726471'
S'Vaibhav munjal'
tp629
a(S'100003704915981'
S'Ankit Gulati'
tp630
a(S'1145680540'
S'Amardeep Chauhan'
tp631
a(S'100002610273435'
S'Vandana Kothare Velkar'
tp632
a(S'1433647907'
S'Arti Deo'
tp633
a(S'100001434035395'
S'Mary Lourdes'
tp634
a(S'100007478203197'
S'Pooja Mehendale'
tp635
a(S'100001132479975'
S'Shabnam Merchant'
tp636
a(S'638630594'
S'Vinod Daryanani'
tp637
a(S'100000014430787'
S'Arun Gunaji'
tp638
a(S'1371164529'
S'Kusum Gokarn'
tp639
a(S'100007195059985'
S'Vishal Pagare'
tp640
a(S'572001402'
S'Rahul Padukone'
tp641
a(S'100006435695139'
S'Preeti Dua'
tp642
a(S'100001903937629'
S'Ashish Murudkar'
tp643
a(S'100002084700833'
S'Anil G Guru'
tp644
a(S'100008341028001'
S'Sushanta Roul'
tp645
a(S'572220998'
S'Sujit Nerurkar'
tp646
a(S'100000893072614'
S'Atul Lad'
tp647
a(S'1221065928'
S'Krishna Murthy'
tp648
a(S'100001133078174'
S'Ajay Gujarathi'
tp649
a(S'1448144880'
S'Adeeti Jain'
tp650
a(S'100001900613658'
S'Ganesh Chavan'
tp651
a(S'100000220209297'
S'Sneha Iyer'
tp652
a(S'100006890436679'
S'Sunnysinh Dodiya'
tp653
a(S'767715295'
S'Rohan Chavan'
tp654
a(S'100000321211749'
S'Parag Karkhanis'
tp655
a(S'100005213136529'
S'Gourish Gokarn'
tp656
a(S'100000371910611'
S'Sateesh Paknikar'
tp657
a(S'710996701'
S'Taiyab Ali Zaidi'
tp658
a(S'100002600956850'
S'Gajanan Patil Nanded'
tp659
a(S'100002010553846'
S'Sandeep Kadam'
tp660
a(S'100000691398579'
S'Maruti Dhole'
tp661
a(S'100000647293070'
S'Sumathy Kumar'
tp662
a(S'100001663420314'
S'Pandey Rajnee Indu'
tp663
a(S'100003315892796'
S'ER ViShal Arora'
tp664
a(S'100003934336524'
S'Mayur Dhaware'
tp665
a(S'100001520290228'
S'Sunil Gulati'
tp666
a(S'100000812328068'
S'Jagen Kuriadom'
tp667
a(S'1267617580'
S'Salil Choudhary'
tp668
a(S'685211635'
S'Mandar Suresh Jadhav'
tp669
a(S'100002955552375'
S'Kdivya Panwar'
tp670
a(S'1358479015'
S'Milind Kshirsagar'
tp671
a(S'100000703146280'
S'Ashwini Ramesh Kumar'
tp672
a(S'100004722522887'
S'Jay Vishwakarma'
tp673
a(S'100005263449026'
S'Pemaji Sirvi'
tp674
a(S'538494482'
S'Sanjay Satalkar'
tp675
a(S'100000308529387'
S'Seema Indore'
tp676
a(S'100002680005175'
S'Shalini Sharma'
tp677
a(S'615532383'
S'Abhay S Damle'
tp678
a(S'100000250330466'
S'Haresh Chawla'
tp679
a(S'711560194'
S'Hussain Poonawalla'
tp680
a(S'648206960'
S'Hashim MM'
tp681
a(S'100003540404121'
S'Ankit K. Shrivastava'
tp682
a(S'100001454929481'
S'John Mathew'
tp683
a(S'100001263292078'
S'Kishor Mutha'
tp684
a(S'100003472604857'
S'Vaibhav Bhalerav'
tp685
a(S'100000118347842'
S'Raju Amritwar'
tp686
a(S'100004589194502'
S'Manoj Oneness'
tp687
a(S'100000555192581'
S'Praneeta Ben'
tp688
a(S'100000446179543'
S'Paresh Shimpi'
tp689
a(S'1636638550'
S'Manoj Adkar'
tp690
a(S'100001988826218'
S'Manpreet Sandhu'
tp691
a(S'100003103093477'
S'Pramit Sonawane'
tp692
a(S'1110622410'
S'Moan Jacob'
tp693
a(S'100001708380761'
S'Bharat Mulay'
tp694
a(S'100000636070353'
S'Ketan Sugandhi'
tp695
a(S'100003969661587'
S'Ak Thappa'
tp696
a(S'1803183164'
S'Sudhi Chai Coffee Positive'
tp697
a(S'100001868337733'
S'Supriya Shinde'
tp698
a(S'100004212521248'
S'Ajay Kalra Ji'
tp699
a(S'100001066343693'
S'Biju Jincy'
tp700
a(S'100005272383247'
S'Pooja Sethi'
tp701
a(S'1113409132'
S'Ashish Sinharoy'
tp702
a(S'540274094'
S'Kavita Mashkoor'
tp703
a(S'100002018772694'
S'GArima DhinGra'
tp704
a(S'100000840179250'
S'Saroja Nirankari'
tp705
a(S'100002030754854'
S'Zubair Pathan'
tp706
a(S'100001359403499'
S'Satish Satav'
tp707
a(S'100002878775278'
S'Supriya Gaikwad'
tp708
a(S'100000126825720'
S'Namita Sankhe'
tp709
a(S'100007613314647'
S'SantNirankari Mission BranchRohtak'
tp710
a(S'100007333061243'
S'Sunanda Tarde'
tp711
a(S'1196134333'
S'Dhruv Arya'
tp712
a(S'100004312092470'
S'Prakash Raj'
tp713
a(S'100003776419305'
S'Nirankari Ipl'
tp714
a(S'100002528924117'
S'Nirankari Saints'
tp715
a(S'1124555398'
S'Nitesh Shah'
tp716
a(S'100000187944549'
S'Shyam Prasad'
tp717
a(S'100005296953079'
S'Sangita Chavan'
tp718
a(S'100000734665442'
S'Abraham Joseph'
tp719
a(S'702725514'
S'Jeremy Thommy'
tp720
a(S'624489675'
S'Makarand Pathre'
tp721
a(S'100003813322546'
S'Prince Chaudhari'
tp722
a(S'1459876993'
S'Prakash Krishna Sule'
tp723
a(S'549986936'
S'Sadhana Somasekhar'
tp724
a(S'100001592817780'
S'Sunil Karandikar'
tp725
a(S'100002484446285'
S'Tarun Kamra'
tp726
a(S'100000993245662'
S'Veer Zaware'
tp727
a(S'100001366006557'
S'Mohan Verma'
tp728
a(S'100006435916885'
S'Abhishek Ramakant Sharma'
tp729
a(S'100001618963154'
S'Nitesh Azad Naagar'
tp730
a(S'614139163'
S'Ghayathri Desai'
tp731
a(S'100005296741370'
S'Mahesh Kadam'
tp732
a(S'100008073671990'
S'Yash Chauhan'
tp733
a(S'620513473'
S'Sheetal Vanjari'
tp734
a(S'100001678787523'
S'Ajay Pandey'
tp735
a(S'513601310'
S'Yash Narang'
tp736
a(S'100000482058097'
S'Ratna Sharma'
tp737
a(S'758459038'
S'Shashank Kadam'
tp738
a(S'100000356780737'
S'John Bosco'
tp739
a(S'100000658354175'
S'Namrata Chawla'
tp740
a(S'585494465'
S'Neeta Pradhan'
tp741
a(S'100006239584913'
S'Parshu Jamadar'
tp742
a(S'100000652603031'
S'Vicky Malhotra'
tp743
a(S'100000332038349'
S'Shubh Oneness'
tp744
a(S'581772192'
S'Sunil Raju'
tp745
a(S'100001120054092'
S'Sachin Sanas'
tp746
a(S'100004567294849'
S'Divya Munjal'
tp747
a(S'100002642747314'
S'Nilesh Dhore'
tp748
a(S'635698032'
S'Bikram Vohra'
tp749
a(S'100003482016168'
S'\\u0938\\u093f\\u0927\\u094d\\u0926\\u093e\\u0902\\u0924 \\u092a\\u093e\\u091f\\u093f\\u0932'
tp750
a(S'100000672513009'
S'Dharam Joshi'
tp751
a(S'100002439762049'
S'Swapneel Shinde'
tp752
a(S'586779687'
S'Ardeshir Firouzabadi'
tp753
a(S'100000336572081'
S'Kavita Joshi'
tp754
a(S'638495158'
S'Jude Micheal John'
tp755
a(S'100000358177469'
S'Asit Talpade'
tp756
a(S'755077781'
S'Aneesh Bhanot'
tp757
a(S'1469840583'
S'Jonathan Justin'
tp758
a(S'760209061'
S'Virendra Bamne'
tp759
a(S'100002464969613'
S'Paresh Rajpal'
tp760
a(S'509343692'
S'Srinivas Bhamidipati'
tp761
a(S'100001730052755'
S'Urvashi Jain'
tp762
a(S'100002710017889'
S'Sunil Kadu'
tp763
a(S'524800336'
S'Rajani Manjunath'
tp764
a(S'100003537064996'
S'Rishi Pangare'
tp765
a(S'100001291916260'
S'Rajesh Chandrachud'
tp766
a(S'100003562428924'
S'Prottoy Dey'
tp767
asS'id'
p768
S'718931264'
p769
sS'name'
p770
S'Tushar Shantaram Ambavane'
p771
s.