(dp1
S'friends'
p2
(lp3
(S'1491362485'
S'Gary Robinson'
tp4
a(S'1178891006'
S'Qudsia Hairat'
tp5
a(S'100002609155709'
S'Sophie Valer'
tp6
a(S'100001221054156'
S'Masoom Qesmat'
tp7
a(S'100002138705832'
S'Faro Nawabi'
tp8
a(S'659076241'
S'Monica Matos'
tp9
a(S'100000565182733'
S'Asifi Shahwali'
tp10
a(S'1464932650'
S'Ali Hairat'
tp11
a(S'100000148678291'
S'Freshta Nawabi'
tp12
a(S'737617897'
S'Lisa Johnson'
tp13
a(S'549795262'
S'Zabihullah Stanakzai'
tp14
a(S'688383997'
S'Shaik Salimuzzaman'
tp15
a(S'586402663'
S'Bilal Sarwary'
tp16
a(S'1012280532'
S'Shafi Ghafoor'
tp17
a(S'17215644'
p18
S'Ajmal Stanikzai'
tp19
a(S'100001177655038'
S'Shafi Murad'
tp20
a(S'100001651496248'
S'Nazir Akramyar'
tp21
a(S'865705365'
S'Bashir Matin'
tp22
a(S'100007552359356'
S'Shamim Safa'
tp23
a(S'100007718916381'
S'Laleh Qadery'
tp24
a(S'1238629455'
S'Amy Farina'
tp25
a(S'100000787701643'
S'Najibullah Hameed'
tp26
a(S'100001266893645'
S'Aramesh Mahoozi Darvishian'
tp27
a(S'100004740064749'
S'Shahbaz Sahil Khan'
tp28
a(S'615204636'
S'Arris Bahrami'
tp29
a(S'714858155'
S'Ronn Moss'
tp30
a(S'100000356577514'
S'Tracy Downey'
tp31
a(S'1510819296'
S'Nabila Ibrahim Ghafoor'
tp32
a(S'648777672'
S'Abdul Rahman Aref'
tp33
a(S'584869169'
S'Majid Darvishian'
tp34
a(S'601610556'
S'Ahmad Hewad Kakar'
tp35
a(S'542210404'
S'Sara Jerez'
tp36
a(S'595157614'
S'Shyamala Rao'
tp37
a(S'1363834989'
S'Nader Omar'
tp38
a(S'100000027779437'
S'Ahmad Ashraf Hairat'
tp39
a(S'560262048'
S'Tanya Seeto'
tp40
a(S'659198029'
S'Nigel Douglas'
tp41
a(S'1290410218'
S'Massoud Azimi'
tp42
a(S'1411333442'
S'Umut Karada\\u011f'
tp43
a(S'1231471359'
S'Flo Del Ros'
tp44
a(S'621426762'
S'Lawson Dixon'
tp45
a(S'100003113884940'
S'Badria Parwani'
tp46
a(S'545631195'
S'Stephane Palomba'
tp47
a(S'1640060822'
S'Fraidoun Azimi'
tp48
a(S'1468615077'
S'Jawad Ibrahim'
tp49
a(S'100000694463693'
S'Siar Basharmal'
tp50
a(S'100004162387463'
S'Zabiullah Ahmadi Sofizada'
tp51
a(S'682140223'
S'Habib Zikria'
tp52
a(S'670519778'
p53
S'Riaz Sadat'
tp54
a(S'100000890992704'
S'Lemar Ahmad'
tp55
a(S'100000344253445'
S'Ahmad Khalid Shekib'
tp56
a(S'100001864093394'
S'Dilek Kurtar\\u0131c\\u0131'
tp57
a(S'100002085311776'
p58
S'Mena Mangal'
tp59
a(S'100000765453581'
S'Meena Marzia'
tp60
a(S'1079773692'
S'Sear WAzeen'
tp61
a(S'836752585'
S'Latifa Zargarpur'
tp62
a(S'1569485888'
S'Ahmad Fawad Farzan'
tp63
a(S'100001698993134'
S'Amir Omar'
tp64
a(S'1272052271'
S'Massood Sanjer'
tp65
a(S'538447343'
S'Yasi Hairat'
tp66
a(S'100000264385600'
S'Amber Hawa Ashraf'
tp67
a(S'100001119807827'
S'Omar Hashemyan'
tp68
a(S'1264807013'
S'Mamun Shaheed'
tp69
a(S'598501300'
S'Arsalan Lutfi'
tp70
a(S'651271186'
S'Elias Ghafoor'
tp71
a(S'1155097095'
S'Zakia Lutfi'
tp72
a(S'551791587'
S'David Watkins'
tp73
a(S'100007621623471'
S'Homa Tareq'
tp74
a(S'635759151'
S'Warwick Taylor'
tp75
a(S'100001636508355'
S'Bashir Kawoosh'
tp76
a(S'6209952'
S'Zohra Wakilpoor'
tp77
a(S'796220028'
S'Ousay Wahaj'
tp78
a(S'599848518'
S'Mina Wali'
tp79
a(S'520648222'
S'Farha Nazz'
tp80
a(S'1462279237'
S'Basir Bina'
tp81
a(S'100000497264028'
S'Diana Jahanyar'
tp82
a(S'1617192654'
S'Eddie Nawabi'
tp83
a(S'1392416038'
S'Nadia Khogyani'
tp84
a(S'100000847726409'
S'Sufi Khanaqai'
tp85
a(S'1289528966'
S'Ashparie Wali'
tp86
asS'id'
p87
S'720293422'
p88
sS'name'
p89
S'Farhad Ghafoor'
p90
s.