(dp1
S'friends'
p2
(lp3
(S'100001203211552'
S'Anurag Bhatia'
tp4
a(S'774674585'
S'Gursimran Singh Dhaliwal'
tp5
a(S'884530640'
S'Misha Grover'
tp6
a(S'725104119'
S'Kishlay Jha'
tp7
a(S'100000978773248'
S'Aman Chaudhary'
tp8
a(S'100001285494478'
S'Suryansh Suryavanshi'
tp9
a(S'1088709496'
S'Supriya Sekhar'
tp10
a(S'100000775840708'
S'Aman Kumar'
tp11
a(S'100001241304035'
S'Arun Sharma'
tp12
a(S'100001139743802'
S'Rajat Bansal'
tp13
a(S'100001149197877'
S'Surjeetsingh Khaira'
tp14
a(S'593776900'
S'Bhavuk Bansal'
tp15
a(S'1189368218'
S'Keshav Mohan'
tp16
a(S'693568679'
S'Aashutosh Todi'
tp17
a(S'761674764'
S'Mankaran Kharbanda'
tp18
a(S'100000183614985'
p19
S'Muzammil Hussain'
tp20
a(S'1628720611'
S'Sayali Phansikar'
tp21
a(S'1820446136'
S'Rohan Sharma'
tp22
a(S'690193956'
S'Gurvijay Singh'
tp23
a(S'723754358'
S'Srikanth Raj'
tp24
a(S'100001509253692'
S'Er Samarjeet Srivastava'
tp25
a(S'572374615'
S'Kunwar Lauren'
tp26
a(S'516694962'
S'Randhir Yadav'
tp27
a(S'643003519'
S'Samarth Jain'
tp28
a(S'536284686'
S'Samdish Khurana'
tp29
a(S'1143953070'
S'Sarthak Singh'
tp30
a(S'528641550'
S'Kunja Shrestha'
tp31
a(S'1371170811'
S'Akash Thakur'
tp32
a(S'517694775'
S'Pradipta De'
tp33
a(S'1021756931'
S'Nikita Shirodkar'
tp34
a(S'528546916'
S'Ravi Ranjan'
tp35
a(S'100000570831734'
S'John Casey'
tp36
a(S'1002618795'
S'Anant Gupta'
tp37
a(S'100001284913867'
S'Ritu Sharma'
tp38
a(S'722462528'
S'Rachit Goyal'
tp39
a(S'694504450'
S'Vaibhav Raj'
tp40
a(S'666514346'
S'Amit Agarwal'
tp41
a(S'505731467'
S'Rishab Dhall'
tp42
a(S'100002675479056'
S'Yashasvi Gupta'
tp43
a(S'675442424'
S'Jaskunwar Kohli'
tp44
a(S'548344709'
p45
S'Raghav Dahuja'
tp46
a(S'754723593'
p47
S'Abhineet Kanodia'
tp48
a(S'1285017408'
S'Kunwar Harmesh Singh'
tp49
a(S'595055754'
S'Uday Singh Sandhu'
tp50
a(S'501009898'
S'Udit Panjwani'
tp51
a(S'517895498'
S'Sawan Kukreja'
tp52
a(S'100000391613690'
S'Afif Amsal'
tp53
a(S'679945985'
S'Saagri Gupta'
tp54
a(S'723859168'
S'Aditya Gopalka'
tp55
a(S'595317142'
S'Rohit Chaudhary'
tp56
a(S'1666524055'
S'Sanchit Gupta'
tp57
a(S'514145503'
S'Ahmer Asif'
tp58
a(S'708642526'
S'Naveen Gupta'
tp59
a(S'100000997398122'
S'Ishita Chawla'
tp60
a(S'1842812306'
S'Akshay A Jhamb'
tp61
a(S'597207533'
S'Meraj Khan'
tp62
a(S'1465215674'
S'Abhishek Modi'
tp63
a(S'1274535893'
S'Prabal Mishra'
tp64
a(S'100004665847329'
S'Varun Sharma'
tp65
a(S'1099561481'
S'Chetan Anand'
tp66
a(S'625607073'
S'Aashish Panta'
tp67
a(S'1131023769'
S'Nitesh Agrawal'
tp68
a(S'515046249'
S'Sanil Chawla'
tp69
a(S'100000013907276'
S'Kunal Gupta'
tp70
a(S'100000936522721'
S'Dhvani Krishnan'
tp71
a(S'1272117676'
S'Sajal Batra'
tp72
a(S'1591044564'
S'Sidhant Agarwal'
tp73
a(S'100000905965421'
S'Gauri Rane'
tp74
a(S'601570103'
S'Ruchita Patil'
tp75
a(S'1474331833'
S'Krishna Aggarwal'
tp76
a(S'1048465559'
S'Pratyush Kumar'
tp77
a(S'714186907'
S'Zayed Zidane'
tp78
a(S'518157753'
S'Gaurav Dwivedi'
tp79
a(S'1178287063'
S'Prathibaa Kandaari'
tp80
a(S'535880378'
S'Chakshu Sharma'
tp81
a(S'100001863897513'
S'Utkarsh Gupta'
tp82
a(S'685885856'
S'Tejpratap Kahlon'
tp83
a(S'807439137'
S'Harsh Sharma'
tp84
a(S'1408045189'
p85
S'Keshav Agarwal'
tp86
a(S'671936365'
S'Siddharth Thard'
tp87
a(S'706951458'
S'Keshav Bhartia'
tp88
a(S'1330352842'
S'Nandini Singh'
tp89
a(S'1227032203'
S'Shivam Garg'
tp90
a(S'525885522'
S'Karna Puri'
tp91
a(S'100003767520638'
S'Rudra Nath Ghorai'
tp92
a(S'1378262677'
S'Zoravar Singh Jamwal'
tp93
a(S'1506886838'
S'Varun Loonkar'
tp94
a(S'663120925'
p95
S'Hursh Pratap Singh'
tp96
a(S'815579344'
S'Kushagra Parasher'
tp97
a(S'510480228'
S'Tushar Agarwal'
tp98
a(S'572384921'
S'Indrejeet Srivastava'
tp99
a(S'100003631364624'
S'Mahinder Kumar'
tp100
a(S'1398993831'
S'Rahul Dahiya'
tp101
a(S'1129781853'
S'Devanshu Goyal'
tp102
a(S'645237474'
S'Bharat Manchanda'
tp103
a(S'100002046818823'
S'Prateek Sharma'
tp104
a(S'1534044621'
S'Saumya Kapoor'
tp105
a(S'1206984707'
S'Rahul Sridhar'
tp106
a(S'1668474466'
p107
S'Shreepath Jain'
tp108
asS'id'
p109
S'725074445'
p110
sS'name'
p111
S'Narayan Dev Prasher'
p112
s.