(dp1
S'friends'
p2
(lp3
(S'100000661325471'
S'Bishwanath Jha'
tp4
a(S'1041574401'
S'Sahil Abhay'
tp5
a(S'100000801635264'
S'Ranjan Kumar'
tp6
a(S'1545349799'
S'Munindra Mohan Das'
tp7
a(S'100001637146930'
S'Ranjana Rosy'
tp8
a(S'100000820762320'
S'Jk Mishra'
tp9
a(S'1281622114'
S'Santosh Kumar'
tp10
a(S'1370554854'
S'Oma Sharma'
tp11
a(S'1209321011'
S'Kumud C P Patnaik'
tp12
a(S'1048152953'
S'Bala Krishnan'
tp13
a(S'100000195088614'
S'Abhash Mohan'
tp14
a(S'100004227912025'
S'Mukesh Agrawal'
tp15
a(S'100003357711742'
S'Pravin Punj'
tp16
a(S'100000162130222'
S'Rajiv Singh'
tp17
a(S'550139175'
S'Sangeeta Gupta'
tp18
a(S'100001433372032'
S'Dev Prakash Gupta'
tp19
a(S'100001572481305'
S'Rachna Mohan'
tp20
a(S'100001235717585'
S'Shubhashish Sircar'
tp21
a(S'100003170891903'
S'Usha Gupta'
tp22
a(S'812552177'
S'Vijay Minocha'
tp23
a(S'1002874675'
S'Narendra Bhagat'
tp24
a(S'1105982615'
S'Vijuy Ronjan'
tp25
a(S'100000123298035'
S'Pradip Kumar Das'
tp26
a(S'100001009464445'
S'Amitabh Kumar'
tp27
a(S'100002155587238'
S'Anup K Srivastava'
tp28
a(S'100003250883621'
S'Madhu Narayan'
tp29
a(S'100002847967215'
S'Mamta Chauhan'
tp30
a(S'100000280374252'
S'Anand Upadhyay'
tp31
a(S'1791320987'
S'Daya Shanker'
tp32
a(S'100000939221728'
S'Mithileshwar Jha'
tp33
a(S'1434018499'
S'Harish Chandra Dubey'
tp34
a(S'1590096191'
S'Ajay Chauhan'
tp35
a(S'1317437587'
S'Suman Singh'
tp36
a(S'100003046965572'
S'Rajan Singla'
tp37
a(S'571401469'
S'Athikho Obou'
tp38
a(S'100002555962899'
S'Uday Sahay'
tp39
a(S'100002445012008'
S'Nirmal Kumar Singh'
tp40
a(S'1340746858'
S'Urvashi Saxena'
tp41
a(S'517669950'
S'Sanjay Bhatia'
tp42
a(S'100000783643482'
S'Arun Parasar'
tp43
a(S'100001560158996'
S'Satyajit Vaidya'
tp44
a(S'573462156'
S'Viv\\u00e9k Gupta'
tp45
a(S'1415598660'
S'Sunil Ojha'
tp46
a(S'100001043469629'
S'Dee Loyi'
tp47
a(S'1577815009'
S'Prabhash Kumar'
tp48
a(S'100000741729954'
S'Bishwa Mohan'
tp49
a(S'100000281308340'
S'Deepa Verma'
tp50
a(S'100006599857106'
S'Kiran Lall'
tp51
a(S'100004872073029'
S'Sudhanshu Jha'
tp52
a(S'100002523043072'
S'Rajanikant Gupta'
tp53
a(S'100004218245008'
S'Nutan Chanda'
tp54
a(S'100003649629244'
S'Arun Roy'
tp55
a(S'1496400927'
S'Shyam Benupani'
tp56
a(S'100000049202753'
S'Vikas Ranjan'
tp57
a(S'1325319960'
S'Brahma Prakash Gaur'
tp58
a(S'1247297841'
S'Harishwar Dayal'
tp59
a(S'100001963308660'
S'Alok Lahoti'
tp60
a(S'1552368022'
S'Sunil Mehrotra'
tp61
a(S'549536534'
S'Rajan Bahadur'
tp62
a(S'100000948873509'
S'Manohar Lal'
tp63
a(S'100001043915438'
S'Jyoti Kumari'
tp64
a(S'28123923'
S'Preethy Prasad'
tp65
a(S'665892502'
S'Rameshwar Prasad'
tp66
a(S'707279394'
S'Mahua Sarkar'
tp67
a(S'1605216153'
S'Vinod Kumar Pandey'
tp68
a(S'100001541028344'
S'Ranjit Kumar Paul'
tp69
a(S'631897383'
S'Arunesh Sharan'
tp70
a(S'100000611075409'
S'Feroz Khan'
tp71
a(S'100000109041124'
S'Manoj Kumar'
tp72
a(S'100002499200124'
S'Divakar Mishra'
tp73
a(S'1736149126'
S'Avinash Gupta'
tp74
a(S'100007968253656'
S'Shashi Prabha Gupta'
tp75
a(S'586916556'
S'Prachi Sinha'
tp76
a(S'100000796801229'
S'Upendra Prasad Singh'
tp77
a(S'1414873181'
S'Vijoy Prakash'
tp78
a(S'578641426'
S'Vishesh Kumar'
tp79
a(S'100000582849283'
S'Anjani Kumar'
tp80
a(S'780190706'
S'Ram Mohan Tiwari'
tp81
a(S'1533476602'
S'Manoj Kumar'
tp82
a(S'100001776240766'
S'Pramod Kumar'
tp83
a(S'1446766547'
S'Dilip Gupta'
tp84
a(S'100001224762700'
S'Bimalendra Nath Ojha'
tp85
a(S'812219195'
S'Bhuwan M. Prasad'
tp86
a(S'766719488'
S'Ajay Srivastava'
tp87
a(S'8644185'
S'Shuchi Kumar'
tp88
a(S'100000957913899'
S'Sanjeeva Kumar'
tp89
a(S'1205814760'
S'Sanjiv Shankar'
tp90
a(S'100002902513888'
S'Manoj Kumar'
tp91
a(S'1092015360'
S'Nandini Naik'
tp92
a(S'100000034477039'
S'Rajesh Prasad Sinha'
tp93
a(S'100001273550575'
S'Sudeshna Mukherjee'
tp94
a(S'100002697571664'
S'Drkn Lal'
tp95
a(S'1019736270'
S'Pravin Varma'
tp96
a(S'1257739213'
S'Antra Gupta'
tp97
a(S'100001433369025'
S'Akhileshwar Sharma'
tp98
a(S'100002012243026'
S'Savitri Gupta'
tp99
a(S'100002178840455'
S'Neeraj Bansal'
tp100
a(S'1427071599'
S'Ashok Bal'
tp101
a(S'100006868353807'
S'Ramesh Khaitan'
tp102
a(S'628167813'
S'Jyotsna Gupta'
tp103
asS'id'
p104
S'729859750'
p105
sS'name'
p106
S'Krishna Mohan Prasad'
p107
s.