(dp1
S'friends'
p2
(lp3
(S'1367748392'
S'Ahmed Hasan'
tp4
a(S'100001847410931'
S'Nazir Hussain'
tp5
a(S'100000570551341'
S'Jahangir Hyder'
tp6
a(S'100003561245376'
S'Sohail Wali'
tp7
a(S'100001523501659'
S'Syed Asad Ali Xa'
tp8
a(S'100001086271635'
S'Mee Hussain'
tp9
a(S'1629660936'
S'Daniyal Ijaz'
tp10
a(S'100003860686254'
S'Mumtaz Hussain Riza'
tp11
a(S'100001557190534'
S'Aaheel Abdul Aziz'
tp12
a(S'511993087'
S'Tanveeralam Khan'
tp13
a(S'100004771244434'
S'Altaf Hussain'
tp14
a(S'100003398950265'
S'Inzamam Shami'
tp15
a(S'100000130677488'
S'Khurshid Khan'
tp16
a(S'1093759217'
S'Basharat Ali'
tp17
a(S'1032223916'
S'Muhammad Ali'
tp18
a(S'100000498742200'
S'Abdur Rauf'
tp19
a(S'1179831009'
S'Syed Akber'
tp20
a(S'100002151587429'
S'Enam Khan Yaftali'
tp21
a(S'1057910012'
S'Sartaj Aziz Taju'
tp22
a(S'100003985643739'
S'Zidran Ali Chitrali'
tp23
a(S'100002070910174'
S'Shahzad Ali Raza'
tp24
a(S'1270895801'
S'Syed Mubashir Imam'
tp25
a(S'737690700'
S'Umair Mahmood'
tp26
a(S'1491791631'
S'Showkat Aly'
tp27
a(S'1748213920'
S'Mushahid Hussain'
tp28
a(S'664579274'
S'Zulfiqar Ahmed'
tp29
a(S'100000271875900'
S'Syed Meisam Bokhari'
tp30
a(S'100001547198284'
S'Musarat Shaheen Dukhtere Chitral'
tp31
a(S'1134811620'
S'Mehras Tayyab'
tp32
a(S'100000873836446'
S'Shafiqur Rehman'
tp33
a(S'100000233095854'
S'Nizam Ali'
tp34
a(S'100005740628486'
S'Ehsan Ullah'
tp35
a(S'100000795068446'
S'Hayat Ur Rehman Sangal'
tp36
a(S'100005810651333'
S'Irfan Ali'
tp37
a(S'1246421195'
S'Waleed Khalid'
tp38
a(S'100001426759353'
S'Ali Bux'
tp39
a(S'100000602454187'
S'Ghulam Ali'
tp40
a(S'100003588144364'
S'Azeem Sarwar'
tp41
a(S'100005087585813'
S'Farhan Abbas'
tp42
a(S'100000854648276'
S'Azhar Ali'
tp43
a(S'100002990904271'
S'Sartaj Aziz'
tp44
a(S'100005845326541'
S'Shakir Ali'
tp45
a(S'646933447'
S'Shawaiz Shah'
tp46
a(S'100003948402689'
S'Wasigh Ali'
tp47
a(S'100004942509595'
S'Ali Haider Khan'
tp48
a(S'100003119817411'
S'Shah Salim'
tp49
a(S'100004475912447'
S'Muluk Basharat'
tp50
a(S'100000211078185'
S'Yaqoob Ali'
tp51
a(S'100003569272474'
S'Daniel Camroon'
tp52
a(S'100002290309340'
S'Syed Arham'
tp53
a(S'100003228477751'
S'Ali Khan'
tp54
a(S'100004837114294'
S'Amir Ajab'
tp55
a(S'100000602008030'
S'Tanzeel Ur Rehman'
tp56
a(S'100000164540710'
S'Fahad Ul Mulk'
tp57
a(S'100004432145235'
S'Riza Ahmad'
tp58
a(S'100000943225066'
S'Shakir Ali'
tp59
a(S'100005122478527'
S'Zeeshan Baba'
tp60
a(S'1409864522'
S'Izhar Ulhaq'
tp61
a(S'100001468553811'
S'Ahsan Aslam'
tp62
a(S'100001598927167'
S'Bashir Ahmad Khan'
tp63
a(S'100004037867344'
S'Muhammad Sadiq'
tp64
a(S'100000960379284'
S'Khalid Akbar'
tp65
a(S'100000952482292'
S'Zakir Ahmad Zakirin'
tp66
a(S'100000967929787'
S'Zahid Hasan'
tp67
a(S'100000278630478'
S'Aziz Uddin'
tp68
a(S'100001638316070'
S'Mirza Ali'
tp69
a(S'100001795817864'
S'Hassan Aly ShaAn'
tp70
a(S'100003185810171'
S'Mashkoor Ahmad'
tp71
a(S'1571289126'
S'Miriam Wirbel-Wind'
tp72
a(S'100000653256582'
S'Naveed Akhtar'
tp73
a(S'839760466'
S'Myra Ahsan Khan'
tp74
a(S'1400412912'
S'Shamsher Gokrani'
tp75
a(S'100008248544546'
S'Nofil Saleemi'
tp76
a(S'100000764071680'
S'Zeeshan Virani'
tp77
a(S'100001637860701'
S'InnAm R KhAn'
tp78
a(S'100000560127852'
S'Kashif Zeeshan'
tp79
a(S'1556536673'
S'Asif Iqbal'
tp80
a(S'1833129383'
S'Tanveer Ali Khan'
tp81
a(S'1215092551'
S'Iqbal Khan'
tp82
a(S'617837350'
S'Umair Mesiya'
tp83
a(S'100000028543156'
S'Momina Mindeel'
tp84
a(S'100001565890028'
S'Riaz Hussain'
tp85
a(S'100000562924561'
S'Amin Khan'
tp86
a(S'100002279045514'
S'Azhar Uddin'
tp87
a(S'100003877493268'
S'Mohammad Akif Ramzan'
tp88
a(S'100004041739873'
S'Ifti Qasimi'
tp89
a(S'100003302438185'
S'Ibrar Khan'
tp90
a(S'100003177928160'
S'Abdul Shafi'
tp91
a(S'669687718'
S'Karim Barkat Samnani'
tp92
a(S'1365939275'
S'Ali Tauqir'
tp93
a(S'100003177212703'
S'Iqbal Ali'
tp94
a(S'1368960541'
S'Z.a. Zulfi'
tp95
a(S'100002020732869'
S'Zia Uddin'
tp96
a(S'100003214389610'
S'Naeem Ul Hassan'
tp97
a(S'1762502312'
S'Atif Riaz'
tp98
a(S'759057441'
S'Saqib Mirza'
tp99
a(S'100005668745878'
S'Aftab Hussain'
tp100
a(S'100000295701255'
S'Muhammad Salman Khalid'
tp101
a(S'100006435450734'
S'Shabir Khisrow'
tp102
a(S'100005815955636'
S'Faizan Sharif'
tp103
a(S'1324539162'
S'Raza Ali'
tp104
a(S'1436619920'
S'Naveidd Beyg'
tp105
a(S'100003367780124'
S'Rahmat Elliyas'
tp106
a(S'589835552'
S'Ahsanullah Meer'
tp107
a(S'100003248902184'
S'Sajjad Ali'
tp108
a(S'100003568887525'
S'Chitral Hindukush'
tp109
a(S'100001631851768'
S'Sibtain Haider'
tp110
a(S'684193844'
S'Umar Rafee'
tp111
a(S'100000315457689'
S'Shah Nawaz Ali Qasim'
tp112
a(S'100001063471429'
S'Fani Ef'
tp113
a(S'100001839557074'
S'Rafia Murtaza'
tp114
a(S'605446884'
S'Saad Khatri'
tp115
a(S'100000843449048'
S'Ali Naeem Sheikh'
tp116
a(S'100005004673708'
S'Akram Ali'
tp117
a(S'100000603190991'
S'Muhammad Kazim'
tp118
a(S'100000459922739'
S'Tajwar Aly'
tp119
a(S'100001752831471'
S'Ijaz Ali Khan'
tp120
a(S'100006672221236'
S'Yasir Alam Taj Zond'
tp121
a(S'100000572658588'
S'Aftab Ayub'
tp122
a(S'100002244004996'
S'Zia Uddin'
tp123
a(S'1405764835'
S'Zaheer Macnojia'
tp124
a(S'100002419925251'
S'Hamid Suleman'
tp125
a(S'100001280511868'
S'Saif Uddin'
tp126
a(S'100003033939773'
S'Saif UL Aman A'
tp127
a(S'100000779473669'
S'Muhammad Amin'
tp128
a(S'1036194273'
S'Fakhre Alam Taj'
tp129
a(S'100002633184679'
S'M Shafiq Pervez'
tp130
a(S'100001477372734'
S'Nibiee Khan'
tp131
a(S'512069441'
S'Nazir Ul Haq'
tp132
a(S'100001689716316'
S'Waqas Saeed'
tp133
a(S'100005478940526'
S'Nauman Ali'
tp134
a(S'100002205903885'
S'Uzma Saif'
tp135
a(S'100000537903537'
S'Shahji Zee'
tp136
a(S'100000786142405'
S'AH IL'
tp137
a(S'100001882147188'
S'Mohammad Arif'
tp138
a(S'100003853136232'
S'Shoaib Mustafa'
tp139
a(S'1685355052'
S'Waleed Bin Usman'
tp140
a(S'100002943309095'
S'Shehriyar KHan'
tp141
a(S'100001840464779'
S'Abdul Razzaq'
tp142
a(S'100001336079224'
S'Hisam Uddin'
tp143
a(S'100002590677432'
S'Muhammad Israr'
tp144
a(S'1421537979'
S'Sajjad Ali'
tp145
a(S'852245458'
S'Sara Afzal'
tp146
a(S'100000286765069'
S'Zafar Ali'
tp147
a(S'1039295709'
S'Saif Ali'
tp148
a(S'1068409151'
S'Momin Ali Munshi'
tp149
a(S'100004166790285'
S'Fida Ul Karim'
tp150
a(S'100000303690747'
S'Dawar Nauman Butt'
tp151
a(S'100004874914775'
S'Zahir Uddin'
tp152
a(S'100002870450914'
S'Ahmed Faraz Ayubi'
tp153
a(S'100000095015631'
S'Shafeeq Ali'
tp154
a(S'511586853'
S'Iqbal Barcha'
tp155
a(S'100000108798308'
S'Muhammad Ali'
tp156
a(S'796200396'
S'Rahim Ullah Danish'
tp157
a(S'1104101133'
S'Shaukatbaba Shaukat'
tp158
a(S'586886845'
S'Hariss Ahmed Butt'
tp159
a(S'100001829881148'
S'Iftikhar Hussain Raees'
tp160
a(S'100001943386695'
S'Didar Murad'
tp161
a(S'672872780'
S'Zeeshan Damani'
tp162
a(S'100001906671039'
S'Atif Alam'
tp163
a(S'100003863755719'
S'Haris Molwani'
tp164
a(S'100002876425406'
S'Zeeshan Uddin'
tp165
a(S'100000034060526'
S'Mir Sanaullah Khan'
tp166
a(S'100001526043014'
S'Arshad Ayub'
tp167
a(S'100000482731229'
S'Mukhtar Ali Khan'
tp168
a(S'100003474095994'
S'Anila Naz'
tp169
a(S'100001643578728'
S'Haris Ali'
tp170
a(S'100001838533710'
S'Ahsan Butt'
tp171
a(S'639783422'
S'Sajjad Bilal Haider'
tp172
a(S'100002115831506'
S'Ramish Hassan'
tp173
a(S'100002223751786'
S'Maryam Khan'
tp174
a(S'100003640537095'
S'Waseem Saboor'
tp175
a(S'100000735762540'
S'Adil Chattha'
tp176
a(S'100002968821618'
S'Irfan Ali Khushal'
tp177
a(S'100000707396347'
S'Arslan Javed'
tp178
a(S'1486111286'
S'Naveed Sangal'
tp179
a(S'100001713982330'
S'Yasir Aly'
tp180
a(S'100001063086778'
S'Syed Sajid Raza'
tp181
a(S'100000902197229'
S'Atiq Ullah'
tp182
a(S'844265200'
S'Rohail Ahuja'
tp183
a(S'100001953011381'
S'Ijaz Aly Khan'
tp184
a(S'100000490007578'
S'Khursheed Ahmed'
tp185
a(S'100000869264206'
S'Noor Alam Khan'
tp186
a(S'1790926793'
S'Azka Shoaib'
tp187
a(S'1379860275'
S'Saad Ahmed Khan'
tp188
a(S'100002666823682'
S'Kamran Baig'
tp189
a(S'100001585459367'
S'Sadiq Ali'
tp190
a(S'1723710521'
S'Muhammad Musa Khan'
tp191
a(S'576380174'
S'Ehsan Ul Haq'
tp192
a(S'100002536822147'
S'Prince Safeer'
tp193
a(S'100000754553624'
S'Sajjad Vayani'
tp194
a(S'100002163601461'
S'Yasir Rana Singh'
tp195
a(S'100003336568191'
S'Ishaq Ahmad'
tp196
a(S'100000895853799'
S'Riaz Hussain'
tp197
a(S'100003765362766'
S'Nawaz Ali Elgas'
tp198
a(S'1358948084'
S'Ovais Siddiqui'
tp199
a(S'100002430979797'
S'Farhad Alam Raza'
tp200
a(S'550807845'
S'Waleed Hassan'
tp201
a(S'100002848888062'
S'Jehad Ali'
tp202
a(S'100006277324054'
S'Ali Iftikhar'
tp203
a(S'100001549066971'
S'Aitzaz Khan Chitrali'
tp204
a(S'100001799144431'
S'ASif IQbal'
tp205
a(S'100000699501019'
S'Riza Illahi'
tp206
a(S'100001716412691'
S'Javed Khan'
tp207
a(S'100005118541324'
S'Fehmeeda Ihsan'
tp208
a(S'100000086655515'
S'Samaiz Arshed'
tp209
a(S'1570355175'
S'Muhammad Haris'
tp210
a(S'100002792142930'
S'Abid Aly'
tp211
a(S'100003741892703'
S'Shahsawar Shah Pirzada'
tp212
a(S'100000090564287'
S'Shahid Ali Khan'
tp213
a(S'100001527955304'
S'Ali Rehan'
tp214
a(S'100001387853415'
S'Rao Mehboob'
tp215
a(S'100003911366457'
S'Khursheed Ur Rehman'
tp216
a(S'1170297361'
S'Zahir Kamran'
tp217
a(S'1714521599'
S'Ali Shan'
tp218
a(S'611506180'
S'Aziz Hussain'
tp219
a(S'100001615533475'
S'Sufia Qazi'
tp220
a(S'1804029625'
S'Junaid Alam'
tp221
a(S'100002165463683'
S'Shakeel Ahmad'
tp222
a(S'716902386'
S'Sahar Malik'
tp223
a(S'100003637819608'
S'Asad Hussain'
tp224
a(S'100001985176981'
S'Sajid Ali'
tp225
a(S'708894008'
S'Hammad Bozai'
tp226
a(S'100001331968928'
S'Zunash Ali'
tp227
a(S'100007268190626'
S'Nawab Ali'
tp228
a(S'100001376488543'
S'Iqrarulamin Amin'
tp229
a(S'100002999542942'
S'Kashif Afham'
tp230
a(S'100002874883649'
S'Ansar Ali'
tp231
a(S'1069871205'
S'Akhtar Nawaz'
tp232
a(S'1471651433'
S'Muhammad Khursheed'
tp233
a(S'511492227'
S'Abid Karim Tashi'
tp234
a(S'100004431129933'
S'Majid Alam'
tp235
a(S'100001988739562'
S'Zeeshan Alam'
tp236
a(S'631627010'
S'Amna Kasumbi'
tp237
a(S'1159504127'
S'Zaeem Shahid'
tp238
a(S'100000355224422'
S'Sikandar Wali Bazi'
tp239
a(S'100000497157853'
S'Sehran Sirang'
tp240
a(S'1435712402'
S'Isshhtiyak Axhar'
tp241
a(S'100003756503159'
S'Zeeshan Ahmad'
tp242
a(S'100001664425885'
S'Shakila Naz'
tp243
a(S'100001918348214'
S'Mustansir Hussain'
tp244
a(S'1083348861'
S'Awais Ali Khan'
tp245
a(S'100005544437547'
S'Ihtishamali Hassan'
tp246
a(S'100000652971907'
S'Muhammed Junaid'
tp247
a(S'100002455786506'
S'Shafiq Ahmad'
tp248
a(S'100002956845863'
S'KaMran Ali'
tp249
a(S'100000516900695'
S'Wahid Khan'
tp250
a(S'100004445160193'
S'Sikandar Ali Riza'
tp251
a(S'100002999891513'
S'Akhtar Hussain'
tp252
a(S'100001431491423'
S'Sheraz Ali Chitrali'
tp253
a(S'100002828233757'
S'Saddam Khan Rehan'
tp254
a(S'1423683346'
S'Altamishh Azharr'
tp255
a(S'538148790'
S'Zulfiqar Ali'
tp256
a(S'100001669653796'
S'Hussain Nadir'
tp257
a(S'100001726228469'
S'Masood Ulhaq Masroof'
tp258
a(S'100000411156396'
S'Nasir Abbas Sokhmir'
tp259
a(S'100001330732514'
S'Didar Murad'
tp260
a(S'100000132954233'
S'Sikander Saeed'
tp261
a(S'100007184132978'
S'Irfan Ali Khan'
tp262
a(S'1479177787'
S'Usman Tanveer Malik'
tp263
a(S'100005166160084'
S'Azhar Taban'
tp264
a(S'100000332200725'
S'Zubair Khan'
tp265
a(S'627830044'
S'Shahroz Punjwani'
tp266
a(S'100002618903791'
S'Waqar Khan'
tp267
a(S'100001644003192'
S'Alyazim Maredia'
tp268
a(S'633117745'
S'Syed Waqas Imam'
tp269
a(S'100002461185902'
S'Rehan Shan'
tp270
a(S'100000841419746'
S'Ahmad Bilal'
tp271
a(S'1611220657'
S'Salman Ali'
tp272
a(S'100003019913999'
S'Ijaz Ali'
tp273
a(S'100002579175619'
S'Qamar Ali'
tp274
a(S'100000820201352'
S'Nouman Bashi'
tp275
a(S'1195066122'
S'Muhammad Ibraheem'
tp276
a(S'100000220507596'
S'Aaftab Riza'
tp277
a(S'887220706'
S'Maha Abubakr'
tp278
a(S'100001569118596'
S'Riaz Ali'
tp279
a(S'100002666125662'
S'Arif Hussain'
tp280
a(S'1220440192'
S'Tariqullah Khan'
tp281
a(S'100000243826689'
S'Zahir Uddin'
tp282
a(S'100001526679057'
S'Alamzeb Shahzad'
tp283
a(S'581360304'
S'Adnan Tambawala'
tp284
a(S'100002235505082'
S'Zeeshan Noor'
tp285
a(S'100000741954162'
S'Noor Shamsuddin'
tp286
a(S'100000044375558'
S'Irfan Uddin'
tp287
a(S'651780522'
S'Ziyad Sohail'
tp288
a(S'755744500'
S'Mizan Rattani'
tp289
a(S'672376955'
S'Israr Saboor'
tp290
a(S'100000205678481'
S'Sona Rock'
tp291
a(S'1145685878'
S'Zeeshan Kareemi'
tp292
a(S'100001964745631'
S'Basharat Ahmad Hassan'
tp293
a(S'100002325384316'
S'Sadruddin Arif'
tp294
a(S'1188815038'
S'Omer Imran Malik'
tp295
a(S'526988478'
S'Sabeeh Yunus'
tp296
a(S'100004836907799'
S'Waqar Ahmad'
tp297
a(S'100003720193820'
S'Saeed Iqbal Roomi'
tp298
a(S'100000545775630'
S'Muhkam Ali'
tp299
a(S'100003569597239'
S'Mahbob Sangal'
tp300
a(S'100002652078948'
S'Ahsan Rehman'
tp301
a(S'100000982301196'
S'Sohail Ahmad'
tp302
a(S'1138181291'
S'Syed Muhammad Ali'
tp303
a(S'100000282801222'
S'Asad Rauf'
tp304
a(S'100002906152073'
S'Nouman Khan'
tp305
a(S'1786090813'
S'Noshad Ali'
tp306
a(S'100004458342550'
S'Khalid Hussain Mangoal'
tp307
a(S'100000559836617'
S'Sarwar Murad'
tp308
a(S'100002110985457'
S'Asif Rehman'
tp309
a(S'100001972555115'
S'Aftab Nawaz'
tp310
a(S'1237763796'
S'Fida Ali'
tp311
a(S'1842911688'
S'Mohammad Ali Ansari'
tp312
a(S'100000249951424'
S'\\u0160\\u00e0\\u00eff\\u00ea\\u00ebl K\\u00e0rov\\u00e5di\\u00e2'
tp313
a(S'100004662000311'
S'Saju Ali'
tp314
a(S'603005124'
S'Amna Memon'
tp315
a(S'100005988550594'
S'Arsalan Hussain'
tp316
a(S'100002562770639'
S'Haroon Nasir'
tp317
a(S'100003165204749'
S'Fida Ali'
tp318
a(S'100000555114425'
S'Israr Uddin'
tp319
a(S'100002530141579'
S'Waqas Arif'
tp320
a(S'1432923612'
S'Mujeeb Saboor'
tp321
a(S'1556365765'
S'Umar Farqalith'
tp322
a(S'1051969794'
S'Babar Ali'
tp323
a(S'100004565671740'
S'Fida Hussain'
tp324
a(S'100000289551550'
S'Maryam Zia'
tp325
a(S'100000121099857'
S'Muhammad Irshad Ali'
tp326
a(S'646350644'
S'Dawood Khalid'
tp327
a(S'100001967904289'
S'Aryan Khan'
tp328
a(S'100000773216187'
S'Shakir Hussain'
tp329
a(S'100001005417351'
S'Wahab Saba'
tp330
a(S'100004213742416'
S'Zeeshan Noves'
tp331
a(S'100000620462154'
S'Masood Alam'
tp332
a(S'100001190218404'
S'Farhan Ali'
tp333
a(S'100001632451254'
S'Shafy Ollah'
tp334
a(S'100003379860731'
S'Didar Ali Baba'
tp335
a(S'100000109009749'
S'Amir Sohail'
tp336
a(S'100001301646469'
S'Hussain Wali Taj'
tp337
a(S'100005223341695'
S'Zaheer Uddin'
tp338
a(S'100000713546602'
S'Abizar Ali'
tp339
a(S'1109580985'
S'Sardar Ahmed Shah Durrani'
tp340
a(S'100001458294644'
S'Jahangir Jan'
tp341
a(S'100001370715759'
S'Waqar Ali'
tp342
a(S'100000832830551'
S'Enaam Khan'
tp343
a(S'1338619312'
S'Waqas Sikandari'
tp344
a(S'100005820572902'
S'Amjad Qadir'
tp345
a(S'1681372424'
S'Bilal Naiyer'
tp346
a(S'100000841648627'
S'Shakeela Naz'
tp347
a(S'100000840203487'
S'Afzal Wali Badakhsh'
tp348
a(S'1058149342'
S'Inam U Khan Rizakhel'
tp349
a(S'1506815611'
S'Raheel Baig'
tp350
a(S'100000752154195'
S'Rizwan Din'
tp351
a(S'795585461'
S'Altaf Chitrali'
tp352
a(S'100002911535973'
S'Asif Ali Khan'
tp353
a(S'100003825891925'
S'Aziz Nawaz'
tp354
a(S'589930384'
S'Rizwan Ali'
tp355
a(S'100003343385283'
S'Adnan Nadir'
tp356
a(S'100007951806768'
S'Syed Maqbool Hussain Shah'
tp357
a(S'687215076'
S'Abdullah Khushkarzada'
tp358
a(S'100002943407616'
S'Aman Ullah Faiz'
tp359
a(S'100004227451260'
S'Masood Ali Akhss'
tp360
a(S'100001494840318'
S'Hussain Murad'
tp361
a(S'584914514'
S'Amjad N. Taj'
tp362
a(S'100000841685586'
S'Nazan Mir'
tp363
a(S'100002011693728'
S'Royal Ayubian'
tp364
a(S'100000185019386'
S'Mariam Siddiqui'
tp365
a(S'100003368438349'
S'Shahzada Ashraf'
tp366
a(S'100005319211554'
S'Hadeed Hassan'
tp367
a(S'1010499265'
S'Shalan Naqvi'
tp368
a(S'100004376310180'
S'Shakeel Ahmad Durani'
tp369
a(S'100001689947973'
S'Sadruddin Arif'
tp370
a(S'1464673124'
S'Hamza Javaid'
tp371
a(S'606353480'
S'Suwdi Islam'
tp372
a(S'100001783449215'
S'Asif Azeem'
tp373
a(S'1110041503'
S'Ahsan Raza Gardezi'
tp374
a(S'1254060751'
S'Fardad Baig'
tp375
a(S'100000919158243'
S'Jamshed Ali Khan'
tp376
a(S'100001893026033'
S'Syed Karim Ali Shah'
tp377
a(S'664401914'
S'Shamsher Ali Khan'
tp378
a(S'1432382453'
S'Asif Ali'
tp379
a(S'1825777059'
S'Umair Ahmad Kundi'
tp380
a(S'588734536'
S'Anila Shafa'
tp381
a(S'100001481752805'
S'Javed Iqbal'
tp382
a(S'100001175269528'
S'Shahzad Ali'
tp383
a(S'100001542746503'
S'Mudasir Akbar'
tp384
a(S'100000250029093'
S'Nilma Karam Ali'
tp385
a(S'100002573410653'
S'Javeed Ali Bazi'
tp386
a(S'100002637852055'
S'Aqib Syed'
tp387
a(S'100003211183698'
S'Ishaq Iqbal'
tp388
a(S'100001904886632'
S'Shabnum Sardar'
tp389
a(S'597227441'
S'Subhan Uddin'
tp390
a(S'1418040252'
S'Nasir Ali Tasir'
tp391
a(S'100002674821057'
S'Zuhad Bajwa Ferozpuri'
tp392
a(S'100000752533373'
S'Shamsher Ali Khan'
tp393
a(S'100002021694876'
S'Rashid Dukhi'
tp394
a(S'1559576999'
S'Siraj Ali Shah'
tp395
a(S'100005575993021'
S'Azeem Mirza'
tp396
a(S'100001462607388'
S'JAn Saifullah'
tp397
a(S'100001086572233'
S'Naved Ali'
tp398
a(S'100002121670467'
S'Muhammad Jalal'
tp399
a(S'100006647734727'
S'\\u0627\\u062d\\u0645\\u062f \\u0639\\u0644\\u06cc'
tp400
a(S'1594131021'
S'Rahim Daad'
tp401
a(S'100005130332882'
S'Faraz Alyy'
tp402
a(S'100001946142844'
S'Asad Ali'
tp403
a(S'100001997688148'
S'A Basit Ali Khan'
tp404
a(S'100006623075820'
S'Israr Uddin'
tp405
a(S'100002514627577'
S'Fakhre Alam'
tp406
a(S'100003810849408'
S'Salman Hussain'
tp407
a(S'100000683273405'
S'Shiva Elina'
tp408
a(S'100000068963297'
S'Waqas Ali Muluk'
tp409
a(S'100003280785833'
S'Akhtar Rasool'
tp410
a(S'100004569240621'
S'Kashif Ali'
tp411
a(S'100003361295400'
S'Yaseen Vadsariya'
tp412
a(S'684629456'
S'Sherzad Ali Hyder'
tp413
a(S'100007044582420'
S'Abid Ullah'
tp414
a(S'1812256960'
S'\\u0428\\u0430\\u0441\\u0438\\u043c \\u041a\\u0447\\u0430\\u043d'
tp415
a(S'1376869024'
S'Inayat Ullah Farghani'
tp416
a(S'100002315620621'
S'AbdurRehman Naveed'
tp417
a(S'100001363970448'
S'Naeem Abbas Abid'
tp418
a(S'589920031'
S'Masroor Nadir Taj'
tp419
a(S'1307133728'
S'Ikram Ul Haq'
tp420
a(S'100003777193274'
S'Obaid Basit'
tp421
a(S'100000155832211'
S'Aleem Haider'
tp422
a(S'100001532273277'
S'Faiz Ali'
tp423
a(S'796230345'
S'Zargham Gilani'
tp424
a(S'1522130338'
S'Uzair Aftab'
tp425
a(S'100001308628352'
S'Agha Safdar'
tp426
a(S'625900014'
S'Aeman Husain'
tp427
a(S'100000125194365'
S'Xubair Shah'
tp428
a(S'100001810706348'
S'Alamzeb Shahzad'
tp429
a(S'1841056005'
S'Jamal Munir'
tp430
a(S'100001396502366'
S'Faiz Ali'
tp431
a(S'100002427621325'
S'Naveed Hassan Nawaz'
tp432
a(S'1038070206'
S'Sanam Barkat'
tp433
a(S'100000053540354'
S'Arslan Baig'
tp434
a(S'100002186233861'
S'Meraj Zundary Ali'
tp435
a(S'100000452308206'
S'Anwar Khan'
tp436
a(S'100000029883928'
S'Binish Aly'
tp437
a(S'100005260453461'
S'Sultan Kamaal'
tp438
a(S'100001688284831'
S'Syed Sardar'
tp439
a(S'100000666552794'
S'Javed Saboor'
tp440
a(S'100000001695209'
S'Zeehasham Malik'
tp441
a(S'100000711412359'
S'QaHir Ali'
tp442
a(S'100003079163556'
S'Adnan Rasheed'
tp443
a(S'100003037288921'
S'Shahzad Hussain'
tp444
a(S'664352412'
S'Saquiba Aziz'
tp445
a(S'100002674147070'
S'Safeer Alvi'
tp446
a(S'100000032701043'
S'Sabrina Karam'
tp447
a(S'100001681598214'
S'Mubarak Hussain'
tp448
a(S'100001868963947'
S'Seedasada Sada'
tp449
a(S'571162599'
S'Khalid Hayat'
tp450
a(S'615555695'
S'Sultan Abbas'
tp451
a(S'100001756741428'
S'Ashfaq Rahmat'
tp452
a(S'100002338606656'
S'Syed Mueenuddin'
tp453
a(S'100003818121956'
S'Aziz Nawaz'
tp454
a(S'100004106588104'
S'Asif Ali'
tp455
a(S'100002521192835'
S'Yahya Sattar'
tp456
a(S'100000952058553'
S'Naveed Raza'
tp457
a(S'100006408452547'
S'Wajid Ali'
tp458
a(S'100000410273810'
S'Zohaib Hashmi'
tp459
a(S'100006906401413'
S'Wasim Sultan'
tp460
a(S'100001285187111'
S'Jadi Khan Raees'
tp461
a(S'100003083064276'
S'Malik Sardar'
tp462
a(S'100001552338525'
S'Farzand Ali'
tp463
a(S'100002562169605'
S'Sherwan Ali'
tp464
a(S'100002529188005'
S'Arfa Younus'
tp465
a(S'100003548064685'
S'Priya Sajjad'
tp466
a(S'100004857066666'
S'Suwail SShorida'
tp467
a(S'100002867300645'
S'Zahoor Ul Mominin'
tp468
a(S'1772054504'
S'Rao Shahab Ur Rehman'
tp469
a(S'585615103'
S'Ali Zia Ibn Hyder'
tp470
a(S'556440769'
S'Rao Muhammad Abdullah'
tp471
a(S'100001017011861'
S'Alamgir Sangal'
tp472
a(S'100000543045640'
S'Adil Shah Sadaat'
tp473
a(S'100004143032449'
S'Altamish Afham'
tp474
a(S'677303941'
S'Ali Khan'
tp475
a(S'100004666179804'
S'Shahxaib Haxhmi'
tp476
a(S'100002467388265'
S'Ahsan Ulhaq'
tp477
a(S'733763276'
S'Karam Ali'
tp478
a(S'100008124434057'
S'Zahid Ali Shah'
tp479
a(S'100000842455225'
S'Fakhrull Islam'
tp480
a(S'100001597805407'
S'Riyax Aly Xhaad'
tp481
a(S'100001641711642'
S'Sheikh Shahan'
tp482
a(S'100002061348563'
S'Kmram Naqvi'
tp483
a(S'100002446863166'
S'Yousuf Haroon'
tp484
a(S'100001603386317'
S'Husayn Ali'
tp485
a(S'100002540379479'
S'Atif Khan'
tp486
a(S'100005222949615'
S'Nofil Husayn'
tp487
a(S'602653592'
S'Shayan Lalani'
tp488
a(S'100002380459768'
S'Abdul Majid'
tp489
a(S'100000611019369'
S'Ali Khan'
tp490
a(S'100002201658310'
S'Syed Fahim Saleh'
tp491
a(S'697999787'
S'Zayn Maqbool Asrani'
tp492
a(S'100001417215170'
S'Rao Khurram Axam'
tp493
a(S'100001456620951'
S'ZunAir TaLat'
tp494
a(S'100001822491344'
S'Arif Hussain Khan'
tp495
a(S'100001158248983'
S'Zeeshan Yousuf'
tp496
a(S'100000617854046'
S'Zaheer Ud Din Baber'
tp497
a(S'100000742047439'
S'Amjad Hussain'
tp498
a(S'1354911555'
S'Shoaib Ahmed'
tp499
a(S'100003261333562'
S'Inam Ullah'
tp500
a(S'100000849487677'
S'Allahyar Khan'
tp501
a(S'100000696405665'
S'Syed Jafar Ali Shah'
tp502
a(S'100002295842449'
S'Faruq Khan Nowroz Raees'
tp503
a(S'512114951'
S'Inam Ul Haq'
tp504
a(S'100002307218315'
S'Alesh NV'
tp505
a(S'100001665259948'
S'Nasir Khan'
tp506
a(S'667983631'
S'Abdullah Rrico Atif'
tp507
a(S'100004735268294'
S'Kamran Beigal'
tp508
a(S'100001454273657'
S'Syed Safir'
tp509
a(S'100002797180896'
S'Akbar Ali Khan'
tp510
a(S'100003911352820'
S'Mursal Nasir'
tp511
a(S'763872070'
S'Waseem Afzal'
tp512
a(S'100001349445479'
S'Musa Rahim Khan'
tp513
a(S'100004963178510'
S'Shafiq Rehmat'
tp514
a(S'100000968989376'
S'Jalal Sokhmir'
tp515
a(S'100000582963374'
S'Shahid Aman'
tp516
a(S'575920944'
S'Muhammad Mutahir Ali'
tp517
a(S'100001510061470'
S'D\\u00e0\\u015bh\\u00efng Hunain'
tp518
a(S'100002164129449'
S'Yawar Hayat'
tp519
a(S'100005640163288'
S'Kamran Beigal'
tp520
a(S'100000446258114'
S'Aftab Mazhandranii'
tp521
a(S'100005013482122'
S'Mubashir Ali Sangal'
tp522
a(S'100000203233109'
S'Syed Naveed Kamil'
tp523
a(S'1457710294'
S'Muhammad Karim'
tp524
a(S'100000402752892'
S'Amir Sangal'
tp525
a(S'100001712970355'
S'Uzma Karam Ali'
tp526
a(S'100003479128786'
S'Iqtidar Ali'
tp527
a(S'100000969181619'
S'Sajid Ullah'
tp528
a(S'100001525007992'
S'Syed Danish Hassan Shah'
tp529
a(S'100001480668375'
S'Haibat Ali'
tp530
a(S'100006201936099'
S'Mir Wali'
tp531
a(S'100000472272467'
S'Mohammad Ali Khan'
tp532
a(S'100001025042441'
S'Aaheel Abdul Aziz'
tp533
a(S'100000983074435'
S'Basharat U Baig'
tp534
a(S'100002683418068'
S'Haider Haroon'
tp535
a(S'663760968'
S'Taha Jamal'
tp536
a(S'100003497931283'
S'Misbah Chitrali'
tp537
a(S'100006432688248'
S'Shaukat Ali Sumarag'
tp538
a(S'100000562931799'
S'Jahangir Khan'
tp539
a(S'100001886147962'
S'Imran Ayazz'
tp540
a(S'100001043703248'
S'Jai Singh'
tp541
a(S'100007980012213'
S'Ali Azim Karim Ali'
tp542
a(S'100000852665298'
S'Kazim Hussain'
tp543
a(S'100000352316217'
S'Kamran Uddin Shah'
tp544
a(S'100000570077469'
S'Mumtaz Nageen'
tp545
a(S'100001499795273'
S'Jafar Ali'
tp546
a(S'740506723'
S'Sardar Karim'
tp547
a(S'100003586649024'
S'Abouabdellah Zayneb'
tp548
a(S'100005854960566'
S'Zohaib Ahmed'
tp549
a(S'100001670240724'
S'Tahiru Zaman'
tp550
a(S'100000845958849'
S'Israr H Sangalay'
tp551
a(S'1034173238'
S'Iftikhar Ullah'
tp552
a(S'588514038'
S'Humayun Ansari'
tp553
a(S'100001456649174'
S'Naeem Khan Rizakhel'
tp554
a(S'100001798099999'
S'Naveed Raza'
tp555
a(S'1597226096'
S'Izhar Ali'
tp556
a(S'100002640757004'
S'Ataullah Khan'
tp557
a(S'100004669453790'
S'Akysb Local Board Booni'
tp558
a(S'100002117905164'
S'Essam Azam'
tp559
a(S'100001538576131'
S'Laiba Ali Sangal'
tp560
a(S'100002556400404'
S'Shafiq Ahmad'
tp561
a(S'100000387055273'
S'Mairaj Alam'
tp562
a(S'100004832258063'
S'Manzoor Hussain'
tp563
a(S'100002516781863'
S'Irfan Azam Baig'
tp564
a(S'1458294433'
S'Abbas Jafri'
tp565
a(S'588800575'
S'Khalida Mahtab'
tp566
a(S'100001721426174'
S'Raza Hussain'
tp567
a(S'581425441'
S'Abdul Munam Shaikh'
tp568
a(S'662072328'
S'Shaukat Ali Khan'
tp569
a(S'100001667830484'
S'Wasim Akhter'
tp570
a(S'678198608'
S'Waliullah Hussaini'
tp571
a(S'716841777'
S'Kamran Durdana'
tp572
a(S'701064738'
S'Samana Ali'
tp573
a(S'627600096'
S'Basil Saeed'
tp574
a(S'100002404098676'
S'Aisha Akbar'
tp575
a(S'100001807429475'
S'Anwar Hussain'
tp576
a(S'100003877252841'
S'Abdur Rahim Mandukhail'
tp577
a(S'100002339979170'
S'Salman Shams'
tp578
a(S'100002299220433'
S'Akveen Pearl'
tp579
a(S'1259211387'
S'Raza Hashmi'
tp580
a(S'100000489487241'
S'Imtiaz Ali'
tp581
a(S'100001009885189'
S'Francesco Grumo'
tp582
a(S'100000894853336'
S'Ray Khan'
tp583
a(S'100004154263108'
S'Meraj Uddin'
tp584
a(S'100001898973552'
S'Altaf Hussain'
tp585
a(S'100001772718018'
S'Sakhawat Ali Khan'
tp586
a(S'100001600286171'
S'Nawaz Ali'
tp587
a(S'100003027139755'
S'Murad Ali'
tp588
a(S'100001782368638'
S'Huma Batool'
tp589
a(S'1090751079'
S'Muhammad Nasir'
tp590
a(S'1566760667'
S'Sibtay Hasan Hyder'
tp591
a(S'1021043450'
S'Muhammad Aslam Rumi'
tp592
a(S'100001505774569'
S'Sameed Anjum'
tp593
a(S'1051212763'
S'Yasir Ali'
tp594
a(S'100001214768388'
S'Pervaiz Ali'
tp595
a(S'625447096'
S'Alya Zafar Hashmi'
tp596
a(S'100002952463644'
S'Bodygard Lovly Singh'
tp597
a(S'100002865208859'
S'Abdul Hameed Khan'
tp598
a(S'100002003596516'
S'Muneeb Ali'
tp599
a(S'100001781688629'
S'Fatima Afroz'
tp600
a(S'100004770330253'
S'Maqbool Hassan Hassan'
tp601
a(S'100001735585101'
S'Muhammad Ali Johar'
tp602
a(S'793275631'
S'Ejaz Ul Haq'
tp603
a(S'1782987957'
S'Syed Ali Qasim'
tp604
a(S'1790786772'
S'Afsar Ali Khan'
tp605
a(S'1372113400'
S'Rana Ali Yar'
tp606
a(S'100000513853649'
S'Sajjad Ali Jaad'
tp607
a(S'100000390835180'
S'Abuhuraira Shakeel'
tp608
a(S'100003900234950'
S'Manzoor Ali'
tp609
a(S'100003232928765'
S'Zahid Ali'
tp610
a(S'1598124039'
S'Shujaat Ali'
tp611
a(S'100002778100234'
S'Mumtaz Ali Muntazir'
tp612
a(S'100000661731531'
S'Ashfaq Ali'
tp613
a(S'100001319904227'
S'Akmal Naveed'
tp614
a(S'100003233398377'
S'Iqtidar Ali'
tp615
a(S'717227380'
S'Sameer Alam'
tp616
a(S'100001209356491'
S'Abdul Kadir Shopurwala'
tp617
a(S'100000146869898'
S'Awais Saeed'
tp618
a(S'100001569020663'
S'Sagar Kumar'
tp619
a(S'100001022447221'
S'Muhammad Sarwar Khann'
tp620
a(S'669660440'
S'Abdul Rafay'
tp621
a(S'100003258617049'
S'Emran Khan'
tp622
a(S'100002419002648'
S'Saadia Sabir'
tp623
a(S'753280592'
S'Taha Rehman'
tp624
a(S'100007519867086'
S'Mehtab Ali'
tp625
a(S'100003064511940'
S'Mehmood Ghaznavy'
tp626
a(S'100002125731345'
S'Shafiqur Rehman'
tp627
a(S'100001212593974'
S'Intesam Khan'
tp628
a(S'100002395336217'
S'Aftabali Khan'
tp629
a(S'100002099076585'
S'Ehsan Rahim'
tp630
a(S'100001932677501'
S'Sajid Ur Rehman'
tp631
a(S'579515960'
S'Nashit Iqbal Naviwala'
tp632
a(S'100002753191068'
S'Shuaib Sultan'
tp633
a(S'100001282312194'
S'Arsel Masood Rajput'
tp634
a(S'100003363243402'
S'Sardar Qayum'
tp635
a(S'100001469637092'
S'Nowshad Akber'
tp636
a(S'100001776595921'
S'Misbah Hussain Jan'
tp637
a(S'100001569903266'
S'Chetrao Gambori'
tp638
a(S'100004889017463'
S'SaqIb SarWar'
tp639
a(S'100000314318601'
S'Fida Hassan'
tp640
a(S'100000813688194'
S'Inayat Ali Shah'
tp641
a(S'100001868526065'
S'Nazir Aman'
tp642
a(S'1364106109'
S'Umar Sikander'
tp643
a(S'100001483333271'
S'Neemi Khan'
tp644
a(S'100004080847618'
S'Fida Hassan'
tp645
a(S'100002462989551'
S'Abdul Wahid Single'
tp646
a(S'100000624665083'
S'Ihsan Ullah Jan'
tp647
a(S'1443501152'
S'Aman Khan'
tp648
a(S'100003917446879'
S'Bahader Azam Arif'
tp649
a(S'100000868369865'
S'Salman Karim'
tp650
a(S'839015369'
S'Muhammad Hassan Sheikh'
tp651
a(S'679210587'
S'\\u0633\\u0647\\u064a\\u0644 \\u062d\\u0633\\u064a\\u0646'
tp652
a(S'100001495897078'
S'Shoaib Jamshed'
tp653
a(S'100000146594388'
S'Raees Iqbal'
tp654
a(S'100001970370737'
S'Maraj Ahmad'
tp655
a(S'1010212730'
S'Muhammad Zain Awan'
tp656
a(S'100000758566142'
S'Sadru Ddin'
tp657
a(S'100000167558196'
S'Ali Singay'
tp658
a(S'100000325943961'
S'Muhammad Ali'
tp659
a(S'1494225505'
S'Sarah Khan'
tp660
a(S'100001342604397'
S'Rehan Karim'
tp661
a(S'1256893158'
S'Nasir Hayat'
tp662
a(S'607950567'
S'Mohsinul Haq'
tp663
a(S'589305426'
S'Ishtiaq Hussain'
tp664
a(S'1032285710'
S'Mian Taimoor Maalik'
tp665
a(S'100002315753485'
S'Shamsher Khisrow'
tp666
a(S'100001431392401'
S'Sheraz Ali'
tp667
a(S'100000712337515'
S'Shahid Khan'
tp668
a(S'100002747296246'
S'Ghazanfar Ali'
tp669
a(S'100000743869990'
S'Naveed Hassan Taj'
tp670
a(S'1703981570'
S'Ejaz Ibrahim Chitrali'
tp671
a(S'100000760937252'
S'Jawaid I. Sheray'
tp672
a(S'1457581706'
S'RaJa Farukh'
tp673
a(S'100003027383341'
S'Sabah Shah Pirzada'
tp674
a(S'818714819'
S'Aly Zayn'
tp675
a(S'100000844440305'
S'Afaq Ali Sangal'
tp676
a(S'100000889461916'
S'Noor Muhammad'
tp677
a(S'100003082991232'
S'Zunash Ali'
tp678
a(S'100001867643485'
S'Rahim Nigah'
tp679
a(S'100000432674866'
S'Fahim Nafees Khan'
tp680
a(S'100001978125924'
S'Shehryar Ahmad'
tp681
a(S'880775649'
S'Sultan Mehmood'
tp682
a(S'100002056758614'
S'Ajmal Hussain'
tp683
a(S'100001919751511'
S'Naeem Ullah Khan'
tp684
a(S'100001763445408'
S'\\u0645\\u062f\\u062b\\u0631 \\u0639\\u0644\\u06cc'
tp685
a(S'765455413'
S'Nadir Mohammad'
tp686
a(S'100001027928989'
S'Mohammad Ali'
tp687
a(S'100004951081718'
S'Abdul Azam'
tp688
a(S'100000882801531'
S'BaBa Aly'
tp689
a(S'100002856200826'
S'Syed Sarush Kamil'
tp690
a(S'100003276728676'
S'Shujaat Ali Khan Laqani'
tp691
a(S'100001990422258'
S'Nazhat Shakir'
tp692
a(S'100006337900261'
S'Jamsheed Nadir'
tp693
a(S'100004040710815'
S'Jamsheed Ali Yaftali'
tp694
a(S'100000654432402'
S'Nosheen Hashmi'
tp695
a(S'100001670045148'
S'Llihc Ecnirp'
tp696
a(S'100000484594341'
S'Zaeem Masood'
tp697
a(S'100003192682525'
S'Haris Molwani'
tp698
a(S'100001778380670'
S'Rashid Ali Haideri'
tp699
a(S'100001101114474'
S'Syed Fakhar Ul Hassan'
tp700
a(S'100003282193877'
S'Usama Bin Maalik'
tp701
a(S'100002285431713'
S'Hashim Masood'
tp702
a(S'100001499737359'
S'Mueez Ali'
tp703
a(S'1278400132'
S'Aftab Alam Khan Quttoshi'
tp704
a(S'100001548166993'
S'Irfan Uddin'
tp705
a(S'100003524657925'
S'Sibghat Ullah'
tp706
a(S'100005096130913'
S'Waqar Ali Khan'
tp707
a(S'100003020064123'
S'Faizan Shah'
tp708
a(S'100001041915469'
S'Shafika Karam Ali'
tp709
a(S'100005519521083'
S'Zain Aslam'
tp710
a(S'100001771687928'
S'Sardar Bakhtiyar'
tp711
a(S'100000600364805'
S'Ali Raza'
tp712
a(S'100001617005930'
S'Ozair Haseeb'
tp713
a(S'100001986759195'
S'AdnAn AlOi'
tp714
a(S'1482988507'
S'Rameez Hassan'
tp715
a(S'648910883'
S'Alamgir Nawaz Khan'
tp716
a(S'538576130'
S'Javed Ali Baba'
tp717
a(S'100000229723236'
S'Ajay Valecha'
tp718
a(S'100000046681009'
S'Shakeela Karam'
tp719
a(S'100005565392592'
S'Tabassum Sardar'
tp720
a(S'100006232364229'
S'Abrar Khan'
tp721
a(S'1403841029'
S'Zaeem Farooq'
tp722
a(S'100002248396004'
S'Rahmat Azam'
tp723
a(S'100003098200929'
S'Farman Ali ShaGnea'
tp724
a(S'658272150'
S'Shahid Ali Khan'
tp725
a(S'100001896742889'
S'Tahir Zaman'
tp726
a(S'100006132994381'
S'Rahimuddin Khan Khisrowy'
tp727
a(S'1362415916'
S'Ali Hussain Hashwani'
tp728
a(S'100000374796159'
S'Shahid Ali'
tp729
a(S'100006582305218'
S'Shariq Ali Mir'
tp730
a(S'100004428999724'
S'Maqsood Ali Khan'
tp731
a(S'100001700064266'
S'Jawad Ahmad'
tp732
a(S'100003017363474'
S'Jamsheed Ali'
tp733
a(S'100004026205674'
S'Imtiaz Ali'
tp734
a(S'100003322294231'
S'Anwar Sangal'
tp735
a(S'100001589423341'
S'Zafar Alam Rizakhal'
tp736
a(S'100000757710440'
S'Anwar Ali'
tp737
a(S'100002665501786'
S'Xulf Aly'
tp738
a(S'100000188906875'
S'Raja Haider Ali Hemmat'
tp739
a(S'1072014472'
S'Rameez Naeem'
tp740
a(S'1521535836'
S'Shahbaz Khan'
tp741
a(S'100000926160361'
S'Zafar Kalanauri'
tp742
a(S'100001397907784'
S'Khalil Uddin'
tp743
a(S'100003261912708'
S'Sadiqa Musharaf'
tp744
a(S'880260506'
S'Faysal Wali'
tp745
a(S'1558332234'
S'Mubashir Ahmed Khatri'
tp746
a(S'1047315861'
S'Ahsan Abbas'
tp747
a(S'100000510781941'
S'Salman Saeed'
tp748
a(S'100000213296725'
S'Abdullah Ahmed'
tp749
a(S'100001455842024'
S'Uzair Ikram'
tp750
a(S'1271754453'
S'Zain Abid'
tp751
a(S'100001698291151'
S'Junaida Asuncion'
tp752
a(S'527071496'
S'Aleem Khan'
tp753
a(S'100006174643014'
S'Muhammad Farhan'
tp754
a(S'628505083'
S'Ali Nigah Jan'
tp755
a(S'511484744'
S'Mansoor Ali'
tp756
a(S'100001220593599'
S'Muddassar Nazar'
tp757
a(S'1494960098'
S'Asfar Hussain'
tp758
a(S'100003644704373'
S'Habib Bukhari'
tp759
a(S'1024115170'
S'Mudassir Khan'
tp760
a(S'100005129406885'
S'Akbar Ali Sabah'
tp761
a(S'100000921121030'
S'Abdul Wajid'
tp762
a(S'1093621955'
S'Ahmad Sardar'
tp763
a(S'100003321032366'
S'Ishfaq Rizakhel'
tp764
a(S'1346043350'
S'Syed Kazim Abbas'
tp765
a(S'100002926314748'
S'Shafiq Tajik'
tp766
a(S'817017021'
S'Syed Azhar Sabbah'
tp767
a(S'100004412011735'
S'Zubair Cheema'
tp768
a(S'100001273089699'
S'Zuhaib Hashmi'
tp769
a(S'1262469486'
S'Tariq Hassan'
tp770
a(S'1618110686'
S'Maqbool Hussain Hussaini'
tp771
a(S'100001049416658'
S'Abdullah Riaz'
tp772
a(S'597260287'
S'Kehkashan Fidai'
tp773
a(S'100001067365151'
S'Ali Yousaf'
tp774
a(S'100001215943625'
S'Jonaid Ibrahim Khan'
tp775
a(S'100001963665927'
S'Sami Din'
tp776
a(S'100007009202458'
S'Nabila Sirang'
tp777
a(S'100003304502798'
S'Misbah Ali'
tp778
a(S'100002121021411'
S'Zulfiqar Safi'
tp779
a(S'766155967'
S'Atta Hussain Athar'
tp780
a(S'100001401461322'
S'Zafar Ahmed'
tp781
a(S'100000299220494'
S'Junaid Ali Khan'
tp782
a(S'610281857'
S'Riza Ali'
tp783
asS'id'
p784
S'731574402'
p785
sS'name'
p786
S'Adnan Ali'
p787
s.