(dp1
S'name'
p2
S'Anadee Nath Misshra'
p3
sS'current_class'
p4
S'india'
p5
sS'home_class'
p6
Vjamshedpur, jharkhand, india
p7
sS'home_text'
p8
VJamshedpur\u000aHometown
p9
sS'current_link'
p10
Vhttps://www.facebook.com/l.php?u=https%3A%2F%2Fwww.bing.com%2Fmaps%2Fdefault.aspx%3Fv%3D2%26pc%3DFACEBK%26mid%3D8100%26where1%3D20.000001040357%252C%2B76.999053955078%26name%3DGuwahati%252C%2BIndia%26mkt%3Den-IN&h=JAQFA2xRi&s=1
p11
sS'home_link'
p12
Vhttps://www.facebook.com/l.php?u=https%3A%2F%2Fwww.bing.com%2Fmaps%2Fdefault.aspx%3Fv%3D2%26pc%3DFACEBK%26mid%3D8100%26where1%3D22.79999995413%252C%2B86.179504394531%26name%3DJamshedpur%26mkt%3Den-IN&h=aAQEOkmmA&s=1
p13
sS'current_text'
p14
VGuwahati, India\u000aCurrent City
p15
sS'friends'
p16
(lp17
(S'734608651'
p18
S'Anadee Nath Misshra'
tp19
asS'id'
p20
g18
s.