(dp1
S'friends'
p2
(lp3
(S'500857380'
S'Amrita Das'
tp4
a(S'100000422720762'
p5
S'Isha Sharma'
tp6
a(S'557905418'
p7
S'Chhayankdhar Singh Rathore'
tp8
a(S'513737612'
S'Unnattee Eusebius'
tp9
a(S'614121684'
S'Poorvi Goel'
tp10
a(S'776755380'
S'Devangana Baruah'
tp11
a(S'1802234254'
p12
S'Abhishek Subarno'
tp13
a(S'514726832'
S'Arpita Esther Herbert'
tp14
a(S'589723189'
S'Venefreta Dass'
tp15
a(S'522486239'
S'Harshit Narang'
tp16
a(S'694090742'
S'Manali Vivek'
tp17
a(S'517230148'
S'Jeffrey Z Laloo'
tp18
a(S'556958494'
S'Deepesh Masih'
tp19
a(S'1358251398'
S'Sanjib Das'
tp20
a(S'689372999'
S'Shubhangi Sarah'
tp21
a(S'550411013'
S'Guro W. Samuelsen'
tp22
a(S'624144694'
p23
S'Supurna Dasgupta'
tp24
a(S'502417585'
S'Meher Mehta'
tp25
a(S'528578687'
S'Ananttika Singh'
tp26
a(S'517860495'
S'Anup Kutty'
tp27
a(S'100000009991015'
p28
S'Manchit Mahajan'
tp29
a(S'1551824907'
S'Muhammed Asad'
tp30
a(S'521305055'
S'Randeep Singh'
tp31
a(S'723777074'
S'Arpit Phillips'
tp32
a(S'514198738'
S'Saachi Sarin'
tp33
a(S'512692201'
S'Saanya Jain'
tp34
a(S'100000955126078'
S'Leonne Castellas'
tp35
a(S'512773534'
S'Vedant Munshi'
tp36
a(S'574728580'
S'Mozart Maxon'
tp37
a(S'1731001464'
S'Shaiwalini Tripathi'
tp38
a(S'560261670'
p39
S'Prakriti Batra'
tp40
a(S'682364828'
S'Paul Habil'
tp41
a(S'511731498'
S'Mahima Sharma'
tp42
a(S'500703387'
S'Aparajita Puri'
tp43
a(S'512335527'
S'Tora Agarwala'
tp44
a(S'100001306053952'
S'Akshay Pandey'
tp45
a(S'581791154'
S'Shruti Anna Koshy'
tp46
a(S'1010125131'
p47
S'Harman Singh'
tp48
a(S'502107306'
S'Anita Ralte'
tp49
a(S'100000530313319'
S'Vinay Singh'
tp50
a(S'515288041'
S'Samriddhi Gupta'
tp51
a(S'1079093588'
S'Manvi Singhal'
tp52
a(S'504889369'
S'Lijo James'
tp53
a(S'864545343'
S'Archishman Pradhan'
tp54
a(S'667209688'
p55
S'Satender Singh Vijayran'
tp56
a(S'691395166'
S'Alfons Jose'
tp57
a(S'684465562'
S'Pritika Fernandes'
tp58
a(S'540210521'
p59
S'Aditya Kiran Kakati'
tp60
a(S'542156872'
S'Devansh Agarwal'
tp61
a(S'100000332472637'
S'Sambodhi Sarkar'
tp62
a(S'579913518'
S'Ajith Paul Antony'
tp63
a(S'730280260'
S'Anjali Das'
tp64
a(S'544160105'
p65
S'Sherry Mathews'
tp66
a(S'100000979880835'
p67
S'Ananta Joshi'
tp68
a(S'538763924'
S"Kushal 'Frost' Verma"
tp69
a(S'501297277'
S'Ketki Saxena'
tp70
a(S'542756755'
S'Abhay Raj'
tp71
a(S'584198631'
S'Tarang Gupta'
tp72
a(S'1149824823'
S'Aditi Paul Nathanial'
tp73
a(S'595419323'
p74
S'Jessin Abraham'
tp75
a(S'565166260'
p76
S'Suyash Gabriel'
tp77
a(S'512304753'
S'Swastik Das'
tp78
a(S'132300129'
S'Kritarth Chhabra'
tp79
a(S'512683884'
S'Mihir Chattopadhyay'
tp80
a(S'514601363'
S'Gaurav Sood'
tp81
a(S'523600817'
S'Bharat Bajaj Radix'
tp82
a(S'571397390'
S'Rhea John'
tp83
a(S'753245510'
S'Surya Lamech'
tp84
a(S'100002050540405'
S'Jomi Joseph'
tp85
a(S'513168961'
S'Sukanya Ayde'
tp86
a(S'502733165'
S'Ritwika Sen'
tp87
a(S'508127691'
p88
S'Neha Bainsla'
tp89
a(S'1739902165'
S'Devasheesh Melkani'
tp90
a(S'506900012'
p91
S'Pia Malik'
tp92
a(S'563547970'
S'Gaurav Gomes'
tp93
a(S'592086323'
S'Shreya Kumar'
tp94
a(S'569157468'
S'Dayal Mazumdar'
tp95
a(S'602636609'
S'Vijay Ghosh'
tp96
a(S'550075862'
S'Reetika Hori'
tp97
a(S'597287650'
S'Karisma Rawat'
tp98
a(S'517851656'
S'Mahi Titus'
tp99
a(S'549197149'
S'Era Kaila'
tp100
a(S'1500143341'
p101
S'Sneha Jheetay'
tp102
a(S'100000633649402'
p103
S'George Joseph'
tp104
a(S'571504868'
S'Chris Sahil Rajiv'
tp105
a(S'501906331'
S'Tanvi Marijane Jain'
tp106
a(S'1805027049'
S'Abbas Askari'
tp107
a(S'544762202'
S'Asha Mary Eapen'
tp108
a(S'577531755'
S'Bradley Robinson'
tp109
a(S'564755706'
S'Rhea Dubey'
tp110
a(S'100000078947301'
S'Nitin Antony'
tp111
a(S'1215742063'
S'Pixie Lamech'
tp112
a(S'100000462738327'
p113
S'Krishan Bishnoi'
tp114
a(S'514212064'
S'Smriti Lamech'
tp115
a(S'512533240'
S'Kanav Rawat'
tp116
a(S'557630277'
p117
S'Antony Aron'
tp118
a(S'537076270'
S'Zoya Shakeel'
tp119
a(S'744610826'
S'David Phillipowsky'
tp120
a(S'513042173'
S'Rashi Rathi'
tp121
a(S'512694094'
S'Akriti Khanna'
tp122
asS'id'
p123
S'753356604'
p124
sS'name'
p125
S'Suryash Greenwold'
p126
s.