(dp1
S'friends'
p2
(lp3
(S'100001167068627'
S'Yogender Chaudhry'
tp4
a(S'100000468823739'
S'BV Gopinath'
tp5
a(S'100005624472251'
S'Preeta Harit'
tp6
a(S'752608367'
S'Kapil Mohan'
tp7
a(S'664416335'
S'Meenakshi Singh'
tp8
a(S'1037108504'
S'Prateek Soni'
tp9
a(S'1077164967'
S'Mitali Madhusmita'
tp10
a(S'100000331635046'
S'Anita Duggal'
tp11
a(S'100001412480916'
S'Radha Raman Pathak'
tp12
a(S'100000444586186'
S'Priyanka Gulati'
tp13
a(S'1496400927'
S'Shyam Benupani'
tp14
a(S'100000643501673'
S'Sanjay Kumar'
tp15
a(S'1396670416'
S'Rita Batra'
tp16
a(S'1340746858'
S'Urvashi Saxena'
tp17
a(S'1294719096'
S'Vimal Malhotra'
tp18
a(S'567513245'
S'Bharati Das'
tp19
a(S'1534533383'
S'Rajnish Dahuja'
tp20
a(S'1712210258'
S'Siddhartha Mukherjee'
tp21
a(S'100002950368372'
S'Sangeeta Chopra'
tp22
a(S'1093774849'
S'Khushbir Singh Shaad'
tp23
a(S'100006492490283'
S'Renu Jetly'
tp24
a(S'1056039426'
S'Ranjanesh Sahai'
tp25
a(S'1360777023'
S'Karan Singh'
tp26
a(S'100000372005181'
S'Navneet Goel'
tp27
a(S'100001357708304'
S'DrNavin Soni'
tp28
a(S'100000001180862'
S'Vikram Sankhala'
tp29
a(S'517483847'
S'Rohit Duggal'
tp30
a(S'100000328425498'
S'Anju Duggal Sikka'
tp31
a(S'766719488'
S'Ajay Srivastava'
tp32
a(S'100001985923971'
S'Anuradha Mookerjee'
tp33
a(S'1409870394'
S'Vinay Soni'
tp34
a(S'846179392'
S'Neeraj Kansal'
tp35
a(S'1367921989'
S'Rakesh Bansal'
tp36
a(S'100001461514676'
S'Shalini Arora Kapoor'
tp37
a(S'100002606247432'
S'Yatish Sud'
tp38
a(S'516500765'
S'Sanya Arora'
tp39
a(S'1735645389'
S'Neena Kumar'
tp40
a(S'100001167755819'
S'DrPratibha Singh'
tp41
a(S'830964490'
S'Poonam Nagesh'
tp42
a(S'1054349919'
S'Rahul Prasad'
tp43
a(S'100002221931926'
S'Sunita Singh'
tp44
a(S'679496594'
S'Anand Kumar'
tp45
a(S'687012987'
S'Kapil Mohan'
tp46
a(S'1198265415'
S'Arvind Kukreja'
tp47
a(S'100001127555914'
S'Seema Agarwal'
tp48
a(S'1642086280'
S'Suraj Bhan Nain'
tp49
a(S'100002020612984'
S'Chandraprakash Saroj'
tp50
a(S'721087469'
S'Ashish Chopra'
tp51
a(S'1587991248'
S'Virendra Ojha'
tp52
a(S'789468621'
S'Arun S Bhatnagar'
tp53
a(S'1222250455'
S'Alka Tandon'
tp54
a(S'100002280825916'
S'Nadar Mian'
tp55
a(S'100000126657856'
S'Md Mohsin Alam'
tp56
a(S'550139175'
S'Sangeeta Gupta'
tp57
a(S'742814111'
S'Aneesh Bansal'
tp58
a(S'798671876'
S'Abha Bansal'
tp59
a(S'100000611075409'
S'Feroz Khan'
tp60
a(S'638015647'
S'Mahendra Merchant'
tp61
a(S'1668015373'
S'Pravin Thapar'
tp62
a(S'618221336'
S'Deepali Singhal'
tp63
a(S'557919759'
S'Rakesh Bhaskar'
tp64
a(S'1543849813'
S'Tazeel Golmei'
tp65
a(S'100000508011017'
S'Avinash Ramani'
tp66
a(S'1588797422'
S'Rajkumar Sahrawat'
tp67
a(S'100002523043072'
S'Rajanikant Gupta'
tp68
a(S'756682832'
S'Rakesh Goyal'
tp69
a(S'598346661'
S'Rajdeep Anand'
tp70
a(S'100001032290697'
S'Sonal Mansingh'
tp71
a(S'100000685805919'
S'Sanjay Dhingra'
tp72
a(S'100001209437027'
S'Ravi Sarangal'
tp73
a(S'1604792492'
S'Devendra Nath Mishra'
tp74
a(S'698286403'
S'Monica Demla Batra'
tp75
a(S'100000429529529'
S'Sarveshwar Prabhaker'
tp76
a(S'1431048291'
S'Mohit Gulati'
tp77
a(S'1330698488'
S'Ravi Inder Gill'
tp78
a(S'1411880592'
S'Aniruddha Kaushik'
tp79
a(S'1331446515'
S'Bharat Malhan'
tp80
a(S'753730091'
S'Neha Bansal'
tp81
a(S'100000280374252'
S'Anand Upadhyay'
tp82
asS'id'
p83
S'756199384'
p84
sS'name'
p85
S'Navneet Soni'
p86
s.