(dp1
S'friends'
p2
(lp3
(S'1676852880'
S'Lois Mrinalini'
tp4
a(S'1290716848'
S'Abigail Shannon Kellogg'
tp5
a(S'600220128'
S'Neha Rachel Abraham'
tp6
a(S'524800407'
S'Alin P. Alexander'
tp7
a(S'684052338'
S'Naveen Gusain'
tp8
a(S'1596628082'
S'Aman Bharti'
tp9
a(S'1498140284'
S'Aditya Pathania'
tp10
a(S'1067409573'
S'Abhishek Chugh'
tp11
a(S'100004975032834'
S'Kezia Katherine Yonzon'
tp12
a(S'100001201398851'
S'Cyrus Reginald'
tp13
a(S'100002051089585'
S'Nadeem Ansari'
tp14
a(S'1564312045'
S'Tomer Pisman'
tp15
a(S'100000845013445'
S'Bunio Bill L'
tp16
a(S'830798279'
S'Urvashi Sindhi'
tp17
a(S'533215639'
S'Aditya Awasthi'
tp18
a(S'100003959722031'
S'Ashvatth Verma'
tp19
a(S'1383375031'
S'Vishwanath Kothapalli'
tp20
a(S'861305225'
S'Saumya Varma'
tp21
a(S'1226987611'
S'Deepak Devrani'
tp22
a(S'100000577496984'
S'Prashant Paul'
tp23
a(S'656428860'
S'Mohit James'
tp24
a(S'691951621'
S'Joben Herscher'
tp25
a(S'620781389'
S'Abhishek Bhattacharya'
tp26
a(S'1722711859'
S'Guneet Bagga'
tp27
a(S'1013815559'
S'Sunil Issar'
tp28
a(S'100000212749530'
S'Aashna Nanda'
tp29
a(S'1629661242'
S'Rahul Samuel'
tp30
a(S'100001703958525'
S'Gandhi Study Circle'
tp31
a(S'523937129'
S'Joe Cyril'
tp32
a(S'100000976651175'
S'Aakanksha Matthews'
tp33
a(S'100002022988356'
S'Veer Supunya Devavrat'
tp34
a(S'557157781'
S'Archie Beri'
tp35
a(S'701825471'
S'Jayant Ganju'
tp36
a(S'100000108337595'
S'Stan J Shaw'
tp37
a(S'904140300'
S'Ahetesham Khan'
tp38
a(S'559054253'
S'Thomas Fenn'
tp39
a(S'824539112'
S'Laetitia Warjri Desai'
tp40
a(S'574341158'
S'Shaurya Tripathy'
tp41
a(S'100000927240270'
S'Lovely Grover'
tp42
a(S'1418124614'
S'Neeti Wilson'
tp43
a(S'100001496287372'
S'Deepak Baroniya'
tp44
a(S'819083157'
S'Digvijay Bahadur Singh'
tp45
a(S'1418474180'
S'Samarth Mathur'
tp46
a(S'100001059912619'
S'Raja Pandit'
tp47
a(S'683637081'
S'M Paulo Prasad'
tp48
a(S'535170071'
S'Sunur Devavrat'
tp49
a(S'100001057430864'
S'Hitendra Prasad'
tp50
a(S'100002261137198'
S'Gaingamlung Kamei'
tp51
a(S'502879428'
S'Surya Bhattacharya'
tp52
a(S'572202142'
S'Sargam Sardana'
tp53
a(S'1828700829'
S'Addy Singh'
tp54
a(S'664791928'
S'Vignesh J Kumar'
tp55
a(S'714491783'
S'Poorva Bhatia'
tp56
a(S'503964450'
S'Eric Williams'
tp57
a(S'100004388640310'
S'Anjali Sharma'
tp58
a(S'1247377544'
S'Ann Raymond'
tp59
a(S'100000947926225'
S'Jigyasa Babbar'
tp60
a(S'1358272186'
S'Karan Sharma'
tp61
a(S'504384742'
S'Ashish Peter'
tp62
a(S'1851669912'
S'Ruchi Rj'
tp63
a(S'1068430436'
S'Aeishwarya Jha'
tp64
a(S'1633583929'
S'Vijay Karan Ahuja'
tp65
a(S'651538328'
S'Abhishek Che Malik'
tp66
a(S'539323116'
S'Suveni Bhagat'
tp67
a(S'712908675'
S'Budhaditya Bhattacharya'
tp68
a(S'100000698188571'
S'A.m. Samuel'
tp69
a(S'678170520'
S'Clifford War'
tp70
a(S'511144332'
S'Arjan Soni'
tp71
a(S'1367898616'
S'Shivani Rana'
tp72
a(S'1199793515'
S'Tony Karippai'
tp73
a(S'1550240312'
S'Soumojit Basu'
tp74
a(S'100001140240885'
S'Anshul Shah'
tp75
a(S'616080453'
S'Chirag Kumar'
tp76
a(S'100001738793970'
S'Ajit Singh'
tp77
a(S'100000247290397'
S'Tiju Thomas'
tp78
a(S'100006466866831'
S'Thinlay Norbu'
tp79
a(S'100000171037213'
S'Ricky Jogai'
tp80
a(S'684465562'
S'Pritika Fernandes'
tp81
a(S'626381619'
S'Annila Harris'
tp82
a(S'698200412'
S'Sarvesh Mamgain'
tp83
a(S'1440048920'
S'Divye Sharma'
tp84
a(S'1704055840'
S'Gaurav Singh'
tp85
a(S'754134370'
S'Ankur Siwach'
tp86
a(S'609990695'
S'Shifa Rastogi'
tp87
a(S'609542603'
S'Satyaki Dhar'
tp88
a(S'100000152895783'
S'Sparsh Rawat'
tp89
a(S'1063110310'
S'JC Rockit'
tp90
a(S'719657781'
S'Anshuman Rastogi'
tp91
a(S'1426511114'
S'George Mathew'
tp92
a(S'100003267333148'
S'Hitakshi Singh'
tp93
a(S'627326195'
S'Kunal Bhambry'
tp94
a(S'510598908'
S'Jezeem Hashim Ashroff'
tp95
a(S'100001070540053'
S'Abhi Shukla'
tp96
a(S'729401259'
S'Annie John'
tp97
a(S'1103025878'
S'Shivani Gupta'
tp98
a(S'100000074680782'
S'Sarvesh Sharma'
tp99
a(S'1322504106'
S'Swapnil Sharma'
tp100
a(S'1441887594'
S'Moses David'
tp101
a(S'100001043619468'
S'Vikash Gupta'
tp102
a(S'1373080130'
S'Saurabh Kumar'
tp103
a(S'100000202593085'
S'Emil Manu Oommen'
tp104
a(S'100000462647244'
S'Abhinao Singh'
tp105
a(S'100002185021686'
S'Sakshi Abrol'
tp106
a(S'743668586'
S'Prashant Dagar'
tp107
a(S'689975344'
S'Tanvi Gupta'
tp108
a(S'1205500481'
S'Arjun Rajkhowa'
tp109
a(S'598844488'
S'Alina Haider'
tp110
a(S'692568249'
S'Akash Senguttuvan Goud'
tp111
a(S'637223255'
S'Linta Bouselly'
tp112
a(S'1732163597'
S'Srishti Harrison'
tp113
a(S'540515622'
S'Naomi George Dua'
tp114
a(S'100001592958139'
S'Furkan Ansari'
tp115
a(S'794080083'
S'Shaantanu Jain'
tp116
a(S'1547476567'
S'David Abhishek'
tp117
a(S'685051740'
S'Dilini John'
tp118
a(S'100000888348528'
S'Shefali Srivastava'
tp119
a(S'1440098420'
S'Jerry Stephen'
tp120
a(S'100000211058280'
S'Vishal Sangwan'
tp121
a(S'753356604'
S'Suryash Greenwold'
tp122
a(S'1300641847'
S'Lokesh Malik'
tp123
a(S'100000336190580'
S'Maaz Khan'
tp124
a(S'718193311'
S'Vishal Rao'
tp125
a(S'595694251'
S'Grace Priyanka Sanwal'
tp126
a(S'1500625390'
S'Anish Michael'
tp127
a(S'100000560651376'
S'Indrajeet Pokhriyal'
tp128
a(S'647401945'
S'Disha Aggarwal'
tp129
a(S'569157468'
S'Dayal Mazumdar'
tp130
a(S'100000783062587'
S'Sharmila Judy Thomas'
tp131
a(S'1320931724'
S'Vipul Kumar'
tp132
a(S'1347450008'
S'Jens Paulson'
tp133
a(S'1341605833'
S'Arshmah Khan'
tp134
a(S'100000496972277'
S'Thomas Samuel'
tp135
a(S'1051215271'
S'Tenzin Varma'
tp136
a(S'569731668'
S'Daniel Charlu'
tp137
a(S'629595051'
S'Ashwin Johri'
tp138
a(S'100001215025200'
S'Anam Laeeq'
tp139
a(S'586073575'
S'Arzyaman Boroowa'
tp140
a(S'100004179757654'
S'Growingstar Footboll Acaddemy'
tp141
a(S'838493663'
S'Raghav Saigal'
tp142
a(S'550482842'
S'Mandia Saahab'
tp143
a(S'752505262'
S'Tanuj Gulati'
tp144
a(S'1331210981'
S'Gibran Rahman'
tp145
a(S'609525617'
S'Makshita Luthra'
tp146
a(S'1663981447'
S'Gaurav Gandhi'
tp147
a(S'1222263852'
S'Arjun Mahendran'
tp148
a(S'100002074680224'
S'Kallol Hazarika'
tp149
a(S'551336880'
S'Mathew Andrew'
tp150
a(S'779481317'
S'Aditi Sharma'
tp151
a(S'547920184'
S'Anand Norman'
tp152
a(S'568967680'
S'Shaunna Rodrigues'
tp153
a(S'1083757394'
S'Nadeem Afroz'
tp154
a(S'1446753287'
S'Rubin McClain'
tp155
a(S'100000193771823'
S'Ranjeet Singh'
tp156
a(S'1327549369'
S'Loveina Joy'
tp157
a(S'577531755'
S'Bradley Robinson'
tp158
a(S'100006912942448'
S'Sandeep Samuel'
tp159
a(S'1216774368'
S'Cerin Philip'
tp160
a(S'100000898274407'
S'Anupam Thakur'
tp161
a(S'100001555432234'
S'Partap Singh'
tp162
a(S'590000642'
S'Anandi Bandyopadhyay'
tp163
a(S'100000184009054'
S'Jonathan David George'
tp164
a(S'100004174091364'
S'Manjotsingh Sehgal'
tp165
a(S'100000896384158'
S'Aniket Singh Tomar'
tp166
a(S'539380702'
S'Abhit Bhatnagar'
tp167
a(S'100000969917726'
S'Leidy Jhoanna Quiceno'
tp168
a(S'1023392281'
S'Vivek Redhu'
tp169
a(S'759030436'
S'Manpreet Singh'
tp170
a(S'512378761'
S'Surbhi Kapur'
tp171
a(S'100000121933960'
S'Kushagra Rastogi'
tp172
a(S'629120214'
S'Srishti Kochhar'
tp173
a(S'753872284'
S'Abhik Palit'
tp174
a(S'100003608752841'
S'Samarth Misra'
tp175
a(S'100001470173751'
S'Dilini John'
tp176
a(S'1037699329'
S'Ashish Prashant'
tp177
a(S'680965286'
S'Cathy John'
tp178
a(S'685388487'
S'Alvin Amin Tudu'
tp179
a(S'100001636784083'
S'Karan Kakkar'
tp180
a(S'551970632'
S'Sharlin Sebastian'
tp181
a(S'100003864819296'
S'Anjana Sarah'
tp182
a(S'100004629123013'
S'Sheela William'
tp183
a(S'625517406'
S'Nishant Rana'
tp184
a(S'1420058413'
S'John Stephen'
tp185
a(S'100001571024593'
S'Samarth Mathur'
tp186
a(S'1833102367'
S'Rasagya Kabra'
tp187
a(S'1467006158'
S'Pavan Kumar Iska'
tp188
a(S'652145032'
S'Hasmeet Kaur'
tp189
a(S'1497581331'
S'Rohit Singh'
tp190
a(S'1062702345'
S'Ehab Ashraf'
tp191
a(S'652564504'
S'Nikhil Rufus Raj'
tp192
a(S'100000867051332'
S'Anees Udheen'
tp193
a(S'100000437653789'
S'Rohan Mehta'
tp194
a(S'1374207576'
S'Eunice Lilypearl'
tp195
a(S'1802234254'
S'Abhishek Subarno'
tp196
a(S'614363611'
S'Vedant Rana'
tp197
a(S'1786368873'
S'Enoch Wotsa'
tp198
a(S'1677855759'
S'Sarang Sethi'
tp199
a(S'611425164'
S'Tanuj Mendiratta'
tp200
a(S'720476824'
S'Jason Lall'
tp201
a(S'1077469463'
S'Moklan Namchoom'
tp202
a(S'100003910905120'
S'Pawan Joshi'
tp203
a(S'532407578'
S'Dhruv Kushwaha'
tp204
a(S'541440314'
S'Anu Hernandez'
tp205
a(S'613283422'
S'Arpit Agarwal'
tp206
a(S'100000342157141'
S'Krishna Kanth'
tp207
a(S'100002484910724'
S'Job Varghese'
tp208
a(S'505929766'
S'Daman Datta'
tp209
a(S'783948374'
S'Jayanth Charlu'
tp210
a(S'635263509'
S'Abhishek Samuel'
tp211
a(S'100006765634409'
S'Suzan Jo'
tp212
a(S'100000889903942'
S'Vishnu Kanth'
tp213
a(S'682390270'
S'Sahil Kher'
tp214
a(S'100001351770675'
S'Palak Jaggi'
tp215
a(S'1103583246'
S'Trisha M Das'
tp216
a(S'1037493815'
S'Kanishka Pandey'
tp217
a(S'514303088'
S'Pearl Sabarwal'
tp218
a(S'100001954791293'
S'Utsav Beri'
tp219
a(S'645235019'
S'Malini Bose'
tp220
a(S'1043287378'
S'Sasha Sarah Jacob'
tp221
a(S'624252336'
S'Sushmita Rachel Charlu'
tp222
a(S'716145774'
S'Robin Khandelwal'
tp223
a(S'539594732'
S'Rebecca Alison George'
tp224
a(S'626779802'
S'Bisman Kaur'
tp225
a(S'868370390'
S'Smritima Lama'
tp226
a(S'595759156'
S'Pradeep Kumar'
tp227
a(S'701939746'
S'Prerna Trehan'
tp228
a(S'100002219517391'
S'Priyanka Tanwar'
tp229
a(S'663535790'
S'Sushant Rana'
tp230
a(S'650950630'
S'Ishan Stephen'
tp231
a(S'1305074575'
S'Vivek Varughese'
tp232
a(S'704297095'
S'Akshay Wadhwa'
tp233
a(S'100000255540721'
S'Muneeb Rehman'
tp234
a(S'1268419575'
S'Ubaidullah Mohyideen Abdullah'
tp235
a(S'525783383'
S'Sukaina Majeed'
tp236
a(S'100000278206434'
S'Adil Mirza'
tp237
a(S'1498843466'
S'Sony Samuel Somar'
tp238
a(S'1788152805'
S'Nimrit Valentino'
tp239
a(S'100003902097912'
S'Joann John Joseph'
tp240
a(S'688643709'
S'Priyanka Singh'
tp241
a(S'512335527'
S'Tora Agarwala'
tp242
a(S'515790637'
S'Rachel Thomas'
tp243
a(S'100002512290635'
S'Suvansh Wadhwa'
tp244
a(S'609865511'
S'Aman Randhawa'
tp245
a(S'810013910'
S'Aneesh Mathur'
tp246
a(S'1703638361'
S'Shantanu Awasthi'
tp247
a(S'1707417684'
S'Apoorv Kakkar'
tp248
a(S'1083133652'
S'Likhit Mangla'
tp249
a(S'536020358'
S'Ashish Mohan Mathew'
tp250
a(S'1221931501'
S'Marc David'
tp251
a(S'100006705396477'
S'Unmukt Chand'
tp252
a(S'100000106600174'
S'Lawrence Simte'
tp253
a(S'100001584307351'
S'Lalboi Mangte'
tp254
a(S'100001735953086'
S'Sumali Naskar'
tp255
a(S'1328354394'
S'Arjun Mehta'
tp256
a(S'903960061'
S'Melvin Jos\\u00e9'
tp257
a(S'100000055447728'
S'Kunal Kansotia'
tp258
a(S'1025426177'
S'Gagan Singh Chauhan'
tp259
a(S'1125093465'
S'Bijoy John Mathew'
tp260
a(S'637395283'
S'Kartik Singhal'
tp261
a(S'1430016680'
S'Aditya Gulati'
tp262
a(S'100000382856857'
S'Mudit Mudit J'
tp263
a(S'100002539531603'
S'Khup Lian Ding'
tp264
a(S'509957768'
S'Tania Ann Koshi'
tp265
a(S'100002197347913'
S'Sadhu Hornking'
tp266
a(S'1048445146'
S'Sakshi Singh'
tp267
a(S'712672492'
S'Rishabh Lall'
tp268
a(S'1468314962'
S'Christine Ishita Lal'
tp269
a(S'100001177647904'
S'Marya Karey'
tp270
a(S'1489095282'
S'Ankit Raj Pawar'
tp271
a(S'1247075126'
S'Rebecca Paul'
tp272
a(S'100000216483849'
S'Ashwani Kumar'
tp273
a(S'100007101853069'
S'Vijay Kumar'
tp274
a(S'1077031708'
S'Krupa Russell'
tp275
a(S'625755230'
S'Lakshay Sahgal'
tp276
a(S'1168756435'
S'Aakash Nain'
tp277
a(S'626820858'
S'Mitashi Pawar'
tp278
a(S'100002479549445'
S'Nikhil Gahlot'
tp279
a(S'100000071172732'
S'Akul Taneja'
tp280
a(S'100001995248442'
S'Educere India'
tp281
a(S'1679753457'
S'Digvijay Singh'
tp282
a(S'100000470701300'
S'Pathay Sharma'
tp283
a(S'759485077'
S'Lav Sood'
tp284
a(S'100001900360665'
S'Paras Ganjoo'
tp285
a(S'1231392187'
S'Jhooaa Goomeez'
tp286
a(S'760101109'
S'Abhinav Rastogi'
tp287
a(S'1347865926'
S'Sandeep Chauhan'
tp288
a(S'1374056190'
S'Ben Kipgen'
tp289
a(S'100000107357148'
S'Sugam Kapoor'
tp290
a(S'694045450'
S'Abdias Michael'
tp291
a(S'100001127266028'
S'Rajesh Chahar'
tp292
a(S'100000137005820'
S'Aditya Sharma'
tp293
a(S'657790120'
S'Reynold Robert'
tp294
a(S'536857517'
S'Rohit Vobbilisetty'
tp295
a(S'100002607939262'
S'Apoorva Pandey'
tp296
a(S'636545858'
S'Tanay M. Shah'
tp297
a(S'756614007'
S'Alexander Markos'
tp298
a(S'100000039669278'
S'Sajal Sah'
tp299
a(S'100000510098415'
S'Hema Choudhary'
tp300
a(S'100005879610037'
S'Deepak Cherian'
tp301
a(S'100000950687031'
S'Nikhil Sharma'
tp302
a(S'703485889'
S'Nishant Sharma'
tp303
a(S'510296957'
S'Benson Rajan'
tp304
a(S'1128759549'
S'Namit Pant'
tp305
a(S'100000810829036'
S'Vishwajeet Negi'
tp306
a(S'1697061283'
S'Abhishek Dhar'
tp307
a(S'506175934'
S'Vishwani Marwah'
tp308
a(S'1322402864'
S'Thangchungnung Mangte'
tp309
a(S'100000822715000'
S'Lashito Chishi'
tp310
a(S'100005458538941'
S'Shantanu Singh'
tp311
a(S'515034784'
S'Jayant Walia'
tp312
a(S'1283874598'
S'Henna Narula'
tp313
a(S'540487376'
S'Sylvester Tamang'
tp314
a(S'704140286'
S'Rishabh Rawal'
tp315
a(S'732180322'
S'Prateek Chalia'
tp316
a(S'100000158538975'
S'Prerna Peter'
tp317
a(S'1826830271'
S'Abhimanyu Bhardwaj'
tp318
a(S'1207248894'
S'Ketan Sharma'
tp319
a(S'1055700013'
S'Ishani Roychowdhury'
tp320
a(S'100000294935266'
S'Ashish Philip'
tp321
a(S'624704666'
S'Ripunjay Tanwar'
tp322
a(S'100001724145856'
S'Amarjeet Yadav'
tp323
a(S'616490052'
S'Jonathan Paul'
tp324
a(S'602316137'
S'Shreya Sharma'
tp325
a(S'100003153005606'
S'Ashmeet Singh'
tp326
a(S'1500143341'
S'Sneha Jheetay'
tp327
a(S'590626808'
S'Yachna Tuteja'
tp328
a(S'100000422938067'
S'Nikhil Mahajan'
tp329
a(S'100000331073944'
S'Senile Dementia'
tp330
a(S'100000419991197'
S'Amrita Km M'
tp331
a(S'1057457270'
S'Christin Daniel'
tp332
a(S'674663932'
S'Aishwarya Visweswaran Iyer'
tp333
a(S'100001024433596'
S'Abhishek Thakur'
tp334
a(S'530484663'
S'Omair Ashroff'
tp335
a(S'739317505'
S'Sujay Karra'
tp336
a(S'717020316'
S'Elisha \\u0aaa\\u0a9f\\u0ac7\\u0ab2'
tp337
a(S'564135755'
S'Anubhav Maini'
tp338
a(S'709046094'
S'Praveen Jose'
tp339
a(S'549140436'
S'Akhil Shankar'
tp340
a(S'100001577712503'
S'Farzeena Abbas'
tp341
a(S'1426917169'
S'Ashwin Sivadas'
tp342
a(S'1143655480'
S'Suhasini Mehta'
tp343
a(S'1553804631'
S'Abhim Singh'
tp344
a(S'100002294767163'
S'Kulwant Singh Rana'
tp345
a(S'100000519587260'
S'Piyush Khattar'
tp346
a(S'100000573927484'
S'Satish Mishra'
tp347
a(S'702410330'
S'Manav Sud'
tp348
a(S'100000452883132'
S'Esther Qureshi'
tp349
a(S'545030173'
S'Jimmy Abraham George'
tp350
a(S'100001793929434'
S'Tarique Nayeem'
tp351
a(S'1410070572'
S'Raja Hussain'
tp352
a(S'627950332'
S'Divyani Diddi'
tp353
a(S'770758674'
S'Shino Emmanuel'
tp354
a(S'100001484743960'
S'Aman Sharma'
tp355
a(S'1575745834'
S'Nithin Abraham'
tp356
a(S'1100757755'
S'Rohit Mann'
tp357
a(S'503709344'
S'Sanil Makhija'
tp358
a(S'632650405'
S'Ishnita Nayantara Keskar'
tp359
a(S'1306187252'
S'Sunny Sahani'
tp360
a(S'5311296'
S'Estelle Charlu'
tp361
a(S'645959551'
S'Sean Stephens'
tp362
a(S'737598558'
S'Vibhu Gauba'
tp363
a(S'590981926'
S'Aman Roy'
tp364
a(S'100003252501923'
S'Anushka Khanna'
tp365
a(S'715198530'
S'Jennifer Vincent'
tp366
a(S'1008381415'
S'Taaniya Sachdeva'
tp367
a(S'100000414113442'
S'Sona Susan'
tp368
a(S'1571775581'
S'Naveen Venna'
tp369
a(S'100000729472229'
S'Mathews K Yohannan'
tp370
a(S'740855363'
S'Paul Marandi'
tp371
a(S'506047611'
S'Mariam Bin.Break'
tp372
a(S'1021463850'
S'Sayed Muqtada'
tp373
a(S'1822567566'
S'Joshua Samuel'
tp374
a(S'652260850'
S'Anmol Sharma'
tp375
a(S'574693081'
S'Rahul Bhattacharjee'
tp376
a(S'1240844209'
S'Gaurang Dewan'
tp377
a(S'1132477641'
S'Royal Raja'
tp378
a(S'591267399'
S'Karishma Kuenzang'
tp379
a(S'1030710517'
S'Mukul Singh'
tp380
a(S'100000392979647'
S'Yuji Kinugasa'
tp381
a(S'500926036'
S'Sehaj Jolly'
tp382
a(S'100000749134151'
S'Stuti Jolly'
tp383
a(S'508438495'
S'Tanmae Jha'
tp384
a(S'100006134774210'
S'Nikhil Sharma'
tp385
a(S'100002485995604'
S'Nikhil Sharma'
tp386
a(S'646614612'
S'Maanasi Josephina Baa'
tp387
a(S'1482606143'
S'Akanksha Datta'
tp388
a(S'792050102'
S'Andre Hyams'
tp389
a(S'100001791075002'
S'Sheikh Sahir Ahmed'
tp390
a(S'100001768794787'
S'Shantanu Singh'
tp391
a(S'100002142193003'
S'Pinky Choudhary'
tp392
a(S'879945639'
S'Rakshit Bhalla'
tp393
a(S'1361533665'
S'Ankit Sharma'
tp394
a(S'521325563'
S'Siddharth Peter de Souza'
tp395
a(S'561825223'
S'Varun Sabu Verghese'
tp396
a(S'780668632'
S'Jaipreet Bedi'
tp397
a(S'711489282'
S'Pearl Annie'
tp398
a(S'706941583'
S'Rohin Mehra'
tp399
a(S'1206129682'
S'Abhijit Burman'
tp400
a(S'100000825261934'
S'Kc David Ngaihte'
tp401
a(S'1321610048'
S'Nitin Theo Kerketta'
tp402
a(S'1423167931'
S'Karan Bawa'
tp403
a(S'100001494505949'
S'Kalita Rupam Sindhu'
tp404
a(S'1720973454'
S'Samarth Singh'
tp405
a(S'581791154'
S'Shruti Anna Koshy'
tp406
a(S'1201166849'
S'Gaurav Jain'
tp407
a(S'809487411'
S'Rebecca Sarah John'
tp408
a(S'100001030687265'
S'Yasin Arafat'
tp409
a(S'100000346075583'
S'Zubin Kenneth Samuel'
tp410
a(S'100000453894336'
S'Tarun Gahlot'
tp411
a(S'803595466'
S'Euden Tenzing'
tp412
a(S'100002121467919'
S'Pau Lien Lal Gangte'
tp413
a(S'100000126896027'
S'Anu Ohri'
tp414
a(S'612783408'
S'Leeza Mathew'
tp415
a(S'776185916'
S'Pratik Hrehaan Sagar'
tp416
a(S'1109314548'
S'Tarun Dokania'
tp417
a(S'100001672255105'
S"Ra'ul Aswal"
tp418
a(S'1097076593'
S'Vignesh Kishan'
tp419
a(S'1363565235'
S'Meghna Neog'
tp420
a(S'1531851240'
S'Kunal Sachdeva'
tp421
a(S'100000265156080'
S'Saurav Virdi'
tp422
a(S'1486672891'
S'Habiba Nasim'
tp423
a(S'1774369766'
S'Kishlay Sajwan'
tp424
a(S'1449547944'
S'Anisha Angelina Victor'
tp425
a(S'1016402515'
S'Lal Rasengan Tunglut'
tp426
a(S'100000634969581'
S'Harshit Jolly'
tp427
a(S'540433326'
S'Sam Raja'
tp428
a(S'100002997714498'
S'Bethany Coelho'
tp429
a(S'100001469558077'
S'Manoj Sehrawat'
tp430
a(S'100000604562639'
S'Dikshant Narula'
tp431
a(S'1321433251'
S'Swarnim Ajay'
tp432
a(S'100002750236735'
S'Suraj Gupta'
tp433
a(S'1298871358'
S'Jolly Joseph'
tp434
a(S'100000570349930'
S'Aquib Ahmad'
tp435
a(S'100001966699984'
S'Ahmar Naseem'
tp436
a(S'100000343271588'
S'Sneha Deepthi'
tp437
a(S'516853202'
S'Vikrant Sethi'
tp438
a(S'100000849900317'
S'Jeet Bisht'
tp439
a(S'1739902165'
S'Devasheesh Melkani'
tp440
a(S'777048928'
S'Archit Sood'
tp441
a(S'100000615832545'
S'Narender Kadian'
tp442
a(S'618472580'
S'Sujoy Thomas'
tp443
a(S'548132226'
S'Ridhi Tirkey'
tp444
a(S'693050024'
S'Deepak Koshy George'
tp445
a(S'1326729796'
S'Tarun Negi'
tp446
a(S'650971714'
S'Anusha Jha'
tp447
a(S'1829136179'
S'Naina Massey'
tp448
a(S'100002935686759'
S'Bhupender Rathee'
tp449
a(S'100000342324740'
S'Aakash Hada'
tp450
a(S'100000566336097'
S'Manish Kumar'
tp451
a(S'100000003282362'
S'Kartik Chandra'
tp452
a(S'615581504'
S'Kris Kumar'
tp453
a(S'100000566483684'
S'Muskan Malhotra'
tp454
a(S'100000785857577'
S'Acsha Rayapati'
tp455
a(S'1371650727'
S'Jaskirat Singh Khandpur'
tp456
a(S'737229137'
S'Jijo Malayil'
tp457
a(S'1246882386'
S'Shannon Victor Peter'
tp458
a(S'100000371554503'
S'Prashant Singh'
tp459
a(S'851780192'
S'Marina Thomas'
tp460
a(S'100002706925250'
S'Anjana Zaira'
tp461
a(S'607571259'
S'Kirti Sharma'
tp462
a(S'100003363095335'
S'Sonakshi Singh'
tp463
a(S'669365446'
S'Nupur Sood'
tp464
a(S'100000082861878'
S'Manik Chawla'
tp465
a(S'100001691765165'
S'John Anil Bara'
tp466
a(S'547725703'
S'Bharat Mehrotra'
tp467
a(S'1538214972'
S'Ravi Yadav'
tp468
a(S'1217004962'
S'Dron Parashar'
tp469
a(S'100001293213484'
S'Purvi Shah'
tp470
a(S'100000130064410'
S'Ankit Joseph'
tp471
a(S'1125575472'
S'Samikshan Majumdar'
tp472
a(S'639242886'
S'Jacob Mani'
tp473
a(S'1500558975'
S'Yogesh Malik'
tp474
a(S'1380372653'
S'Rahat Tasneem'
tp475
a(S'516399539'
S'Abhinav Dewan'
tp476
a(S'506900012'
S'Pia Malik'
tp477
a(S'1407083238'
S'Visvasam Nannan'
tp478
a(S'1413284409'
S'Sushant Shukla'
tp479
a(S'100000029822968'
S'Srishti Pandey'
tp480
a(S'512390562'
S'Ashutosh Tandon'
tp481
a(S'100001952437365'
S'Pranav Gupta'
tp482
a(S'675640353'
S'Rishab Kapur'
tp483
a(S'635914623'
S'Immanuel Daman'
tp484
a(S'1605820510'
S'Sumit Rawat'
tp485
a(S'1051003235'
S'Aafrein Khan'
tp486
a(S'611380257'
S'Maanav Sagar'
tp487
a(S'685831249'
S'Sundus Khan'
tp488
a(S'100000057883199'
S'Hasan Siddiqi'
tp489
a(S'505356575'
S'Arpita Anand'
tp490
a(S'1483227678'
S'Sheeba Mathew'
tp491
a(S'595419323'
S'Jessin Abraham'
tp492
a(S'1384534315'
S'Twisha Chatterjee'
tp493
a(S'100001827369426'
S'Anuj Wadhwa'
tp494
a(S'689372999'
S'Shubhangi Sarah'
tp495
a(S'505453682'
S'Aakarsh Malik'
tp496
a(S'769748832'
S'Abhishek Gautam'
tp497
a(S'1082100884'
S'Harsh Bedi'
tp498
a(S'1480770678'
S'Mayank Pundir'
tp499
a(S'1016942607'
S'Amitaayu Varma'
tp500
a(S'100000600297758'
S'Gaurav Bhati'
tp501
a(S'502878595'
S'Cyril Lucido Kuhn'
tp502
a(S'100001119617560'
S'Ronnie Jos'
tp503
a(S'1655524191'
S'Akshat Sinha'
tp504
a(S'100000204019652'
S'Anjani Anand'
tp505
a(S'1513001426'
S'Avesh Thakran'
tp506
a(S'532660105'
S'Kaustav Dhruv Sen Gupta'
tp507
a(S'1001013920'
S'Vignesh Raman'
tp508
a(S'604332017'
S'Prateek Thomas Varghese'
tp509
a(S'656437445'
S'Ninan Ruben Vargis'
tp510
a(S'100006794407577'
S'Ssl Socialsportsleague'
tp511
a(S'100004930272078'
S'Mansi Agnihotri'
tp512
a(S'706908568'
S'Ajish J George'
tp513
a(S'744185407'
S'Aryan Chaudhary'
tp514
a(S'1739347594'
S'Abhinav Khatri'
tp515
a(S'1604695881'
S'Karan Bhasin'
tp516
a(S'100000529250065'
S'Kullu Mandrwal'
tp517
a(S'100001107489737'
S'Manjot Singh Pal'
tp518
a(S'1048260878'
S'Ritesh Kumar'
tp519
a(S'555317595'
S'Anugrah Ekka'
tp520
a(S'100001612472537'
S'Nimisha Pahuja'
tp521
a(S'100002126684716'
S'Mercy Slyn'
tp522
a(S'729295592'
S'Manav Suri'
tp523
a(S'100001564306222'
S'Rizwin AR'
tp524
a(S'535097950'
S'Saurabh Miglani'
tp525
a(S'635869732'
S'Shreekant Road'
tp526
a(S'625679219'
S'Gurnoor Dhillon'
tp527
a(S'543350540'
S'Rohin Bhaumik'
tp528
a(S'1291178578'
S'Mohit Sansanwal'
tp529
a(S'1062078518'
S'Joshua Khaut\\u00e9'
tp530
a(S'1068776445'
S'Prateek NiNo Verma'
tp531
a(S'772410036'
S'Reuben Jacob'
tp532
a(S'1436809004'
S'Shobhit Pathak'
tp533
a(S'100000048895758'
S'Sidhant Sharma'
tp534
a(S'100000886977803'
S'Zahid Sheikh'
tp535
a(S'593216489'
S'Tiya Thomas'
tp536
a(S'100000386634313'
S'Muskan Hasan'
tp537
a(S'671934432'
S'Rudra Roy Chowdhury'
tp538
a(S'721491760'
S'Pranav Sharma'
tp539
a(S'1492774093'
S'Tabish H Akhtar'
tp540
a(S'597690104'
S'Judy Ns'
tp541
a(S'509807172'
S'Nadeem Khan'
tp542
a(S'100002147751785'
S'Saumya Sharma'
tp543
a(S'100000117704693'
S'Shreya Pillay'
tp544
a(S'643686266'
S'Karan Kushwaha'
tp545
a(S'1551824907'
S'Muhammed Asad'
tp546
a(S'515442322'
S'Arjun Chadda'
tp547
a(S'503162200'
S'Abraham Joseph Markos'
tp548
a(S'510424530'
S'Adhiraj Singh'
tp549
a(S'1330161824'
S'Priyanka Sehgal'
tp550
a(S'1105133764'
S'Lalhoihnem Simte'
tp551
a(S'512351466'
S'Jennifer Wilkinson'
tp552
a(S'610030002'
S'Rohit Gupta'
tp553
a(S'557256715'
S'Joash Youtham'
tp554
a(S'100000714500094'
S'Mnni Ahuza'
tp555
a(S'1458977002'
S'Kamal Nain Razdan'
tp556
a(S'598549354'
S'Neilabh Sinha'
tp557
a(S'752984553'
S'Ayaz Nizami'
tp558
a(S'1798863499'
S'Shivanshu Vyas'
tp559
a(S'1754127412'
S'Arun Johny'
tp560
a(S'100001143493346'
S'Pulkit Jain'
tp561
a(S'722037192'
S'Ranojay Bhattacharyya'
tp562
a(S'1064107529'
S'Shefali Thakur'
tp563
a(S'709241293'
S'Tushnik Thakur'
tp564
a(S'613776268'
S'Esther Ghosh'
tp565
a(S'1471342249'
S'Abhay Karan'
tp566
a(S'601897734'
S'Louis Pereira'
tp567
a(S'695247443'
S'Shivam Dawar'
tp568
a(S'853935133'
S'Vandit Malhotra'
tp569
a(S'100006684548856'
S'Ssl SportsLeague'
tp570
a(S'100008317684308'
S'John Joseph'
tp571
a(S'616638027'
S'Michael Ambrose David'
tp572
a(S'586190329'
S'Anchit Suri'
tp573
a(S'575434464'
S'Stuti Sinha Chowdhury'
tp574
a(S'635175551'
S'Justin Anthony Josephs'
tp575
a(S'1532321950'
S'Adita Bhatia'
tp576
a(S'533778042'
S'Ashish Aggarwal'
tp577
a(S'100001871841480'
S'Monu Choudhary'
tp578
a(S'1419112970'
S'Jonathan Francis'
tp579
a(S'100000889040868'
S'Satender Singh'
tp580
a(S'1756584096'
S'Eshaan Kenneth Revis'
tp581
a(S'650361141'
S'Bharat Pant'
tp582
a(S'100000470981102'
S'Kartik Bahuguna'
tp583
a(S'100000123923599'
S'Ajay Bartwal'
tp584
a(S'100002005930973'
S'Joyce Sudhakaran'
tp585
a(S'540210521'
S'Aditya Kiran Kakati'
tp586
a(S'641125943'
S'Jason Elnino Dv'
tp587
a(S'100005474922161'
S'Karan Dua'
tp588
a(S'1268270814'
S'Jyotikrishna Dass'
tp589
a(S'100001241657786'
S'Anas Rafique'
tp590
a(S'1813783753'
S'Nida Irshad'
tp591
a(S'579452845'
S'Karandeep Mehra'
tp592
a(S'1670149988'
S'Floranteena John'
tp593
a(S'722855494'
S'Tania Sarah Benjamin'
tp594
a(S'685823893'
S'Jenny Samuel'
tp595
a(S'545157832'
S'Suproteek Mukherjee'
tp596
a(S'622031641'
S'Urmi Bhattacheryya'
tp597
a(S'1010879766'
S'Jenny Joy'
tp598
a(S'750024448'
S'Prajakta Kuwalekar'
tp599
a(S'544160105'
S'Sherry Mathews'
tp600
a(S'1662214944'
S'Tania Massey'
tp601
a(S'1656608357'
S'Mankirat Singh'
tp602
a(S'514601363'
S'Gaurav Sood'
tp603
a(S'100000011667195'
S'Candace Andrew'
tp604
a(S'1413731642'
S'Siddhartha Khanna'
tp605
a(S'1020564531'
S'Siddhant Kumar'
tp606
a(S'535556851'
S'Brian Mclackland'
tp607
a(S'100000244605824'
S'Anjishnu Bandyopadhyay'
tp608
a(S'100001916434610'
S'Azhar Husain'
tp609
a(S'1529577681'
S'Ashish Bhalla'
tp610
a(S'100000333999126'
S'Marita George'
tp611
a(S'100002180198236'
S'Ejaz Suleman'
tp612
a(S'503955216'
S'Lilian Williams'
tp613
a(S'776580577'
S'Aashit Manchanda'
tp614
a(S'1827237854'
S'Vipul Chaudhary'
tp615
a(S'523600817'
S'Bharat Bajaj Radix'
tp616
a(S'1305614133'
S'Ratul Steves'
tp617
a(S'745689803'
S'Varshini Rajagopal'
tp618
a(S'747525636'
S'Sanjana Grover'
tp619
a(S'1609623077'
S'Anna David'
tp620
a(S'1788817684'
S'Rajat Singh'
tp621
a(S'100001172413616'
S'Sourabh Choudhary'
tp622
a(S'586215515'
S'Pranay Singh'
tp623
a(S'715445566'
S'Reuben Dony'
tp624
a(S'100003793928582'
S'Gracious Sneha'
tp625
a(S'512522121'
S'Nityn Bulchandani'
tp626
a(S'100002710202057'
S'Neaha Kapri'
tp627
a(S'100000272876340'
S'Keren Paul'
tp628
a(S'1599166001'
S'Chrishanthi Sehkar'
tp629
a(S'777088944'
S'Sowmya Susanna'
tp630
a(S'100004768900450'
S'Archie Beri Fs'
tp631
a(S'100000469715634'
S'Ajay R\\u00e0w\\u00e1t'
tp632
a(S'100003996094302'
S'Moses Koul'
tp633
a(S'723906470'
S'Parth Sharma'
tp634
a(S'100000396109777'
S'Nitesh Sharma'
tp635
a(S'100003296739922'
S'Brinda Banerjee'
tp636
a(S'100001794532922'
S'Vivek Yadav'
tp637
a(S'1421156315'
S'Shashwat Misra'
tp638
a(S'721195270'
S'Amrita Vivien James'
tp639
a(S'1227758346'
S'Alvin Abraham Simon'
tp640
a(S'597126116'
S'Jubin Jacob'
tp641
a(S'776995323'
S'Ananya Alexander'
tp642
a(S'779395351'
S'Pradeep Singh Gurjar'
tp643
a(S'610050316'
S'Abhilaash Sahu'
tp644
a(S'510531560'
S'Nandini Sn'
tp645
a(S'796545152'
S'Lakshya Dev Mudgil'
tp646
a(S'100000013365333'
S'Divya Johry'
tp647
a(S'100000729759879'
S'Jeffrey Mathews'
tp648
a(S'100000316165974'
S'Lim Haokip'
tp649
a(S'100001064450619'
S'Allesia Argenis'
tp650
a(S'509702823'
S'Luv Malik'
tp651
a(S'100000704048015'
S'Mohammad Shoaib Azeez'
tp652
a(S'753980444'
S'Faiz Ahmad'
tp653
a(S'640416103'
S'Varun Joneja'
tp654
a(S'543500541'
S'B Roofoos Johnson'
tp655
a(S'100000458625621'
S'Sabina Lama'
tp656
a(S'611474950'
S'Abhishek Singh'
tp657
a(S'1106948476'
S'Jackson Law'
tp658
a(S'100003487091250'
S'Riyaz Uddin'
tp659
a(S'1152906461'
S'Ayush Kant Dutta'
tp660
a(S'100000601457118'
S'Arkiti Singh'
tp661
asS'id'
p662
S'779040485'
p663
sS'name'
p664
S'Nitin George'
p665
s.