(dp1
S'name'
p2
S'Ram Mohan Tiwari'
p3
sS'current_class'
p4
S'india'
p5
sS'home_class'
p6
Vvaranasi, uttar pradesh, india
p7
sS'home_text'
p8
VVaranasi, India\u000aHometown
p9
sS'current_link'
p10
Vhttps://www.facebook.com/l.php?u=https%3A%2F%2Fwww.bing.com%2Fmaps%2Fdefault.aspx%3Fv%3D2%26pc%3DFACEBK%26mid%3D8100%26where1%3D22.307300473057%252C%2B73.179931640625%26name%3DBaroda%2B%2528Vadodara%2529%252C%2BIndia%26mkt%3Den-IN&h=cAQHQZMnE&s=1
p11
sS'home_link'
p12
Vhttps://www.facebook.com/l.php?u=https%3A%2F%2Fwww.bing.com%2Fmaps%2Fdefault.aspx%3Fv%3D2%26pc%3DFACEBK%26mid%3D8100%26where1%3D25.282000346632%252C%2B82.955017089844%26name%3DVaranasi%252C%2BIndia%26mkt%3Den-IN&h=hAQFnqTm6&s=1
p13
sS'current_text'
p14
VBaroda (Vadodara), India\u000aCurrent City
p15
sS'friends'
p16
(lp17
(S'100006661861534'
S'Ajay Singh'
tp18
a(S'797218897'
S'Dinesh Singh'
tp19
a(S'780190706'
p20
S'Ram Mohan Tiwari'
tp21
a(S'100005403307015'
S'Upendra Singh'
tp22
a(S'100003821246822'
S'Abdul Hameed'
tp23
a(S'1573924334'
S'Dinesh Kumar'
tp24
a(S'1154540251'
S'Anita Sharma'
tp25
a(S'100003920091036'
S'Sanjay Kumar'
tp26
a(S'100005213193110'
S'Alok Modi'
tp27
a(S'100000787736306'
S'Manoj Kumar'
tp28
a(S'100005988122059'
S'Abhijeet Kumar'
tp29
asS'id'
p30
g20
s.