(dp1
S'friends'
p2
(lp3
(S'100001067481073'
S'Sujit Kumar'
tp4
a(S'1548180167'
S'Paramangana Thebe'
tp5
a(S'100002746229012'
S'Sripriya Nopany'
tp6
a(S'100001529919616'
S'Pratibha Raj'
tp7
a(S'1260466392'
S'Abhaas Mohan'
tp8
a(S'100000700081197'
S'Yograj Singh'
tp9
a(S'100002200191284'
S'Pratik Kumar'
tp10
a(S'100000994128751'
S'Setu Chandra'
tp11
a(S'100001276681938'
S'Apoorva Goyal'
tp12
a(S'1637439476'
S'Ashish Acharya'
tp13
a(S'744668213'
S'Akshay Sardana'
tp14
a(S'100002816199767'
S"Dharmender Livin'legend Kumar"
tp15
a(S'1287075391'
S'Maddie Moon'
tp16
a(S'712146790'
S'Suyash Khetan'
tp17
a(S'1491858852'
S'Richa Mishra'
tp18
a(S'100002226118999'
S'Akram Khan'
tp19
a(S'100002550490930'
S'Kumar Shivam'
tp20
a(S'1298541358'
S'Anya Anand'
tp21
a(S'544424753'
S'Abhinav Raj'
tp22
a(S'747591116'
S'Sanghamitra Singh'
tp23
a(S'100001227325785'
S'Shashank Agrawal'
tp24
a(S'100001504490108'
S'Buddhika Senarath'
tp25
a(S'678457281'
S'Ankit Vatsa'
tp26
a(S'100001557345988'
S'Nipun Anand'
tp27
a(S'100000104690213'
S'Madhuri Latha'
tp28
a(S'1532058982'
S'Sajal Shukla'
tp29
a(S'1338424291'
S'Divya Singhal'
tp30
a(S'100000076597933'
S'Nidhi Kakkar'
tp31
a(S'100002649336324'
S'Abhimanyu Raj'
tp32
a(S'100003847474237'
S'Shanta Poudel'
tp33
a(S'578892948'
S'Stuti Bhattacharya'
tp34
a(S'100005429133959'
S'Rahul Shrestha'
tp35
a(S'1365283489'
S'Abhimanyu Bose'
tp36
a(S'100000596128874'
S'Aditya Agrawal'
tp37
a(S'100002496247959'
S'Surya Sathya'
tp38
a(S'100000635749976'
S'Amal Singh'
tp39
a(S'100002973303406'
S'Bharati Mehta'
tp40
a(S'709801620'
S'Anurag Jhunjhunwala'
tp41
a(S'728973930'
S'Rayana Shrestha'
tp42
a(S'1487563192'
S'Sahan Mendis'
tp43
a(S'524241862'
S'Rahul Jha'
tp44
a(S'1124808476'
S'Hasini Wegiriya'
tp45
a(S'531717312'
S'Rishabh Kumar Taneja'
tp46
a(S'100001624622214'
S'Malay Nikhil'
tp47
a(S'100001094057679'
S'Pugazhandhi B Baktha'
tp48
a(S'1200711458'
S'Umang Nandkeolyar'
tp49
a(S'100001162979206'
S'Robin Singh'
tp50
a(S'1428703254'
S'Pritish Bahre'
tp51
a(S'536646074'
S'Aastha Gulati'
tp52
a(S'1631130140'
S'Damodar Sharma'
tp53
a(S'100001544782736'
S'\\u0909\\u0924\\u094d\\u0915\\u0930\\u094d\\u0937 \\u0930\\u093e\\u092f'
tp54
a(S'100001183617172'
S'Sachin Bhardwaj'
tp55
a(S'100001802398644'
S'Ayushi Garg'
tp56
a(S'100000088472673'
S'Anuj Bairoliya'
tp57
a(S'1287012856'
S'Anshit Singh'
tp58
a(S'100001084015032'
S'Dushyant Palriwal'
tp59
a(S'1028963625'
S'Abhishek Pandey'
tp60
a(S'1736967364'
S'Abhijeet Kumar'
tp61
a(S'100000182157043'
S'Haleema Rahman'
tp62
a(S'1661893560'
S'Meraj Ahmad'
tp63
a(S'100000319517566'
S'Richick Sinha'
tp64
a(S'100000778448413'
S'Rachana Poudel'
tp65
a(S'632960748'
S'Divyanand Vidyarthi'
tp66
a(S'1017795081'
S'Sana Khan'
tp67
a(S'665440200'
S'Arion Mcdd H D'
tp68
a(S'744416214'
S'Ngawang Dhonten Ngokhang'
tp69
a(S'100000480978663'
S'Gurpreet Singh'
tp70
a(S'100005160064940'
S'Jaya Ghosh'
tp71
a(S'1838721867'
S'Rohini Bhuvaneshwari'
tp72
a(S'659221965'
S'Santiago Baena'
tp73
a(S'607756691'
S'Pallavi Datta'
tp74
a(S'100000637329095'
S'Ganesh Wagle'
tp75
a(S'511220693'
S'Sanjukta Mitra'
tp76
a(S'1454568542'
S'Rahul Ranjan Ray'
tp77
a(S'1005482474'
S'Rohan Sharan'
tp78
a(S'522485306'
S'Ashmita Gupta'
tp79
a(S'691777560'
S'Sidhant Verma'
tp80
a(S'100001125134625'
S'Reetica Vatsana'
tp81
a(S'100001000355663'
S'Shishir Newar'
tp82
a(S'535010727'
S'Munna Sen'
tp83
a(S'100000704264163'
S'Amritesh Kumar'
tp84
a(S'524260337'
S'Ayesha Mahanti'
tp85
a(S'1207889099'
S'Abhishek Jaiswal'
tp86
a(S'100000103381931'
S'Tanya Singh'
tp87
a(S'100004244735980'
S'Ashish Ranjan'
tp88
a(S'1009833224'
S'Taneya Singh'
tp89
a(S'705807941'
S'Lahiru Eranga Abeysinghe'
tp90
a(S'100003264758610'
S'Yash Jha'
tp91
a(S'1484357685'
S'Panku Rajpal'
tp92
a(S'100004688464407'
S'Lokendra Shah'
tp93
a(S'666603195'
S'Saurabh Singh'
tp94
a(S'100000226021010'
S'Deisarmehi Muksor'
tp95
a(S'1172400877'
S'Prasad Shetty'
tp96
a(S'1056398320'
S'Aishwarya Pandey'
tp97
a(S'100002856090913'
S'Shivani Tyagi'
tp98
a(S'1041192726'
S'Anvesh Malhotra'
tp99
a(S'100000924738684'
S'Abhilash Rai'
tp100
a(S'100004350937386'
S'Rakitha Fernando'
tp101
a(S'100001060901360'
S'Puneet Priyadarshi'
tp102
a(S'100000933534576'
S'Salaj Sinha'
tp103
a(S'842377936'
S'Jaspreet Grewal'
tp104
a(S'100002450117703'
S'Krishna Timilsina'
tp105
a(S'690111319'
S'Aditya Tiwary'
tp106
a(S'559945315'
S'Devaan Hallock'
tp107
a(S'100001476606042'
S'Ghungroo Bhargava'
tp108
a(S'1498336774'
S'Lumal Soysa'
tp109
a(S'1432163938'
S'Harshvardhan Prakash'
tp110
a(S'701096926'
S'Richa Srivastava'
tp111
a(S'1208740632'
S'Vijayendra Sriram Mantrala'
tp112
a(S'786508424'
S'Aastha Sinha'
tp113
a(S'100001147612710'
S'Tanuj Prakash'
tp114
a(S'100002849734882'
S'Sarose Aananda Yadab'
tp115
a(S'1090260103'
S'Neeraj Verma'
tp116
a(S'100000543880713'
S'Sudarshan Gautam'
tp117
a(S'100001111379225'
S'Ganesh Chaudhary'
tp118
a(S'100002531945320'
S'Mohit Anand'
tp119
a(S'100001121613450'
S'Abhishek Anand'
tp120
a(S'698755381'
S'Sahil Chandra'
tp121
a(S'100001545734217'
S'Nilay Kant'
tp122
a(S'100001497478218'
S'Mohammed Ali'
tp123
a(S'100001093697929'
S'Abhilasha Mukherjee'
tp124
a(S'100000865459967'
S'Amit Kumar'
tp125
a(S'656698195'
S'Gautam Aishwarya'
tp126
a(S'1044346614'
S'Eshani Dabare'
tp127
a(S'1276924689'
S'Tharindra Rajapakse'
tp128
a(S'754273469'
S'Rajat Chokhani'
tp129
a(S'1376989117'
S'Naukhez Haider'
tp130
a(S'100000195113005'
S'Sushan Bogati'
tp131
a(S'100002587753883'
S'Anu Priya'
tp132
a(S'1196676208'
S'Bhavini Verma'
tp133
a(S'100000968461839'
S'Rinku Sarkar'
tp134
a(S'1186857746'
S'Sanjana Dey'
tp135
a(S'776979780'
S'Anshuman Sureka'
tp136
a(S'100000453488620'
S'Sujata Bhadani'
tp137
a(S'529730912'
S'Vishesh Saran'
tp138
a(S'789558218'
S'Larissa Christine'
tp139
a(S'659590079'
S'Saurya Pahadi'
tp140
a(S'100001395297675'
S'Shreya Pathak'
tp141
a(S'1845520922'
S'Tharaka Silva'
tp142
a(S'100001226944329'
S'Siddhant Priyadarshi'
tp143
a(S'657487580'
S'Abhijit Roy'
tp144
a(S'100001219954626'
S'Alok Raj'
tp145
a(S'100001529288288'
S'Trishala Pradeep'
tp146
a(S'732434016'
S'Shikhar Kumar'
tp147
a(S'1585879139'
S'Sandeep Singh'
tp148
a(S'100001186479823'
S'Arpit Raj'
tp149
a(S'100000876132411'
S'Aditya Raj'
tp150
a(S'741033406'
S'Archita Datta'
tp151
a(S'100001359015164'
S'Shreyansh Birendra'
tp152
a(S'100006347376845'
S'Arunima Roy'
tp153
a(S'685542550'
S'Sonali Singh'
tp154
a(S'100000041520280'
S'Isha Singh Rathore'
tp155
a(S'100002313403920'
S'Munna Sen'
tp156
a(S'100002874933203'
S'Aarushi Madan'
tp157
a(S'100001014801160'
S'Sohini Ghosh'
tp158
a(S'765534242'
S'Pulkit Shah'
tp159
a(S'100001411284508'
S'Alankar Singh'
tp160
a(S'100001659120759'
S'Adita Dhoju'
tp161
a(S'100005297832164'
S'Manjeet Singh'
tp162
a(S'1849815705'
S'Krishna Kumari'
tp163
a(S'100000430294890'
S'Shantanu Choudhary'
tp164
a(S'1841874862'
S'Googl Mishra'
tp165
a(S'1270533518'
S'Kristine Holm Jakobsen'
tp166
a(S'100001122875637'
S'Shub Ham'
tp167
a(S'100000788480811'
S'Rashmee Srivastava'
tp168
a(S'1777975292'
S'Abhishek Kumar'
tp169
a(S'693437862'
S'Madushika Rajapakse'
tp170
a(S'571130222'
S'Ankur Mishra'
tp171
a(S'100001367584608'
S'Abhishek Garodia'
tp172
a(S'693741600'
S'Jyotirmoy Bose'
tp173
a(S'1534680293'
S'D.s. Aman'
tp174
a(S'100001408036599'
S'Sagar Bhattacharya'
tp175
a(S'777390426'
S'Ankur Pandey'
tp176
a(S'100000141514343'
S'Diptiman Dasgupta'
tp177
a(S'772075577'
S'Aniruddha Bhatnagar'
tp178
a(S'100000721640120'
S'Ashutosh Baghel'
tp179
a(S'616499725'
S'Sujan Sengupta'
tp180
a(S'100000922338833'
S'Ayush Nopany'
tp181
a(S'776535242'
S'Atul Pandey'
tp182
a(S'100000412418837'
S'Sunny Prabhakar Roy'
tp183
a(S'100001491641102'
S'Nikhil Jain'
tp184
a(S'1019625926'
S'Barun Agarwal'
tp185
a(S'787043678'
S'Divya Shovit'
tp186
a(S'100000548371634'
S'Nivethaa Thinakeran'
tp187
a(S'100003526614611'
S'Rajan Kumar'
tp188
a(S'100000387583793'
S'Devesh Chandra'
tp189
a(S'716283428'
S'Hajara Shahabdeen'
tp190
a(S'100000696346219'
S'Snigdha Sinha'
tp191
a(S'647446880'
S'Yuvraj Srivastava'
tp192
a(S'1106293516'
S'Savyasachi Roy'
tp193
a(S'1311878054'
S'Hemantha Goonewardena'
tp194
a(S'627807768'
S'Saomya Mehta'
tp195
a(S'1677585421'
S'Harsh Vardhan'
tp196
a(S'538390025'
S'Suhani Talwar'
tp197
a(S'100000259983954'
S'Faria Akhter'
tp198
a(S'100002024432518'
S'Shailja Mishra'
tp199
a(S'678606830'
S'Ehsas Manikant'
tp200
a(S'1182590541'
S'Abhinav Vatsa'
tp201
a(S'1054697459'
S'Megha Pahwa'
tp202
a(S'100000374126814'
S'Kaushiki Sinha'
tp203
a(S'849794315'
S'Jayant Kaushik'
tp204
a(S'100000995141505'
S'Sourav Paul'
tp205
a(S'508243858'
S'Sreemoyee Sengupta'
tp206
a(S'100000202601199'
S'Kishu Chandra'
tp207
a(S'100000443370518'
S'Gaurav Singh'
tp208
a(S'100002721253932'
S'Archie Datta'
tp209
a(S'661224059'
S'Renu Singal'
tp210
a(S'100000391937115'
S'Dixya Bhandari'
tp211
a(S'100000282940505'
S'Shyamal Gupta'
tp212
a(S'100000645644234'
S'Suchitra Singh'
tp213
a(S'1326056239'
S'Sunara Sth'
tp214
a(S'100000410610465'
S'Mehar Sandhu'
tp215
a(S'1348994346'
S'Aditya Prakash'
tp216
a(S'100000111477936'
S'Divyanshu Singh'
tp217
a(S'100006000936213'
S'Siddharth Kataruka'
tp218
a(S'1129442319'
S'Pritish Jha'
tp219
a(S'100001595208977'
S'Rabina Kc'
tp220
a(S'1167762146'
S'Rumy Sen'
tp221
a(S'100000596104814'
S'Chaitanya Vir Bhandari'
tp222
a(S'100001847342009'
S'Abhaya Khatiwada'
tp223
a(S'100000369090732'
S'Chachhu Bhattarai'
tp224
a(S'1695782608'
S'Neeta Sharma'
tp225
a(S'661943566'
S'Anshul Kirti'
tp226
a(S'100000074924593'
S'Kaushal Bhanger'
tp227
a(S'100000094967987'
S'Himanshu Jatav'
tp228
a(S'100000478323286'
S'Ajay Choondal'
tp229
a(S'100003128860721'
S'Chetan Coolz'
tp230
a(S'100001024976119'
S'Jayant Bhagwan Mishra'
tp231
a(S'100003313291068'
S'Prashanth Kempul'
tp232
a(S'3330005'
S'Vasundhara Prakash'
tp233
a(S'680586752'
S'Sajid Iqubal'
tp234
a(S'100000117717417'
S'Ram Onfb Kishore'
tp235
a(S'561069863'
S'Akshat Bhardwaj'
tp236
a(S'100002434136531'
S'Vinitha Jaganathan'
tp237
a(S'100000019014113'
S'Ankit Chandra'
tp238
a(S'100000280968197'
S'Harsh Makharia'
tp239
a(S'100002422493068'
S'Anuranjan Kumar'
tp240
a(S'743884775'
S'Ritoparno Sarkar'
tp241
a(S'746939828'
S'Oshadhi Karunasekara'
tp242
a(S'100002844154488'
S'Shamil Dep'
tp243
a(S'1814904186'
S'Varenya Vikrant'
tp244
a(S'702863995'
S'Prajwal Upadhyay'
tp245
a(S'749544635'
S'Anshu Pandey'
tp246
a(S'100006055866219'
S'Palak Sharma'
tp247
a(S'657272696'
S'Arjun Vij'
tp248
a(S'1048965844'
S'Aakashdeep Singh'
tp249
a(S'662840010'
S'Amar Sahu'
tp250
a(S'100000498679777'
S'Shekhar Suman'
tp251
a(S'100001478136179'
S'Vaibhav Singh Shrinet'
tp252
a(S'100000170029679'
S'Vivek Kumar'
tp253
a(S'100000380808464'
S'Aditi Dasgupta'
tp254
a(S'100001257678578'
S'Anirban Ghosh Mazumder'
tp255
a(S'782818288'
S'Shampa Das'
tp256
a(S'826780222'
S'Vishesh Sinha'
tp257
a(S'100001023587771'
S'Varunendra Pratap Singh Chauhan'
tp258
a(S'100000548527450'
S'Kabeeta Pathak'
tp259
a(S'1420992834'
S'Ravi Sulabh'
tp260
a(S'100000628216589'
S'Ruchi Gupta'
tp261
a(S'503812904'
S'Shoumit Mukho'
tp262
a(S'100002742234998'
S'Amit Kumar Chatterjee'
tp263
a(S'100003651005145'
S'Dharmender Kumar'
tp264
a(S'100002560741227'
S'Ruth Anketell'
tp265
a(S'753928009'
S'Mayank Jha'
tp266
a(S'1786235672'
S'Amartya Roy'
tp267
a(S'644585030'
S'Akanksha Jaswal'
tp268
a(S'100000658096227'
S'Siddhi Srivastava'
tp269
a(S'603665223'
S'Harshit Krishna'
tp270
a(S'100001767251878'
S'Kashish Thaper'
tp271
a(S'504293619'
S'Shreeja Shah'
tp272
a(S'100000599545791'
S'Sadhika Verma'
tp273
a(S'100000296052009'
S'Subodh Gyawali'
tp274
a(S'1577433763'
S'Gourav Dwivedi'
tp275
a(S'1127995153'
S'Adwiti Verma'
tp276
a(S'616373723'
S'Tarun Sinha'
tp277
a(S'1629844123'
S'Diksha Prakash'
tp278
a(S'100000512165812'
S'Asraf Hussain'
tp279
a(S'593740446'
S'Pratichya Thapa'
tp280
a(S'2234484'
S'Bhaskar Mitra'
tp281
a(S'1558172045'
S'Pratyush Pratyankar'
tp282
a(S'634705616'
S'Anuradha Marwah'
tp283
a(S'100000208926564'
S'Aamir Jamal'
tp284
a(S'1382210265'
S'Mohit Mohan'
tp285
a(S'100000894471605'
S'Priyanshu Shrivastava'
tp286
a(S'100001638524109'
S'Bishesh Lamichhane'
tp287
a(S'100002079589834'
S'Siddhant Agarwal'
tp288
a(S'701044106'
S'Shatabdi Basu Gupta'
tp289
a(S'1251266293'
S'Aman Pachisia'
tp290
a(S'100000055067052'
S'Diwash Hsawid'
tp291
a(S'100000473525610'
S'Prashant Kumar Singh'
tp292
a(S'100001022915668'
S'Akhoury Abhishek'
tp293
a(S'100001100993984'
S'Naef Iqbal'
tp294
a(S'1089619092'
S'Abhinav Sardana'
tp295
a(S'100001317618634'
S'Harshita Sinha'
tp296
a(S'1642573993'
S'Joyita Sarkar'
tp297
a(S'842114718'
S'Sarthak Arora'
tp298
a(S'1288172010'
S'Shashwat Jha'
tp299
a(S'783177312'
S'Pratyush Vaibhav'
tp300
a(S'100000252632457'
S'Surya Pratap Singh'
tp301
a(S'1600645976'
S'Deval Roy'
tp302
a(S'100001538584931'
S'Sanya Rana'
tp303
a(S'514822624'
S'Zara Ahmed'
tp304
a(S'100001751798781'
S'Saroj Khanal'
tp305
a(S'100001094894416'
S'Amber Sinha'
tp306
a(S'1792779105'
S'Yashaswi Dawadi'
tp307
a(S'100001382225897'
S'Atishay Sinha'
tp308
a(S'1229828995'
S'Akshay Kantha'
tp309
a(S'100002140048787'
S'Tabish Jasir'
tp310
a(S'100001474540813'
S'Saima Ahmed'
tp311
a(S'100000043768975'
S'Khalid Khan'
tp312
a(S'100001136979346'
S'Anubhav Khowala'
tp313
a(S'536098134'
S'Chhavi Varma'
tp314
a(S'1676192589'
S'Nishant Ranjan'
tp315
a(S'597921314'
S'Divya Lakshmi'
tp316
a(S'100001997521526'
S'Mayank Sinha'
tp317
a(S'1235916827'
S'Ankita Gupta'
tp318
a(S'100000210371304'
S'Aakash Rohan'
tp319
a(S'100000197477033'
S'Hemant Kumar'
tp320
a(S'100001389830836'
S'Sanchit Bajpai'
tp321
a(S'100000052549847'
S'Chandra Sekhar Yadav'
tp322
a(S'1017893563'
S'Pranay Jain'
tp323
a(S'1348376074'
S'Jeremiah Shamter'
tp324
a(S'100001479000589'
S'Rohan Gupta'
tp325
a(S'100000308962514'
S'Anurag Kumar'
tp326
a(S'522998987'
S'Shanker Dutt'
tp327
a(S'1306038024'
S'Shashwat Vyas'
tp328
a(S'100003196110426'
S'Uppala Venkata Sunil Chowdary'
tp329
a(S'1413275933'
S'Mohit Banka'
tp330
a(S'511972266'
S'Jenny Pun'
tp331
a(S'100001613365867'
S'Taposh Roy'
tp332
a(S'1107758915'
S'Pankaj Bhardwaj'
tp333
a(S'100000012408465'
S'Suson Ghimire'
tp334
a(S'1281930450'
S'Mitchell Suchiang'
tp335
a(S'522061858'
S'Sarah Sahib'
tp336
a(S'1011466411'
S'Bedanta Roy'
tp337
a(S'824205318'
S'Arupendu Gupta'
tp338
a(S'1111601804'
S'Preeti Sinha'
tp339
a(S'610468919'
S'Kalpana Acharya'
tp340
a(S'100001449979561'
S'Minaketan Pradhan Vicky'
tp341
a(S'594808974'
S'Purushendra Kumar'
tp342
a(S'100000365832242'
S'Tushar Sinha'
tp343
a(S'579031127'
S'Tharinda Dalpethado'
tp344
a(S'1012615879'
S'Arijit Das'
tp345
a(S'100000664984189'
S'Bidhya Poudel'
tp346
a(S'100001030233324'
S'Rahul Karn'
tp347
a(S'100000027942807'
S'Sonali Tyagi'
tp348
a(S'100001503293324'
S'Avinash Jha'
tp349
a(S'599716254'
S'Vishrut Jain'
tp350
a(S'571738503'
S'Yash Kapoor'
tp351
a(S'100000602175555'
S'Komal Thakur'
tp352
a(S'510642657'
S'Vanshaj Agarwal'
tp353
a(S'1121961742'
S'Ayushya Jamaiyar'
tp354
a(S'100004217850438'
S'Shivani Ghosh'
tp355
a(S'749024761'
S'Abhikendu Gupta'
tp356
a(S'100002273144099'
S'Utkarsh Shashank'
tp357
a(S'572636959'
S'Adarsh Kumar'
tp358
a(S'100000105490451'
S'Shomik Bhattacharya'
tp359
a(S'100000615515363'
S'Abhishek Kumar Singh'
tp360
a(S'1486423477'
S'Aman Raj'
tp361
a(S'100002832637447'
S'Shebbar Haniffa'
tp362
a(S'100000048451817'
S'Anupam Aman'
tp363
a(S'100001242691004'
S'Sumit Priyam'
tp364
a(S'100001072589023'
S'Parwez Alam'
tp365
a(S'659395135'
S'Vrinda Kataruka'
tp366
a(S'1559341094'
S'Venkat Vamsi'
tp367
a(S'710875702'
S'Arindam Roy'
tp368
a(S'1840380385'
S'Vibhor Ahluwalia'
tp369
a(S'100000037141951'
S'Raghav Rakesh'
tp370
a(S'765136263'
S'Sitasma Dangi'
tp371
a(S'100000626311463'
S'Siddharth Xabat'
tp372
a(S'100000371194882'
S'Anuj Lal'
tp373
a(S'100002100248554'
S'Monu Dahit'
tp374
a(S'100000921189622'
S'Ajay Agrahari'
tp375
a(S'100002895846932'
S'Sumeet Nayak'
tp376
a(S'835110651'
S'Anirudh Bose Mullick'
tp377
a(S'545205226'
S'Deepaloke Chatterjee'
tp378
a(S'100000694273553'
S'Nikhil Shankar'
tp379
a(S'602550461'
S'Aditya Luthra'
tp380
a(S'1275769358'
S'Shivangi Murari'
tp381
a(S'823800724'
S'Ishani Sen'
tp382
a(S'736104822'
S'Puja Grover'
tp383
a(S'100000941650397'
S'Akshay Khowala'
tp384
a(S'100000036925568'
S'Saket Saurabh'
tp385
a(S'100000888890281'
S'Uzma Jawaid'
tp386
a(S'541473253'
S'Astha Wagle'
tp387
a(S'520549632'
S'Sugata Sengupta'
tp388
a(S'1531820389'
S'Eesha Das Gupta'
tp389
a(S'1014133720'
S'Ayush Maskara'
tp390
a(S'1652153112'
S'Kaivalya Nigam'
tp391
a(S'1025243816'
S'Atulya Chandra'
tp392
a(S'653018358'
S'Sheena Ahluwalia'
tp393
a(S'100001027367111'
S'Kumar Baibhav'
tp394
a(S'100000912445270'
S'Shubham Jain'
tp395
a(S'1476900503'
S'Dilky Ranaraja'
tp396
a(S'100000795930933'
S'Bhawna Bhardwaj'
tp397
a(S'1135171507'
S'Divya Prakash'
tp398
a(S'1469464337'
S'Kabeer ..'
tp399
a(S'100000520746174'
S'Yashvi Ahluwalia'
tp400
a(S'100001711328235'
S'Goma Rimal'
tp401
a(S'1043477295'
S'Parth Karki'
tp402
a(S'100000395015554'
S'Shanky Tayal'
tp403
a(S'100001624917921'
S'Vishal Saurabh'
tp404
a(S'1207629021'
S'Nita Kumar'
tp405
a(S'100000023095321'
S'Arunava Mandal'
tp406
a(S'100004242187636'
S'Runu Sarkar Datta'
tp407
a(S'662361388'
S'Priyam Kedia'
tp408
a(S'747252584'
S'Josh Sen'
tp409
a(S'1833252452'
S'Arunima Sharma'
tp410
a(S'571125033'
S'Tanya Anand'
tp411
a(S'100001815447169'
S'Rakesh Baitha'
tp412
a(S'729670154'
S'Aditi Tripathi'
tp413
a(S'1792331878'
S'Brijesh Sathian'
tp414
a(S'100000593166775'
S'Amrit Kaur'
tp415
a(S'100006716984466'
S'Shreyanka Malla'
tp416
a(S'1272439635'
S'Vaibhav Ahluwalia'
tp417
a(S'1264872241'
S'Rishav Mandholia'
tp418
a(S'1216858299'
S'Ankit Adarsh'
tp419
a(S'601193592'
S'Gautam Banka'
tp420
a(S'100001240294195'
S'Siddharth Rout'
tp421
a(S'1191057992'
S'Fiona McDermott'
tp422
a(S'100000585194737'
S'Alice Jhaa'
tp423
a(S'1047143814'
S'Anurag Pratik'
tp424
a(S'1458709710'
S'Ravin Jegathnathan'
tp425
a(S'100001554007223'
S'Gowtham Nagarajan'
tp426
a(S'1585475652'
S'Phanindra Prasad Poudel'
tp427
a(S'1075013426'
S'Abhayankar Singh'
tp428
a(S'1431273856'
S'Sidharth Sharma'
tp429
a(S'1476990128'
S'Barun Sarkar'
tp430
a(S'1030104547'
S'Naval Kishor'
tp431
a(S'100000048076912'
S'Sreyash Chowdhary'
tp432
a(S'586684438'
S'Shrila Mitra'
tp433
a(S'574282989'
S'Aditi Bose Mullick'
tp434
a(S'100003041405963'
S'Muniba Sami'
tp435
a(S'675871968'
S'Duco Jeswiet'
tp436
a(S'100001216489080'
S'Megha Rani'
tp437
a(S'100001413893584'
S'Ruchika Agrawal'
tp438
a(S'1070813617'
S'Pratyush Kumar'
tp439
a(S'100001250522361'
S'Shreya Prakash'
tp440
a(S'1445071450'
S'Janmejay Singh'
tp441
a(S'582493098'
S'Ankur Rungta'
tp442
a(S'100004543175334'
S'Niraj Yadav'
tp443
a(S'100004033633006'
S'Anshul Srivastava'
tp444
a(S'100000860075160'
S'Supram Gowda'
tp445
a(S'1102327990'
S'Aparajita Singh'
tp446
a(S'624255568'
S'Prakriti Mukerjee'
tp447
a(S'100000271384059'
S'Aviskar Sharma'
tp448
a(S'598040614'
S'Rojina Shakya'
tp449
a(S'100003364982904'
S'Sandhya Baral'
tp450
a(S'1612291783'
S'Nizam Bushurdeen'
tp451
a(S'1261850496'
S'Shrila Mitra'
tp452
a(S'100000594632948'
S'Boyee Enn Blak'
tp453
a(S'657960003'
S'Acharya LAwa'
tp454
a(S'100000938641929'
S'Kumar Kartikey'
tp455
a(S'100000928239684'
S'Atul Tiwari'
tp456
a(S'100000592947514'
S'Gaurav Nandan'
tp457
a(S'100002437806063'
S'Devesh Kumar'
tp458
a(S'521605393'
S'Khushboo Gupta'
tp459
a(S'100004086676399'
S'Priyadarshini Ghosh'
tp460
a(S'100000272244685'
S'Jayita Saha'
tp461
a(S'825273863'
S'Shamil Mohsin'
tp462
a(S'100000117230318'
S'Ananjan Datta'
tp463
a(S'100003337306604'
S'Divya Gc'
tp464
a(S'1256232995'
S'Akansha Pandey'
tp465
a(S'785623497'
S'Rahul Raj'
tp466
a(S'100000844569488'
S'Babul Kumar'
tp467
a(S'1135245385'
S'Afthab Ameer Ali'
tp468
a(S'100001272049682'
S'Karun Neupane'
tp469
a(S'1807183140'
S'Aayush Hritik'
tp470
a(S'100000494030608'
S'Swapnil Singh'
tp471
a(S'100002018222452'
S'Shubham Yadav'
tp472
a(S'1593138989'
S'Anita Singh'
tp473
a(S'100000096877908'
S'Naman Agrawal'
tp474
a(S'100001355405530'
S'Suyesh Kishore'
tp475
a(S'100002594910709'
S'Prerna Sinha'
tp476
a(S'756639421'
S'Tara Sami Dutt'
tp477
a(S'100001003333908'
S'Akarsh Dev'
tp478
a(S'100000076032062'
S'Somya Sinha'
tp479
a(S'100001192825986'
S'Arijit Ghosh Mazumder'
tp480
a(S'1840667863'
S'Zaid Abdin'
tp481
a(S'1339116252'
S'Satyanshu Kumar'
tp482
a(S'193201510'
S'Mitali Nisha'
tp483
a(S'100002672995687'
S'Amal Singh'
tp484
a(S'1445030674'
S'Aastha Randhawa'
tp485
a(S'100000092944677'
S'Adnan Nauman'
tp486
a(S'1407452117'
S'Devansh Prasad'
tp487
a(S'627903832'
S'Pranay Sinha'
tp488
a(S'100001850165613'
S'Prakar Poudel'
tp489
a(S'1512496189'
S'Vineet Vaibhav'
tp490
a(S'1443198998'
S'Mohamed Atheef'
tp491
a(S'1388963203'
S'Tarun Sen'
tp492
a(S'100000885918619'
S'Sathika Nawaratne'
tp493
a(S'510688047'
S'Arjun Agarwala'
tp494
a(S'744458609'
S'Anshika Pandey'
tp495
a(S'100002303854489'
S'Kimmi Brar'
tp496
a(S'100000560096263'
S'Shivangi Shubham'
tp497
a(S'1598451521'
S'Yash Rohatgi'
tp498
a(S'1826350541'
S'Raghav Saraf'
tp499
a(S'623451127'
S'B\\u00e1rbara Wolfs Ordo\\u00f1ez Rodriguez'
tp500
a(S'100001003861075'
S'Jesika Jain'
tp501
a(S'100001063909747'
S'Shivani Karn'
tp502
a(S'1135195907'
S'Shubhada Rajlakshmi'
tp503
a(S'100001551498024'
S'Chandrahas Bharti'
tp504
a(S'552701766'
S'Arpit Anand'
tp505
a(S'100001151532785'
S'Arunabh Sharma'
tp506
a(S'1657750527'
S'Jeffrey Imam'
tp507
a(S'100000075211915'
S'Uddepti Mandhyani'
tp508
a(S'100001327190444'
S'Tomiko Popp'
tp509
a(S'100000222650735'
S'Amar Arjun'
tp510
a(S'100000016713428'
S'Jitendra Mathuria'
tp511
a(S'100001441744259'
S'Akash Mittal'
tp512
a(S'100001069185844'
S'Riti Raj'
tp513
a(S'100001814201808'
S'Rishanki Agarwal'
tp514
a(S'100002390048306'
S'Pushpa Sah'
tp515
a(S'1346406467'
S'Rathindran M.k'
tp516
a(S'1463754871'
S'Rajan Barnwal'
tp517
a(S'574711006'
S'Pratyush Singh'
tp518
a(S'100000266382713'
S'Sandip Biswas'
tp519
a(S'100001494691760'
S'Tripti Shrivastava'
tp520
a(S'100000069604585'
S'Chhitiz Gupta'
tp521
a(S'1848686198'
S'Zaid Nasar'
tp522
a(S'100000196367355'
S'Rabin Adhikari'
tp523
a(S'100001208781527'
S'Ishara Kumarasiri'
tp524
a(S'701828947'
S'Anindya Singh'
tp525
a(S'1075031530'
S'Gowtham Ponkailasam'
tp526
a(S'1557524324'
S'Sehar Fatima'
tp527
a(S'100000381512142'
S'Shantanu Sagar'
tp528
a(S'100001930606526'
S'DrIndrajit Banerjee'
tp529
a(S'100002296387102'
S'ARach Ana'
tp530
a(S'1345433070'
S'Anuradha Sen'
tp531
a(S'100001003456484'
S'Harshita Singh'
tp532
a(S'633464672'
S'Tejrashi Mehrotra'
tp533
a(S'100006613634018'
S'Ashish Anshuman'
tp534
a(S'665040426'
S'Purna Sen'
tp535
a(S'100000489212012'
S'Abhishek Raj'
tp536
a(S'639161905'
S'Aayush Aryal'
tp537
a(S'511873098'
S'Sameer Gupta'
tp538
a(S'100001506992941'
S'Achini Bhagya Wanigasekera'
tp539
a(S'100000180544939'
S'Nikeeta Mishra'
tp540
a(S'100001237573412'
S'Avinash Kumar'
tp541
a(S'510033303'
S'Nupur Singh'
tp542
a(S'100002543204198'
S'Aishwarya Sharma'
tp543
a(S'100000633567432'
S'Ishwarya Ishu'
tp544
a(S'100002488539255'
S'Swarupa Sinha'
tp545
a(S'1707450383'
S'Vyom Abhinav'
tp546
a(S'716240364'
S'Surbhi Srivastava'
tp547
a(S'100000323805655'
S'Eram Hussain Pasha'
tp548
a(S'1566309345'
S'Arpit Kaler'
tp549
a(S'100000970621332'
S'Arvind Shah'
tp550
a(S'1442561922'
S'Punj Rajan'
tp551
a(S'1352702757'
S'Ria Narayan'
tp552
a(S'1048842357'
S'Shivam Raj'
tp553
a(S'542479328'
S'Pratik Choudhary'
tp554
a(S'861530542'
S'Lakwin Samaranayake'
tp555
a(S'529730530'
S'Nikhil Agrawal'
tp556
a(S'709396567'
S'Anand Bhardwaj'
tp557
a(S'100000981324409'
S'Richa Priya'
tp558
a(S'100004057383990'
S'Parwez Alam'
tp559
a(S'581341273'
S'Shaurya Shahi'
tp560
a(S'100001221197656'
S'Chathura Wickramasinghe'
tp561
a(S'1166345109'
S'Meet Mukesh Paswan'
tp562
a(S'100001337007506'
S'Abhinav Vatsa'
tp563
a(S'100000171320376'
S'Shilpa Vardhan'
tp564
a(S'100002895558216'
S'Kumar Abhishek'
tp565
a(S'100000983553894'
S'Sunil Tamang'
tp566
a(S'100002491395300'
S'Vikas Singh Kaurav'
tp567
a(S'100001514221789'
S'Surya Kant Thakur'
tp568
a(S'100004026005869'
S'Shihara Thaha'
tp569
a(S'1118841538'
S'Kushal Priyadarshi'
tp570
a(S'100000765345843'
S'Bir Parkash Arora'
tp571
a(S'100000931197061'
S'Gulshan Raj'
tp572
a(S'1307648479'
S'Anumeha Komalam'
tp573
a(S'600046360'
S'Ian Maynard'
tp574
a(S'1373872368'
S'Siddharth Awasthy'
tp575
a(S'100000420369742'
S'Gazi Tanzina Mehnaz'
tp576
a(S'100002415162099'
S'Chamithra Dilshani'
tp577
a(S'1506866'
S'Neil Sen'
tp578
a(S'100000168857012'
S'Mayur Singh'
tp579
a(S'100000756938568'
S'Mandira Roy'
tp580
a(S'100003467469541'
S'Abhinav Anuj'
tp581
a(S'100000384973647'
S'Vivek Sharma'
tp582
a(S'680625571'
S'Manjeet Baba'
tp583
a(S'100001193103172'
S'Vikas Gupta'
tp584
a(S'100001670884020'
S'Ankit Kumar'
tp585
a(S'823868017'
S'Anirudh Roy'
tp586
a(S'100001173195948'
S'Kumar Bista'
tp587
a(S'100001147547815'
S'Sresta Raul'
tp588
a(S'100000543727210'
S'Ravi Ranjan Kumar'
tp589
a(S'1679364952'
S'Yuvraj Singh Rao'
tp590
a(S'100001358315276'
S'Ashim Batajoo'
tp591
a(S'100002818686589'
S'Bala Abirami'
tp592
a(S'100001945724316'
S'Shwetank Saurabh'
tp593
a(S'509885281'
S'Praneet Daniel Peppin'
tp594
a(S'100000162901715'
S'Ritwik Singh'
tp595
a(S'1606170556'
S'Ketan Sahu'
tp596
a(S'717630785'
S'Amba Singh'
tp597
a(S'100000294735707'
S'Ratnarajan Thivakulan'
tp598
a(S'653936478'
S'Arthika Sakthivel'
tp599
a(S'100001280213311'
S'Sadd-e Rocx'
tp600
a(S'666444874'
S'Monami Mukherjee'
tp601
a(S'100003564642949'
S'Shivani Prasad'
tp602
a(S'1813406167'
S'Ankur Kislaya'
tp603
a(S'100002080072907'
S'Jagdish Sharma'
tp604
a(S'680271122'
S'Deep Doshi'
tp605
a(S'100001094509854'
S'Vishvneet Singh'
tp606
a(S'1004012073'
S'Guriqbal Singh Aujla'
tp607
a(S'1109113873'
S'Sanjukta Dasgupta'
tp608
a(S'100007341426877'
S'Devika Roy'
tp609
a(S'557075145'
S'Steffen Bern\\u00e5rdsh\\u00e5w'
tp610
a(S'1466903575'
S'Arshit Anand'
tp611
a(S'684738400'
S'Abhishek Pandey'
tp612
a(S'100000475232310'
S'Shailendra Singh Shyam'
tp613
a(S'100003001309768'
S'Nibha Bharti'
tp614
a(S'100000105756230'
S'Aman Sinha'
tp615
a(S'502888608'
S'Natasha Anand'
tp616
a(S'1836414073'
S'Sanskrit Singh'
tp617
a(S'1235734280'
S'Sudhanshu Kumar'
tp618
a(S'100000476472045'
S'Suman Brad Delson Madrista'
tp619
a(S'100001131038027'
S'Sharad Goel'
tp620
a(S'100000748174331'
S'Mahesh Vijayabaskaran'
tp621
a(S'1203360157'
S'Dhritiman Roy'
tp622
a(S'1573852771'
S'Satyam Shashwat'
tp623
a(S'100005511763532'
S'Abhishek Jhaa'
tp624
a(S'763272437'
S'Anshul Agarwal'
tp625
a(S'677951992'
S'Shubhaditya Choudhary'
tp626
a(S'100002269551588'
S'Saksham Kc'
tp627
a(S'1449678418'
S'Shrey Parth'
tp628
a(S'100000372332423'
S'Dija Khanal'
tp629
a(S'100002230856965'
S'Coomar Kislay'
tp630
a(S'1046093280'
S'Shrinath Banka StrEet SwagGer'
tp631
a(S'100001275488740'
S'Sweekruti Hegde'
tp632
a(S'100000184902829'
S'Prabhat Sharma'
tp633
a(S'100000264695598'
S'Mannu Nayyar'
tp634
a(S'100006797258279'
S'Shalika Seneviratne'
tp635
a(S'1406731902'
S'Md Kashif Husain'
tp636
a(S'573403812'
S'Sanjay K Roy'
tp637
a(S'1007092703'
S'Adhip Mitra'
tp638
a(S'1206485764'
S'Ravi Prakash'
tp639
a(S'100004488516332'
S'Dilip Sen'
tp640
a(S'100000843759571'
S'Neena Mishra Jha'
tp641
a(S'100005139492649'
S'Indeema Satarasinghe'
tp642
a(S'100000400235216'
S'Kumar Saurabh'
tp643
a(S'797403997'
S'Aditi Shankar'
tp644
a(S'608074489'
S'Pranav Nanjappa'
tp645
a(S'550794187'
S'Susmita Sinha'
tp646
a(S'100001144931116'
S'Pragya Singh'
tp647
a(S'1253513410'
S'Niyati Kapoor'
tp648
a(S'1468207983'
S'Vidhi Arora'
tp649
a(S'100002568643782'
S'Manish Abhishek'
tp650
a(S'100007627021043'
S'Ashma Shahi'
tp651
a(S'1811944556'
S'Alok Sinha'
tp652
a(S'578258409'
S'Sharat Kumar Singh'
tp653
a(S'100001161806751'
S'Devesh Prakash'
tp654
a(S'1565632172'
S'Sandeep Sen'
tp655
a(S'100000831136186'
S'Chirag Subedi'
tp656
a(S'1274408181'
S'Smita Adhikari'
tp657
a(S'1499371244'
S'Shubham Goyal'
tp658
a(S'596961843'
S'Arya Gupta'
tp659
a(S'100007226114304'
S'Debjani Sarkar'
tp660
a(S'659687007'
S'Vaneesha Jain'
tp661
a(S'100003336922032'
S'Geetpriya Murugesan'
tp662
a(S'1208274431'
S'Manash Deb Nath'
tp663
a(S'572742603'
S'Sudesh Gyawali'
tp664
a(S'100004031711484'
S'Navway Sharma'
tp665
a(S'816050416'
S'Naomi Burgess'
tp666
a(S'543585205'
S'Jayant Mukho'
tp667
a(S'669187618'
S'Mohit Choudhary'
tp668
a(S'1358023378'
S'SaNya DaYal'
tp669
a(S'1069695734'
S'Amit Sen'
tp670
a(S'677427060'
S'Yash Jha'
tp671
a(S'100000279486548'
S'Archana Rani'
tp672
a(S'688573403'
S'Deepshikha Batheja'
tp673
a(S'100001840843979'
S'Akash Anshuman'
tp674
a(S'100003374865938'
S'Ambrin Khan'
tp675
a(S'504168527'
S'Stefan A. Fernando'
tp676
a(S'100002009057413'
S'Yaswanth Reddy'
tp677
a(S'100002889528120'
S'Bds Balajisah'
tp678
a(S'100001025491544'
S'Rishabh Singh'
tp679
a(S'1606971841'
S'Abhiniti Srivastava'
tp680
asS'id'
p681
S'785402331'
p682
sS'name'
p683
S'Indroneel Sen'
p684
s.