(dp1
S'name'
p2
S'Sumedha Verma Ojha'
p3
sS'current_class'
p4
S'india'
p5
sS'home_class'
p6
Vranchi, jharkhand, india
p7
sS'home_text'
p8
VRanchi, Jharkhand\u000aHometown
p9
sS'current_link'
p10
Vhttps://www.facebook.com/l.php?u=https%3A%2F%2Fwww.bing.com%2Fmaps%2Fdefault.aspx%3Fv%3D2%26pc%3DFACEBK%26mid%3D8100%26where1%3D46.200000042566%252C%2B6.1495971679688%26name%3DGeneva%252C%2BSwitzerland%26mkt%3Den-IN&h=CAQHjMTLw&s=1
p11
sS'home_link'
p12
Vhttps://www.facebook.com/l.php?u=https%3A%2F%2Fwww.bing.com%2Fmaps%2Fdefault.aspx%3Fv%3D2%26pc%3DFACEBK%26mid%3D8100%26where1%3D23.350000744252%252C%2B85.329437255859%26name%3DRanchi%252C%2BJharkhand%26mkt%3Den-IN&h=QAQFsB5tp&s=1
p13
sS'current_text'
p14
VGeneva, Switzerland\u000aCurrent City
p15
sS'friends'
p16
(lp17
(S'100004575396313'
S'Asad Khan'
tp18
a(S'797241958'
p19
S'Sumedha Verma Ojha'
tp20
asS'id'
p21
g19
s.