(dp1
S'friends'
p2
(lp3
(S'517541416'
S'Anurita Argal Acharya'
tp4
a(S'502897388'
S'Rithvik Hegde'
tp5
a(S'1817887033'
S'Anurag Garg'
tp6
a(S'502057230'
S'Bhuvanyu Singh'
tp7
a(S'1431066925'
S'Tulika Mehra Sekhon'
tp8
a(S'1110197841'
S'Swapnil Misra'
tp9
a(S'703955920'
S'Sachin Tandon'
tp10
a(S'586839362'
S'Sonia Chodhry Sachdev'
tp11
a(S'688811649'
S'Amir Munawar'
tp12
a(S'586807586'
S'Vinod Khot'
tp13
a(S'509669859'
S'Neha Jain'
tp14
a(S'630217097'
S'Howard Yeh'
tp15
a(S'717246013'
S'Deepa Joshi'
tp16
a(S'100001455303561'
S'Kumkum Sharma'
tp17
a(S'100003811791578'
S'Saroj Arya Bhushan'
tp18
a(S'193110465'
S'Isha Kacker'
tp19
a(S'567780486'
S'Riga Malhotra'
tp20
a(S'804389685'
S'Kriti Vikram'
tp21
a(S'503655049'
S'Bharat Sethi'
tp22
a(S'501004087'
S'Anubhav Kacker'
tp23
a(S'631050460'
S'Mugdha Shah'
tp24
a(S'100002456683886'
S'Amit Mathur'
tp25
a(S'1516697306'
S'Sweksha Kaushik'
tp26
a(S'503260552'
S'Abhimanyu Basu'
tp27
a(S'702835649'
S'Tina Sharma'
tp28
a(S'100004525560720'
S'Drdharam Sharma'
tp29
a(S'516780920'
S'Anurag Khemka'
tp30
a(S'717090769'
S'Kumar Mahtani'
tp31
a(S'733650003'
S'Garima Kothari'
tp32
a(S'1340746858'
S'Urvashi Saxena'
tp33
a(S'706186895'
S'Paulomee Mehra'
tp34
a(S'765195701'
S'Pranav Premnarayen'
tp35
a(S'821755102'
S'Neeta Shah'
tp36
a(S'736785469'
S'Meeta Bajpai'
tp37
a(S'100000146621251'
S'Ashok Kumar'
tp38
a(S'100002433306766'
S'Kiran Srivastava'
tp39
a(S'1343962226'
S'V Francis John'
tp40
a(S'662271534'
S'Charudutt Dangat'
tp41
a(S'572957149'
S'Romain Guerel'
tp42
a(S'1003809965'
S'Praveen Kumar Sethi'
tp43
a(S'1059561207'
S'Parul Tyagi'
tp44
a(S'737655872'
S'Kabir Sehgal'
tp45
a(S'1016124555'
S'Babar Afzal'
tp46
a(S'642430882'
S'Anuraag Consul'
tp47
a(S'691445416'
S'Archana Saraf'
tp48
a(S'4715559'
S'Mayank Verma'
tp49
a(S'668735509'
S'Karan Kaushik'
tp50
a(S'513217480'
S'Anvi Parikh Thaker'
tp51
a(S'626431231'
S'Vikram Malhotra'
tp52
a(S'100002818521940'
S'Archana Bagri'
tp53
a(S'100003137520909'
S'Amit Rajgarhia'
tp54
a(S'538448496'
S'Pranjul Kapur Tandon'
tp55
a(S'509679331'
S'Vidhi Kapoor'
tp56
a(S'100001059235632'
S'Shams Kamruddin'
tp57
a(S'736535812'
S'Sumit Bhushan Sharma'
tp58
a(S'501152264'
S'Vikram Kamat'
tp59
a(S'892395088'
S'Aishath Azeema'
tp60
a(S'604957533'
S'Aditya Loomba'
tp61
a(S'500331404'
S'Prabhjot Saini'
tp62
a(S'670588482'
S'Nikkie Bajpai'
tp63
a(S'100003680582427'
S'Anamika Khanna'
tp64
a(S'100002857205966'
S'Archana Sarin'
tp65
a(S'824555108'
S'Arpit Patni'
tp66
a(S'553525815'
S'Dipesh Modi'
tp67
a(S'100003575642269'
S'Sammeer Sata'
tp68
a(S'593977424'
S'Anuj Mehta'
tp69
a(S'539098109'
S'Nitin Sebastian Thomas'
tp70
a(S'610420357'
S'Pasha Pasricha'
tp71
a(S'601505568'
S'Abhishek Bagri'
tp72
a(S'732095242'
S'Pooja Shivdasani'
tp73
a(S'501144677'
S'Mallika Sabunani'
tp74
a(S'636775492'
S'Archana Trasy'
tp75
a(S'710792433'
S'Manish Shukla'
tp76
a(S'100006536767110'
S'Maldives Mumbai'
tp77
a(S'755728101'
S'Amyn Nanjee'
tp78
a(S'510293425'
S'Murtuza Tambawala'
tp79
a(S'814918437'
S'Kaustuv Sen'
tp80
a(S'786037048'
S'Abhishek Sachdev'
tp81
a(S'715956215'
S'Neha Mehra'
tp82
a(S'1039661554'
S'Bobby Singh'
tp83
a(S'707151119'
S'Puneet Saraf'
tp84
a(S'100002591861077'
S'Neha Tandon Phookan'
tp85
a(S'651191086'
S'Shitij Kacker'
tp86
a(S'504117492'
S'Kavita Hiranandani'
tp87
a(S'753675217'
S'Matti Armstrong'
tp88
a(S'736120548'
S'Shalini Sharma'
tp89
a(S'100003831474608'
S'Hardeep Srivastava'
tp90
a(S'1437159568'
S'Chand Anne'
tp91
a(S'756795190'
S'Suparna Mody'
tp92
a(S'100000775738793'
S'Devendra Balam'
tp93
a(S'544821426'
S'Reshma Jhaveri Mehta'
tp94
a(S'100000196027901'
S'Supphachai Hongamornsin'
tp95
a(S'722475092'
S'Amit Rai'
tp96
a(S'100002218213587'
S'Anita Shah'
tp97
a(S'1901913'
S'Ridhi Kapoor Gala'
tp98
a(S'1207423'
S'Kunal Jiwarajka'
tp99
a(S'598236076'
S'Jawahir Morarji'
tp100
a(S'100000055980237'
S'Rajiv Tandon'
tp101
a(S'682234438'
S'Kinjal Mitul Shah'
tp102
a(S'100001042271426'
S'Tannvi Jagtap'
tp103
a(S'100000214644716'
S'Bhushan Talwar'
tp104
a(S'643275646'
S'Ankush Jindal'
tp105
a(S'1145680540'
p106
S'Amardeep Chauhan'
tp107
a(S'817984621'
S'Prarthana Shukla'
tp108
a(S'544180974'
S'Natasha Kacker Saini'
tp109
a(S'512186132'
S'Satya Kakde'
tp110
a(S'502486907'
S'Gopika Dalmia Agarwal'
tp111
a(S'849140603'
S'Shashank Pabrai'
tp112
a(S'100007041427250'
S'Nicole Waldram'
tp113
a(S'1834330671'
S'Kumkum Sharma'
tp114
a(S'737955424'
S'Vishal Bafna'
tp115
a(S'646785714'
S'Varun Sobti'
tp116
a(S'100000221556093'
S'Rajesh Tandon'
tp117
a(S'537048973'
S'Garima Jaising'
tp118
a(S'716361203'
S'Udit Mehrotra'
tp119
a(S'706260174'
S'Mikki Koo'
tp120
a(S'753298262'
S'Shuchi Nayyar Premnarayen'
tp121
a(S'1732824752'
S'Shakti Mehra'
tp122
a(S'1003705539'
S'Kusum Bajpai'
tp123
a(S'100000247958254'
S'Sambandan Shan'
tp124
a(S'1410399316'
S'Rakesh Jain'
tp125
a(S'510209097'
S'Amit Jain'
tp126
a(S'718617603'
S'Zen Chen'
tp127
a(S'590824466'
S'Romil Oza'
tp128
a(S'635914021'
S'Mukesh Kacker'
tp129
a(S'738491392'
S'Ankit Guglani'
tp130
a(S'677648756'
S'Kenrick Nazareth'
tp131
a(S'100000073368652'
S'Narendra Kapoor'
tp132
a(S'608175925'
S'Mukul Deora'
tp133
a(S'1140519979'
S'Satyajit Fovkar'
tp134
a(S'808449813'
S'Ruchi Chaudhari'
tp135
a(S'699098051'
S'Akansha Wadhwa'
tp136
a(S'19210'
S'Rohit Jain'
tp137
a(S'549302728'
S'Akil Sahiwala'
tp138
a(S'100000485027857'
S'Rita Kapoor'
tp139
a(S'729345346'
S'Anil Bagri'
tp140
a(S'623415581'
S'Aditi Sarin Sharma'
tp141
a(S'506173346'
S'Aman Narang'
tp142
a(S'631330595'
S'Devyani Argal-Dhaliwal'
tp143
a(S'100000538323974'
S'Seema Pawar'
tp144
a(S'618770822'
S'Jaya Sarin Pradhan'
tp145
a(S'100004131399590'
S'Manvir Singh Matharu'
tp146
a(S'1801060399'
S'Raju Dhawan'
tp147
a(S'785823507'
S'Rajiv Poddar'
tp148
a(S'585045660'
S'Vikrant Rashmikumar'
tp149
a(S'506786516'
S'Hets PF'
tp150
a(S'757981667'
S'V Francis John'
tp151
a(S'100000432260769'
S'Indu Mathur'
tp152
a(S'100002345229181'
S'Abhishek Tripathi'
tp153
a(S'528096135'
S'Aakash Kothari'
tp154
a(S'611952635'
S'Manas Malhotra'
tp155
a(S'559054552'
S'Kajli Nemani'
tp156
a(S'649715732'
S'Kudrat Sehgal'
tp157
a(S'645471532'
S'Cherry Tandon'
tp158
a(S'1046695538'
S'Mukul Mehra'
tp159
a(S'532313768'
S'Hormuz Patel'
tp160
a(S'639411747'
S'Yani Sani'
tp161
a(S'100000479910799'
S'Anisha Joshi'
tp162
a(S'619505519'
S'Bihu Sharma Mukerji'
tp163
a(S'670190025'
S'Ameya Dias'
tp164
a(S'516684483'
S'Neerav Thaker'
tp165
a(S'100004462270242'
S'Bela Jain'
tp166
a(S'714748524'
S'Anand Trivedi'
tp167
a(S'517045838'
S'Sid Top'
tp168
a(S'100001049314006'
S'Rony Cherian Abraham'
tp169
a(S'873845122'
S'Kaushal Jhalla'
tp170
a(S'1470560442'
S'Sumanta Guha'
tp171
a(S'100003654670425'
S'Siddhant Toprani'
tp172
a(S'732235919'
S'Ketan Chaudhari'
tp173
a(S'604816'
S'Khushboo Modi Poddar'
tp174
a(S'556284278'
S'Ankur Desai'
tp175
a(S'611095029'
S'Phil Walder'
tp176
a(S'100000334916165'
S'Pravin Tandon'
tp177
a(S'796584335'
S'Pooja Sarin Tandon'
tp178
a(S'626665454'
S'Dolly Jitani'
tp179
a(S'1268679690'
S'Vibha Tandon'
tp180
a(S'4401585'
S'Raj Mathur'
tp181
a(S'727282282'
S'Ayush Mathur'
tp182
a(S'706735251'
S'Abhimanyu Argal'
tp183
a(S'736076258'
S'Amit Bhushan Sharma'
tp184
a(S'100001279271132'
S'Stuti Bagri'
tp185
a(S'1345823653'
p186
S'Milind Deora'
tp187
a(S'1812544'
S'Ankush Chhabria'
tp188
a(S'1734177011'
S'Kenrick Dias'
tp189
a(S'699367562'
S'Rishad Byramjee'
tp190
a(S'681375374'
S'Sugandha B Patni'
tp191
a(S'780390054'
S'Isha Ambani'
tp192
a(S'738365179'
S'Mayank Bajpai'
tp193
a(S'1114987475'
S'Radhika Kumar'
tp194
a(S'665805096'
S'Jaimeet Aneja'
tp195
a(S'593180437'
S'Aditi Limaye Kamat'
tp196
a(S'718026546'
S'Devaki Trivedi'
tp197
a(S'1182232648'
S'Mehul Desai'
tp198
a(S'1167348947'
S'Praveen Kapur'
tp199
a(S'576083582'
S'Alpesh Vangule'
tp200
a(S'100005840435386'
S'Reeta Kapur'
tp201
a(S'753952064'
S'Gautam Trivedi'
tp202
a(S'746751829'
S'Alex Alexander'
tp203
a(S'1451560309'
S'Fabio Biancalana'
tp204
a(S'560975079'
S'Alpana Kamdar'
tp205
a(S'1264945309'
S'Arihant Kothari'
tp206
a(S'1023252891'
S'Ajeet Prasad'
tp207
a(S'525219743'
S'Puneet Tandon'
tp208
a(S'1415245954'
S'Vishal Shah'
tp209
a(S'100002734748693'
S'Ravindra Gohil'
tp210
a(S'501132694'
S'Neha Sharda Chandra'
tp211
a(S'100000167742601'
S'Vibha Tandon'
tp212
a(S'747100262'
S'Sharmeen Contractor'
tp213
a(S'654369203'
S'Madhu Kant Sharma'
tp214
a(S'1122699196'
S'Simar Sethi'
tp215
a(S'1123510703'
S'Rajeev Agarwal'
tp216
a(S'501341138'
S'Priyank Kothari'
tp217
a(S'1279130057'
S'Hiralal Makwana'
tp218
a(S'566151638'
S'Anupam Banerji'
tp219
a(S'501224613'
S'Manoshi Kamdar'
tp220
a(S'504415876'
S'Karan Sethi'
tp221
a(S'580458073'
S'Amit Mohatta'
tp222
a(S'861475461'
S'Dipen Bhatt'
tp223
a(S'645201956'
S'Noorie Loomba'
tp224
a(S'1331240766'
S'Nikhil Setlur'
tp225
a(S'526432570'
S'Habib Nadiadwala'
tp226
a(S'575195481'
S'Diler Rustomji'
tp227
a(S'668990706'
S'Sharan Mehra'
tp228
a(S'5411667'
S'Priya Sarin Gupta'
tp229
a(S'677123689'
S'Anushree Rastogi Dalmia'
tp230
a(S'905675018'
S'Munir Bharwani'
tp231
a(S'789808459'
S'Hemant Patel'
tp232
a(S'1243481774'
S'Ritu S Tandon'
tp233
a(S'100000372117868'
S'Riddhi Sharma'
tp234
a(S'517319029'
S'Sneha Kapoor Tandon'
tp235
a(S'644535286'
S'Vishal Kamat'
tp236
a(S'1043763443'
S'Sushil Jiwarajka'
tp237
a(S'775540351'
S'Tushar Jiwarajka'
tp238
a(S'610270715'
S'Ankit Mehta'
tp239
a(S'802400712'
S'Vineet Malik'
tp240
a(S'510413298'
S'Pankaj Agarwal'
tp241
a(S'100000620845701'
S'Ramesh Nagori'
tp242
a(S'724930452'
S'Dev Jolly'
tp243
a(S'515862079'
S'Vedant Rajput'
tp244
a(S'1605565773'
S'Alok Dixit'
tp245
a(S'1601828772'
S'Shraddha Sehgal'
tp246
a(S'867190322'
S'Ismail Mamdhooh'
tp247
a(S'100001489396330'
S'Saurabh Pandit'
tp248
a(S'502041104'
S'Sonia Sharma'
tp249
a(S'680150863'
S'Gautam Varma'
tp250
a(S'663361769'
S'Stuart Sagar'
tp251
a(S'100005218951643'
S'Supriya Mody'
tp252
a(S'653903372'
S'Jaydeep Shetty'
tp253
a(S'100004641001738'
S'Vithal Kamat'
tp254
a(S'54302624'
S'Ashish Girdhar'
tp255
a(S'597245295'
S'Adi Mehrotra'
tp256
a(S'504637775'
S'Jennifer Kotwal'
tp257
a(S'732590145'
S'Vishal Singh Sekhon'
tp258
a(S'553146728'
S'Dipti Shah'
tp259
a(S'574111762'
S'Kashish Tandon'
tp260
a(S'700844699'
S'Mayur Mathur'
tp261
a(S'500510109'
S'Devika Srivastava'
tp262
a(S'584587595'
S'Divya Kapoor'
tp263
a(S'500097615'
S'Tarang Sharma'
tp264
a(S'671086214'
S'Gagan Saini'
tp265
a(S'533537270'
S'Siddharth Chodhry'
tp266
a(S'501857131'
S'Anshul Mehta'
tp267
a(S'513742357'
S'Arpit Shah'
tp268
a(S'665656252'
S'Abhimanyu Deepak Agarwal'
tp269
a(S'100001170145876'
S'Shamil Mehra'
tp270
a(S'530080870'
S'Apeksha Jhobalia Bafna'
tp271
a(S'672143133'
S'Be Greg'
tp272
a(S'514516424'
S'Dinesh Giridhar'
tp273
a(S'100002022823557'
S'Jia Grover'
tp274
a(S'519530384'
S'Rahul Tyagi'
tp275
a(S'668695379'
S'Ameya Dilip Dharap'
tp276
a(S'100000731661309'
S'Millie Dhawan Mehra'
tp277
a(S'501393499'
S'Ruchi Kothari'
tp278
a(S'8103232'
S'Adhip Joshi'
tp279
a(S'667301820'
S'Shreyans Ghia'
tp280
a(S'571423599'
S'Sandeep K Chandak'
tp281
a(S'734519047'
S'Sagar Chaturvedi'
tp282
a(S'713228270'
S'Abhishek Chatuvedi'
tp283
a(S'563697264'
S'Sachin Rai'
tp284
a(S'1059094987'
S'Julie Rebello'
tp285
a(S'649886172'
S'Rahil Shaikh'
tp286
a(S'1177553969'
S'Bhavisha Shah'
tp287
a(S'717807058'
S'Ritvik Rastogi'
tp288
a(S'550315178'
S'Vidita Kamat'
tp289
a(S'34314938'
S'Amrita Sodhi'
tp290
a(S'100001081161967'
S'Shailly Rastogi'
tp291
a(S'693318517'
S'Amal Khaneja'
tp292
a(S'518115731'
S'Adi Bacardi'
tp293
a(S'605816'
S'Harsh Jain'
tp294
a(S'508821735'
S'Anup Shah'
tp295
a(S'1214905983'
S'Suraj Mehra'
tp296
a(S'672542039'
S'Sorabh Pant'
tp297
a(S'100000121439044'
S'Laveen Mahtani'
tp298
a(S'666185031'
S'Shantanu Argal'
tp299
a(S'100000672961279'
S'Bhawna Ssound'
tp300
a(S'771326799'
S'Manvendra Singh'
tp301
a(S'100002106578474'
S'Jikna Jethva'
tp302
a(S'680120701'
S'Neha Jiwarajka'
tp303
a(S'1036891159'
S'Aman Sachdeva'
tp304
a(S'100002039233852'
S'Manjari Kacker'
tp305
a(S'526360293'
S'Samarth Rastogi'
tp306
a(S'100000537579665'
S'Renu Sethi'
tp307
a(S'504354772'
S'Abbas Merchant'
tp308
a(S'100001973133083'
S'Shuparna Jagtiani Mahtani'
tp309
a(S'729825472'
S'Vinay Bhartia'
tp310
a(S'738167912'
S'Sid Sekhon'
tp311
a(S'765460509'
S'Saket Gadkari'
tp312
a(S'1202506668'
S'Dipti Srivastava'
tp313
a(S'590208372'
S'Sudhir Gopalswamy'
tp314
a(S'1316397114'
S'Snehal Sanghvi'
tp315
a(S'510664210'
S'Tazeen Nadiadwala'
tp316
a(S'1353360816'
S'Ankita Rastogi'
tp317
a(S'1762614792'
S'Atul Khanna'
tp318
a(S'687830732'
S'Priyanka Malhotra'
tp319
a(S'701633017'
S'Niraj N. Ambani'
tp320
a(S'510565221'
S'Mayank Tandon'
tp321
a(S'658146156'
S'Deepak Bajaj'
tp322
a(S'633919865'
S'Ragini Sheth'
tp323
a(S'646819065'
S'Amalesh Prasad'
tp324
a(S'750045018'
S'Ashish Gupta'
tp325
a(S'713926695'
S'Siddharth Shivdasani'
tp326
a(S'611771101'
S'Nita Jain'
tp327
a(S'598506469'
S'Medha Rege Dhawan'
tp328
a(S'817450383'
p329
S'Aditya B. Nemani'
tp330
a(S'509737564'
S'Bhakti Modi'
tp331
a(S'615746350'
S'Sohil Gala'
tp332
a(S'734052683'
S'Rajeev Mehta'
tp333
a(S'672616320'
S'Nosheen Nadiadwala'
tp334
a(S'735846030'
S'Anuja Jatkar'
tp335
a(S'680340724'
S'Archana Jiwarajka'
tp336
asS'id'
p337
S'797417093'
p338
sS'name'
p339
S'Shalin N. Tandon'
p340
s.