(dp1
S'friends'
p2
(lp3
(S'693391510'
S'Usman Mahmood'
tp4
a(S'100001354131279'
S'Arif Chohan'
tp5
a(S'502140856'
S'Raza S. Hassan'
tp6
a(S'509455865'
S'Sabreena Khalid'
tp7
a(S'572370658'
S'Hassan Muzaffar'
tp8
a(S'774603297'
S'Mustafa Bandukda'
tp9
a(S'552510626'
S'Taimur Zuberi'
tp10
a(S'1185590670'
S'Bilal Rockx'
tp11
a(S'636858430'
S'Raza Hassan'
tp12
a(S'656396014'
S'Abdul Rehman Agha'
tp13
a(S'628605007'
S'Zunaira Mehmood'
tp14
a(S'507404332'
S'Fama Raja'
tp15
a(S'1343747638'
S'Amal Javed Dar'
tp16
a(S'550962929'
S'Haider Raza'
tp17
a(S'662520354'
S'Usama Qazi'
tp18
a(S'100001307230346'
S'Mehlab Jameel'
tp19
a(S'1185709356'
S'Usma Uzi Abdullah'
tp20
a(S'100003536524412'
S'Bilal Ashraf'
tp21
a(S'1325390571'
S'Ali Raza'
tp22
a(S'528461474'
S'Mariam Naweed'
tp23
a(S'1353849011'
S'Jannat Khan'
tp24
a(S'746504441'
S'Khizer Bajwa'
tp25
a(S'721539965'
S'Muhammad Inam'
tp26
a(S'100001776214839'
S'Shiraz Hassan'
tp27
a(S'606454491'
S'Qurat Ulain'
tp28
a(S'541835117'
S'Wajeeh Ali'
tp29
a(S'557883593'
S'Zoya Wakeel'
tp30
a(S'551431372'
S'Ali Pasha'
tp31
a(S'100003661648313'
S'Ussama Ahmed Khan'
tp32
a(S'560490143'
S'Amara Rauf'
tp33
a(S'789084461'
S'M Bilal Ibrahim'
tp34
a(S'621775700'
S'Danish Iftikhar'
tp35
a(S'726654745'
S'Haroon Raja'
tp36
a(S'590010477'
S'Aqsa Iftikhar'
tp37
a(S'666900102'
S'Asad Khalid'
tp38
a(S'502200513'
S'Omer Arif'
tp39
a(S'554202788'
S'Muhammad Umair Mustafa'
tp40
a(S'768171741'
S'Bilal Sohail Siddiqui'
tp41
a(S'1523449702'
S'Ameen Sajjad'
tp42
a(S'526498609'
S'Hassan Malik'
tp43
a(S'100001056856449'
S'Farah Kamran'
tp44
a(S'531070391'
S'Mustafa Javed Bajwa'
tp45
a(S'1382801899'
S'Zohaib Cheema'
tp46
a(S'715680161'
S'Musa Rizvi'
tp47
a(S'582399902'
S'Madiha Hassan'
tp48
a(S'502122716'
S'Aima Khan'
tp49
a(S'761347239'
S'Haasin Bin Zahid'
tp50
a(S'1133626721'
S'Mahnoor Saad'
tp51
a(S'554235234'
S'Hassaan Sattar'
tp52
a(S'1003191989'
S'Taimur Amjad Butt'
tp53
a(S'1366866740'
S'Bilal Abid'
tp54
a(S'502179150'
S'Suniya Abid'
tp55
a(S'555284611'
S'Asra Malik'
tp56
a(S'1523144614'
S'Umer Naeem'
tp57
a(S'723837385'
S'Noveen Nabeel Mirza'
tp58
a(S'554950709'
S'Wahaj Ahmed'
tp59
a(S'623371532'
S'Taofeekat Mustapha'
tp60
a(S'100005650413762'
S'Abdur Rehman'
tp61
a(S'1440382227'
S'Amaara Ahmed Sher'
tp62
a(S'100000132474030'
S'Yumna Shoaib'
tp63
a(S'100000062750182'
S'Priyanka Rajani'
tp64
a(S'506898875'
S'Syed Wasif Hussain'
tp65
a(S'100000090592782'
S'Adeel Amir'
tp66
a(S'658215963'
S'Saad Shafqat'
tp67
a(S'652745968'
S'Saarim Saghir'
tp68
a(S'518511912'
S'Adeel Yunus'
tp69
a(S'816905150'
S'Faaez Ul Haq'
tp70
a(S'13902001'
S'Megan Williams'
tp71
a(S'1256241933'
S'Umar Draz'
tp72
a(S'1413151584'
S'Aamna Mobashar'
tp73
a(S'100000505568925'
S'Zoraiz Riaz'
tp74
a(S'693906600'
S'Uzair Shafiq'
tp75
a(S'1621064739'
S'Hasan Khalid'
tp76
a(S'886270120'
S'Tahir Hasan'
tp77
a(S'749520986'
S'Sikander Kiani'
tp78
a(S'844086066'
S'Zubair Azmat'
tp79
a(S'100001018548602'
S'Mahnoor Sethi'
tp80
a(S'1003053807'
S'Nayab Khalid'
tp81
a(S'628951723'
S'Waqas Rasheed'
tp82
a(S'100000485782293'
S'Mehkaar Awan'
tp83
a(S'575185709'
S'Habiba Malik'
tp84
a(S'515876980'
S'Mohsin Jilani'
tp85
a(S'536124540'
S'Ahmad Shoaib'
tp86
a(S'100000164540710'
S'Fahad Ul Mulk'
tp87
a(S'1202317596'
S'Harris Imtiaz Dogar'
tp88
a(S'733326016'
S'Osama Ashraf'
tp89
a(S'502580441'
S'Mukarram Jamil'
tp90
a(S'528717040'
S'Ali Amer'
tp91
a(S'516820702'
S'Asad Hassan'
tp92
a(S'100002829533991'
S'Muhammad Salman Ahmed'
tp93
a(S'534032318'
S'Ozair Naeem'
tp94
a(S'563098140'
S'Saad Akbar'
tp95
a(S'1113360391'
S'Hassaan Zafar'
tp96
a(S'100001044756125'
S'Saad Admani'
tp97
a(S'701669769'
S'Uzair Tariq'
tp98
a(S'586690380'
S'Zoya Shahzad Paracha'
tp99
a(S'542291474'
S'Hashaam Sohail'
tp100
a(S'518690516'
S'Hashim Mahmood Ali'
tp101
a(S'605787154'
S'Salman Hijazi'
tp102
a(S'1323473270'
S'Muhammad Shahjahan Khan'
tp103
a(S'100000438038152'
S'Hummaira Raheem'
tp104
a(S'529481594'
S'Adnan Babar Reshi'
tp105
a(S'526360903'
S'Hamael Akhlaq'
tp106
a(S'508579530'
S'Alina Khan'
tp107
a(S'572787315'
S'Noman Khan'
tp108
a(S'1485906046'
S'Waleed Yawer'
tp109
a(S'1185098702'
S'Khaula Abbasi'
tp110
a(S'574147526'
S'Hassan Nawaz Gondal'
tp111
a(S'809670122'
S'Hannan Waheed'
tp112
a(S'696466848'
S'AbuBakr Shahzad'
tp113
a(S'681570229'
S'Javed Haider'
tp114
a(S'569862041'
S'Aoun Muhammad Janjua'
tp115
a(S'100001058666310'
S'Hanan Babar'
tp116
a(S'500795877'
S'Anum Malik'
tp117
a(S'516860598'
S'Hassan Masood'
tp118
a(S'593342844'
S'Hafsa Rana'
tp119
a(S'502047732'
S'Zulfiqar Raja'
tp120
a(S'1079494780'
S'Maira Mirza'
tp121
a(S'506212085'
S'Harris Khan'
tp122
a(S'607766437'
S'Kamal Qureshi'
tp123
a(S'506379531'
S'Zohra Sohail'
tp124
a(S'100001199728126'
S'Samman Iqbal Malik'
tp125
a(S'1041955805'
S'Omair K Tareen'
tp126
a(S'706095388'
S'Muhammad Abdullah Khawar'
tp127
a(S'556421425'
S'Zahra Hassan'
tp128
a(S'509878009'
S'Ali Paracha'
tp129
a(S'1040147176'
S'Faizan Zakir'
tp130
a(S'751936118'
S'Shandana Sajjad'
tp131
a(S'587254534'
S'Mishal Javed'
tp132
a(S'1556536673'
S'Asif Iqbal'
tp133
a(S'542171479'
S'Ayesha Majid'
tp134
a(S'671455716'
S'Obaid Ullah'
tp135
a(S'559104007'
S'Shazu Afzal'
tp136
a(S'1612445937'
S'Subhan Shakeel'
tp137
a(S'502107483'
S'Wahaaj Nauman'
tp138
a(S'527083909'
S'Asim Mushtaq Chaudhary'
tp139
a(S'692794409'
S'Saud Hamza Munir'
tp140
a(S'617837350'
S'Umair Mesiya'
tp141
a(S'628687708'
S'Rauf Arafat'
tp142
a(S'553748031'
S'Nayab Zahra Kazmi'
tp143
a(S'1789385800'
S'Quratulain Hamid'
tp144
a(S'540900023'
S'Ovais Rasheed Munshi'
tp145
a(S'822035222'
S'Mubassir Saleem'
tp146
a(S'778811348'
S'Kashif Ahmed'
tp147
a(S'808215493'
S'Maha Gul'
tp148
a(S'1129937700'
S'Saad Malik'
tp149
a(S'521842703'
S'Saniya Qureshi'
tp150
a(S'868340432'
S'Salik Nazim'
tp151
a(S'627748542'
S'Malik Usama Ahmed'
tp152
a(S'801994931'
S'Nawaz Bajwa'
tp153
a(S'550425113'
S'Muhammad Mustafa'
tp154
a(S'1586475137'
S'Kashif Shaikh'
tp155
a(S'285601622'
S'Ahmed Sohaib Zafar Khan'
tp156
a(S'905010242'
S'Ummamah Zaka Khan'
tp157
a(S'1099792619'
S'Bilal Jaffery'
tp158
a(S'506361953'
S'Zohra Nasir'
tp159
a(S'690151715'
S'Anum Imran'
tp160
a(S'545440799'
S'Rafae Sohail Malik'
tp161
a(S'1065670015'
S'Abbas Haider Khan'
tp162
a(S'1529012258'
S'Osama Ahmad'
tp163
a(S'505354215'
S'Mian Taimoor'
tp164
a(S'578920170'
S'Sheharyar Ali'
tp165
a(S'702296407'
S'Minnan Ayesha'
tp166
a(S'1000163081'
S'Zeeshan Gillani'
tp167
a(S'1560369435'
S'Umar Majeed'
tp168
a(S'502262325'
S'Syed Yorguc'
tp169
a(S'548496539'
S'Rameez Ragheb'
tp170
a(S'578873503'
S'Ahmed Masud'
tp171
a(S'618235163'
S'Farhan Naeem'
tp172
a(S'507052707'
S'Saad Idrees'
tp173
a(S'609106417'
S'Saim Rashid Kamal'
tp174
a(S'847655299'
S'Anique Malik'
tp175
a(S'765320719'
S'Iqtidar Ahmad Khan'
tp176
a(S'100000349631092'
S'Hsn Rx'
tp177
a(S'820550829'
S'Tabish Khattak'
tp178
a(S'1649409426'
S'Farhan Azhar'
tp179
a(S'721203039'
S'Bela Khan'
tp180
a(S'830045001'
S'Zeeshan Shaukat'
tp181
a(S'899210433'
S'Usama Waheed'
tp182
a(S'876750857'
S'Wahaj Raza Raja'
tp183
a(S'838455433'
S'Bilal Naeem'
tp184
a(S'598014545'
S'Syed Nazim Ali'
tp185
a(S'796719465'
S'Ghamae Jamal'
tp186
a(S'515402056'
S'Rida Bukhari'
tp187
a(S'675690366'
S'Aaez Raza'
tp188
a(S'100001839557074'
p189
S'Rafia Murtaza'
tp190
a(S'527860312'
S'Hamad Rajput'
tp191
a(S'552522337'
S'Umair Suhail'
tp192
a(S'100001615059935'
S'Muhammad Talha'
tp193
a(S'100002245508688'
S'Zainab Rafiq'
tp194
a(S'100003761223387'
S'Ferva Raza'
tp195
a(S'506933840'
S'Yasin Asad'
tp196
a(S'747320194'
S'Maha Yaqub'
tp197
a(S'502017069'
S'Taha Sarfraz'
tp198
a(S'655745276'
S'Omair Haq'
tp199
a(S'734682806'
S'Hassan Bin Haseeb'
tp200
a(S'1388104261'
S'Hamza Khawaja'
tp201
a(S'1507248415'
S'Ubaid Ur Rehman'
tp202
a(S'1523466867'
S'Umar Farooq Hundal'
tp203
a(S'663980732'
S'Fatima Shah'
tp204
a(S'1455308547'
S'Mehreen Iftikhar'
tp205
a(S'515135526'
S'Suniya Batool'
tp206
a(S'1586170555'
S'Sh Bilal Goreja'
tp207
a(S'772875312'
S'Abbas Shahid'
tp208
a(S'504109689'
S'Gauhar Mussawir Shariff'
tp209
a(S'100004206674555'
S'Musaa Rizvi'
tp210
a(S'1446349755'
S'Ayesha Murtaza'
tp211
a(S'553332360'
S'Zarak Pasha'
tp212
a(S'845525323'
S'Shams Lalani'
tp213
a(S'1512701743'
S'Faheem Ahmed'
tp214
a(S'1220821774'
S'Raja Ozair Ahmed'
tp215
a(S'819445056'
S'Bilal Shariff'
tp216
a(S'529299398'
S'Neelam Ejaz'
tp217
a(S'100000327757564'
S'Axeem Paracha'
tp218
a(S'1362936278'
S'Hamza Ayub'
tp219
a(S'100000410148320'
S'Saad Riaz'
tp220
a(S'610482533'
S'Saad Ashraf'
tp221
a(S'676530015'
S'Sarosh Hasan'
tp222
a(S'582042673'
S'Usman Raja'
tp223
a(S'503718360'
S'Reeda Sheikhani'
tp224
a(S'502454476'
S'Aaiz Haider Khan'
tp225
a(S'673592032'
S'Roshaan Ahsan'
tp226
a(S'1118965020'
S'Hasin Yousaf'
tp227
a(S'512573710'
S'Aneeqa Khan'
tp228
a(S'100000668186132'
S'Qaiser Qayyum'
tp229
a(S'502261865'
S'Fatima Sultan'
tp230
a(S'551645240'
S'Shahrukh Tauqir'
tp231
a(S'508980308'
S'Usama Humayoon'
tp232
a(S'100000155832211'
S'Aleem Haider'
tp233
a(S'1305404477'
S'Uzair Khan'
tp234
a(S'567400676'
S'Abdul Wasay Baloch'
tp235
a(S'100000171079818'
S'Ahmed Muneeb'
tp236
a(S'699080500'
S'Wajiha Khuwaja'
tp237
a(S'697044075'
S'Mishal Shahid'
tp238
a(S'100000032316455'
S'Asad Lodhi'
tp239
a(S'100000286765069'
S'Zafar Ali'
tp240
a(S'663408185'
S'Sarah Asif'
tp241
a(S'502143837'
S'Waqar Ul Haq'
tp242
a(S'684848697'
S'Danish Raza'
tp243
a(S'825085715'
S'Salman Haider'
tp244
a(S'1068409151'
S'Momin Ali Munshi'
tp245
a(S'518305345'
S'Asser Malik'
tp246
a(S'548190740'
S'Syed Basit Hussain'
tp247
a(S'100003813542128'
S'Tayyaba Yaseen'
tp248
a(S'1665401130'
S'Bilal Ali'
tp249
a(S'502109245'
S'Syed Hashim Hussain'
tp250
a(S'100000049525819'
S'Muhammad Usama'
tp251
a(S'657286454'
S'Raja Muhammad Tehseen'
tp252
a(S'564542894'
S'Haris Riaz'
tp253
a(S'585310033'
S'Anzar Imran'
tp254
a(S'100007133042458'
S'Yusra Iqbal'
tp255
a(S'1345151456'
S'Abella Janine Cidro Fedinato'
tp256
a(S'100001284182537'
S'Maham Rahman Khan'
tp257
a(S'773189439'
S'Shahxaib Khan'
tp258
a(S'609355711'
S'Arooj Nabeel'
tp259
a(S'100000337380927'
S'Sheikh Waqas'
tp260
a(S'1430356288'
S'Hassan Jamil'
tp261
a(S'1426100501'
S'Shamail Adnan Khan'
tp262
a(S'771218241'
S'Ali Khan'
tp263
a(S'1304216679'
S'Nabhan Ahmed'
tp264
a(S'100001022206140'
S'Arafat Anjum'
tp265
a(S'100000102480781'
S'Yusra Akhtar'
tp266
a(S'621695847'
S'Zain Hanif'
tp267
a(S'100000887176932'
S'Mubashir Latif'
tp268
a(S'561596190'
S'Muhammad Ahmed'
tp269
a(S'1576700911'
S'Majid Niaz Khan'
tp270
a(S'100000328527640'
S'Sana Rehman'
tp271
a(S'100000936521955'
S'Aziz Khan'
tp272
a(S'641585849'
S'Mohammad Ali'
tp273
a(S'1741503848'
S'Ayesha Nazir'
tp274
a(S'757740197'
S'Imran Chaudhry'
tp275
a(S'1394453070'
S'Sabah Waris'
tp276
a(S'1812366089'
S'Mohammad Taha'
tp277
a(S'558392024'
S'Syed Waqar Hassan'
tp278
a(S'100000430206142'
S'Shazia Yousaf'
tp279
a(S'796930524'
S'Samia Aslam'
tp280
a(S'675415890'
S'Saim Sadiq'
tp281
a(S'676520267'
S'Mason Ahson Chaudhry'
tp282
a(S'100000735762540'
S'Adil Chattha'
tp283
a(S'621977131'
S'Noel Czajyd Murad'
tp284
a(S'513413475'
S'Sara Javed'
tp285
a(S'717235606'
S'Ali Khalid Rana'
tp286
a(S'100000182528391'
S'Asim Dogar'
tp287
a(S'635342868'
S'Maulvi Jahangir Mahmud'
tp288
a(S'100008076880860'
S'Usama Jilani'
tp289
a(S'100000007421747'
S'Muhammad Shoaib'
tp290
a(S'502008451'
S'Shehla Salam'
tp291
a(S'1066224569'
S'Ovais Usman'
tp292
a(S'602626417'
S'Qaiser Aftab'
tp293
a(S'100002605034201'
S'Iqra Mustafa'
tp294
a(S'862195295'
S'Salik Gilani'
tp295
a(S'100000157466360'
S'Mohsin Ali Sheikh'
tp296
a(S'1225678465'
S'Usman Sheikh'
tp297
a(S'624560041'
S'Raafay Ahmad Qureshi'
tp298
a(S'1497756479'
S'Junaid Afzal'
tp299
a(S'1531081200'
S'Hussnain Bashir'
tp300
a(S'843695522'
S'Salik Shah'
tp301
a(S'1450933366'
S'Nadeem Sheikh'
tp302
a(S'600581109'
S'Uzma Mazhar'
tp303
a(S'629900209'
S'Taha Fahim Pasha'
tp304
a(S'647626100'
S'Jawad Sadiq'
tp305
a(S'100000116582445'
S'Jarar Ali Toor'
tp306
a(S'584317159'
S'Moin Talha'
tp307
a(S'528615825'
S'Saman Khan'
tp308
a(S'676456536'
S'Marium Khawaja'
tp309
a(S'100000493249298'
S'Hanbal Kahlon'
tp310
a(S'653299663'
S'Zarina Tariq'
tp311
a(S'1016831239'
S'Syed Mohsin Bukhari'
tp312
a(S'664021814'
S'Larosh Khan'
tp313
a(S'100005304881624'
S'Jahanzeb Sukhera'
tp314
a(S'100000935764401'
S'Samia Shafqaat'
tp315
a(S'100003827427449'
S'Muhammad Saqib'
tp316
a(S'1769451565'
S'Aamir Khan'
tp317
a(S'688750416'
S'Reena Ebrahim'
tp318
a(S'552370140'
S'Ayesha Tariq'
tp319
a(S'643381438'
S'Farjad Habib'
tp320
a(S'586510525'
S'Hasan Iftikhar'
tp321
a(S'100002459641877'
S'Mehdi Abbas'
tp322
a(S'100006277324054'
S'Ali Iftikhar'
tp323
a(S'611937628'
S'Saad Alamgir'
tp324
a(S'738849111'
S'Saniya M. Ali'
tp325
a(S'559386192'
S'Mina Kidwai'
tp326
a(S'542738521'
S'Nihan Rafique'
tp327
a(S'1442067208'
S'Zunaira Mughal'
tp328
a(S'1053873745'
S'Ahsan A. K. Salik'
tp329
a(S'100000011203741'
S'Zarathustra Mumbo-Jumbo'
tp330
a(S'714721104'
S'Attabik Awan'
tp331
a(S'100000189322223'
S'Shahid Ali Abbasi'
tp332
a(S'651931401'
S'Saleha Batool'
tp333
a(S'522680191'
S'Emad Khan'
tp334
a(S'506572961'
S'Rida Qadri'
tp335
a(S'1528660271'
S'Taimur Rizvi'
tp336
a(S'786468492'
S'Muhammad Khisal Ahmed'
tp337
a(S'666934913'
S'Zulekha Ahmed'
tp338
a(S'100001007540537'
S'Hayder Pasha'
tp339
a(S'718341089'
S'Ali Abdullah'
tp340
a(S'790225369'
S'Haris J Khan'
tp341
a(S'100003701935226'
S'Ali Haider'
tp342
a(S'1387850794'
S'Aftab Ahmed'
tp343
a(S'595773938'
S'Osama Saeed'
tp344
a(S'1154228255'
S'Hassan Rauf'
tp345
a(S'531095584'
S'Muneeb Ahmed'
tp346
a(S'100000164517155'
S'Hassan Ali'
tp347
a(S'893790356'
S'Sami Siddiq'
tp348
a(S'715435356'
S'Kamal Ahmed Jumani'
tp349
a(S'824675573'
S'Muhammad Rehan Usmani'
tp350
a(S'611506180'
S'Aziz Hussain'
tp351
a(S'100001442984528'
S'Maryam Kamal'
tp352
a(S'577513090'
S'Tauseen Hasan'
tp353
a(S'1004838249'
S'Omer J Khan'
tp354
a(S'100006639962134'
S'Rehana Bokhari'
tp355
a(S'1428771026'
S'Imran Sheikh'
tp356
a(S'551520233'
S'Talha Ahmed'
tp357
a(S'1189855251'
S'Aroosa Ijaz'
tp358
a(S'834007725'
S'Maryam Ahmad'
tp359
a(S'100000113443132'
S'Moid Shaheen'
tp360
a(S'1241762805'
S'Syed Hussain Shah'
tp361
a(S'503313361'
S'Sarah Masood'
tp362
a(S'20767'
S'Samad Khurram'
tp363
a(S'514341658'
S'Pernia Khan'
tp364
a(S'1806918212'
S'Mirza Zain Zulfiqar'
tp365
a(S'535970371'
S'Ayesha Kundee'
tp366
a(S'60508693'
S'Yawar Bakht Haroon'
tp367
a(S'100000155175635'
S'Seemab Hassan'
tp368
a(S'1024882801'
S'Fauzan Hussain Gilani'
tp369
a(S'709286010'
S'Rao Hashim'
tp370
a(S'1547954707'
S'Mobeen Ahmad'
tp371
a(S'634340978'
S'Junaid Farooq'
tp372
a(S'100000176408677'
S'Shahrukh Waqar'
tp373
a(S'651511267'
S'Zain Gaba'
tp374
a(S'504655529'
S'Fatima Hasan'
tp375
a(S'509518378'
S'Hazrat Zain Tariq'
tp376
a(S'543205111'
S'Waqas Shah'
tp377
a(S'1089422134'
S'Faizan Zaheer'
tp378
a(S'530865584'
S'Hussain Niazi'
tp379
a(S'607588107'
S'Mutie Ullah Ahmed'
tp380
a(S'538345222'
S'Usama Khan'
tp381
a(S'706829266'
S'Antash Agaya'
tp382
a(S'100001408324446'
S'Qasim Shamim'
tp383
a(S'1567182224'
S'Saba Rashid'
tp384
a(S'544779264'
S'Komal Khan'
tp385
a(S'528493294'
S'Syed Hammad'
tp386
a(S'1636631200'
S'Waleed Sethi'
tp387
a(S'1190911454'
S'Sahibzada Muhammad Alamgeer'
tp388
a(S'1175961699'
S'Waleed Munir'
tp389
a(S'1839347108'
S'Sana Maqbool'
tp390
a(S'1125417135'
S'Atif Rashid Khattak'
tp391
a(S'100000774148543'
S'Nowreen Jahan'
tp392
a(S'614821145'
S'Hajra Kayani'
tp393
a(S'1093830730'
S'Fatima Bhojani'
tp394
a(S'614119632'
S'Asad Zahid'
tp395
a(S'1765011545'
S'Shah Zaman'
tp396
a(S'1330777644'
S'Khawaja Bilal Hassan'
tp397
a(S'1507318082'
S'Hasnain Naeem'
tp398
a(S'100000146869898'
S'Awais Saeed'
tp399
a(S'609546957'
S'Haider Shah'
tp400
a(S'715555301'
S'Saad Sultan'
tp401
a(S'717480020'
S'Waleed Jehandad'
tp402
a(S'659728155'
S'Muqeet Khakwani'
tp403
a(S'724457283'
S'Hasnain Ul Abdeen'
tp404
a(S'746030477'
S'Omar Khawar'
tp405
a(S'536807672'
S'Owais Abbasi'
tp406
a(S'100004203035403'
S'Umer Merchant'
tp407
a(S'561045076'
S'Ahmad Mehdi'
tp408
a(S'697346220'
S'Ansab Naveed'
tp409
a(S'657195737'
S'Mohsin Javaid'
tp410
a(S'100000503963930'
S'Sheikh Bilal'
tp411
a(S'764970470'
S'Wisam Khurram'
tp412
a(S'508385826'
S'Mudasser Aslam'
tp413
a(S'630741961'
S'Hassaan Anjum'
tp414
a(S'789895541'
S'Hassan Saeed'
tp415
a(S'100001050850891'
S'Fatima Sultan'
tp416
a(S'711786127'
S'Aimal Khan'
tp417
a(S'637041082'
S'Fakhar Shafqat'
tp418
a(S'749695695'
S'Usama Javed Mirza'
tp419
a(S'560150596'
S'Farhat Hasnat'
tp420
a(S'549941002'
S'Hira Haroon'
tp421
a(S'100000186931219'
S'Awais Zahoor'
tp422
a(S'668250660'
S'Mirza Salam Ahmed'
tp423
a(S'788010606'
S'Muhammad Ahsan Khan'
tp424
a(S'603525093'
S'Sameer Afzal Farooqi'
tp425
a(S'1472096651'
S'Muhammad Armish Shahid'
tp426
a(S'1006328406'
S'Salman Aman'
tp427
a(S'508236119'
S'Shayan Zia'
tp428
a(S'618804084'
S'Zoya Atiq'
tp429
a(S'663130489'
S'Mohsin Saeed'
tp430
a(S'760340849'
S'Pir Abaseen'
tp431
a(S'577790043'
S'Amna Abbas'
tp432
a(S'100001489110642'
S'Ali Awais Khalid'
tp433
a(S'703020057'
S'Farhan Saad Ahmed'
tp434
a(S'549445113'
S'Shahzain Hafeez Vohra'
tp435
a(S'1541017283'
S'Zohaib Salahuddin'
tp436
a(S'697745513'
S'Abdul Basit Siddiqui'
tp437
a(S'1134442685'
S'Awais Chaudry'
tp438
a(S'627857605'
S'Khurram Khan'
tp439
a(S'546352562'
S'Syed Zain Ul Abidin'
tp440
a(S'682611168'
S'Tanzeel Azam'
tp441
a(S'503391363'
S'Usman Hijazi'
tp442
a(S'550130220'
S'Farzeen Tariq'
tp443
a(S'551379008'
S'Qaiser Qayyum'
tp444
a(S'100004965782047'
S'Sanaa Sohail'
tp445
a(S'100006142232337'
S'Muhammad Bilal Ayub'
tp446
a(S'100000499471570'
S'Khanzada Ehtisham Rashid'
tp447
a(S'1318642550'
S'Muhammad Abubakr'
tp448
a(S'901155289'
S'Sarah Agha'
tp449
a(S'586172129'
S'Nameer Jamillee'
tp450
a(S'100000093868517'
S'Abdul Haseeb Manj'
tp451
a(S'679046356'
S'Umaira Iqbal Raza'
tp452
a(S'100000051871960'
S'Shehryar Amin'
tp453
a(S'549968572'
S'Muhammad Taha Imran'
tp454
a(S'622781390'
S'Tehshina Mallick'
tp455
a(S'1069704272'
S'Wajahat Tariq'
tp456
a(S'538025598'
S'Rana Amaar Faaruq'
tp457
a(S'100000218561703'
S'Muhammad Salar'
tp458
a(S'1518432429'
S'Syed Zohaib Nawaz'
tp459
a(S'1496012828'
S'Zahra Khan'
tp460
a(S'1590289390'
S'Sakib Rauf'
tp461
a(S'509039383'
S'Lucky Mir'
tp462
a(S'100002144871702'
S'Maham Kirmani'
tp463
a(S'667691411'
S'Emad Tauseef'
tp464
a(S'100001658887668'
S'Mehreen Aamir'
tp465
a(S'510928819'
S'Saif Zafar'
tp466
a(S'100001369791712'
S'Anum Akbar'
tp467
a(S'581360304'
S'Adnan Tambawala'
tp468
a(S'594036097'
S'Rima Imran'
tp469
a(S'612527354'
S'Tayyaba Mohsin'
tp470
a(S'100004087335814'
S'Uzair Kalu'
tp471
a(S'502110467'
S'Mian Shaoor Ahmad'
tp472
a(S'562310458'
S'Sana Maqbool'
tp473
a(S'100000168554425'
S'Usman Haider'
tp474
a(S'1445658937'
S'Minahil Khurshid Zafar'
tp475
a(S'1005464594'
S'Alvi Haris'
tp476
a(S'100000224388572'
S'Rubina Arif'
tp477
a(S'506080870'
S'Ramisha Raphael'
tp478
a(S'814150205'
S'Taha Rizvi'
tp479
a(S'514301982'
S'Behram Khan Orakzai'
tp480
a(S'690051599'
S'Zeead Ahmed'
tp481
a(S'634408297'
S'Annas Farrukh'
tp482
a(S'811160018'
S'Musaddiq Nawaz'
tp483
a(S'678775919'
S'Hamza Khan'
tp484
a(S'860870233'
S'Shoaib Ibrahim'
tp485
a(S'1318425553'
S'Ameer Anis Gul'
tp486
a(S'677161198'
S'Sameed Anees'
tp487
a(S'505284022'
S'Aliyah Khoja'
tp488
a(S'888920273'
S'Sarah Ahmed'
tp489
a(S'1580348807'
S'Adnan Javed'
tp490
a(S'100000206945961'
S'Hassan Mahmood'
tp491
a(S'611236758'
S'Fatima Rizwan'
tp492
a(S'502689768'
S'Rehan Riaz Ahmad'
tp493
a(S'670023335'
S'Maham Syed'
tp494
a(S'210100765'
S'Aaqib Khan'
tp495
a(S'626432185'
S'Rafay Arshad'
tp496
a(S'791307976'
S'Sarah Moin'
tp497
a(S'725771690'
S'Amjad Hussain'
tp498
a(S'540858692'
S'Umar Farooq'
tp499
a(S'1453963400'
S'Muhammad Hassaan'
tp500
a(S'1614272298'
S'Shoaib Nadir'
tp501
a(S'1316868794'
S'Hamza Orakzai'
tp502
a(S'1399486129'
S'Faiz Ilyas Sheikh'
tp503
a(S'546396874'
S'Rafay Qazi'
tp504
a(S'804662102'
S'Shahan Hameed Khattak'
tp505
a(S'1676898790'
S'Omair Sarwar'
tp506
a(S'100000059370128'
S'Azhar Saeed'
tp507
a(S'591361272'
S'Samad Khan'
tp508
a(S'1465746176'
S'Eraj Shafiq'
tp509
a(S'554489489'
S'Mahrukh Pasha'
tp510
a(S'1450508455'
S'Zahra Shahab'
tp511
a(S'100000135954090'
S'Mehreen Cheema'
tp512
a(S'1316341820'
S'Ali Bilal'
tp513
a(S'833545526'
S'Zainab Vohra'
tp514
a(S'100000141692241'
S'Haris Iqbal'
tp515
a(S'617394408'
S'Bilal Shakir'
tp516
a(S'1088607234'
S'Shumaila Asim'
tp517
a(S'100000935195347'
S'Sufiyan Waheed'
tp518
a(S'100005363411743'
S'Faizan Fz'
tp519
a(S'615312501'
S'Zeeshan Shahid'
tp520
a(S'551025055'
S'Maham Abbas'
tp521
a(S'779720051'
S'Muneeb Farrukh'
tp522
a(S'611975293'
S'Meher Khan'
tp523
a(S'544151144'
S'Basit Sheikh'
tp524
a(S'528272351'
S'Zain Ali'
tp525
a(S'509580957'
S'Sidrat Arif'
tp526
a(S'1069269811'
S'Umer Attiq'
tp527
a(S'1411200235'
S'Zara Durrani'
tp528
a(S'1239537923'
S'Moazam Ali'
tp529
a(S'612265341'
S'Ahsan Iqbal'
tp530
a(S'1400964869'
S'Shehreyar Akhtar'
tp531
a(S'583845931'
S'Ahmed Bakali'
tp532
a(S'901075455'
S'Rasib Ali Bhanji'
tp533
a(S'589755083'
S'Usama Siddiqui'
tp534
a(S'824330061'
S'M Ali Khan Niazi'
tp535
a(S'805475194'
S'Osama Ahmed'
tp536
a(S'100000219151748'
S'Chaudhry Arslan'
tp537
a(S'100001756937679'
S'Umar Anwar Jahangir'
tp538
a(S'100007630445489'
S'Yasir Dewan'
tp539
a(S'1076816439'
S'Shahbaz Amin Khan'
tp540
a(S'585410693'
S'Ziaan Ahmed'
tp541
a(S'1055012523'
S'Samra Ahmed'
tp542
a(S'667634351'
S'Uloomi Karim Shaheen'
tp543
a(S'669813810'
S'Anna Abbasi'
tp544
a(S'599064918'
S'Syed Muhammad Usama'
tp545
a(S'707935261'
S'Arqam Shah'
tp546
a(S'100002081760668'
S'Hina Mujeeb'
tp547
a(S'1054897160'
S'Ferdinand Meyer-Miethke'
tp548
a(S'507591522'
S'Omair Durrani'
tp549
a(S'737996336'
S'Shahab Khalid'
tp550
a(S'634590667'
S'Talha Waheed'
tp551
a(S'695602164'
S'Omer Ehtisham'
tp552
a(S'1475872492'
S'Abdullah Khan'
tp553
a(S'1041610258'
S'Ukasha Iqbal'
tp554
a(S'890140064'
S'Anam Sohail'
tp555
a(S'527243362'
S'Shahroz Ali'
tp556
a(S'823595513'
S'Mulassum Younus'
tp557
a(S'640902428'
S'Hashaam Sohail'
tp558
a(S'526600073'
S'Jb Mughal'
tp559
a(S'543760095'
S'Hassaan Jamal'
tp560
a(S'545074016'
S'Amaara Batool'
tp561
a(S'689662435'
S'Hummayun Chaudhry'
tp562
a(S'641896114'
S'Shoaib Mukhtar'
tp563
a(S'1052059955'
S'Zara Majeed'
tp564
a(S'754295103'
S'Hamza Shafique'
tp565
a(S'696991345'
S'Fatima Jafri'
tp566
a(S'100004849782595'
S'Kamil Rafique'
tp567
a(S'587740539'
S'Ras Nabeel Baig'
tp568
a(S'1338619312'
S'Waqas Sikandari'
tp569
a(S'600121299'
S'Rubinah Ahmad'
tp570
a(S'853180634'
S'Shakaib Khan'
tp571
a(S'550040930'
S'Talha Dogar'
tp572
a(S'515736846'
S'Maimana Khattak'
tp573
a(S'100000328380704'
S'Ameer Hamza'
tp574
a(S'637475379'
S'Ashas Zubair'
tp575
a(S'1097366995'
S'Ali Lali'
tp576
a(S'542506596'
S'Abbas Ahmad Ansari'
tp577
a(S'100001358318343'
S'Shariq Thara'
tp578
a(S'595831061'
S'Shayan Kaleem'
tp579
a(S'1120231689'
S'Hassan Bareach'
tp580
a(S'734421827'
S'Florent Arjol Cond\\u00e9'
tp581
a(S'1056515765'
S'Mohammad Usama Toseef'
tp582
a(S'598360573'
S'Amna Ansari'
tp583
a(S'601395429'
S'Hamza Ghaznavi'
tp584
a(S'584865051'
S'Mohammad Ahmad'
tp585
a(S'820950253'
S'Bilal Kausar'
tp586
a(S'100000012045416'
S'Arslan Ayub'
tp587
a(S'893580433'
S'Abdull Nafeh'
tp588
a(S'657921352'
S'Bheesham Lal'
tp589
a(S'100003107214265'
S'Akbar Ali'
tp590
a(S'502218534'
S'Nabeel Rehman'
tp591
a(S'601348043'
S'Shaharyar Ahmad Sohail'
tp592
a(S'100000415579137'
S'Rubab Naqvi'
tp593
a(S'817555586'
S'Saad Zubair'
tp594
a(S'894920053'
S'Ather Ahmed'
tp595
a(S'100001277705370'
S'Jawad Sharif'
tp596
a(S'100000305650789'
S'Abdullah Shahzad'
tp597
a(S'100000645332833'
S'Ziad Maqsood'
tp598
a(S'614913720'
S'Hammad Malik'
tp599
a(S'729796645'
S'Ammad Ejaz'
tp600
a(S'100001067053098'
S'Muhammad Bin Khalid'
tp601
a(S'548814046'
S'Taimur Aziz'
tp602
a(S'711451164'
S'Bilal Ahmed'
tp603
a(S'1832528374'
S'Waqas Malik'
tp604
a(S'667399749'
S'Syed Muzamil Hasan Zaidi'
tp605
a(S'606355900'
S'Kanzul Fatima Zaidi'
tp606
a(S'1672210698'
S'Hafsa Memon'
tp607
a(S'1051719624'
S'Adnan Chaudhry'
tp608
a(S'727245664'
S'Abeera Jahangir'
tp609
a(S'555241196'
S'Ali Yawer'
tp610
a(S'100000510129344'
S'Bukhtawar Salik'
tp611
a(S'13902336'
S'Mariam Khan'
tp612
a(S'691956277'
S'Shahab Ahmad'
tp613
a(S'654076544'
S'Tashin Fatima Khan'
tp614
a(S'100001062717138'
S'Fatima Akhtar Alliende'
tp615
a(S'100000274904911'
S'Naqash Kiani'
tp616
a(S'631981990'
S'\\u062f\\u0627\\u0646\\u0634 \\u0645\\u0644\\u06a9'
tp617
a(S'1210041020'
S'Shahrukh Shakeel'
tp618
a(S'1153458045'
S'Awais Iqbal'
tp619
a(S'1254060751'
S'Fardad Baig'
tp620
a(S'535456542'
S'Hashim Kaleem'
tp621
a(S'647866065'
S'Ismail Zahid Umar'
tp622
a(S'513352186'
S'Owais Mansoor'
tp623
a(S'501835412'
S'Neehan Anis'
tp624
a(S'571673477'
S'Malika Shahbaz'
tp625
a(S'824260651'
S'Saifullah Waqar'
tp626
a(S'543390087'
S'Salman Farooq'
tp627
a(S'100001466650979'
S'Shahzeb Jafri'
tp628
a(S'599552969'
S'Izza Islam'
tp629
a(S'502158152'
S'Muhammad Haroon Khan'
tp630
a(S'100000100688506'
S'Zarak Zaheer'
tp631
a(S'100000956024718'
S'Zara Ashfaq'
tp632
a(S'663916467'
S'Umer Hayat'
tp633
a(S'502094353'
S'Emaan Maqbool'
tp634
a(S'739800708'
S'Hira Mobeen'
tp635
a(S'875805511'
S'Shmyla Khan'
tp636
a(S'693493759'
S'Shafaq Malik'
tp637
a(S'665567481'
S'M. Bilal Ahmad'
tp638
a(S'671381256'
S'Zunaira Kiani'
tp639
a(S'706340634'
S'Anam Zahid'
tp640
a(S'1510438213'
S'Syed Zain Shah'
tp641
a(S'1501920449'
S'Sufian Arshad'
tp642
a(S'502035097'
S'Umair Babar Chishti'
tp643
a(S'100001588034702'
S'Raja Rakaz Akbar Khan'
tp644
a(S'865950233'
S'Abdullah Ali'
tp645
a(S'735290003'
S'Hashim Mehmood'
tp646
a(S'538974717'
S'Fouad Ashraf'
tp647
a(S'505354927'
S'Haris Shahbaz'
tp648
a(S'642510675'
S'Ahmed Rafiq'
tp649
a(S'578530218'
S'Saad Ahmed Qureshi'
tp650
a(S'1613097588'
S'Hassam Khan Wazir'
tp651
a(S'676950914'
S'Usman Khalid'
tp652
a(S'820950541'
S'QAdeer Uddin Ahmed'
tp653
a(S'100000214088418'
S'Ahmad Salman Zafar'
tp654
a(S'100000200124443'
S'Saqib Mushtaq'
tp655
a(S'100000057922529'
S'Rao Shahbaz Hassan'
tp656
a(S'829965643'
S'Zuha Agha'
tp657
a(S'529201189'
S'Muhammad Asim'
tp658
a(S'791160472'
S'Talib Hussain'
tp659
a(S'1848007956'
S'Arsalan Khan'
tp660
a(S'566190910'
S'Asad Salman Malik'
tp661
a(S'587056458'
S'Natasha Sarah Murad'
tp662
a(S'1611174079'
S'Hatim Rashid'
tp663
a(S'618475615'
S'Khushbakth Rizvi'
tp664
a(S'506531530'
S'Maryam Khawaja'
tp665
a(S'711140744'
S'Ghulam Murtaza'
tp666
a(S'614971695'
S'M.Izharulhaq Bajwa'
tp667
a(S'100000970295882'
S'Tahir Javed'
tp668
a(S'1313872598'
S'Asim Sultan'
tp669
a(S'764848289'
S'Waqar Chaudhry'
tp670
a(S'100007223521456'
S'Maryam Imran'
tp671
a(S'100000104208269'
S'Hamza Adeel'
tp672
a(S'824050071'
S'Umair Qadeer'
tp673
a(S'588893390'
S'Usman Amjad'
tp674
a(S'682080194'
S'Ahsan Rehman'
tp675
a(S'722051919'
S'Shah-Baz Hassan'
tp676
a(S'520903462'
S'Ali Haider'
tp677
a(S'588041388'
S'Sobia Urooj'
tp678
a(S'1190976815'
S'Naz Gul Qasim'
tp679
a(S'644785603'
S'Farrukh Kazi'
tp680
a(S'726869022'
S'Rehan Anwar'
tp681
a(S'530026291'
S'Khadijah Azhar'
tp682
a(S'1808606792'
S'Ilhaam Durrani'
tp683
a(S'509211106'
S'Zaeem Khan'
tp684
a(S'1313344100'
S'Jawad Karim'
tp685
a(S'508525167'
S'Anum Najeem'
tp686
a(S'592816672'
S'Imran Ahmad Khan'
tp687
a(S'633600366'
S'Khawaja Fahd'
tp688
a(S'512306115'
S'Muhammad Hamza Sarosh'
tp689
a(S'576512914'
S'Umair Noor'
tp690
a(S'507094252'
S'Hussain Shoukat Nayani'
tp691
a(S'572619008'
S'Zil Ali Mirza'
tp692
a(S'1527612809'
S'Taimur Razi Khan'
tp693
a(S'100002422805578'
S'Fahad Barkey'
tp694
a(S'696588370'
S'Haseeb Niaz'
tp695
a(S'1431938980'
S'Fahad Alam'
tp696
a(S'60507756'
S'Saffi-Ullah Ahmad'
tp697
a(S'523310382'
S'Nadir Ali Khan'
tp698
a(S'642794187'
S'Mansoor Aslam Rathore'
tp699
a(S'595006888'
S'Malik Shaheryar'
tp700
a(S'1658725018'
S'Hassan Khan'
tp701
a(S'621135551'
S'Zoya Tariq'
tp702
a(S'100000127489940'
S'Saleh Mirza'
tp703
a(S'544715467'
S'Manisha Valicha'
tp704
a(S'544591104'
S'Usama Jilani'
tp705
a(S'905900494'
S'Faiza Majid'
tp706
a(S'501997047'
S'Haris Ghani Khan'
tp707
a(S'758595570'
S'Rehan Akram'
tp708
a(S'582505841'
S'Ayesha Ahsan'
tp709
a(S'717980916'
S'Marium Bukhari'
tp710
a(S'555047830'
S'Mohammad Jahanzaib'
tp711
a(S'1222556501'
S'Tehreem Khalid'
tp712
a(S'532143993'
S'Jotesh Lohia'
tp713
a(S'587365139'
S'Hasan Masood'
tp714
a(S'551270520'
S'Abdul Ghani'
tp715
a(S'100000103210368'
S'Fahad Mehsood'
tp716
a(S'519253141'
S'Muhammad Hasan Javaid'
tp717
a(S'100000022087713'
S'Muhammad Umer'
tp718
a(S'612598704'
S'Roha Chohan'
tp719
a(S'693770345'
S'Turab Hassan'
tp720
a(S'100000722847788'
S'Muhammad Ali Sultan'
tp721
a(S'1166029008'
S'Fatty Anwar'
tp722
a(S'561390552'
S'Fatima Rauf'
tp723
a(S'654795972'
S'Waqar Nayyar'
tp724
a(S'854235472'
S'Laila Rajani'
tp725
a(S'559673245'
S'Bilal Syed'
tp726
a(S'525285456'
S'Heer Ayoub Shaikh'
tp727
a(S'572781180'
S'Jaweria Sethi'
tp728
a(S'1346374307'
S'Asim Ahmed Pervez'
tp729
a(S'719915448'
S'Samaa Mufti'
tp730
a(S'565631509'
S'Awais Khan'
tp731
a(S'665974066'
S'Muhammad Waqas Aziz'
tp732
a(S'1099895343'
S'Toobah Ali'
tp733
a(S'627536686'
S'Vaqar Ahmad Arain'
tp734
a(S'531725693'
S'Amn Rahman'
tp735
a(S'710850477'
S'Roha Khan'
tp736
a(S'536815113'
S'Seemal Sikander Javaid'
tp737
a(S'680893866'
S'Khurram Malik'
tp738
a(S'505717654'
S'Zara Khadeeja Majoka'
tp739
a(S'755647766'
S'Eliya Syed'
tp740
a(S'1607385052'
S'Nouman Pervaiz'
tp741
a(S'535890283'
S'Abbas Taqi'
tp742
a(S'1634054798'
S'Mashaal Zahid'
tp743
a(S'752170570'
S'Sakina Tayyebi'
tp744
a(S'543780568'
S'Faizan Arif'
tp745
a(S'726866750'
S'Mussawir Ahmad'
tp746
a(S'1290245448'
S'Sobia Kanwal'
tp747
a(S'644921144'
S'Waleed Ahmar'
tp748
a(S'583725785'
S'Tabish Jaleel Shaikh'
tp749
a(S'833125439'
S'Daniyal Yousaf'
tp750
a(S'100001183896538'
S'Awais Javed'
tp751
a(S'1763340837'
S'Maleha Ahmad'
tp752
a(S'507512832'
S'Sarah Hussain'
tp753
a(S'100000475440196'
S'Umer Ashraf'
tp754
a(S'606755267'
S'Ahmed Shariq Khan'
tp755
a(S'741280023'
S'Areeba Kirmani'
tp756
a(S'592615964'
S'Aleezeh Ahmad'
tp757
a(S'754168335'
S'Muhammad Zubair Aslam'
tp758
a(S'1000922912'
S'Muhammad Azhar Khan'
tp759
a(S'833294348'
S'Hassan Butt'
tp760
a(S'1356055479'
S'Asadullah Irfanqazi'
tp761
a(S'500491476'
S'Umair Ahmed Khan'
tp762
a(S'100001630255530'
S'Roker Arthur'
tp763
a(S'508408398'
S'Faiza Ahmar'
tp764
a(S'537420467'
S'Mashaal Chaudhri'
tp765
a(S'720922686'
S'Jahanzeb Rahman Khan'
tp766
a(S'597119187'
S'Noroze Sikander Junaid Dani'
tp767
a(S'623471470'
S'Laraib Iqbal Malik'
tp768
a(S'1513998169'
S'Hamza Naseer Khan'
tp769
a(S'1698302120'
S'Malik Muhammad Zaheer'
tp770
a(S'865355647'
S'Anam Shoaib'
tp771
a(S'100001751640035'
S'Ali Abbasi'
tp772
a(S'529990310'
S'Nomee Bukhari'
tp773
a(S'505312124'
S'Rafiq Abdul Rehman'
tp774
a(S'696575058'
S'Mahaa Mansur'
tp775
a(S'1363651320'
S'Ahsan Ali'
tp776
a(S'558357044'
S'Hamza Khalid'
tp777
a(S'623425475'
S'Sarim Zia'
tp778
a(S'100001270150709'
S'Hassan Akram'
tp779
a(S'539245320'
S'Saad Khan'
tp780
a(S'100000106360150'
S'Qaisar Raza'
tp781
a(S'554770228'
S'Muhammad Ahmed'
tp782
a(S'516784515'
S'Zahra Millwala'
tp783
a(S'1456805500'
S'Fatima Zaidi'
tp784
a(S'796230345'
S'Zargham Gilani'
tp785
a(S'625458246'
S'Batool Naqvi'
tp786
a(S'745900537'
S'Fahad Masud Lone'
tp787
a(S'675615429'
S'Osama Ali Siddiqui'
tp788
a(S'578325648'
S'Hassan Abbasi'
tp789
a(S'1098972520'
S'Ramiz S Khawar'
tp790
a(S'658793798'
S'Ahsan Muhammad'
tp791
a(S'614872020'
S'Hafeez UrRehman'
tp792
a(S'679794604'
S'Rukhaam Ahmed'
tp793
a(S'607279142'
S'Usama Arshad Warraich'
tp794
a(S'1501944623'
S'Emel Akber Ozgen'
tp795
a(S'504477911'
S'Naveen A. Saifi'
tp796
a(S'100003956384809'
S'Hasan Jamshaid'
tp797
a(S'546700163'
S'Maha Rehman'
tp798
a(S'505976598'
S'Hayyan Rafiq'
tp799
a(S'516729727'
S'Noor Ul Hira Shaukat'
tp800
a(S'511965353'
S'Ali Tahir'
tp801
a(S'100000293597290'
S'Bilal Mahmood'
tp802
a(S'727739281'
S'Maryam Razzaq'
tp803
a(S'557196270'
S'Usuf Zoeb'
tp804
a(S'756175386'
S'Anum Aftab'
tp805
a(S'543870079'
S'Ahmed Hayat'
tp806
a(S'100000016816408'
S'Mubeen Ahsan'
tp807
a(S'507629675'
S'Faran Rafi'
tp808
a(S'886180331'
S'Ahmed Daud'
tp809
a(S'100004718167482'
S'Dazzling Fille'
tp810
a(S'573197046'
S'Khawaja Muhammad Asad Attari'
tp811
a(S'100000155124285'
S'Nauman Yousaf'
tp812
a(S'655565573'
S'Yahya Farid Khwaja'
tp813
a(S'625671462'
S'Raja Wajahat'
tp814
a(S'607795307'
S'Manal Shafqat'
tp815
a(S'1051126875'
S'Zainab Khalid'
tp816
a(S'1400768387'
S'Waqas Ahmed'
tp817
a(S'515326539'
S'Hassan Ahmad'
tp818
a(S'100002372497302'
S'Tamkeen Khokhar'
tp819
a(S'849520223'
S'Shumyla Khatri'
tp820
a(S'644096000'
S'Rai Ghulam Mustafa'
tp821
a(S'502017481'
S'Aaiza Tehreem Ali'
tp822
a(S'538798843'
S'Abdal Mufti'
tp823
a(S'1338433502'
S'Saqlain Saleem'
tp824
a(S'743510506'
S'Arslan Dogar'
tp825
a(S'100000691794536'
S'Humna Zubair'
tp826
a(S'776889253'
S'Khuzaema Gauhar Siddiqui'
tp827
a(S'100007987200644'
S'Farah Khan'
tp828
a(S'507795015'
S'Sheikh Yahya Rafique'
tp829
a(S'752253832'
S'Muhammad Adeel Ansari'
tp830
a(S'519417633'
S'Sadeeqa Shahzad'
tp831
a(S'507520955'
S'Anum Liaque'
tp832
a(S'1222067925'
S'Soban Shahid'
tp833
a(S'1081345921'
S'Syed Raheel Aijaz'
tp834
a(S'699151731'
S'Sofia Wanchoo Mir'
tp835
a(S'1090520690'
S'Aziza Suleymanzade'
tp836
a(S'610340466'
S'Farwah Shariff'
tp837
a(S'100000348147599'
S'Afshal Awan'
tp838
a(S'590362131'
S'Rabab Khan'
tp839
a(S'515135216'
S'Omar S Yazdanie'
tp840
a(S'1024788450'
S'Ali Raza Ahmed'
tp841
a(S'569124037'
S'Ammar Tahir'
tp842
a(S'1395783649'
S'Hina Mubashar'
tp843
a(S'521932956'
S'Fahd Mukaddam'
tp844
a(S'507370047'
S'Haris Aziz'
tp845
a(S'508571542'
S'Waqar Bhutta'
tp846
a(S'100002644427760'
S'Khyber Khan'
tp847
a(S'100000084477726'
S'Iqra Nadeem'
tp848
a(S'586780157'
S'Haadia S. Paracha'
tp849
a(S'534747408'
S'Raja Daniyal'
tp850
a(S'100002417284383'
S'Aiesha Kurashi'
tp851
a(S'816785304'
S'Zehra Akbar'
tp852
a(S'623425105'
S'Qaseem Abidi'
tp853
a(S'518328007'
S'Kiran Nazish'
tp854
a(S'100000299136573'
S'Sharoz Mazhar'
tp855
a(S'559040280'
S'Sheharyar Ikram'
tp856
a(S'502013668'
S'Ahsen Khokhar'
tp857
a(S'592006815'
S'Marwan Abbasy'
tp858
a(S'1310714810'
S'Daniyal Tahir'
tp859
a(S'605625820'
S'Irtiza Ahmed'
tp860
a(S'572295256'
S'Rizwan Umer'
tp861
a(S'100000402801306'
S'Laiba Ambreen'
tp862
a(S'599950142'
S'Hashim Bin Shahbaz'
tp863
a(S'1460042801'
S'Junaid Ashraf'
tp864
a(S'1441699815'
S'Tooba Rashid'
tp865
a(S'1309113130'
S'Saad Iqbal'
tp866
a(S'552960343'
S'Hassaan Islam'
tp867
a(S'696662320'
S'Sara Rizwan'
tp868
a(S'1040971127'
S'Muhammad Havaris Arshad Malik'
tp869
a(S'629974925'
S'OG Maa'
tp870
a(S'537340248'
S'Fahad Jalil'
tp871
a(S'500439274'
S'Fahd Hussain Khan'
tp872
a(S'652800579'
S'Mohsin Khattak'
tp873
a(S'631125198'
S'Faaez Zafar'
tp874
a(S'662137129'
S'Shimron Innocent Bhatti'
tp875
a(S'1030710114'
S'Raabeaa Malik'
tp876
a(S'100002257035871'
S'Assam Raja'
tp877
a(S'859715579'
S'Hasan Abbas'
tp878
a(S'1061089898'
S'Matthias Vollhardt'
tp879
a(S'500518360'
S'Sundus Naeem Siddiqi'
tp880
a(S'1545254250'
S'Waleed Ashraf Khan'
tp881
a(S'673087628'
S'Taimour Abdullah'
tp882
a(S'1383890362'
S'Moiz Sheikh'
tp883
a(S'841870122'
S'Maha Ahmed Qureshi'
tp884
a(S'749925639'
S'Saad Asad'
tp885
a(S'646264154'
S'Ibrahim Haroon'
tp886
a(S'100000563710675'
S'Rohail Kasi'
tp887
a(S'698764843'
S'Farhan Abid'
tp888
a(S'1464735576'
S'Laiba Kamran'
tp889
a(S'663045811'
S'Mohammad Asim Khan'
tp890
a(S'614520390'
S'Resham Rafiq'
tp891
a(S'774470127'
S'Uzair Latif'
tp892
a(S'624126440'
S'King Kash'
tp893
a(S'683450812'
S'Haniya Yameen'
tp894
a(S'505187448'
S'Mehran Khan'
tp895
a(S'741360178'
S'Mughees Jamal'
tp896
a(S'521186261'
S'Rohail Salman Hayat'
tp897
a(S'610086969'
S'Amna Pakistan Mirza'
tp898
a(S'548565216'
S'Khadija Jawed'
tp899
a(S'633601059'
S'Durre Jehan'
tp900
a(S'511699904'
S'Hira Amin'
tp901
a(S'509532202'
S'Saad R. Rathore'
tp902
a(S'100000476443864'
S'Muhammad Imran Chaudhry'
tp903
a(S'613041331'
S'Zohaib Waheed'
tp904
a(S'558905802'
S'Wasif Mehmood'
tp905
a(S'1322021223'
S'Fahad Awan'
tp906
a(S'578180441'
S'Ahmed Zafar'
tp907
a(S'561154368'
S'Danish Usmani'
tp908
a(S'100000299119944'
S'Asaad Anjum'
tp909
a(S'861935561'
S'Jamal Abubakr'
tp910
a(S'1838092133'
S'Asjad Ahmed Pervez'
tp911
a(S'1062029842'
S'Sarmad Amer'
tp912
a(S'532841852'
S'Syed Shayan Safder'
tp913
a(S'1481296593'
S'Ali Awais'
tp914
a(S'690640084'
S'Anum Dhalwani'
tp915
a(S'503416206'
S'Sayed Komail Haider'
tp916
a(S'549015693'
S'Neha Hassan'
tp917
a(S'508804715'
S'Chaudry Faisal'
tp918
a(S'716055311'
S'Harris Laeeque'
tp919
a(S'1434277483'
S'Talal Ahmed'
tp920
a(S'505796879'
S'Mahrukh Afzal Kayani'
tp921
a(S'100000128416917'
S'Arslan Yousaf'
tp922
a(S'1176399437'
S'Talal Ali Jan'
tp923
a(S'1466141661'
S'Junaid Saeed'
tp924
a(S'1033733331'
S'Bilal Patel'
tp925
a(S'654840181'
S'Chaudry Zohaib Khalid'
tp926
a(S'1474695261'
S'Oneeb A. Chohan'
tp927
a(S'1237998074'
S'Hassan Sarfraz Khan'
tp928
a(S'1188660868'
S'Sara Ayaz Butt'
tp929
a(S'1018620916'
S'Habib Tariq'
tp930
a(S'676356416'
S'Shery Khan Arshed'
tp931
a(S'615381723'
S'Basharullah Mohammad'
tp932
a(S'727901671'
S'Yawar Ismail Khalid'
tp933
a(S'502037304'
S'Anna Wirdah Gouhar'
tp934
a(S'790330547'
S'Syed Ali Hussain'
tp935
a(S'100000077269050'
S'Assam Zahid'
tp936
a(S'1411620210'
S'Shayan Ahmad'
tp937
a(S'582852448'
S'Haider Zahid'
tp938
a(S'1461756240'
S'Muhammad Sohaib Chohan'
tp939
a(S'536066676'
S'Ali Pervaiz Baloch'
tp940
a(S'1017679875'
S'Yousuf Jamil'
tp941
a(S'756306799'
S'Shahmeer Shafqat'
tp942
a(S'656036144'
S'MH Awan'
tp943
a(S'1609115304'
S'Nabeel Muhammad'
tp944
a(S'503911746'
S'Ahsan Tariq'
tp945
a(S'584177358'
S'Ayesha Durrani'
tp946
a(S'824695592'
S'Hamad Dadan'
tp947
a(S'668744202'
S'Adeel Ur Rehman'
tp948
a(S'1210495872'
S'Eman Israr'
tp949
a(S'581425441'
S'Abdul Munam Shaikh'
tp950
a(S'1151761292'
S'Abdus Samad'
tp951
a(S'502010447'
S'Hammad Amin'
tp952
a(S'653510566'
S'Muhammad Ali AKbar'
tp953
a(S'536571788'
S'Sondus Badar'
tp954
a(S'672873131'
S'Ali Shaaban Shahid'
tp955
a(S'100000161059784'
S'Aman Kumar'
tp956
a(S'1047738879'
S'Vaqar Ahmad'
tp957
a(S'555940303'
S'Valiede Khan'
tp958
a(S'1386166891'
S'Numan Abbasi'
tp959
a(S'1138638255'
S'Wajih Haider'
tp960
a(S'651796418'
S'Saady Mufti'
tp961
a(S'571715470'
S'Syed Faizan Ali'
tp962
a(S'529985419'
S'Fariha Yousufi'
tp963
a(S'100006231973612'
S'Arham Usmani'
tp964
a(S'100001389372504'
S'Talha Hamayun'
tp965
a(S'896205192'
S'Rabee Arshad'
tp966
a(S'1513212782'
S'Jahanzaib Jamshed'
tp967
a(S'811665200'
S'Agha Talha'
tp968
a(S'100000202786874'
S'Muhammad Ali Sheikh'
tp969
a(S'644881132'
S'Manya Qureshi'
tp970
a(S'660437692'
S'Aamna Nazir'
tp971
a(S'1038240669'
S'Farzana Malik'
tp972
a(S'1106931959'
S'Chaudry Ibrar Sahi'
tp973
a(S'1416457133'
S'Sheikh Muhammad Saad Sohail'
tp974
a(S'700453083'
S'Syed Rohaan Ahsan Bukhari'
tp975
a(S'809775021'
S'Hayyan Khawar'
tp976
a(S'891630253'
S'Farhan Saif'
tp977
a(S'100001357717785'
S'Manahil Rafiq'
tp978
a(S'1566760667'
S'Sibtay Hasan Hyder'
tp979
a(S'540365265'
S'Mohammad Mustafa Mirza'
tp980
a(S'718555258'
S'Emad Khan'
tp981
a(S'1660136594'
S'Toheed Warraich'
tp982
a(S'1456254353'
S'Shahbaz Nazir'
tp983
a(S'513503993'
S'Abdur Rehman Amjad'
tp984
a(S'587695055'
S'Tahreem Aman Mir'
tp985
a(S'750990152'
S'Usama Mazhar'
tp986
a(S'515089969'
S'Nisah Ahmed'
tp987
a(S'1171009102'
S'Hira Mumtaz Inactive'
tp988
a(S'636496326'
S'Sagar Jagani'
tp989
a(S'590860345'
S'Kanza Azeemi'
tp990
a(S'501986506'
S'Fakiha Nadeem'
tp991
a(S'676415922'
S'Abdullah Hamid'
tp992
a(S'581440307'
S'Rida Hameed'
tp993
a(S'609536507'
S'Haris Usmani'
tp994
a(S'526201502'
S'Soban Khalid'
tp995
a(S'1173552649'
S'Marsak Barry'
tp996
a(S'596940785'
S'Sakina Raza Sagarwala'
tp997
a(S'1488253478'
S'Sultan Ali Bajwa'
tp998
a(S'517228546'
S'Shazia Sana'
tp999
a(S'1527124611'
S'Talha Chishti'
tp1000
a(S'624196948'
S'Mashal Hasan'
tp1001
a(S'603826413'
S'Yasir Sh.'
tp1002
a(S'100001332966071'
S'Mohsin Saeed Raja'
tp1003
a(S'670721839'
S'Ali Haider'
tp1004
a(S'662495970'
S'Aadil Malik'
tp1005
a(S'740195071'
S'Haris Salman'
tp1006
a(S'583510576'
S'Syed Fawad Ali Zaidi'
tp1007
a(S'1486361603'
S'Ashbal Bin Yasir'
tp1008
a(S'630996953'
S'Mahmood Younus'
tp1009
a(S'505474038'
S'Danish Ali Latif'
tp1010
a(S'100004942478174'
S'Waseem Sheikh'
tp1011
a(S'100004227006228'
S'Salman Salim'
tp1012
a(S'710472159'
S'Umar Mustafa'
tp1013
a(S'657381490'
S'Salman Raja'
tp1014
a(S'740710522'
S'Zil Ur Rahman'
tp1015
a(S'566090599'
S'Zeelomi Wadiwalla'
tp1016
a(S'1043807239'
S'Mariya Dada'
tp1017
a(S'510568240'
S'Mehreen Seher Hai'
tp1018
a(S'609870925'
S'Hussain Ali Zaidi'
tp1019
a(S'535810227'
S'Ayan Ghayas'
tp1020
a(S'760882852'
S'Salma Chaudhry'
tp1021
a(S'541970671'
S'Zara Khurram'
tp1022
a(S'844445163'
S'Maha Aman Malik'
tp1023
a(S'752577354'
S'Zainab Rafiq'
tp1024
a(S'556391256'
S'Moiz Kirmani'
tp1025
a(S'818970289'
S'Farwah Qasim'
tp1026
a(S'735250092'
S'Danish Shakeel'
tp1027
a(S'501842892'
S'Minahil Khan'
tp1028
a(S'619252804'
S'Adam Zia'
tp1029
a(S'641025303'
S'Umar Arain'
tp1030
a(S'502057465'
S'Abdullah Kayani'
tp1031
a(S'690074132'
S'Noor A Yasin'
tp1032
a(S'100002077682641'
S'Aan Asif Cheema'
tp1033
a(S'589121934'
S'ALi Hassan'
tp1034
a(S'519740987'
S'Bushra Shehzad'
tp1035
a(S'862895170'
S'Syed Akbar Mahmood Zaidi'
tp1036
a(S'693860283'
S'Mamoon Ismail Khalid'
tp1037
a(S'544600707'
S'Azam Naz'
tp1038
a(S'100003864596796'
S'Uzair Butt'
tp1039
a(S'591265528'
S'Umair Anjum'
tp1040
a(S'551990594'
S'Mahira Maniar'
tp1041
a(S'502130130'
S'Hashim Mazhar'
tp1042
a(S'512105029'
S'Haider Abbas'
tp1043
a(S'514830129'
S'Noman Zubair'
tp1044
a(S'557586722'
S'Zohaib Abbasi'
tp1045
a(S'100003474566939'
S'Saad Xaheer'
tp1046
a(S'1423540769'
S'Rida A Fahad'
tp1047
a(S'100001483183586'
S'Tahir Ali Shah'
tp1048
a(S'707226921'
S'Talha Asif Patel'
tp1049
a(S'100006439508442'
S'Mehak Akhlaq'
tp1050
a(S'777861802'
S'Bilal Ahmed'
tp1051
a(S'725875233'
S'Syed Ahmed Talal'
tp1052
a(S'1443950868'
S'Shahzar Ilahi'
tp1053
a(S'1371654194'
S'Raja Talha Mehmood'
tp1054
a(S'1438759419'
S'Osman Mazhar'
tp1055
a(S'1004313605'
S'Hamza Amjad'
tp1056
a(S'653175544'
S'Aly Sher Khan'
tp1057
a(S'525571637'
S'Rawaid Asif'
tp1058
a(S'683252624'
S'Sharaf Zia'
tp1059
a(S'100001181853648'
S'Maheer Badar Raja'
tp1060
a(S'579515960'
S'Nashit Iqbal Naviwala'
tp1061
a(S'100005700553663'
S'Omer Farooq Mahmud'
tp1062
a(S'100001282312194'
S'Arsel Masood Rajput'
tp1063
a(S'684720461'
S'Aahmed Naim Ismail'
tp1064
a(S'1130101756'
S'Aisha Mushtaq'
tp1065
a(S'100000223076063'
S'Hamza Shoaib'
tp1066
a(S'512353794'
S'Muhammad Mustafa Memon'
tp1067
a(S'1304422591'
S'Imran Saeed'
tp1068
a(S'527427235'
S'Sk Rafiq'
tp1069
a(S'551370172'
S'Anum Niaz'
tp1070
a(S'605225073'
S'Wasif Ghazali'
tp1071
a(S'594018650'
S'Sadaf Waqar'
tp1072
a(S'1581402564'
S'Sameen Rahat'
tp1073
a(S'665727632'
S'Zaib Aziz'
tp1074
a(S'514290733'
S'Sheraz Shuja'
tp1075
a(S'762026319'
S'Rida Ayesha'
tp1076
a(S'1087711310'
S'Aqib Saeed'
tp1077
a(S'1525057766'
S'Haris Muzaffar'
tp1078
a(S'1032634391'
S'Shahaan Barlas'
tp1079
a(S'521502641'
S'Hashim Qaisar'
tp1080
a(S'551880334'
S'Rafay Ahmed'
tp1081
a(S'505513789'
S'Ayesha Mysorewala'
tp1082
a(S'676493934'
S'Amina Zafar Mian'
tp1083
a(S'566565828'
S'Hafsa Naim'
tp1084
a(S'507894183'
S'Ahmad Noor Jamil'
tp1085
a(S'737560603'
S'Syed Haroon Bin Farukh'
tp1086
a(S'558913410'
S'Umar Irshad'
tp1087
a(S'1658269928'
S'Nonx Khokhar'
tp1088
a(S'100000262432941'
S'Zulfiqar Ali'
tp1089
a(S'707847164'
S'Asad Tariq'
tp1090
a(S'1359918430'
S'Arslan Bhatti'
tp1091
a(S'1373264834'
S'Shazin Javed'
tp1092
a(S'725751719'
S'Asfand Saleem'
tp1093
a(S'100002193018503'
S'Ian Overton'
tp1094
a(S'560637533'
S'Sher Hassan Raza'
tp1095
a(S'1010212730'
S'Muhammad Zain Awan'
tp1096
a(S'563461554'
S'Abdullah Kharal'
tp1097
a(S'553667683'
S'Ehtesham Malik'
tp1098
a(S'576621840'
S'Ammad Hassan Mir'
tp1099
a(S'671361980'
S'Raza Abbas'
tp1100
a(S'100000496912409'
S'Zain Ul Abideen'
tp1101
a(S'633138973'
S'Mishhee Z Hussain'
tp1102
a(S'1361407066'
S'Haider Klair'
tp1103
a(S'512185334'
S'Nadia Riaz'
tp1104
a(S'100000191403472'
S'Arsh Kataria'
tp1105
a(S'533341533'
S'Kamil Qureshi'
tp1106
a(S'508129396'
S'Nadia Ansari'
tp1107
a(S'100000247152166'
S'Ahmer Ibrahim'
tp1108
a(S'781789387'
S'Shehryar Ahmed Burki'
tp1109
a(S'1032285710'
S'Mian Taimoor Maalik'
tp1110
a(S'1647404893'
S'Mehtar Roydi'
tp1111
a(S'826370006'
S'Nauman Lakhani'
tp1112
a(S'666825654'
S'Saad Salman Malik'
tp1113
a(S'100000282478807'
S'Asad Ali Aslam'
tp1114
a(S'100000165914384'
S'Asif Bahadur'
tp1115
a(S'100000484845798'
S'Rubina Zulfqar'
tp1116
a(S'1477886044'
S'Muneeb Khan'
tp1117
a(S'100000408441224'
S'Ghalib Khalil'
tp1118
a(S'1286793889'
S'Usman Shani'
tp1119
a(S'622418085'
S'Azfar Raza'
tp1120
a(S'1042565672'
S'Raza Inam'
tp1121
a(S'1048340240'
S'Hamza Yahya'
tp1122
a(S'622416468'
S'Zohaib Shah'
tp1123
a(S'561106330'
S'Mohammad Rehan'
tp1124
a(S'100001726352509'
S'Batool Fatima'
tp1125
a(S'1838289353'
S'Atif Khan'
tp1126
a(S'566843527'
S'Azka Farooqui'
tp1127
a(S'662496326'
S'Safwan Chaudry'
tp1128
a(S'595552272'
S'Ahmad Nazir'
tp1129
a(S'554826199'
S'Khaqan Iftikhar'
tp1130
a(S'515930698'
S'Safa Mahmood'
tp1131
a(S'660481468'
S'Asra Aamir Shah'
tp1132
a(S'886590631'
S'Babar Naveed'
tp1133
a(S'558785905'
S'Mohsin Akram'
tp1134
a(S'604857201'
S'Ali Masood'
tp1135
a(S'1316304791'
S'Shahzad Mehboob'
tp1136
a(S'854205223'
S'Harris Azhar'
tp1137
a(S'100000327817459'
S'Syed Aamir Ali Shah'
tp1138
a(S'571130507'
S'Zoha Maryam Sheikh'
tp1139
a(S'571935611'
S'Ahad Badar Lak'
tp1140
a(S'502058976'
S'Maham Niaz'
tp1141
a(S'642009993'
S'Osama Mansoor'
tp1142
a(S'733797096'
S'Khadijah Nadeem'
tp1143
a(S'652525536'
S'Jawwad Mehmood'
tp1144
a(S'880775649'
S'Sultan Mehmood'
tp1145
a(S'512823669'
S'Manizeh Dossa'
tp1146
a(S'546709887'
S'Kazim Raza'
tp1147
a(S'554905522'
S'Hanna Seyal'
tp1148
a(S'591323984'
S'Faisal Kiani'
tp1149
a(S'1830974866'
S'Yumna Zahid'
tp1150
a(S'1588403016'
S'GurBux Kirshan Lohana'
tp1151
a(S'652081446'
S'Daniyal Khan'
tp1152
a(S'1420060617'
S'Zohaib Shah'
tp1153
a(S'502180583'
S'Ayesha. Awais'
tp1154
a(S'542261694'
S'Rafi Ullah'
tp1155
a(S'1213865154'
S'Subayyal Ilyas'
tp1156
a(S'701664125'
S'Hibah Khan'
tp1157
a(S'1181236226'
S'Asad Khan'
tp1158
a(S'549925396'
S'Samia Shafqaat'
tp1159
a(S'552195590'
S'Waqas Ahmed'
tp1160
a(S'651087620'
S'Aamir Ali Khan'
tp1161
a(S'571677605'
S'Asad Khan'
tp1162
a(S'654486593'
S'Hasan Murad'
tp1163
a(S'505391687'
S'Ali Javed Darugar'
tp1164
a(S'525015183'
S'Aneeq Ahmed Cheema'
tp1165
a(S'512503781'
S'Taimur Niaz'
tp1166
a(S'100000006624446'
S'Fahad Ullah Khan'
tp1167
a(S'586348680'
S'Pharan Tanveer'
tp1168
a(S'688567611'
S'Shaheer Tariq'
tp1169
a(S'709863398'
S'Ali Waqas'
tp1170
a(S'588710519'
S'Maryam Masud'
tp1171
a(S'732942720'
S'Mah Afroze'
tp1172
a(S'100003221584884'
S'Omer Farooq Mahmud'
tp1173
a(S'1186496388'
S'Hasan Arshad'
tp1174
a(S'1468795910'
S'Tariq Khan Bhittani'
tp1175
a(S'811505181'
S'Ali Saqib Husain'
tp1176
a(S'100002479980180'
S'Rejaa Faruq'
tp1177
a(S'517358735'
S'Umna Salim'
tp1178
a(S'566242470'
S'Muhammad Ahmad'
tp1179
a(S'863145724'
S'Anum Mustafa'
tp1180
a(S'651831034'
S'Osama Ashraf Gondal'
tp1181
a(S'1430768986'
S'Faiz Ul Wahab'
tp1182
a(S'635876240'
S'Saniya Malik'
tp1183
a(S'1306641756'
S'Aatir Siddique'
tp1184
a(S'683730139'
S'Waqas Tanveer'
tp1185
a(S'1023738975'
S'Ammad Xaheer'
tp1186
a(S'700240203'
S'Hira Mumtaz'
tp1187
a(S'100001208240076'
S'Shafqat Amanat Ali'
tp1188
a(S'1219816776'
S'Aatir Sohail'
tp1189
a(S'560465385'
S'Sara Tehzeeb Ali'
tp1190
a(S'1080472492'
S'Raja Ammar'
tp1191
a(S'100002729591902'
S'Rasti Farooq'
tp1192
a(S'100001221047628'
S'Shoaib Mukhtar'
tp1193
a(S'762431893'
S'Mohammed Usman'
tp1194
a(S'520432216'
S'Nauman Khalid'
tp1195
a(S'1030817404'
S'Yasir Qureshi'
tp1196
a(S'653385111'
S'Waleed Jamshed'
tp1197
a(S'100000170424654'
S'Awais Akbar Choudhary'
tp1198
a(S'656528498'
S'Mohib Mirza'
tp1199
a(S'535910720'
S'Usman Masood'
tp1200
a(S'1832494103'
S'Raja Danyal Asad'
tp1201
a(S'1216361394'
S'Khalid Saleem Rana'
tp1202
a(S'634702334'
S'Saad Shaukat'
tp1203
a(S'789758361'
S'Dehneez Asad'
tp1204
a(S'1069998539'
S'Qazi Wahaj'
tp1205
a(S'536640611'
S'Zainab Mustafa'
tp1206
a(S'684001630'
S'Faizan Majid'
tp1207
a(S'627731435'
S'Haseeb Farooqi'
tp1208
a(S'603132045'
S'Faheem Ali'
tp1209
a(S'670132591'
S'Moneeb Azhar'
tp1210
a(S'550484342'
S'Hamza Butt'
tp1211
a(S'1578063685'
S'Zaib Abbasi'
tp1212
a(S'551905120'
S'Malik Mubeen'
tp1213
a(S'502213563'
S'Fiza Salam'
tp1214
a(S'1346852127'
S'Bilal Razzaq'
tp1215
a(S'1336009045'
S'Oneeb Ashraf'
tp1216
a(S'541027882'
S'Ravia Saqib'
tp1217
a(S'607983124'
S'Mohandas Ba-llb'
tp1218
a(S'630155197'
S'Maliha Khan'
tp1219
a(S'535960725'
S'Muhammad Umer'
tp1220
a(S'666986473'
S'Saad Wasim'
tp1221
a(S'1167721936'
S'Subhan Azeem Qureshi'
tp1222
a(S'775260229'
S'Aleena Zafar'
tp1223
a(S'100002832616522'
S'Aimen Durrani'
tp1224
a(S'620060373'
S'Rohan Moin'
tp1225
a(S'100002465497057'
S'Rida Jamal'
tp1226
a(S'506534531'
S'Muhammad Asim'
tp1227
a(S'523798593'
S'Tayyaba Noor Qadir'
tp1228
a(S'650685610'
S'Omar Z Khan'
tp1229
a(S'1625875480'
S'Syed Faraz Shah'
tp1230
a(S'1720249178'
S'Saddam Ashfaq Raja'
tp1231
a(S'515313881'
S'Onaiza Arshad'
tp1232
a(S'566305665'
S'Daniyal Ahmed'
tp1233
a(S'719035064'
S'Saad Arif Tauseef'
tp1234
a(S'100000378961153'
S'Saqib Rehman'
tp1235
a(S'758513573'
S'Soban Khan'
tp1236
a(S'723070570'
S'Faran Asad'
tp1237
a(S'512246049'
S'Zuneera Azhar'
tp1238
a(S'652170824'
S'Faisal Rehman'
tp1239
a(S'1249303802'
S'Saad Hassan'
tp1240
a(S'1126861318'
S'Viqar Habib Bokhari'
tp1241
a(S'1171620345'
S'Naveed Hada'
tp1242
a(S'1720672760'
S'Anzak Aleem'
tp1243
a(S'100000702855467'
S'Sara Khan'
tp1244
a(S'501357182'
S'Ali Mohsin'
tp1245
a(S'1686281084'
S'Romana Sohail'
tp1246
a(S'100002720970544'
S'Ghazala Sana'
tp1247
a(S'536370127'
S'Mariam Saleem Farooqi'
tp1248
a(S'598665592'
S'Durriya Nadeem'
tp1249
a(S'708309535'
S'Sulaiman Khan'
tp1250
a(S'1483522237'
S'Hira Parveen'
tp1251
a(S'1040400843'
S'Muhammad Abdullah'
tp1252
a(S'1075704699'
S'Ismail Naveed'
tp1253
a(S'100000889016072'
S'Mahad Syed'
tp1254
a(S'652270659'
S'Muneeb Aslam'
tp1255
a(S'1825777059'
S'Umair Ahmad Kundi'
tp1256
a(S'1690843976'
S'Zain Virani'
tp1257
a(S'734470485'
S'Saad Abdul Aleem'
tp1258
a(S'1318782958'
S'Qumber Ali'
tp1259
a(S'100002058165428'
S'Alumni Relations'
tp1260
a(S'100000480725538'
S'Rafay Ahmad'
tp1261
a(S'100000167155723'
S'Farhan Shuja'
tp1262
a(S'100000029518474'
S'Mustafa Hameed'
tp1263
a(S'1067226320'
S'Syed Hassan Shah'
tp1264
a(S'1739606641'
S'Rayyan Bhatti'
tp1265
a(S'711056097'
S'Rabia Jamy'
tp1266
a(S'511191940'
S'Muneeb Baig'
tp1267
a(S'586722679'
S'Anum Kamran'
tp1268
a(S'806055132'
S'Abdul Basit'
tp1269
a(S'1056243454'
S'Osama Safeer'
tp1270
a(S'716690246'
S'Amna Amjad'
tp1271
a(S'676685575'
S'M Ali Ijaz'
tp1272
a(S'1311887729'
S'Faizan Tirmizi'
tp1273
a(S'591437413'
S'Anam Zan Johar'
tp1274
a(S'563622424'
S'Eissa Haroon'
tp1275
a(S'1055782827'
S'Shayyan Shahid'
tp1276
a(S'623110773'
S'Ahmad Ayub'
tp1277
a(S'505326797'
S'Jamal Shaykh'
tp1278
a(S'717590341'
S'Junaid Sarwar Sandhu'
tp1279
a(S'1309107512'
S'Modassar Ali'
tp1280
a(S'100004045187605'
S'Mohammad Taha Khan'
tp1281
a(S'550836062'
S'Shayyan Qaiser'
tp1282
a(S'571490456'
S'Hasan Raza Ahmed'
tp1283
a(S'100001696913818'
S'Christoph Rauch'
tp1284
a(S'1846855924'
S'Usama Asif Khan Cheema'
tp1285
a(S'515451850'
S'Areeba Humayun'
tp1286
a(S'100007057833050'
S'Hassan Naveed'
tp1287
a(S'1243474393'
S'Hammad Ahmad'
tp1288
a(S'547470916'
S'Emaad Abid Maqbool'
tp1289
a(S'100000038155615'
S'Zeeshan Zafar'
tp1290
a(S'599879737'
S'Mirza Taha Baig'
tp1291
a(S'613871578'
S'Aqdas Nida'
tp1292
a(S'100000464151331'
S'Moiz Ahmed'
tp1293
a(S'541795214'
S'Hassaan Imran'
tp1294
a(S'1814481109'
S'Hamza Sultan'
tp1295
a(S'565220235'
S'Daniyal Arif'
tp1296
a(S'100000133615738'
S'Ohbad Khan'
tp1297
a(S'551359777'
S'Ashhar Naeem'
tp1298
a(S'734094761'
S'Fazlur Rahman'
tp1299
a(S'814220486'
S'Faaiz Rasheed'
tp1300
a(S'1148627794'
S'Umair Ashfaq'
tp1301
a(S'100000316530707'
S'Tanmay Chandniwala'
tp1302
a(S'1679941199'
S'Rizwan Akthar'
tp1303
a(S'100000196484824'
S'Syed Hamza Hamid'
tp1304
a(S'100000299289893'
S'Nida Masood'
tp1305
a(S'507724701'
S'Salman Shahid'
tp1306
a(S'509402639'
S'Osama Zaman'
tp1307
a(S'742394873'
S'Asad Ghafoor'
tp1308
asS'id'
p1309
S'801160326'
p1310
sS'name'
p1311
S'Sobaan Ahmed Raja'
p1312
s.