(dp1
S'name'
p2
S'Jenny Leivadarou'
p3
sS'current_class'
p4
S'greece'
p5
sS'home_class'
p6
Vathens, greece
p7
sS'home_text'
p8
VAthens, Greece\u000aHometown
p9
sS'current_link'
p10
Vhttps://www.facebook.com/l.php?u=https%3A%2F%2Fwww.bing.com%2Fmaps%2Fdefault.aspx%3Fv%3D2%26pc%3DFACEBK%26mid%3D8100%26where1%3D52.208100590984%252C%2B0.12222290039062%26name%3DCambridge%252C%2BCambridgeshire%26mkt%3Den-IN&h=2AQFf-Unt&s=1
p11
sS'home_link'
p12
Vhttps://www.facebook.com/l.php?u=https%3A%2F%2Fwww.bing.com%2Fmaps%2Fdefault.aspx%3Fv%3D2%26pc%3DFACEBK%26mid%3D8100%26where1%3D37.966699961196%252C%2B23.715362548828%26name%3DAthens%252C%2BGreece%26mkt%3Den-IN&h=gAQETCLIc&s=1
p13
sS'current_text'
p14
VCambridge, Cambridgeshire\u000aCurrent City
p15
sS'friends'
p16
(lp17
(S'570872288'
S'Victoire de M\\u00e9nonville'
tp18
a(S'1035050736'
S'Mick SearMe Alex'
tp19
a(S'1023796420'
S'Kallintia Boura'
tp20
a(S'689525044'
S'Marta Zieba'
tp21
a(S'1081278848'
S'Alifragis Spyros'
tp22
a(S'594040158'
S'Na\\u00ebl ElBerkani'
tp23
a(S'1407491025'
S'Alekos Mpakostergios'
tp24
a(S'100000427386333'
S'Panagiotis Panos'
tp25
a(S'1384355020'
S'Themis Tsingos'
tp26
a(S'100000142168361'
S'Richmond Juvenile Ehwi'
tp27
a(S'100004419427259'
S'Kidart-popi Soulioti Farazi'
tp28
a(S'546007122'
S'Elena Georgalla'
tp29
a(S'767553705'
S'Tasos Pan'
tp30
a(S'1096790402'
S'Nick Katsigiannis'
tp31
a(S'1201566470'
S'Giwrgos Spanos'
tp32
a(S'661838361'
S'Michael Roth'
tp33
a(S'792640076'
S'Athina Pavlopoulou'
tp34
a(S'696498904'
S'Fotis Fotopoulos'
tp35
a(S'609719725'
S'Dave Sherwood'
tp36
a(S'1426170108'
S'George Goniadis'
tp37
a(S'626158616'
S'Pro Pan'
tp38
a(S'632682607'
S'Evelina  Kalaitzi'
tp39
a(S'1051002878'
S'Spyros Chatzivasileiou'
tp40
a(S'100000329613350'
S'Aris Kritsinis'
tp41
a(S'563346709'
S'Alexandros Drivelas'
tp42
a(S'580708405'
S'Vali Stergiou'
tp43
a(S'1158333374'
S'Haroula Vasilopoulou'
tp44
a(S'506161138'
S'Spyros Loucaides'
tp45
a(S'550546727'
S'Yi-Bin Woh'
tp46
a(S'1639491960'
S'Sofia Filippi Korre'
tp47
a(S'541258079'
S'Vassilis Marinos'
tp48
a(S'1118367673'
S'Loukas Voskakis'
tp49
a(S'1528741351'
S'Antonoglou Fani'
tp50
a(S'686248503'
S'Kyriaki Tsitsa'
tp51
a(S'744479462'
S'Dimitris Nakos'
tp52
a(S'1381638818'
S'Panagiotis Aggelis'
tp53
a(S'1079881965'
S'Konstantina Balafouti'
tp54
a(S'1195835282'
S'George Mitsas'
tp55
a(S'1006890091'
S'Manos Kasselakis'
tp56
a(S'581739817'
S'Alexandra Bonou'
tp57
a(S'708827622'
S'Stavros Lisgaras'
tp58
a(S'1462178461'
S'Lenas George'
tp59
a(S'645466579'
S'Aglaia Katsigianni'
tp60
a(S'1185042825'
S'Della Dionysioti'
tp61
a(S'61014311'
S'Koa Heaukulani'
tp62
a(S'100003033958247'
S'\\u03a7\\u03b5\\u03b9\\u03c1\\u03bf\\u03c0\\u03bf\\u03af\\u03b7\\u03c4\\u03b5\\u03c2 \\u0394\\u03b7\\u03bc\\u03b9\\u03bf\\u03c5\\u03c1\\u03b3\\u03af\\u03b5\\u03c2'
tp63
a(S'100000281500434'
S'Paulos Mamalos'
tp64
a(S'1407383486'
S'Mario Filip'
tp65
a(S'711766'
S'Antonis Vytiniotis'
tp66
a(S'623547321'
S'Hannah Al-Yousuf'
tp67
a(S'528052912'
S'Chris SkiesWanderer Mylonas'
tp68
a(S'1143948723'
S'Eugenia Gioka'
tp69
a(S'100000639763271'
S'Mathiou Anta'
tp70
a(S'822010105'
S'Manolis Tzeilanoglou'
tp71
a(S'1311267760'
S'Lavinia M. Amneris'
tp72
a(S'100001715808795'
S'Vsevolod Okin'
tp73
a(S'691534120'
S'Spyros Balomenos'
tp74
a(S'544864269'
S'Filippa Vassiliki'
tp75
a(S'1297371170'
S'Vassilis Verykios'
tp76
a(S'849185433'
S'Nikos Spinos'
tp77
a(S'606779912'
S'Katerina Momiji'
tp78
a(S'1426729204'
S'Giorgos Kapetanakis'
tp79
a(S'1387712908'
S'Despoina Mila'
tp80
a(S'1151282988'
S'Paul de Vries'
tp81
a(S'518588377'
S'Katerina Nikolaou'
tp82
a(S'1289223933'
S'Katerina Sideri'
tp83
a(S'1379743184'
S'Eva Lampara Evartist'
tp84
a(S'1253744507'
S'Olexiy Stetsiura'
tp85
a(S'100005884891482'
S'Gayatri Khemka'
tp86
a(S'1489794063'
S'Kostas Varkas'
tp87
a(S'100001271396311'
S'\\u039c\\u0391\\u03a4\\u0399\\u039d\\u0391 \\u0395.\\u039c.\\u03a0.'
tp88
a(S'560948102'
S'Giorgos Kondylias'
tp89
a(S'1784882050'
S'Athina V-Psy'
tp90
a(S'100000615942406'
S'Spiros Katsios'
tp91
a(S'100000408813280'
S'Valia Leodari'
tp92
a(S'1168971360'
S'Richard Janousek'
tp93
a(S'743395334'
S'Vasia Gonidi'
tp94
a(S'589603902'
S'Konstantinos Karvelis'
tp95
a(S'1126689343'
S'Maria Tsonioti'
tp96
a(S'665686101'
S'Danai Iss'
tp97
a(S'502144311'
S'Myrto Karapiperi'
tp98
a(S'601489768'
S'Christos Baltas'
tp99
a(S'100000570279685'
S'Chrysa Litina'
tp100
a(S'598471185'
S'Marios Kokolakis'
tp101
a(S'100001936374728'
S'Lorenzo Venturini'
tp102
a(S'504810160'
S'Alexandros Galatas'
tp103
a(S'1587502497'
S'\\u039c\\u0391\\u03a1\\u0399\\u0391 \\u0392\\u039f\\u03a1\\u0394\\u0397'
tp104
a(S'505565438'
S'Prue Hay'
tp105
a(S'1072549739'
S'Ion Koukouletsos'
tp106
a(S'584371449'
S'Eleni Stavrakantonaki'
tp107
a(S'100003941530468'
S'\\u0391\\u03bd\\u03b1\\u03c3\\u03c4\\u03b1\\u03c3\\u03af\\u03b1 \\u039a\\u03b1\\u03b4\\u03b4\\u03ac'
tp108
a(S'1010233547'
S'Andriana Kanelli'
tp109
a(S'100002079109853'
S'\\u0393\\u03b5\\u03c9\\u03c1\\u03b3\\u03b9\\u03b1 \\u039a\\u03b1\\u03c0\\u03bf\\u03b3\\u03b9\\u03b1\\u03bd\\u03bd\\u03b7'
tp110
a(S'100001739044953'
S'Ana Cohen'
tp111
a(S'1069269313'
S'Princess Consuela'
tp112
a(S'521859552'
S'Athina Brintaki'
tp113
a(S'1031403231'
S'Panagiotis Goulielmos'
tp114
a(S'536875650'
S'Costas Loukas'
tp115
a(S'1268990664'
S'Dimakos John'
tp116
a(S'100000587768111'
S'Vaios Alexandris'
tp117
a(S'519980701'
S'Evelyn Vondikaki'
tp118
a(S'1593273222'
S'Eleftheria Gousbasanioti'
tp119
a(S'1496784475'
S'Daskalakis Michalis'
tp120
a(S'1355736598'
S'Katerina Giannopoulou'
tp121
a(S'718142463'
S'Purav Shah'
tp122
a(S'100001175420094'
S'\\u039d\\u03b9\\u03ba\\u03bf \\u0392\\u03b1\\u03c3\\u03b9\\u03bb\\u03b7'
tp123
a(S'832024769'
S'Giorgos Barlas'
tp124
a(S'100003028600877'
S'\\u0395\\u03c5\\u03b7 \\u039d\\u03b1\\u03ba\\u03bf\\u03c5'
tp125
a(S'1791241421'
S'Maria Sfakiotaki'
tp126
a(S'1217992465'
S'Angelo Em'
tp127
a(S'762522170'
S'Dimitris Mavrogiorgis'
tp128
a(S'693852254'
S'Ioanna Moulan'
tp129
a(S'777656612'
S'Irini Spyratou'
tp130
a(S'746536234'
S'Akis Iliadis'
tp131
a(S'100000496691937'
S'Alexandra Kourakou'
tp132
a(S'100002243288642'
S'Katerina Kokoutsidi'
tp133
a(S'1572873822'
S'Stelios Perdikeas'
tp134
a(S'1203417880'
S'Yannis Korres'
tp135
a(S'1227647144'
S'Michael Tsougkranis'
tp136
a(S'1066631536'
S'Natasa Nikopoulou'
tp137
a(S'786059687'
S'Borbadonaki Mary'
tp138
a(S'1413404734'
S'Manouras Aristides'
tp139
a(S'614044099'
S'Dimitris Diamantakis'
tp140
a(S'1058693001'
S'\\u0392\\u03bf\\u03c5\\u03bb\\u03b1 \\u039b\\u03b5\\u03b9\\u03b2\\u03b1\\u03b4\\u03ac\\u03c1\\u03bf\\u03c5 \\u039d\\u03c4\\u03b1\\u03bd\\u03c4\\u03b1\\u03ba\\u03b7'
tp141
a(S'840713415'
S'\\u0395\\u03bb\\u03af\\u03b6\\u03b1 \\u0395\\u03bb\\u03b9\\u03c3\\u03ac\\u03b2\\u03b5\\u03c4 \\u03a3\\u03bf\\u03bb\\u03c9\\u03bc\\u03bf\\u03cd'
tp142
a(S'15709731'
S'Ioannis Christovasilis'
tp143
a(S'579443117'
S'Angelo Barbalios'
tp144
a(S'570291156'
S'Andreas Pagonides'
tp145
a(S'100000998003426'
S'\\u0392\\u0391\\u03a3\\u0399\\u039b\\u0397\\u03a3 \\u039b\\u0391\\u0396\\u0391\\u03a1\\u0399\\u0394\\u0397\\u03a3'
tp146
a(S'100006810721863'
S'Gloria Niu'
tp147
a(S'1235765'
S'Mich\\u00e1lis Vassil\\u00edou'
tp148
a(S'756706389'
S'Katerina Velimvasaki'
tp149
a(S'694212250'
S'Rory Macqueen'
tp150
a(S'1601058188'
S'Max Andratsch'
tp151
a(S'1163809123'
S'Padelis Kamarados'
tp152
a(S'100000254617364'
S'Dimitris Tsatsampas'
tp153
a(S'611932383'
S'George Papadakis'
tp154
a(S'681658374'
S'Stephen Cardinal'
tp155
a(S'1115142384'
S'Thanos Logothetis'
tp156
a(S'1024020893'
S'George Papadakis'
tp157
a(S'508684609'
S'Urvashi Khemka'
tp158
a(S'100000544587482'
S'Kelly Dalmira'
tp159
a(S'1533483822'
S'Stamatiou Stel'
tp160
a(S'568725669'
S'Popi Lorida'
tp161
a(S'1742358764'
S'Nikoletta Kalafatsi'
tp162
a(S'100003618164679'
S'Efi Sklapani'
tp163
a(S'581448387'
S'Anastasis Panousopoulos'
tp164
a(S'682655554'
S'James Domingo'
tp165
a(S'1069089348'
S'Sumesh Khanal'
tp166
a(S'708922194'
S'Oliver Rieche'
tp167
a(S'725636022'
S'Vasilis Vasilopoulos'
tp168
a(S'685435150'
S'Achilleas Kotidis'
tp169
a(S'100001839557074'
S'Rafia Murtaza'
tp170
a(S'1046568935'
S'Elsa Melina'
tp171
a(S'197818710'
S'Nikolas Maroukis'
tp172
a(S'100000548625823'
S'Paris Damigos'
tp173
a(S'100000564052159'
S'Elen Voudri'
tp174
a(S'588119338'
S'Livadarou Petroula'
tp175
a(S'524833587'
S'Lefteris Andypas'
tp176
a(S'100001126178055'
S'Nikoletta Xanthaki-alexiou'
tp177
a(S'800968451'
S'Sonja Kar'
tp178
a(S'702723304'
S'Poly Vangelatou'
tp179
a(S'1839516401'
S'Maria Alexiou'
tp180
a(S'568914382'
S'Andriani Avraam'
tp181
a(S'100001174551033'
S'Natasha Marmalidou'
tp182
a(S'741940545'
S'Veronica So'
tp183
a(S'665139655'
S'Irini Sakellari'
tp184
a(S'1497774735'
S'Christina Kekaki'
tp185
a(S'639364039'
S'Kotsialos Giorgos'
tp186
a(S'759103199'
S'Niki Kermani'
tp187
a(S'595716979'
S'Dimitrios Drivelas'
tp188
a(S'537721366'
S'Harris Fatouros'
tp189
a(S'548735294'
S'Ma\\u00ebl Guilhon'
tp190
a(S'717360939'
S'Riya Saxena'
tp191
a(S'727134247'
S'Abtomic Lth'
tp192
a(S'58003109'
S'Precy Kwan'
tp193
a(S'530786353'
S'Billy Kantartzis'
tp194
a(S'100002635374157'
S'Konstantinos Mastronikolas'
tp195
a(S'675703874'
S'Elena Sth'
tp196
a(S'1212404663'
S'Aggelika Kapagianni'
tp197
a(S'100000066315138'
S'Michael Kalafatas'
tp198
a(S'1208610472'
S'Pikounis Yiannis'
tp199
a(S'1105593527'
S'Zartar Zartaris'
tp200
a(S'797645533'
S'Varun Puri'
tp201
a(S'660181819'
S'Michalis Chondros'
tp202
a(S'100000899918304'
S'Konstantinos Karaloukas'
tp203
a(S'100000676054444'
S'Hlias Dimoulias'
tp204
a(S'1038621673'
S'Nek Nektar'
tp205
a(S'1021900696'
S'Kyriakos Soubasis'
tp206
a(S'1192383217'
S'Hara Georgatzi'
tp207
a(S'100000427271399'
S'Panas Cpt'
tp208
a(S'100004016580004'
S'Paige Martine Phelps'
tp209
a(S'1133041697'
S'Evi Psaltou'
tp210
a(S'661842934'
S'Melissa Wong'
tp211
a(S'609087331'
S'Kostas Tzavaras'
tp212
a(S'562450038'
S'Konstantinos Kyriakopoulos'
tp213
a(S'1494576992'
S'Thalia Mpalasa'
tp214
a(S'668724018'
S'Kleiw Lytra'
tp215
a(S'642912242'
S'Laura Douglas'
tp216
a(S'1136799129'
S'Panagiotis Tzanis'
tp217
a(S'100003159877272'
S'Georgios Athanassiadis'
tp218
a(S'100004540963018'
S'Ntina Mparmparigou'
tp219
a(S'100002509145470'
S'Michele Wrubel'
tp220
a(S'100005171443253'
S'Eva M\\u00fchlbacher'
tp221
a(S'638950435'
S'Panos Patsadas'
tp222
a(S'564716420'
S'Michael Alexander Anderson Burley'
tp223
a(S'1532886692'
S'Karaloukas Kostas'
tp224
a(S'766380746'
S'Thanasis Chantiridis'
tp225
a(S'674892841'
S'Vera Thea'
tp226
a(S'562844423'
S'Teo Papachristodoulou'
tp227
a(S'541311059'
S'Tim Xu'
tp228
a(S'100002329564488'
S'Manos Lapatas'
tp229
a(S'100001791757654'
S'Maria Lapidaki'
tp230
a(S'667879581'
S'Antonis Bakogiannis'
tp231
a(S'748056238'
S'Dimitris Giannakakis'
tp232
a(S'1271482456'
S'Angel Manetas'
tp233
a(S'761682155'
S'Kelly Krk'
tp234
a(S'817938469'
S'Sam Heffernan'
tp235
a(S'734928141'
S'Olga Antonatou'
tp236
a(S'1608819483'
S'Mara Kontopidi'
tp237
a(S'1179232149'
S'Dimitra Vallianatou'
tp238
a(S'812787158'
S'Marilena Gianniri'
tp239
a(S'1125589440'
S'Mpistintzanou Sophia'
tp240
a(S'100000864410341'
S'Giannis Xrisis'
tp241
a(S'1017633903'
S'Wilson A. Rodriguez'
tp242
a(S'536993500'
S'Anitnatsnwk Okoluauk'
tp243
a(S'1140084266'
S'Grigoris Dimitrakopoulos'
tp244
a(S'504032102'
S'Jorge Prombonas'
tp245
a(S'807337331'
S'Gina Kyriakopoulou'
tp246
a(S'100001040788690'
S'Thanasis Panopoulos'
tp247
a(S'100003533181144'
S'\\u0392\\u03b1\\u03b3\\u03b3\\u03b5\\u03bb\\u03b7\\u03c2 \\u039c\\u03c0\\u03b1\\u03ba\\u03b1\\u03c2'
tp248
a(S'545216416'
S'Kevin Kester'
tp249
a(S'100002932863509'
S'Myrto Aspioti'
tp250
a(S'615166738'
S'Yoanna Shams'
tp251
a(S'100002358574142'
S'\\u0391\\u03b8\\u03b1\\u03bd\\u03ac\\u03c3\\u03b9\\u03bf\\u03c2 \\u039c\\u03c0\\u03ac\\u03bc\\u03c0\\u03b1\\u03bb\\u03b7\\u03c2'
tp252
a(S'1133642439'
S'Christine Vassilogiannaki'
tp253
a(S'668509085'
S'Polina Samara'
tp254
a(S'671996338'
S'M\\u00e9lanie Gr\\u00e9aux'
tp255
a(S'100002826951217'
S'Sofi Bagdatoglou'
tp256
a(S'741685021'
S'Lp Mel'
tp257
a(S'594514425'
S'Apostolos Paslis'
tp258
a(S'100000147924931'
S'Panagiotis Andronikidis'
tp259
a(S'10109256'
S'Nick T\\u00f6berg'
tp260
a(S'1130138087'
S'Stavros Dragatakis'
tp261
a(S'1508132977'
S'Nikos Kotsalos'
tp262
a(S'1126037806'
S'Linda James John'
tp263
a(S'800932431'
S'Katerina Konstantinou'
tp264
a(S'1259070262'
S'Froso Deligianni'
tp265
a(S'720473760'
S'Liakopoulou Lina'
tp266
a(S'821239577'
S'Thales A. Tsailas'
tp267
a(S'645032512'
S'Diane Barlee'
tp268
a(S'676477491'
S'Christos Koinis'
tp269
a(S'100000200824916'
S'Giannhs Poluzos'
tp270
a(S'658105486'
S'Nita Ganguly'
tp271
a(S'1048788198'
S'Nikias Alexandrakis'
tp272
a(S'622542220'
S'\\u0391\\u03bd\\u03bd\\u03b1 \\u03a7\\u03c1'
tp273
a(S'100003803014064'
S'Valantis Gouvalis'
tp274
a(S'734433902'
S'Kollia Katerina'
tp275
a(S'1482641469'
S'Alexandra Georgakakou'
tp276
a(S'534850790'
S'Elias Zoidis'
tp277
a(S'588284876'
S'Vera Leont'
tp278
a(S'627946858'
S'Aysha Bagchi'
tp279
a(S'627958210'
S'Dionysis Zacharopoulos'
tp280
a(S'501715632'
S'Sandra Liliana Vel\\u00e1squez Alford'
tp281
a(S'100001356970100'
S'Konstantinos Kapetanakis'
tp282
a(S'579214256'
S'Dimos Bousounis'
tp283
a(S'734766690'
S'Alexia Stergiou'
tp284
a(S'611104052'
S'Alexandros Aggelopoulos'
tp285
a(S'1005507391'
S'Afroditi Ntitora'
tp286
a(S'549258712'
S'Miltos Gsxr'
tp287
a(S'100001440840186'
S'Kostas Kaldaridis'
tp288
a(S'589508914'
S'Spiros Lygdas'
tp289
a(S'578789343'
S'Spiros Sarmellas Sideris'
tp290
a(S'100001566820472'
S'Margarita Postavnicheva'
tp291
a(S'100001634898381'
S'Vasilios Tirokoulouras'
tp292
a(S'718110550'
S'Stefano Nino P'
tp293
a(S'506164217'
S'Antonis Panas'
tp294
a(S'1247598673'
S'Nasos Anagnostopoulos'
tp295
a(S'1536589472'
S'Andreas Mpoltas'
tp296
a(S'100001124924528'
S'Aristidis Tzitzokos'
tp297
a(S'647392328'
S'Vandinika Shukla'
tp298
a(S'658749300'
S'Kostas Zisis'
tp299
a(S'1178013807'
S'Tobias M\\u00fcller'
tp300
a(S'1598958045'
S'Kostoula Asmargianaki'
tp301
a(S'1246009882'
S'Spyros Gravias'
tp302
a(S'100001754983226'
S'Giannis Fotinakis'
tp303
a(S'100001582867597'
S'Donna Thalia'
tp304
a(S'650667758'
S'Stathis Kassios'
tp305
a(S'1154739903'
S'James Murphy'
tp306
a(S'1538582507'
S'Thilini Daranagama'
tp307
a(S'1643531476'
S'Sotiris Karachristos'
tp308
a(S'1095301751'
S'Atsalis Petros'
tp309
a(S'100001296053047'
S'Marina Alverti'
tp310
a(S'1071951486'
S'Niki Pylarinou'
tp311
a(S'1151075074'
S'Maria Tsekoura'
tp312
a(S'1016805768'
S'Stathis Argiropoulos'
tp313
a(S'1252804497'
S'Rao Peng'
tp314
a(S'1027665399'
S'Katerina Papamixahl'
tp315
a(S'100001741505392'
S'Alexandros Moraitis'
tp316
a(S'550010894'
S'Yannis Koutromanos'
tp317
a(S'1666124997'
S'Akis Karouzos'
tp318
a(S'1215947130'
S'Stefania Radopoulou'
tp319
a(S'757006066'
S'Alexandra Theodorou'
tp320
a(S'575233724'
S'Alexia Ksia'
tp321
a(S'533388078'
S'Pantelis Marougkas'
tp322
a(S'1306476912'
S'Tasos Mavromatidis'
tp323
a(S'768735576'
S'Angel Mellou'
tp324
a(S'100000789055208'
S'Dimitrios Tsolakos'
tp325
a(S'689377999'
S'Costis Sikiotis'
tp326
a(S'100002585621884'
S'\\u0391\\u03bd\\u03c4\\u03c1\\u03ad\\u03b1\\u03c2 \\u03a3\\u03c4\\u03c1\\u03b1\\u03c4'
tp327
a(S'100001281594050'
S'Giannis Nakos'
tp328
a(S'1282442000'
S'Markos Zoumboulakis'
tp329
a(S'100002428478485'
S'\\u039c\\u03b1\\u03c1\\u03ba\\u03bf\\u03c2 \\u039d\\u03b9\\u03ba\\u03b7\\u03c4\\u03b1\\u03ba\\u03b7\\u03c2'
tp330
a(S'1302768483'
S'Periklis Konstantinos Nanopoulos'
tp331
a(S'100000914442531'
S'Teodor Daniel'
tp332
a(S'1530406400'
S'Panos Nezos'
tp333
a(S'211666'
S'Dimitrios Kolios'
tp334
a(S'1642411841'
S'Tom Dowdall'
tp335
a(S'652872181'
S'Stratos Vougioukas'
tp336
a(S'100003793157924'
S'\\u03a7\\u03c1\\u03ae\\u03c3\\u03c4\\u03bf\\u03c2 \\u03a4\\u03bf\\u03c5\\u03c4\\u03bf\\u03c5\\u03bd\\u03c4\\u03b6\\u03ae\\u03c2'
tp337
a(S'510593241'
S'Julian Marwitz'
tp338
a(S'829685077'
S'Evdokia Papaioannou'
tp339
a(S'100007398811384'
S'\\u03b5\\u03c0\\u03b9\\u03c3\\u03ba\\u03b5\\u03c5\\u03b5\\u03c2 \\u03ba\\u03bf\\u03c3\\u03bc\\u03b7\\u03bc\\u03b1\\u03c4\\u03c9\\u03bd'
tp340
a(S'100005022277696'
S'Chloe Yueshuang Wei'
tp341
a(S'1154331675'
S'Konstantinos Ioannidis'
tp342
a(S'36922526'
S'Daniel Summerbell'
tp343
a(S'700800459'
S'Konstantinos Sip'
tp344
a(S'529874504'
S'Efi Mantziou'
tp345
a(S'625875403'
S'Themistoklis Stefanakis'
tp346
a(S'1342749976'
S'Liz Ginalis'
tp347
a(S'520350021'
S'George Tzogopoulos'
tp348
a(S'1091715695'
S'Nikas Konstantinos'
tp349
a(S'100000200301563'
S'Basilis Roumis'
tp350
a(S'1079059815'
S'Hristos Tyralis'
tp351
a(S'1147995612'
S'Niki Kyriazopoulou'
tp352
a(S'584392382'
S'Iris Dicke'
tp353
a(S'1129054002'
S'Gaucher Thiaby'
tp354
a(S'684260343'
S'Sotiris Skouloudis'
tp355
a(S'656692525'
S'Valeria Pace'
tp356
a(S'100000771564509'
S'\\u03a3\\u03c4\\u03b1\\u03bc\\u03ac\\u03c4\\u03b7\\u03c2 \\u039c\\u03b1\\u03c1\\u03af\\u03b1'
tp357
a(S'842992286'
S'Dora Skopa'
tp358
a(S'741931186'
S'\\u0395\\u03bb\\u03af\\u03bd\\u03b1 \\u039c\\u03b9\\u03b1\\u03bf\\u03cd\\u03bb\\u03b7'
tp359
a(S'687185358'
S'Salman Tahir'
tp360
a(S'1460931708'
S'Maria Koumoutsea'
tp361
a(S'1320517406'
S'Giannis Hristodoulakis'
tp362
a(S'540315929'
S'Joe Christopher'
tp363
a(S'100004047408757'
S'Maria Polyzou'
tp364
a(S'712300915'
S'Carol Canty'
tp365
a(S'708785786'
S'Tom Perry'
tp366
a(S'678147390'
S'Tasos Toutountzis'
tp367
a(S'677424225'
S'Marios Fivenarakis'
tp368
a(S'1531617914'
S'James Crampton'
tp369
a(S'1243986'
S'Giorgos St'
tp370
a(S'574721442'
S'Lui Lox'
tp371
a(S'515645954'
S'Miltos Peristeropoulos'
tp372
a(S'1119811535'
S'\\u03a3\\u03c4\\u03ad\\u03bb\\u03b9\\u03bf\\u03c2 \\u039a\\u03c5\\u03bc\\u03c0\\u03bf\\u03c5\\u03c1\\u03cc\\u03c0\\u03bf\\u03c5\\u03bb\\u03bf\\u03c2'
tp373
a(S'658664363'
S'Aimilia Dimitriou'
tp374
a(S'566054344'
S'Pantelis Mironidis'
tp375
a(S'100006348187050'
S'Chris Boultoumis'
tp376
a(S'706529999'
S'Maria Palla'
tp377
a(S'583947235'
S'Konstantinos Kalomoiris'
tp378
a(S'1340167434'
S'Xanthopoulou Anastasia'
tp379
a(S'100001666987252'
S'Makis Pudzianowski'
tp380
a(S'1193662746'
S'Maria Bokou'
tp381
a(S'1224606238'
S'Neoklis Mantas'
tp382
a(S'1358691768'
S'Popi Stefou'
tp383
a(S'835816257'
S'Spyros Bethanis'
tp384
a(S'100003955362876'
S'Theo Voulgarakis'
tp385
a(S'100000879654863'
S'Haiyao Dai'
tp386
a(S'655031751'
S'Apostolis Kapsalis'
tp387
a(S'506969400'
S'Gregory Kampas'
tp388
a(S'1016815721'
S'Mitchell Winkie'
tp389
a(S'660779503'
S'Vitorakis Giorgos'
tp390
a(S'850845596'
S'Vanshica Kant'
tp391
a(S'560641196'
S'Ilias Lympe'
tp392
a(S'100002882845123'
S'Odysseas Elitis'
tp393
a(S'506815354'
S'Bosco Yu'
tp394
a(S'100002996707917'
S'Christina Vaso'
tp395
a(S'1091223486'
S'Agis Kamnitsis'
tp396
a(S'644554851'
S'Joe Voriadakis'
tp397
a(S'1421419765'
S'\\u03a6\\u03af\\u03bb\\u03b9\\u03c0\\u03c0\\u03bf\\u03c2 \\u0394\\u03ac\\u03c0\\u03c0\\u03b1\\u03c2'
tp398
a(S'624466108'
S'Nikolaus Konstantin'
tp399
a(S'581681743'
S'Kallia Up'
tp400
a(S'100002516687261'
S'Damien Arnol'
tp401
a(S'532318954'
S'Kimon Fioretos'
tp402
a(S'1652294375'
S'Daniel L\\u00f3pez Mart\\u00ednez'
tp403
a(S'197804909'
S'Amanda Holden'
tp404
a(S'100006760145796'
S'\\u0393\\u03b9\\u03b1\\u03bd\\u03bd\\u03b7\\u03c2 \\u0391\\u03c0\\u03bf\\u03c3\\u03c4\\u03bf\\u03bb\\u03b9\\u03b4\\u03b7\\u03c2'
tp405
a(S'100003753901450'
S'Ephrosini Kats'
tp406
a(S'100008163850516'
S"'\\u039b\\u03b7\\u03b4\\u03b1 \\u039b\\u03b5\\u03b9'"
tp407
a(S'579538104'
S'Dumbland Than'
tp408
a(S'670653399'
S'Lena Lytra'
tp409
a(S'1250953084'
S'Pablo Salas'
tp410
a(S'1561732953'
S'Irini Constantinou'
tp411
a(S'1234427'
S'Tasos Nikoleris'
tp412
a(S'670198300'
S'Eleni Christofa'
tp413
a(S'100007109256805'
S'\\u03a6\\u03bb\\u03ce\\u03c1\\u03b1 \\u03a4\\u03bf\\u03c5\\u03c4\\u03bf\\u03c5\\u03bd\\u03c4\\u03b6\\u03ae'
tp414
a(S'583434697'
S'Max Schneider'
tp415
a(S'100002051313105'
S'Maria Papa'
tp416
a(S'510000940'
S'Josh Franklin'
tp417
a(S'277700187'
S'Gareth Hewer'
tp418
a(S'1204080098'
S'Dimitris Anastasiou'
tp419
a(S'551515651'
S'Thodoris Lyvis'
tp420
a(S'579759511'
S'Fay Longinidou'
tp421
a(S'100003975847592'
S'Argyro Bormpantonaki'
tp422
a(S'1043220377'
S'Cassi Henderson'
tp423
a(S'1068562608'
S'Jonathan Beck'
tp424
a(S'564761946'
S'Despoina Rigaki'
tp425
a(S'100001993921807'
S'Pepi Sourtzi'
tp426
a(S'1610829943'
S'Rita Lada'
tp427
a(S'1073142095'
S'Teo XD'
tp428
a(S'516084017'
S'Dimitris Kalyvas'
tp429
a(S'535218826'
S'Alexandros Kalos'
tp430
a(S'1416535146'
S'Christine Ginalis'
tp431
a(S'1465398617'
S'Michalis Athanasiou'
tp432
a(S'1353300082'
S'Agne Ona'
tp433
a(S'570795059'
S'Nicolas Georgiou'
tp434
a(S'100002901051845'
S'Andreas Papadopoylos'
tp435
a(S'1032500152'
S'Kelly Pyrpyli'
tp436
a(S'1245106345'
S'Antigone Karras'
tp437
a(S'501337375'
S'Nicholas Worsley'
tp438
a(S'694377078'
S'Alex Tsouknidas'
tp439
a(S'1256497162'
S'Ioulia Georgouli'
tp440
a(S'1183016136'
S'Panagis Aidinis'
tp441
a(S'531782043'
S'Elena Evangelidou'
tp442
a(S'501549771'
S'Shachi Amdekar'
tp443
a(S'100002872850446'
S'\\u03a6\\u03c9\\u03c4\\u03b5\\u03b9\\u03bd\\u03b7 \\u039b\\u03b5\\u03b9\\u03b2\\u03b1\\u03b4\\u03b1\\u03c1\\u03bf\\u03c5'
tp444
a(S'610265242'
S'Christina Palogou'
tp445
a(S'100001227099721'
S'Yaqiao Wu'
tp446
a(S'567661310'
S'Maria Kalfakis'
tp447
a(S'1277407904'
S'Xin Liu'
tp448
a(S'691478051'
S'Amerissa Basta'
tp449
a(S'710904726'
S'Aggelos Aggelidis'
tp450
a(S'1372551221'
S'Federico Prina'
tp451
a(S'556811263'
S'Andreas Amaliada Pap'
tp452
a(S'1629780006'
S'Andrew Sydor'
tp453
a(S'1405842633'
S'Leventaki Hara'
tp454
a(S'747978665'
S'Edu Rodr\\u00edguez Arbol\\u00ed'
tp455
a(S'1623995381'
S'Danae Lavidas'
tp456
a(S'663212042'
S'Panagiotis Konstandelos'
tp457
a(S'1640604094'
S'Dimitra M A D-zorou'
tp458
a(S'100003013143521'
S'Tziz Bar'
tp459
a(S'1323276893'
S'Giannhs Vrachliotis'
tp460
a(S'711212'
S'Nikos Kontopoulos'
tp461
a(S'664543905'
S"Stephanie O'Donnell"
tp462
a(S'1646103828'
S'Camilla Hodgson'
tp463
a(S'37003310'
S'Sofie Petersen-Overleir'
tp464
a(S'1028094530'
S'Chris Nikiforos Hoonigan'
tp465
a(S'1241114486'
S'Tom Watkins'
tp466
a(S'516685349'
S'Kyae Lim K'
tp467
a(S'100000436536143'
S'Syllogos Panourgias'
tp468
a(S'100001907720527'
S'\\u0399\\u03bd\\u03c3\\u03c4\\u03b9\\u03c4\\u03bf\\u03cd\\u03c4\\u03bf \\u039f\\u03b9\\u03ba\\u03bf\\u03bd\\u03bf\\u03bc\\u03af\\u03b1\\u03c2 \\u039a\\u03b1\\u03c4\\u03b1\\u03c3\\u03ba\\u03b5\\u03c5\\u03ce\\u03bd'
tp469
a(S'640342473'
S'Emmy Gabriel'
tp470
a(S'1067500865'
S'Dimitris Kailis'
tp471
a(S'506546188'
S'Alexander-James Hawken'
tp472
a(S'682833243'
S'Yannis Lgk'
tp473
a(S'637574475'
S'Lucie Chatelain'
tp474
a(S'576055183'
S'Valentina Ipsou \\u30c5'
tp475
a(S'100001630272333'
S'Fotini Kara'
tp476
a(S'100000365157987'
S'Vanna Kekatou'
tp477
a(S'560067415'
S'Lne Karatsiwri'
tp478
a(S'1570708090'
S'Allen Crampton'
tp479
a(S'1092909928'
S'Dina Gerasimou'
tp480
a(S'667766067'
S'Aris Psarras'
tp481
a(S'586969684'
S'Vassia Fouassi'
tp482
a(S'100000384542579'
S'Vasilis Zelkas'
tp483
a(S'767625383'
S'Axel Waitforit Kapogiannis'
tp484
a(S'100000542430926'
S'Mihalis Gk'
tp485
a(S'1145196668'
S'Mary Efstathiou'
tp486
a(S'641324653'
S'Vassia Lalla'
tp487
a(S'1180655864'
S'Despoina Hantzi'
tp488
a(S'1776925149'
S'Stefanos Samios'
tp489
a(S'100003173112322'
S'Elisavet Christou'
tp490
a(S'630659933'
S'Aris Mikroutsikos'
tp491
a(S'576724146'
S'Elionel Martinez'
tp492
a(S'1253689687'
S'Elenh Mparla'
tp493
a(S'731346641'
S'Kostas Chatzifotis'
tp494
a(S'734206349'
S'Valia Astrinaki'
tp495
a(S'581417823'
S'Thodwris Alexopoulos'
tp496
a(S'1079322910'
S'Themis Nakos'
tp497
a(S'609737700'
S'Mary Klonou'
tp498
a(S'576117857'
S'Despina Balaska'
tp499
a(S'675199953'
S'\\u039d\\u0399\\u039a\\u039f\\u03a3 \\u0394\\u0391\\u039b\\u0399\\u0395\\u03a4\\u039f\\u03a3'
tp500
a(S'683865612'
S'Myron Loulakis'
tp501
a(S'792510003'
S'Edwrd Hrt'
tp502
a(S'1158320565'
S'Babis Themelakis'
tp503
a(S'100000023414711'
S'Vanoozz Princezz'
tp504
a(S'681595910'
S'Georgia Leventaki'
tp505
a(S'100001461154787'
S'Alina Kotsaki'
tp506
a(S'1417030098'
S'Sofia Katsaiti'
tp507
a(S'598633073'
S'\\u03a0\\u03ac\\u03bd\\u03bf\\u03c2 \\u039a\\u03bf\\u03cd\\u03c0\\u03b1\\u03c2-\\u0391\\u03c0\\u03bf\\u03c3\\u03c4\\u03bf\\u03bb\\u03af\\u03b4\\u03b7\\u03c2'
tp508
a(S'1367963157'
S'Katerina Tselika'
tp509
a(S'1393825411'
S'Sotiris Anastas'
tp510
a(S'100002082650738'
S'Alexandros Pantelias'
tp511
a(S'100003803796870'
S'Astrapogiannos Giakoumogiannakis'
tp512
a(S'1082337349'
S'Erica Bottacin'
tp513
a(S'1108527794'
S'Roula Giazitzi'
tp514
a(S'623129982'
S'Mary Kafesaki'
tp515
a(S'1389995338'
S'Nikos Tsiapis'
tp516
a(S'659254247'
S'Fragiskos Zanios'
tp517
a(S'609114105'
S'Manos Drakopoulos'
tp518
a(S'563410449'
S'Athanasios Papadakos'
tp519
a(S'543926996'
S'Vaishali Sinha'
tp520
a(S'1102881454'
S'Alexandros Bairaktaris'
tp521
a(S'100000151882468'
S'Andreas Hoxha'
tp522
a(S'721089283'
S'Elli Kotina'
tp523
a(S'1046565762'
S'Chrisa Salut'
tp524
a(S'1270561897'
S'Vicky Ntai'
tp525
a(S'590753645'
S'Kostas Migiakis'
tp526
a(S'100001925537774'
S'Eleni Gkeskou'
tp527
a(S'1161604977'
S'George Pantelakis'
tp528
a(S'634517066'
S'Ioannis Deligiannopoulos'
tp529
a(S'853750330'
S'Evan V Goldstein'
tp530
a(S'1065957527'
S'Yiannis Dikaros'
tp531
a(S'1223418194'
S'Vagelis Rembelos'
tp532
a(S'100002648608749'
S'Alexandros Bailas'
tp533
a(S'745703704'
S'Saverio Sciandrello'
tp534
a(S'591919827'
S'Kapetanas Stratos'
tp535
a(S'650381415'
S'Panos Kapsalis'
tp536
a(S'646165401'
S'Ilektra-Georgia Apostolidou'
tp537
a(S'616466431'
S'Eric Lensink'
tp538
a(S'520361525'
S'Lucas Gkagkaris'
tp539
a(S'562165335'
S'Dimitris Chouman'
tp540
a(S'1388915821'
S'Natasa Kalivretaki'
tp541
a(S'560312836'
S'Narkis Alon'
tp542
a(S'729998369'
S'Argyris Zymnis'
tp543
a(S'512202197'
S'Allegra Fryxell'
tp544
a(S'1059049914'
S'Anima Nefeli'
tp545
a(S'1631630638'
S'Manu Signer'
tp546
a(S'1371721582'
S'Makis Koukos'
tp547
a(S'1322580379'
S'Panagiotis Tsakanakis'
tp548
a(S'724580815'
S'Yorgos Mi'
tp549
a(S'100004749241648'
S'Ioannis Karabatsos'
tp550
a(S'1062564661'
S'Sofia Spyrea'
tp551
a(S'755602906'
S'Thomas Kolezas'
tp552
a(S'100007258683832'
S'Kostas Argiropoulos'
tp553
a(S'1602790746'
S'Marina Toutountzi'
tp554
a(S'717221935'
S'Emmanouela Iakovidou'
tp555
a(S'100001171722227'
S'Shruti Dhaundiyal'
tp556
a(S'1619142107'
S'Panagiotis Georgosopoulos'
tp557
a(S'1216434479'
S'Klairy Sp'
tp558
a(S'1792404639'
S'Aris Tegos'
tp559
a(S'725887112'
S'Vaggelis Katsoulas'
tp560
a(S'1060771400'
S'Ilias Katritsis'
tp561
a(S'100000913632464'
S'Mara Solomou'
tp562
a(S'1038393638'
S'Joanna Vamvakidou'
tp563
a(S'1031138314'
S'Constantinos Christidis'
tp564
a(S'1544317195'
S'Michail Ntzivanakis'
tp565
a(S'1028887339'
S'Dimitris Menoudakos'
tp566
a(S'614561494'
S'Alexandre Calament'
tp567
a(S'1383766097'
S'Giorgos Tsoumas'
tp568
a(S'508257975'
S'Charlie Stokes'
tp569
a(S'100006494978190'
S'Imogene Craig'
tp570
a(S'1528647972'
S'Ntouf Elen'
tp571
a(S'1185444268'
S'St Vasso'
tp572
a(S'1050372093'
S'Alexandra Garoni'
tp573
a(S'100000285303819'
S'Dimitris Diamantis'
tp574
a(S'799847655'
S'Giannis Bakopoulos'
tp575
a(S'705944190'
S'Antonia Trikalioti'
tp576
a(S'100001285412212'
S'Giorgos Christou'
tp577
a(S'679359129'
S'Phaedra Lavidas'
tp578
a(S'809254768'
S'Paris Geronimo'
tp579
a(S'1246667530'
S'Andreas Kritikos'
tp580
a(S'527233144'
S'Panagiwtis Kripouris'
tp581
a(S'726733716'
S'Mike Bonanza'
tp582
a(S'1326649612'
S'Panos Bianconeri'
tp583
a(S'1165602852'
S'Maglaras Thodoris'
tp584
a(S'1503645455'
S'\\u03a0\\u03b1\\u03bd\\u03b1\\u03b3\\u03b9\\u03ce\\u03c4\\u03b1 \\u039c\\u03b7\\u03c4\\u03c1\\u03ac\\u03ba\\u03bf\\u03c5'
tp585
a(S'767972947'
S'Nkos Magkos'
tp586
a(S'527632232'
S'Fernando Bucheli'
tp587
a(S'663426092'
S'Donald Bogle'
tp588
a(S'1622384496'
S'Natalie Gonou'
tp589
a(S'205219'
S'Liz Dzeng'
tp590
a(S'1032546538'
S'Fla Vien'
tp591
a(S'1016921332'
S'Katerina Papadopoulou'
tp592
a(S'672055813'
S'Antoine Kauffer'
tp593
a(S'1247813337'
S'Michalis Kostas'
tp594
a(S'1151128054'
S'Petrakis Kostas'
tp595
a(S'1722111062'
S'Radhika Mehra'
tp596
a(S'650162555'
S'Dimitris Karanastasis'
tp597
a(S'1113218734'
S'Anestis Spiliotis'
tp598
a(S'1198205806'
S'Yiannis Vasilakos'
tp599
a(S'655462853'
S'Katerina Delegou'
tp600
a(S'1228082362'
S'Evaggelos Pits'
tp601
a(S'712524665'
S'Johannes Teuer'
tp602
a(S'100002228678965'
S'Deby Ilia'
tp603
a(S'1175771840'
S'Sonia Spitzer'
tp604
a(S'1505672415'
S'Apostolaki Giouli'
tp605
a(S'809655561'
S'Filippis George'
tp606
a(S'100001776531852'
S'\\u0394\\u03b9\\u03ac\\u03c3\\u03b7\\u03bc\\u03b1 \\u03a4\\u03b1\\u03be\\u03af\\u03b4\\u03b9\\u03b1'
tp607
a(S'559501390'
S'Emma J Browne'
tp608
a(S'100002573777966'
S'Lefteris Trilivas'
tp609
a(S'682921593'
S'Kirsty Alexis Hartmann'
tp610
a(S'1314048396'
S'Katerina Katsikosta'
tp611
a(S'1542650285'
S'Panos Barkas'
tp612
a(S'1666255384'
S'Lefteris Triantafyllakis'
tp613
a(S'743598033'
S'Akis Theodosiou'
tp614
a(S'1193827855'
S'Dora Karamanidou'
tp615
a(S'1050716623'
S'George Mantzoros'
tp616
a(S'527216738'
S'Tuney Zinnat'
tp617
a(S'820932382'
S'Sissy Chlomisiou'
tp618
a(S'683295127'
S'Angelos Iliopoulos'
tp619
a(S'542846080'
S'Jun-Han Su'
tp620
a(S'1654422459'
S'Nora Moraiti'
tp621
a(S'1116134691'
S'Vicky Tsoukala'
tp622
a(S'100000064784205'
S'Ashley Armstrong'
tp623
a(S'100004846442728'
S'Dimitris Chronopoulos'
tp624
a(S'1460121998'
S'\\u0395\\u03ba\\u03c0\\u03bf\\u03bb\\u03b9\\u03c4\\u03b9\\u03c3\\u03c4\\u03b9\\u03ba\\u03bf\\u03c2 \\u03a0\\u03b1\\u03bd\\u03bf\\u03c5\\u03c1\\u03b3\\u03b9\\u03b1'
tp625
a(S'702008218'
S'Lilis Dimitris'
tp626
a(S'1305670708'
S'Tsampoukou Eleni'
tp627
a(S'100000216907854'
S'Rolands Kromanis'
tp628
a(S'665063047'
S'Alex Mallios'
tp629
a(S'666624568'
S'Maria Nia'
tp630
a(S'546547718'
S'Dida Dourida'
tp631
a(S'624070388'
S'Charmaine Ng'
tp632
a(S'697555196'
S'Lakiotis Theodore'
tp633
a(S'1202801091'
S'George Gravias'
tp634
a(S'100002272855349'
S'Arte Povera'
tp635
a(S'1256925807'
S'Maria Laina'
tp636
a(S'720515293'
S'Nicolas Zbinden'
tp637
a(S'100000765053668'
S'Giannis Papakwnstantinou'
tp638
a(S'1501498064'
S'Evaggelia Evmorfopoulou'
tp639
a(S'1257732180'
S'John C Graybill II'
tp640
a(S'100000276815966'
S'Nailya Shamgunova'
tp641
a(S'100006327403063'
S'Patrick Cannon'
tp642
a(S'847069449'
S'Pit Pan'
tp643
a(S'1204509486'
S'George Kofteros'
tp644
a(S'277701914'
S'Clara Melluish'
tp645
a(S'61104162'
S'Ed Barsley'
tp646
a(S'100000181734772'
S'\\u03a3\\u03a4\\u0391\\u03a5\\u03a1\\u039f\\u03a5\\u039b\\u0391 \\u039a\\u03a5\\u03a1\\u0399\\u0391\\u039a\\u0391\\u039a\\u0397'
tp647
a(S'5411499'
S'Erela Dana'
tp648
a(S'1009862225'
S'George Manesiotis'
tp649
a(S'504389878'
S'Dimitris Psarris'
tp650
a(S'647210721'
S'Antonis Makrynikas'
tp651
a(S'1217792477'
S'Yiannis-Mariela Arte Povera'
tp652
a(S'576587008'
S'Haroula Georgakopoulou'
tp653
a(S'586421089'
S'Katerina Blg'
tp654
a(S'100002645479161'
S'Alexandra Cooper-McLeod'
tp655
a(S'688933789'
S'Touf Kostis'
tp656
a(S'774022179'
S'Theano Mantouvalou Papathanassiou'
tp657
a(S'783620039'
S'Angela Dimakogianni'
tp658
a(S'808760256'
S'Cindy S. Y. Chang'
tp659
a(S'100002485639047'
S'Adi Altschuler'
tp660
a(S'724358073'
S'Emil Ivanov'
tp661
a(S'100004790291241'
S'Lynna Martin'
tp662
a(S'654659745'
S'Spiros Gelekis'
tp663
a(S'1172017163'
S'\\u0393\\u03b9\\u03ce\\u03c4\\u03b1 \\u039c\\u03b7\\u03c4\\u03c1\\u03bf\\u03c0\\u03bf\\u03cd\\u03bb\\u03bf\\u03c5'
tp664
a(S'100000603892276'
S'Bonnie Davis Robertson'
tp665
a(S'685345261'
S'Maria Nikolaidi'
tp666
a(S'100001141862645'
S'Evangelos Ntalas'
tp667
a(S'100000509404068'
S'Sophia Palermos'
tp668
a(S'755698403'
S'Antonis Matsouris'
tp669
a(S'1239039078'
S'Giouli Mantzavinou'
tp670
a(S'767988328'
S'Dimitris Opsimoulis'
tp671
a(S'100000634882853'
S'\\u0388\\u03c6\\u03b7 \\u039a\\u03bf\\u03c5\\u03c4\\u03c1\\u03ac\\u03ba\\u03b7'
tp672
a(S'100003118437262'
S'Gianna Kou'
tp673
a(S'680197132'
S'Kyrios Stefanos Gateley'
tp674
a(S'799828916'
S'Aggelos Papadimitriou'
tp675
a(S'1193220686'
S'Irini Klini'
tp676
a(S'527156087'
S'Stefanos Tsimpourakis'
tp677
a(S'100000876842238'
S'\\u0397\\u03bb\\u03af\\u03b1\\u03c2 \\u039a\\u03c9\\u03bd\\u03c3\\u03c4\\u03b1\\u03bd\\u03c4\\u03b9\\u03bd\\u03af\\u03b4\\u03b7\\u03c2'
tp678
a(S'782684058'
S'Elena Vs'
tp679
a(S'100000338626535'
S'Kostas Toumpouros'
tp680
a(S'1446386990'
S'Konstantinos Mastrokostopoulos'
tp681
a(S'526557818'
S'Eliana Abravanel'
tp682
a(S'833168971'
S'Aliki Smerou-Emmanouil'
tp683
a(S'673286442'
S'Christina Nezi'
tp684
a(S'643922479'
S'Zografos Panos'
tp685
a(S'1812623672'
S'Marialena Athanasiou'
tp686
a(S'100000293918502'
S'Burhan Awan'
tp687
a(S'1217348734'
S'Tina Patargia'
tp688
a(S'756143994'
S'\\u0394\\u03b7\\u03bc\\u03ae\\u03c4\\u03c1\\u03b7\\u03c2 \\u03a7\\u03b1\\u03c4\\u03b6\\u03b7\\u03b1\\u03bd\\u03b4\\u03c1\\u03ad\\u03bf\\u03c5'
tp689
a(S'608093347'
S'Mary Borbadonaki'
tp690
a(S'100001830024726'
S'Bhavani Khemka'
tp691
a(S'559861980'
S'Panagiotis Katsouras'
tp692
a(S'1041515510'
S'\\u03a3\\u03c9\\u03c4\\u03ae\\u03c1\\u03b7\\u03c2 \\u03a0\\u03ad\\u03c4\\u03c1\\u03bf\\u03c5'
tp693
a(S'720145638'
S'Maria KP'
tp694
a(S'785944604'
S'Nikos Synodinos'
tp695
a(S'100000492990804'
S'Karouzos Manos'
tp696
a(S'768082998'
S'Athena Liaskou'
tp697
a(S'100004510422547'
S'M.r. Rangaswami'
tp698
a(S'786052367'
S'Argiris Mamas'
tp699
a(S'745415990'
S'\\u0391\\u03b3\\u03b3\\u03b5\\u03bb\\u03bf\\u03c2 \\u039a\\u03c1\\u03b5\\u03bf\\u03c5\\u03b6\\u03b7\\u03c2'
tp700
a(S'852414903'
S'Apostolos Ntokos'
tp701
a(S'100006685446935'
S'\\u03a6\\u03b1\\u03af\\u03b7 \\u039a\\u03c9\\u03bd\\u03c3\\u03c4\\u03b1\\u03bd\\u03c4\\u03b9\\u03bd\\u03af\\u03b4\\u03bf\\u03c5'
tp702
a(S'658692248'
S'Dimitris Klf'
tp703
a(S'709398282'
S'Simon Cooper'
tp704
a(S'36919809'
S'Will Sellors'
tp705
a(S'100003699432213'
S'Xrysalia Listarxina'
tp706
a(S'100002607757519'
S'Liana Kontova'
tp707
a(S'1482555560'
S'\\u039a\\u03b1\\u03c4\\u03b5\\u03c1\\u03af\\u03bd\\u03b1 \\u039a\\u03b1\\u03bb\\u03bf\\u03b3\\u03b5\\u03c1\\u03bf\\u03c0\\u03bf\\u03cd\\u03bb\\u03bf\\u03c5'
tp708
a(S'100001765541414'
S'Alex Georgopulos'
tp709
a(S'1049051106'
S'Nikos Karpathakis'
tp710
a(S'516862430'
S'Andreas Papakonstantinou'
tp711
a(S'1261771580'
S'Kuriakos Theodosiou'
tp712
a(S'1481220550'
S'Adda Michopoulou'
tp713
a(S'8850678'
S'Arjune Shukla'
tp714
a(S'1140947680'
S'Stavros Dragatakis'
tp715
a(S'519767947'
S'Christos Karakostas'
tp716
a(S'1432545407'
S'Alexandros Papadakis'
tp717
a(S'543349843'
S'Vassilia Girvalaki'
tp718
a(S'595582020'
S'Meli Marin'
tp719
a(S'684593596'
S'Zhibin Simon Xian'
tp720
a(S'1017686290'
S'Dimitris Karantonis'
tp721
a(S'657241664'
S'Stavriella Patta'
tp722
a(S'36912745'
S'Perla Sousi'
tp723
a(S'1520875333'
S'Mixalis Tsamis'
tp724
a(S'503126836'
S'Claire Hume'
tp725
a(S'1229975852'
S'George Gioldasis'
tp726
a(S'832196737'
S'Dimitris Beslemes'
tp727
a(S'526212980'
S'Eutuxia Liantza'
tp728
a(S'687979269'
S'Maria Coutromanos'
tp729
a(S'783578307'
S'Anastasis Zannias'
tp730
a(S'722485248'
S'Monica Kaminska'
tp731
a(S'100000552476540'
S'Veronica Mas'
tp732
a(S'1292220304'
S'Nick Flokis'
tp733
a(S'663454629'
S'Il James'
tp734
a(S'100000830327298'
S'Fanny Yuen'
tp735
a(S'526934226'
S'Bill Megalos'
tp736
a(S'574795778'
S'Maria Kal'
tp737
a(S'649342786'
S'Polina Ceastuhina'
tp738
a(S'100000632247321'
S'Betty Veliou'
tp739
a(S'100000724324667'
S'Papa Loum'
tp740
a(S'1638052722'
S'\\u03a3\\u03bf\\u03cd\\u03bb\\u03b1 \\u03a0\\u03b1\\u03c0\\u03b1\\u03b4\\u03ac\\u03ba\\u03b7'
tp741
a(S'1302664553'
S'Gargeros George'
tp742
a(S'1297023929'
S'Bagia Kats.'
tp743
a(S'721688980'
S'Maria Klini'
tp744
a(S'671345262'
S'Maria Anagnosti'
tp745
a(S'782227437'
S'Foivos Zaharopoulos'
tp746
a(S'609634903'
S'Panagiotis Manikas'
tp747
a(S'691316628'
S'Magna Casa'
tp748
a(S'1255165249'
S'Christos Nirakar'
tp749
a(S'823119845'
S'Kirykos Papaioannou'
tp750
a(S'529807955'
S'Diana Spehar'
tp751
a(S'1638118233'
S'Felix S. K Agyemang'
tp752
a(S'1146235495'
S'Ivan Nicolajevic'
tp753
a(S'1667670004'
S'Francis Mathieu'
tp754
a(S'538299263'
S'Nikos Yfantis'
tp755
a(S'906690432'
S'Makis Vrantsis'
tp756
a(S'664840996'
S'Ianthi Karachaliou'
tp757
a(S'100000089950574'
S'Wilson Chen'
tp758
a(S'100003108540301'
S'Nvzh Garcia'
tp759
a(S'1429131801'
S'Franca Maura'
tp760
a(S'545326654'
S'Ersilia Alecou'
tp761
a(S'526195965'
S'Irene Xenakis'
tp762
a(S'619259476'
S'Giorgos Xristodoulias'
tp763
a(S'100006090904448'
S'Dimitris Dimitriadis'
tp764
a(S'1047542255'
S'Theocharis Marinos'
tp765
a(S'1364603388'
S'Katerina Antonopoulou'
tp766
a(S'1618557269'
S'Makis Aggeletakis'
tp767
a(S'1066106625'
S'Psarros Stelios'
tp768
a(S'1075489432'
S'Nick Fourlopoulos'
tp769
a(S'666599185'
S'Vasilis Alexakis'
tp770
a(S'509160876'
S'Marcus Nicolaides'
tp771
a(S'703274975'
S'Alexandros Nikitas'
tp772
a(S'809205277'
S'Dimitris Dimitreas'
tp773
a(S'1193327706'
S'Giannis Tou MPalarinovasili'
tp774
a(S'644559373'
S'Laure Berthier'
tp775
a(S'100000128980747'
S'Jiannis Melas'
tp776
a(S'779788840'
S'Maria Ploumaki'
tp777
a(S'728177344'
S'Michalis Dardougias'
tp778
a(S'503954215'
S'Anna McConnell'
tp779
a(S'1204750519'
S'Dimitris Menounos'
tp780
a(S'1101407765'
S'Harry Pashardis'
tp781
a(S'559428397'
S'Konstantinos Kostas'
tp782
a(S'1262794090'
S'Dimitris Tsakalomatis'
tp783
a(S'671273262'
S'Giorgos Benekos'
tp784
a(S'100000399557329'
S'Doudou Gueye'
tp785
a(S'1116105126'
S'Chrisa Christofi'
tp786
a(S'1125175984'
S'Andreas Katsaros'
tp787
a(S'673201304'
S'Danai Dimakogianni'
tp788
a(S'1750291068'
S'Klaidi Mi'
tp789
a(S'586320302'
S'Evi Blg'
tp790
a(S'1219781938'
S'George Kavourakis'
tp791
a(S'1216041472'
S'Mar Vel'
tp792
a(S'100000628628460'
S'\\u0392\\u03b1\\u03c3\\u03b9\\u03bb\\u03b9\\u03ba\\u03ae \\u039a\\u03bf\\u03c5\\u03c1\\u03ba\\u03bf\\u03cd\\u03c4\\u03b1'
tp793
a(S'617121553'
S'Milad Fakhri'
tp794
a(S'1182776171'
S'Maria Gkova'
tp795
a(S'1482819466'
S'Dimitris Leivadaros'
tp796
a(S'1014564847'
S'Konstantina Georgouli'
tp797
a(S'1577447967'
S'Sofaki Imagine'
tp798
a(S'566058554'
S'Aggelos Gkiokas'
tp799
a(S'551677835'
S'Giannis Rentzos'
tp800
a(S'100001081539165'
S'John Angelopoulos'
tp801
a(S'607241021'
S'Zoi Dim.'
tp802
a(S'100001859725446'
S'\\u039c\\u03b1\\u03c1\\u03af\\u03b1 \\u0392\\u03bb\\u03ac\\u03c7\\u03bf\\u03c5- \\u0395\\u03bb\\u03bb\\u03b7\\u03bd\\u03bf\\u03b1\\u03b3\\u03b3\\u03bb\\u03b9\\u03ba\\u03ac \\u03a4\\u03ad\\u03bb\\u03bf\\u03c2'
tp803
a(S'1131216671'
S'Marios Psychis'
tp804
a(S'606818484'
S'Eva Bajorge'
tp805
a(S'650432530'
S'Achilleas Theophanidis'
tp806
a(S'1293207318'
S'Maria Georgouli'
tp807
a(S'1658423099'
S'\\u039c\\u03c0\\u03b1\\u03bc\\u03c0\\u03b7\\u03c2 \\u03a0\\u03b5\\u03c1\\u03b4\\u03b9\\u03ba\\u03b7\\u03c2'
tp808
a(S'1248432764'
S'Nelly Skf'
tp809
a(S'505253275'
S'Olivia Le Blanc'
tp810
a(S'100002318991391'
S'Nikos Mpalko'
tp811
a(S'1309405991'
S'Konstantinos Stavropoulos'
tp812
a(S'582708608'
S'Martha Leto Stergiouli'
tp813
a(S'100002338730731'
S'Jayashree Khemka'
tp814
a(S'810778097'
S'Antonios Nakos'
tp815
a(S'1068625777'
S'Stefanos Ntoulas'
tp816
a(S'1154548353'
S'Dora Giannakopoulou'
tp817
a(S'567593313'
S'Vera Moschovi'
tp818
a(S'100002315088605'
S'Ntina Gritzali'
tp819
a(S'596718402'
S'Giovanni Sfyridis'
tp820
a(S'100000426267146'
S'Ransford Acheampong'
tp821
a(S'821393319'
S'Sia Ralli'
tp822
a(S'100003257467809'
S'Mda Greece'
tp823
a(S'1172056661'
S'Endri Shabani'
tp824
a(S'1379577369'
S'Billy Zabetakis'
tp825
a(S'1581612291'
S'Giota Panourgia'
tp826
a(S'1406047495'
S'Maria Apostolidi'
tp827
a(S'1319812360'
S'Diamantopoulou Marianna'
tp828
a(S'505435615'
S'Rose Pearson'
tp829
a(S'786213056'
S'Zografia Filippou'
tp830
a(S'712594115'
S'Stauroula Sourtzi'
tp831
a(S'768654111'
S'Ilias Zadik'
tp832
a(S'679538903'
S'Vassilo Vassiloo'
tp833
a(S'802434950'
S'Eleni Koventarou'
tp834
a(S'1029386588'
S'Giannis Rapanos Zabrakakis'
tp835
a(S'797808119'
S'Tzwrtzina Zou'
tp836
a(S'100002450262324'
S'Aggelos Karampetsos'
tp837
a(S'1063471095'
S'Tasos Vieris'
tp838
a(S'100000537079685'
S'\\u03a3\\u03a4\\u0391\\u0398\\u0397\\u03a3 \\u0393\\u03a1\\u0391\\u0392\\u0399\\u0391\\u03a3'
tp839
a(S'100001619513367'
S'Eva Fan Yang'
tp840
a(S'1119982154'
S'Kostas Koutis'
tp841
a(S'784525781'
S'Antonia Bagia'
tp842
a(S'1060545340'
S'Eftychia Ntinti'
tp843
a(S'726959462'
S'Eleni Drakouli'
tp844
a(S'100004012895866'
S'Dimitris Batikas'
tp845
a(S'100001826603440'
S'Marion Kontogianni Plus'
tp846
a(S'100003214901098'
S'Tomohiro  Shimada'
tp847
a(S'515266669'
S'Haris Rotsos'
tp848
a(S'100000435765763'
S'Chrysa Polyzou'
tp849
a(S'583299737'
S'Giannis Petrou'
tp850
a(S'1058443171'
S'Odysseas Argyriadis'
tp851
a(S'100000005802133'
S'Rinalds Bumanis'
tp852
a(S'766124181'
S'Denitsa Petkova'
tp853
a(S'651033590'
S'Velimvasaki Maria'
tp854
a(S'100001430018985'
S'Gregory Tsitsanos'
tp855
a(S'1488956811'
S'Kostas Giannakopoulos'
tp856
a(S'100002967351605'
S'\\u0391\\u03c3\\u03ba\\u03b5\\u03c1\\u03b9 \\u03a0\\u03b1\\u03c1\\u03b1\\u03b4\\u03bf\\u03c3\\u03b9\\u03b1\\u03ba\\u03cc \\u039a\\u03b1\\u03c6\\u03b5\\u03bd\\u03b5\\u03af\\u03bf'
tp857
a(S'1078878739'
S'Donald Stevens'
tp858
a(S'524143129'
S'Panagiotis Fafoutakis'
tp859
a(S'100000916153544'
S'Zorz Pilali'
tp860
a(S'822164153'
S'George Anasto'
tp861
a(S'1218455922'
S'Mairy Kampanou'
tp862
a(S'100001422471984'
S'David Caballero'
tp863
a(S'606770299'
S'Eleni Varvitsioti'
tp864
a(S'724349565'
S'Xaris Koleza'
tp865
a(S'646343658'
S'Efthimios Kyriakopoulos'
tp866
a(S'599578325'
S'Patty Kar'
tp867
a(S'1738668626'
S'Sia Gr-princess'
tp868
a(S'1068965610'
S'Katerina Patroni'
tp869
a(S'794804603'
S'Cleri Rontiri'
tp870
a(S'708129904'
S'Giannis Ioannou'
tp871
a(S'1047558316'
S'Skevi Diakou'
tp872
a(S'516368758'
S'Roly Grant'
tp873
a(S'1062776150'
S'Thomas Vlachos'
tp874
a(S'100003108885071'
S'Anna Kalyvi'
tp875
a(S'832688150'
S'Theodore Tsailas'
tp876
a(S'657638314'
S'Nancy Pavlaki'
tp877
a(S'100006470334426'
S'Melina Daskalakh'
tp878
a(S'733472445'
S'Dimitris Antoniou'
tp879
a(S'1174782231'
S'Kamil Goungor'
tp880
a(S'685314033'
S'Alexandra Kalantzi'
tp881
a(S'697488239'
S'Morgane Muscat'
tp882
a(S'756984183'
S'Konstantina Kagia'
tp883
a(S'90406332'
S'Justin Goulding'
tp884
a(S'100003516158149'
S'Andromache Tsitsanou'
tp885
a(S'100000185878409'
S'Alexandra Basevich'
tp886
a(S'1595055163'
S'Giota Tsouma'
tp887
a(S'100006898894388'
S'\\u03ba\\u03b1\\u03c4\\u03b5\\u03c1\\u03b9\\u03bd\\u03b1 \\u03c3\\u03c4\\u03b1\\u03c5\\u03c1\\u03bf\\u03c5\\u03bb\\u03b1\\u03ba\\u03b7'
tp888
a(S'1487346302'
S'Dim Alex'
tp889
a(S'617429669'
S'Vasilis Alexopoulos'
tp890
a(S'511628530'
S'Alexys Fiona Chan'
tp891
a(S'745015086'
S'Katerina Chatzigeorgiou'
tp892
a(S'100000676659429'
S'Ioanna Filippidi'
tp893
a(S'590804180'
S'Grigoris Polychronidis'
tp894
a(S'1040343673'
S'Tomas Jristopulos'
tp895
a(S'1420909645'
S'Min Htin Kyaw Lat'
tp896
a(S'9904375'
S'Deniz Vatansever'
tp897
a(S'100001055442711'
S'Stella Stamataki'
tp898
a(S'716115997'
S'Maria Ioannidou'
tp899
a(S'100001404772064'
S'Xristos Kapatsos'
tp900
a(S'666928661'
S'Andritsos Leonidas'
tp901
a(S'509217366'
S'Shanzeh Mahmood'
tp902
a(S'100001610635673'
S'Pablo David'
tp903
a(S'100005295276776'
S'Archodoula Alifragi'
tp904
a(S'100006540361494'
S'Daniela Teles'
tp905
a(S'1535365146'
S'Giorgos Havar'
tp906
a(S'670007800'
S'Anneta Zervou'
tp907
a(S'100002199480576'
S'Thanassis Zotas'
tp908
a(S'717968296'
S'Nastia Manoli'
tp909
a(S'100000071345454'
S'Alexandra Tzilivaki'
tp910
a(S'100003368510255'
S'Marios Crown'
tp911
a(S'612515244'
S'Gregory Ypsilantis'
tp912
a(S'100006280003168'
S'Kiriaki Lazaropoulou'
tp913
a(S'1124021391'
S'\\u03a0\\u03b1\\u03c4\\u03af\\u03c3\\u03c4\\u03b1\\u03c2 \\u0395\\u03c5\\u03c1\\u03b9\\u03c0\\u03b9\\u03ce\\u03c4\\u03b7\\u03c2'
tp914
a(S'1313053637'
S'Hlias Nakos'
tp915
a(S'1243470111'
S'Felicia Sun'
tp916
a(S'786810343'
S'Yaniv Rivlin'
tp917
a(S'1010940956'
S'Jenny Gravia'
tp918
a(S'595763084'
S'Maria Karanasiou'
tp919
a(S'824874518'
S'Nicholas Toumpouros'
tp920
a(S'1047145956'
S'Xristos Taxidis'
tp921
a(S'1058041961'
S'A Mpe Mpa Mplom'
tp922
a(S'100002942413032'
S'Kostas Moraitis'
tp923
a(S'1941732'
S'Niki Fanouraki-Brilaki'
tp924
a(S'1543255964'
S'Sofia Mavropoulou'
tp925
a(S'721890028'
S'Madeleine Traver'
tp926
a(S'1111781566'
S'Petros Mostratos'
tp927
a(S'817404851'
S'Evi Katsikosta'
tp928
a(S'815328027'
S'Dimitra Poublaki'
tp929
a(S'1621530014'
S'Doug Kennedy'
tp930
a(S'1036724876'
S'Giannis Mousias Vaggelatos'
tp931
a(S'1409208558'
S'Nikolaos Leonidas Chaitidis'
tp932
a(S'594398280'
S'Adetola Victor Onayemi'
tp933
a(S'100000263179081'
S'Nikos Mamassis'
tp934
a(S'1115286764'
S'Alexandra Kiskini'
tp935
a(S'662507468'
S'Alogogianni Gina'
tp936
a(S'1200702807'
S'Cydelix George'
tp937
a(S'751618962'
S'Apostlaki Maria'
tp938
a(S'1134743698'
S'Alex Doobay'
tp939
a(S'650712646'
S'Constantinos Togias'
tp940
a(S'509503364'
S'Jonathan Ho'
tp941
a(S'100000550603288'
S'Apsihologitoi Radiodiadiktiaki Ekpompi'
tp942
a(S'547061533'
S'Panagiotis Gkiokas'
tp943
a(S'506273463'
S'Toppy Pich\\u00e9'
tp944
a(S'860395701'
S'Nema Amen'
tp945
a(S'1387420238'
S'Spiros Stamatelos'
tp946
a(S'765323075'
S'Antreas Rakman'
tp947
a(S'555028213'
S'Anastacia Fou'
tp948
a(S'828524'
S'Kevin Tang'
tp949
a(S'661568108'
S'Fotis Aristotelis Mitsis'
tp950
a(S'816245076'
S'Stavros Theo'
tp951
a(S'798180432'
S'Ste Kour'
tp952
a(S'770186543'
S'Annita Capousizi'
tp953
a(S'100007705863081'
S'\\u03a3\\u03c0\\u03bf\\u03c1\\u03bf\\u03c2 \\u039c\\u03c0\\u03bb\\u03bf\\u03b3\\u03ba'
tp954
a(S'1245778846'
S'Brintaki Evi'
tp955
a(S'625491775'
S"Charles 'Charley' Eromosele"
tp956
a(S'100000040522501'
S'\\u039c\\u03b1\\u03c1\\u03af\\u03b1 \\u039a\\u03b1\\u03bb\\u03bf\\u03b3\\u03b5\\u03c1\\u03ac\\u03ba\\u03b7.\\u0393.\\u0393\\u03bd\\u03b1\\u03c6\\u03ac\\u03ba\\u03b7'
tp957
a(S'587061502'
S'Foteini Oikonomou'
tp958
a(S'564285884'
S'Bogdan Cristea'
tp959
a(S'1231295237'
S'Dimitris Kastanias'
tp960
a(S'1284867565'
S'Kostas Pergantis'
tp961
a(S'586200501'
S'Al Gkiok'
tp962
a(S'1022834840'
S'Georgia Giannakopoulou'
tp963
a(S'503397'
S'Zachary Ruff'
tp964
a(S'841864109'
S'Konstantinos Geo'
tp965
a(S'630505921'
S'Giorgos Panopoulos'
tp966
a(S'1065612111'
S'Antonios Tzimpoulas'
tp967
a(S'100001610765338'
S'Razvan Ranca'
tp968
a(S'577468747'
S'Mary Paivana'
tp969
a(S'1582282445'
S'Gogo Stathopoulou'
tp970
a(S'673101761'
S'Yiouli Dougka'
tp971
a(S'711057416'
S'Maria Karmos'
tp972
a(S'100000901783260'
S'\\u0395\\u03bb\\u03b5\\u03c5\\u03b8\\u03b5\\u03c1\\u03af\\u03b1 \\u0396\\u03ad\\u03bb\\u03ba\\u03b1'
tp973
a(S'1756740990'
S'Anna Reichert'
tp974
a(S'1666473383'
S'Andrea Zappalaglio'
tp975
a(S'582972504'
S'Derrick Roberts'
tp976
a(S'701480949'
S'Dimitris Dimitriou'
tp977
a(S'562587237'
S'Manu Geo'
tp978
a(S'528165565'
S'John Tass-Parker'
tp979
a(S'695131222'
S'Athina-Dimitra Damirali'
tp980
a(S'36905682'
S'Tae Hoon Kim'
tp981
a(S'1713414585'
S'Xrhstos Fidel'
tp982
a(S'779659379'
S'Georgios Avraamidis'
tp983
a(S'100002042929352'
S'Foivos Bar'
tp984
a(S'100002434202984'
S'Salsa Xplosions'
tp985
a(S'100000635354648'
S'\\u039c\\u03ac\\u03c1\\u03b8\\u03b1 \\u039b\\u03b5\\u03bf\\u03bd\\u03ac\\u03c1\\u03b4\\u03bf\\u03c5'
tp986
a(S'1520724'
S'Eleonora Guzman'
tp987
a(S'530767391'
S'Despoina Ierapetritaki'
tp988
a(S'514844042'
S'Giannis Tsapakis'
tp989
a(S'1485226127'
S'Antonis Moutsatsos'
tp990
a(S'706982452'
S'Costas Meintanis'
tp991
a(S'1274580739'
S'Andrew Turman'
tp992
a(S'1501729711'
S'Panos Triantafyllou'
tp993
a(S'1054798892'
S'Michalis Ev'
tp994
a(S'565859470'
S'Chris Kokotis'
tp995
a(S'1539006905'
S'Nikos Georgoulis'
tp996
a(S'1098954049'
S'George Dederis'
tp997
a(S'1197518778'
S'Misiaka Georgia'
tp998
a(S'597156554'
S'Lia de Liar'
tp999
a(S'1323393777'
S'Alex Eleftheriou'
tp1000
a(S'61308110'
S'Orestis Afordakos'
tp1001
a(S'1158310431'
S'Stathis Nakos'
tp1002
a(S'1196016154'
S'George Andreou'
tp1003
a(S'1073152781'
S'Fotini Bousiou'
tp1004
a(S'100002081853452'
S'Vana Lavidas'
tp1005
a(S'100003492525692'
S'Nagia Margaritidou'
tp1006
a(S'563384641'
S'Nasia Kass'
tp1007
a(S'645426737'
S'Marianna Kopsida'
tp1008
a(S'1282503485'
S'Kr Marianthi'
tp1009
a(S'732728242'
S'Vasiliki Besiou'
tp1010
a(S'1283203040'
S'Machos Kapetanakis'
tp1011
a(S'1087850048'
S'Tina Anagnostou'
tp1012
a(S'526995131'
S'\\u0414\\u043c\\u0438\\u0442\\u0440\\u0438\\u0439 \\u0414\\u0438\\u043c\\u043e\\u043f\\u0443\\u043b\\u043e\\u0441'
tp1013
a(S'549408599'
S'Kalia Kaparounaki'
tp1014
a(S'100006746460984'
S'Fani Zafiropoulou'
tp1015
a(S'699029748'
S'Amalia Mandelenaki'
tp1016
a(S'1257544170'
S'Luz Olid D\\u00edaz'
tp1017
a(S'834508737'
S'Vanessa Kon'
tp1018
a(S'553597693'
S'Thodwris Xintaris'
tp1019
a(S'100005147554829'
S'Areti Nikaki'
tp1020
a(S'523271504'
S'Stefanos Galanidis'
tp1021
a(S'100004196857146'
S'Giannis Pitsoulis'
tp1022
a(S'100001380506619'
S'George Aleksandropoulos'
tp1023
a(S'1082337291'
S'Riccardo Ghezzi'
tp1024
a(S'501124520'
S'Stephanie Wickenden'
tp1025
a(S'803194937'
S'Vasso Voulgaraki'
tp1026
a(S'1300958708'
S'Dimitris Ramantanis'
tp1027
a(S'605019796'
S'Panagiotis M. Christofas'
tp1028
a(S'100000599473628'
S'Katerina Siniori'
tp1029
a(S'754214683'
S'Gina Tsarouchi'
tp1030
a(S'529937023'
S'Christos Michalopoulos'
tp1031
a(S'100000000340682'
S'Eirini Louka'
tp1032
a(S'505026490'
S'Ally Thong'
tp1033
a(S'1409167351'
S'Kostas Kar'
tp1034
a(S'525783247'
S'Apostolis Thanos'
tp1035
a(S'696837707'
S'Yiannis Andriotis'
tp1036
a(S'625462170'
S'Sprs Mts'
tp1037
a(S'552221890'
S'Alexandros Melessidis'
tp1038
a(S'1617051721'
S'Takkos Michalis'
tp1039
a(S'197816323'
S'Robert Pralat'
tp1040
a(S'100000960847427'
S'Tasos Atmatzidis'
tp1041
a(S'1151214271'
S'Liduina Aruma Handi Lovert'
tp1042
a(S'100001370078424'
S'Panos Karagiorgos'
tp1043
a(S'1204808872'
S'Stamatis Stefanakos'
tp1044
a(S'739877140'
S'Giorgos Pantazis'
tp1045
a(S'814623269'
S'Adri T. Guerena'
tp1046
a(S'561565615'
S'Ioannis Tsionas'
tp1047
a(S'657469520'
S'Giota Kostara'
tp1048
a(S'1618016023'
S'Elli Dialyna'
tp1049
a(S'100001387099622'
S'Jital Doshi'
tp1050
a(S'1532873530'
S'Alex Fous'
tp1051
a(S'545173568'
S'Matthew Karlaftis'
tp1052
a(S'514162165'
S'Argy Evmorfopoulos'
tp1053
a(S'609713337'
S'Christina Masoura'
tp1054
a(S'533509038'
S'Kostis Agrafiotis'
tp1055
a(S'604337011'
S'Ilias Naris'
tp1056
a(S'844964708'
S'Vasilis Zafeiratos'
tp1057
a(S'1013752715'
S'Hind Kraytem'
tp1058
a(S'1155687248'
S'Eleftheria Lorida'
tp1059
a(S'603965068'
S'Lud Gharibian'
tp1060
asS'id'
p1061
S'801663221'
p1062
s.