(dp1
S'name'
p2
S'Surbhi Kapur Talwar'
p3
sS'current_class'
p4
S'india'
p5
sS'home_class'
p6
Vgurgaon, haryana, india
p7
sS'home_text'
p8
VGurgaon, Haryana\u000aHometown
p9
sS'current_link'
p10
Vhttps://www.facebook.com/l.php?u=https%3A%2F%2Fwww.bing.com%2Fmaps%2Fdefault.aspx%3Fv%3D2%26pc%3DFACEBK%26mid%3D8100%26where1%3D28.469999907198%252C%2B77.029266357422%26name%3DGurgaon%252C%2BHaryana%26mkt%3Den-IN&h=dAQFb7sXA&s=1
p11
sS'home_link'
p12
Vhttps://www.facebook.com/l.php?u=https%3A%2F%2Fwww.bing.com%2Fmaps%2Fdefault.aspx%3Fv%3D2%26pc%3DFACEBK%26mid%3D8100%26where1%3D28.469999907198%252C%2B77.029266357422%26name%3DGurgaon%252C%2BHaryana%26mkt%3Den-IN&h=5AQHpIP7t&s=1
p13
sS'current_text'
p14
VGurgaon, Haryana\u000aCurrent City
p15
sS'friends'
p16
(lp17
(S'100001137271224'
S'Ritu Gupta'
tp18
a(S'100005773897749'
S'Vibhu Sehrawat'
tp19
a(S'100004359578820'
S'Manisha Malhotra'
tp20
a(S'564489365'
S'Jayesh Joshi'
tp21
a(S'100001083414791'
S'Shreya Chaturvedi'
tp22
a(S'100000183544626'
S'Shuchi Khanna'
tp23
a(S'100000825704818'
S'Prathmesh Vaidya'
tp24
a(S'1010703897'
S'Jahnvi Sheena Dawar'
tp25
a(S'100000979763268'
S'Deepti Goel'
tp26
a(S'100005292432104'
S'Anisha Agarwal'
tp27
a(S'1141401721'
S'Compal Jain'
tp28
a(S'100001267047982'
S'Tushar Chaudhary'
tp29
a(S'100001037095123'
S'Mansi Kumar'
tp30
a(S'100000390668805'
S'Monika Verma'
tp31
a(S'590098553'
S'Chetan Goyal'
tp32
a(S'100000876008144'
S'Kabita Acharya Misra'
tp33
a(S'1445214126'
S'Rashmi Khanna'
tp34
a(S'1068238251'
S'Vipula Gupta'
tp35
a(S'1250466532'
S'Ajay Kumar'
tp36
a(S'627093153'
S'Bhavna Shah'
tp37
a(S'100001274521009'
S'Himanya Singh'
tp38
a(S'100002545400211'
S'Preeti Sharma'
tp39
a(S'100002535725082'
S'Deepak Gulati'
tp40
a(S'1676342287'
S'Rittu Kapoor Kumar'
tp41
a(S'100000285873669'
S'Rekha Talwar'
tp42
a(S'722733433'
S'Karan Rana'
tp43
a(S'575266485'
S'Aseem Deshpande'
tp44
a(S'646561942'
S'Anushree Sawhney'
tp45
a(S'1221156455'
S'Varun Anand'
tp46
a(S'100000048313228'
S'Rahul Rana'
tp47
a(S'100001639183953'
S'Ranjana Sharma'
tp48
a(S'619751278'
S'Aneez Mehta'
tp49
a(S'100003865140699'
S'Savera Dayal'
tp50
a(S'100000036183659'
S'Lakshmi Bellgard'
tp51
a(S'536171773'
S'Deepratan Nehra'
tp52
a(S'100000951946470'
S'Lakshay Chaudhary'
tp53
a(S'675285648'
S'Kanika Vats'
tp54
a(S'1271799227'
S'Sneha Chandi'
tp55
a(S'100002525498504'
S'Shubhaan Talwar'
tp56
a(S'545076620'
S'Rishab Arora'
tp57
a(S'1477337129'
S'Rakesh Chopra'
tp58
a(S'100002725480665'
S'Ravinder Prakash'
tp59
a(S'1281681508'
S'Shagun Pathak'
tp60
a(S'100000214646443'
S'Kritika Khanna'
tp61
a(S'1270765741'
S'Aashi Agarwal'
tp62
a(S'634515095'
S'Aditi Sawhney Bahri'
tp63
a(S'608588822'
S'Pratyaksh Bhatia'
tp64
a(S'1760274583'
S'Meher Prasher'
tp65
a(S'100000044575279'
S'Amol Agarwal'
tp66
a(S'100001345564784'
S'Avnish Suri'
tp67
a(S'1847733956'
S'Harsheen Khandpur'
tp68
a(S'598160894'
S'Anjali Gupta'
tp69
a(S'672330424'
S'Srishti Gautam'
tp70
a(S'676718022'
S'Akriti Agrawal'
tp71
a(S'704001586'
S'Rajat Kapoor'
tp72
a(S'100003942147114'
S'Pramod Chandra'
tp73
a(S'631695056'
S'Gaurav Kapoor'
tp74
a(S'100001976763162'
S'Arushi Agarwal'
tp75
a(S'100000695352445'
S'Karishma Bhatt'
tp76
a(S'100000522691933'
S'Shefali Malik'
tp77
a(S'1304812772'
S'Shikha Kapoor Bhalla'
tp78
a(S'768900004'
S'Avni Chowdhry'
tp79
a(S'509988642'
S'Shradha Kapur'
tp80
a(S'1184085518'
S'Shobha Sinjali'
tp81
a(S'100001163389777'
S'Vibhum Malhotra'
tp82
a(S'100003322228554'
S'Jishu Basak'
tp83
a(S'100000189084963'
S'Simran Nayyar'
tp84
a(S'653173435'
S'Saurabh Nayyar'
tp85
a(S'1536731203'
S'Divanshi Gupta'
tp86
a(S'811117730'
S'Namrata Johar'
tp87
a(S'100001070219193'
S'Ravi Kant Kaushik'
tp88
a(S'100000152401400'
S'Anuja Jain'
tp89
a(S'100000141096198'
S'Sanjoli Sirohi'
tp90
a(S'1300795286'
S'Archit Bansal'
tp91
a(S'593642932'
S'Aparna V Jolly'
tp92
a(S'606311730'
S'Sonakshi Khurana'
tp93
a(S'100000104324013'
S'Tripti Talwar Chitkara'
tp94
a(S'720988808'
S'Ankit Singhal'
tp95
a(S'1231886369'
S'Archita Das'
tp96
a(S'100000141653106'
S'Punika Mangla'
tp97
a(S'100000056024649'
S'Surbhi Arora'
tp98
a(S'621674807'
S'Jaspinder Kochhar'
tp99
a(S'514475236'
S'Saili Oka'
tp100
a(S'1668392273'
S'Rushil Srivastava'
tp101
a(S'1281061664'
S'Aanchal Sukhija'
tp102
a(S'100000363294185'
S'Aakanksha Rathee'
tp103
a(S'1616762423'
S'Anubhav Gupta'
tp104
a(S'1501250693'
S'Madhur Malhotra'
tp105
a(S'100003626682685'
S'Suhana Khanna'
tp106
a(S'1219133639'
S'Nimish Abrol'
tp107
a(S'666879861'
S'Maneesh Hinduja'
tp108
a(S'1050281960'
S'Tanveer Oberoi'
tp109
a(S'718676591'
S'Parul Talwar Nangia'
tp110
a(S'100005125324982'
S'Lalita Talwar'
tp111
a(S'100000091930700'
S'Deepak Talwar'
tp112
a(S'100003254380720'
S'Prekshi Gulia'
tp113
a(S'100000929051303'
S'Anoop Bhardwaj'
tp114
a(S'813088873'
S'Sanjib Bhattacharya'
tp115
a(S'738328218'
S'Bhavna Sood Sharma'
tp116
a(S'593857861'
S'Teresa Varman'
tp117
a(S'100001506400506'
S'Rajat Arya'
tp118
a(S'523312223'
S'Nimmit Anejaa'
tp119
a(S'100001282717192'
S'Poornima Yadav'
tp120
a(S'100000337722211'
S'Mani Bhargava'
tp121
a(S'100000060525651'
S'Priyansha Mukta Chimnani'
tp122
a(S'511624386'
S'Vyom Sati'
tp123
a(S'100000174623394'
S'Yatten Kajal'
tp124
a(S'682415826'
S'Uttera Sehgal Prakash'
tp125
a(S'537955437'
S'Anshuman Nangia'
tp126
a(S'100002647278749'
S'Sumity Kapoor'
tp127
a(S'667721663'
S'Sage Khanna'
tp128
a(S'653624365'
S'Sharad Mohit'
tp129
a(S'658137084'
S'Heena Teckchandani'
tp130
a(S'1146907088'
S'Sumit Goyal'
tp131
a(S'552596728'
S'Abhilasha Jain'
tp132
a(S'596410678'
S'Sachin Raj Gupta'
tp133
a(S'100002700668375'
S'Aashian Ahluwalia'
tp134
a(S'100000262281427'
S'Kavita Pathak Sood'
tp135
a(S'1319877571'
S'Archna Talwar'
tp136
a(S'1082853786'
S'Mona Duggal Prabhakar'
tp137
a(S'100001650387806'
S'Neeta Tandon'
tp138
a(S'711369609'
S'Kunal Kapur'
tp139
a(S'1300923083'
S'Apoorva Singh'
tp140
a(S'1106246915'
S'Jayshree Sawhney'
tp141
a(S'605731411'
S'Aditi Dhawan'
tp142
a(S'100000138991663'
S'Dipanshu Saini'
tp143
a(S'100000534993232'
S'Shalini Sharma'
tp144
a(S'661606884'
S'Shikha B Sabharwal'
tp145
a(S'100001022465422'
S'Divyakshi Satija'
tp146
a(S'541786567'
S'Geetika Nath'
tp147
a(S'100000104404824'
S'Nikhil Jain'
tp148
a(S'1085424503'
S'Divya Sharma'
tp149
a(S'678503949'
S'Shireen Bhargava'
tp150
a(S'1382456700'
S'Ria Sharma'
tp151
a(S'556086219'
S'Sumit Gupta'
tp152
a(S'1053947796'
S'Arjun Kochhar'
tp153
a(S'568263872'
S'Harpreet Sawhney'
tp154
a(S'717896688'
S'Aarti George'
tp155
a(S'1078538228'
S'Aashna Sharma'
tp156
a(S'1468207983'
S'Vidhi Arora'
tp157
a(S'100003798103412'
S'Priyanshi Jain'
tp158
a(S'100000024403508'
S'Yaduraj Singh Chauhan'
tp159
a(S'100000530439205'
S'Srishti Bajaj'
tp160
a(S'531212575'
S'Aditya Kohli'
tp161
a(S'1754248020'
S'Akshat Sharma'
tp162
a(S'100000987821051'
S'Kubair Rangan'
tp163
a(S'100000289955513'
S'Vinay Talwar'
tp164
a(S'736554637'
S'Mansi Poddar'
tp165
a(S'640850461'
S'Niti Jolly'
tp166
a(S'507089718'
S'Aparna Passi'
tp167
a(S'1305885898'
S'Vivek Chaudhuri'
tp168
a(S'100000186798618'
S'Poornima Yadav'
tp169
a(S'524073672'
S'Yamini Mathur'
tp170
a(S'100000544668597'
S'Pearl Chopra Luthra'
tp171
a(S'100003291785239'
S'Paras Yadav'
tp172
a(S'594717160'
S'Anand Nanda'
tp173
a(S'100000075004806'
S'Arti Trehan'
tp174
a(S'812208116'
S'Kannan Krishnan'
tp175
a(S'703357812'
S'Ritu Sharma'
tp176
a(S'728590730'
S'Puneet Sial'
tp177
a(S'1366362646'
S'Anju Sharma'
tp178
a(S'100000153412823'
S'Chanchal Tiwari'
tp179
a(S'1385203870'
S'Jagriti Jhanji'
tp180
a(S'1050017549'
S'Adesh Pugalia'
tp181
a(S'745005411'
S'Reema Shah Pandya'
tp182
a(S'779432234'
S'Sagnik Ghosh'
tp183
a(S'100000856992041'
S'Divyang Sharma'
tp184
a(S'722256536'
S'Ankita Narula Nagpal'
tp185
a(S'715963816'
S'Manisha Singh'
tp186
a(S'100000674641185'
S'Aditya Mudgal'
tp187
a(S'100001073985938'
S'Mallika Kumar'
tp188
a(S'1049987675'
S'Anirudh Kumar'
tp189
a(S'606408143'
S'Priyanshi Kapoor'
tp190
a(S'100001877590518'
S'Simran Sharma'
tp191
a(S'1804290790'
S'Yagini Aggarwal'
tp192
a(S'617362781'
S'Nikita Deshpande'
tp193
a(S'1557135846'
S'Malvika Bhardwaj'
tp194
a(S'666230060'
S'Rahul Bhagat'
tp195
a(S'100001438707550'
S'Rachana Takshak'
tp196
a(S'1148696503'
S'Abhinav Dhiman'
tp197
a(S'1472042257'
S'Mayank Malhotra'
tp198
a(S'1026665436'
S'Karan Singh Gill'
tp199
a(S'542770538'
S'Aarushi Aggarwal'
tp200
a(S'506814087'
S'Hemant Sharma'
tp201
a(S'100000742125817'
S'Raj Sahai'
tp202
a(S'100000052041936'
S'Rakhi Chopra'
tp203
a(S'1760527673'
S'Shalini V Vaid'
tp204
a(S'691001188'
S'Sabina Singh'
tp205
a(S'514355968'
S'Soumya Kapur'
tp206
a(S'100001588523275'
S'Kanak Ohlyan'
tp207
a(S'714510612'
S'Siddhant Sharma'
tp208
a(S'100003184898342'
S'Harveen Kochhar'
tp209
a(S'1391179001'
S'Vinit Bajaj'
tp210
a(S'100001186168750'
S'Tanisha Sinha'
tp211
a(S'1791618247'
S'Mehul Parashar'
tp212
a(S'1805252062'
S'Ajit Chandrasekharan'
tp213
a(S'100007066780070'
S'Valsala Anil'
tp214
a(S'665507764'
S'Shikha Vij'
tp215
a(S'571049561'
S'Aditi Gupta'
tp216
a(S'100000733754694'
S'Ruchika Thukral'
tp217
a(S'506408613'
S'Akanksha Goswami'
tp218
a(S'1190343949'
S'Divya Dhingra'
tp219
a(S'100000260553395'
S'Deepshikha Srivastava'
tp220
a(S'558236842'
S'Deepti Rao'
tp221
a(S'100000163946820'
S'Shivangi Tak'
tp222
a(S'100001889738340'
S'Aditi Sharma'
tp223
a(S'100001112267213'
S'Sonia Jagga'
tp224
a(S'100001352845891'
S'Saahil Yadav'
tp225
a(S'100000919783343'
S'Alka Gaur'
tp226
a(S'1032195076'
S'Oorvii Tevatia'
tp227
a(S'100002338372985'
S'Adarsh Bakshi'
tp228
a(S'100000443858422'
S'Aditi Khera'
tp229
a(S'100003950626628'
S'Shweta Dadwal'
tp230
a(S'1063274188'
S'Jahnvi Dawar'
tp231
a(S'586302283'
S'Rajat Kapoor'
tp232
a(S'1426510022'
S'Eddy Ahuja'
tp233
a(S'536717264'
S'Shiv Kapoor'
tp234
a(S'719383752'
S'Monica Bajaj'
tp235
a(S'100003843113566'
S'Riya Alagh'
tp236
a(S'100001237170088'
S'Devika RoyChowdhury'
tp237
a(S'100002963878877'
S'Lopa Duarah'
tp238
a(S'100001082394595'
S'Monisha Dang'
tp239
a(S'100008204761613'
S'Rajni Passi'
tp240
a(S'552243624'
S'Akanksha Priya'
tp241
a(S'1837718400'
S'Abha Mehta'
tp242
a(S'100005034185269'
S'Payal Aggarwal'
tp243
a(S'519310611'
S'Bakul Kampani'
tp244
a(S'590228548'
S'Neha Bhandari Mehta'
tp245
a(S'100001734052978'
S'Prachi Garg'
tp246
a(S'1172302153'
S'Ripan Talwar'
tp247
a(S'713295401'
S'Karan Puri'
tp248
a(S'100002189937583'
S'Royna Chopra'
tp249
a(S'100002955971669'
S'Monica Kapoor Sethi'
tp250
a(S'100000264709150'
S'Raunak Sood'
tp251
a(S'541807460'
S'Nikhita Trikha'
tp252
a(S'100000814342585'
S'Arshi Singh'
tp253
a(S'523398823'
S'Jaya Kaushish Dhawan'
tp254
a(S'507600073'
S'Aakriti Passi'
tp255
a(S'100000878001428'
S'Aditya Jain'
tp256
a(S'611737581'
S'Nidhi Beriwal'
tp257
a(S'100002137232243'
S'Annu Yadav'
tp258
a(S'100003833406101'
S'Ruchira Kapur'
tp259
a(S'1496940468'
S'Tanvi Sethi'
tp260
a(S'100001727155303'
S'Rachna Verma'
tp261
a(S'505259139'
S'Pia Arora'
tp262
a(S'664919047'
S'Megha Pahwa Ahuja'
tp263
a(S'669188627'
S'Divya Soni'
tp264
a(S'1011931981'
S'Meera Khurana'
tp265
a(S'6210257'
S'Vedanta Shamnath'
tp266
a(S'100001396268300'
S'Madhav Prakash'
tp267
a(S'100000432892890'
S'Beena Malhotra'
tp268
a(S'1467565709'
S'Vallari Bhardwaj'
tp269
a(S'593249863'
S'Neha Khullar Bedi'
tp270
a(S'778003078'
S'Akash Nangru'
tp271
a(S'1790983118'
S'Siddharth Ojha'
tp272
a(S'1145592636'
S'Pranav Masa'
tp273
a(S'100001216275575'
S'Pallavi Jain Puri'
tp274
a(S'100002253090089'
S'Anoushka Datta'
tp275
a(S'100000004353139'
S'Aditya Vir Singh'
tp276
a(S'644661887'
S'Jitender Agarwal'
tp277
a(S'555918229'
S'Malvika Goel'
tp278
a(S'100001855357262'
S'Meesha Goel'
tp279
a(S'100001096088760'
S'Jenia Chatterjee'
tp280
a(S'100000242280076'
S'Garima Dagar'
tp281
a(S'1018193875'
S'Amandeep Talwar'
tp282
a(S'601608144'
S'Aditi Arya'
tp283
a(S'1032703390'
S'Vineeta Khanna'
tp284
a(S'100001219147797'
S'Malvika Bhatia'
tp285
a(S'1128501614'
S'Anu Mongia'
tp286
a(S'697297291'
S'Radhika Nair'
tp287
a(S'100004093687926'
S'Sudharshan Kapur'
tp288
a(S'100004909775231'
S'Harjeet Singh'
tp289
a(S'1825951585'
S'Sankalp Kalia'
tp290
a(S'100001619382315'
S'Preeti Soni'
tp291
a(S'1699524833'
S'Prerna Varma'
tp292
a(S'514981362'
S'Katherine Behl'
tp293
a(S'588272705'
S'Ayush Sachdev'
tp294
a(S'100000251105379'
S'Saniya Rao'
tp295
a(S'100000504528895'
S'Bavleen Mehta'
tp296
a(S'1467420459'
S'RiTesh Gupta'
tp297
a(S'835775570'
S'Vinti Kapoor Dhodhi'
tp298
a(S'100001809515351'
S'Neerja Malhotra'
tp299
a(S'532268274'
S'Uma Agarwal'
tp300
a(S'100001753644419'
S'Dashrath Sharma'
tp301
a(S'568347292'
S'Disha Bhandari'
tp302
a(S'523514048'
S'Samridh Kapoor'
tp303
a(S'100001054843296'
S'Swadesh Premsingh'
tp304
a(S'1007297382'
S'Preetha Gopinath'
tp305
a(S'100001256756206'
S'Sonal Sharma'
tp306
a(S'546910368'
S'Shiva Gosain Malhotra'
tp307
a(S'564473338'
S'Poorva Nangia'
tp308
a(S'100000695827634'
S'Varun Puri'
tp309
a(S'100001357371503'
S'Pankaj Talwar'
tp310
a(S'100000123715793'
S'Kriti Sethi'
tp311
a(S'1686255319'
S'Rinav Sachdev'
tp312
a(S'590231659'
S'Atreya Terry Vyas'
tp313
a(S'1773773613'
S'Udaydeep Jindal'
tp314
a(S'554970714'
S'Shitiz Bansal'
tp315
a(S'100001592358182'
S'Neerja Dua Malhotra'
tp316
a(S'1211806127'
S'Navish Gandhi'
tp317
a(S'726276248'
S'Ashish Goel'
tp318
a(S'738642496'
S'Preeti Yadav'
tp319
a(S'1041927103'
S'Tarushi Ravindra'
tp320
a(S'100005729736191'
S'Kanika Mangal'
tp321
a(S'1533991214'
S'Paavni Mehta'
tp322
a(S'100002941530842'
S'Renu Kaul'
tp323
a(S'525251197'
S'Vardaan Khurana'
tp324
a(S'504890181'
S'Sharad Vats'
tp325
a(S'100007720114302'
S'Shefali Lohia'
tp326
a(S'1373889308'
S'Ashish Verma'
tp327
a(S'522703489'
S'Aditi Guliani'
tp328
a(S'841918389'
S'Aap-Neeraj Gulati'
tp329
a(S'1319149213'
S'Akanksha Singh'
tp330
a(S'100004418164270'
S'Rita Rani'
tp331
a(S'637815711'
S'Sanjeev Bhanot'
tp332
a(S'503371876'
S'Sophy Bennett'
tp333
a(S'100001375072988'
S'Nidhi Jindal'
tp334
a(S'652366625'
S'Sourya Roy'
tp335
a(S'763321461'
S'\\u067e\\u0648\\u062c\\u0627 \\u0645\\u0637\\u06c1\\u0631'
tp336
a(S'1700091899'
S'Harit Pathak'
tp337
a(S'637671992'
S'Purvi Trivedi'
tp338
a(S'590853337'
S'Harry Naik'
tp339
a(S'1298294391'
S'Vashisht Mahajan'
tp340
a(S'100004687120306'
S'Pragya Gupta'
tp341
a(S'100001584213132'
S'Mohit Yadav'
tp342
a(S'587308247'
S'Disha Sharma'
tp343
a(S'100000228117076'
S'Nisha Bhardwaj'
tp344
a(S'100000815356494'
S'Palak Agrawal'
tp345
a(S'100000161369153'
S'Vinod Talwar'
tp346
a(S'1594101414'
S'Ritu Saini'
tp347
a(S'1016831065'
S'Manat Mantoo'
tp348
a(S'1228539064'
S'Bhanuja Kumar'
tp349
a(S'100000178243027'
S'Gaurav Yadav'
tp350
a(S'100005147587725'
S'Shraddha Jolly Jain'
tp351
a(S'100002275670905'
S'Neha Adhana'
tp352
a(S'587533584'
S'Riya Bhatia'
tp353
a(S'100000292813168'
S'Kapila Nanda'
tp354
a(S'100003975640023'
S'Stuti Vaid'
tp355
a(S'704091957'
S'Nipun Gosain'
tp356
a(S'1205717542'
S'Vikas Chahal'
tp357
a(S'549770976'
S'Sudeep Arora'
tp358
a(S'509368063'
S'Sneha Chhatralia'
tp359
a(S'100003788977650'
S'Rao Sunder Yadav'
tp360
a(S'1298196447'
S'Anubhav Raina'
tp361
a(S'100000149200337'
S'Kajal Thakran'
tp362
a(S'643747653'
S'Juhi Naggy'
tp363
a(S'100003900246092'
S'Manisha Malhotra'
tp364
a(S'1359192191'
S'Priyanka Yadav'
tp365
a(S'581183603'
S'Rashi Kapur'
tp366
a(S'100006808953105'
S'Shalini Shamnath'
tp367
a(S'1024264440'
S'Ramanpreet Kaur'
tp368
a(S'100000458536567'
S'Sapna Kapoor-Chawla'
tp369
a(S'100002137939644'
S'Shipra Chadha Gulati'
tp370
a(S'100000933194611'
S'Priya Chhokra'
tp371
a(S'100000203509167'
S'Neha Taneja'
tp372
a(S'100001517444484'
S'Meenakshi Chowdhary'
tp373
a(S'1272840848'
S'Shweta Singh'
tp374
a(S'578549680'
S"Aishwarya 'sona' Pathak"
tp375
a(S'1087674756'
S'Vaishali Singh'
tp376
a(S'1468841823'
S'Ginni Malhotra'
tp377
a(S'100002723240155'
S'Neha Bhandari'
tp378
a(S'1433773547'
S'Sunny Kakar'
tp379
a(S'1142419402'
S'Ashwani Mehra'
tp380
a(S'732732422'
S'Parth Verma'
tp381
a(S'100000484998437'
S'Chris Mathai'
tp382
a(S'566338666'
S'Rachna Khosla'
tp383
a(S'1563469701'
S'Avani Srivastava'
tp384
a(S'1104872377'
S'Sandeep Khanna'
tp385
a(S'1451798324'
S'Mudit Mehrishi'
tp386
a(S'100001123080900'
S'Yummi Talwar'
tp387
a(S'100002822877246'
S'Neeraj Yadav'
tp388
a(S'655172352'
S'Arpit Kumar Pappu'
tp389
a(S'100007386152407'
S'Arti Kapur'
tp390
a(S'1290991815'
S'Aishwarya Lakshmi'
tp391
a(S'100000551575088'
S'Himanshu Saini'
tp392
a(S'100000015439194'
S'Abhivandana Singh'
tp393
a(S'100000141729076'
S'Sanjana Agarwal'
tp394
a(S'1800325090'
S'Veena Sangar'
tp395
a(S'1684741268'
S'Shruti Mishra'
tp396
a(S'655752015'
S'Sukhmani Pal'
tp397
a(S'100000107345008'
S'Sandhya Kapoor'
tp398
a(S'100000002224483'
S'Abhiyant Singh'
tp399
a(S'689690243'
S'Pavni Kapur Gupta'
tp400
a(S'100001443960526'
S'Harpreet Sidhu'
tp401
a(S'583509186'
S'Manika Prem Singh'
tp402
a(S'657537178'
S'Sameer Mehta'
tp403
a(S'1095604673'
S'Sonal Khurana'
tp404
a(S'1341776156'
S'Akanksha Agrawal'
tp405
a(S'100002486478097'
S'Pooja Bhatia'
tp406
a(S'1247169712'
S'Samvit Bhanot'
tp407
asS'id'
p408
S'814265556'
p409
s.