(dp1
S'friends'
p2
(lp3
(S'100000929918825'
S'Ullas Mal'
tp4
a(S'100002485599966'
p5
S'Salang Kandahar'
tp6
a(S'100002774078432'
S'Sardar Gul'
tp7
a(S'100002052453744'
S'Sardar Khan'
tp8
a(S'100000476703106'
S'Hadi Hairan'
tp9
a(S'100000448462636'
S'Sadia Khan'
tp10
a(S'100002005267225'
S'Fahad FMwaziristan'
tp11
a(S'100001466815610'
S'Shawm Doc'
tp12
a(S'100002006538373'
S'Marhom Abdul Ghafar Pashton'
tp13
a(S'100003035860583'
S'Pukhtoon Yar'
tp14
a(S'100001776477310'
S'Beryal Rohail'
tp15
a(S'658110208'
S'DrKatona Nasrin'
tp16
a(S'1075640077'
S'Sangeen Khan'
tp17
a(S'100001053436155'
S'\\u0627\\u062d\\u0645\\u062f\\u0634\\u0627\\u0647 \\u0632\\u06ab\\u06cc\\u0631\\u0648\\u06cc'
tp18
a(S'100001021908905'
S'Gul Pasand Khan'
tp19
a(S'100001762278782'
p20
S'Fareed Baryal Kakar'
tp21
a(S'100002947615007'
S'Atal Khan'
tp22
a(S'100002270551658'
S'Leekwal Naveed'
tp23
a(S'100001674733455'
S'Bakhtar Gull'
tp24
a(S'100001227178801'
S'Jan Yaar Katawazay'
tp25
a(S'100000290766707'
S'Hasan Khan'
tp26
a(S'100001258398360'
S'Afghan Nistan'
tp27
a(S'100002284039006'
S'Siraj Lala'
tp28
a(S'100004682702813'
S'Olasyar Shaheed Chaman'
tp29
a(S'100000445886160'
S'Bashir Ahmed'
tp30
a(S'100003179012690'
S'Pashtoonkhwa Map Killasaifullah'
tp31
a(S'1062416772'
S'Hangama Zohra'
tp32
a(S'1172620617'
S'M Nasir Khan'
tp33
a(S'100000381267677'
S'Roheel Khan'
tp34
a(S'1483612015'
S'Islam Afghani'
tp35
a(S'100001214505296'
S'Noor Ahmad Aail'
tp36
a(S'100000776042799'
S'Khan Swat'
tp37
a(S'100000236297662'
S'Rahmat Sullamal'
tp38
a(S'100001283421328'
S'Faiz Aryan'
tp39
a(S'100001548866718'
S'Ijaz Ahmad'
tp40
a(S'1365853899'
S'Manaf Dotani'
tp41
a(S'100002221696659'
S'Juma Sarai'
tp42
a(S'100002138194961'
S'Sher Ullah Momand'
tp43
a(S'100002918930376'
S'Shoukat Kakar'
tp44
a(S'100002519792749'
S'Baryali Samadi'
tp45
a(S'100001922624335'
p46
S'Sarbaz Abdul Rab Durrani'
tp47
a(S'1648103637'
S'Nazrana Yousufzai'
tp48
a(S'100001763384017'
S'Pashtoonkhwa Relieffkp'
tp49
a(S'100002009326744'
S'Sardar Fakhre Alam Khan'
tp50
a(S'1648059672'
S'Greater Pukhtunistan'
tp51
a(S'100001645193455'
S'Muhammad Reza Nezami'
tp52
a(S'100000377038379'
S'Afghan Melat'
tp53
a(S'100000863011471'
S'Abdul Nasir'
tp54
a(S'100003024151487'
S'Ibrahim Nasar'
tp55
a(S'100002832343082'
S'Pashtoonkhwastudents Organizationzhob'
tp56
a(S'100000209999437'
S'Sultan Khan'
tp57
a(S'100001152549709'
p58
S'Masih Mohammadi'
tp59
a(S'100002503016481'
S'Khair Mohammad Hamza'
tp60
a(S'642568185'
S'Mohammad Taqi'
tp61
a(S'100000796272425'
S'Fawad Ali'
tp62
a(S'100000997661442'
S'Yar Mohammad Alizai'
tp63
a(S'1343874853'
S'Lailoma Muska'
tp64
a(S'100002350545340'
S'Unity Afghanistan'
tp65
a(S'100001604501961'
S'Sohail Khan'
tp66
a(S'100001443305831'
S'Saifullah Barekzai'
tp67
a(S'100000639137132'
S'\\u0633\\u0644\\u0637\\u0627\\u0646 \\u062c\\u0627\\u0646 \\u06a9\\u0644\\u064a\\u0648\\u0627\\u0644'
tp68
a(S'100000927827210'
S'Loy Afghanistan'
tp69
a(S'100000465935368'
S'Daud Miraki'
tp70
a(S'100000019154212'
S'Mukhtar Khan Durrani Abazai'
tp71
a(S'100002347260034'
S'Saeed Akbar Kakar'
tp72
a(S'100004713668589'
S'Wajid Ali'
tp73
a(S'539303055'
S'Mansoor Nawaz Bangash'
tp74
a(S'100000288057568'
S'Abdur Rehman'
tp75
a(S'100000580026773'
S'Sheraz Afghan'
tp76
a(S'100000081406853'
S'Nasrullah Fatih'
tp77
a(S'100002438846218'
S'Ghaffar Khan'
tp78
a(S'1146557060'
p79
S'Samiullah Hussaini'
tp80
a(S'100001842787793'
S'Hela Nazo'
tp81
a(S'100000659962787'
S'Rahmat Shah Ahmadzai'
tp82
a(S'100002200544040'
S'Obaid Fedaa Afzalzada'
tp83
a(S'100002444749068'
S'Omar Sharifi'
tp84
a(S'1600744795'
S'Abdullah Moqori'
tp85
a(S'1562773117'
S'Milad Rocky Khan'
tp86
a(S'638927991'
S'Malgarai Nasrullah'
tp87
a(S'100004161330161'
S'Batoor Khan'
tp88
a(S'100003328745806'
S'Salar Aryan'
tp89
a(S'100000118755218'
S'Gloria Williams'
tp90
a(S'727849124'
S'Syed Ahmad Shah Sadaat'
tp91
a(S'100001952896386'
S'Abdusalam Khan'
tp92
a(S'100003699796201'
S'Shaista Durrani'
tp93
a(S'100000776672071'
S'\\u0631\\u0648\\u069a\\u0627\\u0646 \\u063a\\u0641\\u0648\\u0631\\u0632\\u0626'
tp94
a(S'100002068542127'
S'Kallar Afghan'
tp95
a(S'1190653022'
S'Yassar Khan'
tp96
a(S'1183886229'
S'Abdul Saboor'
tp97
a(S'100001496505829'
S'Yaseen Yarr'
tp98
a(S'100001547182660'
S'Hameed Ullah Musazai'
tp99
a(S'1731008838'
S'Habib Daftani'
tp100
a(S'795785595'
S'Marie-\\u00c8ve Bilodeau'
tp101
a(S'100000720774910'
S'Mashal Khan Takkar'
tp102
a(S'100001053319501'
p103
S'Shereeny\\u00e3r Yousafzai'
tp104
a(S'1411845129'
S'Abrar Khan'
tp105
a(S'100002394821238'
S'Najeeb Khan Pushtun'
tp106
a(S'100001844953576'
S'Maria Afg'
tp107
a(S'100004004270684'
S'Hamid Ullah'
tp108
a(S'100001599999932'
p109
S'Akbar Khan Dawlatzai'
tp110
a(S'100000132593309'
S'Milli Pasoon'
tp111
a(S'100001648124643'
S'Najeeb Ullah Khan Najeeb'
tp112
a(S'100001894772191'
S'Batoor Khan'
tp113
a(S'100001882552459'
S'Latif Bahand'
tp114
a(S'539803764'
S'Tufail Ahmad'
tp115
a(S'100005053266205'
S'Faryal Khan'
tp116
a(S'1720741571'
S'Fazl Malik'
tp117
a(S'1327584585'
S'Mehfooz Jan'
tp118
a(S'100000510395409'
S'Honey Khan'
tp119
a(S'100002424000338'
S'Junaid Khan'
tp120
a(S'100000019199089'
S'Akbar Khan'
tp121
a(S'725419384'
S'Inamullah Maseed'
tp122
a(S'100000192721844'
S'Abdul Rahman Yousufzai'
tp123
a(S'100001285631673'
S'Nazir Hakimzai Mangal'
tp124
a(S'100003330456919'
S'M\\u00ef\\u015b\\u021f\\u00e4 M\\u00ef\\u015b\\u021f\\u00e4\\u00efm'
tp125
a(S'1465808382'
S'Anwar Saeed Afridi'
tp126
a(S'100001795297703'
p127
S'Abdulullah Khan Nasrat'
tp128
a(S'100000346091228'
S'Abdul Rauf Achakzai'
tp129
a(S'100001883938200'
S'Ali Ahmed'
tp130
a(S'100001594769079'
S'Nisar Khan Khan'
tp131
a(S'1228091539'
S'Gohar Nangyal'
tp132
a(S'100001874440272'
S'Gahez Afghan'
tp133
a(S'100001652157766'
S'Mohammad Mohmand'
tp134
a(S'100001184569604'
S'Faizullah Kakar'
tp135
a(S'100001531757501'
S'Shan Muhammad Khan'
tp136
a(S'100001458359251'
p137
S'Zahid Khan'
tp138
a(S'100001747220932'
p139
S'Bint E Hawa'
tp140
a(S'100001914908701'
S'Ikramullah Kakar'
tp141
a(S'580154930'
S'Abdul Malik Niazi'
tp142
a(S'100002361754039'
S'Maria Shah'
tp143
a(S'100002943314471'
S'Jalil Arya'
tp144
a(S'1202554019'
p145
S'Khan Younas Noorzai'
tp146
a(S'100002293582331'
S'Najib Farhad'
tp147
a(S'100000580248436'
S'Faheem Afghan'
tp148
a(S'100003480957139'
S'Halim Fidai'
tp149
a(S'100002320777536'
S'Ahmad Khan Mandokhail'
tp150
a(S'100002058103245'
p151
S'Latif Qandahari'
tp152
a(S'100004610502004'
S'Shaoq Afghan'
tp153
a(S'100000631238342'
S'Sadbar Ali'
tp154
a(S'100001155809132'
S'Shahraz Hewadpal'
tp155
a(S'100002549454060'
S'Pashton Pmap'
tp156
a(S'1059209031'
S'Zubair Torwali'
tp157
a(S'100002452858536'
S'Zeesky Afghanistan'
tp158
a(S'100002692491748'
S'Alamgir Khan Mandokhail'
tp159
a(S'100002143599345'
p160
S'Masoom Khan'
tp161
a(S'100003197470091'
S'Kalim Ullah Mandokhail'
tp162
a(S'100002732389886'
S'Rahmat Khan Aryanzai'
tp163
a(S'100003232014081'
S'Bahram Tareen'
tp164
a(S'722158422'
S'Qasim Khan Mandokhail'
tp165
a(S'100005467870845'
S'Essa Bacha'
tp166
a(S'100000325438370'
S'Bacha Khan'
tp167
a(S'100002124799955'
S'Shair Ali K'
tp168
a(S'100001293960158'
S'Ezatullah Zwab'
tp169
a(S'100002549903009'
S'Mehmood Mandokhail'
tp170
a(S'610606967'
S'Omara Khan'
tp171
a(S'100002147165358'
p172
S'Gul Meena Kasi'
tp173
a(S'100001473555521'
S'Wali Aryan Mandokhail'
tp174
a(S'100002731762732'
S'Nadeem Afg'
tp175
a(S'1695784202'
S'\\u0698\\u0645\\u0646 \\u0648\\u0631\\u062f\\u06ab'
tp176
a(S'100000473532385'
S'Haroon Hakimi'
tp177
a(S'100001628324686'
p178
S'Yaqoob Shah Gharsheen'
tp179
a(S'100000080290707'
S'Watanyar Pushtun'
tp180
a(S'100000355406575'
S'Basharmal Nasar'
tp181
a(S'100000199338444'
S'Salam Khan'
tp182
a(S'100005369343002'
S'Anp Peshawar'
tp183
a(S'100000768873991'
S'Dawer Nadi'
tp184
a(S'100004601892251'
p185
S'Khdijaa Minahh'
tp186
a(S'100000326549027'
S'Ata Khan'
tp187
a(S'100001716807518'
S'Kamil Khan'
tp188
a(S'100001913031313'
S'Sheraz Khan'
tp189
a(S'100000652185745'
S'Muhammad Nabhan Abdullah'
tp190
a(S'100000622361061'
S'Mati Sherani'
tp191
a(S'100001087565648'
S'EasyLoad BaBa'
tp192
a(S'1011070793'
p193
S'Sadiq Ali'
tp194
a(S'100002388327180'
S'Ramzan Chamanwal'
tp195
a(S'100003010231044'
S'Mir Jahan'
tp196
a(S'100001968709434'
S'Afghan Salam'
tp197
a(S'100003317771048'
S'Lala Khan'
tp198
a(S'100001376329899'
S'Ramisa Fariha'
tp199
a(S'100000897611493'
S'M Ebrahim Fruzesh'
tp200
a(S'100002975443089'
S'Brighton Kahn'
tp201
a(S'100002400984836'
p202
S'Ali Chindawoli'
tp203
a(S'834212417'
S'Jabar Bajauri'
tp204
a(S'100000578165306'
S'Mohammad Hayat'
tp205
a(S'100002425354883'
S'Engr Zafeer Tareen'
tp206
a(S'100000993657892'
S'Rahmatullah Bahram'
tp207
a(S'1265610284'
S'Amin Khatir'
tp208
a(S'100001755135392'
S'Pashtoon Janraal'
tp209
a(S'100003716458557'
S'Khashif Aman Wazir'
tp210
a(S'100000946781519'
S'Akmal Khan'
tp211
a(S'100002332345480'
S'Zaman Hamzolai'
tp212
a(S'517795319'
S'Pasoon Sadozai'
tp213
a(S'759593956'
S'Rahim Khan Tanai'
tp214
a(S'100002212029540'
S'Rehmat Khan Wazir'
tp215
a(S'100001945027036'
p216
S'Malak Umar Pso'
tp217
a(S'594193603'
S'Shaukat Khattak'
tp218
a(S'100001060561876'
S'Malak Salman Shahzada'
tp219
a(S'100001695580722'
S'Akram Musakhail'
tp220
a(S'100001725350989'
S'Rahim Sehaar'
tp221
a(S'100002012650308'
S'Akhtar Khan'
tp222
a(S'100000530091607'
S'Husanyaar Khan'
tp223
a(S'1120887149'
S'Pashtoonkhwa Webpana'
tp224
a(S'100001266118936'
S'Olasyar Kakar'
tp225
a(S'100003407044914'
S'Afghan Nangyal'
tp226
a(S'1392337946'
S'Bushra Gohar'
tp227
a(S'100002169432823'
S'Malika Helmandi'
tp228
a(S'100001115884749'
S'Asif Habibi'
tp229
a(S'100002653177368'
S'Najeebullah Sabawoon'
tp230
a(S'100002297933542'
S'Afghanzoi Afghan'
tp231
a(S'100002233405880'
p232
S'Yamma Afghanzai'
tp233
a(S'100005163422686'
p234
S'Pso Swat'
tp235
a(S'100002458623340'
S'Ali Khan'
tp236
a(S'100000930234900'
S'Wahab Bacha'
tp237
a(S'100002299257215'
S'Gohar Ali'
tp238
a(S'591151926'
S'Redi Gull Safi'
tp239
a(S'100001100063004'
p240
S'Nasrin Hamza'
tp241
a(S'1108671514'
S'Pamir Sahill'
tp242
a(S'100001626692236'
S'Roman Khan'
tp243
a(S'100001289090289'
S'Khaled Afghan'
tp244
a(S'100002728456973'
S'Sani Ubaidullah Jan'
tp245
a(S'100004603574555'
S'Sami Khan'
tp246
a(S'100001533143521'
S'Tawab Turabi'
tp247
a(S'100001087126250'
S'Muhammad Qasim'
tp248
a(S'100001253595197'
S'Nangyal Sheraz'
tp249
a(S'100004410253931'
S'\\u062f\\u062e\\u062a\\u0631\\u06cc \\u0627\\u0632 \\u0628\\u0644\\u062e'
tp250
a(S'100002511578722'
p251
S'Pashton Zoy Aliha Salam'
tp252
a(S'783171154'
S'Asad Danish'
tp253
a(S'100000404646791'
S'Hassan Buneri'
tp254
a(S'100000285219960'
S'Bazaid Khan'
tp255
a(S'100003054811540'
S'\\u0639\\u0628\\u062f\\u0627\\u0644\\u062c\\u0644\\u064a\\u0644 \\u0632\\u0631\\u0645\\u0644\\u0648\\u0627\\u0644'
tp256
a(S'100001866057521'
S'M Tariq Bazger'
tp257
a(S'1657474623'
p258
S'Riaz Ali Khan'
tp259
a(S'100000473110447'
S'Aziz Sarshar'
tp260
a(S'100000273617803'
S'Naila Awan'
tp261
a(S'100001807514643'
S'Asghar Khan Babar'
tp262
a(S'100002602494338'
p263
S'Fawad Momand'
tp264
a(S'1014916805'
S'Shamim Ali'
tp265
a(S'100002379087707'
S'Malali Shinwari'
tp266
a(S'100004455160636'
S'Khalil Dummer'
tp267
a(S'1845683843'
S'Bazger M. Tariq'
tp268
a(S'100001217717666'
S'M A Khan Mandokhail'
tp269
a(S'100004121319285'
S'Zarnosh Khan Utmankhel'
tp270
a(S'100001667840286'
S'Farhan Ziar'
tp271
a(S'100001477300431'
S'Ahmad Taheri'
tp272
a(S'100000576135366'
S'Ahmad Shah Yousafzai'
tp273
a(S'100000839321855'
S'Anwar Ali'
tp274
a(S'100001223982633'
S'Nadira Mujadidi Erfan'
tp275
a(S'627221318'
S'Suleman Khan'
tp276
a(S'521194785'
S'Behram Khan Momand'
tp277
a(S'1552785490'
S'Ahmed Zazai'
tp278
a(S'100000643175421'
S'\\u062e\\u0648\\u0633\\u062a \\u0698\\u0648\\u0631\\u0646\\u0627\\u0644\\u06cc\\u0633\\u0627\\u0646'
tp279
a(S'100002189792951'
S'Paindamohammad Baheer Ahmadzai'
tp280
a(S'100000512138598'
S'Elam Yousafzai'
tp281
a(S'100002629713428'
S'Nasir Bakhtiary'
tp282
a(S'100006810961011'
S'Daryakhan Mandokhail'
tp283
a(S'1104211701'
p284
S'Sana Baloch'
tp285
a(S'100001656780298'
p286
S'Sajia Page II'
tp287
a(S'100001941913342'
S'Farooq Khan Bareach'
tp288
a(S'100000203051954'
S'Shah Beryali'
tp289
a(S'100001057728900'
S'Malik Asim'
tp290
a(S'100000934956328'
S'Kamran Ahmadi'
tp291
a(S'100002963457655'
S'Rehmatkhan Wazir'
tp292
a(S'540943141'
S'Ahmar Mustikhan'
tp293
a(S'100002326102848'
S'Sunbal Yousafzai'
tp294
a(S'717523705'
S'Khadim Hussain'
tp295
a(S'100002407866469'
S'Qasam Bader'
tp296
a(S'1320944423'
S'Dilawar Khan Wazir'
tp297
a(S'100002992694783'
S'Aimal Khan'
tp298
a(S'100001068318188'
S'Sarfaraz Khan'
tp299
a(S'100001062874712'
S'Qudratullah Khan'
tp300
a(S'1251553151'
S'Mushtaq Liwal Amarkhel'
tp301
a(S'100004318150602'
S'Khpalwak Afghan'
tp302
a(S'100002241557706'
S'Delawar Khan'
tp303
a(S'100002027664511'
S'Imran Afghanpso'
tp304
a(S'100002724282518'
S'Pakhtoon Khan Khan'
tp305
a(S'100004073769408'
S'Mirwais Khan'
tp306
a(S'100002039604995'
p307
S'Abdul Rahim Kabir'
tp308
a(S'100000155600262'
S'Ihsan Kakar'
tp309
a(S'100004403491303'
S'Khan Achakzai'
tp310
a(S'100000150959033'
S'Jehad Noor'
tp311
a(S'100000201923950'
S'\\u0639\\u0627\\u0626\\u0634\\u0647 \\u06ab\\u0644\\u0627\\u0644\\u0626'
tp312
a(S'100001175252235'
S'Sitara Afghan'
tp313
a(S'100001395838040'
S'Tahir Zaland Mandokhail'
tp314
a(S'100001573080276'
S'Said Azam'
tp315
a(S'100002389576802'
S'Yusufzai Pukhtun'
tp316
a(S'100003401734060'
S'Zahoor Khan Bazai Zahoor'
tp317
a(S'100001661182133'
S'Stana Gul Ahmadzai'
tp318
a(S'100001284693033'
S'Farid Toofan'
tp319
a(S'100000941442919'
S'Eid Mohammad Khan Sulemankhail'
tp320
a(S'753053882'
S'Melgarai Qais Watanjaar'
tp321
a(S'100002138909208'
S'Ahmad Hussein Enayat'
tp322
a(S'704242956'
S'Alamzeb Khan'
tp323
a(S'100001893385308'
S'Akram Shaeed Unite Pmap'
tp324
a(S'100001867316542'
S'Ajab Khan'
tp325
a(S'663191803'
S'Siraj-ulhaq Yousafzai'
tp326
a(S'100001016705871'
S'Juma Hamdard'
tp327
a(S'1605215289'
S'Loy Afghanistan'
tp328
a(S'100002315391564'
S'Mojawer Zyar'
tp329
a(S'100005146381524'
S'Watanyar Khan'
tp330
a(S'100002450248249'
S'Sharbat Gula Sgula'
tp331
a(S'100002355129522'
S'Arif Khan'
tp332
a(S'1145630108'
p333
S'Khan Naqeeb'
tp334
a(S'1413781191'
S'Mohammad Idris Khan'
tp335
a(S'100000765275660'
S'Sharif Khan'
tp336
a(S'100001866363460'
S'Cphr Pakistan'
tp337
a(S'100000722836505'
S'Atal Hassankhil'
tp338
a(S'1312760754'
S'Nangyaal Yousafzai'
tp339
a(S'100001958576740'
S'IDrees Khan'
tp340
a(S'1629154896'
S'Toor Gul'
tp341
a(S'100002905939816'
S'Eng Wahid Kharoti'
tp342
a(S'100002944116991'
S'Aliya Khan Orakxai'
tp343
a(S'611808669'
S'Zakir Hussain'
tp344
a(S'100001596784146'
S'Ashiqullah Ikhlasyar'
tp345
a(S'100001005882068'
p346
S'Haider Khan'
tp347
a(S'100003706846862'
p348
S'Zakhil Afghan'
tp349
a(S'100001925701212'
S'Sadam Tareen'
tp350
a(S'100001321450607'
S'Jamaluddin Rezai'
tp351
a(S'100000080491863'
S'Iqbal Shah Swati'
tp352
a(S'100004735500061'
S'Mateen Afghan'
tp353
a(S'100003259692200'
S'Rehana Khan'
tp354
a(S'100002775534726'
S'Swat Khalaq'
tp355
a(S'100001827813443'
S'Abdul Khaliq Achakzai'
tp356
a(S'100002126701226'
S'Cristy Nillama'
tp357
a(S'100002658804808'
S'Jannat Gul Himmat Mashwani'
tp358
a(S'100001110590845'
S'Salaar Nanghyali'
tp359
a(S'100002386920244'
S'Shamraiz Khan'
tp360
a(S'100003222817434'
S'Khalid Afghan'
tp361
a(S'1798818084'
S'Fawad Ahmad Afridi'
tp362
a(S'1817469594'
S'Khudai Noor Nasar'
tp363
a(S'100000872602175'
S'Nawroz Mangal'
tp364
a(S'100005660226932'
S'Haji Zaheer Rajpoot'
tp365
a(S'1204218812'
S'Rahman Ullah'
tp366
a(S'571962146'
S'Naveed Nazari'
tp367
a(S'100000875857447'
S'Kaleem Bareach'
tp368
a(S'100004973074640'
S'Sheryar Khan'
tp369
a(S'100000759937147'
S'Nisar Samandar'
tp370
a(S'100000468819556'
S'Fawad Rehmn'
tp371
a(S'1764327682'
S'Pervez Alimi'
tp372
a(S'100003291271125'
S'Zema Janan'
tp373
a(S'100002492564814'
S'Khan Behram Khan Mandokhai'
tp374
a(S'100003775352184'
S'Khan Anwar Khan Zazai'
tp375
a(S'100002599140439'
S'Afghan Zoi'
tp376
a(S'100000473105940'
S'Nasim Wakili'
tp377
a(S'100001034153608'
S'Loy Pukhtunistan'
tp378
a(S'100000229324788'
S'\\u062d\\u0645\\u06cc\\u062f \\u0627\\u0644\\u0644\\u0647 \\u0633\\u0647\\u0627\\u06a9'
tp379
a(S'100002231090003'
S'M Ismail Panezai'
tp380
a(S'100002358512740'
S'\\u0631\\u0627\\u0647 \\u0645\\u0627'
tp381
a(S'100000582262046'
S'Habib Nassar'
tp382
a(S'100000574376939'
S'Peer Hashimi'
tp383
a(S'100000791349206'
S'\\u062e\\u06cc\\u0628\\u0631 \\u0627\\u0641\\u063a\\u0627\\u0646'
tp384
a(S'100002847807480'
S'Pirshams Ullah'
tp385
a(S'100002128051717'
S'Numan Hashmi'
tp386
a(S'100000507548238'
S'Aurangzeb Khan Zalmay'
tp387
a(S'100002385358706'
S'\\u062d\\u0645\\u06cc\\u062f\\u0627\\u0644\\u0644\\u0647 \\u0645\\u0644\\u062a\\u06cc\\u0627\\u0631'
tp388
a(S'1176469754'
S'John Michael Walker'
tp389
a(S'100001398325388'
S'Shaheed Najibullah'
tp390
a(S'100001141380921'
S'Hassan Jalalzai'
tp391
a(S'100003224616566'
S'Batoor Yousafzai'
tp392
a(S'100001902226507'
S'Abdul Qadeem Tareen'
tp393
a(S'100003216847115'
p394
S'Saddiq Khan Achakzai'
tp395
a(S'100004995517825'
S'QaamParast Baghee'
tp396
a(S'1190707750'
S'Christophe Maisseu'
tp397
a(S'1702152625'
S'Gull Khan'
tp398
a(S'686435542'
S'Jahan Zeb Khan'
tp399
a(S'100000851975178'
S'Haji Qudratullah Rahimi'
tp400
a(S'1145897636'
S'Habib Jan'
tp401
a(S'100004170700036'
S'\\u0633\\u0646\\u06ab\\u064a\\u0646 \\u064a\\u0648\\u0633\\u0641\\u0632\\u06cc'
tp402
a(S'100003303487384'
S'Rahbar Afghan'
tp403
a(S'100002532275703'
S'Afghan YouthAssociation'
tp404
a(S'100001885921316'
S'Shahood Bacha'
tp405
a(S'1322988490'
S'Naveed Ahmed'
tp406
a(S'100002095252876'
S'\\u0627\\u064a\\u0648\\u0628 \\u06a9\\u0679\\u0648\\u0627\\u0632\\u06cc'
tp407
a(S'100002513714265'
p408
S'Nizam Master'
tp409
a(S'739054739'
S'Asgher Khan'
tp410
a(S'100002257983426'
S'Angar Neeknam'
tp411
a(S'100000784246210'
S'Nazari Katawazai'
tp412
a(S'100003249515302'
S'Shah Room Khan'
tp413
a(S'100000225071218'
S'Mazhar Shaheen'
tp414
a(S'1415720762'
S'Pukhtun Khwa'
tp415
a(S'100000749193965'
p416
S'Salameen Khan'
tp417
a(S'100004737153494'
p418
S'Dainmond East'
tp419
a(S'100002369652325'
S'Shamsullah Rahmat'
tp420
a(S'100002101183663'
S'Imran Watanyar'
tp421
a(S'100001247721225'
S'Ahmad Ali Buneri'
tp422
a(S'100003202205907'
S'Pari Gak Tanha Tanha'
tp423
a(S'100002179272025'
S'Shaukat Ali Shah'
tp424
a(S'100001422130850'
S'\\u062d\\u0633\\u0646 \\u062c\\u0627\\u0646 \\u062e\\u0627 \\u0637\\u0631'
tp425
a(S'100003029571853'
S'Muhammad Afghan Mushwani Mushwani'
tp426
a(S'644004619'
S'Mohammad Farid Nasar'
tp427
a(S'100000393892158'
S'Nazar Barech'
tp428
a(S'1845150592'
S'Haider Ali Khan'
tp429
a(S'100002746184903'
S'Zadran Ahamad'
tp430
a(S'1153870404'
S'Muhammad Arshad'
tp431
a(S'1153191051'
S'Zahid Buneray'
tp432
a(S'709622857'
S'Moosa Khan Mandokhail'
tp433
a(S'100001922621555'
S'Bacha Khan'
tp434
a(S'846775267'
S'Zarlakhta Mangal'
tp435
a(S'100001686773417'
S'Xeyad Alam'
tp436
a(S'513374602'
S'\\u0645\\u062d\\u0645\\u062f\\u0627\\u0644\\u0644\\u0647 \\u06a9\\u0645\\u0627\\u0644'
tp437
a(S'100000579267216'
S'Salar Khan'
tp438
a(S'683145107'
S'Fatana Ishaq Gailani'
tp439
a(S'100001843455643'
S'Muhammad Faisal Khan'
tp440
a(S'100002397703494'
S'Millat Pal'
tp441
a(S'100000495063621'
S'Zain Ul Ahmad'
tp442
a(S'100001569074532'
S'Wajid Khan'
tp443
a(S'100001314201956'
S'Abdul Razzaq Khan'
tp444
a(S'100000977804549'
S'Khyber Khan'
tp445
a(S'100001327159030'
S'Khial Gul'
tp446
a(S'100001898386365'
S'Fareed Niazai'
tp447
a(S'100001055989637'
S'Ijaz Ulhaq'
tp448
a(S'100001859866454'
S'Imran Agha'
tp449
a(S'813075170'
S'Ayaz Tuchiano'
tp450
a(S'100000726773513'
p451
S'\\u062c\\u0645\\u0627\\u0644 \\u06a9\\u067c\\u0648\\u0627\\u0632\\u06cc'
tp452
a(S'100004994042583'
S'Obaidullah Khan Mandokhail'
tp453
a(S'100001173543568'
S'Najeem Yalmaan'
tp454
a(S'100002213218048'
p455
S'Nadia Achakzai'
tp456
a(S'100000652652986'
S'Asmat Khan'
tp457
a(S'100002023445534'
S'Rauf Raufi'
tp458
a(S'100001023698504'
S'Inayat Tareen'
tp459
a(S'100004107103948'
S'Afghan Dost'
tp460
a(S'100001955472298'
S'Sadiqali Yousafzai'
tp461
a(S'1846380466'
S'\\u064a\\u0627\\u0631 \\u0645\\u062d\\u0645\\u062f \\u0627\\u062e\\u0648\\u0646\\u0630\\u0627\\u062f\\u0647'
tp462
a(S'100001581281432'
S'Saleem Nasar Watan Jar'
tp463
a(S'100002254136308'
S'Yaqoob Nassari'
tp464
a(S'100001443512683'
S'Nagyaly Pashtun'
tp465
a(S'1263407131'
S'Julie Di'
tp466
a(S'100000452080045'
S'Stanizai Farid Ahmad Alam'
tp467
a(S'100005889425816'
p468
S'\\u067e\\u069a\\u062a\\u0648\\u0646\\u062e\\u0648\\u0627\\u0645\\u06cc\\u067e \\u0686\\u0645\\u0646'
tp469
a(S'100000024436547'
S'Zia Ftians'
tp470
a(S'100000959595113'
S'Habib Rustam'
tp471
a(S'100002174457087'
S'Abdul Nafah Achakzai'
tp472
a(S'100001721741605'
S'\\u0622\\u0632\\u0627\\u062f\\u06cc \\u062e\\u0648\\u0627\\u0647\\u0627\\u0646'
tp473
a(S'100002697094087'
S'Muhabat Khan Malazai'
tp474
a(S'614783865'
S'Naseer Kakar'
tp475
a(S'100001666073196'
S'Pir Muhammad Khan'
tp476
a(S'100001127732512'
S'Amjad Dost'
tp477
a(S'100003948183971'
S'Imran Khan Mandokhail'
tp478
a(S'100000959572722'
S'Askar Maseed'
tp479
a(S'100000726414376'
S'Said Wali'
tp480
a(S'100000185242602'
S'Karan Khan'
tp481
a(S'100001346162871'
S'Ayesha Khan'
tp482
a(S'100002039535406'
S'Kherkhewa Swat'
tp483
a(S'100002028675014'
S'Aman Faiq Jalalkhel'
tp484
a(S'100001441153775'
S'Habib Ur Rehman Solangi'
tp485
a(S'100004104924021'
S'\\u0646\\u0648\\u0631 \\u062a\\u0631\\u0647 \\u06a9\\u06cc'
tp486
a(S'100000782746357'
S'Sherin Zada'
tp487
a(S'1281623084'
S'Ihsan Kakar'
tp488
a(S'100002924463410'
S'Farhad Ali'
tp489
a(S'100003355393111'
S'Afghan Khan'
tp490
a(S'1833554990'
S'Meva Jan'
tp491
a(S'100000851864668'
S'Zahid Safi'
tp492
a(S'100002602253143'
S'Karim Bunneri'
tp493
a(S'100000789003345'
S'Ha Ma'
tp494
a(S'682877280'
p495
S'Vali Nasr'
tp496
a(S'100000743080282'
S'Alam Zeb Khalil'
tp497
a(S'100000118202680'
S'Amjad Dashti'
tp498
a(S'100002633210211'
S'Anp Fore'
tp499
a(S'100002367945137'
p500
S'Said Habib Afghan'
tp501
a(S'100002633770587'
S'Sadaf Followers'
tp502
a(S'718669461'
S'Ehsan Khan'
tp503
a(S'1694272254'
S'Badar Aryan'
tp504
a(S'100001401083529'
S'Roeen Haidari'
tp505
a(S'100000743683742'
S'Attaullah Khan Badezai'
tp506
a(S'100001761188831'
S'Naeem Khan'
tp507
a(S'100001344689078'
S'Sawash Herat'
tp508
a(S'100001839062339'
S'Sadiq Zharak'
tp509
a(S'100003472291950'
S'Anayat Shah Afghan'
tp510
a(S'100002953913819'
S'Sangaryar Kakar'
tp511
a(S'100000579204889'
S'Naeem Khan'
tp512
a(S'100001454257392'
S'Flood Affecties Nha'
tp513
a(S'100003359322207'
S'Abdul Zahir'
tp514
a(S'100001713619231'
S'Sarnavesht Daily'
tp515
a(S'100000534613250'
S'Azam Khan'
tp516
a(S'100002485895549'
S'Adam Khan'
tp517
a(S'100000796897087'
S'Sadiq Zaland'
tp518
a(S'1073042986'
S'Intikhab Alam'
tp519
a(S'100002613160632'
S'Najeebullah Sahak'
tp520
a(S'100003564965738'
S'\\u0627\\u0641\\u063a\\u0627\\u0646\\u0633\\u062a\\u0627\\u0646 \\u0627\\u0641\\u063a\\u0627\\u0646\\u0633\\u062a\\u0627\\u0646'
tp521
a(S'100001305535407'
S'Mahmood Zalaand'
tp522
a(S'100003330368348'
S'Pameer Khan'
tp523
a(S'100002000697378'
S'Haroon Akbari'
tp524
a(S'100002109947105'
S'\\u062e\\u062f\\u0645\\u062a\\u06af\\u0627\\u0631 \\u0648\\u0631\\u0681\\u067e\\u0627\\u06bc\\u0647'
tp525
a(S'100002995371110'
p526
S'Malik Bazai'
tp527
a(S'1035406704'
S'Adilur Rahman'
tp528
a(S'100000789106031'
S'Noor Khan'
tp529
a(S'1199853001'
S'Rifatullah Orakzai'
tp530
a(S'100001389232654'
S'Hameed Khilji'
tp531
a(S'100001077621120'
S'Izhar Bacha'
tp532
a(S'100001655910634'
S'Amanullah Iman'
tp533
a(S'100002397635331'
p534
S'Imran Khan Battezai'
tp535
a(S'100001371422926'
p536
S'Wafiullah Safi'
tp537
a(S'100001628923855'
S'DrAsmat Arian'
tp538
a(S'100001066004183'
S'Mohd Shoaib Khpalwak'
tp539
a(S'1263730646'
S'Nasir Afridi'
tp540
a(S'100000839206265'
S'Iftikhar Ali'
tp541
a(S'1405488402'
S'Wais Shirzai'
tp542
a(S'728822913'
S'Ijaz Khan'
tp543
a(S'100003258227787'
S'Emal Faizi'
tp544
a(S'100001992919450'
S'Musahib Hussain'
tp545
a(S'100000456944636'
S'Amir Likwal'
tp546
a(S'100002690981777'
S'Ahmed Shah'
tp547
a(S'100004665990501'
S'Sabir Roshan'
tp548
a(S'100002966614831'
S'Khan Jee'
tp549
a(S'100002539963698'
S'Asghar Wazir'
tp550
a(S'1843164945'
S'Roeed Himat'
tp551
a(S'1222710664'
S'Habibul Hassan'
tp552
a(S'100000421674529'
S'Rafi Zaland'
tp553
a(S'100002259621386'
S'Taseer Khan'
tp554
a(S'100002155423739'
S'Afghanzoi Afghan'
tp555
a(S'100000502856017'
S'\\u0645\\u062e\\u062a\\u0627\\u0631 \\u0627\\u0685\\u06a9\\u0632\\u06cc'
tp556
a(S'100002140231772'
S'Amanullahkhan Kharoti'
tp557
a(S'100002768206573'
S'Gul Naaz'
tp558
a(S'100002617683871'
S'Qahar Katawazai'
tp559
a(S'100001727119501'
p560
S'Baheer Afghan Muhmadzai'
tp561
a(S'100001755935264'
S'Janan Khan'
tp562
a(S'100002705958514'
S'Khalid Khan'
tp563
a(S'100000146386796'
S'Tariq Khan'
tp564
a(S'100003578885390'
p565
S'Farman Ali Khan'
tp566
a(S'100000719929405'
S'Luke Simmons'
tp567
a(S'100003064132633'
S'Misri Khan Momand'
tp568
a(S'100001750079162'
S'Ghairat Baheer'
tp569
a(S'100001399512484'
S'Afghan Katawazai'
tp570
a(S'100002904893407'
S'Haroon Khan'
tp571
a(S'1580405770'
S'Ajmal Gharwal'
tp572
a(S'100000624781834'
S'Feroz Khan'
tp573
a(S'1821733618'
S'Abaseen Eusaphxai'
tp574
a(S'100002797087737'
p575
S'\\u0627\\u0634\\u0631\\u0641 \\u063a\\u0646\\u064a'
tp576
a(S'100000634592428'
S'Firdous Jamal Khan'
tp577
a(S'100002395629964'
S'Mushtaq Mahsood Gharwal'
tp578
a(S'100000814823146'
S'Mrastyal Yousafzai'
tp579
a(S'100000349034689'
S'Mosam Hamidi'
tp580
a(S'100002043426675'
p581
S'Pakhtoonkhwa Map Sindh'
tp582
a(S'100005768281811'
p583
S'Asmat Khan Kakar'
tp584
a(S'100002056131094'
S'Human Rights Watch Pakistan'
tp585
a(S'100001637688530'
S'Nabil Hamad'
tp586
a(S'100000103130951'
S'Masoom Hurmaz Dawar'
tp587
a(S'731453963'
S'Habib Afghan'
tp588
a(S'100002433215520'
p589
S'Halim Salimi'
tp590
a(S'100001176731692'
S'Fazal Rehman Mandokhail'
tp591
a(S'100000316719851'
S'Muhammad Ayaz'
tp592
a(S'737243525'
S'Asfandyar Khan Jogezai'
tp593
a(S'100001692363952'
S'Geologist Naseer Kakar'
tp594
a(S'100003155209893'
S'Ahmad Zaib Khan'
tp595
a(S'100000960325331'
S'Suraj Achak'
tp596
a(S'100001635524744'
S'Shah G Afghan Pal'
tp597
a(S'100000893799926'
p598
S'Fazalyar Fazalhadi'
tp599
a(S'1339731992'
S'Sayed Hussain'
tp600
a(S'100000197512960'
S'Jumma Babar'
tp601
a(S'100001408618869'
S'Qareebullah Atal'
tp602
a(S'100002389834889'
S'Sher Khan Tarakai'
tp603
a(S'100000298175847'
S'Matiullah Khan'
tp604
a(S'1557742471'
S'Nabila Ebrahimi'
tp605
a(S'1224706203'
S'Muhammad Sajid Anwar'
tp606
a(S'100001124413903'
S'Abdul Bari Jahani'
tp607
a(S'100001028408086'
S'Shaheed Daud Khan Wathanpal'
tp608
a(S'100003953368506'
S'Wali Khan Dummar'
tp609
a(S'100000343312366'
S'-Faheem Khan'
tp610
a(S'100003481184892'
p611
S'Khaliqdad WatanPal'
tp612
a(S'100003302635451'
S'Milli Afghan Footballcluab'
tp613
a(S'100001823337770'
S'Kamal Khan Mandokhail'
tp614
a(S'100000676519191'
S'Najeeb Kakar'
tp615
a(S'100000048142072'
S'Syed Khan'
tp616
a(S'100003033258464'
S'Afghan Kakar'
tp617
a(S'1349401365'
S'Jelani Zwak'
tp618
a(S'100003506410345'
S'Baqi Khan'
tp619
a(S'100001403000938'
S'Sheikh Esfand Iar Mandokhail'
tp620
a(S'100000796449252'
S'Wali Wali'
tp621
a(S'100000240839116'
S'Fareed Ahmed'
tp622
a(S'100002146160909'
S'Billy Hunter'
tp623
a(S'100003255254247'
S'Rahman Dawlatzai'
tp624
a(S'100001450494954'
S'Jalal Watanyar'
tp625
a(S'100003043152759'
S'Educate Swat'
tp626
a(S'100002284796741'
S'Sheryar Khan'
tp627
a(S'100002595127961'
S'Yarhussain Swabi Pakhtunkhwa'
tp628
a(S'100002048360527'
S'Imran Afghan'
tp629
a(S'1803712379'
p630
S'Aiz Khan Bareach'
tp631
a(S'100002151115364'
S'Mast Halak Khan'
tp632
a(S'1824158012'
S'Sajid Sultan'
tp633
a(S'100002226941000'
S'Yasir Kaliwal'
tp634
a(S'100000701276715'
S'Yousaf Khan Noorzai'
tp635
a(S'100001397962554'
S'Noor Badshah Yuosfzai'
tp636
a(S'100000675757732'
S'Mumtaz Wazir'
tp637
a(S'100002242428009'
S'Mir Wali'
tp638
a(S'100000240219996'
S'Wahid Khan'
tp639
a(S'100002101671654'
p640
S'Vicky Bannu'
tp641
a(S'100000216051703'
S'Nafees Ahmad'
tp642
a(S'100003111610990'
S'Majeed Qarar'
tp643
a(S'100000607741513'
S'Afsaa Durrani'
tp644
a(S'100002398899930'
S'Yasir Khan Kakar'
tp645
a(S'100000418107479'
S'Dervaish Gharanay Apriday'
tp646
a(S'1638401336'
S'Zar Ali Khan Afridi'
tp647
a(S'100002402892046'
S'Syed Qudratullah'
tp648
a(S'1221455768'
S'Javed Ahmad'
tp649
a(S'100001570611693'
S'Inqilabi Pukhtuns Inqilabi Pukhtuns'
tp650
a(S'780940345'
S'Abdul Hai Kakar'
tp651
a(S'100003730292907'
S'Watan Gran'
tp652
a(S'1312317671'
S'Spin Tanay'
tp653
a(S'100002372301823'
S'Fahim Khan Popalzai'
tp654
a(S'100001218616401'
p655
S'Syed Ghafar Shah'
tp656
a(S'100002790541583'
S'Phoophe Raphree'
tp657
a(S'100001794790728'
S'\\u067e\\u069a\\u062a\\u0648\\u0646 \\u062e\\u0648\\u0696\\u06cc\\u0627\\u06bc\\u06cc\\u0648\\u0627\\u0644'
tp658
a(S'100001989290655'
S'Shah Nawaz'
tp659
a(S'100004921893284'
S'Hamdullah Noorzai'
tp660
a(S'1168123581'
S'Subhan Khan'
tp661
a(S'100003102094490'
S'Jehanzeb Jamaldini'
tp662
a(S'100000883224636'
S'\\u062e\\u0628\\u0631\\u06cc\\u0627\\u0644 \\u0648\\u06cc\\u0628 \\u067e\\u0627\\u06bc\\u0647'
tp663
a(S'100002895697723'
S'Afghan Pal'
tp664
a(S'100001864290099'
S'Kamil Khan Kaliwal'
tp665
a(S'100002647061337'
S'Shahid Alam'
tp666
a(S'792450390'
S'Inayet Hadi'
tp667
a(S'100003193939902'
S'Islam Khan'
tp668
a(S'100002092883192'
S'Za Pashtoon'
tp669
a(S'100001049451421'
S'Afrasiab Khan Mandokhail'
tp670
a(S'100005754699179'
S'Darya Khan'
tp671
a(S'100000258876933'
S'Karim Khan'
tp672
a(S'100000562865441'
S'Ghulam Zarmalwal'
tp673
a(S'1154168166'
S'Yama Bariz'
tp674
a(S'100001535596427'
p675
S'Afghanistan Peace'
tp676
a(S'100000343535219'
S'Mbbs China'
tp677
a(S'1274501670'
S'\\u0627\\u0628\\u0648 \\u062c\\u0627\\u0648\\u06cc\\u062f \\u06a9\\u067c\\u0648\\u0627\\u0632\\u06cc'
tp678
a(S'100002462332674'
S'Mahmoud Karzai'
tp679
a(S'100001056297000'
S'Watan Dost'
tp680
a(S'100000043905832'
S'Nasar Zadran'
tp681
a(S'100001183663352'
S'Abdul Wahid Khan Isapzai'
tp682
a(S'100001524205027'
S'Shah Faisal Khan'
tp683
a(S'100002948830597'
S'Pishin Pashtoonkhawa'
tp684
a(S'100001645640721'
S'Arbab Khan Kasi'
tp685
a(S'847704095'
S'Ikram Comrade'
tp686
a(S'100001269858210'
S'Afghan YouthAgenda'
tp687
a(S'100002096919145'
S'Munawar Ahmed'
tp688
a(S'100002285098262'
S'Hadi Rahmani'
tp689
a(S'100002447899299'
S'Loy Afghanistan'
tp690
a(S'516566739'
S'Azad AfghanZamin'
tp691
a(S'100003122224594'
S'Irfan Davi'
tp692
a(S'100001786345189'
S'Atal Ahmadzai'
tp693
a(S'100002316379850'
S'Mahmood Afghan'
tp694
a(S'100000953072526'
S'Afg Humdard'
tp695
a(S'100000955342002'
S'Pakhtoon Unity'
tp696
a(S'100001307137372'
S'Suleman Kakar'
tp697
a(S'100000418105473'
S'Eak Wafa'
tp698
a(S'100003344834688'
S'Ali Ahmed'
tp699
a(S'100000258635279'
S'Musarat Shinwari'
tp700
a(S'100000703107205'
S'Arian Khan'
tp701
a(S'1405631828'
S'Asim Jaan'
tp702
a(S'100001973894147'
S'\\u0639\\u0628\\u062f\\u0644\\u0642\\u0648\\u06cc \\u0645\\u0631\\u0627\\u062f'
tp703
a(S'100000696437621'
S'Touseef Ur Rehman'
tp704
a(S'100000804722465'
S'Rashid Mughal'
tp705
a(S'100000866376481'
S'Muhammad Zaman Adil'
tp706
a(S'100003052492992'
S'Sara Hassan'
tp707
a(S'100002823611523'
S'Ahmadzai Sangeen'
tp708
a(S'1517862137'
S'Pashtoon Yaar'
tp709
a(S'100002153178268'
S'Bannu District'
tp710
a(S'100003239113297'
S'Abdul Qahar Khan Wadan'
tp711
a(S'100002296210945'
S'Muhammad Yar'
tp712
a(S'100002622111469'
S'Nasir Achakzai'
tp713
a(S'1564392912'
S'AzAd KhAn'
tp714
a(S'100002250624404'
S'Faheem Kasi'
tp715
a(S'100001962808901'
S'Watan Yaar Afghan'
tp716
a(S'1122800108'
S'Sulaiman Khan Mandanr'
tp717
a(S'100001881345890'
S'Naseeb Ullah Kakar'
tp718
a(S'100001241938561'
S'Jamal Zaib'
tp719
a(S'100003253927358'
S'Khan Lala'
tp720
a(S'1341211288'
S'Barakwal Myakhel'
tp721
a(S'100002313952644'
S'Haris Khan Zazai'
tp722
a(S'100000392526802'
S'Shar Jan'
tp723
a(S'1410428319'
S'Rafiullah Stanikzai'
tp724
a(S'100000764399134'
S'Zalmai Afghan Paal'
tp725
a(S'100002483551687'
S'Kheber Khan Golpy Golpy'
tp726
a(S'100000207552299'
S'Murad Afghan'
tp727
a(S'100003077596675'
S'Ebrahim Nahimi'
tp728
a(S'100002029583554'
S'PurePashtun Pashtun'
tp729
a(S'100000274808426'
S'Afghan Masood'
tp730
a(S'1281924918'
S'Mehmood Ahmed'
tp731
a(S'1324009693'
S'Amin Liaqat'
tp732
a(S'1020466748'
S'Najeeb Khan'
tp733
a(S'100000594451533'
S'Arshad Ali'
tp734
a(S'100001709814736'
S'Sabawoon Khan Shahab'
tp735
a(S'100003022005263'
S'Afghan Khan'
tp736
a(S'100002055011985'
S'Muhammad Parvez Khan'
tp737
a(S'100001718744308'
p738
S'Shakoor Khan'
tp739
a(S'100000574644283'
S'Afghan Diplomats'
tp740
a(S'100002135979205'
S'Shazadasaleem Khan'
tp741
a(S'100002487249316'
S'Bacha Khan'
tp742
a(S'100001817308944'
S'Mehmood Shah'
tp743
a(S'100002372439373'
S'Kashif Hassan Yousafzai'
tp744
a(S'100001362591505'
S'Zmaray Baher'
tp745
a(S'100003501451234'
S'Mardan Peoples'
tp746
a(S'100000834912016'
S'Nooragha Pashtoon'
tp747
a(S'609984747'
S'Saifullah Paktin'
tp748
a(S'100001337941465'
S'Mohammad Haroon Hamim'
tp749
a(S'100000903485052'
S'Salam Pukhtunkhwa'
tp750
a(S'100001668533905'
S'Hashmat Karzai'
tp751
a(S'743668666'
S'Afghan Ryahan'
tp752
a(S'100001429660945'
S'Wali Achak'
tp753
a(S'100002594166473'
S'Tufiq Afghan'
tp754
a(S'100001390125858'
p755
S'Zubania Afghani'
tp756
a(S'100002785889113'
p757
S'Ariana Aslam Alizai'
tp758
a(S'100001324347676'
S'Aziz Spinghar'
tp759
a(S'100000920402263'
p760
S'Naseer Nangial'
tp761
a(S'100002842809975'
S'Stara Afghan'
tp762
a(S'1196926260'
S'Arif Tabassum'
tp763
a(S'505834895'
p764
S'Soldat Amir'
tp765
a(S'100002698282300'
S'\\u0633\\u062a\\u0627\\u0645\\u064a\\u0693\\u0627\\u0646\\u064a \\u0633\\u0644\\u0627\\u0645'
tp766
a(S'100000340172640'
S'\\u0633\\u0627\\u062c\\u062f \\u06cc\\u0648\\u0633\\u0641\\u0632\\u0626'
tp767
a(S'100001867094586'
S'Zahid Ahmed'
tp768
a(S'100002092907917'
S'Zaryab Barech'
tp769
a(S'100002318554721'
S'Nomi Hasan Zai'
tp770
a(S'100001691750060'
S"Jaan'z Afghan Afghan"
tp771
a(S'100002655601863'
S'Haseeb Gul'
tp772
a(S'100003182146779'
S'Nisar Khan'
tp773
a(S'100004337741021'
S'Qutab Din Basharmal'
tp774
a(S'100000560470749'
S'Shokrullah Shakire'
tp775
a(S'100002634602071'
S'Gran Afghan'
tp776
a(S'518328007'
S'Kiran Nazish'
tp777
a(S'100000921120242'
S'Na Pohegam'
tp778
a(S'100000263054156'
S'Umair Malgari'
tp779
a(S'100000645006680'
S'Bashir Jan'
tp780
a(S'100001949160772'
S'Noorali Khan Achakzai'
tp781
a(S'1579745216'
S'Aryan Niazi'
tp782
a(S'100000207823087'
S'Afrasiab Khattak'
tp783
a(S'100003727714261'
S'Sallahuddin Khan'
tp784
a(S'1753674715'
S'Bilal Ahadyar'
tp785
a(S'100000251048722'
S'Zabih Ullah Hassan'
tp786
a(S'100002474105217'
S'Noor Afghan Zadran'
tp787
a(S'100003716710718'
p788
S'Fareed Baryal Kakar'
tp789
a(S'100001137914744'
S'\\u0645\\u06cc\\u0627\\u06ab\\u0644 \\u0639\\u0627\\u062f\\u0644'
tp790
a(S'100002540529816'
p791
S'InstaTelecom Afghanistan'
tp792
a(S'100002310948543'
S'Brayden PG'
tp793
a(S'100002361683299'
S'Sana Khan'
tp794
a(S'100003627263050'
S'Shanzey Paracha'
tp795
a(S'100000707855544'
S'Baaz Afghan'
tp796
a(S'100007184917552'
S'\\u0645\\u0646\\u06cc\\u06c1 \\u06af\\u0644 \\u0645\\u0646\\u06af\\u0644'
tp797
a(S'100000508832445'
S'Engr Hikmat Khan'
tp798
a(S'100003387044647'
S'Syed Najeeb Haqparast'
tp799
a(S'100002843822448'
S'Manzoor Ahmed Zaib'
tp800
a(S'100001733128339'
p801
S'Matiullah Alami'
tp802
a(S'609136778'
S'Hameed Ullah Wazir'
tp803
a(S'100002957676839'
S'Khalid Mehmood'
tp804
a(S'100001065913420'
S'Khan Mohsin'
tp805
a(S'100003052328218'
S'No Durand Line'
tp806
a(S'100002348465233'
S'Khan Jahangir Khan'
tp807
a(S'100000140923148'
S'Saeedullah Khan'
tp808
a(S'100000944710158'
S'Sajid Aman'
tp809
a(S'100001469460841'
p810
S'Zeb Muntazer Masid'
tp811
a(S'100002363591980'
S'Sola Mal'
tp812
a(S'100002140213154'
S"A'mad Shah Pashtoon"
tp813
a(S'100000508593641'
S'Ijlal Habib'
tp814
a(S'1343323662'
S'Sadiq Mian'
tp815
a(S'100001278122806'
S'Asha Rahman'
tp816
a(S'100000516797940'
S'Zaman Faryadi'
tp817
a(S'100000265302854'
S'Motakhel Paktika Nazar Nazari'
tp818
a(S'100001106336763'
S'Bilal Jan'
tp819
a(S'100003179929113'
S'Kitabtoon Tolana'
tp820
a(S'1298352651'
S'Asal AchakZai'
tp821
a(S'100002766986580'
S'Dirojay Afghan'
tp822
a(S'1248531503'
S'Yousafzay Ashna'
tp823
a(S'100002938110774'
S'Malik Afghan'
tp824
a(S'1112866072'
S'\\u0645\\u062d\\u0645\\u062f \\u0646\\u0627\\u0635\\u0631 \\u0627\\u0634\\u0646\\u0627'
tp825
a(S'100000779598245'
S'Shafiqullah Af'
tp826
a(S'100001261434586'
S'King Khan'
tp827
a(S'100000950203133'
S'Mohammad Saad Ali'
tp828
a(S'100002569590286'
S'Abdul Hakim Noorzai'
tp829
a(S'100001925179916'
p830
S'Baran Baloch'
tp831
a(S'100000630369188'
S'Javed Iqbal'
tp832
a(S'100002607503153'
S'Rasooljan Khan'
tp833
a(S'100002191008508'
S'Omar Khan'
tp834
a(S'1018749577'
S'Ahmad Shah'
tp835
a(S'100000723614626'
S'Hedayatullah Hedayat'
tp836
a(S'100000885373502'
S'Peacelover Pakhtoon'
tp837
a(S'100001713744776'
S'Tariq Aziz Yousafzai'
tp838
a(S'100002101403122'
S'Naso Khan Kakar'
tp839
a(S'100002659128238'
S'Pakhto Aw Pakhtana'
tp840
a(S'100000165789057'
S'Jalal Khan'
tp841
a(S'100001513653991'
S'Zia Mandokhail'
tp842
a(S'100003021644373'
p843
S'Geo Corege'
tp844
a(S'1704445724'
p845
S'Sarwar Ahmedzai'
tp846
a(S'100000974927645'
S'Inam Zeb Afghan'
tp847
a(S'100001432191994'
S'Faisal Asadi'
tp848
a(S'100003160968903'
S'\\u062d\\u0627\\u0645\\u062f \\u06a9\\u0631\\u0632\\u06cc'
tp849
a(S'1476396891'
S'Atal Z Safi'
tp850
a(S'100001902885048'
S'\\u015eh\\u0119ikh Majeed Man\\u010f\\u00f3khail'
tp851
a(S'100002230638273'
S'Afghan Pashtun Khan Pathan'
tp852
a(S'100002609045642'
S'Farhan Khaliq Anwer'
tp853
a(S'100002129694780'
S'\\u0633\\u0648\\u0627\\u0644\\u0648\\u0646\\u0647 \\u0627\\u0648 \\u062c\\u0648\\u0627\\u0628\\u0648\\u0646\\u0647'
tp854
a(S'1516432502'
S'Amo Sin'
tp855
a(S'100000555434448'
S'Shafiq Ullah Mateen'
tp856
a(S'100000722546920'
p857
S'Rohail Barecey'
tp858
a(S'100000669905015'
S'Rizwan Ullah'
tp859
a(S'100001248106835'
S'Asif Mehsood'
tp860
a(S'100000670205800'
S'Alia Rawi Akbar'
tp861
a(S'100001867569142'
S'Faiz Wang'
tp862
a(S'100005055064707'
S'Salar Khan Salar'
tp863
a(S'1453030656'
S'Behroz Khan'
tp864
a(S'100002357945368'
p865
S'\\u067e\\u069a\\u062a\\u0648 \\u0632\\u0645\\u0627 \\u0698\\u0628\\u0647 \\u062f\\u0647'
tp866
a(S'646082283'
S'Aziz Buneri'
tp867
a(S'100001643632018'
S'\\u0633\\u0639\\u064a\\u062f \\u0632\\u0627\\u0628\\u0644\\u06cc'
tp868
a(S'100001658595585'
S'Hafiz Tareen Hafiz Tareen'
tp869
a(S'1558892188'
S'Janet Rosales'
tp870
a(S'100002773331560'
S'Ghmai Zalmai'
tp871
a(S'100002462053221'
S'Khaber Los'
tp872
a(S'100002207632477'
S'Asad Khan'
tp873
a(S'100001497556206'
S'Zia Mal Sherani'
tp874
a(S'100000927051079'
S'Bob Bay'
tp875
a(S'100004795295064'
S'Dawood Amin'
tp876
a(S'100001287470591'
S'Nazeer Yousafzai'
tp877
a(S'100002931315846'
S'Engr Zarwalikhan Wazir'
tp878
a(S'1421916858'
S'Ariana Pashtana'
tp879
a(S'669773338'
S'Najeebullah Nasrat'
tp880
a(S'100002604425340'
S'Nasrullah Stanekzai'
tp881
a(S'100001101249146'
S'Zarine Khan'
tp882
a(S'100002159139323'
S'\\u0627\\u0641\\u063a\\u0627\\u0646 \\u0681\\u0648\\u0627\\u0646'
tp883
a(S'100001666899640'
p884
S'Afghannang Pakhto Web Pana'
tp885
a(S'1224455615'
S'Abdul Rauf Sahebzada'
tp886
a(S'100001589473756'
S'Haroon Safi'
tp887
a(S'100002470133925'
S'King Safi'
tp888
a(S'100006756575710'
S'Muhammad Siddique Mandokhail'
tp889
a(S'654201332'
S'Khalid Nasiri'
tp890
a(S'100001050766093'
S'\\u0634\\u0627\\u0647 \\u0645\\u062d\\u0645\\u0648\\u062f \\u06a9\\u0689\\u0648\\u0627\\u0644'
tp891
a(S'100004480510904'
S'Fayaz Khan'
tp892
a(S'1318634411'
S'Ayub Tareen'
tp893
a(S'100001172714692'
p894
S'Syed Ehsan Agha'
tp895
a(S'100001382836657'
S'Ajmal Shinwari'
tp896
a(S'100000789340616'
S'Naqib Jogezai'
tp897
a(S'100001281708078'
S'\\u0639\\u0627\\u0628\\u062f \\u0632\\u0627\\u0628\\u0644\\u0626'
tp898
a(S'100002360988638'
S'Daily Qudrat'
tp899
a(S'100000697278504'
S'Olus Yar'
tp900
a(S'100002304265912'
S'Watan Pason'
tp901
a(S'100001046728769'
S'AwalGul Miankhail'
tp902
a(S'100004432290582'
S'Habib Khan Totakhil'
tp903
a(S'1513705769'
S'Afghani Afghan Afghan'
tp904
a(S'590060161'
S'Kamal Khan'
tp905
a(S'100001446576650'
S'Najibullah Zeyarmal'
tp906
a(S'100001666023546'
p907
S'Afghan Studentsunion'
tp908
a(S'1342112256'
S'Faheem Akbar'
tp909
a(S'698422574'
S'Shaheen Buneri'
tp910
a(S'100000290174059'
S'Mohammad Yousaf Srg'
tp911
a(S'100001864435386'
S'Rahim Khan'
tp912
a(S'1251466019'
S'Nisar Muhammad Khan Durrani'
tp913
a(S'100000544047162'
S'Sajjad Khan'
tp914
a(S'1285526080'
S'Abdul Hannan'
tp915
a(S'555993698'
S'Rahmati Afghan'
tp916
a(S'1397353422'
p917
S'Ramzan Armani'
tp918
a(S'100002664938050'
S'Qeamud Din'
tp919
a(S'1006731712'
p920
S'Murad Khan'
tp921
a(S'1024404759'
p922
S'Malik Achakzai'
tp923
a(S'100001019600315'
S'Nisar Ahmed Shamse'
tp924
a(S'100001511006145'
S'Khan Mandokhail'
tp925
a(S'100002473342264'
p926
S'Maryam Achakzai'
tp927
a(S'704440700'
S'Qudrat Zakhail'
tp928
a(S'100001989314065'
S'Lal Khan'
tp929
a(S'100000525220950'
S'Arshad Iqbal'
tp930
a(S'100002125570077'
S'Kamiaab Musafir'
tp931
a(S'100001661425241'
S'Malik Mandokhail'
tp932
a(S'100000886941739'
S'Malalay Popal'
tp933
a(S'1325611343'
S'Zamarud Buneri'
tp934
a(S'100001329232728'
S'Sardar Wafa'
tp935
a(S'100002873013866'
S'Asghar Khan'
tp936
a(S'100001622177753'
S'Amir Khan'
tp937
a(S'682393174'
S'Farid Khan Kasi'
tp938
a(S'100002496328689'
S'Fazal Rehman'
tp939
a(S'100001969625093'
p940
S'Fatema Gailani'
tp941
a(S'100003064411392'
S'Pakhtoonkhwa Map'
tp942
a(S'100000765082254'
S'Ilyas Bangash'
tp943
a(S'100000919552251'
p944
S'Ismail Khan'
tp945
a(S'100002521507348'
S'Garan Afghan'
tp946
a(S'1130710569'
S'Dawar Lodin'
tp947
a(S'100000852914467'
p948
S'Atta Hamdard'
tp949
a(S'100001997432340'
S'Asad Amani'
tp950
a(S'100002454006308'
S"'Swat Valley"
tp951
a(S'100000408704593'
S'Asghar PashtunYar'
tp952
a(S'100000534676789'
p953
S'Laila Popalzai'
tp954
a(S'100001531071042'
S'Ahmad Khan Sherani'
tp955
a(S'100001733448799'
S'Aziz Ullah Aziz'
tp956
a(S'100000262334603'
S'Ciddic Afghan'
tp957
a(S'100000713003033'
S'Qasim Pathan'
tp958
a(S'1363235034'
S'Rafiullah Mandokhail'
tp959
a(S'100002439629082'
S'Ghani Dotani'
tp960
a(S'100002090738057'
S'Kalewall Pukhton'
tp961
a(S'100000560505851'
S'Asad Ullah Mayar'
tp962
a(S'100000250980713'
S'Khurshid Alam'
tp963
a(S'100002744384164'
p964
S'Kabuljobs Kabul'
tp965
a(S'100002786393846'
S'Laiq Shah Zadran'
tp966
a(S'100003061302116'
S'Atiq Khan'
tp967
a(S'100000681986788'
S'Arif Khan'
tp968
a(S'100000407068305'
S'Lhady Delarosa'
tp969
a(S'100000557653403'
S'Mohibrahaman Khatibi'
tp970
a(S'100003399097450'
S'Greator Pashtoonistan'
tp971
a(S'100001996695385'
S'Abdul Nabi Ziar'
tp972
a(S'100000480135812'
S'Ikram Pukhtoon Yar'
tp973
a(S'100000500512147'
S'Engr Ajab Gul Kakar'
tp974
a(S'100000709184355'
S'Farhan Khan Stanekzai'
tp975
a(S'100001946611096'
S'Adnan Fazal'
tp976
a(S'100001479776014'
S'Engr Younas Khan'
tp977
a(S'100000421653154'
S'Paigham Atal Yosufzai'
tp978
a(S'100002777973442'
S'Akhtar Nasar'
tp979
a(S'100002644114757'
S'Khan Mohammad Paktin'
tp980
a(S'100002483802299'
S'Habib Sabir Musa Khail'
tp981
a(S'100001460246064'
p982
S'Afghan Wattan'
tp983
a(S'100000812810517'
S'Ajmal Khan Yousafzai'
tp984
a(S'100004000100138'
p985
S'Peshawar Afghanistan'
tp986
a(S'1309468639'
p987
S'Sardar Akram Khan Achakzai'
tp988
a(S'100001783633577'
S'Ashraf Khan Kudezai'
tp989
a(S'100003023503755'
S'Amar Sindhu'
tp990
a(S'100001984694451'
S'Umer Khan Afghan'
tp991
a(S'100000803582380'
S'Maruf Rasoli'
tp992
a(S'1682484012'
p993
S'\\u067e\\u069a\\u062a\\u0648\\u0646 \\u0627\\u0641\\u063a\\u0627\\u0646'
tp994
a(S'100000670221600'
p995
S'Atsakzai Afghan'
tp996
a(S'100002557630019'
S'Raheem Sayed Shamizai'
tp997
a(S'100001667834358'
S'Mohammad Nabi R'
tp998
a(S'100002113279973'
S'Zia Afg'
tp999
a(S'100002021120483'
S'Sahiba Sanzar'
tp1000
a(S'100002239244522'
S'Afghan Atal'
tp1001
a(S'100001381135685'
p1002
S'Asif Khan'
tp1003
a(S'100003016114056'
S'Nasir Miani'
tp1004
a(S'1300917649'
S'Rafiullah Stanikzai'
tp1005
a(S'100001843222568'
S'Zia Wazir'
tp1006
a(S'100003877957967'
S'Habib Afghan'
tp1007
a(S'100000034290796'
p1008
S'Zahid Khan Kakar'
tp1009
a(S'100002424563937'
S'Nawab Akbari'
tp1010
a(S'100002331310611'
S'Afghanistan Man'
tp1011
a(S'100000556607334'
p1012
S'Ulfat Yar Kakar'
tp1013
a(S'100003169290014'
S'Zalmai Wardak'
tp1014
a(S'100003887005054'
S'Bilal Mandokhail'
tp1015
a(S'100000213688175'
S'Younas Weyar'
tp1016
a(S'643021734'
S'Wali Achakzai'
tp1017
a(S'1372118326'
S'Faraz Thebo'
tp1018
a(S'100003047907773'
p1019
S'Sangar Yaar Jogezai'
tp1020
a(S'100000322707103'
S'\\u0648\\u0635\\u0627\\u0644 \\u0627\\u0641\\u063a\\u0627\\u0646'
tp1021
a(S'100003031980729'
S'Jamil Tareen'
tp1022
a(S'530726505'
S'Quraysh Khattak'
tp1023
a(S'100001042693987'
S'\\u062e\\u0648\\u0634\\u0627\\u0644 \\u062e\\u0644\\u064a\\u0644'
tp1024
a(S'100000588463701'
S'Masoom Paktiawl'
tp1025
a(S'100002102591842'
S'Zwan Afghan Mobariz'
tp1026
a(S'1834688609'
S'DR-Ishaque Khan Baloch'
tp1027
a(S'100000442023224'
S'Babrak Naseri'
tp1028
a(S'100002124330412'
S'Akram Sajid'
tp1029
a(S'100002277197961'
S'Rabi Kazimi'
tp1030
a(S'100001865899502'
S'Pukhtoon Khan'
tp1031
a(S'100002228492368'
S'Rsk Sherani Rehmat'
tp1032
a(S'100001385817756'
S'Hamid Ali Khan'
tp1033
a(S'100001034646453'
S'Safdar Khan'
tp1034
a(S'100000387886147'
S'Hameed Shahzad'
tp1035
a(S'100001172770257'
S'Maqsood Tharakai'
tp1036
a(S'100001652446682'
S'Azizurrahman Zaki'
tp1037
a(S'100002452442622'
S'Bait Ullah'
tp1038
a(S'100002817755109'
S'Zaryab Khan'
tp1039
a(S'100001904107028'
S'Pameer Niazi'
tp1040
a(S'100001485443369'
S'Muhammad Arif Farahi'
tp1041
a(S'100001878191165'
S'Ziba Barani'
tp1042
a(S'100001990505115'
S'Mohammad Akbar Khan Kakar'
tp1043
a(S'100000427424415'
p1044
S'Abdul Rauf Rafiqui'
tp1045
a(S'1777911109'
S'Khalilullah Mayar'
tp1046
a(S'100001851510068'
S'Sardar Ali Takkar'
tp1047
a(S'1234963463'
S'Jamal Tarakai'
tp1048
a(S'100000798649588'
S'Hikmat Khan Alizai'
tp1049
a(S'100004062454093'
S'Zarghona Faryal'
tp1050
a(S'100000050376410'
S'Ghulam Mustafa Tareen'
tp1051
a(S'100002232910988'
p1052
S'Millat Pal'
tp1053
a(S'100001916942437'
S'Shaheed Najibullah'
tp1054
a(S'100001250848774'
S'Tariq Shah'
tp1055
a(S'100002266184664'
S'Navid Rahaman'
tp1056
a(S'100000349041311'
S'Afghan Socialclubuk'
tp1057
a(S'100000423402551'
p1058
S'Haroon Shinwari'
tp1059
a(S'100001171124680'
S'\\u0634\\u0645\\u0644\\u0647 \\u062e\\u0627\\u0646\\u0647'
tp1060
a(S'1149114172'
S'Muhammad Arif'
tp1061
a(S'100001721232990'
S'\\u062f\\u067e\\u069a\\u062a\\u0646\\u0648 \\u0634\\u0627\\u0639\\u0631\\u0627\\u0646\\u0648 \\u067c\\u0648\\u0644\\u0646\\u0647'
tp1062
a(S'100000539247091'
p1063
S'Sayed Abdul Nasser Hashemi'
tp1064
a(S'100000189322304'
p1065
S'Saqib Surani'
tp1066
a(S'100002385433662'
S'Nawab Momand'
tp1067
a(S'1630070848'
S'Amjad Ali Yousufzai'
tp1068
a(S'100002586647969'
S'Hanab Khan'
tp1069
a(S'100002182604122'
S'Mirwais Bazgarzoi'
tp1070
a(S'100001735016139'
S'Ahsan Ullah'
tp1071
a(S'100001543156764'
S'De Ghairat Tora'
tp1072
a(S'100005190393427'
S'Mirwais Afghan'
tp1073
a(S'100004653913708'
S'Da Watan Meena'
tp1074
a(S'1032139754'
S'Usman Qazi'
tp1075
a(S'100001148145669'
p1076
S'Ajmal Siddique'
tp1077
a(S'100001630179374'
S'Sheraz Khan'
tp1078
a(S'100000703131376'
S'Wahid Anwar'
tp1079
a(S'100002288976864'
S'Atif Akhtar'
tp1080
a(S'100000029086294'
S'Jawed Ahmadzai'
tp1081
a(S'100002245958012'
S'Zalmay Pukhtun'
tp1082
a(S'100003937634620'
S'Olas Mal'
tp1083
a(S'100001971807675'
S'Aayran Khan'
tp1084
a(S'100000880592106'
S'Umar Ali Yousafzai'
tp1085
a(S'100001542737727'
S'Khan Khan'
tp1086
a(S'100002143336448'
p1087
S'Nazar Khan Achikzai'
tp1088
a(S'100002290108081'
S'Rizwan Khan Burki'
tp1089
a(S'100002368181329'
S'Marwand Pakhel'
tp1090
a(S'100000958813271'
S'\\u0645\\u062d\\u0645\\u062f\\u0638\\u0627\\u0647\\u0631 \\u0631\\u062d\\u06cc\\u0645 \\u0632\\u0627\\u062f\\u0647'
tp1091
a(S'100001937895795'
S'Hewad Mobiles'
tp1092
a(S'100000710002443'
S'Engr Mushtaq Ahmad'
tp1093
a(S'613963601'
S'Tahir Khan'
tp1094
a(S'100001073680789'
S'Mohammad Gul Hamdard'
tp1095
a(S'100002631884331'
S'Dima Bilan'
tp1096
a(S'100001698765583'
S'Khyber Goloona'
tp1097
a(S'100001497743113'
p1098
S'Abdulrahman Solh'
tp1099
a(S'100003360294094'
S'Hina Bulbulay Momo'
tp1100
a(S'100002740061199'
S'Khan Noor'
tp1101
a(S'100001563684442'
p1102
S'Raz Muhammad Khan'
tp1103
a(S'100003923607726'
p1104
S'Pashtoonkhawa Bloodbank Chaman'
tp1105
a(S'100002129726096'
S'Baryal Utmanzai'
tp1106
a(S'100000921404462'
S'Akk Khan'
tp1107
a(S'100001704687314'
S'Saif Kakar'
tp1108
a(S'100002659612345'
p1109
S'Abdaali Khan'
tp1110
a(S'100003035955339'
S'Afzal Ahmad Yousafzai'
tp1111
a(S'100002448602638'
S'Bilal Shinwari'
tp1112
a(S'100002246977134'
S'Najeeb Khan Pushtun'
tp1113
a(S'100001433559005'
S'Shahid Alam Yosafzai'
tp1114
a(S'100000200402118'
S'Zakir Ullah Durrani'
tp1115
a(S'100000892238642'
S'Pkhtoon Khan'
tp1116
a(S'100000902626484'
p1117
S'Shams Hamzazai'
tp1118
a(S'100001703712225'
S'Hafeez Sherani'
tp1119
a(S'100002734244171'
S'Prince Agha Khan'
tp1120
a(S'100002114037533'
S'Fazal Khan'
tp1121
a(S'100001551024189'
S'Wtan Pal'
tp1122
a(S'100000025760483'
S'No Holds Barred'
tp1123
a(S'100001474419237'
S'Malang Baba'
tp1124
a(S'619172059'
p1125
S'Tahir Hamdard'
tp1126
a(S'1237776322'
S'Janat Gul Mulla Khail'
tp1127
a(S'100000684326735'
S'Zeeshan Khattak'
tp1128
a(S'100002118741251'
S'Khyber Apriday'
tp1129
a(S'100001660972145'
S'Razaq Khan'
tp1130
a(S'100002982321698'
S'\\u0648\\u06cc\\u069a \\u0681\\u0648\\u0627\\u0646- \\u0627\\u062f\\u0644'
tp1131
a(S'100002965449383'
S'NationalParty Naseerabad'
tp1132
a(S'100002252855238'
S'Noor Ahmed Shah Khajjak'
tp1133
a(S'1393920651'
S'Syed Asmat Ali'
tp1134
a(S'100001602752654'
S'Amir Khan'
tp1135
a(S'100002204859758'
p1136
S'Nisar Khan Kakki'
tp1137
a(S'100002491515899'
p1138
S'Nasratullah Naveed'
tp1139
a(S'100002362355144'
p1140
S'Pashtun Khwa'
tp1141
a(S'558914537'
S'Atiq Massan'
tp1142
a(S'100004258330675'
S'Mina Afghan'
tp1143
a(S'100003245054122'
S'\\u0639\\u0628\\u062f\\u0627\\u0644\\u062d\\u0642 \\u0647\\u0645\\u062a'
tp1144
a(S'100000607359776'
S'Abdul Mateen'
tp1145
a(S'100004424347353'
p1146
S'Pir Ali Shah Olasyar'
tp1147
a(S'100000971834542'
S'Falakniaz Khan'
tp1148
a(S'100001878969418'
S'Kamal Khan'
tp1149
a(S'100001068759012'
S'Real Afghan'
tp1150
a(S'100001776652609'
S'Qaam Parast'
tp1151
a(S'100002207306318'
S'Qiamuddin Kasi'
tp1152
a(S'100001854588412'
S'A Noor Nangyalai Wazir'
tp1153
a(S'100001792996801'
S'Noor Ali Shah Pir'
tp1154
a(S'100001484607325'
S'Sadiqullah Wazir'
tp1155
a(S'586402663'
S'Bilal Sarwary'
tp1156
a(S'100001652902331'
S'Mina Kazim Rahnoma'
tp1157
a(S'100001665300539'
S'Nisar Ahmad'
tp1158
a(S'100001554798249'
p1159
S'Zarguna Ata'
tp1160
a(S'511340446'
S'Mirwais Roshaan'
tp1161
a(S'100004799170156'
S'Afghan Dushman Zama Dushman'
tp1162
a(S'100002392696877'
S'Nabeel Afghan'
tp1163
a(S'100000434770370'
S'Wahab Khan Kakar'
tp1164
a(S'100002337725354'
S'Hakimi Hakim'
tp1165
a(S'715045512'
S'Bari Achakzai'
tp1166
a(S'100000485794482'
p1167
S'Abdullah Khan Harifal'
tp1168
a(S'100000800310050'
S'Ahmadullah Sediq'
tp1169
a(S'100003202638103'
S'Riaz Pukhtun'
tp1170
a(S'100003550870055'
p1171
S'\\u0632\\u06cc\\u0627\\u0631 \\u0645\\u0644 \\u067e\\u069a\\u062a\\u0648\\u0646'
tp1172
a(S'100002243025457'
S'Pashtu Poetry'
tp1173
a(S'100001519907427'
S'Bayazeed Baryal'
tp1174
a(S'616995232'
S'Ayesha Siddiqa'
tp1175
a(S'100001236205264'
S'Kamal Abdullahzoy Zadran'
tp1176
a(S'100000873223437'
S'Muqeem Ullah Kakar Afghan'
tp1177
a(S'100002378243434'
S'Arif Khan'
tp1178
a(S'100003313138543'
S'Jamshed Dotani'
tp1179
a(S'1233555325'
S'Mujeeb Aziz Khel'
tp1180
a(S'100001966884565'
S'Kaleem Jogezai'
tp1181
a(S'100002151792353'
S'Shakir Afghan'
tp1182
a(S'100002262861576'
S'Attaullah Achackzai'
tp1183
a(S'564608655'
S'Omar Bowra Zamani'
tp1184
a(S'100001376313128'
S'\\u062c\\u0646\\u062a \\u06ab\\u0644 \\u0639\\u0637\\u0627\\u0634'
tp1185
a(S'639051355'
S'Aimal Khan Achakzai'
tp1186
a(S'100001551006532'
S'Sana Ullah Amirzai'
tp1187
a(S'100002647411025'
S'Hussna Sharifi'
tp1188
a(S'100002476132602'
S'Haris Bakhtiar'
tp1189
a(S'1131574560'
S'Sayed Mashal Sadat'
tp1190
a(S'100001171812439'
S'Nabir N Nabi'
tp1191
a(S'100000212106311'
S'Ahsan Zadran'
tp1192
a(S'1540003750'
S'Mahtab Roshan'
tp1193
a(S'100000469763648'
S'Kaswar Klasra'
tp1194
a(S'100000139854043'
S'Arshad Jan'
tp1195
a(S'100003706790210'
p1196
S'Fareed Baryal'
tp1197
a(S'100003066385829'
p1198
S'Khan Jan'
tp1199
a(S'100001325882097'
S'Amir Khan'
tp1200
a(S'100003253588133'
p1201
S'Ali Muhammad Pso'
tp1202
a(S'100001361750327'
S'Abdul Latif Qazizada'
tp1203
a(S'100000689590753'
S'Malak Junior'
tp1204
a(S'100001922044445'
S'Haris Herry'
tp1205
a(S'100001940902046'
S'Agha Jan'
tp1206
a(S'100001706451557'
S'Farzana Atifi'
tp1207
a(S'100002093008108'
S'Milad Khoguani'
tp1208
a(S'100001553217081'
S'Rahmatullah Sadiqi'
tp1209
a(S'100005148461333'
S'Afghan Milli Pasoon'
tp1210
a(S'100002244906510'
S'Sher Ali Khan Khan'
tp1211
a(S'100001474354355'
S'Qadir Khan Mandokhail'
tp1212
a(S'650005051'
S'Khesrow Sangarwal'
tp1213
a(S'100004447031051'
S'Engr Kaleem Ullah Wazir'
tp1214
a(S'634421174'
S'Abasin Khan Achakzai'
tp1215
a(S'100001821296020'
S'Najeem Noori'
tp1216
a(S'100002011928103'
p1217
S'War On Pashtoon Afghan'
tp1218
a(S'100000766448617'
S'Shah Zeb Khan'
tp1219
a(S'100002523933974'
S'Jamil Ahmad Popal'
tp1220
a(S'100000871028464'
S'Mazhar Ali Khan'
tp1221
a(S'100000868233609'
S'Azat Noor Khosty'
tp1222
a(S'100002634713414'
S'Khan Ihsan Khan'
tp1223
a(S'100000477422681'
S'Hafeez Ur Rehman Mandokhail'
tp1224
a(S'1293341739'
S'Naveed Khan'
tp1225
a(S'796420369'
S'Sajid Iqbal Dawezai'
tp1226
a(S'100003273450610'
S'Zahid Aryan Wazir'
tp1227
a(S'100001085720745'
S'Kandahary Zmary'
tp1228
a(S'100002058218382'
S'Hazrat Shams'
tp1229
a(S'100000708563714'
S'Niazai Abdullah'
tp1230
a(S'100002112327554'
S'\\u0627\\u0641\\u063a\\u0627\\u0646\\u0627\\u0646 \\u0627\\u062d\\u0645\\u062f \\u0634\\u0627\\u0647 \\u062f\\u0631\\u0627\\u0646\\u06cc'
tp1231
a(S'100004863697313'
p1232
S'Khalqe Mubariz'
tp1233
a(S'100000916812116'
S'Jahanzaib Shinwari'
tp1234
a(S'100002614321227'
S'Tufiq Afghan'
tp1235
a(S'100001771525459'
S'Jawed Ahmed'
tp1236
a(S'100002049409301'
S'Mian Afaq Ahmad'
tp1237
a(S'100001793864590'
p1238
S'Malala Khan'
tp1239
a(S'1412582588'
p1240
S'Basharat Rahimullah'
tp1241
a(S'100000176279059'
S'Abdul Rehman Kakar'
tp1242
a(S'100003593969058'
p1243
S'Yousafzai Heela'
tp1244
a(S'100000784283607'
S'Sharaf Khan'
tp1245
a(S'100001976331418'
S'Bashardost Dost'
tp1246
a(S'100002643628542'
S'Irfan Khan'
tp1247
a(S'1059074216'
S'Hasham Baber'
tp1248
a(S'100002565379847'
S'Gran Watan'
tp1249
a(S'100002603238760'
S'Iqbal Khan Yousaf Zai'
tp1250
a(S'100002150619360'
S'A-h Khazan'
tp1251
a(S'100000849044328'
S'Samin Jan'
tp1252
a(S'100000926013536'
S'Hasan Mujtaba'
tp1253
a(S'100000669321609'
S'Ghairat Yousafzai'
tp1254
a(S'100001331611666'
S'Jawad Khan'
tp1255
a(S'100001064378524'
S'Asim Khattak'
tp1256
a(S'100001479918750'
S'Sher Yar Afghan'
tp1257
a(S'100004842570581'
S'Sher Khan'
tp1258
a(S'100000164241998'
S'Pir Rokhan'
tp1259
a(S'100002992460628'
p1260
S'Khaliq Baba'
tp1261
a(S'1541736152'
S'Fayaz Ghazi'
tp1262
a(S'100002497506088'
S'Hira Khattak'
tp1263
a(S'100002703350205'
S'Yousafzai Yousafzai'
tp1264
a(S'100001438239456'
S'Anwar Charagh'
tp1265
a(S'100002828646880'
S'Mashal Khan'
tp1266
a(S'100002291616746'
p1267
S'Aman Afghan'
tp1268
a(S'100000672889267'
S'Daud Junbish'
tp1269
a(S'1406621020'
S'Alam Gul'
tp1270
a(S'1813037693'
S'Noorul Haque Mandanr'
tp1271
a(S'100000895520702'
S'Duran Khan'
tp1272
a(S'1625557638'
S'Sheikh Mir Ahmed'
tp1273
a(S'100002368690587'
S'Siddique Khan Marghazani'
tp1274
a(S'100001349423468'
S'Shah M Dotani'
tp1275
a(S'100001811324191'
p1276
S'Eman Pakhtoonkhwa'
tp1277
a(S'100003492003105'
S'Ghorzang Noor Muhammad Shah'
tp1278
a(S'100002731210842'
S'Ajmal Khan Mandokhail'
tp1279
a(S'557543022'
S'Murid Shafaq'
tp1280
a(S'100002451167494'
p1281
S'Loy Afghanistan Inqilab'
tp1282
a(S'100001443988435'
p1283
S'Hamayon Safi'
tp1284
a(S'100001080727865'
S'Chegha De Pakhtun'
tp1285
a(S'100000556657498'
S'Sardar Amazai'
tp1286
a(S'100002353016042'
S'Khan Bacha'
tp1287
a(S'1780282352'
p1288
S'Azam Khan Achakzai'
tp1289
a(S'100002063146634'
S'Imtiaz Ahmed Khan'
tp1290
a(S'693506681'
S'Fida Bazai'
tp1291
a(S'100003797071882'
S'Pakhtoon Afghan'
tp1292
a(S'100001757040116'
S'Wali Afghan'
tp1293
a(S'1037967361'
S'Ayaz Khan'
tp1294
a(S'100001706557272'
S'Khalq-democratic Afghanistan'
tp1295
a(S'100000505539808'
p1296
S'Nessar Ahmad Nori'
tp1297
a(S'852430011'
S'Janan Mosazai'
tp1298
a(S'100003533015810'
S'Larawbar Yao Afghan'
tp1299
a(S'100002088766827'
S'Mustafa Mehryar'
tp1300
a(S'100001524148074'
S'Sahar Ghayur'
tp1301
a(S'100003063912206'
S'Najibullah Bahir'
tp1302
a(S'1807793607'
S'Shams Shinwari'
tp1303
a(S'100004371061694'
S'Ghulam Mujtaba Patang'
tp1304
a(S'100000824864191'
p1305
S'Baheer Afghan'
tp1306
a(S'100003642524439'
S'Shafi Pashtoon'
tp1307
a(S'1179968189'
S'Hekmat Khalil Karzai'
tp1308
a(S'1833603537'
S'Yaar Ashna'
tp1309
a(S'100002403233323'
S'Ase Ma Wail Che'
tp1310
a(S'100000461163376'
S'\\u06a9\\u0627\\u0645\\u0631\\u0627\\u0646 \\u0622\\u0641\\u0631\\u06cc\\u062f\\u06cc'
tp1311
a(S'100004737452811'
S'Naeem Azad'
tp1312
a(S'100000710873356'
S'Abdul Hamid Khan'
tp1313
a(S'100001082761814'
S'Nasrullah Afridi'
tp1314
a(S'100002781802821'
S'Kashif Afridi'
tp1315
a(S'100002741435244'
S'Sikander Khan Mandokhail'
tp1316
a(S'100000965368338'
S'Mohammad Munir'
tp1317
a(S'100002093979069'
S'Ateeq Rahman'
tp1318
a(S'100000718906986'
S'Hasil Bizenjo'
tp1319
a(S'100000665169981'
S'Weekh Pakhtoon'
tp1320
a(S'100003064497485'
p1321
S'Qayas Afghan'
tp1322
a(S'100000734989324'
S'Ismail Mehsud'
tp1323
a(S'100000341192068'
S'Kakar Panezai'
tp1324
a(S'100000629523686'
S'Angela Stiena'
tp1325
a(S'100004409821817'
S'Boriwal Kakar'
tp1326
a(S'100002015002892'
S'Saqib Khan'
tp1327
a(S'100000664563040'
S'Samiullah Agha'
tp1328
a(S'100000094182441'
S'Fakhre Alam Haamid'
tp1329
a(S'100003089640705'
S'Pashtoonistan Zindabad'
tp1330
a(S'100000019746323'
S'Muhtaram Shah'
tp1331
a(S'100005158805037'
S'Khalqi Jengey'
tp1332
a(S'100000961315661'
S'Cheragh Afghan'
tp1333
a(S'100002595984800'
S'Mariya Khan Kakar'
tp1334
a(S'100002210775087'
S'Jameelah Jamal'
tp1335
a(S'100001103207328'
S'Harnaiwal Tareen'
tp1336
a(S'100001720040782'
S'Khan Musa'
tp1337
a(S'100003134649277'
S'Jahan Zaib'
tp1338
a(S'100001043019515'
S'Israr Khan'
tp1339
a(S'100000912141117'
S'Malik Siraj Akbar'
tp1340
a(S'100002824398836'
S'Sad Afghan'
tp1341
a(S'100000817287746'
p1342
S'Pakhtoon Khwa'
tp1343
a(S'100002173689302'
S'\\u0627\\u0633\\u0644\\u0627\\u0645 \\u067e\\u0648\\u0647\\u0646\\u0647'
tp1344
a(S'100001656125542'
p1345
S'Larawbar Pashton'
tp1346
a(S'100001994095669'
S'Amin Kakar'
tp1347
a(S'1011588741'
S'Pashtun Voice'
tp1348
a(S'100001372741823'
S'Ajmal Khan'
tp1349
a(S'100001756160224'
S'Zarang Khan'
tp1350
a(S'555713085'
S'LM Khan'
tp1351
a(S'1369028970'
S'Naveed Afridi'
tp1352
a(S'100002333089856'
S'Waqas Khan Sadozai'
tp1353
a(S'100002957102340'
S'\\u0645\\u0644\\u06cc \\u0627\\u0641\\u063a\\u0627\\u0646'
tp1354
a(S'100001288812284'
S'Saif Khan'
tp1355
a(S'100001812984707'
S'Nasrat Wafa'
tp1356
a(S'100002098141910'
S'Zubair Barech'
tp1357
a(S'100002651314837'
S'Zubayr Ahmad'
tp1358
a(S'100001972663284'
S'Khan Wazeri'
tp1359
a(S'100004897837402'
S'Abdul Razzaque'
tp1360
a(S'100004829560909'
S'Taj Afghan Kasi'
tp1361
a(S'100002620054555'
S'Amina Mansoor'
tp1362
a(S'100001752374231'
p1363
S'Saeed Rahman'
tp1364
a(S'1217060907'
S'Rokhana Sabawoon'
tp1365
a(S'100000277650188'
S'Syed Shahab Afghan'
tp1366
a(S'100002498431612'
S'Asouar Aswar'
tp1367
a(S'100000572414563'
p1368
S'Abdul Nafay Achakzai'
tp1369
a(S'100002957013904'
S'Shams Wazir'
tp1370
a(S'100000955156491'
S'Gohar Ali Gohar'
tp1371
a(S'100002352702938'
S'Khwashal Afghan'
tp1372
a(S'100000163272196'
S'\\u0634\\u0628 \\u06af\\u0631\\u062f'
tp1373
a(S'100001790472760'
S'Qudratullah Dost'
tp1374
a(S'100002922405368'
S'Abdul Aziz Kakar'
tp1375
a(S'606933988'
S'Noor Ullah'
tp1376
a(S'100004651236817'
S'Allahnoor Barak'
tp1377
a(S'100000821806216'
p1378
S'Qasim Khan Sherani'
tp1379
a(S'100001788394919'
S'Shukrulla Tahiri'
tp1380
a(S'100002669213686'
S'Aryan Afghan'
tp1381
a(S'100002639267227'
S'Abdulwali Khan'
tp1382
a(S'100000073890317'
p1383
S'\\u0639\\u0627\\u0631\\u0641 \\u0645\\u064a\\u0627\\u062e\\u064a\\u0644'
tp1384
a(S'1503286943'
S'Pir Salim Shah'
tp1385
a(S'100000969195570'
p1386
S'Hamayun Watanjar'
tp1387
a(S'100003293946081'
S'Eid Muhammad Musakhail'
tp1388
a(S'100003954546768'
S'Watanyar Afghan'
tp1389
a(S'100000141220578'
S'Abdul Haseeb'
tp1390
a(S'1511983501'
S'Irfan Khan'
tp1391
a(S'100002173596358'
S'Khalil Arghistani'
tp1392
a(S'100001704974388'
S'Tanveer Ul Islam'
tp1393
a(S'100001259550856'
S'Shir Khan Yahya'
tp1394
a(S'100001669032400'
S'A Bas Khan'
tp1395
a(S'100003239913436'
S'Kalim Ullah'
tp1396
a(S'100001857735683'
S'Marjan Ezhar'
tp1397
a(S'100003315517431'
S'Ajmal Mandokhail'
tp1398
a(S'100004031307707'
S'Inqalabi Pashtun'
tp1399
a(S'100000476723429'
p1400
S'Skabska Khan Khan'
tp1401
a(S'100001201191340'
S'Akbar Khan'
tp1402
a(S'100001972204118'
S'Ali Shehzad Kaalawal'
tp1403
a(S'100002620498998'
p1404
S'Ahmad Yar Alizai'
tp1405
a(S'100001174699842'
S'Mar Jan'
tp1406
a(S'100001049797700'
S'Pardis Haidary'
tp1407
a(S'100002565500342'
S'Pakhto Zaar'
tp1408
a(S'100001121251301'
S'Noman Khan'
tp1409
a(S'100001085043057'
S'Zahir Khan'
tp1410
a(S'100000004568703'
S'Nizam Ullah'
tp1411
a(S'100001983415892'
S'Salman Khan Khilji Khan'
tp1412
a(S'100003207352820'
S'Taj Babar'
tp1413
a(S'1007605470'
S'\\u0627\\u0631\\u0648\\u0627\\u069a\\u0627\\u062f \\u0627\\u0646\\u062c\\u064a\\u0646\\u0631 \\u0647\\u0648\\u069a\\u064a\\u0627\\u0631 \\u0634\\u064a\\u0646\\u0648\\u0627\\u0631\\u064a'
tp1414
a(S'100002198240769'
p1415
S'Qayyum Khan'
tp1416
a(S'100001339032075'
S'\\u062b\\u0631\\u06cc\\u0627 \\u062c\\u0627\\u0646'
tp1417
a(S'100001112807402'
S'Shakeel Usafzai'
tp1418
a(S'100002109172992'
S'Saif Lodin'
tp1419
a(S'100004450506213'
S'Manzor Khan Kakar'
tp1420
a(S'100003775125279'
S'Farooq Watan Shad'
tp1421
a(S'100001321282405'
S'Atal Khan'
tp1422
a(S'100001203865085'
S'Qamosona Pashto Dictionary'
tp1423
a(S'100000527077741'
p1424
S'Aryan Khan'
tp1425
a(S'100004035777179'
S'Ghourzang Nasar'
tp1426
a(S'100002787827733'
S'Pashtoonkhwa Map Zhob'
tp1427
a(S'100002254873715'
S'Naqeeb Pamir'
tp1428
a(S'100000770726043'
S'Pewast Khattak'
tp1429
a(S'100005356269180'
S'Mahmood Karzai'
tp1430
a(S'100000755472824'
S'Wahid Mandokhail'
tp1431
a(S'100002548647058'
S'Afghanistan Pashto'
tp1432
a(S'100002765831838'
p1433
S'Amir Usman Kakar'
tp1434
a(S'100002331620646'
S'Baz Afghan'
tp1435
a(S'100002057330265'
S'Laila Khan'
tp1436
a(S'100002368487347'
p1437
S'Shakirkhan Shakir'
tp1438
a(S'100003661554050'
S'Sami Ullah'
tp1439
a(S'100001640396383'
S'Jansher Khan Afridi'
tp1440
a(S'100002197575123'
S'Rahim Nasar'
tp1441
a(S'100003116650996'
S'Millat Yar Afghan'
tp1442
a(S'100002152522412'
S'Drikramulahikram Afghan'
tp1443
a(S'100000855021016'
S'Abdullah Habibzai'
tp1444
a(S'100001076582142'
S'Jabran Wazir'
tp1445
a(S'100002205732776'
S'Alikhan Khan'
tp1446
a(S'100000443319551'
p1447
S'Aslam Khan'
tp1448
a(S'100002475999036'
S'Nafy Achakzai'
tp1449
a(S'100002942674219'
S'Roohullah Kakar'
tp1450
a(S'100003545161025'
S'Himayatullah Mayar'
tp1451
a(S'100000373840054'
S'Nisar Khan'
tp1452
a(S'100001205000898'
S'\\u0627\\u062f\\u0631\\u06cc\\u0633 \\u0627\\u0641\\u063a\\u0627\\u0646'
tp1453
a(S'100003662995628'
p1454
S'Engr Rahim Mandokhail'
tp1455
a(S'100000137989277'
S'Khan Aftab'
tp1456
a(S'100000220391096'
S'Akbar Khan'
tp1457
a(S'100000584509044'
S'M Qadir Hijran'
tp1458
a(S'100000840300708'
S'Zubair Khan'
tp1459
a(S'100003129060850'
p1460
S'Wasay Khan'
tp1461
a(S'100001755913787'
S'Dillawar Essote'
tp1462
a(S'100002906231636'
S'Sherani Ayubkhan'
tp1463
a(S'100002369691918'
S'Jameel Hanif'
tp1464
a(S'100001895484257'
S'Naveed Ullah Khan Tareen'
tp1465
a(S'100001654296844'
S'Mohammad Afghan'
tp1466
a(S'100002812782369'
S'Ameer Haider Khan Hoti'
tp1467
a(S'100002081797556'
p1468
S'Zubair Khan Barech'
tp1469
a(S'100002713222447'
S'Baadshah Khan'
tp1470
a(S'100002433010988'
S'Pashtun Zmarie'
tp1471
a(S'100001077438710'
S'Eng Masoud Azizi'
tp1472
a(S'100000518921549'
S'Sardarwali Sherzad'
tp1473
a(S'100001026731830'
S'Mohammad Khalid Karokhil'
tp1474
a(S'100000764002038'
S'Talib Mangal'
tp1475
a(S'100000187498900'
p1476
S'Arshad Khalil'
tp1477
a(S'100000288120526'
S'Ahmadzai Hua'
tp1478
a(S'559165231'
S'Adnan A Kassi'
tp1479
a(S'100001716170066'
S'\\u067e\\u069a\\u062a\\u0648 \\u062e\\u0628\\u0631\\u0648\\u0646\\u0647'
tp1480
a(S'100001866777661'
S'Atal Khan Yousafzai'
tp1481
a(S'100000571956767'
p1482
S'Sher Khan'
tp1483
a(S'100001467817076'
S'Shekista Afghan'
tp1484
a(S'735938725'
S'Engineer Ijaz Ali Shah'
tp1485
a(S'1363490726'
S'Zareen Zadah Esapzy'
tp1486
a(S'100000599222355'
S'Surr Speen Pukhtoon'
tp1487
a(S'100001725275855'
S'Arbab Aamir Khan'
tp1488
a(S'100000611041738'
S'Yasir Kundi'
tp1489
a(S'100002161300946'
S'\\u067e\\u069a\\u062a\\u0648\\u0646 \\u0632\\u0645\\u0631\\u06cc'
tp1490
a(S'100002500734452'
S'Khan Barakzai Pishin'
tp1491
a(S'100000955836187'
S'\\u0628\\u062e\\u062a \\u0635\\u062f\\u064a\\u0642\\u064a'
tp1492
a(S'100003378673718'
p1493
S'Ahmad Barakzai'
tp1494
a(S'100002073013545'
S'Ajmal Abdullah'
tp1495
a(S'1286240939'
S'Watan Pal'
tp1496
a(S'100004729023476'
S'Hamidzai Achakzai'
tp1497
a(S'100001825213095'
S'Wajid Iqbal'
tp1498
a(S'100004790162207'
S'Heelai Noor'
tp1499
a(S'852554698'
S'Ehsan Mamundzai'
tp1500
a(S'100000582958033'
S'Abdul Rahman'
tp1501
a(S'730977738'
S'Israr Ahmad Khan'
tp1502
a(S'100003093973898'
S'Izran Khan'
tp1503
a(S'100001400470611'
S'Assad Amini'
tp1504
a(S'100006077497290'
S'Kuchlak Pashton Koor'
tp1505
a(S'100001028736617'
S'Farooq Khan Mandokhail'
tp1506
a(S'100002567652634'
S'Parveen Hasrat'
tp1507
a(S'100000672476487'
S'Idrees Kamal'
tp1508
a(S'100002753799354'
S'Hewad Kochi'
tp1509
a(S'100002709586383'
S'\\u0632\\u06cc\\u0646\\u0628 \\u062e\\u0648\\u0631\\u0634\\u06cc\\u062f'
tp1510
a(S'100003763492185'
S'Rashid Khan Afridi'
tp1511
a(S'100000996813390'
S'Bilal Ahmad'
tp1512
a(S'100001021178129'
S'TheHujra Webpanra'
tp1513
a(S'100000479158242'
S'Aimal Khan Yousafzai'
tp1514
a(S'100002694661460'
S'Iqbal Batazai'
tp1515
a(S'100000583547937'
S'Arbab Mirafzal Khan Daudzai'
tp1516
a(S'100000692255075'
S'Muzamil Shah'
tp1517
a(S'100002972342668'
S'Ayubsherani Darazinda'
tp1518
a(S'100003284505739'
S'Manzoor Achakzai'
tp1519
a(S'100000605312674'
S'Gul Marjan'
tp1520
a(S'100001345856667'
S'Humayoon Khan'
tp1521
a(S'591569967'
S'Kaiser Hussein'
tp1522
a(S'1293322489'
S'Zia Rehman'
tp1523
a(S'100001677155644'
S'Syed Shahid Hussain'
tp1524
a(S'100000269339373'
S'Shaista Sanam'
tp1525
a(S'100002816060205'
S'Saqi Jalal'
tp1526
a(S'100001705353875'
p1527
S'Palwasha Khan'
tp1528
a(S'100001314068025'
S'\\u00d1\\u00f8\\u00f8r W\\u00e2l\\u00ee Z\\u00e4dr\\u00e4n'
tp1529
a(S'1153898574'
S'Hanif Rehman'
tp1530
a(S'100002349123572'
S'Mustafa Puran'
tp1531
a(S'100002038596669'
S'Fawad Ihsan'
tp1532
a(S'1577696487'
S'Jack A. Shulman'
tp1533
a(S'688018963'
S'Tariq Afridi'
tp1534
a(S'100000320592291'
S'Romal Hotak'
tp1535
a(S'100003316249555'
S'Bktef Pakhtunkhwa'
tp1536
a(S'567538932'
S'Zubair Ghani'
tp1537
a(S'100000413751035'
S'Khwaja Muhammad Ahmadzai'
tp1538
a(S'100001068062132'
S'Inocent Agrian'
tp1539
a(S'100000919860823'
S'Umar Dotani'
tp1540
a(S'100001361367636'
S'Pamir Khan'
tp1541
a(S'100003521264459'
S'Mianfazal Maula'
tp1542
a(S'632400039'
S'Nafees Takar'
tp1543
a(S'1229598780'
S'Furqan Khattak'
tp1544
a(S'100002740646533'
S'Sanaullah Mandokhail'
tp1545
a(S'100002002712594'
S'Bahadur Khan'
tp1546
a(S'100002558543625'
p1547
S'Mohammad Wajid Ali'
tp1548
a(S'100002358668136'
S'Ahmad Paghmani Afghan'
tp1549
a(S'100004683942751'
S'Wakeel Tareen'
tp1550
a(S'100002216182617'
S'Mir Wais Khan Mandokhail'
tp1551
a(S'100002688370062'
S'Jano Rambel'
tp1552
a(S'522458950'
S'Nasir Ahmad'
tp1553
a(S'100004059374691'
S'Abdul Ali Ghorghashti'
tp1554
a(S'100002348811241'
S'Kashan Khan'
tp1555
a(S'100000082796309'
S'Shehzad Swati'
tp1556
a(S'837575187'
S'Farhat Taj'
tp1557
a(S'1677008105'
p1558
S'Aminullah Wardak'
tp1559
a(S'100001385536089'
S'Khairullah Khyal'
tp1560
a(S'100003264046817'
S'Lali Hamidzai'
tp1561
a(S'100002821881902'
S'Imtiaz Khan'
tp1562
a(S'100002019317921'
S'Farid Khan Mandokhail'
tp1563
a(S'100000181179199'
S'Qasim Khan'
tp1564
a(S'100001287781010'
S'Rima Jan'
tp1565
a(S'100001535018777'
S'\\u0633\\u06cc\\u062f \\u0639\\u0637\\u0627\\u0624\\u0644\\u0644\\u0647 \\u0634\\u0627\\u0647 \\u063a\\u0631\\u0634\\u06cc\\u0646'
tp1566
a(S'100001709830554'
S'Shah G Afghan'
tp1567
a(S'100001094293443'
S'\\u0631\\u0648\\u0647\\u06cc\\u0644\\u0647 \\u067e\\u069a\\u062a\\u0648 \\u0641\\u0648\\u0631\\u0648\\u0645'
tp1568
a(S'1131451771'
S'Shahmansoor Swabi Pukhtoonkhwa Pakistan'
tp1569
a(S'100000969427166'
S'Azmatullah Khan Sherani'
tp1570
a(S'100003517715732'
p1571
S'Madina Amil'
tp1572
a(S'100002531448632'
S'Adnan Achakzai'
tp1573
a(S'100000687497393'
S'Pakhtun Development'
tp1574
a(S'100000741503199'
S'Abaseen Yousufzai'
tp1575
a(S'100001943617270'
S'Ayaz Mandokhel'
tp1576
a(S'100002741510394'
S'Saleem Khan'
tp1577
a(S'100002115159774'
S'Sangeen Khan'
tp1578
a(S'100002405038417'
S'Salang Khan Kandahar'
tp1579
a(S'100001750470627'
S'Naimat Ullah Khosti'
tp1580
a(S'773048958'
S'M Asif Adel'
tp1581
a(S'100000843832165'
S'Qari Ashraf'
tp1582
a(S'1329901986'
S'\\u067e\\u069a\\u062a\\u0648\\u0646\\u062e\\u0648\\u0627 \\u0628\\u0627\\u0686\\u0627'
tp1583
a(S'100000027232992'
S'Araphat Dustukhel Afghan'
tp1584
a(S'100002285377133'
S'Abdul Musawir'
tp1585
a(S'100002091868433'
S'Najeebullah Sahak'
tp1586
a(S'729813887'
S'Ali Khan'
tp1587
a(S'100000326614712'
S'Faqir Eppi Maseed'
tp1588
a(S'100001244817044'
p1589
S'Azaad Pukhtoonistan'
tp1590
a(S'100004009511207'
S'Naeem Turi'
tp1591
a(S'100001517472690'
S'Alammal Nangyalay'
tp1592
a(S'1749835321'
S'Hannah Janelle Cooper'
tp1593
a(S'100000929791506'
S'Khan Baba'
tp1594
a(S'100003529886029'
S'Afghan Satory'
tp1595
a(S'100002447595664'
S'Ikram Kakar'
tp1596
a(S'100002306438639'
S'Nazeer Afghan'
tp1597
a(S'100002035038948'
S'Nawid Ahmad'
tp1598
a(S'100000213516364'
S'Matiullah Khan Arman'
tp1599
a(S'100000859047703'
S'Nasir Stori'
tp1600
a(S'100000845866507'
S'Faiz Gadoon'
tp1601
a(S'100002131016166'
p1602
S'Hamza Hamzababa'
tp1603
a(S'1036793440'
S'Ahmad Shah Azami'
tp1604
a(S'1045924762'
S'Saleh Dotani'
tp1605
a(S'100001936021317'
S'Muhammad Uz\\u00e3ir'
tp1606
a(S'100000081148275'
S'Riaz Khattak Khattak'
tp1607
a(S'100001963031634'
S'Sareer Muhmand'
tp1608
a(S'100002603613961'
S'Akbar Sial'
tp1609
a(S'1043918212'
S'Majeed Babar'
tp1610
a(S'100000689377599'
S'Hassan Turi'
tp1611
a(S'100001599644353'
S'Afghan Unity'
tp1612
a(S'100003109400158'
S'Mohammad Qurban Haqjo'
tp1613
a(S'100000234425347'
S'Fida Khan'
tp1614
a(S'100000429019581'
S'Amir Mohammad Ahangar'
tp1615
a(S'100001935907314'
S'HK Mandokhail'
tp1616
a(S'520286444'
S'Shinkhaley Njiley'
tp1617
a(S'100002322638199'
S'Anwarkhan Noori'
tp1618
a(S'549747895'
S'Siamuden Pasarly'
tp1619
a(S'100002573018675'
S'Wali Hemat Mangal'
tp1620
a(S'100001364214649'
S'Mahboob Khan Yousafzai'
tp1621
a(S'100000256500125'
S'Masood Khan'
tp1622
a(S'100000506161928'
S'\\u0635\\u0627\\u062f\\u0642 \\u0635\\u0627\\u062f\\u0642'
tp1623
a(S'100002385940471'
S'Faizullah Afg'
tp1624
a(S'100000937144556'
S'Abdul Wali Pashtoonyar'
tp1625
a(S'100000494147540'
p1626
S'Tahir Mandokhail'
tp1627
a(S'100003183328267'
S'\\u0627\\u0641\\u063a\\u0627\\u0646 \\u067e\\u0648\\u0632 \\u0632\\u0646\\u062f\\u0647 \\u0628\\u0627\\u062f'
tp1628
a(S'100000861972221'
S'Ar Khan'
tp1629
a(S'1706452228'
S'Farooq Dawezai'
tp1630
a(S'100001840120740'
S'Muhammad Ismail Khan'
tp1631
a(S'100000523616939'
S'Jamil Karzai'
tp1632
a(S'100001412172800'
S'Nasrat Hakimi'
tp1633
a(S'522092029'
S'Asif Durrani'
tp1634
a(S'100001727738637'
S'Ajmalkhan Tirat'
tp1635
a(S'100000010302915'
S'Salahuddin Khan'
tp1636
a(S'1152472891'
p1637
S'Pakhtun Zalmay'
tp1638
a(S'100003657309845'
S'Pashtana Afghan'
tp1639
a(S'100001424332623'
S'Zama Watan'
tp1640
a(S'100005859277013'
S'Ahmadzai Tribe'
tp1641
a(S'100002586007275'
S'Pat Razoona'
tp1642
a(S'100001601024804'
S'Junaid Orakzai'
tp1643
a(S'100001599687674'
S'Saleem Swabi'
tp1644
a(S'1456332973'
S'Gul Noor'
tp1645
a(S'514561263'
S'Mohammad Ali'
tp1646
a(S'100001828182936'
S'Jamil Marghuz'
tp1647
a(S'1519441835'
S'\\u062d\\u0627\\u0631\\u062b \\u0627\\u062d\\u0645\\u062f'
tp1648
a(S'100000687066878'
S'Zain Kasi'
tp1649
a(S'100002345217509'
p1650
S'Hamid Ali Shah'
tp1651
a(S'1151147952'
p1652
S'Adnan Khan Yousafzai'
tp1653
a(S'100001866238787'
S'Nasrullah Afridi'
tp1654
a(S'100004620824624'
p1655
S'Pashtoonkhwa Map Punjab'
tp1656
a(S'100002424970135'
S'Sahra Afghan'
tp1657
a(S'100003281336502'
S'Aqal Millatpaal'
tp1658
a(S'100003045871897'
S'Bahar Anwar'
tp1659
a(S'100000000030795'
S'Arshad Ali'
tp1660
a(S'100002537974616'
S'Fakhruddin Fakher'
tp1661
a(S'100000167320580'
S'Hamida Paktianay'
tp1662
a(S'1560220531'
S'Ali Bamboly'
tp1663
a(S'100000346890466'
S'Mohammad Naeem'
tp1664
a(S'100000493900036'
S'Baseer Shah'
tp1665
a(S'100001880985523'
S'Pashtoonzoi Qamyar'
tp1666
a(S'100000143011966'
S'Real Afghan Leader Karzai'
tp1667
a(S'100001704716142'
S'Sami Wahdat'
tp1668
a(S'100001766902980'
S'Nasim Stori'
tp1669
a(S'100001006378041'
S'Quetta UnionofJournalist'
tp1670
a(S'100000451923992'
S'Abdur-rahman Khan'
tp1671
a(S'1635283623'
S'Samie Jan'
tp1672
a(S'1196855510'
S'Ghousuddin Frotan'
tp1673
a(S'1055332447'
S'Dayan Bunerai'
tp1674
a(S'100000880331993'
S'Abdullah Khan Momand'
tp1675
a(S'100003529538442'
S'Muhammad Ibrahim Khan'
tp1676
a(S'100001077628854'
S'K Khan Yousofi'
tp1677
a(S'100001489305898'
S'Fida Barakzy'
tp1678
a(S'100001793119193'
S'Naderkhan Katawazai'
tp1679
a(S'100003002466814'
p1680
S'Pashtoon Karwan'
tp1681
a(S'100001657522074'
S'Seddiqullah Akakhail'
tp1682
a(S'608720098'
S'Ali K. Chishti'
tp1683
a(S'100002041784625'
S'Asif Rehman Mandokhail'
tp1684
a(S'100001870078431'
S'Muhammad Shafqat Murad'
tp1685
a(S'100001067370501'
S'Isar Taj Khan'
tp1686
a(S'100001457123312'
S'Zafar Ullah Kakar'
tp1687
a(S'100001459184668'
p1688
S'Khans Bosozoc'
tp1689
a(S'100002756301692'
S'Abdul Hameed'
tp1690
a(S'100002373598268'
S'Sabeel Khan Achakzai'
tp1691
a(S'100002432351227'
S'Amu Abasin'
tp1692
a(S'100001291912095'
S'\\u0634\\u0627\\u0647 \\u0627\\u0644\\u0631\\u062d\\u0645\\u0646 \\u0681\\u0648\\u0627\\u06a9'
tp1693
a(S'100001410947066'
S'Ibrahim Hamza'
tp1694
a(S'1753352381'
S'Ashraf Hoti'
tp1695
a(S'100002494670527'
S'Shakir Khan'
tp1696
a(S'100000457141178'
S'\\u0645\\u0644\\u0627 \\u0627\\u062e\\u0646\\u062f'
tp1697
a(S'100000982190621'
S'Zarak Khan Toryalai'
tp1698
a(S'100000289060464'
S'Hamid Niaz Wazir'
tp1699
a(S'100004550465686'
S'Shams Agha'
tp1700
a(S'100000618555724'
S'Pakhtoon Malang'
tp1701
a(S'100000745126873'
S'Rehan Ahmed'
tp1702
a(S'100002469475989'
S'Nangyale Pukhtun'
tp1703
a(S'100001769288194'
S'Matiullah Khalid Afg'
tp1704
a(S'100001162058187'
S'Karima Afghan'
tp1705
a(S'100000386495993'
S'Abdul Samad Kharoti'
tp1706
a(S'100002360902811'
S'Abbaseen Khan Achakzai'
tp1707
a(S'100002887208470'
S'Kayla Sonia'
tp1708
a(S'100000442741182'
S'Amanullah Dotani'
tp1709
a(S'100001870967387'
S'Farhad Saqib'
tp1710
a(S'100002494714798'
S'Haseeb Selab'
tp1711
a(S'100000620557918'
S'Abdul Khaliq'
tp1712
a(S'1556303016'
p1713
S'Jawad Ahmed Khan'
tp1714
a(S'1485545161'
S'Najib Rahman Mangal'
tp1715
a(S'100000161259328'
S'Sharif Jan'
tp1716
a(S'100001480841196'
S'Ahamd Shah Afghanistan'
tp1717
a(S'1566408846'
S'Zaheer Khan'
tp1718
a(S'632781346'
S'Mirwais Achakzai'
tp1719
a(S'666601805'
S'Laura Hammons'
tp1720
a(S'100001106470800'
S'Matkani Malakand'
tp1721
a(S'100002049281168'
S'Nadeem Arshad'
tp1722
a(S'100001048749579'
S'Babrak Khan'
tp1723
a(S'100003116185248'
S'Poetry Sahib Shah Sabir'
tp1724
a(S'100001432772355'
S'Asfandyar Khan'
tp1725
a(S'100002451356448'
S'Hussain Saba Dshtyari'
tp1726
a(S'100001044580902'
S'Abuzer Ibrahimi Abdurahemzi'
tp1727
a(S'100002858588573'
S'Bazmir Khan'
tp1728
a(S'100000998603278'
S'Mirwais Popal'
tp1729
a(S'100000501687384'
S'Nasar Maqsood Yousafzai'
tp1730
a(S'100002872534526'
S'Afghan Cricket'
tp1731
a(S'100003294619907'
S'Aimal Faizi'
tp1732
a(S'100001892944979'
S'Surgar Afg'
tp1733
a(S'100002114179592'
S'Asfandyar Pasoon'
tp1734
a(S'100002085311776'
S'Mena Mangal'
tp1735
a(S'100002175854238'
p1736
S'Balbala Paktiayawala'
tp1737
a(S'100001600718393'
S'Sami Jan Ska'
tp1738
a(S'100000364940304'
S'Iqbal Taimur'
tp1739
a(S'1568957086'
S'Zaro Zaree'
tp1740
a(S'1656214362'
S'Watan Jar Leonine'
tp1741
a(S'100000228235946'
S'Fazilah Abdul Rahim'
tp1742
a(S'100001805988541'
S'Basit Dawar'
tp1743
a(S'672965002'
S'C. Christine Fair'
tp1744
a(S'691376399'
S'Sharif Zarif'
tp1745
a(S'100000801559234'
S'Farooq Mandokhail'
tp1746
a(S'644168030'
S'Gahez Zwand'
tp1747
a(S'100003414656132'
S'Paxtun Afghan'
tp1748
a(S'100001923026635'
S'Obaid Asifzai'
tp1749
a(S'1409757434'
S'Muhammad Asad Malik'
tp1750
a(S'100000381719138'
S'Hassam Khan'
tp1751
a(S'100004170697977'
S'Malala Afghan'
tp1752
a(S'100005953717454'
S'Zafar Jan Rind'
tp1753
a(S'100002471952641'
S'Sahoo Barlas'
tp1754
a(S'100000673365881'
S'Amir Tarin'
tp1755
a(S'100001005584769'
S'Zafar Khan Khattak'
tp1756
a(S'100001955842668'
S'Abdulghani Totakhil'
tp1757
a(S'1232615936'
S'Sheraz Momand'
tp1758
a(S'100000562995401'
S'Aminullah Amarkhil'
tp1759
a(S'735409258'
S'Kaiser Hussein Turi'
tp1760
a(S'100002014989175'
S'Mahmood Khan'
tp1761
a(S'100001101618881'
S'Sohail Misri Momand'
tp1762
a(S'100000643647563'
S'Asmat Khan'
tp1763
a(S'100000717058491'
S'Marya Mehraban'
tp1764
a(S'100001775269764'
S'\\u0634\\u0645\\u0634\\u0627\\u062f \\u062d\\u064a\\u062f\\u0631'
tp1765
a(S'100001066982225'
p1766
S'\\u06ab\\u0644\\u0627\\u0628 \\u0645\\u0627\\u0645\\u0648\\u0646\\u062f'
tp1767
a(S'100000863516772'
S'Abdul Basir'
tp1768
a(S'100001781905576'
S'MeHboob Khan'
tp1769
a(S'100000724677237'
S'Ali Ahmad Jalali'
tp1770
a(S'100002471884100'
S'Seraj Khan Wazir'
tp1771
a(S'100001152734793'
S'\\u0639\\u062f\\u0627\\u0644\\u062a \\u0636\\u0627\\u0645\\u0646 \\u0635\\u0644\\u062d'
tp1772
a(S'1815051179'
S'Abid Khan'
tp1773
a(S'100003135505802'
S'Yousaf Mandokhail'
tp1774
a(S'100002561316189'
S'Haroon Bacha'
tp1775
a(S'878415136'
S'Declan Walsh'
tp1776
a(S'100002455375800'
p1777
S'Malang Jaan'
tp1778
a(S'100002207779317'
S'Hayat Khan'
tp1779
a(S'100002282348954'
S'Khan Jaffar'
tp1780
a(S'100000929242232'
S'Sayed Sebghatullah Shahidzai'
tp1781
a(S'100003099340149'
S'Khan Khurasane'
tp1782
a(S'100004077042717'
S'Watan Dost'
tp1783
a(S'1471266866'
S'Rashid Orakzai'
tp1784
a(S'100000231429985'
p1785
S'Rahim Khan Fidai'
tp1786
a(S'100000366354637'
S'Hatef Mokhtar'
tp1787
a(S'100002228125974'
S'Azmaray Khan Yousofzai'
tp1788
a(S'100000974244982'
S'Ahmed Khan'
tp1789
a(S'100002673622698'
S'Noor Ali Kakar'
tp1790
a(S'100000887352197'
p1791
S'Owais Jan'
tp1792
a(S'100002707036861'
S'Najibullah Zadran'
tp1793
a(S'100002485465207'
S'Romessa Jan'
tp1794
a(S'1719868650'
S'Yar M Yar'
tp1795
a(S'100005878861344'
S'Babbai Achakzai Hussan Bibi'
tp1796
a(S'553923463'
S'Meva Jan'
tp1797
a(S'100002844036566'
p1798
S'Ikram Khan Mubariz'
tp1799
a(S'100001400883322'
S'Khurshid Swati'
tp1800
a(S'100001409558124'
S'Nasrat Rahimi'
tp1801
a(S'1172605160'
S'Umaid Khan Musafir'
tp1802
a(S'100000673988459'
S'Maiwand Khan'
tp1803
a(S'100003460014716'
p1804
S'Komal Kakar'
tp1805
a(S'100003329826188'
S'Faiz Ullah Shah'
tp1806
a(S'100002163224170'
S'Roidad Khan'
tp1807
a(S'100002190662833'
S'Sher Khan Ahmadzai'
tp1808
a(S'100005015197471'
S'Matiullah Mandokhail'
tp1809
a(S'100000332228659'
S'Amn Tehreek'
tp1810
a(S'100001848111070'
S'Imran Khan'
tp1811
a(S'1106704394'
S'Darman Wazeer'
tp1812
a(S'100002075738543'
S'Malika Khan'
tp1813
a(S'1758919161'
S'Abdul Ghafoer Kabuli'
tp1814
a(S'100000217030218'
S'Hilal Momand'
tp1815
a(S'1220236776'
S'Guncha Durrani'
tp1816
a(S'100003061896353'
S'Chopan Khan'
tp1817
a(S'100001910627043'
S'Helmand Province'
tp1818
a(S'100005082995652'
S'Mina Farkha'
tp1819
a(S'100000839590838'
S'Kabeer Afghan'
tp1820
a(S'1221592136'
S'Wahid Ullah Razz'
tp1821
a(S'100001705154526'
p1822
S'Aftab Kakar'
tp1823
a(S'100002419863147'
S'\\u062f\\u0689\\u06cc\\u0648\\u0631\\u0646\\u062f \\u062c\\u0631\\u06ab\\u0647'
tp1824
a(S'100000300541784'
S'Fakhar Kakakhel'
tp1825
a(S'891355581'
S'Mohammad Ozair'
tp1826
a(S'100003211388669'
S'Pamir Khan'
tp1827
a(S'100002626014983'
S'Shadal Badal Khan'
tp1828
a(S'100000712599308'
S'Akbar Hoti'
tp1829
a(S'100002377449023'
S'Wais Azimi'
tp1830
a(S'100002390619775'
S'Jan Love'
tp1831
a(S'100003022775920'
S'Allahnazar Ahmadzai'
tp1832
a(S'100000542628427'
S'Nina Diab'
tp1833
a(S'100001097946808'
S'Engr Mudassar'
tp1834
a(S'100003036339582'
S'\\u0627\\u0628\\u0631\\u0627\\u0647\\u064a\\u0645 \\u062e\\u064a\\u0644'
tp1835
a(S'100001570641915'
S'Azad Marouf'
tp1836
a(S'100001498000379'
S'Pashtun Pakhtun'
tp1837
a(S'100002388338496'
S'Ismail Zaland'
tp1838
a(S'100001820812995'
S'Ayub Durrani'
tp1839
a(S'1378431393'
S'Wahab Stanikzai'
tp1840
a(S'100001628006153'
S'Ghani Sapay'
tp1841
a(S'100000689319338'
S'Najeeb Bawar'
tp1842
a(S'100001083374170'
S'Ghazi Khan'
tp1843
a(S'673174251'
S'Zarlakht Hafeez'
tp1844
a(S'100001001383915'
S'Bacha Khan'
tp1845
a(S'1266131422'
S'\\u0648\\u062d\\u06cc\\u062f\\u0627\\u0644\\u0644\\u0647 \\u0648\\u0631\\u062f\\u06a9'
tp1846
a(S'100001491087476'
S'Hiira Malik Hiira Malik'
tp1847
a(S'100001538517023'
S'Najeeb Saqib'
tp1848
a(S'100000078010378'
S'Abdul Rehman Mandokhail'
tp1849
a(S'100001579621446'
S'Irfay Khanz'
tp1850
a(S'100004044352232'
S'Shaukat Ullah'
tp1851
a(S'100003379120337'
S'Khan Attockwal'
tp1852
a(S'100002038069919'
S'Zargai Jan Khan'
tp1853
a(S'100002211757134'
S'Boom Boom Khan'
tp1854
a(S'100001884223748'
S'Nawaz Pashton'
tp1855
a(S'1795785665'
S'Faizullah Sherzoi Wardak'
tp1856
a(S'100004985677794'
S'Hayatullah Samadi'
tp1857
a(S'100002165630433'
S'Malak Zmarak Mandokhail'
tp1858
a(S'100002466796739'
S'Jahan Achakzai'
tp1859
a(S'100002147556706'
S'Sabir Khan'
tp1860
a(S'100000028161455'
S'Najeeb Ullah'
tp1861
a(S'576670133'
p1862
S'Waris Achakzai'
tp1863
a(S'100000093740245'
S'Irfan Khan'
tp1864
a(S'1314194450'
S'Dawood Jabarkhail'
tp1865
a(S'100001034153312'
p1866
S'Watan Dost Mandokhail'
tp1867
a(S'100000720995215'
S'Umair Ahad'
tp1868
a(S'611759516'
S'Wusat Ullah Khan'
tp1869
a(S'1152916230'
S'Ibrar Ahmad'
tp1870
a(S'100004036650640'
p1871
S'Sadiq Pashton'
tp1872
a(S'100002322711426'
S'Amir Usman Karkar'
tp1873
a(S'1415253715'
S'Afghan Pashton'
tp1874
a(S'100003332546064'
S'Azzad Pashtoonistan'
tp1875
a(S'100001639488318'
S'\\u0685\\u0631\\u06af\\u0646\\u062f \\u0681\\u0648\\u0627\\u06a9'
tp1876
a(S'100002474708403'
p1877
S'\\u0627\\u0646\\u0681\\u0648\\u0631\\u06cc\\u0632 \\u0634\\u0639\\u0631\\u0648\\u0646\\u0647'
tp1878
a(S'100003240282556'
S'Umarzada Haiderkhel Pmap'
tp1879
a(S'100001541572766'
p1880
S'\\u06cc\\u0627\\u0633\\u0631 \\u06a9\\u0627\\u06a9\\u0693'
tp1881
a(S'100001829886797'
S'Fida Khan'
tp1882
a(S'1386067188'
S'Watanpaal Journalist'
tp1883
a(S'100000589585907'
S'\\u0644\\u0637\\u064a\\u0641 \\u0646\\u0646\\u06af\\u0631\\u06c1\\u0627\\u0631\\u06cc'
tp1884
a(S'100001797703133'
S'Asif Naeimi'
tp1885
a(S'100002904827417'
S'Saboor Kakar'
tp1886
a(S'100002007605520'
p1887
S'\\u06ab\\u0644 \\u0631\\u06cc\\u062d\\u0627\\u0646 \\u062d\\u0633\\u06cc\\u0646 \\u062e\\u06cc\\u0644'
tp1888
a(S'100000894063033'
S'Haleem Kakar'
tp1889
a(S'100002389363708'
S'Meena Tabasum Meena'
tp1890
a(S'100000989182211'
S'Abdul Basit Mehrabi'
tp1891
a(S'100003241104755'
S'Malak Rehan Khan Kudazai'
tp1892
a(S'100002525720335'
S'\\u0633\\u067e\\u064a\\u0646 \\u063a\\u0631 \\u0632\\u0648\\u0646'
tp1893
a(S'100001090043373'
S'Zaland Achakzai'
tp1894
a(S'1608288180'
S'Sami Jogezai'
tp1895
asS'id'
p1896
S'817966561'
p1897
sS'name'
p1898
S'\\u0648\\u0644\\u06cc \\u0627\\u0641\\u063a\\u0627\\u0646'
p1899
s.