(dp1
S'friends'
p2
(lp3
(S'202904262'
S'Preeti Jha'
tp4
a(S'1807790056'
S'Manoj Joshi'
tp5
a(S'823488501'
S'Sobhan Kar'
tp6
a(S'613676590'
S'Shailesh Pathak'
tp7
a(S'100001167068627'
S'Yogender Chaudhry'
tp8
a(S'100000661325471'
S'Bishwanath Jha'
tp9
a(S'100000468823739'
S'BV Gopinath'
tp10
a(S'1751051692'
S'Ravi Shanker'
tp11
a(S'610415044'
S'PK Sinha'
tp12
a(S'1464571589'
S'Ejaz Ghani'
tp13
a(S'554863952'
S'G.Shanker Phani Kishore'
tp14
a(S'1090457076'
S'Susie Varghese'
tp15
a(S'1140524850'
S'Sanjeev Singh'
tp16
a(S'100000411110070'
S'Suraj Yadav'
tp17
a(S'100002447500771'
S'Swati Joshi'
tp18
a(S'570386113'
S'Deepshikha Sikarwar'
tp19
a(S'1325190196'
S'Rajeev P Singh'
tp20
a(S'752063798'
S'Anurag Bhatnagar'
tp21
a(S'707279394'
S'Mahua Sarkar'
tp22
a(S'8404890'
S'Amitava Kumar'
tp23
a(S'1617133618'
S'Kusum Jain'
tp24
a(S'37001106'
S'Malinga Fernando'
tp25
a(S'610196799'
S'Sanjeev Miglani'
tp26
a(S'819150815'
S'Raj Kamal'
tp27
a(S'510693315'
S'Harsh Prakash'
tp28
a(S'773174354'
S'Jagmohan Gupta'
tp29
a(S'729990414'
S'Sk Singh'
tp30
a(S'1640383774'
S'Tanuja Jha'
tp31
a(S'542605041'
S'Shishir Jha'
tp32
a(S'1171386292'
S'Snehil Jha'
tp33
a(S'1497690573'
S'Sanjeev Sharma'
tp34
a(S'1352652549'
S'Martin Kleinberger'
tp35
a(S'616133161'
S'Rishabh Raj Jain'
tp36
a(S'588088223'
S'Maya Sinha'
tp37
a(S'635027599'
S'Samir Bhengra'
tp38
a(S'1277236948'
S'Ansuman Pattnaik'
tp39
a(S'1409801730'
S'Albert Jodhimani'
tp40
a(S'1268415419'
S'Sangeeta Singh'
tp41
a(S'100005324463436'
S'Ramesh Jha'
tp42
a(S'100001043469629'
S'Dee Loyi'
tp43
a(S'100001941860324'
S'Bhaskar Goswami'
tp44
a(S'1528327594'
S'Tulika Mishra'
tp45
a(S'792360542'
S'Navneet Manohar'
tp46
a(S'622712960'
S'Animesh Roy'
tp47
a(S'1605216153'
S'Vinod Kumar Pandey'
tp48
a(S'698194500'
S'Amritanshu Singh'
tp49
a(S'789468621'
S'Arun S Bhatnagar'
tp50
a(S'655939086'
S'Pavan Jha'
tp51
a(S'560199084'
S'Rajan Chakravarty'
tp52
a(S'767816003'
S'Alpana Bhatnagar'
tp53
a(S'632434927'
S'Shailesh Upadhyay'
tp54
a(S'1064547969'
S'Amitabh Kumar'
tp55
a(S'644436714'
S'Sukant Srivastava'
tp56
a(S'565428532'
S'Yogesh Pande'
tp57
a(S'839654303'
S'Poonam Khaira Sidhu'
tp58
a(S'1056039426'
S'Ranjanesh Sahai'
tp59
a(S'607832438'
S'Surabhi Sinha'
tp60
a(S'1234507026'
S'Amaresh Singh'
tp61
a(S'37005857'
S'Smriti Jha'
tp62
a(S'579882011'
S'Sada Sivan Sundaram'
tp63
a(S'556343807'
S'Pramath Raj Sinha'
tp64
a(S'633832082'
S'Shefali Shah'
tp65
a(S'100002523043072'
S'Rajanikant Gupta'
tp66
a(S'100002448528845'
S'Archana Choudhary'
tp67
a(S'535027738'
S'Shantala Granier Jha'
tp68
a(S'1040729769'
S'Binod K Sinha'
tp69
a(S'742678347'
S'Amitav Ranjan'
tp70
a(S'586937020'
S'Pramod Shrivastava'
tp71
a(S'100007251662419'
S'Srinivas Danda'
tp72
a(S'655643007'
S'Ayush Jha'
tp73
a(S'1409795991'
S'Hemant Sarangi'
tp74
a(S'599532820'
S'Ravindra Kumar'
tp75
a(S'1566402572'
S'Satyendra Jha'
tp76
a(S'566448852'
S'Debjyoti Das'
tp77
a(S'14401997'
S'Richa Jha'
tp78
a(S'1310837613'
S'Manish Kumar'
tp79
a(S'1061611391'
S'Peeyush Sonkar'
tp80
a(S'100000159486283'
S'Ashok Jha'
tp81
a(S'100000280374252'
S'Anand Upadhyay'
tp82
a(S'100003672017847'
S'Sangeeta Jha'
tp83
asS'id'
p84
S'833104423'
p85
sS'name'
p86
S'Shishir Jha'
p87
s.