(dp1
S'friends'
p2
(lp3
(S'1567652624'
S'Ivie Eweka'
tp4
a(S'100001547751047'
S'Ryan James Palmer'
tp5
a(S'1028717031'
S'Risako Yoshioka'
tp6
a(S'671916355'
S'Ben Gan'
tp7
a(S'1824943632'
S'Belal Ahmed'
tp8
a(S'100004839102912'
S'Hajra Mehmood'
tp9
a(S'100000585465278'
S'Caroline Sydney Brown'
tp10
a(S'100000054667319'
S'Joachim Jamal Cedergren'
tp11
a(S'100000984097054'
S'Max Coulson'
tp12
a(S'1348180615'
S'Varisht Raheja'
tp13
a(S'836704044'
S'Mhafrin Basta'
tp14
a(S'1270978012'
S'Kieran Bose Rosling'
tp15
a(S'1103541261'
S'Maya Luckett'
tp16
a(S'1717860417'
S'Sonali Mathur'
tp17
a(S'100000479521199'
S'Costa Gazidis'
tp18
a(S'100000368535430'
S'Abby Watt'
tp19
a(S'839118218'
S'Trilok Sadarangani'
tp20
a(S'100004528530513'
S'Callum Hafner Schnee'
tp21
a(S'100000203245684'
S'Bjorn Sigurdsson'
tp22
a(S'100007531543182'
S'Mafi Albanell'
tp23
a(S'100001234773192'
S'Bobby Collins'
tp24
a(S'100001315471537'
S'Tarini Miglani'
tp25
a(S'100002802949708'
S'Joshua Mills'
tp26
a(S'510593241'
S'Julian Marwitz'
tp27
a(S'100005998422328'
S'Jonathan Wynter'
tp28
a(S'639514093'
S'Eva Piskadlo'
tp29
a(S'1186332689'
S'Hayden Victor'
tp30
a(S'608836371'
S'Omar Rashid'
tp31
a(S'1519975031'
S'Lisa Ho'
tp32
a(S'797655025'
S'Dorothea Weitzer'
tp33
a(S'100000450517330'
S'Sophia Mangoesareyum'
tp34
a(S'1698334402'
S'Tanisha Gupta'
tp35
a(S'100000156698986'
S'Lauren Holly Watkins'
tp36
a(S'563964993'
S'Hari Menon'
tp37
a(S'100000595447866'
S'Roden Toast-Domate MeDjath-Derveni'
tp38
a(S'100000871101732'
S'Sarah Fletcher'
tp39
a(S'631840334'
S'Mohammad Zia Adnan'
tp40
a(S'1493103894'
S'Hradini Bhogilal'
tp41
a(S'700628383'
S'Shafaat Hussain'
tp42
a(S'652202678'
S'Inbal Kadim'
tp43
a(S'1373803224'
S'Billy Kennedy'
tp44
a(S'1576389490'
S'James Malin'
tp45
a(S'100001833073906'
S'Nomnom DelCoric'
tp46
a(S'100002359072319'
S'Georgina Hanigan'
tp47
a(S'100001230101233'
S'Mackenzie Kopp'
tp48
a(S'546690161'
S'Bhavya Bishnoi'
tp49
a(S'1161324008'
S'Anvita Dixit'
tp50
a(S'100003961429432'
S'Marius Skaerved'
tp51
a(S'614250474'
S'Alina Shah'
tp52
a(S'100000197721535'
S'Erik Hess'
tp53
a(S'610636978'
S'Rivka Irani'
tp54
a(S'100004357450447'
S'Rachell Hartgens'
tp55
a(S'1039892191'
S'Ben Zhang'
tp56
a(S'831384195'
S'Arwa Potia'
tp57
a(S'100000329092986'
S'Matthew Payne'
tp58
a(S'718898174'
S'Kelly Chang'
tp59
a(S'100000283407897'
S'Naushad Ahmed'
tp60
a(S'100000203921473'
S'Gal Horesh'
tp61
a(S'100002095576095'
S'Kjersti Field'
tp62
a(S'571395122'
S'Devlina Dalal'
tp63
a(S'1519028628'
S'Carol Gr\\u00f6bli'
tp64
a(S'1225314191'
S'Yves Mathys'
tp65
a(S'884990074'
S'Akbar Saeed'
tp66
a(S'100003052301742'
S'Ram Kumar'
tp67
a(S'1448397674'
S'Elijah Spies'
tp68
a(S'566452092'
S'Shonali Sardesai'
tp69
a(S'1450960658'
S'Daniyal Aziz Khan'
tp70
a(S'501108918'
S'Nasheed Mehmood'
tp71
a(S'1313923283'
S'Aldon Campbell'
tp72
a(S'1257447982'
S'Kamil Ahmad'
tp73
a(S'100000296704365'
S'Jonathan Udow'
tp74
a(S'100000469324269'
S'Kendel Craig'
tp75
a(S'100000082614325'
S"Miles O'Reilly"
tp76
a(S'100001195741927'
S'Liz Walsh'
tp77
a(S'100001249928005'
S'Isaac Semaya'
tp78
a(S'508684609'
S'Urvashi Khemka'
tp79
a(S'1509786195'
S'Claire Karch'
tp80
a(S'1053614752'
S'James McGhie'
tp81
a(S'1513863261'
S'Olivia Simon'
tp82
a(S'649800197'
S'Imran Wali Ahmad'
tp83
a(S'1786310560'
S'Julia Morris'
tp84
a(S'100001839557074'
S'Rafia Murtaza'
tp85
a(S'1782467393'
S'Ian Scoville'
tp86
a(S'1028057574'
S'Ren\\u00e9e Luthria'
tp87
a(S'1359291659'
S'Tori Sasaki'
tp88
a(S'100003805599050'
S'Nicki Kidd'
tp89
a(S'610261834'
S'Rinan Ismail'
tp90
a(S'820030590'
S'Akshita Mehra'
tp91
a(S'100000126097443'
S'Saroor Noon'
tp92
a(S'564695637'
S'Naina Balsaver Ahmad'
tp93
a(S'1314139792'
S'Tarini Sardesai'
tp94
a(S'100000188295156'
S'Chloe Jean Burns'
tp95
a(S'1604351154'
S'Benafsha Jani'
tp96
a(S'100000353542964'
S'Isabella Fernandes'
tp97
a(S'100000553438570'
S'Olivia DiVincenzo'
tp98
a(S'100000183271130'
S'Myles McDevitt'
tp99
a(S'1349003720'
S'Angad Singh'
tp100
a(S'1782051387'
S'Merlin Gygax'
tp101
a(S'100000422737368'
S'Kayla Thompson'
tp102
a(S'100000501132670'
S'Katherine Lake'
tp103
a(S'1380120446'
S'Andrew Firestone'
tp104
a(S'1638544830'
S'Clayton Sasaki'
tp105
a(S'100000034344559'
S'Katie Lawrie'
tp106
a(S'850845596'
S'Vanshica Kant'
tp107
a(S'100000171171878'
S'Sasha DeOrio'
tp108
a(S'100000489364931'
S'Tamara Mas'
tp109
a(S'1609860431'
S'Rachel Brouwer'
tp110
a(S'586116772'
S'Karan Kochhar'
tp111
a(S'100005393490782'
S'Ashley Kopser'
tp112
a(S'1809492796'
S'Will Price'
tp113
a(S'1739428676'
S'Simon Reding'
tp114
a(S'100003021056126'
S'Haider Said'
tp115
a(S'1798750918'
S'Yanthe Roumen'
tp116
a(S'100000353760904'
S'Zeanut Ahmad'
tp117
a(S'100000483822831'
S'Lizzie Shaffran'
tp118
a(S'100000694696801'
S'Melissa Louidor'
tp119
a(S'100001142109781'
S'Elliotte Lee'
tp120
a(S'1440506204'
S'Ariza Divecha'
tp121
a(S'725615355'
S'Samya Singh'
tp122
a(S'1631904908'
S'Sharique Ahmad'
tp123
a(S'100000484912326'
S"Alexandra Dell'Anno"
tp124
a(S'100000344862515'
S'Alexina Njoroge'
tp125
a(S'625556485'
S'Madhav Vohra'
tp126
a(S'557711802'
S'Varun Rai'
tp127
a(S'508703500'
S'Kara Kumar'
tp128
a(S'100000555517124'
S'Peter Ryan'
tp129
a(S'100001908513614'
S'Ysabel Soriano'
tp130
a(S'100000101594318'
S'Viraaj Jayaram'
tp131
a(S'100001501001521'
S'Joshua Vazquez'
tp132
a(S'100003745183631'
S'Sophia Angel'
tp133
a(S'1082824118'
S'Sydney Rossiter'
tp134
a(S'100002958716839'
S'Shreya Kakarla'
tp135
a(S'504664397'
S'Sharmeen Rashid'
tp136
a(S'1099051236'
S'Shakela Begum'
tp137
a(S'100000028950180'
S'Amin OJ'
tp138
a(S'1083224355'
S'Tara Advaney'
tp139
a(S'100001130897260'
S'Sana Ahmad'
tp140
a(S'1802145727'
S'Aamna Ahmad'
tp141
a(S'100002063529426'
S'David Costin'
tp142
a(S'1522335385'
S'Adiya King'
tp143
a(S'1217125641'
S'Ariana Navasero'
tp144
a(S'1191888971'
S'Siddhi Kapadia'
tp145
a(S'606387271'
S'Zeenia Khan'
tp146
a(S'100002157790493'
S'Andrew Bake'
tp147
a(S'100000086679082'
S'Esrom Abraham'
tp148
a(S'100001465077004'
S'Tristan Burke'
tp149
a(S'1650125162'
S'Allie Apollo Burns'
tp150
a(S'531061857'
S'Hamish Stephenson'
tp151
a(S'100001022325656'
S'Malvika Dahiya'
tp152
a(S'100000610821613'
S'Saima Ahmed'
tp153
a(S'720503615'
S'Malu Azeredo'
tp154
a(S'1307165734'
S'Rashi Shah'
tp155
a(S'1017537475'
S'Adele Cohen'
tp156
a(S'1572944298'
S'Sally Park'
tp157
a(S'884700304'
S'Amir Rashid'
tp158
a(S'1305742478'
S'Riku Komuro'
tp159
a(S'521545124'
S'Aasia Qayium'
tp160
a(S'571039059'
S'Maria-Jose Nebreda'
tp161
a(S'647392328'
S'Vandinika Shukla'
tp162
a(S'1408626416'
S'Felicia Grable'
tp163
a(S'100000040294657'
S'Emily Richter'
tp164
a(S'1457394993'
S'Anushka Kejariwal'
tp165
a(S'1194644688'
S'Osama Al Nammary'
tp166
a(S'1343229288'
S'Aamir Shah'
tp167
a(S'100002704447405'
S'Isa Mi\\u00f1ana Lovelace'
tp168
a(S'100002412174054'
S'Tuhin Nambiar'
tp169
a(S'1598170992'
S'Tasneem Zaveri'
tp170
a(S'100000567263823'
S'Tarush Gupta'
tp171
a(S'1480467174'
S'Gabriel Patino'
tp172
a(S'1606366569'
S'Suryansh Rastogi'
tp173
a(S'100003758283841'
S'Tatianna Kalb'
tp174
a(S'100000480799547'
S'Neel Pujari'
tp175
a(S'100002054959944'
S'Sam Ginzburg'
tp176
a(S'1326860527'
S'Tony Britvec'
tp177
a(S'100003565910174'
S'Ryan Musto'
tp178
a(S'100003022395266'
S'Sarah Alderson'
tp179
a(S'100006431837832'
S'Vivek Prasad'
tp180
a(S'100000137298747'
S'Alex Wohlin'
tp181
a(S'100002976927129'
S'Megan Welch'
tp182
a(S'100003233332002'
S'Colin Poler'
tp183
a(S'698078392'
S'Abhisvara Sinha'
tp184
a(S'686688018'
S'Saloni Dayal'
tp185
a(S'628300095'
S'Faiz Ahmad'
tp186
a(S'715414466'
S'Muktar Ali'
tp187
a(S'1044400278'
S'Saba Ahmad'
tp188
a(S'100000215531498'
S'Adi Horesh'
tp189
a(S'100000219821721'
S'Nathan Homerski'
tp190
a(S'1322147630'
S'Kartik Srivastava'
tp191
a(S'100001455857417'
S'Jordyn Hawkins-Rippie'
tp192
a(S'100002633863877'
S'Max Barnett'
tp193
a(S'100001134128442'
S'Tasha Recoder'
tp194
a(S'1245750661'
S'Adnan Ahmad'
tp195
a(S'100001700954139'
S'Gabriel Ruimy'
tp196
a(S'100001434856329'
S'Maddie Schwinn'
tp197
a(S'614825507'
S'Zarine Zaki'
tp198
a(S'1269777927'
S'Taarika Peres'
tp199
a(S'100001897784547'
S'Paolo Alighieri'
tp200
a(S'100002346455138'
S'Gabriel De Mattos Strada'
tp201
a(S'100001029212463'
S'Ailey McLeod'
tp202
a(S'100000989284740'
S'MD Shelton'
tp203
a(S'1513244400'
S'Yamima Zaman'
tp204
a(S'100000945817452'
S'Zinab Zaaiter'
tp205
a(S'547927331'
S'Advika Gupta'
tp206
a(S'1343707122'
S'Emma Kollek'
tp207
a(S'100001047753423'
S'Anurag Khanna'
tp208
a(S'1671415632'
S'Anik Le'
tp209
a(S'1215620096'
S'Kajal Jhunjhunwala'
tp210
a(S'100000196409302'
S'Ekram Ali'
tp211
a(S'739684738'
S'Ismaeel Aurangzeb Ramday'
tp212
a(S'1035861789'
S'Jasmina Coric'
tp213
a(S'1661470921'
S'Chelsea Osamba'
tp214
a(S'651862588'
S'Gale Cecelia'
tp215
a(S'1748298130'
S'Aanchal Chopra'
tp216
a(S'100005509772453'
S'Sarah Brunsberg'
tp217
a(S'1431054864'
S'Ian Ware'
tp218
a(S'1312138142'
S'Tate Sedar'
tp219
a(S'583142820'
S'Shazmeen Lawyer'
tp220
a(S'100000183114715'
S'Priyanka Shah'
tp221
a(S'100000539549174'
S'Lindsay Richardson'
tp222
a(S'100000138492935'
S'Sannidhi Joshipura'
tp223
a(S'100004702325011'
S'Sean Norris'
tp224
a(S'100000384773689'
S'Emma Hatheway'
tp225
a(S'690583689'
S'Shaheen Dubash'
tp226
a(S'564745338'
S'Sanaya Contractor'
tp227
a(S'100000094226265'
S'Ananya Sethi'
tp228
a(S'514825968'
S'Yusuf Ahmed'
tp229
a(S'1433322676'
S'Tanisha Sheth'
tp230
a(S'1631872721'
S'Zac Mistry'
tp231
a(S'504914861'
S'Anshul Gupta'
tp232
a(S'1506012632'
S'Lucy Guyett'
tp233
a(S'100002882351649'
S'Eliza Moyle'
tp234
a(S'1050592664'
S'Justin Kugel'
tp235
a(S'1629600279'
S'Maggie Kupitz'
tp236
a(S'1634133035'
S'Tanya Ghosh'
tp237
a(S'1695683704'
S'Nabhanya Morarji'
tp238
a(S'1572141727'
S'Paula Paddack'
tp239
a(S'1422284562'
S'Angie Rand'
tp240
a(S'100002034545052'
S'Ted Teo'
tp241
a(S'1297964819'
S'Aya McCarthy'
tp242
a(S'677711879'
S'F\\u00e9li Dumas'
tp243
a(S'100001453753988'
S'Julian Scott'
tp244
a(S'769428901'
S'Dariush Yaz'
tp245
a(S'100003701515561'
S'Eve Heynderickx'
tp246
a(S'100005083802293'
S'Thea Littlewood'
tp247
a(S'100000203912553'
S"Relia Turquoise'Gold Robinson"
tp248
a(S'100001234119878'
S'Charleen Lopes'
tp249
a(S'1800849573'
S'Fatima Quraishi'
tp250
a(S'100002874318402'
S'Rebecca Brunsberg'
tp251
a(S'100003805657362'
S'Noah Silberwasser'
tp252
a(S'100004102158949'
S'Lucian Montgomery'
tp253
a(S'1009790846'
S'Kakeru Tokuda'
tp254
a(S'1589240681'
S'Ananya Samuel'
tp255
a(S'1279082488'
S'Utsa Hathiramani'
tp256
a(S'638115618'
S'Suroor Hussain'
tp257
a(S'1414771874'
S'Hayley Hogg'
tp258
a(S'100000472252555'
S'Adiva Shah'
tp259
a(S'100001765414853'
S'Phoebe Merrick'
tp260
a(S'100002103046918'
S'Anushka Dalal'
tp261
a(S'100001650384932'
S'Lorenzo Maglione'
tp262
a(S'100001500791924'
S'Gabriela Tanaka'
tp263
a(S'514822624'
S'Zara Ahmed'
tp264
a(S'1583113973'
S'Natalie Holley'
tp265
a(S'100000712890942'
S'Stefan Chao'
tp266
a(S'1490737884'
S'Carlsy Weschler'
tp267
a(S'100002583427020'
S'Simi Prasad'
tp268
a(S'1024084122'
S'Shujaat Hussain'
tp269
a(S'1249126352'
S'Andre Maman'
tp270
a(S'1660573920'
S'Dogge Palmstedt'
tp271
a(S'100000430594008'
S'Pascal Schlee'
tp272
a(S'686169723'
S'Siya Dayal'
tp273
a(S'100001289495715'
S'Michaela Etre'
tp274
a(S'100003253383326'
S'Homa Naaz'
tp275
a(S'1144226735'
S'Sanaya Bhatia'
tp276
a(S'100000542141910'
S'Lauren Rossiter'
tp277
a(S'100000408409443'
S'Rachel Deeley'
tp278
a(S'100000120084494'
S'Kate Daly'
tp279
a(S'1214628036'
S'Zack Hourihane'
tp280
a(S'100000455286341'
S'Aim\\u00e9e Huinck'
tp281
a(S'1405373295'
S'Sophie Amalie Frausing Christensen'
tp282
a(S'1522502002'
S'Anushka Mehta'
tp283
a(S'1154419564'
S'Gayatri Ramesh'
tp284
a(S'100000537085859'
S'SoMi Park'
tp285
a(S'100002299435346'
S'Joanna Haug'
tp286
a(S'774267497'
S'Yusuf Sindi'
tp287
a(S'100000453143577'
S'Lillian Roos'
tp288
a(S'1373800830'
S'Maya Harris'
tp289
a(S'100000129576055'
S'Fae Sapsford'
tp290
a(S'100002940863023'
S'Tyler Green'
tp291
a(S'1497263152'
S'Camille Bond'
tp292
a(S'100000194588781'
S'Jessica Copeland'
tp293
a(S'100002344515371'
S'Abby Jacoba'
tp294
a(S'100001623407407'
S'Emma Avelis'
tp295
a(S'1213024554'
S'Deshna Chheda'
tp296
a(S'1530584971'
S'Ashley M. Aracena'
tp297
a(S'1585835187'
S'Caroline Rae Schneider'
tp298
a(S'560312836'
S'Narkis Alon'
tp299
a(S'100000910558038'
S'Anna Graham'
tp300
a(S'852210120'
S'Prajeet Bajpai'
tp301
a(S'1007904943'
S'William Rittenhouse'
tp302
a(S'657915435'
S'Saif Attari'
tp303
a(S'587970318'
S'Samia Ahmad'
tp304
a(S'1035923263'
S'Faizan Malik'
tp305
a(S'100000570281294'
S'Kavish Pal Singh Wadhwa'
tp306
a(S'100000564130414'
S'Talha Wahid'
tp307
a(S'1534083064'
S'George Rogers'
tp308
a(S'100002340316581'
S'Surabhi Somani'
tp309
a(S'628067812'
S'Subhag Singh'
tp310
a(S'669139628'
S'Pauline Siertsema'
tp311
a(S'655290393'
S'Ayesha Puri'
tp312
a(S'100001711396099'
S'Andrea Hanta'
tp313
a(S'100000097632988'
S'Leila Ben Halim'
tp314
a(S'1265311194'
S'Nick Wilson'
tp315
a(S'1171837387'
S'Antarah Zaima Rahim'
tp316
a(S'100000062313494'
S'Rebecca Ryan Jones'
tp317
a(S'1433742360'
S'Laura Vogtle'
tp318
a(S'1170801321'
S'Aashna Vurdhman'
tp319
a(S'100000349429695'
S'Alex Hogenhuis'
tp320
a(S'887965236'
S'Aleah Ahmad'
tp321
a(S'100002470737917'
S'Lilli Leight'
tp322
a(S'100001739243190'
S'Julia Leland'
tp323
a(S'528206086'
S'Zain Ahmed'
tp324
a(S'1053034106'
S'Tess Spencer'
tp325
a(S'100002033019691'
S'Greta Poler'
tp326
a(S'1303318490'
S'Anushka Merchant'
tp327
a(S'100007928710070'
S'JB Petit HS'
tp328
a(S'651871355'
S'Aakanksha Jadhav'
tp329
a(S'100001133547760'
S'Farjana Begum'
tp330
a(S'100000574336081'
S'Richard Yang'
tp331
a(S'100004275464087'
S'Antoine Beckett'
tp332
a(S'1709243453'
S'Yasmeen Sarwar'
tp333
a(S'1263641832'
S'Zoe Alberts'
tp334
a(S'100000225604523'
S'Shardonay Pagett'
tp335
a(S'575536628'
S'Anaya Jhaveri'
tp336
a(S'506382520'
S'Nadia Saeed'
tp337
a(S'100001149766190'
S'Miriam Applbaum'
tp338
a(S'1455864326'
S'Minnie Jun'
tp339
a(S'903950537'
S'Chloe Valbuena'
tp340
a(S'604270591'
S'Sarina Ando'
tp341
a(S'1239255397'
S'Tanya Bhalla'
tp342
a(S'617550515'
S'Rafat Ahmed'
tp343
a(S'686138884'
S'Reha Patel'
tp344
a(S'546385316'
S'Nasir Saeed'
tp345
a(S'100001193289103'
S'Surina Mehta'
tp346
a(S'1633286932'
S'Shelly Pires'
tp347
a(S'1179792384'
S'Ujjwal Dahuja'
tp348
a(S'549323847'
S'Shuk Fong'
tp349
a(S'100000346952627'
S'Isaac Carroo'
tp350
a(S'1603181036'
S'Priya Kothari'
tp351
a(S'1799027305'
S'Jack Tingey'
tp352
a(S'1173174255'
S'Simran Jehani'
tp353
a(S'100002484772929'
S'Katie Dishner'
tp354
a(S'100001262894652'
S'Sabrina Angco'
tp355
a(S'1191506798'
S'Sabrina Sigismondi'
tp356
a(S'808925433'
S'Shreya Kothari'
tp357
a(S'100000016311060'
S'Nate Faust'
tp358
a(S'100002259727723'
S'Aidan Gazidis'
tp359
a(S'100003674096875'
S'Paola Kalb'
tp360
a(S'1397724129'
S'Shamar Morris'
tp361
a(S'100002327654593'
S'Saif Ullah Saeed'
tp362
a(S'100006297041429'
S'Antara Dasgupta'
tp363
a(S'100000534310731'
S'Emie Nathan'
tp364
a(S'100000495200797'
S'Sophia Uy'
tp365
a(S'1421778984'
S'Romanshi Mittal Gupta'
tp366
a(S'100001793538772'
S'Stuart Ashford'
tp367
a(S'1649160812'
S'Cameron Swanson'
tp368
a(S'100002112820915'
S'Jonathan Wang'
tp369
a(S'1485862934'
S'Akanksha Subramanian'
tp370
a(S'756341341'
S'Hailie Gill'
tp371
a(S'100001222195195'
S'Alisha Gandhi'
tp372
a(S'100000945542732'
S'Emily Lovett'
tp373
a(S'1125557021'
S'Tanya Shah'
tp374
a(S'193201152'
S'Fahd Saeed'
tp375
a(S'1450233097'
S'Johnathan Cirenza'
tp376
a(S'100000204020860'
S'Jane Noel'
tp377
a(S'1382626319'
S'Benedikt Kolbeinsson'
tp378
a(S'100000960998086'
S'Margot Shang'
tp379
a(S'100001830024726'
S'Bhavani Khemka'
tp380
a(S'538715391'
S'Nik Huth'
tp381
a(S'1117731270'
S'Tushar Bhargava'
tp382
a(S'1550946964'
S'Gitta Jocson'
tp383
a(S'1440488550'
S'Jahdae Trott'
tp384
a(S'100000276237949'
S'Shen Trick Spegelaere'
tp385
a(S'743135413'
S'Ayesha Mangaldas'
tp386
a(S'523221025'
S'Anyaa Dev'
tp387
a(S'1561847848'
S'Veronica Lim'
tp388
a(S'1280621284'
S'Alessandro Cavarretta'
tp389
a(S'1396696303'
S'Tommy Brooks'
tp390
a(S'1432838852'
S'Melissa Dunn'
tp391
a(S'1438182976'
S'Rami Kablawi'
tp392
a(S'1035502325'
S'Olivia Whittaker'
tp393
a(S'1531145776'
S'Svena Bhasin'
tp394
a(S'518565250'
S'Medha Krishna'
tp395
a(S'100005884891482'
S'Gayatri Khemka'
tp396
a(S'100001457121528'
S'Caitlin Niltiac'
tp397
a(S'100001355424015'
S'Linah Ahmad'
tp398
a(S'535329716'
S'Ruxshin Basta'
tp399
a(S'100001293409790'
S'Azamsaeed Mian'
tp400
a(S'572034728'
S'Charlie Hennessy'
tp401
a(S'100002875940733'
S'Jordi Albanell'
tp402
a(S'500973247'
S'Shaaz Mehmood'
tp403
a(S'734325385'
S'Shruthi Ru Swaminathan'
tp404
a(S'100000204518769'
S'Mark Goodall'
tp405
a(S'100000039011018'
S'Bren Jeffries'
tp406
a(S'673445790'
S'Jeffrey Bandeen'
tp407
a(S'627085415'
S'Zenia Cassinath'
tp408
a(S'1322226052'
S'Lukas Nichols'
tp409
a(S'617160017'
S'Nikhil Pandhi'
tp410
a(S'1308910957'
S'Saib Ahmad'
tp411
a(S'100001272240760'
S'Reid James'
tp412
a(S'100002614419740'
S'Hayden Brown'
tp413
a(S'1370768467'
S'Sheina Putri Rijanto'
tp414
a(S'100000039864698'
S'Brendan Ware'
tp415
a(S'717360939'
S'Riya Saxena'
tp416
a(S'100000189113600'
S'James Callaway'
tp417
a(S'100000490963800'
S'Katie Bell'
tp418
a(S'1351886068'
S'Anish Suri'
tp419
a(S'100000049211549'
S'Swadha Krishna'
tp420
a(S'1624924790'
S'Rin Watanabe'
tp421
a(S'100000650169659'
S'Ryan Lee'
tp422
a(S'100000048607638'
S'Emily Bell'
tp423
a(S'1352859021'
S'Shrinkhala Jain'
tp424
a(S'100002204314122'
S'Noah Linton'
tp425
a(S'100001211109802'
S'Noor Fatima Said'
tp426
a(S'100004704728836'
S'Kabir Kumar'
tp427
a(S'100002821691862'
S'Abbie Dillon'
tp428
a(S'100002326228203'
S'Diya Katyal'
tp429
a(S'100001372164813'
S'Spencer M Jones'
tp430
a(S'100003040193714'
S'Calvin Bohner'
tp431
a(S'743195800'
S'Jahan Ara Aurangzeb Ramday'
tp432
a(S'100001901442538'
S'Drew Kibler'
tp433
a(S'100000136085472'
S'Frankie Bea Sedar'
tp434
a(S'1315055944'
S'Megan Van Pelt'
tp435
a(S'674852162'
S'Saanya Mansharamani'
tp436
a(S'745325563'
S'Anahita Cassinath'
tp437
a(S'573216818'
S'Shermeen Ahmad'
tp438
a(S'100001267590462'
S'Joe Reilly'
tp439
a(S'100003654168581'
S"Matt D'Angelo"
tp440
a(S'100001043450810'
S'Ryan Rangaiah'
tp441
a(S'1024919700'
S'Alex VD'
tp442
a(S'718924583'
S'Louise Elisabet Ekstrand'
tp443
a(S'100000875734377'
S'Emeline Callaway'
tp444
a(S'698466909'
S'Damini Tandan'
tp445
a(S'100001289499700'
S'Darcy Ann Kimberlin'
tp446
a(S'1381898337'
S'Louisa Phillips'
tp447
a(S'100001031290615'
S'Jack Roth'
tp448
a(S'100000379404424'
S'Beth Anne DeKeizer'
tp449
a(S'100001595094506'
S'Alex Liederman'
tp450
a(S'539789289'
S'Michael Meier'
tp451
a(S'100003361515573'
S'Milo Rechler'
tp452
a(S'100001592607403'
S'Julianne Pyron'
tp453
a(S'1223820327'
S'Jasmine Jennings'
tp454
a(S'100002338730731'
S'Jayashree Khemka'
tp455
a(S'100000486468657'
S"Adarsh 'Doomdogy' Balaji"
tp456
a(S'100001476268472'
S'Lucille Merks'
tp457
a(S'1537506891'
S'Anjali Singh-Mitter'
tp458
a(S'1169432826'
S'Manize Rahman'
tp459
a(S'1051507355'
S'Jack Douglas'
tp460
a(S'100002122636022'
S'Nathalie Griffiths'
tp461
a(S'1650373182'
S'Joe Raucci'
tp462
a(S'100005670546212'
S'Christopher Vann'
tp463
a(S'100000365324554'
S'Vanessa Gill'
tp464
a(S'538335238'
S'Vanessa Vaz'
tp465
a(S'1790176379'
S'SueSan Chen'
tp466
a(S'1600656697'
S'Vivien Yang'
tp467
a(S'836318958'
p468
S'Amnah Ahmad'
tp469
a(S'1213103604'
S'Lena Youness'
tp470
a(S'1283572545'
S'Aashna Desai'
tp471
a(S'1263392629'
S'Paavani Chadha'
tp472
a(S'1409314553'
S'Yonas Dinkneh'
tp473
a(S'1268416210'
S'Nabeel Shah'
tp474
a(S'100000499423988'
S'Laura Jonsson'
tp475
a(S'1790169388'
S'Audrey Blinkinsop'
tp476
a(S'100001316919076'
S'Sydni Williams'
tp477
a(S'1213897161'
S'Tanvi Shah'
tp478
a(S'886900033'
S'Zahira Said'
tp479
a(S'1331187469'
S'Ioana Gafar'
tp480
a(S'612924438'
S'Urvi Raghbeer'
tp481
a(S'1524807713'
S'Emily Stuart'
tp482
a(S'1674422332'
S'Yukina Mikita'
tp483
a(S'1472945005'
S'Krsana Asnani'
tp484
a(S'1670510708'
S'Anna Shukla'
tp485
a(S'690570601'
S'Chandrika Srivastava'
tp486
a(S'1736750458'
S'Vikram Prasad'
tp487
a(S'696429089'
S'Kyra Irani'
tp488
a(S'1330459902'
S'Rachel Kim'
tp489
a(S'647881299'
S'Abida Halstenberg'
tp490
a(S'1657064950'
S'Binayesha Patel'
tp491
a(S'100000154930150'
S'Monica Manney'
tp492
a(S'100001177329403'
S'Alex Hunter'
tp493
a(S'1309004757'
S'Nathan Seife'
tp494
a(S'1645145559'
S'Jacquelyn Davis'
tp495
a(S'1272670927'
S'Janine Dubash'
tp496
a(S'1482242022'
S'Connar Stormageddon Brown'
tp497
a(S'580026655'
S'Daksha Parmani'
tp498
a(S'1248015865'
S'Lara Simone'
tp499
a(S'1830764486'
S'Shehla Mehmood'
tp500
a(S'1129360929'
S'Yumna Shah'
tp501
a(S'1467222777'
S'Samradha Sanjeev'
tp502
a(S'100000749654167'
S'Jamie Fass'
tp503
a(S'1248025551'
S'Nivedita Kutty Vatsa'
tp504
a(S'100003817373689'
S'Maalik Mbatch'
tp505
a(S'100001679800179'
S'Mekhala Bijawat'
tp506
a(S'100001229245569'
S'Red Paws Rescue'
tp507
a(S'100003951259429'
S'Camila Vergara'
tp508
a(S'1421492427'
S'Chris Lopez'
tp509
a(S'100007888320343'
S'John Stremble'
tp510
a(S'626550416'
S'Ria Mirchandani'
tp511
a(S'1347562490'
S'Allie Melendez'
tp512
a(S'100005019312208'
S'James Lituchy'
tp513
a(S'1260231065'
S'Gabriel Menescal'
tp514
a(S'100001559751227'
S'Hardik Singh'
tp515
a(S'1588800615'
S'Max McGrath'
tp516
a(S'1456934354'
S'Avi Agarwal'
tp517
a(S'1305911262'
S'Katrina A. Gunara'
tp518
a(S'1523325712'
S'Ahmed Alramly'
tp519
a(S'1440936329'
S'Cindaay Beatriz Wong Lema'
tp520
a(S'1064316248'
S'Carolina Montoya Pabon'
tp521
a(S'100001889386609'
S'Arthur Rocha'
tp522
a(S'100000206547961'
S'Alex R. Campili'
tp523
a(S'100000566862732'
S'Cameron McClure'
tp524
a(S'1202100642'
S'Shahina Rashid'
tp525
a(S'100000141061007'
S'Zainab Mahmud'
tp526
a(S'1326192891'
S'Shivanggini Kant'
tp527
a(S'1076079213'
S'Ana Cazenove Gordon'
tp528
a(S'100000054609384'
S'Omar Asghar Ahmad'
tp529
a(S'1828148023'
S'Michaella Petrucci'
tp530
a(S'1472242806'
S'Isabelle Preddy'
tp531
a(S'100004313233083'
S'Ruchi Ahuja'
tp532
a(S'100000103442160'
S'Laura Galligan'
tp533
a(S'100002934276730'
S'Brian Schmeltzer'
tp534
a(S'100000153899068'
S'Khushboo Desai'
tp535
a(S'100000846777306'
S'Rowan Yearley'
tp536
a(S'100001534245921'
S'Peter Skow'
tp537
a(S'619985036'
S'Mohini Jha'
tp538
a(S'100000054120110'
S'Tarini Date'
tp539
a(S'1122387355'
S'Simran Kothari'
tp540
a(S'100001794823925'
S'Celia Mitchell'
tp541
a(S'720577118'
S'Gayatri Menon'
tp542
a(S'100002856947884'
S'Caroline Cline'
tp543
a(S'1407194525'
S'Aanya Dalmia'
tp544
a(S'1095305371'
S'Danyal Mahmood'
tp545
a(S'1439234591'
S'Katja Rand'
tp546
a(S'632103091'
S'Alya Ansari'
tp547
a(S'100000986977338'
S'Savannah Henry'
tp548
a(S'100000073098915'
S'Alexis Mary'
tp549
a(S'100001064984281'
S"Destiny Jah'on"
tp550
a(S'100001209215837'
S'Imogen Tate Campbell'
tp551
a(S'100002702767670'
S"Chris D'Angelo"
tp552
a(S'1469397362'
S'Sabah Sharma'
tp553
a(S'1407205552'
S'Ali Mir'
tp554
a(S'1441937381'
S'Colin Sears'
tp555
a(S'705516389'
S'Anunay Kulshrestha'
tp556
a(S'1423604742'
S'Emma Rand'
tp557
a(S'100004476575091'
S'Sasha Aman'
tp558
a(S'100003815418502'
S'Angel Vaughn'
tp559
a(S'100000297117996'
S'Alia Ahmed Rashid'
tp560
a(S'100004648175797'
S'Asl Compliments'
tp561
a(S'764949706'
S'Niyosha Gandhi'
tp562
a(S'1293694510'
S'Katherine Liu'
tp563
a(S'100000261290625'
S'Maggie McWethy'
tp564
a(S'100000537651478'
S'Torrey Coe'
tp565
a(S'100001744426104'
S'Doug Heynderickx'
tp566
a(S'100003233214405'
S'Christen Carter'
tp567
a(S'710152298'
S'Fionnuala MacFadden'
tp568
a(S'100003638431135'
S'Alex Bennett'
tp569
a(S'576865450'
S'Kshitij Sharan'
tp570
a(S'1497001894'
S'Laurence Church'
tp571
a(S'100001105727789'
S'Audrey Leland'
tp572
a(S'1618652509'
S'Ummesalama Potia'
tp573
a(S'1341034501'
S'Lindsey Michelle'
tp574
a(S'602698170'
S'Karan Khaitan'
tp575
a(S'100003080596067'
S'Miriam Fraga'
tp576
a(S'1452190429'
S'Caroline Hoffmann'
tp577
a(S'1469806286'
S'Annabelle Mercer'
tp578
a(S'1744007872'
S'Timur Zakirov'
tp579
a(S'100003346997158'
S'Helena Milazzo'
tp580
a(S'100000335037649'
S'Cherree Shin'
tp581
a(S'100000214517517'
S"Connor Dell'anno"
tp582
a(S'1452054874'
S'Tanya Agarwal'
tp583
a(S'575087035'
S'Nayanika R Nambiar'
tp584
a(S'1635702663'
S'Sarah Casanova'
tp585
a(S'100000878604926'
S'Issy Kelly'
tp586
a(S'1464804414'
S'Malavika Madan'
tp587
a(S'100002391030833'
S'Victoria Ivy'
tp588
a(S'1299039944'
S'Sajel Swartz'
tp589
a(S'1354179802'
S'Aditi Bhalla'
tp590
a(S'583292222'
S'Isabella Brohier-Wood'
tp591
a(S'100000510745792'
S'Daniel Zimmermann'
tp592
a(S'100000647231939'
S'Stephanie Adanna Isilebo'
tp593
a(S'100002608747139'
S'Sierra Prasad'
tp594
a(S'1233169526'
S'Sayo Koike'
tp595
a(S'100000604665525'
S'Samantha Del Vecchio'
tp596
a(S'1045557341'
S'Lucia Youness'
tp597
a(S'100001553376226'
S'Zaria Noble'
tp598
a(S'100000026717999'
S'Anya Parakh'
tp599
a(S'100000516723659'
S'Henry Kremer'
tp600
a(S'1249940475'
S'Aisha Dev'
tp601
a(S'100000535866940'
S'Alec Ashley'
tp602
asS'id'
p603
g468
sS'name'
p604
S'Amnah Ahmad'
p605
s.