(dp1
S'friends'
p2
(lp3
(S'100006816318869'
S'Thomas Betty'
tp4
a(S'1667540435'
S'Akshay Flipped Sharma'
tp5
a(S'838218577'
S'Joshua Benny'
tp6
asS'id'
p7
S'838218577'
p8
sS'name'
p9
S'Joshua Benny'
p10
s.