(dp1
S'current_text'
p2
VLahore, Pakistan\u000aCurrent City
p3
sS'name'
p4
S'Usman Khurshid'
p5
sS'current_class'
p6
S'pakistan'
p7
sS'friends'
p8
(lp9
sS'id'
p10
S'887045407'
p11
sS'current_link'
p12
Vhttps://www.facebook.com/l.php?u=https%3A%2F%2Fwww.bing.com%2Fmaps%2Fdefault.aspx%3Fv%3D2%26pc%3DFACEBK%26mid%3D8100%26where1%3D31.549700669186%252C%2B74.343109130859%26name%3DLahore%252C%2BPakistan%26mkt%3Den-IN&h=RAQGua04l&s=1
p13
s.